Archive member included to satisfy reference by file (symbol)

mesh/core/libmesh_core_nrf51422_xxAC.a(event.c.obj)
                              examples/beaconing/CMakeFiles/beaconing_nrf51422_xxAC_s130_2.0.1.dir/__/__/mesh/access/src/access.c.obj (event_handle)
mesh/core/libmesh_core_nrf51422_xxAC.a(net_state.c.obj)
                              examples/beaconing/CMakeFiles/beaconing_nrf51422_xxAC_s130_2.0.1.dir/__/__/mesh/access/src/device_state_manager.c.obj (net_state_flash_area_get)
mesh/core/libmesh_core_nrf51422_xxAC.a(nrf_mesh_utils.c.obj)
                              examples/beaconing/CMakeFiles/beaconing_nrf51422_xxAC_s130_2.0.1.dir/__/__/mesh/access/src/device_state_manager.c.obj (nrf_mesh_address_type_get)
mesh/core/libmesh_core_nrf51422_xxAC.a(nrf_mesh.c.obj)
                              examples/beaconing/CMakeFiles/beaconing_nrf51422_xxAC_s130_2.0.1.dir/__/nrf_mesh_sdk.c.obj (nrf_mesh_init)
mesh/core/libmesh_core_nrf51422_xxAC.a(hal.c.obj)
                              mesh/core/libmesh_core_nrf51422_xxAC.a(nrf_mesh.c.obj) (hal_lfclk_ppm_get)
mesh/core/libmesh_core_nrf51422_xxAC.a(timer_scheduler.c.obj)
                              mesh/core/libmesh_core_nrf51422_xxAC.a(nrf_mesh.c.obj) (timer_sch_init)
mesh/core/libmesh_core_nrf51422_xxAC.a(timer.c.obj)
                              mesh/core/libmesh_core_nrf51422_xxAC.a(timer_scheduler.c.obj) (timer_order_cb)
mesh/core/libmesh_core_nrf51422_xxAC.a(ticker.c.obj)
                              mesh/core/libmesh_core_nrf51422_xxAC.a(nrf_mesh.c.obj) (ticker_init)
mesh/core/libmesh_core_nrf51422_xxAC.a(rand.c.obj)
                              mesh/core/libmesh_core_nrf51422_xxAC.a(nrf_mesh_utils.c.obj) (rand_hw_rng_get)
mesh/core/libmesh_core_nrf51422_xxAC.a(timeslot.c.obj)
                              mesh/core/libmesh_core_nrf51422_xxAC.a(nrf_mesh.c.obj) (timeslot_sd_event_handler)
mesh/core/libmesh_core_nrf51422_xxAC.a(bearer_event.c.obj)
                              mesh/core/libmesh_core_nrf51422_xxAC.a(nrf_mesh.c.obj) (bearer_event_init)
mesh/core/libmesh_core_nrf51422_xxAC.a(network.c.obj)
                              mesh/core/libmesh_core_nrf51422_xxAC.a(nrf_mesh.c.obj) (network_init)
mesh/core/libmesh_core_nrf51422_xxAC.a(nrf_mesh_keygen.c.obj)
                              examples/beaconing/CMakeFiles/beaconing_nrf51422_xxAC_s130_2.0.1.dir/__/__/mesh/access/src/device_state_manager.c.obj (nrf_mesh_keygen_aid)
mesh/core/libmesh_core_nrf51422_xxAC.a(log.c.obj)
                              examples/beaconing/CMakeFiles/beaconing_nrf51422_xxAC_s130_2.0.1.dir/src/main.c.obj (log_callback_rtt)
mesh/core/libmesh_core_nrf51422_xxAC.a(flash_manager.c.obj)
                              mesh/core/libmesh_core_nrf51422_xxAC.a(nrf_mesh.c.obj) (flash_manager_init)
mesh/core/libmesh_core_nrf51422_xxAC.a(beacon.c.obj)
                              mesh/core/libmesh_core_nrf51422_xxAC.a(nrf_mesh.c.obj) (beacon_init)
mesh/core/libmesh_core_nrf51422_xxAC.a(flash_manager_internal.c.obj)
                              mesh/core/libmesh_core_nrf51422_xxAC.a(flash_manager.c.obj) (entry_get)
mesh/core/libmesh_core_nrf51422_xxAC.a(core_tx.c.obj)
                              mesh/core/libmesh_core_nrf51422_xxAC.a(nrf_mesh.c.obj) (core_tx_init)
mesh/core/libmesh_core_nrf51422_xxAC.a(net_beacon.c.obj)
                              mesh/core/libmesh_core_nrf51422_xxAC.a(network.c.obj) (net_beacon_init)
mesh/core/libmesh_core_nrf51422_xxAC.a(advertiser.c.obj)
                              mesh/core/libmesh_core_nrf51422_xxAC.a(nrf_mesh.c.obj) (advertiser_init)
mesh/core/libmesh_core_nrf51422_xxAC.a(bearer_handler.c.obj)
                              mesh/core/libmesh_core_nrf51422_xxAC.a(nrf_mesh.c.obj) (bearer_handler_init)
mesh/core/libmesh_core_nrf51422_xxAC.a(broadcast.c.obj)
                              mesh/core/libmesh_core_nrf51422_xxAC.a(advertiser.c.obj) (broadcast_send)
mesh/core/libmesh_core_nrf51422_xxAC.a(radio_config.c.obj)
                              mesh/core/libmesh_core_nrf51422_xxAC.a(broadcast.c.obj) (radio_config_reset)
mesh/core/libmesh_core_nrf51422_xxAC.a(scanner.c.obj)
                              mesh/core/libmesh_core_nrf51422_xxAC.a(bearer_handler.c.obj) (scanner_radio_start)
mesh/core/libmesh_core_nrf51422_xxAC.a(internal_event.c.obj)
                              mesh/core/libmesh_core_nrf51422_xxAC.a(network.c.obj) (internal_event_push)
mesh/core/libmesh_core_nrf51422_xxAC.a(nrf_mesh_configure.c.obj)
                              mesh/core/libmesh_core_nrf51422_xxAC.a(nrf_mesh.c.obj) (nrf_mesh_configure_device_uuid_reset)
mesh/core/libmesh_core_nrf51422_xxAC.a(msg_cache.c.obj)
                              mesh/core/libmesh_core_nrf51422_xxAC.a(nrf_mesh.c.obj) (msg_cache_init)
mesh/core/libmesh_core_nrf51422_xxAC.a(transport.c.obj)
                              mesh/core/libmesh_core_nrf51422_xxAC.a(nrf_mesh.c.obj) (transport_init)
mesh/core/libmesh_core_nrf51422_xxAC.a(packet_buffer.c.obj)
                              mesh/core/libmesh_core_nrf51422_xxAC.a(flash_manager.c.obj) (packet_buffer_init)
mesh/core/libmesh_core_nrf51422_xxAC.a(flash_manager_defrag.c.obj)
                              mesh/core/libmesh_core_nrf51422_xxAC.a(flash_manager.c.obj) (flash_manager_defrag_init)
mesh/core/libmesh_core_nrf51422_xxAC.a(fifo.c.obj)
                              mesh/core/libmesh_core_nrf51422_xxAC.a(bearer_event.c.obj) (fifo_init)
mesh/core/libmesh_core_nrf51422_xxAC.a(packet_mgr.c.obj)
                              mesh/core/libmesh_core_nrf51422_xxAC.a(nrf_mesh.c.obj) (packet_mgr_init)
mesh/core/libmesh_core_nrf51422_xxAC.a(mesh_flash.c.obj)
                              mesh/core/libmesh_core_nrf51422_xxAC.a(flash_manager.c.obj) (mesh_flash_user_callback_set)
mesh/core/libmesh_core_nrf51422_xxAC.a(queue.c.obj)
                              mesh/core/libmesh_core_nrf51422_xxAC.a(bearer_event.c.obj) (queue_init)
mesh/core/libmesh_core_nrf51422_xxAC.a(enc.c.obj)
                              mesh/core/libmesh_core_nrf51422_xxAC.a(network.c.obj) (enc_aes_encrypt)
mesh/core/libmesh_core_nrf51422_xxAC.a(msqueue.c.obj)
                              mesh/core/libmesh_core_nrf51422_xxAC.a(mesh_flash.c.obj) (msq_get)
mesh/core/libmesh_core_nrf51422_xxAC.a(ccm_soft.c.obj)
                              mesh/core/libmesh_core_nrf51422_xxAC.a(enc.c.obj) (ccm_soft_encrypt)
mesh/core/libmesh_core_nrf51422_xxAC.a(replay_cache.c.obj)
                              mesh/core/libmesh_core_nrf51422_xxAC.a(transport.c.obj) (replay_cache_add)
mesh/core/libmesh_core_nrf51422_xxAC.a(filter_engine.c.obj)
                              mesh/core/libmesh_core_nrf51422_xxAC.a(scanner.c.obj) (fen_filters_apply)
mesh/core/libmesh_core_nrf51422_xxAC.a(aes.c.obj)
                              mesh/core/libmesh_core_nrf51422_xxAC.a(enc.c.obj) (aes_encrypt)
mesh/core/libmesh_core_nrf51422_xxAC.a(nrf_flash.c.obj)
                              mesh/core/libmesh_core_nrf51422_xxAC.a(mesh_flash.c.obj) (nrf_flash_erase)
mesh/core/libmesh_core_nrf51422_xxAC.a(aes_cmac.c.obj)
                              mesh/core/libmesh_core_nrf51422_xxAC.a(enc.c.obj) (aes_cmac)
external/rtt/librtt_nrf51422_xxAC.a(SEGGER_RTT.c.obj)
                              mesh/core/libmesh_core_nrf51422_xxAC.a(log.c.obj) (SEGGER_RTT_Write)
external/rtt/librtt_nrf51422_xxAC.a(SEGGER_RTT_printf.c.obj)
                              mesh/core/libmesh_core_nrf51422_xxAC.a(log.c.obj) (SEGGER_RTT_vprintf)
c:/a/gcc_arm/6/bin/../lib/gcc/arm-none-eabi/6.3.1/thumb/v6-m\libgcc.a(_thumb1_case_uqi.o)
                              examples/beaconing/CMakeFiles/beaconing_nrf51422_xxAC_s130_2.0.1.dir/__/__/mesh/access/src/access_publish.c.obj (__gnu_thumb1_case_uqi)
c:/a/gcc_arm/6/bin/../lib/gcc/arm-none-eabi/6.3.1/thumb/v6-m\libgcc.a(_thumb1_case_shi.o)
                              mesh/core/libmesh_core_nrf51422_xxAC.a(flash_manager.c.obj) (__gnu_thumb1_case_shi)
c:/a/gcc_arm/6/bin/../lib/gcc/arm-none-eabi/6.3.1/thumb/v6-m\libgcc.a(_thumb1_case_uhi.o)
                              mesh/core/libmesh_core_nrf51422_xxAC.a(flash_manager.c.obj) (__gnu_thumb1_case_uhi)
c:/a/gcc_arm/6/bin/../lib/gcc/arm-none-eabi/6.3.1/thumb/v6-m\libgcc.a(_udivsi3.o)
                              examples/beaconing/CMakeFiles/beaconing_nrf51422_xxAC_s130_2.0.1.dir/__/__/mesh/access/src/access_publish.c.obj (__aeabi_uidiv)
c:/a/gcc_arm/6/bin/../lib/gcc/arm-none-eabi/6.3.1/thumb/v6-m\libgcc.a(_divsi3.o)
                              examples/beaconing/CMakeFiles/beaconing_nrf51422_xxAC_s130_2.0.1.dir/__/__/mesh/access/src/access_reliable.c.obj (__aeabi_idiv)
c:/a/gcc_arm/6/bin/../lib/gcc/arm-none-eabi/6.3.1/thumb/v6-m\libgcc.a(_dvmd_tls.o)
                              c:/a/gcc_arm/6/bin/../lib/gcc/arm-none-eabi/6.3.1/thumb/v6-m\libgcc.a(_udivsi3.o) (__aeabi_idiv0)
c:/a/gcc_arm/6/bin/../lib/gcc/arm-none-eabi/6.3.1/thumb/v6-m\libgcc.a(_muldi3.o)
                              mesh/core/libmesh_core_nrf51422_xxAC.a(timeslot.c.obj) (__aeabi_lmul)
c:/a/gcc_arm/6/bin/../lib/gcc/arm-none-eabi/6.3.1/../../../../arm-none-eabi/lib/thumb/v6-m\libc_nano.a(lib_a-exit.o)
                              c:/a/gcc_arm/6/bin/../lib/gcc/arm-none-eabi/6.3.1/../../../../arm-none-eabi/lib/thumb/v6-m/crt0.o (exit)
c:/a/gcc_arm/6/bin/../lib/gcc/arm-none-eabi/6.3.1/../../../../arm-none-eabi/lib/thumb/v6-m\libc_nano.a(lib_a-impure.o)
                              c:/a/gcc_arm/6/bin/../lib/gcc/arm-none-eabi/6.3.1/../../../../arm-none-eabi/lib/thumb/v6-m\libc_nano.a(lib_a-exit.o) (_global_impure_ptr)
c:/a/gcc_arm/6/bin/../lib/gcc/arm-none-eabi/6.3.1/../../../../arm-none-eabi/lib/thumb/v6-m\libc_nano.a(lib_a-init.o)
                              c:/a/gcc_arm/6/bin/../lib/gcc/arm-none-eabi/6.3.1/../../../../arm-none-eabi/lib/thumb/v6-m/crt0.o (__libc_init_array)
c:/a/gcc_arm/6/bin/../lib/gcc/arm-none-eabi/6.3.1/../../../../arm-none-eabi/lib/thumb/v6-m\libc_nano.a(lib_a-malloc.o)
                              mesh/core/libmesh_core_nrf51422_xxAC.a(transport.c.obj) (malloc)
c:/a/gcc_arm/6/bin/../lib/gcc/arm-none-eabi/6.3.1/../../../../arm-none-eabi/lib/thumb/v6-m\libc_nano.a(lib_a-memcmp.o)
                              examples/beaconing/CMakeFiles/beaconing_nrf51422_xxAC_s130_2.0.1.dir/__/__/mesh/access/src/device_state_manager.c.obj (memcmp)
c:/a/gcc_arm/6/bin/../lib/gcc/arm-none-eabi/6.3.1/../../../../arm-none-eabi/lib/thumb/v6-m\libc_nano.a(lib_a-memcpy-stub.o)
                              examples/beaconing/CMakeFiles/beaconing_nrf51422_xxAC_s130_2.0.1.dir/src/main.c.obj (memcpy)
c:/a/gcc_arm/6/bin/../lib/gcc/arm-none-eabi/6.3.1/../../../../arm-none-eabi/lib/thumb/v6-m\libc_nano.a(lib_a-memset.o)
                              c:/a/gcc_arm/6/bin/../lib/gcc/arm-none-eabi/6.3.1/../../../../arm-none-eabi/lib/thumb/v6-m/crt0.o (memset)
c:/a/gcc_arm/6/bin/../lib/gcc/arm-none-eabi/6.3.1/../../../../arm-none-eabi/lib/thumb/v6-m\libc_nano.a(lib_a-nano-freer.o)
                              c:/a/gcc_arm/6/bin/../lib/gcc/arm-none-eabi/6.3.1/../../../../arm-none-eabi/lib/thumb/v6-m\libc_nano.a(lib_a-malloc.o) (_free_r)
c:/a/gcc_arm/6/bin/../lib/gcc/arm-none-eabi/6.3.1/../../../../arm-none-eabi/lib/thumb/v6-m\libc_nano.a(lib_a-nano-mallocr.o)
                              c:/a/gcc_arm/6/bin/../lib/gcc/arm-none-eabi/6.3.1/../../../../arm-none-eabi/lib/thumb/v6-m\libc_nano.a(lib_a-malloc.o) (_malloc_r)
c:/a/gcc_arm/6/bin/../lib/gcc/arm-none-eabi/6.3.1/../../../../arm-none-eabi/lib/thumb/v6-m\libc_nano.a(lib_a-sbrkr.o)
                              c:/a/gcc_arm/6/bin/../lib/gcc/arm-none-eabi/6.3.1/../../../../arm-none-eabi/lib/thumb/v6-m\libc_nano.a(lib_a-nano-mallocr.o) (_sbrk_r)
c:/a/gcc_arm/6/bin/../lib/gcc/arm-none-eabi/6.3.1/../../../../arm-none-eabi/lib/thumb/v6-m\libc_nano.a(lib_a-sprintf.o)
                              examples/beaconing/CMakeFiles/beaconing_nrf51422_xxAC_s130_2.0.1.dir/src/main.c.obj (sprintf)
c:/a/gcc_arm/6/bin/../lib/gcc/arm-none-eabi/6.3.1/../../../../arm-none-eabi/lib/thumb/v6-m\libc_nano.a(lib_a-strcpy.o)
                              external/rtt/librtt_nrf51422_xxAC.a(SEGGER_RTT.c.obj) (strcpy)
c:/a/gcc_arm/6/bin/../lib/gcc/arm-none-eabi/6.3.1/../../../../arm-none-eabi/lib/thumb/v6-m\libc_nano.a(lib_a-strlen.o)
                              external/rtt/librtt_nrf51422_xxAC.a(SEGGER_RTT.c.obj) (strlen)
c:/a/gcc_arm/6/bin/../lib/gcc/arm-none-eabi/6.3.1/../../../../arm-none-eabi/lib/thumb/v6-m\libc_nano.a(lib_a-strrchr.o)
                              examples/beaconing/CMakeFiles/beaconing_nrf51422_xxAC_s130_2.0.1.dir/src/main.c.obj (strrchr)
c:/a/gcc_arm/6/bin/../lib/gcc/arm-none-eabi/6.3.1/../../../../arm-none-eabi/lib/thumb/v6-m\libc_nano.a(lib_a-mlock.o)
                              c:/a/gcc_arm/6/bin/../lib/gcc/arm-none-eabi/6.3.1/../../../../arm-none-eabi/lib/thumb/v6-m\libc_nano.a(lib_a-nano-freer.o) (__malloc_lock)
c:/a/gcc_arm/6/bin/../lib/gcc/arm-none-eabi/6.3.1/../../../../arm-none-eabi/lib/thumb/v6-m\libc_nano.a(lib_a-nano-svfprintf.o)
                              c:/a/gcc_arm/6/bin/../lib/gcc/arm-none-eabi/6.3.1/../../../../arm-none-eabi/lib/thumb/v6-m\libc_nano.a(lib_a-sprintf.o) (_svfprintf_r)
c:/a/gcc_arm/6/bin/../lib/gcc/arm-none-eabi/6.3.1/../../../../arm-none-eabi/lib/thumb/v6-m\libc_nano.a(lib_a-nano-vfprintf_i.o)
                              c:/a/gcc_arm/6/bin/../lib/gcc/arm-none-eabi/6.3.1/../../../../arm-none-eabi/lib/thumb/v6-m\libc_nano.a(lib_a-nano-svfprintf.o) (_printf_i)
c:/a/gcc_arm/6/bin/../lib/gcc/arm-none-eabi/6.3.1/../../../../arm-none-eabi/lib/thumb/v6-m\libc_nano.a(lib_a-reent.o)
                              c:/a/gcc_arm/6/bin/../lib/gcc/arm-none-eabi/6.3.1/../../../../arm-none-eabi/lib/thumb/v6-m\libc_nano.a(lib_a-sbrkr.o) (errno)
c:/a/gcc_arm/6/bin/../lib/gcc/arm-none-eabi/6.3.1/../../../../arm-none-eabi/lib/thumb/v6-m\libc_nano.a(lib_a-strchr.o)
                              c:/a/gcc_arm/6/bin/../lib/gcc/arm-none-eabi/6.3.1/../../../../arm-none-eabi/lib/thumb/v6-m\libc_nano.a(lib_a-strrchr.o) (strchr)
c:/a/gcc_arm/6/bin/../lib/gcc/arm-none-eabi/6.3.1/../../../../arm-none-eabi/lib/thumb/v6-m\libc_nano.a(lib_a-memchr-stub.o)
                              c:/a/gcc_arm/6/bin/../lib/gcc/arm-none-eabi/6.3.1/../../../../arm-none-eabi/lib/thumb/v6-m\libc_nano.a(lib_a-nano-svfprintf.o) (memchr)
c:/a/gcc_arm/6/bin/../lib/gcc/arm-none-eabi/6.3.1/../../../../arm-none-eabi/lib/thumb/v6-m\libc_nano.a(lib_a-memmove.o)
                              c:/a/gcc_arm/6/bin/../lib/gcc/arm-none-eabi/6.3.1/../../../../arm-none-eabi/lib/thumb/v6-m\libc_nano.a(lib_a-nano-svfprintf.o) (memmove)
c:/a/gcc_arm/6/bin/../lib/gcc/arm-none-eabi/6.3.1/../../../../arm-none-eabi/lib/thumb/v6-m\libc_nano.a(lib_a-nano-reallocr.o)
                              c:/a/gcc_arm/6/bin/../lib/gcc/arm-none-eabi/6.3.1/../../../../arm-none-eabi/lib/thumb/v6-m\libc_nano.a(lib_a-nano-svfprintf.o) (_realloc_r)
c:/a/gcc_arm/6/bin/../lib/gcc/arm-none-eabi/6.3.1/../../../../arm-none-eabi/lib/thumb/v6-m\libc_nano.a(lib_a-nano-msizer.o)
                              c:/a/gcc_arm/6/bin/../lib/gcc/arm-none-eabi/6.3.1/../../../../arm-none-eabi/lib/thumb/v6-m\libc_nano.a(lib_a-nano-reallocr.o) (_malloc_usable_size_r)
c:/a/gcc_arm/6/bin/../lib/gcc/arm-none-eabi/6.3.1/../../../../arm-none-eabi/lib/thumb/v6-m\libnosys.a(sbrk.o)
                              c:/a/gcc_arm/6/bin/../lib/gcc/arm-none-eabi/6.3.1/../../../../arm-none-eabi/lib/thumb/v6-m\libc_nano.a(lib_a-sbrkr.o) (_sbrk)
c:/a/gcc_arm/6/bin/../lib/gcc/arm-none-eabi/6.3.1/../../../../arm-none-eabi/lib/thumb/v6-m\libnosys.a(_exit.o)
                              c:/a/gcc_arm/6/bin/../lib/gcc/arm-none-eabi/6.3.1/../../../../arm-none-eabi/lib/thumb/v6-m\libc_nano.a(lib_a-exit.o) (_exit)

Allocating common symbols
Common symbol       size              file

nrf_nvic_state      0x8               examples/beaconing/CMakeFiles/beaconing_nrf51422_xxAC_s130_2.0.1.dir/__/nrf_mesh_sdk.c.obj
errno               0x4               c:/a/gcc_arm/6/bin/../lib/gcc/arm-none-eabi/6.3.1/../../../../arm-none-eabi/lib/thumb/v6-m\libc_nano.a(lib_a-reent.o)
m_assertion_handler
                    0x4               mesh/core/libmesh_core_nrf51422_xxAC.a(nrf_mesh.c.obj)
_SEGGER_RTT         0x78              external/rtt/librtt_nrf51422_xxAC.a(SEGGER_RTT.c.obj)

Discarded input sections

 .text          0x00000000        0x0 c:/a/gcc_arm/6/bin/../lib/gcc/arm-none-eabi/6.3.1/thumb/v6-m/crti.o
 .data          0x00000000        0x0 c:/a/gcc_arm/6/bin/../lib/gcc/arm-none-eabi/6.3.1/thumb/v6-m/crti.o
 .bss           0x00000000        0x0 c:/a/gcc_arm/6/bin/../lib/gcc/arm-none-eabi/6.3.1/thumb/v6-m/crti.o
 .data          0x00000000        0x4 c:/a/gcc_arm/6/bin/../lib/gcc/arm-none-eabi/6.3.1/thumb/v6-m/crtbegin.o
 .data          0x00000000        0x0 c:/a/gcc_arm/6/bin/../lib/gcc/arm-none-eabi/6.3.1/../../../../arm-none-eabi/lib/thumb/v6-m/crt0.o
 .bss           0x00000000        0x0 c:/a/gcc_arm/6/bin/../lib/gcc/arm-none-eabi/6.3.1/../../../../arm-none-eabi/lib/thumb/v6-m/crt0.o
 .ARM.extab     0x00000000        0x0 c:/a/gcc_arm/6/bin/../lib/gcc/arm-none-eabi/6.3.1/../../../../arm-none-eabi/lib/thumb/v6-m/crt0.o
 .text          0x00000000        0x0 examples/beaconing/CMakeFiles/beaconing_nrf51422_xxAC_s130_2.0.1.dir/src/main.c.obj
 .data          0x00000000        0x0 examples/beaconing/CMakeFiles/beaconing_nrf51422_xxAC_s130_2.0.1.dir/src/main.c.obj
 .bss           0x00000000        0x0 examples/beaconing/CMakeFiles/beaconing_nrf51422_xxAC_s130_2.0.1.dir/src/main.c.obj
 .text          0x00000000        0x0 examples/beaconing/CMakeFiles/beaconing_nrf51422_xxAC_s130_2.0.1.dir/__/nrf_mesh_sdk.c.obj
 .data          0x00000000        0x0 examples/beaconing/CMakeFiles/beaconing_nrf51422_xxAC_s130_2.0.1.dir/__/nrf_mesh_sdk.c.obj
 .bss           0x00000000        0x0 examples/beaconing/CMakeFiles/beaconing_nrf51422_xxAC_s130_2.0.1.dir/__/nrf_mesh_sdk.c.obj
 .text          0x00000000        0x0 examples/beaconing/CMakeFiles/beaconing_nrf51422_xxAC_s130_2.0.1.dir/__/__/mesh/access/src/access_publish.c.obj
 .data          0x00000000        0x0 examples/beaconing/CMakeFiles/beaconing_nrf51422_xxAC_s130_2.0.1.dir/__/__/mesh/access/src/access_publish.c.obj
 .bss           0x00000000        0x0 examples/beaconing/CMakeFiles/beaconing_nrf51422_xxAC_s130_2.0.1.dir/__/__/mesh/access/src/access_publish.c.obj
 .text.add_to_publication_list
                0x00000000       0x60 examples/beaconing/CMakeFiles/beaconing_nrf51422_xxAC_s130_2.0.1.dir/__/__/mesh/access/src/access_publish.c.obj
 .text.step_resolution_to_us
                0x00000000       0x48 examples/beaconing/CMakeFiles/beaconing_nrf51422_xxAC_s130_2.0.1.dir/__/__/mesh/access/src/access_publish.c.obj
 .text.schedule_publication_timer
                0x00000000      0x16c examples/beaconing/CMakeFiles/beaconing_nrf51422_xxAC_s130_2.0.1.dir/__/__/mesh/access/src/access_publish.c.obj
 .text.publish_timer_tick
                0x00000000       0xac examples/beaconing/CMakeFiles/beaconing_nrf51422_xxAC_s130_2.0.1.dir/__/__/mesh/access/src/access_publish.c.obj
 .text.access_publish_init
                0x00000000       0x38 examples/beaconing/CMakeFiles/beaconing_nrf51422_xxAC_s130_2.0.1.dir/__/__/mesh/access/src/access_publish.c.obj
 .text.access_publish_period_set
                0x00000000       0x84 examples/beaconing/CMakeFiles/beaconing_nrf51422_xxAC_s130_2.0.1.dir/__/__/mesh/access/src/access_publish.c.obj
 .text.access_publish_period_get
                0x00000000       0x30 examples/beaconing/CMakeFiles/beaconing_nrf51422_xxAC_s130_2.0.1.dir/__/__/mesh/access/src/access_publish.c.obj
 .bss.m_publish_timer
                0x00000000       0x18 examples/beaconing/CMakeFiles/beaconing_nrf51422_xxAC_s130_2.0.1.dir/__/__/mesh/access/src/access_publish.c.obj
 .bss.m_publish_timer_counter
                0x00000000        0x4 examples/beaconing/CMakeFiles/beaconing_nrf51422_xxAC_s130_2.0.1.dir/__/__/mesh/access/src/access_publish.c.obj
 .bss.m_publish_timer_running
                0x00000000        0x1 examples/beaconing/CMakeFiles/beaconing_nrf51422_xxAC_s130_2.0.1.dir/__/__/mesh/access/src/access_publish.c.obj
 .bss.m_timer_resolution
                0x00000000        0x1 examples/beaconing/CMakeFiles/beaconing_nrf51422_xxAC_s130_2.0.1.dir/__/__/mesh/access/src/access_publish.c.obj
 .bss.mp_publication_list
                0x00000000        0x4 examples/beaconing/CMakeFiles/beaconing_nrf51422_xxAC_s130_2.0.1.dir/__/__/mesh/access/src/access_publish.c.obj
 .comment       0x00000000       0x80 examples/beaconing/CMakeFiles/beaconing_nrf51422_xxAC_s130_2.0.1.dir/__/__/mesh/access/src/access_publish.c.obj
 .ARM.attributes
                0x00000000       0x31 examples/beaconing/CMakeFiles/beaconing_nrf51422_xxAC_s130_2.0.1.dir/__/__/mesh/access/src/access_publish.c.obj
 .text          0x00000000        0x0 examples/beaconing/CMakeFiles/beaconing_nrf51422_xxAC_s130_2.0.1.dir/__/__/mesh/access/src/access.c.obj
 .data          0x00000000        0x0 examples/beaconing/CMakeFiles/beaconing_nrf51422_xxAC_s130_2.0.1.dir/__/__/mesh/access/src/access.c.obj
 .bss           0x00000000        0x0 examples/beaconing/CMakeFiles/beaconing_nrf51422_xxAC_s130_2.0.1.dir/__/__/mesh/access/src/access.c.obj
 .text.bitfield_get
                0x00000000       0x18 examples/beaconing/CMakeFiles/beaconing_nrf51422_xxAC_s130_2.0.1.dir/__/__/mesh/access/src/access.c.obj
 .text.is_valid_opcode
                0x00000000       0x4c examples/beaconing/CMakeFiles/beaconing_nrf51422_xxAC_s130_2.0.1.dir/__/__/mesh/access/src/access.c.obj
 .text.model_handle_valid_and_allocated
                0x00000000       0x20 examples/beaconing/CMakeFiles/beaconing_nrf51422_xxAC_s130_2.0.1.dir/__/__/mesh/access/src/access.c.obj
 .text.flash_invalidate_complete
                0x00000000       0x18 examples/beaconing/CMakeFiles/beaconing_nrf51422_xxAC_s130_2.0.1.dir/__/__/mesh/access/src/access.c.obj
 .text.flash_manager_mem_available
                0x00000000        0x6 examples/beaconing/CMakeFiles/beaconing_nrf51422_xxAC_s130_2.0.1.dir/__/__/mesh/access/src/access.c.obj
 .text.restore_acquired_subscription
                0x00000000       0x2c examples/beaconing/CMakeFiles/beaconing_nrf51422_xxAC_s130_2.0.1.dir/__/__/mesh/access/src/access.c.obj
 .text.restore_acquired_element
                0x00000000       0x1c examples/beaconing/CMakeFiles/beaconing_nrf51422_xxAC_s130_2.0.1.dir/__/__/mesh/access/src/access.c.obj
 .text.restore_flash_data
                0x00000000       0x5c examples/beaconing/CMakeFiles/beaconing_nrf51422_xxAC_s130_2.0.1.dir/__/__/mesh/access/src/access.c.obj
 .text.access_flash_config_clear
                0x00000000       0x28 examples/beaconing/CMakeFiles/beaconing_nrf51422_xxAC_s130_2.0.1.dir/__/__/mesh/access/src/access.c.obj
 .text.access_flash_config_store
                0x00000000      0x144 examples/beaconing/CMakeFiles/beaconing_nrf51422_xxAC_s130_2.0.1.dir/__/__/mesh/access/src/access.c.obj
 .text.access_state_clear
                0x00000000       0x4c examples/beaconing/CMakeFiles/beaconing_nrf51422_xxAC_s130_2.0.1.dir/__/__/mesh/access/src/access.c.obj
 .text.add_flash_manager
                0x00000000       0x5c examples/beaconing/CMakeFiles/beaconing_nrf51422_xxAC_s130_2.0.1.dir/__/__/mesh/access/src/access.c.obj
 .text.flash_remove_complete
                0x00000000       0x60 examples/beaconing/CMakeFiles/beaconing_nrf51422_xxAC_s130_2.0.1.dir/__/__/mesh/access/src/access.c.obj
 .text.flash_write_complete
                0x00000000       0x54 examples/beaconing/CMakeFiles/beaconing_nrf51422_xxAC_s130_2.0.1.dir/__/__/mesh/access/src/access.c.obj
 .text.unlikely.bitfield_next_get.part.0.constprop.3
                0x00000000       0x34 examples/beaconing/CMakeFiles/beaconing_nrf51422_xxAC_s130_2.0.1.dir/__/__/mesh/access/src/access.c.obj
 .text.restore_acquired_model
                0x00000000       0x88 examples/beaconing/CMakeFiles/beaconing_nrf51422_xxAC_s130_2.0.1.dir/__/__/mesh/access/src/access.c.obj
 .text.handle_incoming
                0x00000000      0x168 examples/beaconing/CMakeFiles/beaconing_nrf51422_xxAC_s130_2.0.1.dir/__/__/mesh/access/src/access.c.obj
 .text.mesh_evt_cb
                0x00000000      0x130 examples/beaconing/CMakeFiles/beaconing_nrf51422_xxAC_s130_2.0.1.dir/__/__/mesh/access/src/access.c.obj
 .text.packet_tx
                0x00000000      0x2f8 examples/beaconing/CMakeFiles/beaconing_nrf51422_xxAC_s130_2.0.1.dir/__/__/mesh/access/src/access.c.obj
 .text.access_flash_config_load
                0x00000000      0x128 examples/beaconing/CMakeFiles/beaconing_nrf51422_xxAC_s130_2.0.1.dir/__/__/mesh/access/src/access.c.obj
 .text.access_clear
                0x00000000       0x10 examples/beaconing/CMakeFiles/beaconing_nrf51422_xxAC_s130_2.0.1.dir/__/__/mesh/access/src/access.c.obj
 .text.access_init
                0x00000000       0x28 examples/beaconing/CMakeFiles/beaconing_nrf51422_xxAC_s130_2.0.1.dir/__/__/mesh/access/src/access.c.obj
 .text.access_model_add
                0x00000000      0x1ac examples/beaconing/CMakeFiles/beaconing_nrf51422_xxAC_s130_2.0.1.dir/__/__/mesh/access/src/access.c.obj
 .text.access_model_publish
                0x00000000       0x14 examples/beaconing/CMakeFiles/beaconing_nrf51422_xxAC_s130_2.0.1.dir/__/__/mesh/access/src/access.c.obj
 .text.access_model_reply
                0x00000000       0x1c examples/beaconing/CMakeFiles/beaconing_nrf51422_xxAC_s130_2.0.1.dir/__/__/mesh/access/src/access.c.obj
 .text.access_model_publish_address_set
                0x00000000       0x3c examples/beaconing/CMakeFiles/beaconing_nrf51422_xxAC_s130_2.0.1.dir/__/__/mesh/access/src/access.c.obj
 .text.access_model_publish_address_get
                0x00000000       0x2c examples/beaconing/CMakeFiles/beaconing_nrf51422_xxAC_s130_2.0.1.dir/__/__/mesh/access/src/access.c.obj
 .text.access_model_publish_period_set
                0x00000000       0x80 examples/beaconing/CMakeFiles/beaconing_nrf51422_xxAC_s130_2.0.1.dir/__/__/mesh/access/src/access.c.obj
 .text.access_model_publish_period_get
                0x00000000       0x44 examples/beaconing/CMakeFiles/beaconing_nrf51422_xxAC_s130_2.0.1.dir/__/__/mesh/access/src/access.c.obj
 .text.access_model_subscription_list_alloc
                0x00000000       0x54 examples/beaconing/CMakeFiles/beaconing_nrf51422_xxAC_s130_2.0.1.dir/__/__/mesh/access/src/access.c.obj
 .text.access_model_subscription_lists_share
                0x00000000       0x4c examples/beaconing/CMakeFiles/beaconing_nrf51422_xxAC_s130_2.0.1.dir/__/__/mesh/access/src/access.c.obj
 .text.access_model_subscription_add
                0x00000000       0x5c examples/beaconing/CMakeFiles/beaconing_nrf51422_xxAC_s130_2.0.1.dir/__/__/mesh/access/src/access.c.obj
 .text.access_model_subscription_remove
                0x00000000       0x5c examples/beaconing/CMakeFiles/beaconing_nrf51422_xxAC_s130_2.0.1.dir/__/__/mesh/access/src/access.c.obj
 .text.access_model_subscriptions_get
                0x00000000       0x7c examples/beaconing/CMakeFiles/beaconing_nrf51422_xxAC_s130_2.0.1.dir/__/__/mesh/access/src/access.c.obj
 .text.access_model_application_bind
                0x00000000       0x50 examples/beaconing/CMakeFiles/beaconing_nrf51422_xxAC_s130_2.0.1.dir/__/__/mesh/access/src/access.c.obj
 .text.access_model_application_unbind
                0x00000000       0x50 examples/beaconing/CMakeFiles/beaconing_nrf51422_xxAC_s130_2.0.1.dir/__/__/mesh/access/src/access.c.obj
 .text.access_model_applications_get
                0x00000000       0x60 examples/beaconing/CMakeFiles/beaconing_nrf51422_xxAC_s130_2.0.1.dir/__/__/mesh/access/src/access.c.obj
 .text.access_model_publish_application_set
                0x00000000       0x3c examples/beaconing/CMakeFiles/beaconing_nrf51422_xxAC_s130_2.0.1.dir/__/__/mesh/access/src/access.c.obj
 .text.access_model_publish_application_get
                0x00000000       0x2c examples/beaconing/CMakeFiles/beaconing_nrf51422_xxAC_s130_2.0.1.dir/__/__/mesh/access/src/access.c.obj
 .text.access_default_ttl_set
                0x00000000       0x10 examples/beaconing/CMakeFiles/beaconing_nrf51422_xxAC_s130_2.0.1.dir/__/__/mesh/access/src/access.c.obj
 .text.access_default_ttl_get
                0x00000000        0xc examples/beaconing/CMakeFiles/beaconing_nrf51422_xxAC_s130_2.0.1.dir/__/__/mesh/access/src/access.c.obj
 .text.access_model_publish_ttl_set
                0x00000000       0x44 examples/beaconing/CMakeFiles/beaconing_nrf51422_xxAC_s130_2.0.1.dir/__/__/mesh/access/src/access.c.obj
 .text.access_model_publish_ttl_get
                0x00000000       0x2c examples/beaconing/CMakeFiles/beaconing_nrf51422_xxAC_s130_2.0.1.dir/__/__/mesh/access/src/access.c.obj
 .text.access_element_location_set
                0x00000000       0x28 examples/beaconing/CMakeFiles/beaconing_nrf51422_xxAC_s130_2.0.1.dir/__/__/mesh/access/src/access.c.obj
 .text.access_element_location_get
                0x00000000       0x1c examples/beaconing/CMakeFiles/beaconing_nrf51422_xxAC_s130_2.0.1.dir/__/__/mesh/access/src/access.c.obj
 .text.access_element_sig_model_count_get
                0x00000000       0x1c examples/beaconing/CMakeFiles/beaconing_nrf51422_xxAC_s130_2.0.1.dir/__/__/mesh/access/src/access.c.obj
 .text.access_element_vendor_model_count_get
                0x00000000       0x1c examples/beaconing/CMakeFiles/beaconing_nrf51422_xxAC_s130_2.0.1.dir/__/__/mesh/access/src/access.c.obj
 .text.access_model_id_get
                0x00000000       0x38 examples/beaconing/CMakeFiles/beaconing_nrf51422_xxAC_s130_2.0.1.dir/__/__/mesh/access/src/access.c.obj
 .text.access_handle_get
                0x00000000       0x54 examples/beaconing/CMakeFiles/beaconing_nrf51422_xxAC_s130_2.0.1.dir/__/__/mesh/access/src/access.c.obj
 .text.access_element_models_get
                0x00000000       0x60 examples/beaconing/CMakeFiles/beaconing_nrf51422_xxAC_s130_2.0.1.dir/__/__/mesh/access/src/access.c.obj
 .text.access_model_p_args_get
                0x00000000       0x2c examples/beaconing/CMakeFiles/beaconing_nrf51422_xxAC_s130_2.0.1.dir/__/__/mesh/access/src/access.c.obj
 .bss.m_element_pool
                0x00000000        0x6 examples/beaconing/CMakeFiles/beaconing_nrf51422_xxAC_s130_2.0.1.dir/__/__/mesh/access/src/access.c.obj
 .bss.m_evt_handler
                0x00000000        0x8 examples/beaconing/CMakeFiles/beaconing_nrf51422_xxAC_s130_2.0.1.dir/__/__/mesh/access/src/access.c.obj
 .bss.m_flash_manager
                0x00000000       0x24 examples/beaconing/CMakeFiles/beaconing_nrf51422_xxAC_s130_2.0.1.dir/__/__/mesh/access/src/access.c.obj
 .bss.m_flash_not_ready
                0x00000000        0x1 examples/beaconing/CMakeFiles/beaconing_nrf51422_xxAC_s130_2.0.1.dir/__/__/mesh/access/src/access.c.obj
 .bss.m_metadata_stored
                0x00000000        0x1 examples/beaconing/CMakeFiles/beaconing_nrf51422_xxAC_s130_2.0.1.dir/__/__/mesh/access/src/access.c.obj
 .bss.m_model_pool
                0x00000000       0x68 examples/beaconing/CMakeFiles/beaconing_nrf51422_xxAC_s130_2.0.1.dir/__/__/mesh/access/src/access.c.obj
 .bss.m_subscription_list_pool
                0x00000000       0x10 examples/beaconing/CMakeFiles/beaconing_nrf51422_xxAC_s130_2.0.1.dir/__/__/mesh/access/src/access.c.obj
 .data.flash_add_mem_available_struct.7843
                0x00000000       0x10 examples/beaconing/CMakeFiles/beaconing_nrf51422_xxAC_s130_2.0.1.dir/__/__/mesh/access/src/access.c.obj
 .data.flash_clear_mem_available_struct.7932
                0x00000000       0x10 examples/beaconing/CMakeFiles/beaconing_nrf51422_xxAC_s130_2.0.1.dir/__/__/mesh/access/src/access.c.obj
 .data.flash_store_mem_available_struct.7956
                0x00000000       0x10 examples/beaconing/CMakeFiles/beaconing_nrf51422_xxAC_s130_2.0.1.dir/__/__/mesh/access/src/access.c.obj
 .data.m_default_ttl
                0x00000000        0x1 examples/beaconing/CMakeFiles/beaconing_nrf51422_xxAC_s130_2.0.1.dir/__/__/mesh/access/src/access.c.obj
 .rodata.mesh_evt_cb.str1.1
                0x00000000       0x2f examples/beaconing/CMakeFiles/beaconing_nrf51422_xxAC_s130_2.0.1.dir/__/__/mesh/access/src/access.c.obj
 .rodata.multiply_de_bruijn_bit_position.6592
                0x00000000       0x20 examples/beaconing/CMakeFiles/beaconing_nrf51422_xxAC_s130_2.0.1.dir/__/__/mesh/access/src/access.c.obj
 .rodata.packet_tx.str1.1
                0x00000000       0x13 examples/beaconing/CMakeFiles/beaconing_nrf51422_xxAC_s130_2.0.1.dir/__/__/mesh/access/src/access.c.obj
 .comment       0x00000000       0x80 examples/beaconing/CMakeFiles/beaconing_nrf51422_xxAC_s130_2.0.1.dir/__/__/mesh/access/src/access.c.obj
 .ARM.attributes
                0x00000000       0x31 examples/beaconing/CMakeFiles/beaconing_nrf51422_xxAC_s130_2.0.1.dir/__/__/mesh/access/src/access.c.obj
 .text          0x00000000        0x0 examples/beaconing/CMakeFiles/beaconing_nrf51422_xxAC_s130_2.0.1.dir/__/__/mesh/access/src/access_reliable.c.obj
 .data          0x00000000        0x0 examples/beaconing/CMakeFiles/beaconing_nrf51422_xxAC_s130_2.0.1.dir/__/__/mesh/access/src/access_reliable.c.obj
 .bss           0x00000000        0x0 examples/beaconing/CMakeFiles/beaconing_nrf51422_xxAC_s130_2.0.1.dir/__/__/mesh/access/src/access_reliable.c.obj
 .text.remove_and_reschedule
                0x00000000       0xe0 examples/beaconing/CMakeFiles/beaconing_nrf51422_xxAC_s130_2.0.1.dir/__/__/mesh/access/src/access_reliable.c.obj
 .text.reliable_timer_cb
                0x00000000      0x150 examples/beaconing/CMakeFiles/beaconing_nrf51422_xxAC_s130_2.0.1.dir/__/__/mesh/access/src/access_reliable.c.obj
 .text.access_reliable_message_rx_cb
                0x00000000       0x88 examples/beaconing/CMakeFiles/beaconing_nrf51422_xxAC_s130_2.0.1.dir/__/__/mesh/access/src/access_reliable.c.obj
 .text.access_reliable_init
                0x00000000       0x1c examples/beaconing/CMakeFiles/beaconing_nrf51422_xxAC_s130_2.0.1.dir/__/__/mesh/access/src/access_reliable.c.obj
 .text.access_reliable_cancel_all
                0x00000000       0x34 examples/beaconing/CMakeFiles/beaconing_nrf51422_xxAC_s130_2.0.1.dir/__/__/mesh/access/src/access_reliable.c.obj
 .text.access_model_reliable_cancel
                0x00000000       0x50 examples/beaconing/CMakeFiles/beaconing_nrf51422_xxAC_s130_2.0.1.dir/__/__/mesh/access/src/access_reliable.c.obj
 .text.access_model_reliable_publish
                0x00000000      0x1cc examples/beaconing/CMakeFiles/beaconing_nrf51422_xxAC_s130_2.0.1.dir/__/__/mesh/access/src/access_reliable.c.obj
 .bss.m_reliable
                0x00000000       0x6c examples/beaconing/CMakeFiles/beaconing_nrf51422_xxAC_s130_2.0.1.dir/__/__/mesh/access/src/access_reliable.c.obj
 .comment       0x00000000       0x80 examples/beaconing/CMakeFiles/beaconing_nrf51422_xxAC_s130_2.0.1.dir/__/__/mesh/access/src/access_reliable.c.obj
 .ARM.attributes
                0x00000000       0x31 examples/beaconing/CMakeFiles/beaconing_nrf51422_xxAC_s130_2.0.1.dir/__/__/mesh/access/src/access_reliable.c.obj
 .text          0x00000000        0x0 examples/beaconing/CMakeFiles/beaconing_nrf51422_xxAC_s130_2.0.1.dir/__/__/mesh/access/src/device_state_manager.c.obj
 .data          0x00000000        0x0 examples/beaconing/CMakeFiles/beaconing_nrf51422_xxAC_s130_2.0.1.dir/__/__/mesh/access/src/device_state_manager.c.obj
 .bss           0x00000000        0x0 examples/beaconing/CMakeFiles/beaconing_nrf51422_xxAC_s130_2.0.1.dir/__/__/mesh/access/src/device_state_manager.c.obj
 .text.bitfield_set
                0x00000000       0x16 examples/beaconing/CMakeFiles/beaconing_nrf51422_xxAC_s130_2.0.1.dir/__/__/mesh/access/src/device_state_manager.c.obj
 .text.bitfield_clear
                0x00000000       0x16 examples/beaconing/CMakeFiles/beaconing_nrf51422_xxAC_s130_2.0.1.dir/__/__/mesh/access/src/device_state_manager.c.obj
 .text.bitfield_is_all_clear
                0x00000000       0x3a examples/beaconing/CMakeFiles/beaconing_nrf51422_xxAC_s130_2.0.1.dir/__/__/mesh/access/src/device_state_manager.c.obj
 .text.address_handle_virtual_valid
                0x00000000       0x1c examples/beaconing/CMakeFiles/beaconing_nrf51422_xxAC_s130_2.0.1.dir/__/__/mesh/access/src/device_state_manager.c.obj
 .text.net_key_handle_get
                0x00000000       0x4c examples/beaconing/CMakeFiles/beaconing_nrf51422_xxAC_s130_2.0.1.dir/__/__/mesh/access/src/device_state_manager.c.obj
 .text.dev_key_handle_get
                0x00000000       0x34 examples/beaconing/CMakeFiles/beaconing_nrf51422_xxAC_s130_2.0.1.dir/__/__/mesh/access/src/device_state_manager.c.obj
 .text.app_key_handle_get
                0x00000000       0x4c examples/beaconing/CMakeFiles/beaconing_nrf51422_xxAC_s130_2.0.1.dir/__/__/mesh/access/src/device_state_manager.c.obj
 .text.addr_nonvirtual_to_flash_entry
                0x00000000       0x10 examples/beaconing/CMakeFiles/beaconing_nrf51422_xxAC_s130_2.0.1.dir/__/__/mesh/access/src/device_state_manager.c.obj
 .text.flash_mem_listener_callback
                0x00000000       0x20 examples/beaconing/CMakeFiles/beaconing_nrf51422_xxAC_s130_2.0.1.dir/__/__/mesh/access/src/device_state_manager.c.obj
 .text.devkey_set
                0x00000000       0x4c examples/beaconing/CMakeFiles/beaconing_nrf51422_xxAC_s130_2.0.1.dir/__/__/mesh/access/src/device_state_manager.c.obj
 .text.devkey_to_dsm_entry
                0x00000000       0x14 examples/beaconing/CMakeFiles/beaconing_nrf51422_xxAC_s130_2.0.1.dir/__/__/mesh/access/src/device_state_manager.c.obj
 .text.devkey_to_flash_entry
                0x00000000       0x28 examples/beaconing/CMakeFiles/beaconing_nrf51422_xxAC_s130_2.0.1.dir/__/__/mesh/access/src/device_state_manager.c.obj
 .text.appkey_to_flash_entry
                0x00000000       0x28 examples/beaconing/CMakeFiles/beaconing_nrf51422_xxAC_s130_2.0.1.dir/__/__/mesh/access/src/device_state_manager.c.obj
 .text.subnet_to_flash_entry
                0x00000000       0x20 examples/beaconing/CMakeFiles/beaconing_nrf51422_xxAC_s130_2.0.1.dir/__/__/mesh/access/src/device_state_manager.c.obj
 .text.addr_virtual_to_flash_entry
                0x00000000       0x1c examples/beaconing/CMakeFiles/beaconing_nrf51422_xxAC_s130_2.0.1.dir/__/__/mesh/access/src/device_state_manager.c.obj
 .text.addr_unicast_to_dsm_entry
                0x00000000       0x10 examples/beaconing/CMakeFiles/beaconing_nrf51422_xxAC_s130_2.0.1.dir/__/__/mesh/access/src/device_state_manager.c.obj
 .text.addr_unicast_to_flash_entry
                0x00000000       0x14 examples/beaconing/CMakeFiles/beaconing_nrf51422_xxAC_s130_2.0.1.dir/__/__/mesh/access/src/device_state_manager.c.obj
 .text.appkey_set
                0x00000000       0x74 examples/beaconing/CMakeFiles/beaconing_nrf51422_xxAC_s130_2.0.1.dir/__/__/mesh/access/src/device_state_manager.c.obj
 .text.appkey_to_dsm_entry
                0x00000000       0x12 examples/beaconing/CMakeFiles/beaconing_nrf51422_xxAC_s130_2.0.1.dir/__/__/mesh/access/src/device_state_manager.c.obj
 .text.subnet_set
                0x00000000       0xa0 examples/beaconing/CMakeFiles/beaconing_nrf51422_xxAC_s130_2.0.1.dir/__/__/mesh/access/src/device_state_manager.c.obj
 .text.subnet_to_dsm_entry
                0x00000000       0x10 examples/beaconing/CMakeFiles/beaconing_nrf51422_xxAC_s130_2.0.1.dir/__/__/mesh/access/src/device_state_manager.c.obj
 .text.virtual_address_set
                0x00000000       0x58 examples/beaconing/CMakeFiles/beaconing_nrf51422_xxAC_s130_2.0.1.dir/__/__/mesh/access/src/device_state_manager.c.obj
 .text.addr_virtual_to_dsm_entry
                0x00000000       0x10 examples/beaconing/CMakeFiles/beaconing_nrf51422_xxAC_s130_2.0.1.dir/__/__/mesh/access/src/device_state_manager.c.obj
 .text.flash_save
                0x00000000       0x88 examples/beaconing/CMakeFiles/beaconing_nrf51422_xxAC_s130_2.0.1.dir/__/__/mesh/access/src/device_state_manager.c.obj
 .text.flash_invalidate
                0x00000000       0x6c examples/beaconing/CMakeFiles/beaconing_nrf51422_xxAC_s130_2.0.1.dir/__/__/mesh/access/src/device_state_manager.c.obj
 .text.flash_update_all
                0x00000000       0x70 examples/beaconing/CMakeFiles/beaconing_nrf51422_xxAC_s130_2.0.1.dir/__/__/mesh/access/src/device_state_manager.c.obj
 .text.reset_flash_area
                0x00000000       0x28 examples/beaconing/CMakeFiles/beaconing_nrf51422_xxAC_s130_2.0.1.dir/__/__/mesh/access/src/device_state_manager.c.obj
 .text.add_address_virtual
                0x00000000       0x80 examples/beaconing/CMakeFiles/beaconing_nrf51422_xxAC_s130_2.0.1.dir/__/__/mesh/access/src/device_state_manager.c.obj
 .text.flash_operation_complete
                0x00000000       0x58 examples/beaconing/CMakeFiles/beaconing_nrf51422_xxAC_s130_2.0.1.dir/__/__/mesh/access/src/device_state_manager.c.obj
 .text.flash_invalidate_complete
                0x00000000        0xc examples/beaconing/CMakeFiles/beaconing_nrf51422_xxAC_s130_2.0.1.dir/__/__/mesh/access/src/device_state_manager.c.obj
 .text.flash_write_complete
                0x00000000        0xc examples/beaconing/CMakeFiles/beaconing_nrf51422_xxAC_s130_2.0.1.dir/__/__/mesh/access/src/device_state_manager.c.obj
 .text.add_address.part.5
                0x00000000      0x150 examples/beaconing/CMakeFiles/beaconing_nrf51422_xxAC_s130_2.0.1.dir/__/__/mesh/access/src/device_state_manager.c.obj
 .text.address_handle_valid
                0x00000000       0x28 examples/beaconing/CMakeFiles/beaconing_nrf51422_xxAC_s130_2.0.1.dir/__/__/mesh/access/src/device_state_manager.c.obj
 .text.address_handle_nonvirtual_valid
                0x00000000       0x18 examples/beaconing/CMakeFiles/beaconing_nrf51422_xxAC_s130_2.0.1.dir/__/__/mesh/access/src/device_state_manager.c.obj
 .text.address_delete_if_unused
                0x00000000       0x7c examples/beaconing/CMakeFiles/beaconing_nrf51422_xxAC_s130_2.0.1.dir/__/__/mesh/access/src/device_state_manager.c.obj
 .text.addr_nonvirtual_to_dsm_entry
                0x00000000       0x34 examples/beaconing/CMakeFiles/beaconing_nrf51422_xxAC_s130_2.0.1.dir/__/__/mesh/access/src/device_state_manager.c.obj
 .text.dsm_flash_config_load
                0x00000000       0xf0 examples/beaconing/CMakeFiles/beaconing_nrf51422_xxAC_s130_2.0.1.dir/__/__/mesh/access/src/device_state_manager.c.obj
 .text.dsm_has_unflashed_data
                0x00000000       0x28 examples/beaconing/CMakeFiles/beaconing_nrf51422_xxAC_s130_2.0.1.dir/__/__/mesh/access/src/device_state_manager.c.obj
 .text.dsm_flash_area_get
                0x00000000       0x10 examples/beaconing/CMakeFiles/beaconing_nrf51422_xxAC_s130_2.0.1.dir/__/__/mesh/access/src/device_state_manager.c.obj
 .text.build_flash_area
                0x00000000       0x90 examples/beaconing/CMakeFiles/beaconing_nrf51422_xxAC_s130_2.0.1.dir/__/__/mesh/access/src/device_state_manager.c.obj
 .text.dsm_init
                0x00000000       0x28 examples/beaconing/CMakeFiles/beaconing_nrf51422_xxAC_s130_2.0.1.dir/__/__/mesh/access/src/device_state_manager.c.obj
 .text.flash_remove_complete
                0x00000000        0x8 examples/beaconing/CMakeFiles/beaconing_nrf51422_xxAC_s130_2.0.1.dir/__/__/mesh/access/src/device_state_manager.c.obj
 .text.dsm_clear
                0x00000000       0x74 examples/beaconing/CMakeFiles/beaconing_nrf51422_xxAC_s130_2.0.1.dir/__/__/mesh/access/src/device_state_manager.c.obj
 .text.dsm_local_unicast_addresses_set
                0x00000000       0x74 examples/beaconing/CMakeFiles/beaconing_nrf51422_xxAC_s130_2.0.1.dir/__/__/mesh/access/src/device_state_manager.c.obj
 .text.dsm_local_unicast_addresses_get
                0x00000000       0x2c examples/beaconing/CMakeFiles/beaconing_nrf51422_xxAC_s130_2.0.1.dir/__/__/mesh/access/src/device_state_manager.c.obj
 .text.dsm_address_publish_add
                0x00000000       0x14 examples/beaconing/CMakeFiles/beaconing_nrf51422_xxAC_s130_2.0.1.dir/__/__/mesh/access/src/device_state_manager.c.obj
 .text.dsm_address_publish_add_handle
                0x00000000       0x38 examples/beaconing/CMakeFiles/beaconing_nrf51422_xxAC_s130_2.0.1.dir/__/__/mesh/access/src/device_state_manager.c.obj
 .text.dsm_address_publish_virtual_add
                0x00000000        0xa examples/beaconing/CMakeFiles/beaconing_nrf51422_xxAC_s130_2.0.1.dir/__/__/mesh/access/src/device_state_manager.c.obj
 .text.dsm_address_publish_remove
                0x00000000       0x44 examples/beaconing/CMakeFiles/beaconing_nrf51422_xxAC_s130_2.0.1.dir/__/__/mesh/access/src/device_state_manager.c.obj
 .text.dsm_address_subscription_add
                0x00000000       0x14 examples/beaconing/CMakeFiles/beaconing_nrf51422_xxAC_s130_2.0.1.dir/__/__/mesh/access/src/device_state_manager.c.obj
 .text.dsm_address_subscription_virtual_add
                0x00000000        0xa examples/beaconing/CMakeFiles/beaconing_nrf51422_xxAC_s130_2.0.1.dir/__/__/mesh/access/src/device_state_manager.c.obj
 .text.dsm_address_subscription_add_handle
                0x00000000       0x38 examples/beaconing/CMakeFiles/beaconing_nrf51422_xxAC_s130_2.0.1.dir/__/__/mesh/access/src/device_state_manager.c.obj
 .text.dsm_address_subscription_get
                0x00000000       0x34 examples/beaconing/CMakeFiles/beaconing_nrf51422_xxAC_s130_2.0.1.dir/__/__/mesh/access/src/device_state_manager.c.obj
 .text.dsm_address_get
                0x00000000       0x60 examples/beaconing/CMakeFiles/beaconing_nrf51422_xxAC_s130_2.0.1.dir/__/__/mesh/access/src/device_state_manager.c.obj
 .text.dsm_address_subscription_count_get
                0x00000000       0x58 examples/beaconing/CMakeFiles/beaconing_nrf51422_xxAC_s130_2.0.1.dir/__/__/mesh/access/src/device_state_manager.c.obj
 .text.dsm_address_subscription_remove
                0x00000000       0x64 examples/beaconing/CMakeFiles/beaconing_nrf51422_xxAC_s130_2.0.1.dir/__/__/mesh/access/src/device_state_manager.c.obj
 .text.dsm_address_get_all
                0x00000000       0x68 examples/beaconing/CMakeFiles/beaconing_nrf51422_xxAC_s130_2.0.1.dir/__/__/mesh/access/src/device_state_manager.c.obj
 .text.dsm_address_handle_get
                0x00000000       0x98 examples/beaconing/CMakeFiles/beaconing_nrf51422_xxAC_s130_2.0.1.dir/__/__/mesh/access/src/device_state_manager.c.obj
 .text.dsm_net_key_index_to_subnet_handle
                0x00000000       0x1c examples/beaconing/CMakeFiles/beaconing_nrf51422_xxAC_s130_2.0.1.dir/__/__/mesh/access/src/device_state_manager.c.obj
 .text.dsm_subnet_handle_get
                0x00000000       0x14 examples/beaconing/CMakeFiles/beaconing_nrf51422_xxAC_s130_2.0.1.dir/__/__/mesh/access/src/device_state_manager.c.obj
 .text.dsm_subnet_handle_to_netkey_index
                0x00000000       0x38 examples/beaconing/CMakeFiles/beaconing_nrf51422_xxAC_s130_2.0.1.dir/__/__/mesh/access/src/device_state_manager.c.obj
 .text.dsm_app_key_index_to_appkey_handle
                0x00000000       0x1c examples/beaconing/CMakeFiles/beaconing_nrf51422_xxAC_s130_2.0.1.dir/__/__/mesh/access/src/device_state_manager.c.obj
 .text.dsm_appkey_handle_get
                0x00000000       0x14 examples/beaconing/CMakeFiles/beaconing_nrf51422_xxAC_s130_2.0.1.dir/__/__/mesh/access/src/device_state_manager.c.obj
 .text.dsm_appkey_handle_to_appkey_index
                0x00000000       0x38 examples/beaconing/CMakeFiles/beaconing_nrf51422_xxAC_s130_2.0.1.dir/__/__/mesh/access/src/device_state_manager.c.obj
 .text.dsm_subnet_add
                0x00000000       0x60 examples/beaconing/CMakeFiles/beaconing_nrf51422_xxAC_s130_2.0.1.dir/__/__/mesh/access/src/device_state_manager.c.obj
 .text.dsm_subnet_update
                0x00000000       0x44 examples/beaconing/CMakeFiles/beaconing_nrf51422_xxAC_s130_2.0.1.dir/__/__/mesh/access/src/device_state_manager.c.obj
 .text.dsm_subnet_get_all
                0x00000000       0x58 examples/beaconing/CMakeFiles/beaconing_nrf51422_xxAC_s130_2.0.1.dir/__/__/mesh/access/src/device_state_manager.c.obj
 .text.dsm_devkey_add
                0x00000000       0x7c examples/beaconing/CMakeFiles/beaconing_nrf51422_xxAC_s130_2.0.1.dir/__/__/mesh/access/src/device_state_manager.c.obj
 .text.dsm_devkey_delete
                0x00000000       0x3c examples/beaconing/CMakeFiles/beaconing_nrf51422_xxAC_s130_2.0.1.dir/__/__/mesh/access/src/device_state_manager.c.obj
 .text.dsm_devkey_handle_get
                0x00000000       0x30 examples/beaconing/CMakeFiles/beaconing_nrf51422_xxAC_s130_2.0.1.dir/__/__/mesh/access/src/device_state_manager.c.obj
 .text.dsm_appkey_add
                0x00000000       0x7c examples/beaconing/CMakeFiles/beaconing_nrf51422_xxAC_s130_2.0.1.dir/__/__/mesh/access/src/device_state_manager.c.obj
 .text.dsm_appkey_update
                0x00000000       0x48 examples/beaconing/CMakeFiles/beaconing_nrf51422_xxAC_s130_2.0.1.dir/__/__/mesh/access/src/device_state_manager.c.obj
 .text.dsm_appkey_delete
                0x00000000       0x34 examples/beaconing/CMakeFiles/beaconing_nrf51422_xxAC_s130_2.0.1.dir/__/__/mesh/access/src/device_state_manager.c.obj
 .text.dsm_subnet_delete
                0x00000000       0xa8 examples/beaconing/CMakeFiles/beaconing_nrf51422_xxAC_s130_2.0.1.dir/__/__/mesh/access/src/device_state_manager.c.obj
 .text.dsm_appkey_get_all
                0x00000000       0x78 examples/beaconing/CMakeFiles/beaconing_nrf51422_xxAC_s130_2.0.1.dir/__/__/mesh/access/src/device_state_manager.c.obj
 .text.dsm_tx_secmat_get
                0x00000000       0xf8 examples/beaconing/CMakeFiles/beaconing_nrf51422_xxAC_s130_2.0.1.dir/__/__/mesh/access/src/device_state_manager.c.obj
 .text.dsm_beacon_secmat_get
                0x00000000       0x38 examples/beaconing/CMakeFiles/beaconing_nrf51422_xxAC_s130_2.0.1.dir/__/__/mesh/access/src/device_state_manager.c.obj
 .text.dsm_proxy_identity_get
                0x00000000        0x4 examples/beaconing/CMakeFiles/beaconing_nrf51422_xxAC_s130_2.0.1.dir/__/__/mesh/access/src/device_state_manager.c.obj
 .bss.m_addr_nonvirtual_needs_flashing
                0x00000000        0x4 examples/beaconing/CMakeFiles/beaconing_nrf51422_xxAC_s130_2.0.1.dir/__/__/mesh/access/src/device_state_manager.c.obj
 .bss.m_addr_unicast_needs_flashing
                0x00000000        0x4 examples/beaconing/CMakeFiles/beaconing_nrf51422_xxAC_s130_2.0.1.dir/__/__/mesh/access/src/device_state_manager.c.obj
 .bss.m_addr_virtual_needs_flashing
                0x00000000        0x4 examples/beaconing/CMakeFiles/beaconing_nrf51422_xxAC_s130_2.0.1.dir/__/__/mesh/access/src/device_state_manager.c.obj
 .bss.m_appkey_needs_flashing
                0x00000000        0x4 examples/beaconing/CMakeFiles/beaconing_nrf51422_xxAC_s130_2.0.1.dir/__/__/mesh/access/src/device_state_manager.c.obj
 .bss.m_devkey_allocated
                0x00000000        0x4 examples/beaconing/CMakeFiles/beaconing_nrf51422_xxAC_s130_2.0.1.dir/__/__/mesh/access/src/device_state_manager.c.obj
 .bss.m_devkey_needs_flashing
                0x00000000        0x4 examples/beaconing/CMakeFiles/beaconing_nrf51422_xxAC_s130_2.0.1.dir/__/__/mesh/access/src/device_state_manager.c.obj
 .bss.m_flash_is_available
                0x00000000        0x1 examples/beaconing/CMakeFiles/beaconing_nrf51422_xxAC_s130_2.0.1.dir/__/__/mesh/access/src/device_state_manager.c.obj
 .bss.m_flash_manager
                0x00000000       0x24 examples/beaconing/CMakeFiles/beaconing_nrf51422_xxAC_s130_2.0.1.dir/__/__/mesh/access/src/device_state_manager.c.obj
 .bss.m_flash_mem_listener_update_all
                0x00000000       0x10 examples/beaconing/CMakeFiles/beaconing_nrf51422_xxAC_s130_2.0.1.dir/__/__/mesh/access/src/device_state_manager.c.obj
 .bss.m_subnet_needs_flashing
                0x00000000        0x4 examples/beaconing/CMakeFiles/beaconing_nrf51422_xxAC_s130_2.0.1.dir/__/__/mesh/access/src/device_state_manager.c.obj
 .data.mem_listener.8095
                0x00000000       0x10 examples/beaconing/CMakeFiles/beaconing_nrf51422_xxAC_s130_2.0.1.dir/__/__/mesh/access/src/device_state_manager.c.obj
 .data.mem_listener.8121
                0x00000000       0x10 examples/beaconing/CMakeFiles/beaconing_nrf51422_xxAC_s130_2.0.1.dir/__/__/mesh/access/src/device_state_manager.c.obj
 .rodata.m_flash_groups
                0x00000000       0xc0 examples/beaconing/CMakeFiles/beaconing_nrf51422_xxAC_s130_2.0.1.dir/__/__/mesh/access/src/device_state_manager.c.obj
 .text          0x00000000        0x0 examples/beaconing/CMakeFiles/beaconing_nrf51422_xxAC_s130_2.0.1.dir/__/nrf_mesh_weak.c.obj
 .data          0x00000000        0x0 examples/beaconing/CMakeFiles/beaconing_nrf51422_xxAC_s130_2.0.1.dir/__/nrf_mesh_weak.c.obj
 .bss           0x00000000        0x0 examples/beaconing/CMakeFiles/beaconing_nrf51422_xxAC_s130_2.0.1.dir/__/nrf_mesh_weak.c.obj
 .text._weak_handler_ptr
                0x00000000        0x4 examples/beaconing/CMakeFiles/beaconing_nrf51422_xxAC_s130_2.0.1.dir/__/nrf_mesh_weak.c.obj
 .text          0x00000000        0x0 examples/beaconing/CMakeFiles/beaconing_nrf51422_xxAC_s130_2.0.1.dir/__/__/external/nRF5_SDK_14.0.0_3bcc1f7/components/toolchain/system_nrf51.c.obj
 .data          0x00000000        0x0 examples/beaconing/CMakeFiles/beaconing_nrf51422_xxAC_s130_2.0.1.dir/__/__/external/nRF5_SDK_14.0.0_3bcc1f7/components/toolchain/system_nrf51.c.obj
 .bss           0x00000000        0x0 examples/beaconing/CMakeFiles/beaconing_nrf51422_xxAC_s130_2.0.1.dir/__/__/external/nRF5_SDK_14.0.0_3bcc1f7/components/toolchain/system_nrf51.c.obj
 .text.SystemCoreClockUpdate
                0x00000000       0x10 examples/beaconing/CMakeFiles/beaconing_nrf51422_xxAC_s130_2.0.1.dir/__/__/external/nRF5_SDK_14.0.0_3bcc1f7/components/toolchain/system_nrf51.c.obj
 .data.SystemCoreClock
                0x00000000        0x4 examples/beaconing/CMakeFiles/beaconing_nrf51422_xxAC_s130_2.0.1.dir/__/__/external/nRF5_SDK_14.0.0_3bcc1f7/components/toolchain/system_nrf51.c.obj
 .data          0x00000000        0x0 examples/beaconing/CMakeFiles/beaconing_nrf51422_xxAC_s130_2.0.1.dir/__/__/external/nRF5_SDK_14.0.0_3bcc1f7/components/toolchain/gcc/gcc_startup_nrf51.S.obj
 .bss           0x00000000        0x0 examples/beaconing/CMakeFiles/beaconing_nrf51422_xxAC_s130_2.0.1.dir/__/__/external/nRF5_SDK_14.0.0_3bcc1f7/components/toolchain/gcc/gcc_startup_nrf51.S.obj
 .text          0x00000000        0x0 mesh/core/libmesh_core_nrf51422_xxAC.a(event.c.obj)
 .data          0x00000000        0x0 mesh/core/libmesh_core_nrf51422_xxAC.a(event.c.obj)
 .bss           0x00000000        0x0 mesh/core/libmesh_core_nrf51422_xxAC.a(event.c.obj)
 .text.event_handler_add
                0x00000000       0x7c mesh/core/libmesh_core_nrf51422_xxAC.a(event.c.obj)
 .text.event_handler_remove
                0x00000000       0x58 mesh/core/libmesh_core_nrf51422_xxAC.a(event.c.obj)
 .text          0x00000000        0x0 mesh/core/libmesh_core_nrf51422_xxAC.a(net_state.c.obj)
 .data          0x00000000        0x0 mesh/core/libmesh_core_nrf51422_xxAC.a(net_state.c.obj)
 .bss           0x00000000        0x0 mesh/core/libmesh_core_nrf51422_xxAC.a(net_state.c.obj)
 .text.net_state_reset
                0x00000000       0x3c mesh/core/libmesh_core_nrf51422_xxAC.a(net_state.c.obj)
 .text.net_state_iv_update_test_mode_set
                0x00000000        0xc mesh/core/libmesh_core_nrf51422_xxAC.a(net_state.c.obj)
 .data.mem_listener.7351
                0x00000000       0x10 mesh/core/libmesh_core_nrf51422_xxAC.a(net_state.c.obj)
 .text          0x00000000        0x0 mesh/core/libmesh_core_nrf51422_xxAC.a(nrf_mesh_utils.c.obj)
 .data          0x00000000        0x0 mesh/core/libmesh_core_nrf51422_xxAC.a(nrf_mesh_utils.c.obj)
 .bss           0x00000000        0x0 mesh/core/libmesh_core_nrf51422_xxAC.a(nrf_mesh_utils.c.obj)
 .text.nrf_mesh_rand_get
                0x00000000       0x14 mesh/core/libmesh_core_nrf51422_xxAC.a(nrf_mesh_utils.c.obj)
 .text.nrf_mesh_gap_address_type_get
                0x00000000       0x40 mesh/core/libmesh_core_nrf51422_xxAC.a(nrf_mesh_utils.c.obj)
 .text          0x00000000        0x0 mesh/core/libmesh_core_nrf51422_xxAC.a(nrf_mesh.c.obj)
 .data          0x00000000        0x0 mesh/core/libmesh_core_nrf51422_xxAC.a(nrf_mesh.c.obj)
 .bss           0x00000000        0x0 mesh/core/libmesh_core_nrf51422_xxAC.a(nrf_mesh.c.obj)
 .text.nrf_mesh_disable
                0x00000000       0x28 mesh/core/libmesh_core_nrf51422_xxAC.a(nrf_mesh.c.obj)
 .text.nrf_mesh_packet_send
                0x00000000        0x8 mesh/core/libmesh_core_nrf51422_xxAC.a(nrf_mesh.c.obj)
 .text.nrf_mesh_evt_handler_add
                0x00000000        0x8 mesh/core/libmesh_core_nrf51422_xxAC.a(nrf_mesh.c.obj)
 .text.nrf_mesh_evt_handler_remove
                0x00000000        0x8 mesh/core/libmesh_core_nrf51422_xxAC.a(nrf_mesh.c.obj)
 .text.nrf_mesh_rx_cb_clear
                0x00000000        0xc mesh/core/libmesh_core_nrf51422_xxAC.a(nrf_mesh.c.obj)
 .text          0x00000000        0x0 mesh/core/libmesh_core_nrf51422_xxAC.a(hal.c.obj)
 .data          0x00000000        0x0 mesh/core/libmesh_core_nrf51422_xxAC.a(hal.c.obj)
 .bss           0x00000000        0x0 mesh/core/libmesh_core_nrf51422_xxAC.a(hal.c.obj)
 .text.sd_power_reset_reason_clr
                0x00000000        0x4 mesh/core/libmesh_core_nrf51422_xxAC.a(hal.c.obj)
 .text.sd_power_gpregret_set
                0x00000000        0x4 mesh/core/libmesh_core_nrf51422_xxAC.a(hal.c.obj)
 .text.hal_device_reset
                0x00000000       0x2c mesh/core/libmesh_core_nrf51422_xxAC.a(hal.c.obj)
 .text          0x00000000        0x0 mesh/core/libmesh_core_nrf51422_xxAC.a(timer_scheduler.c.obj)
 .data          0x00000000        0x0 mesh/core/libmesh_core_nrf51422_xxAC.a(timer_scheduler.c.obj)
 .bss           0x00000000        0x0 mesh/core/libmesh_core_nrf51422_xxAC.a(timer_scheduler.c.obj)
 .text          0x00000000        0x0 mesh/core/libmesh_core_nrf51422_xxAC.a(timer.c.obj)
 .data          0x00000000        0x0 mesh/core/libmesh_core_nrf51422_xxAC.a(timer.c.obj)
 .bss           0x00000000        0x0 mesh/core/libmesh_core_nrf51422_xxAC.a(timer.c.obj)
 .text.timer_order_cb_ppi
                0x00000000       0xc4 mesh/core/libmesh_core_nrf51422_xxAC.a(timer.c.obj)
 .text.timer_order_ppi
                0x00000000       0x80 mesh/core/libmesh_core_nrf51422_xxAC.a(timer.c.obj)
 .text.timer_abort
                0x00000000       0x7c mesh/core/libmesh_core_nrf51422_xxAC.a(timer.c.obj)
 .text          0x00000000        0x0 mesh/core/libmesh_core_nrf51422_xxAC.a(ticker.c.obj)
 .data          0x00000000        0x0 mesh/core/libmesh_core_nrf51422_xxAC.a(ticker.c.obj)
 .bss           0x00000000        0x0 mesh/core/libmesh_core_nrf51422_xxAC.a(ticker.c.obj)
 .text.ticker_get
                0x00000000        0xc mesh/core/libmesh_core_nrf51422_xxAC.a(ticker.c.obj)
 .text          0x00000000        0x0 mesh/core/libmesh_core_nrf51422_xxAC.a(rand.c.obj)
 .data          0x00000000        0x0 mesh/core/libmesh_core_nrf51422_xxAC.a(rand.c.obj)
 .bss           0x00000000        0x0 mesh/core/libmesh_core_nrf51422_xxAC.a(rand.c.obj)
 .text          0x00000000        0x0 mesh/core/libmesh_core_nrf51422_xxAC.a(timeslot.c.obj)
 .data          0x00000000        0x0 mesh/core/libmesh_core_nrf51422_xxAC.a(timeslot.c.obj)
 .bss           0x00000000        0x0 mesh/core/libmesh_core_nrf51422_xxAC.a(timeslot.c.obj)
 .text.timeslot_end_time_get
                0x00000000       0x18 mesh/core/libmesh_core_nrf51422_xxAC.a(timeslot.c.obj)
 .text.timeslot_is_in_ts
                0x00000000        0xc mesh/core/libmesh_core_nrf51422_xxAC.a(timeslot.c.obj)
 .text.timeslot_restart
                0x00000000       0x14 mesh/core/libmesh_core_nrf51422_xxAC.a(timeslot.c.obj)
 .text          0x00000000        0x0 mesh/core/libmesh_core_nrf51422_xxAC.a(bearer_event.c.obj)
 .data          0x00000000        0x0 mesh/core/libmesh_core_nrf51422_xxAC.a(bearer_event.c.obj)
 .bss           0x00000000        0x0 mesh/core/libmesh_core_nrf51422_xxAC.a(bearer_event.c.obj)
 .text.bearer_event_generic_post
                0x00000000       0x34 mesh/core/libmesh_core_nrf51422_xxAC.a(bearer_event.c.obj)
 .text.bearer_event_timer_sch_post
                0x00000000       0x38 mesh/core/libmesh_core_nrf51422_xxAC.a(bearer_event.c.obj)
 .text          0x00000000        0x0 mesh/core/libmesh_core_nrf51422_xxAC.a(network.c.obj)
 .data          0x00000000        0x0 mesh/core/libmesh_core_nrf51422_xxAC.a(network.c.obj)
 .bss           0x00000000        0x0 mesh/core/libmesh_core_nrf51422_xxAC.a(network.c.obj)
 .text.network_opt_set
                0x00000000       0x50 mesh/core/libmesh_core_nrf51422_xxAC.a(network.c.obj)
 .text.network_opt_get
                0x00000000       0x48 mesh/core/libmesh_core_nrf51422_xxAC.a(network.c.obj)
 .text.network_packet_discard
                0x00000000       0x40 mesh/core/libmesh_core_nrf51422_xxAC.a(network.c.obj)
 .text          0x00000000        0x0 mesh/core/libmesh_core_nrf51422_xxAC.a(nrf_mesh_keygen.c.obj)
 .data          0x00000000        0x0 mesh/core/libmesh_core_nrf51422_xxAC.a(nrf_mesh_keygen.c.obj)
 .bss           0x00000000        0x0 mesh/core/libmesh_core_nrf51422_xxAC.a(nrf_mesh_keygen.c.obj)
 .text.nrf_mesh_keygen_aid
                0x00000000       0x16 mesh/core/libmesh_core_nrf51422_xxAC.a(nrf_mesh_keygen.c.obj)
 .text.nrf_mesh_keygen_network_secmat
                0x00000000       0x20 mesh/core/libmesh_core_nrf51422_xxAC.a(nrf_mesh_keygen.c.obj)
 .text.nrf_mesh_keygen_beacon_secmat
                0x00000000       0x54 mesh/core/libmesh_core_nrf51422_xxAC.a(nrf_mesh_keygen.c.obj)
 .text.nrf_mesh_keygen_identitykey
                0x00000000       0x4c mesh/core/libmesh_core_nrf51422_xxAC.a(nrf_mesh_keygen.c.obj)
 .text.nrf_mesh_keygen_virtual_address
                0x00000000       0x50 mesh/core/libmesh_core_nrf51422_xxAC.a(nrf_mesh_keygen.c.obj)
 .rodata        0x00000000        0x7 mesh/core/libmesh_core_nrf51422_xxAC.a(nrf_mesh_keygen.c.obj)
 .comment       0x00000000       0x80 mesh/core/libmesh_core_nrf51422_xxAC.a(nrf_mesh_keygen.c.obj)
 .ARM.attributes
                0x00000000       0x31 mesh/core/libmesh_core_nrf51422_xxAC.a(nrf_mesh_keygen.c.obj)
 .text          0x00000000        0x0 mesh/core/libmesh_core_nrf51422_xxAC.a(log.c.obj)
 .data          0x00000000        0x0 mesh/core/libmesh_core_nrf51422_xxAC.a(log.c.obj)
 .bss           0x00000000        0x0 mesh/core/libmesh_core_nrf51422_xxAC.a(log.c.obj)
 .text.log_callback_logview
                0x00000000       0x34 mesh/core/libmesh_core_nrf51422_xxAC.a(log.c.obj)
 .text.log_set_callback
                0x00000000        0xc mesh/core/libmesh_core_nrf51422_xxAC.a(log.c.obj)
 .rodata.log_callback_logview.str1.1
                0x00000000        0xf mesh/core/libmesh_core_nrf51422_xxAC.a(log.c.obj)
 .text          0x00000000        0x0 mesh/core/libmesh_core_nrf51422_xxAC.a(flash_manager.c.obj)
 .data          0x00000000        0x0 mesh/core/libmesh_core_nrf51422_xxAC.a(flash_manager.c.obj)
 .bss           0x00000000        0x0 mesh/core/libmesh_core_nrf51422_xxAC.a(flash_manager.c.obj)
 .text.flash_manager_remove
                0x00000000       0x24 mesh/core/libmesh_core_nrf51422_xxAC.a(flash_manager.c.obj)
 .text.flash_manager_entry_get
                0x00000000       0x4c mesh/core/libmesh_core_nrf51422_xxAC.a(flash_manager.c.obj)
 .text.flash_manager_entry_count_get
                0x00000000       0x5c mesh/core/libmesh_core_nrf51422_xxAC.a(flash_manager.c.obj)
 .text.flash_manager_entry_release
                0x00000000       0x10 mesh/core/libmesh_core_nrf51422_xxAC.a(flash_manager.c.obj)
 .text          0x00000000        0x0 mesh/core/libmesh_core_nrf51422_xxAC.a(beacon.c.obj)
 .data          0x00000000        0x0 mesh/core/libmesh_core_nrf51422_xxAC.a(beacon.c.obj)
 .bss           0x00000000        0x0 mesh/core/libmesh_core_nrf51422_xxAC.a(beacon.c.obj)
 .text          0x00000000        0x0 mesh/core/libmesh_core_nrf51422_xxAC.a(flash_manager_internal.c.obj)
 .data          0x00000000        0x0 mesh/core/libmesh_core_nrf51422_xxAC.a(flash_manager_internal.c.obj)
 .bss           0x00000000        0x0 mesh/core/libmesh_core_nrf51422_xxAC.a(flash_manager_internal.c.obj)
 .text          0x00000000        0x0 mesh/core/libmesh_core_nrf51422_xxAC.a(core_tx.c.obj)
 .data          0x00000000        0x0 mesh/core/libmesh_core_nrf51422_xxAC.a(core_tx.c.obj)
 .bss           0x00000000        0x0 mesh/core/libmesh_core_nrf51422_xxAC.a(core_tx.c.obj)
 .text.core_tx_adv_count_set
                0x00000000       0x40 mesh/core/libmesh_core_nrf51422_xxAC.a(core_tx.c.obj)
 .text.core_tx_adv_count_get
                0x00000000       0x2c mesh/core/libmesh_core_nrf51422_xxAC.a(core_tx.c.obj)
 .text.core_tx_adv_interval_set
                0x00000000       0x34 mesh/core/libmesh_core_nrf51422_xxAC.a(core_tx.c.obj)
 .text.core_tx_adv_interval_get
                0x00000000       0x34 mesh/core/libmesh_core_nrf51422_xxAC.a(core_tx.c.obj)
 .text.core_tx_adv_address_set
                0x00000000       0x34 mesh/core/libmesh_core_nrf51422_xxAC.a(core_tx.c.obj)
 .text          0x00000000        0x0 mesh/core/libmesh_core_nrf51422_xxAC.a(net_beacon.c.obj)
 .data          0x00000000        0x0 mesh/core/libmesh_core_nrf51422_xxAC.a(net_beacon.c.obj)
 .bss           0x00000000        0x0 mesh/core/libmesh_core_nrf51422_xxAC.a(net_beacon.c.obj)
 .text.net_beacon_state_set
                0x00000000       0x38 mesh/core/libmesh_core_nrf51422_xxAC.a(net_beacon.c.obj)
 .text.net_beacon_state_get
                0x00000000        0xc mesh/core/libmesh_core_nrf51422_xxAC.a(net_beacon.c.obj)
 .text          0x00000000        0x0 mesh/core/libmesh_core_nrf51422_xxAC.a(advertiser.c.obj)
 .data          0x00000000        0x0 mesh/core/libmesh_core_nrf51422_xxAC.a(advertiser.c.obj)
 .bss           0x00000000        0x0 mesh/core/libmesh_core_nrf51422_xxAC.a(advertiser.c.obj)
 .text.advertiser_disable
                0x00000000        0xe mesh/core/libmesh_core_nrf51422_xxAC.a(advertiser.c.obj)
 .text.advertiser_channels_set
                0x00000000       0x94 mesh/core/libmesh_core_nrf51422_xxAC.a(advertiser.c.obj)
 .text.advertiser_address_set
                0x00000000       0x58 mesh/core/libmesh_core_nrf51422_xxAC.a(advertiser.c.obj)
 .text.advertiser_config_set
                0x00000000       0x48 mesh/core/libmesh_core_nrf51422_xxAC.a(advertiser.c.obj)
 .text.advertiser_config_get
                0x00000000       0x30 mesh/core/libmesh_core_nrf51422_xxAC.a(advertiser.c.obj)
 .text.advertiser_flush
                0x00000000       0x22 mesh/core/libmesh_core_nrf51422_xxAC.a(advertiser.c.obj)
 .text          0x00000000        0x0 mesh/core/libmesh_core_nrf51422_xxAC.a(bearer_handler.c.obj)
 .data          0x00000000        0x0 mesh/core/libmesh_core_nrf51422_xxAC.a(bearer_handler.c.obj)
 .bss           0x00000000        0x0 mesh/core/libmesh_core_nrf51422_xxAC.a(bearer_handler.c.obj)
 .text.bearer_handler_stop
                0x00000000       0x20 mesh/core/libmesh_core_nrf51422_xxAC.a(bearer_handler.c.obj)
 .text.bearer_handler_action_fire
                0x00000000       0xc0 mesh/core/libmesh_core_nrf51422_xxAC.a(bearer_handler.c.obj)
 .text          0x00000000        0x0 mesh/core/libmesh_core_nrf51422_xxAC.a(broadcast.c.obj)
 .data          0x00000000        0x0 mesh/core/libmesh_core_nrf51422_xxAC.a(broadcast.c.obj)
 .bss           0x00000000        0x0 mesh/core/libmesh_core_nrf51422_xxAC.a(broadcast.c.obj)
 .text          0x00000000        0x0 mesh/core/libmesh_core_nrf51422_xxAC.a(radio_config.c.obj)
 .data          0x00000000        0x0 mesh/core/libmesh_core_nrf51422_xxAC.a(radio_config.c.obj)
 .bss           0x00000000        0x0 mesh/core/libmesh_core_nrf51422_xxAC.a(radio_config.c.obj)
 .text.radio_config_access_addr_get
                0x00000000       0x78 mesh/core/libmesh_core_nrf51422_xxAC.a(radio_config.c.obj)
 .text          0x00000000        0x0 mesh/core/libmesh_core_nrf51422_xxAC.a(scanner.c.obj)
 .data          0x00000000        0x0 mesh/core/libmesh_core_nrf51422_xxAC.a(scanner.c.obj)
 .bss           0x00000000        0x0 mesh/core/libmesh_core_nrf51422_xxAC.a(scanner.c.obj)
 .text.scanner_disable
                0x00000000       0x44 mesh/core/libmesh_core_nrf51422_xxAC.a(scanner.c.obj)
 .text.scanner_is_enabled
                0x00000000       0x14 mesh/core/libmesh_core_nrf51422_xxAC.a(scanner.c.obj)
 .text.scanner_stats_get
                0x00000000        0xc mesh/core/libmesh_core_nrf51422_xxAC.a(scanner.c.obj)
 .text.scanner_config_radio_mode_set
                0x00000000       0x10 mesh/core/libmesh_core_nrf51422_xxAC.a(scanner.c.obj)
 .text          0x00000000        0x0 mesh/core/libmesh_core_nrf51422_xxAC.a(internal_event.c.obj)
 .data          0x00000000        0x0 mesh/core/libmesh_core_nrf51422_xxAC.a(internal_event.c.obj)
 .bss           0x00000000        0x0 mesh/core/libmesh_core_nrf51422_xxAC.a(internal_event.c.obj)
 .text.internal_event_init
                0x00000000       0x40 mesh/core/libmesh_core_nrf51422_xxAC.a(internal_event.c.obj)
 .text.internal_event_pop
                0x00000000       0x20 mesh/core/libmesh_core_nrf51422_xxAC.a(internal_event.c.obj)
 .bss.m_internal_event_fifo_buffer
                0x00000000      0x100 mesh/core/libmesh_core_nrf51422_xxAC.a(internal_event.c.obj)
 .text          0x00000000        0x0 mesh/core/libmesh_core_nrf51422_xxAC.a(nrf_mesh_configure.c.obj)
 .data          0x00000000        0x0 mesh/core/libmesh_core_nrf51422_xxAC.a(nrf_mesh_configure.c.obj)
 .bss           0x00000000        0x0 mesh/core/libmesh_core_nrf51422_xxAC.a(nrf_mesh_configure.c.obj)
 .text.nrf_mesh_configure_device_uuid_set
                0x00000000       0x14 mesh/core/libmesh_core_nrf51422_xxAC.a(nrf_mesh_configure.c.obj)
 .text.nrf_mesh_configure_device_uuid_get
                0x00000000        0x8 mesh/core/libmesh_core_nrf51422_xxAC.a(nrf_mesh_configure.c.obj)
 .text          0x00000000        0x0 mesh/core/libmesh_core_nrf51422_xxAC.a(msg_cache.c.obj)
 .data          0x00000000        0x0 mesh/core/libmesh_core_nrf51422_xxAC.a(msg_cache.c.obj)
 .bss           0x00000000        0x0 mesh/core/libmesh_core_nrf51422_xxAC.a(msg_cache.c.obj)
 .text.msg_cache_clear
                0x00000000       0x18 mesh/core/libmesh_core_nrf51422_xxAC.a(msg_cache.c.obj)
 .text          0x00000000        0x0 mesh/core/libmesh_core_nrf51422_xxAC.a(transport.c.obj)
 .data          0x00000000        0x0 mesh/core/libmesh_core_nrf51422_xxAC.a(transport.c.obj)
 .bss           0x00000000        0x0 mesh/core/libmesh_core_nrf51422_xxAC.a(transport.c.obj)
 .text.transport_sar_mem_funcs_set
                0x00000000       0x3c mesh/core/libmesh_core_nrf51422_xxAC.a(transport.c.obj)
 .text.transport_tx
                0x00000000      0x2b8 mesh/core/libmesh_core_nrf51422_xxAC.a(transport.c.obj)
 .text.transport_opt_set
                0x00000000       0xcc mesh/core/libmesh_core_nrf51422_xxAC.a(transport.c.obj)
 .text.transport_opt_get
                0x00000000       0x58 mesh/core/libmesh_core_nrf51422_xxAC.a(transport.c.obj)
 .rodata.transport_tx.str1.1
                0x00000000       0x34 mesh/core/libmesh_core_nrf51422_xxAC.a(transport.c.obj)
 .text          0x00000000        0x0 mesh/core/libmesh_core_nrf51422_xxAC.a(packet_buffer.c.obj)
 .data          0x00000000        0x0 mesh/core/libmesh_core_nrf51422_xxAC.a(packet_buffer.c.obj)
 .bss           0x00000000        0x0 mesh/core/libmesh_core_nrf51422_xxAC.a(packet_buffer.c.obj)
 .text.packet_buffer_max_packet_len_get
                0x00000000       0x38 mesh/core/libmesh_core_nrf51422_xxAC.a(packet_buffer.c.obj)
 .text.packet_buffer_flush
                0x00000000       0x60 mesh/core/libmesh_core_nrf51422_xxAC.a(packet_buffer.c.obj)
 .text          0x00000000        0x0 mesh/core/libmesh_core_nrf51422_xxAC.a(flash_manager_defrag.c.obj)
 .data          0x00000000        0x0 mesh/core/libmesh_core_nrf51422_xxAC.a(flash_manager_defrag.c.obj)
 .bss           0x00000000        0x0 mesh/core/libmesh_core_nrf51422_xxAC.a(flash_manager_defrag.c.obj)
 .text.flash_manager_defragging
                0x00000000       0x44 mesh/core/libmesh_core_nrf51422_xxAC.a(flash_manager_defrag.c.obj)
 .text          0x00000000        0x0 mesh/core/libmesh_core_nrf51422_xxAC.a(fifo.c.obj)
 .data          0x00000000        0x0 mesh/core/libmesh_core_nrf51422_xxAC.a(fifo.c.obj)
 .bss           0x00000000        0x0 mesh/core/libmesh_core_nrf51422_xxAC.a(fifo.c.obj)
 .text.fifo_peek_at
                0x00000000       0x5a mesh/core/libmesh_core_nrf51422_xxAC.a(fifo.c.obj)
 .text.fifo_peek
                0x00000000        0xa mesh/core/libmesh_core_nrf51422_xxAC.a(fifo.c.obj)
 .text.fifo_flush
                0x00000000        0x6 mesh/core/libmesh_core_nrf51422_xxAC.a(fifo.c.obj)
 .text.fifo_get_len
                0x00000000        0x8 mesh/core/libmesh_core_nrf51422_xxAC.a(fifo.c.obj)
 .text.fifo_is_full
                0x00000000       0x12 mesh/core/libmesh_core_nrf51422_xxAC.a(fifo.c.obj)
 .text.fifo_is_empty
                0x00000000        0xe mesh/core/libmesh_core_nrf51422_xxAC.a(fifo.c.obj)
 .text          0x00000000        0x0 mesh/core/libmesh_core_nrf51422_xxAC.a(packet_mgr.c.obj)
 .data          0x00000000        0x0 mesh/core/libmesh_core_nrf51422_xxAC.a(packet_mgr.c.obj)
 .bss           0x00000000        0x0 mesh/core/libmesh_core_nrf51422_xxAC.a(packet_mgr.c.obj)
 .text.packet_mgr_alloc
                0x00000000      0x18c mesh/core/libmesh_core_nrf51422_xxAC.a(packet_mgr.c.obj)
 .text.packet_mgr_free
                0x00000000       0x6c mesh/core/libmesh_core_nrf51422_xxAC.a(packet_mgr.c.obj)
 .text.packet_mgr_get_free_space
                0x00000000       0x1c mesh/core/libmesh_core_nrf51422_xxAC.a(packet_mgr.c.obj)
 .text.packet_mgr_refcount_get
                0x00000000        0x6 mesh/core/libmesh_core_nrf51422_xxAC.a(packet_mgr.c.obj)
 .text.packet_mgr_size_get
                0x00000000        0x6 mesh/core/libmesh_core_nrf51422_xxAC.a(packet_mgr.c.obj)
 .text          0x00000000        0x0 mesh/core/libmesh_core_nrf51422_xxAC.a(mesh_flash.c.obj)
 .data          0x00000000        0x0 mesh/core/libmesh_core_nrf51422_xxAC.a(mesh_flash.c.obj)
 .bss           0x00000000        0x0 mesh/core/libmesh_core_nrf51422_xxAC.a(mesh_flash.c.obj)
 .text.mesh_flash_op_available_slots
                0x00000000       0x2c mesh/core/libmesh_core_nrf51422_xxAC.a(mesh_flash.c.obj)
 .text.mesh_flash_in_progress
                0x00000000       0x38 mesh/core/libmesh_core_nrf51422_xxAC.a(mesh_flash.c.obj)
 .text.mesh_flash_set_suspended
                0x00000000       0x90 mesh/core/libmesh_core_nrf51422_xxAC.a(mesh_flash.c.obj)
 .bss.suspend_count.7471
                0x00000000        0x4 mesh/core/libmesh_core_nrf51422_xxAC.a(mesh_flash.c.obj)
 .text          0x00000000        0x0 mesh/core/libmesh_core_nrf51422_xxAC.a(queue.c.obj)
 .data          0x00000000        0x0 mesh/core/libmesh_core_nrf51422_xxAC.a(queue.c.obj)
 .bss           0x00000000        0x0 mesh/core/libmesh_core_nrf51422_xxAC.a(queue.c.obj)
 .text          0x00000000        0x0 mesh/core/libmesh_core_nrf51422_xxAC.a(enc.c.obj)
 .data          0x00000000        0x0 mesh/core/libmesh_core_nrf51422_xxAC.a(enc.c.obj)
 .bss           0x00000000        0x0 mesh/core/libmesh_core_nrf51422_xxAC.a(enc.c.obj)
 .text.enc_key_generate
                0x00000000        0xa mesh/core/libmesh_core_nrf51422_xxAC.a(enc.c.obj)
 .text.enc_k1   0x00000000       0x58 mesh/core/libmesh_core_nrf51422_xxAC.a(enc.c.obj)
 .text.enc_k2   0x00000000      0x110 mesh/core/libmesh_core_nrf51422_xxAC.a(enc.c.obj)
 .text.enc_k3   0x00000000       0x70 mesh/core/libmesh_core_nrf51422_xxAC.a(enc.c.obj)
 .text.enc_k4   0x00000000       0x74 mesh/core/libmesh_core_nrf51422_xxAC.a(enc.c.obj)
 .rodata        0x00000000       0x15 mesh/core/libmesh_core_nrf51422_xxAC.a(enc.c.obj)
 .text          0x00000000        0x0 mesh/core/libmesh_core_nrf51422_xxAC.a(msqueue.c.obj)
 .data          0x00000000        0x0 mesh/core/libmesh_core_nrf51422_xxAC.a(msqueue.c.obj)
 .bss           0x00000000        0x0 mesh/core/libmesh_core_nrf51422_xxAC.a(msqueue.c.obj)
 .text          0x00000000        0x0 mesh/core/libmesh_core_nrf51422_xxAC.a(ccm_soft.c.obj)
 .data          0x00000000        0x0 mesh/core/libmesh_core_nrf51422_xxAC.a(ccm_soft.c.obj)
 .bss           0x00000000        0x0 mesh/core/libmesh_core_nrf51422_xxAC.a(ccm_soft.c.obj)
 .text          0x00000000        0x0 mesh/core/libmesh_core_nrf51422_xxAC.a(replay_cache.c.obj)
 .data          0x00000000        0x0 mesh/core/libmesh_core_nrf51422_xxAC.a(replay_cache.c.obj)
 .bss           0x00000000        0x0 mesh/core/libmesh_core_nrf51422_xxAC.a(replay_cache.c.obj)
 .text.replay_cache_on_iv_update
                0x00000000       0x28 mesh/core/libmesh_core_nrf51422_xxAC.a(replay_cache.c.obj)
 .text          0x00000000        0x0 mesh/core/libmesh_core_nrf51422_xxAC.a(filter_engine.c.obj)
 .data          0x00000000        0x0 mesh/core/libmesh_core_nrf51422_xxAC.a(filter_engine.c.obj)
 .bss           0x00000000        0x0 mesh/core/libmesh_core_nrf51422_xxAC.a(filter_engine.c.obj)
 .text.fen_filter_start
                0x00000000       0x74 mesh/core/libmesh_core_nrf51422_xxAC.a(filter_engine.c.obj)
 .text.fen_filter_stop
                0x00000000       0x58 mesh/core/libmesh_core_nrf51422_xxAC.a(filter_engine.c.obj)
 .text.fen_accepted_amount_get
                0x00000000        0xc mesh/core/libmesh_core_nrf51422_xxAC.a(filter_engine.c.obj)
 .text          0x00000000        0x0 mesh/core/libmesh_core_nrf51422_xxAC.a(aes.c.obj)
 .data          0x00000000        0x0 mesh/core/libmesh_core_nrf51422_xxAC.a(aes.c.obj)
 .bss           0x00000000        0x0 mesh/core/libmesh_core_nrf51422_xxAC.a(aes.c.obj)
 .text          0x00000000        0x0 mesh/core/libmesh_core_nrf51422_xxAC.a(nrf_flash.c.obj)
 .data          0x00000000        0x0 mesh/core/libmesh_core_nrf51422_xxAC.a(nrf_flash.c.obj)
 .bss           0x00000000        0x0 mesh/core/libmesh_core_nrf51422_xxAC.a(nrf_flash.c.obj)
 .text          0x00000000        0x0 mesh/core/libmesh_core_nrf51422_xxAC.a(aes_cmac.c.obj)
 .data          0x00000000        0x0 mesh/core/libmesh_core_nrf51422_xxAC.a(aes_cmac.c.obj)
 .bss           0x00000000        0x0 mesh/core/libmesh_core_nrf51422_xxAC.a(aes_cmac.c.obj)
 .text          0x00000000        0x0 external/rtt/librtt_nrf51422_xxAC.a(SEGGER_RTT.c.obj)
 .data          0x00000000        0x0 external/rtt/librtt_nrf51422_xxAC.a(SEGGER_RTT.c.obj)
 .bss           0x00000000        0x0 external/rtt/librtt_nrf51422_xxAC.a(SEGGER_RTT.c.obj)
 .text._PostTerminalSwitch.constprop.0
                0x00000000       0x20 external/rtt/librtt_nrf51422_xxAC.a(SEGGER_RTT.c.obj)
 .text.SEGGER_RTT_ReadNoLock
                0x00000000       0xa4 external/rtt/librtt_nrf51422_xxAC.a(SEGGER_RTT.c.obj)
 .text.SEGGER_RTT_Read
                0x00000000       0x1a external/rtt/librtt_nrf51422_xxAC.a(SEGGER_RTT.c.obj)
 .text.SEGGER_RTT_WriteSkipNoLock
                0x00000000       0xb0 external/rtt/librtt_nrf51422_xxAC.a(SEGGER_RTT.c.obj)
 .text.SEGGER_RTT_WriteString
                0x00000000       0x18 external/rtt/librtt_nrf51422_xxAC.a(SEGGER_RTT.c.obj)
 .text.SEGGER_RTT_GetKey
                0x00000000       0x1e external/rtt/librtt_nrf51422_xxAC.a(SEGGER_RTT.c.obj)
 .text.SEGGER_RTT_WaitKey
                0x00000000        0xc external/rtt/librtt_nrf51422_xxAC.a(SEGGER_RTT.c.obj)
 .text.SEGGER_RTT_HasKey
                0x00000000       0x20 external/rtt/librtt_nrf51422_xxAC.a(SEGGER_RTT.c.obj)
 .text.SEGGER_RTT_HasData
                0x00000000       0x14 external/rtt/librtt_nrf51422_xxAC.a(SEGGER_RTT.c.obj)
 .text.SEGGER_RTT_AllocDownBuffer
                0x00000000       0x64 external/rtt/librtt_nrf51422_xxAC.a(SEGGER_RTT.c.obj)
 .text.SEGGER_RTT_AllocUpBuffer
                0x00000000       0x68 external/rtt/librtt_nrf51422_xxAC.a(SEGGER_RTT.c.obj)
 .text.SEGGER_RTT_ConfigUpBuffer
                0x00000000       0x60 external/rtt/librtt_nrf51422_xxAC.a(SEGGER_RTT.c.obj)
 .text.SEGGER_RTT_ConfigDownBuffer
                0x00000000       0x5c external/rtt/librtt_nrf51422_xxAC.a(SEGGER_RTT.c.obj)
 .text.SEGGER_RTT_SetNameUpBuffer
                0x00000000       0x3c external/rtt/librtt_nrf51422_xxAC.a(SEGGER_RTT.c.obj)
 .text.SEGGER_RTT_SetNameDownBuffer
                0x00000000       0x3c external/rtt/librtt_nrf51422_xxAC.a(SEGGER_RTT.c.obj)
 .text.SEGGER_RTT_Init
                0x00000000       0x14 external/rtt/librtt_nrf51422_xxAC.a(SEGGER_RTT.c.obj)
 .text.SEGGER_RTT_SetTerminal
                0x00000000       0x80 external/rtt/librtt_nrf51422_xxAC.a(SEGGER_RTT.c.obj)
 .text.SEGGER_RTT_TerminalOut
                0x00000000       0xa0 external/rtt/librtt_nrf51422_xxAC.a(SEGGER_RTT.c.obj)
 .bss._ActiveTerminal
                0x00000000        0x1 external/rtt/librtt_nrf51422_xxAC.a(SEGGER_RTT.c.obj)
 .rodata._aTerminalId
                0x00000000       0x10 external/rtt/librtt_nrf51422_xxAC.a(SEGGER_RTT.c.obj)
 .text          0x00000000        0x0 external/rtt/librtt_nrf51422_xxAC.a(SEGGER_RTT_printf.c.obj)
 .data          0x00000000        0x0 external/rtt/librtt_nrf51422_xxAC.a(SEGGER_RTT_printf.c.obj)
 .bss           0x00000000        0x0 external/rtt/librtt_nrf51422_xxAC.a(SEGGER_RTT_printf.c.obj)
 .data          0x00000000        0x0 c:/a/gcc_arm/6/bin/../lib/gcc/arm-none-eabi/6.3.1/thumb/v6-m\libgcc.a(_thumb1_case_uqi.o)
 .bss           0x00000000        0x0 c:/a/gcc_arm/6/bin/../lib/gcc/arm-none-eabi/6.3.1/thumb/v6-m\libgcc.a(_thumb1_case_uqi.o)
 .data          0x00000000        0x0 c:/a/gcc_arm/6/bin/../lib/gcc/arm-none-eabi/6.3.1/thumb/v6-m\libgcc.a(_thumb1_case_shi.o)
 .bss           0x00000000        0x0 c:/a/gcc_arm/6/bin/../lib/gcc/arm-none-eabi/6.3.1/thumb/v6-m\libgcc.a(_thumb1_case_shi.o)
 .data          0x00000000        0x0 c:/a/gcc_arm/6/bin/../lib/gcc/arm-none-eabi/6.3.1/thumb/v6-m\libgcc.a(_thumb1_case_uhi.o)
 .bss           0x00000000        0x0 c:/a/gcc_arm/6/bin/../lib/gcc/arm-none-eabi/6.3.1/thumb/v6-m\libgcc.a(_thumb1_case_uhi.o)
 .data          0x00000000        0x0 c:/a/gcc_arm/6/bin/../lib/gcc/arm-none-eabi/6.3.1/thumb/v6-m\libgcc.a(_udivsi3.o)
 .bss           0x00000000        0x0 c:/a/gcc_arm/6/bin/../lib/gcc/arm-none-eabi/6.3.1/thumb/v6-m\libgcc.a(_udivsi3.o)
 .data          0x00000000        0x0 c:/a/gcc_arm/6/bin/../lib/gcc/arm-none-eabi/6.3.1/thumb/v6-m\libgcc.a(_divsi3.o)
 .bss           0x00000000        0x0 c:/a/gcc_arm/6/bin/../lib/gcc/arm-none-eabi/6.3.1/thumb/v6-m\libgcc.a(_divsi3.o)
 .data          0x00000000        0x0 c:/a/gcc_arm/6/bin/../lib/gcc/arm-none-eabi/6.3.1/thumb/v6-m\libgcc.a(_dvmd_tls.o)
 .bss           0x00000000        0x0 c:/a/gcc_arm/6/bin/../lib/gcc/arm-none-eabi/6.3.1/thumb/v6-m\libgcc.a(_dvmd_tls.o)
 .data          0x00000000        0x0 c:/a/gcc_arm/6/bin/../lib/gcc/arm-none-eabi/6.3.1/thumb/v6-m\libgcc.a(_muldi3.o)
 .bss           0x00000000        0x0 c:/a/gcc_arm/6/bin/../lib/gcc/arm-none-eabi/6.3.1/thumb/v6-m\libgcc.a(_muldi3.o)
 .text          0x00000000        0x0 c:/a/gcc_arm/6/bin/../lib/gcc/arm-none-eabi/6.3.1/../../../../arm-none-eabi/lib/thumb/v6-m\libc_nano.a(lib_a-exit.o)
 .data          0x00000000        0x0 c:/a/gcc_arm/6/bin/../lib/gcc/arm-none-eabi/6.3.1/../../../../arm-none-eabi/lib/thumb/v6-m\libc_nano.a(lib_a-exit.o)
 .bss           0x00000000        0x0 c:/a/gcc_arm/6/bin/../lib/gcc/arm-none-eabi/6.3.1/../../../../arm-none-eabi/lib/thumb/v6-m\libc_nano.a(lib_a-exit.o)
 .text          0x00000000        0x0 c:/a/gcc_arm/6/bin/../lib/gcc/arm-none-eabi/6.3.1/../../../../arm-none-eabi/lib/thumb/v6-m\libc_nano.a(lib_a-impure.o)
 .data          0x00000000        0x0 c:/a/gcc_arm/6/bin/../lib/gcc/arm-none-eabi/6.3.1/../../../../arm-none-eabi/lib/thumb/v6-m\libc_nano.a(lib_a-impure.o)
 .bss           0x00000000        0x0 c:/a/gcc_arm/6/bin/../lib/gcc/arm-none-eabi/6.3.1/../../../../arm-none-eabi/lib/thumb/v6-m\libc_nano.a(lib_a-impure.o)
 .text          0x00000000        0x0 c:/a/gcc_arm/6/bin/../lib/gcc/arm-none-eabi/6.3.1/../../../../arm-none-eabi/lib/thumb/v6-m\libc_nano.a(lib_a-init.o)
 .data          0x00000000        0x0 c:/a/gcc_arm/6/bin/../lib/gcc/arm-none-eabi/6.3.1/../../../../arm-none-eabi/lib/thumb/v6-m\libc_nano.a(lib_a-init.o)
 .bss           0x00000000        0x0 c:/a/gcc_arm/6/bin/../lib/gcc/arm-none-eabi/6.3.1/../../../../arm-none-eabi/lib/thumb/v6-m\libc_nano.a(lib_a-init.o)
 .text          0x00000000        0x0 c:/a/gcc_arm/6/bin/../lib/gcc/arm-none-eabi/6.3.1/../../../../arm-none-eabi/lib/thumb/v6-m\libc_nano.a(lib_a-malloc.o)
 .data          0x00000000        0x0 c:/a/gcc_arm/6/bin/../lib/gcc/arm-none-eabi/6.3.1/../../../../arm-none-eabi/lib/thumb/v6-m\libc_nano.a(lib_a-malloc.o)
 .bss           0x00000000        0x0 c:/a/gcc_arm/6/bin/../lib/gcc/arm-none-eabi/6.3.1/../../../../arm-none-eabi/lib/thumb/v6-m\libc_nano.a(lib_a-malloc.o)
 .text          0x00000000        0x0 c:/a/gcc_arm/6/bin/../lib/gcc/arm-none-eabi/6.3.1/../../../../arm-none-eabi/lib/thumb/v6-m\libc_nano.a(lib_a-memcmp.o)
 .data          0x00000000        0x0 c:/a/gcc_arm/6/bin/../lib/gcc/arm-none-eabi/6.3.1/../../../../arm-none-eabi/lib/thumb/v6-m\libc_nano.a(lib_a-memcmp.o)
 .bss           0x00000000        0x0 c:/a/gcc_arm/6/bin/../lib/gcc/arm-none-eabi/6.3.1/../../../../arm-none-eabi/lib/thumb/v6-m\libc_nano.a(lib_a-memcmp.o)
 .text          0x00000000        0x0 c:/a/gcc_arm/6/bin/../lib/gcc/arm-none-eabi/6.3.1/../../../../arm-none-eabi/lib/thumb/v6-m\libc_nano.a(lib_a-memcpy-stub.o)
 .data          0x00000000        0x0 c:/a/gcc_arm/6/bin/../lib/gcc/arm-none-eabi/6.3.1/../../../../arm-none-eabi/lib/thumb/v6-m\libc_nano.a(lib_a-memcpy-stub.o)
 .bss           0x00000000        0x0 c:/a/gcc_arm/6/bin/../lib/gcc/arm-none-eabi/6.3.1/../../../../arm-none-eabi/lib/thumb/v6-m\libc_nano.a(lib_a-memcpy-stub.o)
 .text          0x00000000        0x0 c:/a/gcc_arm/6/bin/../lib/gcc/arm-none-eabi/6.3.1/../../../../arm-none-eabi/lib/thumb/v6-m\libc_nano.a(lib_a-memset.o)
 .data          0x00000000        0x0 c:/a/gcc_arm/6/bin/../lib/gcc/arm-none-eabi/6.3.1/../../../../arm-none-eabi/lib/thumb/v6-m\libc_nano.a(lib_a-memset.o)
 .bss           0x00000000        0x0 c:/a/gcc_arm/6/bin/../lib/gcc/arm-none-eabi/6.3.1/../../../../arm-none-eabi/lib/thumb/v6-m\libc_nano.a(lib_a-memset.o)
 .text          0x00000000        0x0 c:/a/gcc_arm/6/bin/../lib/gcc/arm-none-eabi/6.3.1/../../../../arm-none-eabi/lib/thumb/v6-m\libc_nano.a(lib_a-nano-freer.o)
 .data          0x00000000        0x0 c:/a/gcc_arm/6/bin/../lib/gcc/arm-none-eabi/6.3.1/../../../../arm-none-eabi/lib/thumb/v6-m\libc_nano.a(lib_a-nano-freer.o)
 .bss           0x00000000        0x0 c:/a/gcc_arm/6/bin/../lib/gcc/arm-none-eabi/6.3.1/../../../../arm-none-eabi/lib/thumb/v6-m\libc_nano.a(lib_a-nano-freer.o)
 .text          0x00000000        0x0 c:/a/gcc_arm/6/bin/../lib/gcc/arm-none-eabi/6.3.1/../../../../arm-none-eabi/lib/thumb/v6-m\libc_nano.a(lib_a-nano-mallocr.o)
 .data          0x00000000        0x0 c:/a/gcc_arm/6/bin/../lib/gcc/arm-none-eabi/6.3.1/../../../../arm-none-eabi/lib/thumb/v6-m\libc_nano.a(lib_a-nano-mallocr.o)
 .bss           0x00000000        0x0 c:/a/gcc_arm/6/bin/../lib/gcc/arm-none-eabi/6.3.1/../../../../arm-none-eabi/lib/thumb/v6-m\libc_nano.a(lib_a-nano-mallocr.o)
 .text          0x00000000        0x0 c:/a/gcc_arm/6/bin/../lib/gcc/arm-none-eabi/6.3.1/../../../../arm-none-eabi/lib/thumb/v6-m\libc_nano.a(lib_a-sbrkr.o)
 .data          0x00000000        0x0 c:/a/gcc_arm/6/bin/../lib/gcc/arm-none-eabi/6.3.1/../../../../arm-none-eabi/lib/thumb/v6-m\libc_nano.a(lib_a-sbrkr.o)
 .bss           0x00000000        0x0 c:/a/gcc_arm/6/bin/../lib/gcc/arm-none-eabi/6.3.1/../../../../arm-none-eabi/lib/thumb/v6-m\libc_nano.a(lib_a-sbrkr.o)
 .text          0x00000000        0x0 c:/a/gcc_arm/6/bin/../lib/gcc/arm-none-eabi/6.3.1/../../../../arm-none-eabi/lib/thumb/v6-m\libc_nano.a(lib_a-sprintf.o)
 .data          0x00000000        0x0 c:/a/gcc_arm/6/bin/../lib/gcc/arm-none-eabi/6.3.1/../../../../arm-none-eabi/lib/thumb/v6-m\libc_nano.a(lib_a-sprintf.o)
 .bss           0x00000000        0x0 c:/a/gcc_arm/6/bin/../lib/gcc/arm-none-eabi/6.3.1/../../../../arm-none-eabi/lib/thumb/v6-m\libc_nano.a(lib_a-sprintf.o)
 .text._sprintf_r
                0x00000000       0x40 c:/a/gcc_arm/6/bin/../lib/gcc/arm-none-eabi/6.3.1/../../../../arm-none-eabi/lib/thumb/v6-m\libc_nano.a(lib_a-sprintf.o)
 .text          0x00000000        0x0 c:/a/gcc_arm/6/bin/../lib/gcc/arm-none-eabi/6.3.1/../../../../arm-none-eabi/lib/thumb/v6-m\libc_nano.a(lib_a-strcpy.o)
 .data          0x00000000        0x0 c:/a/gcc_arm/6/bin/../lib/gcc/arm-none-eabi/6.3.1/../../../../arm-none-eabi/lib/thumb/v6-m\libc_nano.a(lib_a-strcpy.o)
 .bss           0x00000000        0x0 c:/a/gcc_arm/6/bin/../lib/gcc/arm-none-eabi/6.3.1/../../../../arm-none-eabi/lib/thumb/v6-m\libc_nano.a(lib_a-strcpy.o)
 .text          0x00000000        0xe c:/a/gcc_arm/6/bin/../lib/gcc/arm-none-eabi/6.3.1/../../../../arm-none-eabi/lib/thumb/v6-m\libc_nano.a(lib_a-strlen.o)
 .data          0x00000000        0x0 c:/a/gcc_arm/6/bin/../lib/gcc/arm-none-eabi/6.3.1/../../../../arm-none-eabi/lib/thumb/v6-m\libc_nano.a(lib_a-strlen.o)
 .bss           0x00000000        0x0 c:/a/gcc_arm/6/bin/../lib/gcc/arm-none-eabi/6.3.1/../../../../arm-none-eabi/lib/thumb/v6-m\libc_nano.a(lib_a-strlen.o)
 .ARM.attributes
                0x00000000       0x1c c:/a/gcc_arm/6/bin/../lib/gcc/arm-none-eabi/6.3.1/../../../../arm-none-eabi/lib/thumb/v6-m\libc_nano.a(lib_a-strlen.o)
 .text          0x00000000        0x0 c:/a/gcc_arm/6/bin/../lib/gcc/arm-none-eabi/6.3.1/../../../../arm-none-eabi/lib/thumb/v6-m\libc_nano.a(lib_a-strrchr.o)
 .data          0x00000000        0x0 c:/a/gcc_arm/6/bin/../lib/gcc/arm-none-eabi/6.3.1/../../../../arm-none-eabi/lib/thumb/v6-m\libc_nano.a(lib_a-strrchr.o)
 .bss           0x00000000        0x0 c:/a/gcc_arm/6/bin/../lib/gcc/arm-none-eabi/6.3.1/../../../../arm-none-eabi/lib/thumb/v6-m\libc_nano.a(lib_a-strrchr.o)
 .text          0x00000000        0x0 c:/a/gcc_arm/6/bin/../lib/gcc/arm-none-eabi/6.3.1/../../../../arm-none-eabi/lib/thumb/v6-m\libc_nano.a(lib_a-mlock.o)
 .data          0x00000000        0x0 c:/a/gcc_arm/6/bin/../lib/gcc/arm-none-eabi/6.3.1/../../../../arm-none-eabi/lib/thumb/v6-m\libc_nano.a(lib_a-mlock.o)
 .bss           0x00000000        0x0 c:/a/gcc_arm/6/bin/../lib/gcc/arm-none-eabi/6.3.1/../../../../arm-none-eabi/lib/thumb/v6-m\libc_nano.a(lib_a-mlock.o)
 .text          0x00000000        0x0 c:/a/gcc_arm/6/bin/../lib/gcc/arm-none-eabi/6.3.1/../../../../arm-none-eabi/lib/thumb/v6-m\libc_nano.a(lib_a-nano-svfprintf.o)
 .data          0x00000000        0x0 c:/a/gcc_arm/6/bin/../lib/gcc/arm-none-eabi/6.3.1/../../../../arm-none-eabi/lib/thumb/v6-m\libc_nano.a(lib_a-nano-svfprintf.o)
 .bss           0x00000000        0x0 c:/a/gcc_arm/6/bin/../lib/gcc/arm-none-eabi/6.3.1/../../../../arm-none-eabi/lib/thumb/v6-m\libc_nano.a(lib_a-nano-svfprintf.o)
 .text.__ssprint_r
                0x00000000       0xfc c:/a/gcc_arm/6/bin/../lib/gcc/arm-none-eabi/6.3.1/../../../../arm-none-eabi/lib/thumb/v6-m\libc_nano.a(lib_a-nano-svfprintf.o)
 .text          0x00000000        0x0 c:/a/gcc_arm/6/bin/../lib/gcc/arm-none-eabi/6.3.1/../../../../arm-none-eabi/lib/thumb/v6-m\libc_nano.a(lib_a-nano-vfprintf_i.o)
 .data          0x00000000        0x0 c:/a/gcc_arm/6/bin/../lib/gcc/arm-none-eabi/6.3.1/../../../../arm-none-eabi/lib/thumb/v6-m\libc_nano.a(lib_a-nano-vfprintf_i.o)
 .bss           0x00000000        0x0 c:/a/gcc_arm/6/bin/../lib/gcc/arm-none-eabi/6.3.1/../../../../arm-none-eabi/lib/thumb/v6-m\libc_nano.a(lib_a-nano-vfprintf_i.o)
 .text          0x00000000        0x0 c:/a/gcc_arm/6/bin/../lib/gcc/arm-none-eabi/6.3.1/../../../../arm-none-eabi/lib/thumb/v6-m\libc_nano.a(lib_a-reent.o)
 .data          0x00000000        0x0 c:/a/gcc_arm/6/bin/../lib/gcc/arm-none-eabi/6.3.1/../../../../arm-none-eabi/lib/thumb/v6-m\libc_nano.a(lib_a-reent.o)
 .bss           0x00000000        0x0 c:/a/gcc_arm/6/bin/../lib/gcc/arm-none-eabi/6.3.1/../../../../arm-none-eabi/lib/thumb/v6-m\libc_nano.a(lib_a-reent.o)
 .text.cleanup_glue
                0x00000000       0x1a c:/a/gcc_arm/6/bin/../lib/gcc/arm-none-eabi/6.3.1/../../../../arm-none-eabi/lib/thumb/v6-m\libc_nano.a(lib_a-reent.o)
 .text._reclaim_reent
                0x00000000       0xcc c:/a/gcc_arm/6/bin/../lib/gcc/arm-none-eabi/6.3.1/../../../../arm-none-eabi/lib/thumb/v6-m\libc_nano.a(lib_a-reent.o)
 .text          0x00000000        0x0 c:/a/gcc_arm/6/bin/../lib/gcc/arm-none-eabi/6.3.1/../../../../arm-none-eabi/lib/thumb/v6-m\libc_nano.a(lib_a-strchr.o)
 .data          0x00000000        0x0 c:/a/gcc_arm/6/bin/../lib/gcc/arm-none-eabi/6.3.1/../../../../arm-none-eabi/lib/thumb/v6-m\libc_nano.a(lib_a-strchr.o)
 .bss           0x00000000        0x0 c:/a/gcc_arm/6/bin/../lib/gcc/arm-none-eabi/6.3.1/../../../../arm-none-eabi/lib/thumb/v6-m\libc_nano.a(lib_a-strchr.o)
 .text          0x00000000        0x0 c:/a/gcc_arm/6/bin/../lib/gcc/arm-none-eabi/6.3.1/../../../../arm-none-eabi/lib/thumb/v6-m\libc_nano.a(lib_a-memchr-stub.o)
 .data          0x00000000        0x0 c:/a/gcc_arm/6/bin/../lib/gcc/arm-none-eabi/6.3.1/../../../../arm-none-eabi/lib/thumb/v6-m\libc_nano.a(lib_a-memchr-stub.o)
 .bss           0x00000000        0x0 c:/a/gcc_arm/6/bin/../lib/gcc/arm-none-eabi/6.3.1/../../../../arm-none-eabi/lib/thumb/v6-m\libc_nano.a(lib_a-memchr-stub.o)
 .text          0x00000000        0x0 c:/a/gcc_arm/6/bin/../lib/gcc/arm-none-eabi/6.3.1/../../../../arm-none-eabi/lib/thumb/v6-m\libc_nano.a(lib_a-memmove.o)
 .data          0x00000000        0x0 c:/a/gcc_arm/6/bin/../lib/gcc/arm-none-eabi/6.3.1/../../../../arm-none-eabi/lib/thumb/v6-m\libc_nano.a(lib_a-memmove.o)
 .bss           0x00000000        0x0 c:/a/gcc_arm/6/bin/../lib/gcc/arm-none-eabi/6.3.1/../../../../arm-none-eabi/lib/thumb/v6-m\libc_nano.a(lib_a-memmove.o)
 .text          0x00000000        0x0 c:/a/gcc_arm/6/bin/../lib/gcc/arm-none-eabi/6.3.1/../../../../arm-none-eabi/lib/thumb/v6-m\libc_nano.a(lib_a-nano-reallocr.o)
 .data          0x00000000        0x0 c:/a/gcc_arm/6/bin/../lib/gcc/arm-none-eabi/6.3.1/../../../../arm-none-eabi/lib/thumb/v6-m\libc_nano.a(lib_a-nano-reallocr.o)
 .bss           0x00000000        0x0 c:/a/gcc_arm/6/bin/../lib/gcc/arm-none-eabi/6.3.1/../../../../arm-none-eabi/lib/thumb/v6-m\libc_nano.a(lib_a-nano-reallocr.o)
 .text          0x00000000        0x0 c:/a/gcc_arm/6/bin/../lib/gcc/arm-none-eabi/6.3.1/../../../../arm-none-eabi/lib/thumb/v6-m\libc_nano.a(lib_a-nano-msizer.o)
 .data          0x00000000        0x0 c:/a/gcc_arm/6/bin/../lib/gcc/arm-none-eabi/6.3.1/../../../../arm-none-eabi/lib/thumb/v6-m\libc_nano.a(lib_a-nano-msizer.o)
 .bss           0x00000000        0x0 c:/a/gcc_arm/6/bin/../lib/gcc/arm-none-eabi/6.3.1/../../../../arm-none-eabi/lib/thumb/v6-m\libc_nano.a(lib_a-nano-msizer.o)
 .text          0x00000000        0x0 c:/a/gcc_arm/6/bin/../lib/gcc/arm-none-eabi/6.3.1/thumb/v6-m/crtend.o
 .data          0x00000000        0x0 c:/a/gcc_arm/6/bin/../lib/gcc/arm-none-eabi/6.3.1/thumb/v6-m/crtend.o
 .bss           0x00000000        0x0 c:/a/gcc_arm/6/bin/../lib/gcc/arm-none-eabi/6.3.1/thumb/v6-m/crtend.o
 .text          0x00000000        0x0 c:/a/gcc_arm/6/bin/../lib/gcc/arm-none-eabi/6.3.1/thumb/v6-m/crtn.o
 .data          0x00000000        0x0 c:/a/gcc_arm/6/bin/../lib/gcc/arm-none-eabi/6.3.1/thumb/v6-m/crtn.o
 .bss           0x00000000        0x0 c:/a/gcc_arm/6/bin/../lib/gcc/arm-none-eabi/6.3.1/thumb/v6-m/crtn.o
 .text          0x00000000        0x0 c:/a/gcc_arm/6/bin/../lib/gcc/arm-none-eabi/6.3.1/../../../../arm-none-eabi/lib/thumb/v6-m\libnosys.a(sbrk.o)
 .data          0x00000000        0x0 c:/a/gcc_arm/6/bin/../lib/gcc/arm-none-eabi/6.3.1/../../../../arm-none-eabi/lib/thumb/v6-m\libnosys.a(sbrk.o)
 .bss           0x00000000        0x0 c:/a/gcc_arm/6/bin/../lib/gcc/arm-none-eabi/6.3.1/../../../../arm-none-eabi/lib/thumb/v6-m\libnosys.a(sbrk.o)
 .text          0x00000000        0x0 c:/a/gcc_arm/6/bin/../lib/gcc/arm-none-eabi/6.3.1/../../../../arm-none-eabi/lib/thumb/v6-m\libnosys.a(_exit.o)
 .data          0x00000000        0x0 c:/a/gcc_arm/6/bin/../lib/gcc/arm-none-eabi/6.3.1/../../../../arm-none-eabi/lib/thumb/v6-m\libnosys.a(_exit.o)
 .bss           0x00000000        0x0 c:/a/gcc_arm/6/bin/../lib/gcc/arm-none-eabi/6.3.1/../../../../arm-none-eabi/lib/thumb/v6-m\libnosys.a(_exit.o)

Memory Configuration

Name             Origin             Length             Attributes
FLASH            0x0001b000         0x0001f000         xr
RAM              0x200022d8         0x00005a28         xrw
*default*        0x00000000         0xffffffff

Linker script and memory map

LOAD c:/a/gcc_arm/6/bin/../lib/gcc/arm-none-eabi/6.3.1/thumb/v6-m/crti.o
LOAD c:/a/gcc_arm/6/bin/../lib/gcc/arm-none-eabi/6.3.1/thumb/v6-m/crtbegin.o
LOAD c:/a/gcc_arm/6/bin/../lib/gcc/arm-none-eabi/6.3.1/../../../../arm-none-eabi/lib/thumb/v6-m/crt0.o
LOAD examples/beaconing/CMakeFiles/beaconing_nrf51422_xxAC_s130_2.0.1.dir/src/main.c.obj
LOAD examples/beaconing/CMakeFiles/beaconing_nrf51422_xxAC_s130_2.0.1.dir/__/nrf_mesh_sdk.c.obj
LOAD examples/beaconing/CMakeFiles/beaconing_nrf51422_xxAC_s130_2.0.1.dir/__/__/mesh/access/src/access_publish.c.obj
LOAD examples/beaconing/CMakeFiles/beaconing_nrf51422_xxAC_s130_2.0.1.dir/__/__/mesh/access/src/access.c.obj
LOAD examples/beaconing/CMakeFiles/beaconing_nrf51422_xxAC_s130_2.0.1.dir/__/__/mesh/access/src/access_reliable.c.obj
LOAD examples/beaconing/CMakeFiles/beaconing_nrf51422_xxAC_s130_2.0.1.dir/__/__/mesh/access/src/device_state_manager.c.obj
LOAD examples/beaconing/CMakeFiles/beaconing_nrf51422_xxAC_s130_2.0.1.dir/__/nrf_mesh_weak.c.obj
LOAD examples/beaconing/CMakeFiles/beaconing_nrf51422_xxAC_s130_2.0.1.dir/__/__/external/nRF5_SDK_14.0.0_3bcc1f7/components/toolchain/system_nrf51.c.obj
LOAD examples/beaconing/CMakeFiles/beaconing_nrf51422_xxAC_s130_2.0.1.dir/__/__/external/nRF5_SDK_14.0.0_3bcc1f7/components/toolchain/gcc/gcc_startup_nrf51.S.obj
LOAD mesh/core/libmesh_core_nrf51422_xxAC.a
LOAD external/rtt/librtt_nrf51422_xxAC.a
START GROUP
LOAD c:/a/gcc_arm/6/bin/../lib/gcc/arm-none-eabi/6.3.1/thumb/v6-m\libgcc.a
LOAD c:/a/gcc_arm/6/bin/../lib/gcc/arm-none-eabi/6.3.1/../../../../arm-none-eabi/lib/thumb/v6-m\libc_nano.a
END GROUP
START GROUP
LOAD c:/a/gcc_arm/6/bin/../lib/gcc/arm-none-eabi/6.3.1/thumb/v6-m\libgcc.a
LOAD c:/a/gcc_arm/6/bin/../lib/gcc/arm-none-eabi/6.3.1/../../../../arm-none-eabi/lib/thumb/v6-m\libc_nano.a
END GROUP
LOAD c:/a/gcc_arm/6/bin/../lib/gcc/arm-none-eabi/6.3.1/thumb/v6-m/crtend.o
LOAD c:/a/gcc_arm/6/bin/../lib/gcc/arm-none-eabi/6.3.1/thumb/v6-m/crtn.o
START GROUP
LOAD c:/a/gcc_arm/6/bin/../lib/gcc/arm-none-eabi/6.3.1/thumb/v6-m\libgcc.a
LOAD c:/a/gcc_arm/6/bin/../lib/gcc/arm-none-eabi/6.3.1/../../../../arm-none-eabi/lib/thumb/v6-m\libc.a
LOAD c:/a/gcc_arm/6/bin/../lib/gcc/arm-none-eabi/6.3.1/../../../../arm-none-eabi/lib/thumb/v6-m\libnosys.a
END GROUP

.text           0x0001b000     0x9a50
 *(.isr_vector)
 .isr_vector    0x0001b000       0xc0 examples/beaconing/CMakeFiles/beaconing_nrf51422_xxAC_s130_2.0.1.dir/__/__/external/nRF5_SDK_14.0.0_3bcc1f7/components/toolchain/gcc/gcc_startup_nrf51.S.obj
                0x0001b000                __isr_vector
 *(.text*)
 .text          0x0001b0c0       0x60 c:/a/gcc_arm/6/bin/../lib/gcc/arm-none-eabi/6.3.1/thumb/v6-m/crtbegin.o
 .text          0x0001b120       0x78 c:/a/gcc_arm/6/bin/../lib/gcc/arm-none-eabi/6.3.1/../../../../arm-none-eabi/lib/thumb/v6-m/crt0.o
                0x0001b120                _start
                0x0001b120                _mainCRTStartup
 .text.rx_callback
                0x0001b198      0x130 examples/beaconing/CMakeFiles/beaconing_nrf51422_xxAC_s130_2.0.1.dir/src/main.c.obj
 .text.startup.main
                0x0001b2c8      0x144 examples/beaconing/CMakeFiles/beaconing_nrf51422_xxAC_s130_2.0.1.dir/src/main.c.obj
                0x0001b2c8                main
 .text.sd_evt_get
                0x0001b40c        0x4 examples/beaconing/CMakeFiles/beaconing_nrf51422_xxAC_s130_2.0.1.dir/__/nrf_mesh_sdk.c.obj
 .text.sd_softdevice_enable
                0x0001b410        0x4 examples/beaconing/CMakeFiles/beaconing_nrf51422_xxAC_s130_2.0.1.dir/__/nrf_mesh_sdk.c.obj
 .text.sd_ble_enable
                0x0001b414        0x4 examples/beaconing/CMakeFiles/beaconing_nrf51422_xxAC_s130_2.0.1.dir/__/nrf_mesh_sdk.c.obj
 .text.sd_ble_evt_get
                0x0001b418        0x4 examples/beaconing/CMakeFiles/beaconing_nrf51422_xxAC_s130_2.0.1.dir/__/nrf_mesh_sdk.c.obj
 .text.sleep_forever
                0x0001b41c       0x24 examples/beaconing/CMakeFiles/beaconing_nrf51422_xxAC_s130_2.0.1.dir/__/nrf_mesh_sdk.c.obj
 .text.mesh_assert_handler
                0x0001b440       0x64 examples/beaconing/CMakeFiles/beaconing_nrf51422_xxAC_s130_2.0.1.dir/__/nrf_mesh_sdk.c.obj
                0x0001b440                mesh_assert_handler
 .text.softdevice_assert_handler
                0x0001b4a4       0x7c examples/beaconing/CMakeFiles/beaconing_nrf51422_xxAC_s130_2.0.1.dir/__/nrf_mesh_sdk.c.obj
                0x0001b4a4                softdevice_assert_handler
 .text.app_error_handler
                0x0001b520       0x7c examples/beaconing/CMakeFiles/beaconing_nrf51422_xxAC_s130_2.0.1.dir/__/nrf_mesh_sdk.c.obj
                0x0001b520                app_error_handler
 .text.HardFault_Handler
                0x0001b59c       0x60 examples/beaconing/CMakeFiles/beaconing_nrf51422_xxAC_s130_2.0.1.dir/__/nrf_mesh_sdk.c.obj
                0x0001b59c                HardFault_Handler
 .text.SWI2_IRQHandler
                0x0001b5fc       0x38 examples/beaconing/CMakeFiles/beaconing_nrf51422_xxAC_s130_2.0.1.dir/__/nrf_mesh_sdk.c.obj
                0x0001b5fc                SWI2_IRQHandler
 .text.mesh_softdevice_enable
                0x0001b634      0x12c examples/beaconing/CMakeFiles/beaconing_nrf51422_xxAC_s130_2.0.1.dir/__/nrf_mesh_sdk.c.obj
                0x0001b634                mesh_softdevice_enable
 .text.mesh_softdevice_setup
                0x0001b760       0x80 examples/beaconing/CMakeFiles/beaconing_nrf51422_xxAC_s130_2.0.1.dir/__/nrf_mesh_sdk.c.obj
                0x0001b760                mesh_softdevice_setup
 .text.mesh_core_setup
                0x0001b7e0      0x158 examples/beaconing/CMakeFiles/beaconing_nrf51422_xxAC_s130_2.0.1.dir/__/nrf_mesh_sdk.c.obj
                0x0001b7e0                mesh_core_setup
 .text.bitfield_get
                0x0001b938       0x18 examples/beaconing/CMakeFiles/beaconing_nrf51422_xxAC_s130_2.0.1.dir/__/__/mesh/access/src/device_state_manager.c.obj
 .text.virtual_address_uuid_index_get
                0x0001b950       0x58 examples/beaconing/CMakeFiles/beaconing_nrf51422_xxAC_s130_2.0.1.dir/__/__/mesh/access/src/device_state_manager.c.obj
 .text.get_subnet_handle
                0x0001b9a8       0x44 examples/beaconing/CMakeFiles/beaconing_nrf51422_xxAC_s130_2.0.1.dir/__/__/mesh/access/src/device_state_manager.c.obj
 .text.get_app_handle
                0x0001b9ec       0x50 examples/beaconing/CMakeFiles/beaconing_nrf51422_xxAC_s130_2.0.1.dir/__/__/mesh/access/src/device_state_manager.c.obj
 .text.nrf_mesh_net_secmat_next_get
                0x0001ba3c       0x70 examples/beaconing/CMakeFiles/beaconing_nrf51422_xxAC_s130_2.0.1.dir/__/__/mesh/access/src/device_state_manager.c.obj
                0x0001ba3c                nrf_mesh_net_secmat_next_get
 .text.nrf_mesh_app_secmat_next_get
                0x0001baac       0xa0 examples/beaconing/CMakeFiles/beaconing_nrf51422_xxAC_s130_2.0.1.dir/__/__/mesh/access/src/device_state_manager.c.obj
                0x0001baac                nrf_mesh_app_secmat_next_get
 .text.nrf_mesh_devkey_secmat_get
                0x0001bb4c       0x34 examples/beaconing/CMakeFiles/beaconing_nrf51422_xxAC_s130_2.0.1.dir/__/__/mesh/access/src/device_state_manager.c.obj
                0x0001bb4c                nrf_mesh_devkey_secmat_get
 .text.nrf_mesh_beacon_info_next_get
                0x0001bb80       0xc0 examples/beaconing/CMakeFiles/beaconing_nrf51422_xxAC_s130_2.0.1.dir/__/__/mesh/access/src/device_state_manager.c.obj
                0x0001bb80                nrf_mesh_beacon_info_next_get
 .text.nrf_mesh_rx_address_get
                0x0001bc40      0x108 examples/beaconing/CMakeFiles/beaconing_nrf51422_xxAC_s130_2.0.1.dir/__/__/mesh/access/src/device_state_manager.c.obj
                0x0001bc40                nrf_mesh_rx_address_get
 .text._weak_handler
                0x0001bd48        0x4 examples/beaconing/CMakeFiles/beaconing_nrf51422_xxAC_s130_2.0.1.dir/__/nrf_mesh_weak.c.obj
                0x0001bd48                nrf_mesh_dfu_init
                0x0001bd48                prov_beacon_unprov_packet_in
                0x0001bd48                nrf_mesh_dfu_jump_to_bootloader
                0x0001bd48                prov_utils_opt_get
                0x0001bd48                nrf_mesh_dfu_rx
                0x0001bd48                prov_utils_opt_set
                0x0001bd48                prov_provisioner_provision
                0x0001bd48                nrf_mesh_dfu_bank_info_get
                0x0001bd48                prov_provisioner_oob_pubkey
                0x0001bd48                nrf_mesh_dfu_request
                0x0001bd48                nrf_mesh_dfu_bank_flash
                0x0001bd48                _weak_handler
                0x0001bd48                prov_provisionee_auth_data
                0x0001bd48                nrf_mesh_dfu_relay
                0x0001bd48                prov_provisionee_shared_secret
                0x0001bd48                nrf_mesh_dfu_abort
                0x0001bd48                mesh_flash_op_execute
                0x0001bd48                prov_provisionee_init
                0x0001bd48                nrf_mesh_dfu_state_get
                0x0001bd48                prov_provisioner_shared_secret
                0x0001bd48                prov_provisioner_auth_data
                0x0001bd48                prov_bearer_adv_packet_in
                0x0001bd48                prov_provisioner_oob_use
 .text.SystemInit
                0x0001bd4c       0xe0 examples/beaconing/CMakeFiles/beaconing_nrf51422_xxAC_s130_2.0.1.dir/__/__/external/nRF5_SDK_14.0.0_3bcc1f7/components/toolchain/system_nrf51.c.obj
                0x0001bd4c                SystemInit
 .text          0x0001be2c       0x4c examples/beaconing/CMakeFiles/beaconing_nrf51422_xxAC_s130_2.0.1.dir/__/__/external/nRF5_SDK_14.0.0_3bcc1f7/components/toolchain/gcc/gcc_startup_nrf51.S.obj
                0x0001be2c                Reset_Handler
                0x0001be6c                NMI_Handler
                0x0001be70                SVC_Handler
                0x0001be72                PendSV_Handler
                0x0001be74                SysTick_Handler
                0x0001be76                GPIOTE_IRQHandler
                0x0001be76                RTC0_IRQHandler
                0x0001be76                POWER_CLOCK_IRQHandler
                0x0001be76                SPI0_TWI0_IRQHandler
                0x0001be76                LPCOMP_IRQHandler
                0x0001be76                SWI4_IRQHandler
                0x0001be76                TEMP_IRQHandler
                0x0001be76                UART0_IRQHandler
                0x0001be76                SWI5_IRQHandler
                0x0001be76                TIMER0_IRQHandler
                0x0001be76                RADIO_IRQHandler
                0x0001be76                SWI0_IRQHandler
                0x0001be76                TIMER1_IRQHandler
                0x0001be76                ECB_IRQHandler
                0x0001be76                Default_Handler
                0x0001be76                ADC_IRQHandler
                0x0001be76                SWI3_IRQHandler
                0x0001be76                CCM_AAR_IRQHandler
                0x0001be76                WDT_IRQHandler
                0x0001be76                TIMER2_IRQHandler
                0x0001be76                RNG_IRQHandler
                0x0001be76                SPI1_TWI1_IRQHandler
                0x0001be76                RTC1_IRQHandler
                0x0001be76                SWI1_IRQHandler
 .text.event_handle
                0x0001be78       0x34 mesh/core/libmesh_core_nrf51422_xxAC.a(event.c.obj)
                0x0001be78                event_handle
 .text.flash_mem_available
                0x0001beac       0x20 mesh/core/libmesh_core_nrf51422_xxAC.a(net_state.c.obj)
 .text.flash_store_iv_index
                0x0001becc       0x34 mesh/core/libmesh_core_nrf51422_xxAC.a(net_state.c.obj)
 .text.seqnum_block_allocate
                0x0001bf00       0x50 mesh/core/libmesh_core_nrf51422_xxAC.a(net_state.c.obj)
 .text.flash_write_complete
                0x0001bf50       0x80 mesh/core/libmesh_core_nrf51422_xxAC.a(net_state.c.obj)
 .text.net_state_recover_from_flash
                0x0001bfd0       0x8c mesh/core/libmesh_core_nrf51422_xxAC.a(net_state.c.obj)
                0x0001bfd0                net_state_recover_from_flash
 .text.net_state_flash_area_get
                0x0001c05c       0x10 mesh/core/libmesh_core_nrf51422_xxAC.a(net_state.c.obj)
                0x0001c05c                net_state_flash_area_get
 .text.init_flash_storage
                0x0001c06c       0x40 mesh/core/libmesh_core_nrf51422_xxAC.a(net_state.c.obj)
 .text.net_state_init
                0x0001c0ac       0x48 mesh/core/libmesh_core_nrf51422_xxAC.a(net_state.c.obj)
                0x0001c0ac                net_state_init
 .text.net_state_iv_update_start
                0x0001c0f4       0x64 mesh/core/libmesh_core_nrf51422_xxAC.a(net_state.c.obj)
                0x0001c0f4                net_state_iv_update_start
 .text.iv_update_trigger_if_pending
                0x0001c158       0x94 mesh/core/libmesh_core_nrf51422_xxAC.a(net_state.c.obj)
 .text.iv_update_timer_handler
                0x0001c1ec       0x80 mesh/core/libmesh_core_nrf51422_xxAC.a(net_state.c.obj)
 .text.net_state_seqnum_alloc
                0x0001c26c       0x68 mesh/core/libmesh_core_nrf51422_xxAC.a(net_state.c.obj)
                0x0001c26c                net_state_seqnum_alloc
 .text.net_state_iv_index_lock
                0x0001c2d4       0x4c mesh/core/libmesh_core_nrf51422_xxAC.a(net_state.c.obj)
                0x0001c2d4                net_state_iv_index_lock
 .text.net_state_beacon_received
                0x0001c320       0x98 mesh/core/libmesh_core_nrf51422_xxAC.a(net_state.c.obj)
                0x0001c320                net_state_beacon_received
 .text.net_state_beacon_iv_index_get
                0x0001c3b8        0xc mesh/core/libmesh_core_nrf51422_xxAC.a(net_state.c.obj)
                0x0001c3b8                net_state_beacon_iv_index_get
 .text.net_state_tx_iv_index_get
                0x0001c3c4       0x14 mesh/core/libmesh_core_nrf51422_xxAC.a(net_state.c.obj)
                0x0001c3c4                net_state_tx_iv_index_get
 .text.net_state_rx_iv_index_get
                0x0001c3d8       0x14 mesh/core/libmesh_core_nrf51422_xxAC.a(net_state.c.obj)
                0x0001c3d8                net_state_rx_iv_index_get
 .text.net_state_iv_update_get
                0x0001c3ec        0xc mesh/core/libmesh_core_nrf51422_xxAC.a(net_state.c.obj)
                0x0001c3ec                net_state_iv_update_get
 .text.nrf_mesh_address_type_get
                0x0001c3f8       0x14 mesh/core/libmesh_core_nrf51422_xxAC.a(nrf_mesh_utils.c.obj)
                0x0001c3f8                nrf_mesh_address_type_get
 .text.sd_softdevice_is_enabled
                0x0001c40c        0x4 mesh/core/libmesh_core_nrf51422_xxAC.a(nrf_mesh.c.obj)
 .text.nrf_mesh_init
                0x0001c410       0xb8 mesh/core/libmesh_core_nrf51422_xxAC.a(nrf_mesh.c.obj)
                0x0001c410                nrf_mesh_init
 .text.nrf_mesh_enable
                0x0001c4c8       0x4c mesh/core/libmesh_core_nrf51422_xxAC.a(nrf_mesh.c.obj)
                0x0001c4c8                nrf_mesh_enable
 .text.nrf_mesh_process
                0x0001c514      0x1c4 mesh/core/libmesh_core_nrf51422_xxAC.a(nrf_mesh.c.obj)
                0x0001c514                nrf_mesh_process
 .text.nrf_mesh_on_ble_evt
                0x0001c6d8        0x4 mesh/core/libmesh_core_nrf51422_xxAC.a(nrf_mesh.c.obj)
                0x0001c6d8                nrf_mesh_on_ble_evt
 .text.nrf_mesh_on_sd_evt
                0x0001c6dc        0xa mesh/core/libmesh_core_nrf51422_xxAC.a(nrf_mesh.c.obj)
                0x0001c6dc                nrf_mesh_on_sd_evt
 *fill*         0x0001c6e6        0x2 
 .text.nrf_mesh_rx_cb_set
                0x0001c6e8        0xc mesh/core/libmesh_core_nrf51422_xxAC.a(nrf_mesh.c.obj)
                0x0001c6e8                nrf_mesh_rx_cb_set
 .text.hal_lfclk_ppm_get
                0x0001c6f4       0x14 mesh/core/libmesh_core_nrf51422_xxAC.a(hal.c.obj)
                0x0001c6f4                hal_lfclk_ppm_get
 .text.add_to_add_list
                0x0001c708       0x4c mesh/core/libmesh_core_nrf51422_xxAC.a(timer_scheduler.c.obj)
 .text.process_dirty_events
                0x0001c754       0x64 mesh/core/libmesh_core_nrf51422_xxAC.a(timer_scheduler.c.obj)
 .text.timer_cb
                0x0001c7b8       0x10 mesh/core/libmesh_core_nrf51422_xxAC.a(timer_scheduler.c.obj)
 .text.add_evt.constprop.0
                0x0001c7c8       0x70 mesh/core/libmesh_core_nrf51422_xxAC.a(timer_scheduler.c.obj)
 .text.process_add_list
                0x0001c838       0x4c mesh/core/libmesh_core_nrf51422_xxAC.a(timer_scheduler.c.obj)
 .text.flag_event_cb
                0x0001c884      0x104 mesh/core/libmesh_core_nrf51422_xxAC.a(timer_scheduler.c.obj)
 .text.timer_sch_init
                0x0001c988       0x24 mesh/core/libmesh_core_nrf51422_xxAC.a(timer_scheduler.c.obj)
                0x0001c988                timer_sch_init
 .text.timer_sch_schedule
                0x0001c9ac       0x54 mesh/core/libmesh_core_nrf51422_xxAC.a(timer_scheduler.c.obj)
                0x0001c9ac                timer_sch_schedule
 .text.timer_sch_abort
                0x0001ca00       0x68 mesh/core/libmesh_core_nrf51422_xxAC.a(timer_scheduler.c.obj)
                0x0001ca00                timer_sch_abort
 .text.timer_sch_reschedule
                0x0001ca68       0x78 mesh/core/libmesh_core_nrf51422_xxAC.a(timer_scheduler.c.obj)
                0x0001ca68                timer_sch_reschedule
 .text.timer_mut_unlock
                0x0001cae0       0x10 mesh/core/libmesh_core_nrf51422_xxAC.a(timer.c.obj)
 .text.timer_order_cb
                0x0001caf0       0x90 mesh/core/libmesh_core_nrf51422_xxAC.a(timer.c.obj)
                0x0001caf0                timer_order_cb
 .text.timer_now
                0x0001cb80       0x54 mesh/core/libmesh_core_nrf51422_xxAC.a(timer.c.obj)
                0x0001cb80                timer_now
 .text.timer_event_handler
                0x0001cbd4       0x94 mesh/core/libmesh_core_nrf51422_xxAC.a(timer.c.obj)
                0x0001cbd4                timer_event_handler
 .text.timer_on_ts_begin
                0x0001cc68      0x104 mesh/core/libmesh_core_nrf51422_xxAC.a(timer.c.obj)
                0x0001cc68                timer_on_ts_begin
 .text.timer_on_ts_end
                0x0001cd6c       0x64 mesh/core/libmesh_core_nrf51422_xxAC.a(timer.c.obj)
                0x0001cd6c                timer_on_ts_end
 .text.timer_cb
                0x0001cdd0       0x10 mesh/core/libmesh_core_nrf51422_xxAC.a(ticker.c.obj)
 .text.ticker_init
                0x0001cde0       0x38 mesh/core/libmesh_core_nrf51422_xxAC.a(ticker.c.obj)
                0x0001cde0                ticker_init
 .text.sd_rand_application_bytes_available_get
                0x0001ce18        0x4 mesh/core/libmesh_core_nrf51422_xxAC.a(rand.c.obj)
 .text.sd_rand_application_vector_get
                0x0001ce1c        0x4 mesh/core/libmesh_core_nrf51422_xxAC.a(rand.c.obj)
 .text.rand_prng_get
                0x0001ce20       0x2e mesh/core/libmesh_core_nrf51422_xxAC.a(rand.c.obj)
                0x0001ce20                rand_prng_get
 *fill*         0x0001ce4e        0x2 
 .text.rand_hw_rng_get
                0x0001ce50       0x4c mesh/core/libmesh_core_nrf51422_xxAC.a(rand.c.obj)
                0x0001ce50                rand_hw_rng_get
 .text.rand_prng_seed
                0x0001ce9c       0x30 mesh/core/libmesh_core_nrf51422_xxAC.a(rand.c.obj)
                0x0001ce9c                rand_prng_seed
 .text.sd_radio_session_open
                0x0001cecc        0x4 mesh/core/libmesh_core_nrf51422_xxAC.a(timeslot.c.obj)
 .text.sd_radio_session_close
                0x0001ced0        0x4 mesh/core/libmesh_core_nrf51422_xxAC.a(timeslot.c.obj)
 .text.sd_radio_request
                0x0001ced4        0x4 mesh/core/libmesh_core_nrf51422_xxAC.a(timeslot.c.obj)
 .text.end_timer_handler
                0x0001ced8       0x2c mesh/core/libmesh_core_nrf51422_xxAC.a(timeslot.c.obj)
 .text.get_end_time.constprop.10
                0x0001cf04       0x28 mesh/core/libmesh_core_nrf51422_xxAC.a(timeslot.c.obj)
 .text.handle_extend_end.constprop.3
                0x0001cf2c       0xc4 mesh/core/libmesh_core_nrf51422_xxAC.a(timeslot.c.obj)
 .text.radio_signal_callback
                0x0001cff0      0x160 mesh/core/libmesh_core_nrf51422_xxAC.a(timeslot.c.obj)
 .text.timeslot_sd_event_handler
                0x0001d150       0x48 mesh/core/libmesh_core_nrf51422_xxAC.a(timeslot.c.obj)
                0x0001d150                timeslot_sd_event_handler
 .text.timeslot_init
                0x0001d198       0x4c mesh/core/libmesh_core_nrf51422_xxAC.a(timeslot.c.obj)
                0x0001d198                timeslot_init
 .text.timeslot_start
                0x0001d1e4       0x1c mesh/core/libmesh_core_nrf51422_xxAC.a(timeslot.c.obj)
                0x0001d1e4                timeslot_start
 .text.timeslot_end_is_pending
                0x0001d200       0x2c mesh/core/libmesh_core_nrf51422_xxAC.a(timeslot.c.obj)
                0x0001d200                timeslot_end_is_pending
 .text.timeslot_start_time_get
                0x0001d22c        0xc mesh/core/libmesh_core_nrf51422_xxAC.a(timeslot.c.obj)
                0x0001d22c                timeslot_start_time_get
 .text.timeslot_remaining_time_get
                0x0001d238       0x24 mesh/core/libmesh_core_nrf51422_xxAC.a(timeslot.c.obj)
                0x0001d238                timeslot_remaining_time_get
 .text.timeslot_is_in_cb
                0x0001d25c        0xc mesh/core/libmesh_core_nrf51422_xxAC.a(timeslot.c.obj)
                0x0001d25c                timeslot_is_in_cb
 .text.timeslot_trigger
                0x0001d268       0x28 mesh/core/libmesh_core_nrf51422_xxAC.a(timeslot.c.obj)
                0x0001d268                timeslot_trigger
 .text.timeslot_stop
                0x0001d290       0x14 mesh/core/libmesh_core_nrf51422_xxAC.a(timeslot.c.obj)
                0x0001d290                timeslot_stop
 .text.timeslot_state_lock
                0x0001d2a4       0x2c mesh/core/libmesh_core_nrf51422_xxAC.a(timeslot.c.obj)
                0x0001d2a4                timeslot_state_lock
 .text.evt_push
                0x0001d2d0       0x24 mesh/core/libmesh_core_nrf51422_xxAC.a(bearer_event.c.obj)
 .text.QDEC_IRQHandler
                0x0001d2f4       0xc4 mesh/core/libmesh_core_nrf51422_xxAC.a(bearer_event.c.obj)
                0x0001d2f4                QDEC_IRQHandler
 .text.bearer_event_init
                0x0001d3b8       0x48 mesh/core/libmesh_core_nrf51422_xxAC.a(bearer_event.c.obj)
                0x0001d3b8                bearer_event_init
 .text.bearer_event_timer_post
                0x0001d400       0x34 mesh/core/libmesh_core_nrf51422_xxAC.a(bearer_event.c.obj)
                0x0001d400                bearer_event_timer_post
 .text.bearer_event_critical_section_begin
                0x0001d434       0x48 mesh/core/libmesh_core_nrf51422_xxAC.a(bearer_event.c.obj)
                0x0001d434                bearer_event_critical_section_begin
 .text.bearer_event_critical_section_end
                0x0001d47c       0x48 mesh/core/libmesh_core_nrf51422_xxAC.a(bearer_event.c.obj)
                0x0001d47c                bearer_event_critical_section_end
 .text.bearer_event_flag_add
                0x0001d4c4       0x54 mesh/core/libmesh_core_nrf51422_xxAC.a(bearer_event.c.obj)
                0x0001d4c4                bearer_event_flag_add
 .text.bearer_event_flag_set
                0x0001d518       0x58 mesh/core/libmesh_core_nrf51422_xxAC.a(bearer_event.c.obj)
                0x0001d518                bearer_event_flag_set
 .text.bearer_event_sequential_add
                0x0001d570       0x4c mesh/core/libmesh_core_nrf51422_xxAC.a(bearer_event.c.obj)
                0x0001d570                bearer_event_sequential_add
 .text.bearer_event_sequential_post
                0x0001d5bc       0x68 mesh/core/libmesh_core_nrf51422_xxAC.a(bearer_event.c.obj)
                0x0001d5bc                bearer_event_sequential_post
 .text.bearer_event_sequential_pending
                0x0001d624       0x20 mesh/core/libmesh_core_nrf51422_xxAC.a(bearer_event.c.obj)
                0x0001d624                bearer_event_sequential_pending
 .text.header_transfuscate
                0x0001d644       0x58 mesh/core/libmesh_core_nrf51422_xxAC.a(network.c.obj)
 .text.allocate_packet
                0x0001d69c      0x140 mesh/core/libmesh_core_nrf51422_xxAC.a(network.c.obj)
 .text.network_init
                0x0001d7dc       0x2c mesh/core/libmesh_core_nrf51422_xxAC.a(network.c.obj)
                0x0001d7dc                network_init
 .text.network_packet_alloc
                0x0001d808       0x58 mesh/core/libmesh_core_nrf51422_xxAC.a(network.c.obj)
                0x0001d808                network_packet_alloc
 .text.network_packet_send
                0x0001d860      0x154 mesh/core/libmesh_core_nrf51422_xxAC.a(network.c.obj)
                0x0001d860                network_packet_send
 .text.network_packet_in
                0x0001d9b4      0x484 mesh/core/libmesh_core_nrf51422_xxAC.a(network.c.obj)
                0x0001d9b4                network_packet_in
 .text.log_callback_rtt
                0x0001de38       0x28 mesh/core/libmesh_core_nrf51422_xxAC.a(log.c.obj)
                0x0001de38                log_callback_rtt
 .text.log_init
                0x0001de60       0x1c mesh/core/libmesh_core_nrf51422_xxAC.a(log.c.obj)
                0x0001de60                log_init
 .text.log_vprintf
                0x0001de7c       0x1c mesh/core/libmesh_core_nrf51422_xxAC.a(log.c.obj)
                0x0001de7c                log_vprintf
 .text.log_printf
                0x0001de98       0x16 mesh/core/libmesh_core_nrf51422_xxAC.a(log.c.obj)
                0x0001de98                log_printf
 .text.get_area_end
                0x0001deae        0xc mesh/core/libmesh_core_nrf51422_xxAC.a(flash_manager.c.obj)
 *fill*         0x0001deba        0x2 
 .text.handle_matches_filter
                0x0001debc       0x28 mesh/core/libmesh_core_nrf51422_xxAC.a(flash_manager.c.obj)
 .text.get_packet_buffer
                0x0001dee4       0x30 mesh/core/libmesh_core_nrf51422_xxAC.a(flash_manager.c.obj)
 .text.get_entry_action
                0x0001df14       0x30 mesh/core/libmesh_core_nrf51422_xxAC.a(flash_manager.c.obj)
 .text.flash_area_is_blank
                0x0001df44       0x50 mesh/core/libmesh_core_nrf51422_xxAC.a(flash_manager.c.obj)
 .text.flash    0x0001df94       0x1e mesh/core/libmesh_core_nrf51422_xxAC.a(flash_manager.c.obj)
 *fill*         0x0001dfb2        0x2 
 .text.free_packet_buffer
                0x0001dfb4       0x4c mesh/core/libmesh_core_nrf51422_xxAC.a(flash_manager.c.obj)
 .text.reserve_action_buffer
                0x0001e000       0x20 mesh/core/libmesh_core_nrf51422_xxAC.a(flash_manager.c.obj)
 .text.commit_action_buffer
                0x0001e020       0x18 mesh/core/libmesh_core_nrf51422_xxAC.a(flash_manager.c.obj)
 .text.schedule_processing
                0x0001e038       0x10 mesh/core/libmesh_core_nrf51422_xxAC.a(flash_manager.c.obj)
 .text.get_next_entry
                0x0001e048       0x44 mesh/core/libmesh_core_nrf51422_xxAC.a(flash_manager.c.obj)
 .text.get_last_entry.isra.1
                0x0001e08c       0x34 mesh/core/libmesh_core_nrf51422_xxAC.a(flash_manager.c.obj)
 .text.process_action_queue
                0x0001e0c0      0x49c mesh/core/libmesh_core_nrf51422_xxAC.a(flash_manager.c.obj)
 .text.flash_op_ended_callback
                0x0001e55c       0x24 mesh/core/libmesh_core_nrf51422_xxAC.a(flash_manager.c.obj)
 .text.flash_manager_init
                0x0001e580       0x68 mesh/core/libmesh_core_nrf51422_xxAC.a(flash_manager.c.obj)
                0x0001e580                flash_manager_init
 .text.flash_manager_entry_next_get
                0x0001e5e8       0x74 mesh/core/libmesh_core_nrf51422_xxAC.a(flash_manager.c.obj)
                0x0001e5e8                flash_manager_entry_next_get
 .text.flash_manager_entry_alloc
                0x0001e65c       0x88 mesh/core/libmesh_core_nrf51422_xxAC.a(flash_manager.c.obj)
                0x0001e65c                flash_manager_entry_alloc
 .text.flash_manager_entry_commit
                0x0001e6e4       0x10 mesh/core/libmesh_core_nrf51422_xxAC.a(flash_manager.c.obj)
                0x0001e6e4                flash_manager_entry_commit
 .text.flash_manager_entry_invalidate
                0x0001e6f4       0x70 mesh/core/libmesh_core_nrf51422_xxAC.a(flash_manager.c.obj)
                0x0001e6f4                flash_manager_entry_invalidate
 .text.flash_manager_add
                0x0001e764      0x250 mesh/core/libmesh_core_nrf51422_xxAC.a(flash_manager.c.obj)
                0x0001e764                flash_manager_add
 .text.flash_manager_mem_listener_register
                0x0001e9b4       0x48 mesh/core/libmesh_core_nrf51422_xxAC.a(flash_manager.c.obj)
                0x0001e9b4                flash_manager_mem_listener_register
 .text.flash_manager_is_stable
                0x0001e9fc       0x24 mesh/core/libmesh_core_nrf51422_xxAC.a(flash_manager.c.obj)
                0x0001e9fc                flash_manager_is_stable
 .text.flash_manager_on_defrag_end
                0x0001ea20       0x5c mesh/core/libmesh_core_nrf51422_xxAC.a(flash_manager.c.obj)
                0x0001ea20                flash_manager_on_defrag_end
 .text.flash_manager_recovery_page_get
                0x0001ea7c        0x8 mesh/core/libmesh_core_nrf51422_xxAC.a(flash_manager.c.obj)
                0x0001ea7c                flash_manager_recovery_page_get
 .text.beacon_init
                0x0001ea84       0x4c mesh/core/libmesh_core_nrf51422_xxAC.a(beacon.c.obj)
                0x0001ea84                beacon_init
 .text.beacon_create
                0x0001ead0       0x46 mesh/core/libmesh_core_nrf51422_xxAC.a(beacon.c.obj)
                0x0001ead0                beacon_create
 *fill*         0x0001eb16        0x2 
 .text.beacon_tx
                0x0001eb18       0x40 mesh/core/libmesh_core_nrf51422_xxAC.a(beacon.c.obj)
                0x0001eb18                beacon_tx
 .text.beacon_packet_in
                0x0001eb58      0x164 mesh/core/libmesh_core_nrf51422_xxAC.a(beacon.c.obj)
                0x0001eb58                beacon_packet_in
 .text.entry_get
                0x0001ecbc       0x80 mesh/core/libmesh_core_nrf51422_xxAC.a(flash_manager_internal.c.obj)
                0x0001ecbc                entry_get
 .text.adv_tx_complete_callback
                0x0001ed3c       0x50 mesh/core/libmesh_core_nrf51422_xxAC.a(core_tx.c.obj)
 .text.core_tx_init
                0x0001ed8c       0x4c mesh/core/libmesh_core_nrf51422_xxAC.a(core_tx.c.obj)
                0x0001ed8c                core_tx_init
 .text.core_tx_complete_cb_set
                0x0001edd8        0xc mesh/core/libmesh_core_nrf51422_xxAC.a(core_tx.c.obj)
                0x0001edd8                core_tx_complete_cb_set
 .text.core_tx_packet_alloc
                0x0001ede4       0xa4 mesh/core/libmesh_core_nrf51422_xxAC.a(core_tx.c.obj)
                0x0001ede4                core_tx_packet_alloc
 .text.core_tx_packet_send
                0x0001ee88       0x78 mesh/core/libmesh_core_nrf51422_xxAC.a(core_tx.c.obj)
                0x0001ee88                core_tx_packet_send
 .text.core_tx_packet_discard
                0x0001ef00       0x78 mesh/core/libmesh_core_nrf51422_xxAC.a(core_tx.c.obj)
                0x0001ef00                core_tx_packet_discard
 .text.network_beacon_tx_cb
                0x0001ef78       0xf0 mesh/core/libmesh_core_nrf51422_xxAC.a(net_beacon.c.obj)
 .text.net_beacon_init
                0x0001f068       0x5c mesh/core/libmesh_core_nrf51422_xxAC.a(net_beacon.c.obj)
                0x0001f068                net_beacon_init
 .text.net_beacon_packet_in
                0x0001f0c4       0xd8 mesh/core/libmesh_core_nrf51422_xxAC.a(net_beacon.c.obj)
                0x0001f0c4                net_beacon_packet_in
 .text.set_gap_addr_type
                0x0001f19c       0x30 mesh/core/libmesh_core_nrf51422_xxAC.a(advertiser.c.obj)
 .text.tx_complete_event_callback
                0x0001f1cc       0x44 mesh/core/libmesh_core_nrf51422_xxAC.a(advertiser.c.obj)
 .text.broadcast_complete_cb
                0x0001f210       0x68 mesh/core/libmesh_core_nrf51422_xxAC.a(advertiser.c.obj)
 .text.schedule_first_time
                0x0001f278       0x28 mesh/core/libmesh_core_nrf51422_xxAC.a(advertiser.c.obj)
 .text.timeout_event
                0x0001f2a0      0x12c mesh/core/libmesh_core_nrf51422_xxAC.a(advertiser.c.obj)
 .text.advertiser_init
                0x0001f3cc       0x10 mesh/core/libmesh_core_nrf51422_xxAC.a(advertiser.c.obj)
                0x0001f3cc                advertiser_init
 .text.advertiser_enable
                0x0001f3dc       0x2c mesh/core/libmesh_core_nrf51422_xxAC.a(advertiser.c.obj)
                0x0001f3dc                advertiser_enable
 .text.advertiser_packet_alloc
                0x0001f408       0xac mesh/core/libmesh_core_nrf51422_xxAC.a(advertiser.c.obj)
                0x0001f408                advertiser_packet_alloc
 .text.advertiser_packet_send
                0x0001f4b4       0x74 mesh/core/libmesh_core_nrf51422_xxAC.a(advertiser.c.obj)
                0x0001f4b4                advertiser_packet_send
 .text.advertiser_packet_discard
                0x0001f528       0x2c mesh/core/libmesh_core_nrf51422_xxAC.a(advertiser.c.obj)
                0x0001f528                advertiser_packet_discard
 .text.advertiser_interval_set
                0x0001f554       0x68 mesh/core/libmesh_core_nrf51422_xxAC.a(advertiser.c.obj)
                0x0001f554                advertiser_interval_set
 .text.advertiser_address_default_get
                0x0001f5bc       0x30 mesh/core/libmesh_core_nrf51422_xxAC.a(advertiser.c.obj)
                0x0001f5bc                advertiser_address_default_get
 .text.advertiser_instance_init
                0x0001f5ec       0xb4 mesh/core/libmesh_core_nrf51422_xxAC.a(advertiser.c.obj)
                0x0001f5ec                advertiser_instance_init
 .text.action_switch
                0x0001f6a0       0xc4 mesh/core/libmesh_core_nrf51422_xxAC.a(bearer_handler.c.obj)
 .text.bearer_handler_init
                0x0001f764       0x2c mesh/core/libmesh_core_nrf51422_xxAC.a(bearer_handler.c.obj)
                0x0001f764                bearer_handler_init
 .text.bearer_handler_start
                0x0001f790       0x1c mesh/core/libmesh_core_nrf51422_xxAC.a(bearer_handler.c.obj)
                0x0001f790                bearer_handler_start
 .text.bearer_handler_action_enqueue
                0x0001f7ac       0x9c mesh/core/libmesh_core_nrf51422_xxAC.a(bearer_handler.c.obj)
                0x0001f7ac                bearer_handler_action_enqueue
 .text.bearer_handler_action_end
                0x0001f848       0x7c mesh/core/libmesh_core_nrf51422_xxAC.a(bearer_handler.c.obj)
                0x0001f848                bearer_handler_action_end
 .text.bearer_handler_radio_irq_handler
                0x0001f8c4       0x6c mesh/core/libmesh_core_nrf51422_xxAC.a(bearer_handler.c.obj)
                0x0001f8c4                bearer_handler_radio_irq_handler
 .text.bearer_handler_timer_irq_handler
                0x0001f930       0x30 mesh/core/libmesh_core_nrf51422_xxAC.a(bearer_handler.c.obj)
                0x0001f930                bearer_handler_timer_irq_handler
 .text.bearer_handler_on_ts_begin
                0x0001f960       0x4c mesh/core/libmesh_core_nrf51422_xxAC.a(bearer_handler.c.obj)
                0x0001f960                bearer_handler_on_ts_begin
 .text.bearer_handler_on_ts_end
                0x0001f9ac       0x50 mesh/core/libmesh_core_nrf51422_xxAC.a(bearer_handler.c.obj)
                0x0001f9ac                bearer_handler_on_ts_end
 .text.radio_irq_handler
                0x0001f9fc       0xbc mesh/core/libmesh_core_nrf51422_xxAC.a(broadcast.c.obj)
 .text.broadcast_start
                0x0001fab8       0x98 mesh/core/libmesh_core_nrf51422_xxAC.a(broadcast.c.obj)
 .text.broadcast_send
                0x0001fb50       0x80 mesh/core/libmesh_core_nrf51422_xxAC.a(broadcast.c.obj)
                0x0001fb50                broadcast_send
 .text.radio_config_reset
                0x0001fbd0       0x48 mesh/core/libmesh_core_nrf51422_xxAC.a(radio_config.c.obj)
                0x0001fbd0                radio_config_reset
 .text.radio_config_channel_set
                0x0001fc18       0x3c mesh/core/libmesh_core_nrf51422_xxAC.a(radio_config.c.obj)
                0x0001fc18                radio_config_channel_set
 .text.radio_config_config
                0x0001fc54       0xb0 mesh/core/libmesh_core_nrf51422_xxAC.a(radio_config.c.obj)
                0x0001fc54                radio_config_config
 .text.radio_config_access_addr_set
                0x0001fd04       0x74 mesh/core/libmesh_core_nrf51422_xxAC.a(radio_config.c.obj)
                0x0001fd04                radio_config_access_addr_set
 .text.radio_trigger
                0x0001fd78       0x24 mesh/core/libmesh_core_nrf51422_xxAC.a(scanner.c.obj)
 .text.scan_window_end
                0x0001fd9c       0x14 mesh/core/libmesh_core_nrf51422_xxAC.a(scanner.c.obj)
 .text.scan_window_start
                0x0001fdb0       0x28 mesh/core/libmesh_core_nrf51422_xxAC.a(scanner.c.obj)
 .text.radio_configure
                0x0001fdd8       0x88 mesh/core/libmesh_core_nrf51422_xxAC.a(scanner.c.obj)
 .text.radio_set_packet
                0x0001fe60       0x58 mesh/core/libmesh_core_nrf51422_xxAC.a(scanner.c.obj)
 .text.radio_start
                0x0001feb8       0x54 mesh/core/libmesh_core_nrf51422_xxAC.a(scanner.c.obj)
 .text.radio_stop
                0x0001ff0c       0x38 mesh/core/libmesh_core_nrf51422_xxAC.a(scanner.c.obj)
 .text.schedule_timers
                0x0001ff44       0x34 mesh/core/libmesh_core_nrf51422_xxAC.a(scanner.c.obj)
 .text.scanner_radio_start
                0x0001ff78       0x28 mesh/core/libmesh_core_nrf51422_xxAC.a(scanner.c.obj)
                0x0001ff78                scanner_radio_start
 .text.scanner_radio_stop
                0x0001ffa0       0x14 mesh/core/libmesh_core_nrf51422_xxAC.a(scanner.c.obj)
                0x0001ffa0                scanner_radio_stop
 .text.scanner_radio_irq_handler
                0x0001ffb4      0x124 mesh/core/libmesh_core_nrf51422_xxAC.a(scanner.c.obj)
                0x0001ffb4                scanner_radio_irq_handler
 .text.scanner_enable
                0x000200d8       0x34 mesh/core/libmesh_core_nrf51422_xxAC.a(scanner.c.obj)
                0x000200d8                scanner_enable
 .text.scanner_packet_release
                0x0002010c       0x38 mesh/core/libmesh_core_nrf51422_xxAC.a(scanner.c.obj)
                0x0002010c                scanner_packet_release
 .text.scanner_rx
                0x00020144       0x34 mesh/core/libmesh_core_nrf51422_xxAC.a(scanner.c.obj)
                0x00020144                scanner_rx
 .text.scanner_config_scan_time_set
                0x00020178       0x6c mesh/core/libmesh_core_nrf51422_xxAC.a(scanner.c.obj)
                0x00020178                scanner_config_scan_time_set
 .text.scanner_config_channels_set
                0x000201e4       0x68 mesh/core/libmesh_core_nrf51422_xxAC.a(scanner.c.obj)
                0x000201e4                scanner_config_channels_set
 .text.scanner_config_access_addresses_set
                0x0002024c       0x44 mesh/core/libmesh_core_nrf51422_xxAC.a(scanner.c.obj)
                0x0002024c                scanner_config_access_addresses_set
 .text.scanner_config_reset
                0x00020290       0x44 mesh/core/libmesh_core_nrf51422_xxAC.a(scanner.c.obj)
                0x00020290                scanner_config_reset
 .text.scanner_init
                0x000202d4       0x48 mesh/core/libmesh_core_nrf51422_xxAC.a(scanner.c.obj)
                0x000202d4                scanner_init
 .text.internal_event_push
                0x0002031c       0x30 mesh/core/libmesh_core_nrf51422_xxAC.a(internal_event.c.obj)
                0x0002031c                internal_event_push
 .text.nrf_mesh_configure_device_uuid_reset
                0x0002034c       0x28 mesh/core/libmesh_core_nrf51422_xxAC.a(nrf_mesh_configure.c.obj)
                0x0002034c                nrf_mesh_configure_device_uuid_reset
 .text.msg_cache_init
                0x00020374       0x28 mesh/core/libmesh_core_nrf51422_xxAC.a(msg_cache.c.obj)
                0x00020374                msg_cache_init
 .text.msg_cache_entry_exists
                0x0002039c       0x40 mesh/core/libmesh_core_nrf51422_xxAC.a(msg_cache.c.obj)
                0x0002039c                msg_cache_entry_exists
 .text.msg_cache_entry_add
                0x000203dc       0x2c mesh/core/libmesh_core_nrf51422_xxAC.a(msg_cache.c.obj)
                0x000203dc                msg_cache_entry_add
 .text.block_ack_full
                0x00020408       0x2c mesh/core/libmesh_core_nrf51422_xxAC.a(transport.c.obj)
 .text.seqauth_sequence_number_get
                0x00020434       0x18 mesh/core/libmesh_core_nrf51422_xxAC.a(transport.c.obj)
 .text.sar_rx_session_mark_as_handled
                0x0002044c       0x54 mesh/core/libmesh_core_nrf51422_xxAC.a(transport.c.obj)
 .text.sar_ctx_find
                0x000204a0       0x40 mesh/core/libmesh_core_nrf51422_xxAC.a(transport.c.obj)
 .text.m_send_sar_cancel_event
                0x000204e0       0x26 mesh/core/libmesh_core_nrf51422_xxAC.a(transport.c.obj)
 *fill*         0x00020506        0x2 
 .text.tx_complete
                0x00020508       0x30 mesh/core/libmesh_core_nrf51422_xxAC.a(transport.c.obj)
 .text.upper_trs_packet_alloc
                0x00020538       0x30 mesh/core/libmesh_core_nrf51422_xxAC.a(transport.c.obj)
 .text.upper_trs_packet_encrypt
                0x00020568       0xc4 mesh/core/libmesh_core_nrf51422_xxAC.a(transport.c.obj)
 .text.sar_ctx_free
                0x0002062c       0x38 mesh/core/libmesh_core_nrf51422_xxAC.a(transport.c.obj)
 .text.sar_ctx_tx_complete
                0x00020664       0x3c mesh/core/libmesh_core_nrf51422_xxAC.a(transport.c.obj)
 .text.sar_ctx_cancel
                0x000206a0      0x110 mesh/core/libmesh_core_nrf51422_xxAC.a(transport.c.obj)
 .text.abort_timeout
                0x000207b0        0xc mesh/core/libmesh_core_nrf51422_xxAC.a(transport.c.obj)
 .text.sar_ctx_alloc
                0x000207bc       0xc4 mesh/core/libmesh_core_nrf51422_xxAC.a(transport.c.obj)
 .text.test_transport_decrypt
                0x00020880       0x90 mesh/core/libmesh_core_nrf51422_xxAC.a(transport.c.obj)
 .text.upper_transport_access_packet_in
                0x00020910      0x290 mesh/core/libmesh_core_nrf51422_xxAC.a(transport.c.obj)
 .text.trs_packet_header_build
                0x00020ba0       0x96 mesh/core/libmesh_core_nrf51422_xxAC.a(transport.c.obj)
 *fill*         0x00020c36        0x2 
 .text.trs_sar_packet_out
                0x00020c38       0xc4 mesh/core/libmesh_core_nrf51422_xxAC.a(transport.c.obj)
 .text.retry_timeout
                0x00020cfc       0x54 mesh/core/libmesh_core_nrf51422_xxAC.a(transport.c.obj)
 .text.sar_ack_send
                0x00020d50      0x11c mesh/core/libmesh_core_nrf51422_xxAC.a(transport.c.obj)
 .text.ack_timeout
                0x00020e6c       0x3c mesh/core/libmesh_core_nrf51422_xxAC.a(transport.c.obj)
 .text.tx_retry_timer_reset
                0x00020ea8       0x50 mesh/core/libmesh_core_nrf51422_xxAC.a(transport.c.obj)
 .text.upper_transport_packet_in
                0x00020ef8      0x174 mesh/core/libmesh_core_nrf51422_xxAC.a(transport.c.obj)
 .text.transport_sar_process
                0x0002106c       0x78 mesh/core/libmesh_core_nrf51422_xxAC.a(transport.c.obj)
 .text.transport_sar_mem_funcs_reset
                0x000210e4       0x2c mesh/core/libmesh_core_nrf51422_xxAC.a(transport.c.obj)
                0x000210e4                transport_sar_mem_funcs_reset
 .text.transport_init
                0x00021110       0x74 mesh/core/libmesh_core_nrf51422_xxAC.a(transport.c.obj)
                0x00021110                transport_init
 .text.transport_packet_in
                0x00021184      0x4f0 mesh/core/libmesh_core_nrf51422_xxAC.a(transport.c.obj)
                0x00021184                transport_packet_in
 .text.m_adjust_desired_packet_length
                0x00021674       0x34 mesh/core/libmesh_core_nrf51422_xxAC.a(packet_buffer.c.obj)
 .text.m_index_increment.part.0
                0x000216a8       0x18 mesh/core/libmesh_core_nrf51422_xxAC.a(packet_buffer.c.obj)
 .text.m_free_popped_packet
                0x000216c0       0x64 mesh/core/libmesh_core_nrf51422_xxAC.a(packet_buffer.c.obj)
 .text.free_skipped_packets
                0x00021724       0x1c mesh/core/libmesh_core_nrf51422_xxAC.a(packet_buffer.c.obj)
 .text.packet_buffer_init
                0x00021740       0xe0 mesh/core/libmesh_core_nrf51422_xxAC.a(packet_buffer.c.obj)
                0x00021740                packet_buffer_init
 .text.packet_buffer_reserve
                0x00021820      0x11c mesh/core/libmesh_core_nrf51422_xxAC.a(packet_buffer.c.obj)
                0x00021820                packet_buffer_reserve
 .text.packet_buffer_commit
                0x0002193c      0x10c mesh/core/libmesh_core_nrf51422_xxAC.a(packet_buffer.c.obj)
                0x0002193c                packet_buffer_commit
 .text.packet_buffer_pop
                0x00021a48       0x64 mesh/core/libmesh_core_nrf51422_xxAC.a(packet_buffer.c.obj)
                0x00021a48                packet_buffer_pop
 .text.packet_buffer_can_pop
                0x00021aac       0x2c mesh/core/libmesh_core_nrf51422_xxAC.a(packet_buffer.c.obj)
                0x00021aac                packet_buffer_can_pop
 .text.packet_buffer_packets_ready_to_pop
                0x00021ad8       0x58 mesh/core/libmesh_core_nrf51422_xxAC.a(packet_buffer.c.obj)
                0x00021ad8                packet_buffer_packets_ready_to_pop
 .text.packet_buffer_free
                0x00021b30       0x94 mesh/core/libmesh_core_nrf51422_xxAC.a(packet_buffer.c.obj)
                0x00021b30                packet_buffer_free
 .text.get_last_page
                0x00021bc4       0x14 mesh/core/libmesh_core_nrf51422_xxAC.a(flash_manager_defrag.c.obj)
 .text.defrag_on_end
                0x00021bd8       0x1c mesh/core/libmesh_core_nrf51422_xxAC.a(flash_manager_defrag.c.obj)
 .text.execute_procedure_step
                0x00021bf4       0xac mesh/core/libmesh_core_nrf51422_xxAC.a(flash_manager_defrag.c.obj)
 .text.get_next_entry
                0x00021ca0       0x44 mesh/core/libmesh_core_nrf51422_xxAC.a(flash_manager_defrag.c.obj)
 .text.get_next_data_entry
                0x00021ce4       0x24 mesh/core/libmesh_core_nrf51422_xxAC.a(flash_manager_defrag.c.obj)
 .text.on_flash_op_end
                0x00021d08       0x34 mesh/core/libmesh_core_nrf51422_xxAC.a(flash_manager_defrag.c.obj)
 .text.check_for_invalid_entries
                0x00021d3c       0x3c mesh/core/libmesh_core_nrf51422_xxAC.a(flash_manager_defrag.c.obj)
 .text.erase_recovery_area
                0x00021d78       0x30 mesh/core/libmesh_core_nrf51422_xxAC.a(flash_manager_defrag.c.obj)
 .text.flash.constprop.6
                0x00021da8       0x20 mesh/core/libmesh_core_nrf51422_xxAC.a(flash_manager_defrag.c.obj)
 .text.seal_storage_page
                0x00021dc8       0x58 mesh/core/libmesh_core_nrf51422_xxAC.a(flash_manager_defrag.c.obj)
 .text.invalidate_duplicate_entries
                0x00021e20       0x88 mesh/core/libmesh_core_nrf51422_xxAC.a(flash_manager_defrag.c.obj)
 .text.copy_metadata
                0x00021ea8       0x40 mesh/core/libmesh_core_nrf51422_xxAC.a(flash_manager_defrag.c.obj)
 .text.write_defrag_start_pointer
                0x00021ee8       0x20 mesh/core/libmesh_core_nrf51422_xxAC.a(flash_manager_defrag.c.obj)
 .text.write_back
                0x00021f08       0x2c mesh/core/libmesh_core_nrf51422_xxAC.a(flash_manager_defrag.c.obj)
 .text.post_process
                0x00021f34       0x44 mesh/core/libmesh_core_nrf51422_xxAC.a(flash_manager_defrag.c.obj)
 .text.backup_entries
                0x00021f78      0x128 mesh/core/libmesh_core_nrf51422_xxAC.a(flash_manager_defrag.c.obj)
 .text.erase_source
                0x000220a0       0x30 mesh/core/libmesh_core_nrf51422_xxAC.a(flash_manager_defrag.c.obj)
 .text.flash_manager_defrag_init
                0x000220d0       0xa0 mesh/core/libmesh_core_nrf51422_xxAC.a(flash_manager_defrag.c.obj)
                0x000220d0                flash_manager_defrag_init
 .text.flash_manager_defrag_is_running
                0x00022170       0x10 mesh/core/libmesh_core_nrf51422_xxAC.a(flash_manager_defrag.c.obj)
                0x00022170                flash_manager_defrag_is_running
 .text.flash_manager_defrag
                0x00022180       0xdc mesh/core/libmesh_core_nrf51422_xxAC.a(flash_manager_defrag.c.obj)
                0x00022180                flash_manager_defrag
 .text.flash_manager_defrag_recovery_page_get
                0x0002225c        0xc mesh/core/libmesh_core_nrf51422_xxAC.a(flash_manager_defrag.c.obj)
                0x0002225c                flash_manager_defrag_recovery_page_get
 .text.fifo_init
                0x00022268       0x5c mesh/core/libmesh_core_nrf51422_xxAC.a(fifo.c.obj)
                0x00022268                fifo_init
 .text.fifo_push
                0x000222c4       0x5c mesh/core/libmesh_core_nrf51422_xxAC.a(fifo.c.obj)
                0x000222c4                fifo_push
 .text.fifo_pop
                0x00022320       0x5c mesh/core/libmesh_core_nrf51422_xxAC.a(fifo.c.obj)
                0x00022320                fifo_pop
 .text.packet_mgr_init
                0x0002237c       0x54 mesh/core/libmesh_core_nrf51422_xxAC.a(packet_mgr.c.obj)
                0x0002237c                packet_mgr_init
 .text.send_end_events
                0x000223d0       0x80 mesh/core/libmesh_core_nrf51422_xxAC.a(mesh_flash.c.obj)
 .text.flash_op_schedule
                0x00022450       0xa0 mesh/core/libmesh_core_nrf51422_xxAC.a(mesh_flash.c.obj)
 .text.flash_op_start
                0x000224f0      0x178 mesh/core/libmesh_core_nrf51422_xxAC.a(mesh_flash.c.obj)
 .text.mesh_flash_init
                0x00022668       0x94 mesh/core/libmesh_core_nrf51422_xxAC.a(mesh_flash.c.obj)
                0x00022668                mesh_flash_init
 .text.mesh_flash_user_callback_set
                0x000226fc       0x30 mesh/core/libmesh_core_nrf51422_xxAC.a(mesh_flash.c.obj)
                0x000226fc                mesh_flash_user_callback_set
 .text.mesh_flash_op_push
                0x0002272c      0x140 mesh/core/libmesh_core_nrf51422_xxAC.a(mesh_flash.c.obj)
                0x0002272c                mesh_flash_op_push
 .text.queue_init
                0x0002286c       0x24 mesh/core/libmesh_core_nrf51422_xxAC.a(queue.c.obj)
                0x0002286c                queue_init
 .text.queue_push
                0x00022890       0x54 mesh/core/libmesh_core_nrf51422_xxAC.a(queue.c.obj)
                0x00022890                queue_push
 .text.queue_pop
                0x000228e4       0x3c mesh/core/libmesh_core_nrf51422_xxAC.a(queue.c.obj)
                0x000228e4                queue_pop
 .text.queue_peek
                0x00022920       0x20 mesh/core/libmesh_core_nrf51422_xxAC.a(queue.c.obj)
                0x00022920                queue_peek
 .text.enc_aes_encrypt
                0x00022940        0x8 mesh/core/libmesh_core_nrf51422_xxAC.a(enc.c.obj)
                0x00022940                enc_aes_encrypt
 .text.enc_aes_cmac
                0x00022948        0x8 mesh/core/libmesh_core_nrf51422_xxAC.a(enc.c.obj)
                0x00022948                enc_aes_cmac
 .text.enc_aes_ccm_encrypt
                0x00022950        0x8 mesh/core/libmesh_core_nrf51422_xxAC.a(enc.c.obj)
                0x00022950                enc_aes_ccm_encrypt
 .text.enc_aes_ccm_decrypt
                0x00022958        0x8 mesh/core/libmesh_core_nrf51422_xxAC.a(enc.c.obj)
                0x00022958                enc_aes_ccm_decrypt
 .text.enc_nonce_generate
                0x00022960       0xd8 mesh/core/libmesh_core_nrf51422_xxAC.a(enc.c.obj)
                0x00022960                enc_nonce_generate
 .text.enc_s1   0x00022a38       0x3c mesh/core/libmesh_core_nrf51422_xxAC.a(enc.c.obj)
                0x00022a38                enc_s1
 .text.stage_get_available
                0x00022a74       0x26 mesh/core/libmesh_core_nrf51422_xxAC.a(msqueue.c.obj)
 *fill*         0x00022a9a        0x2 
 .text.msq_get  0x00022a9c       0x54 mesh/core/libmesh_core_nrf51422_xxAC.a(msqueue.c.obj)
                0x00022a9c                msq_get
 .text.msq_move
                0x00022af0       0x4c mesh/core/libmesh_core_nrf51422_xxAC.a(msqueue.c.obj)
                0x00022af0                msq_move
 .text.msq_reset
                0x00022b3c       0x30 mesh/core/libmesh_core_nrf51422_xxAC.a(msqueue.c.obj)
                0x00022b3c                msq_reset
 .text.msq_init
                0x00022b6c       0x88 mesh/core/libmesh_core_nrf51422_xxAC.a(msqueue.c.obj)
                0x00022b6c                msq_init
 .text.msq_available
                0x00022bf4       0x40 mesh/core/libmesh_core_nrf51422_xxAC.a(msqueue.c.obj)
                0x00022bf4                msq_available
 .text.utils_xor
                0x00022c34       0x16 mesh/core/libmesh_core_nrf51422_xxAC.a(ccm_soft.c.obj)
 .text.ccm_soft_authenticate_blocks
                0x00022c4a       0x66 mesh/core/libmesh_core_nrf51422_xxAC.a(ccm_soft.c.obj)
 .text.utils_reverse_memcpy.constprop.0
                0x00022cb0        0xa mesh/core/libmesh_core_nrf51422_xxAC.a(ccm_soft.c.obj)
 .text.ccm_soft_authenticate
                0x00022cba       0x94 mesh/core/libmesh_core_nrf51422_xxAC.a(ccm_soft.c.obj)
 .text.ccm_soft_crypt
                0x00022d4e       0x58 mesh/core/libmesh_core_nrf51422_xxAC.a(ccm_soft.c.obj)
 .text.ccm_soft_encrypt
                0x00022da6       0x6e mesh/core/libmesh_core_nrf51422_xxAC.a(ccm_soft.c.obj)
                0x00022da6                ccm_soft_encrypt
 .text.ccm_soft_decrypt
                0x00022e14      0x10c mesh/core/libmesh_core_nrf51422_xxAC.a(ccm_soft.c.obj)
                0x00022e14                ccm_soft_decrypt
 .text.replay_cache_add
                0x00022f20       0x68 mesh/core/libmesh_core_nrf51422_xxAC.a(replay_cache.c.obj)
                0x00022f20                replay_cache_add
 .text.replay_cache_has_room
                0x00022f88       0x38 mesh/core/libmesh_core_nrf51422_xxAC.a(replay_cache.c.obj)
                0x00022f88                replay_cache_has_room
 .text.replay_cache_has_elem
                0x00022fc0       0x38 mesh/core/libmesh_core_nrf51422_xxAC.a(replay_cache.c.obj)
                0x00022fc0                replay_cache_has_elem
 .text.replay_cache_clear
                0x00022ff8       0x28 mesh/core/libmesh_core_nrf51422_xxAC.a(replay_cache.c.obj)
                0x00022ff8                replay_cache_clear
 .text.replay_cache_init
                0x00023020        0x8 mesh/core/libmesh_core_nrf51422_xxAC.a(replay_cache.c.obj)
                0x00023020                replay_cache_init
 .text.fen_filters_apply
                0x00023028       0x34 mesh/core/libmesh_core_nrf51422_xxAC.a(filter_engine.c.obj)
                0x00023028                fen_filters_apply
 .text.sd_ecb_block_encrypt
                0x0002305c        0x4 mesh/core/libmesh_core_nrf51422_xxAC.a(aes.c.obj)
 .text.aes_encrypt
                0x00023060       0x30 mesh/core/libmesh_core_nrf51422_xxAC.a(aes.c.obj)
                0x00023060                aes_encrypt
 .text.wait_for_ready
                0x00023090       0x14 mesh/core/libmesh_core_nrf51422_xxAC.a(nrf_flash.c.obj)
 .text.nrf_flash_erase
                0x000230a4       0x58 mesh/core/libmesh_core_nrf51422_xxAC.a(nrf_flash.c.obj)
                0x000230a4                nrf_flash_erase
 .text.nrf_flash_write
                0x000230fc       0x5c mesh/core/libmesh_core_nrf51422_xxAC.a(nrf_flash.c.obj)
                0x000230fc                nrf_flash_write
 .text.my_xor.constprop.1
                0x00023158       0x12 mesh/core/libmesh_core_nrf51422_xxAC.a(aes_cmac.c.obj)
 .text.utils_lshift.constprop.2
                0x0002316a       0x18 mesh/core/libmesh_core_nrf51422_xxAC.a(aes_cmac.c.obj)
 *fill*         0x00023182        0x2 
 .text.aes_cmac_subkey_generate
                0x00023184       0x64 mesh/core/libmesh_core_nrf51422_xxAC.a(aes_cmac.c.obj)
                0x00023184                aes_cmac_subkey_generate
 .text.aes_cmac
                0x000231e8       0xc0 mesh/core/libmesh_core_nrf51422_xxAC.a(aes_cmac.c.obj)
                0x000231e8                aes_cmac
 .text._GetAvailWriteSpace
                0x000232a8       0x12 external/rtt/librtt_nrf51422_xxAC.a(SEGGER_RTT.c.obj)
 .text._WriteNoCheck
                0x000232ba       0x38 external/rtt/librtt_nrf51422_xxAC.a(SEGGER_RTT.c.obj)
 .text._WriteBlocking
                0x000232f2       0x5a external/rtt/librtt_nrf51422_xxAC.a(SEGGER_RTT.c.obj)
 .text._DoInit  0x0002334c       0x64 external/rtt/librtt_nrf51422_xxAC.a(SEGGER_RTT.c.obj)
 .text.SEGGER_RTT_WriteNoLock
                0x000233b0       0x6c external/rtt/librtt_nrf51422_xxAC.a(SEGGER_RTT.c.obj)
                0x000233b0                SEGGER_RTT_WriteNoLock
 .text.SEGGER_RTT_Write
                0x0002341c       0x34 external/rtt/librtt_nrf51422_xxAC.a(SEGGER_RTT.c.obj)
                0x0002341c                SEGGER_RTT_Write
 .text._StoreChar
                0x00023450       0x3e external/rtt/librtt_nrf51422_xxAC.a(SEGGER_RTT_printf.c.obj)
 *fill*         0x0002348e        0x2 
 .text._PrintUnsigned
                0x00023490       0xe0 external/rtt/librtt_nrf51422_xxAC.a(SEGGER_RTT_printf.c.obj)
 .text.SEGGER_RTT_vprintf
                0x00023570      0x25c external/rtt/librtt_nrf51422_xxAC.a(SEGGER_RTT_printf.c.obj)
                0x00023570                SEGGER_RTT_vprintf
 .text.SEGGER_RTT_printf
                0x000237cc       0x18 external/rtt/librtt_nrf51422_xxAC.a(SEGGER_RTT_printf.c.obj)
                0x000237cc                SEGGER_RTT_printf
 .text          0x000237e4       0x14 c:/a/gcc_arm/6/bin/../lib/gcc/arm-none-eabi/6.3.1/thumb/v6-m\libgcc.a(_thumb1_case_uqi.o)
                0x000237e4                __gnu_thumb1_case_uqi
 .text          0x000237f8       0x14 c:/a/gcc_arm/6/bin/../lib/gcc/arm-none-eabi/6.3.1/thumb/v6-m\libgcc.a(_thumb1_case_shi.o)
                0x000237f8                __gnu_thumb1_case_shi
 .text          0x0002380c       0x14 c:/a/gcc_arm/6/bin/../lib/gcc/arm-none-eabi/6.3.1/thumb/v6-m\libgcc.a(_thumb1_case_uhi.o)
                0x0002380c                __gnu_thumb1_case_uhi
 .text          0x00023820      0x114 c:/a/gcc_arm/6/bin/../lib/gcc/arm-none-eabi/6.3.1/thumb/v6-m\libgcc.a(_udivsi3.o)
                0x00023820                __aeabi_uidiv
                0x00023820                __udivsi3
                0x0002392c                __aeabi_uidivmod
 .text          0x00023934      0x1d4 c:/a/gcc_arm/6/bin/../lib/gcc/arm-none-eabi/6.3.1/thumb/v6-m\libgcc.a(_divsi3.o)
                0x00023934                __divsi3
                0x00023934                __aeabi_idiv
                0x00023b00                __aeabi_idivmod
 .text          0x00023b08        0x4 c:/a/gcc_arm/6/bin/../lib/gcc/arm-none-eabi/6.3.1/thumb/v6-m\libgcc.a(_dvmd_tls.o)
                0x00023b08                __aeabi_idiv0
                0x00023b08                __aeabi_ldiv0
 .text          0x00023b0c       0x54 c:/a/gcc_arm/6/bin/../lib/gcc/arm-none-eabi/6.3.1/thumb/v6-m\libgcc.a(_muldi3.o)
                0x00023b0c                __muldi3
                0x00023b0c                __aeabi_lmul
 .text.exit     0x00023b60       0x2c c:/a/gcc_arm/6/bin/../lib/gcc/arm-none-eabi/6.3.1/../../../../arm-none-eabi/lib/thumb/v6-m\libc_nano.a(lib_a-exit.o)
                0x00023b60                exit
 .text.__libc_init_array
                0x00023b8c       0x48 c:/a/gcc_arm/6/bin/../lib/gcc/arm-none-eabi/6.3.1/../../../../arm-none-eabi/lib/thumb/v6-m\libc_nano.a(lib_a-init.o)
                0x00023b8c                __libc_init_array
 .text.malloc   0x00023bd4       0x14 c:/a/gcc_arm/6/bin/../lib/gcc/arm-none-eabi/6.3.1/../../../../arm-none-eabi/lib/thumb/v6-m\libc_nano.a(lib_a-malloc.o)
                0x00023bd4                malloc
 .text.free     0x00023be8       0x14 c:/a/gcc_arm/6/bin/../lib/gcc/arm-none-eabi/6.3.1/../../../../arm-none-eabi/lib/thumb/v6-m\libc_nano.a(lib_a-malloc.o)
                0x00023be8                free
 .text.memcmp   0x00023bfc       0x1e c:/a/gcc_arm/6/bin/../lib/gcc/arm-none-eabi/6.3.1/../../../../arm-none-eabi/lib/thumb/v6-m\libc_nano.a(lib_a-memcmp.o)
                0x00023bfc                memcmp
 .text.memcpy   0x00023c1a       0x12 c:/a/gcc_arm/6/bin/../lib/gcc/arm-none-eabi/6.3.1/../../../../arm-none-eabi/lib/thumb/v6-m\libc_nano.a(lib_a-memcpy-stub.o)
                0x00023c1a                memcpy
 .text.memset   0x00023c2c       0x10 c:/a/gcc_arm/6/bin/../lib/gcc/arm-none-eabi/6.3.1/../../../../arm-none-eabi/lib/thumb/v6-m\libc_nano.a(lib_a-memset.o)
                0x00023c2c                memset
 .text._free_r  0x00023c3c       0x94 c:/a/gcc_arm/6/bin/../lib/gcc/arm-none-eabi/6.3.1/../../../../arm-none-eabi/lib/thumb/v6-m\libc_nano.a(lib_a-nano-freer.o)
                0x00023c3c                _free_r
 .text._malloc_r
                0x00023cd0       0xbc c:/a/gcc_arm/6/bin/../lib/gcc/arm-none-eabi/6.3.1/../../../../arm-none-eabi/lib/thumb/v6-m\libc_nano.a(lib_a-nano-mallocr.o)
                0x00023cd0                _malloc_r
 .text._sbrk_r  0x00023d8c       0x24 c:/a/gcc_arm/6/bin/../lib/gcc/arm-none-eabi/6.3.1/../../../../arm-none-eabi/lib/thumb/v6-m\libc_nano.a(lib_a-sbrkr.o)
                0x00023d8c                _sbrk_r
 .text.sprintf  0x00023db0       0x44 c:/a/gcc_arm/6/bin/../lib/gcc/arm-none-eabi/6.3.1/../../../../arm-none-eabi/lib/thumb/v6-m\libc_nano.a(lib_a-sprintf.o)
                0x00023db0                siprintf
                0x00023db0                sprintf
 .text.strcpy   0x00023df4       0x10 c:/a/gcc_arm/6/bin/../lib/gcc/arm-none-eabi/6.3.1/../../../../arm-none-eabi/lib/thumb/v6-m\libc_nano.a(lib_a-strcpy.o)
                0x00023df4                strcpy
 .text.strrchr  0x00023e04       0x24 c:/a/gcc_arm/6/bin/../lib/gcc/arm-none-eabi/6.3.1/../../../../arm-none-eabi/lib/thumb/v6-m\libc_nano.a(lib_a-strrchr.o)
                0x00023e04                strrchr
 .text.__malloc_lock
                0x00023e28        0x2 c:/a/gcc_arm/6/bin/../lib/gcc/arm-none-eabi/6.3.1/../../../../arm-none-eabi/lib/thumb/v6-m\libc_nano.a(lib_a-mlock.o)
                0x00023e28                __malloc_lock
 .text.__malloc_unlock
                0x00023e2a        0x2 c:/a/gcc_arm/6/bin/../lib/gcc/arm-none-eabi/6.3.1/../../../../arm-none-eabi/lib/thumb/v6-m\libc_nano.a(lib_a-mlock.o)
                0x00023e2a                __malloc_unlock
 .text.__ssputs_r
                0x00023e2c       0xc4 c:/a/gcc_arm/6/bin/../lib/gcc/arm-none-eabi/6.3.1/../../../../arm-none-eabi/lib/thumb/v6-m\libc_nano.a(lib_a-nano-svfprintf.o)
                0x00023e2c                __ssputs_r
 .text._svfprintf_r
                0x00023ef0      0x208 c:/a/gcc_arm/6/bin/../lib/gcc/arm-none-eabi/6.3.1/../../../../arm-none-eabi/lib/thumb/v6-m\libc_nano.a(lib_a-nano-svfprintf.o)
                0x00023ef0                _svfiprintf_r
                0x00023ef0                _svfprintf_r
 .text._printf_common
                0x000240f8       0xda c:/a/gcc_arm/6/bin/../lib/gcc/arm-none-eabi/6.3.1/../../../../arm-none-eabi/lib/thumb/v6-m\libc_nano.a(lib_a-nano-vfprintf_i.o)
                0x000240f8                _printf_common
 *fill*         0x000241d2        0x2 
 .text._printf_i
                0x000241d4      0x234 c:/a/gcc_arm/6/bin/../lib/gcc/arm-none-eabi/6.3.1/../../../../arm-none-eabi/lib/thumb/v6-m\libc_nano.a(lib_a-nano-vfprintf_i.o)
                0x000241d4                _printf_i
 .text.strchr   0x00024408       0x1c c:/a/gcc_arm/6/bin/../lib/gcc/arm-none-eabi/6.3.1/../../../../arm-none-eabi/lib/thumb/v6-m\libc_nano.a(lib_a-strchr.o)
                0x00024408                strchr
 .text.memchr   0x00024424       0x16 c:/a/gcc_arm/6/bin/../lib/gcc/arm-none-eabi/6.3.1/../../../../arm-none-eabi/lib/thumb/v6-m\libc_nano.a(lib_a-memchr-stub.o)
                0x00024424                memchr
 .text.memmove  0x0002443a       0x24 c:/a/gcc_arm/6/bin/../lib/gcc/arm-none-eabi/6.3.1/../../../../arm-none-eabi/lib/thumb/v6-m\libc_nano.a(lib_a-memmove.o)
                0x0002443a                memmove
 .text._realloc_r
                0x0002445e       0x4c c:/a/gcc_arm/6/bin/../lib/gcc/arm-none-eabi/6.3.1/../../../../arm-none-eabi/lib/thumb/v6-m\libc_nano.a(lib_a-nano-reallocr.o)
                0x0002445e                _realloc_r
 .text._malloc_usable_size_r
                0x000244aa       0x10 c:/a/gcc_arm/6/bin/../lib/gcc/arm-none-eabi/6.3.1/../../../../arm-none-eabi/lib/thumb/v6-m\libc_nano.a(lib_a-nano-msizer.o)
                0x000244aa                _malloc_usable_size_r
 *fill*         0x000244ba        0x2 
 .text._sbrk    0x000244bc       0x1c c:/a/gcc_arm/6/bin/../lib/gcc/arm-none-eabi/6.3.1/../../../../arm-none-eabi/lib/thumb/v6-m\libnosys.a(sbrk.o)
                0x000244bc                _sbrk
 .text._exit    0x000244d8        0x4 c:/a/gcc_arm/6/bin/../lib/gcc/arm-none-eabi/6.3.1/../../../../arm-none-eabi/lib/thumb/v6-m\libnosys.a(_exit.o)
                0x000244d8                _exit
 *(.init)
 .init          0x000244dc        0x4 c:/a/gcc_arm/6/bin/../lib/gcc/arm-none-eabi/6.3.1/thumb/v6-m/crti.o
                0x000244dc                _init
 .init          0x000244e0        0x8 c:/a/gcc_arm/6/bin/../lib/gcc/arm-none-eabi/6.3.1/thumb/v6-m/crtn.o
 *(.fini)
 .fini          0x000244e8        0x4 c:/a/gcc_arm/6/bin/../lib/gcc/arm-none-eabi/6.3.1/thumb/v6-m/crti.o
                0x000244e8                _fini
 .fini          0x000244ec        0x8 c:/a/gcc_arm/6/bin/../lib/gcc/arm-none-eabi/6.3.1/thumb/v6-m/crtn.o
 *crtbegin.o(.ctors)
 *crtbegin?.o(.ctors)
 *(EXCLUDE_FILE(*crtend.o *crtend?.o) .ctors)
 *(SORT(.ctors.*))
 *(.ctors)
 *crtbegin.o(.dtors)
 *crtbegin?.o(.dtors)
 *(EXCLUDE_FILE(*crtend.o *crtend?.o) .dtors)
 *(SORT(.dtors.*))
 *(.dtors)
 *(.rodata*)
 .rodata.adv_data.8404
                0x000244f4       0x12 examples/beaconing/CMakeFiles/beaconing_nrf51422_xxAC_s130_2.0.1.dir/src/main.c.obj
 .rodata.main.str1.1
                0x00024506       0x45 examples/beaconing/CMakeFiles/beaconing_nrf51422_xxAC_s130_2.0.1.dir/src/main.c.obj
 .rodata.rx_callback.str1.1
                0x0002454b       0x70 examples/beaconing/CMakeFiles/beaconing_nrf51422_xxAC_s130_2.0.1.dir/src/main.c.obj
 .rodata.HardFault_Handler.str1.1
                0x000245bb        0xe examples/beaconing/CMakeFiles/beaconing_nrf51422_xxAC_s130_2.0.1.dir/__/nrf_mesh_sdk.c.obj
 .rodata.app_error_handler.str1.1
                0x000245c9       0x1d examples/beaconing/CMakeFiles/beaconing_nrf51422_xxAC_s130_2.0.1.dir/__/nrf_mesh_sdk.c.obj
 .rodata.mesh_assert_handler.str1.1
                0x000245e6       0x34 examples/beaconing/CMakeFiles/beaconing_nrf51422_xxAC_s130_2.0.1.dir/__/nrf_mesh_sdk.c.obj
 .rodata.mesh_core_setup.str1.1
                0x0002461a       0x47 examples/beaconing/CMakeFiles/beaconing_nrf51422_xxAC_s130_2.0.1.dir/__/nrf_mesh_sdk.c.obj
 .rodata.mesh_softdevice_enable.str1.1
                0x00024661       0x65 examples/beaconing/CMakeFiles/beaconing_nrf51422_xxAC_s130_2.0.1.dir/__/nrf_mesh_sdk.c.obj
 .rodata.softdevice_assert_handler.str1.1
                0x000246c6       0x1d examples/beaconing/CMakeFiles/beaconing_nrf51422_xxAC_s130_2.0.1.dir/__/nrf_mesh_sdk.c.obj
 .rodata.types_lookup.6415
                0x000246e3        0x4 mesh/core/libmesh_core_nrf51422_xxAC.a(nrf_mesh_utils.c.obj)
 .rodata.nrf_mesh_process.str1.1
                0x000246e7       0x70 mesh/core/libmesh_core_nrf51422_xxAC.a(nrf_mesh.c.obj)
 *fill*         0x00024757        0x1 
 .rodata.CSWTCH.9
                0x00024758       0x10 mesh/core/libmesh_core_nrf51422_xxAC.a(hal.c.obj)
 .rodata.network_packet_in.str1.1
                0x00024768       0x40 mesh/core/libmesh_core_nrf51422_xxAC.a(network.c.obj)
                                 0x48 (size before relaxing)
 .rodata.network_packet_send.str1.1
                0x000247a8       0x49 mesh/core/libmesh_core_nrf51422_xxAC.a(network.c.obj)
 .rodata.log_callback_rtt.str1.1
                0x000247f1       0x15 mesh/core/libmesh_core_nrf51422_xxAC.a(log.c.obj)
 .rodata.str1.1
                0x00024806       0x11 mesh/core/libmesh_core_nrf51422_xxAC.a(log.c.obj)
 *fill*         0x00024817        0x1 
 .rodata.INVALID_HEADER
                0x00024818        0x4 mesh/core/libmesh_core_nrf51422_xxAC.a(flash_manager.c.obj)
                0x00024818                INVALID_HEADER
 .rodata.PADDING_HEADER
                0x0002481c        0x4 mesh/core/libmesh_core_nrf51422_xxAC.a(flash_manager.c.obj)
                0x0002481c                PADDING_HEADER
 .rodata.SEAL_HEADER
                0x00024820        0x4 mesh/core/libmesh_core_nrf51422_xxAC.a(flash_manager.c.obj)
                0x00024820                SEAL_HEADER
 .rodata.process_action_queue.str1.1
                0x00024824       0x21 mesh/core/libmesh_core_nrf51422_xxAC.a(flash_manager.c.obj)
                                 0x4f (size before relaxing)
 .rodata.beacon_packet_in.str1.1
                0x00024845       0x51 mesh/core/libmesh_core_nrf51422_xxAC.a(beacon.c.obj)
                                 0x59 (size before relaxing)
 .rodata.net_beacon_init.str1.1
                0x00024896        0x5 mesh/core/libmesh_core_nrf51422_xxAC.a(net_beacon.c.obj)
 .rodata.radio_mode_to_us_per_byte.6787
                0x0002489b        0x4 mesh/core/libmesh_core_nrf51422_xxAC.a(broadcast.c.obj)
 .rodata.channel_rf_offsets.6049
                0x0002489f       0x28 mesh/core/libmesh_core_nrf51422_xxAC.a(radio_config.c.obj)
 .rodata        0x000248c7        0x3 mesh/core/libmesh_core_nrf51422_xxAC.a(scanner.c.obj)
 .rodata.sar_ctx_cancel.str1.1
                0x000248ca       0x35 mesh/core/libmesh_core_nrf51422_xxAC.a(transport.c.obj)
                                 0x63 (size before relaxing)
 .rodata.test_transport_decrypt.str1.1
                0x000248ff       0x13 mesh/core/libmesh_core_nrf51422_xxAC.a(transport.c.obj)
 .rodata.transport_packet_in.str1.1
                0x00024912       0x24 mesh/core/libmesh_core_nrf51422_xxAC.a(transport.c.obj)
 .rodata.upper_transport_access_packet_in.str1.1
                0x00024936       0x29 mesh/core/libmesh_core_nrf51422_xxAC.a(transport.c.obj)
 .rodata.upper_transport_packet_in.str1.1
                0x0002495f       0x2e mesh/core/libmesh_core_nrf51422_xxAC.a(transport.c.obj)
 .rodata.flash_manager_defrag.str1.1
                0x0002498d       0x28 mesh/core/libmesh_core_nrf51422_xxAC.a(flash_manager_defrag.c.obj)
                                 0x56 (size before relaxing)
 *fill*         0x000249b5        0x3 
 .rodata.m_procedure_steps
                0x000249b8       0x28 mesh/core/libmesh_core_nrf51422_xxAC.a(flash_manager_defrag.c.obj)
 .rodata.m_all_operations
                0x000249e0       0x10 mesh/core/libmesh_core_nrf51422_xxAC.a(mesh_flash.c.obj)
 .rodata.Rb.5039
                0x000249f0       0x10 mesh/core/libmesh_core_nrf51422_xxAC.a(aes_cmac.c.obj)
 .rodata._DoInit.str1.1
                0x00024a00       0x14 external/rtt/librtt_nrf51422_xxAC.a(SEGGER_RTT.c.obj)
 .rodata._aV2C.4374
                0x00024a14       0x10 external/rtt/librtt_nrf51422_xxAC.a(SEGGER_RTT_printf.c.obj)
 .rodata._global_impure_ptr
                0x00024a24        0x4 c:/a/gcc_arm/6/bin/../lib/gcc/arm-none-eabi/6.3.1/../../../../arm-none-eabi/lib/thumb/v6-m\libc_nano.a(lib_a-impure.o)
                0x00024a24                _global_impure_ptr
 .rodata._svfprintf_r.str1.1
                0x00024a28       0x11 c:/a/gcc_arm/6/bin/../lib/gcc/arm-none-eabi/6.3.1/../../../../arm-none-eabi/lib/thumb/v6-m\libc_nano.a(lib_a-nano-svfprintf.o)
 .rodata._printf_i.str1.1
                0x00024a39       0x11 c:/a/gcc_arm/6/bin/../lib/gcc/arm-none-eabi/6.3.1/../../../../arm-none-eabi/lib/thumb/v6-m\libc_nano.a(lib_a-nano-vfprintf_i.o)
                                 0x22 (size before relaxing)
 *(.eh_frame*)
 *fill*         0x00024a4a        0x2 
 .eh_frame      0x00024a4c        0x0 c:/a/gcc_arm/6/bin/../lib/gcc/arm-none-eabi/6.3.1/thumb/v6-m/crtbegin.o
 .eh_frame      0x00024a4c        0x4 c:/a/gcc_arm/6/bin/../lib/gcc/arm-none-eabi/6.3.1/thumb/v6-m/crtend.o

.glue_7         0x00024a50        0x0
 .glue_7        0x00024a50        0x0 linker stubs

.glue_7t        0x00024a50        0x0
 .glue_7t       0x00024a50        0x0 linker stubs

.vfp11_veneer   0x00024a50        0x0
 .vfp11_veneer  0x00024a50        0x0 linker stubs

.v4_bx          0x00024a50        0x0
 .v4_bx         0x00024a50        0x0 linker stubs

.iplt           0x00024a50        0x0
 .iplt          0x00024a50        0x0 c:/a/gcc_arm/6/bin/../lib/gcc/arm-none-eabi/6.3.1/thumb/v6-m/crtbegin.o

.ARM.extab
 *(.ARM.extab* .gnu.linkonce.armextab.*)
                0x00024a50                __exidx_start = .

.ARM.exidx      0x00024a50        0x8
 *(.ARM.exidx* .gnu.linkonce.armexidx.*)
 .ARM.exidx     0x00024a50        0x8 c:/a/gcc_arm/6/bin/../lib/gcc/arm-none-eabi/6.3.1/../../../../arm-none-eabi/lib/thumb/v6-m/crt0.o
                0x00024a58                __exidx_end = .
                0x00024a58                __etext = .

.rel.dyn        0x00024a58        0x0
 .rel.iplt      0x00024a58        0x0 c:/a/gcc_arm/6/bin/../lib/gcc/arm-none-eabi/6.3.1/thumb/v6-m/crtbegin.o

.data           0x200022d8       0xb0 load address 0x00024a58
                0x200022d8                __data_start__ = .
 *(vtable)
 *(.data*)
 .data.mem_listener.7315
                0x200022d8       0x10 mesh/core/libmesh_core_nrf51422_xxAC.a(net_state.c.obj)
 .data.mem_listener.7320
                0x200022e8       0x10 mesh/core/libmesh_core_nrf51422_xxAC.a(net_state.c.obj)
 .data.mem_listener.7334
                0x200022f8       0x10 mesh/core/libmesh_core_nrf51422_xxAC.a(net_state.c.obj)
 .data.g_log_debug_level
                0x20002308        0x4 mesh/core/libmesh_core_nrf51422_xxAC.a(log.c.obj)
                0x20002308                g_log_debug_level
 .data.g_log_debug_msk
                0x2000230c        0x4 mesh/core/libmesh_core_nrf51422_xxAC.a(log.c.obj)
                0x2000230c                g_log_debug_msk
 .data.g_log_hex_digits
                0x20002310        0x4 mesh/core/libmesh_core_nrf51422_xxAC.a(log.c.obj)
                0x20002310                g_log_hex_digits
 .data.m_log_callback
                0x20002314        0x4 mesh/core/libmesh_core_nrf51422_xxAC.a(log.c.obj)
                0x20002314                m_log_callback
 .data._impure_ptr
                0x20002318        0x4 c:/a/gcc_arm/6/bin/../lib/gcc/arm-none-eabi/6.3.1/../../../../arm-none-eabi/lib/thumb/v6-m\libc_nano.a(lib_a-impure.o)
                0x20002318                _impure_ptr
 .data.impure_data
                0x2000231c       0x60 c:/a/gcc_arm/6/bin/../lib/gcc/arm-none-eabi/6.3.1/../../../../arm-none-eabi/lib/thumb/v6-m\libc_nano.a(lib_a-impure.o)
                0x2000237c                . = ALIGN (0x4)
                0x2000237c                PROVIDE (__preinit_array_start, .)
 *(.preinit_array)
                0x2000237c                PROVIDE (__preinit_array_end, .)
                0x2000237c                . = ALIGN (0x4)
                0x2000237c                PROVIDE (__init_array_start, .)
 *(SORT(.init_array.*))
 *(.init_array)
 .init_array    0x2000237c        0x4 c:/a/gcc_arm/6/bin/../lib/gcc/arm-none-eabi/6.3.1/thumb/v6-m/crtbegin.o
                0x20002380                PROVIDE (__init_array_end, .)
                0x20002380                . = ALIGN (0x4)
                [!provide]                PROVIDE (__fini_array_start, .)
 *(SORT(.fini_array.*))
 *(.fini_array)
 .fini_array    0x20002380        0x4 c:/a/gcc_arm/6/bin/../lib/gcc/arm-none-eabi/6.3.1/thumb/v6-m/crtbegin.o
                [!provide]                PROVIDE (__fini_array_end, .)
 *(.jcr*)
 .jcr           0x20002384        0x0 c:/a/gcc_arm/6/bin/../lib/gcc/arm-none-eabi/6.3.1/thumb/v6-m/crtbegin.o
 .jcr           0x20002384        0x4 c:/a/gcc_arm/6/bin/../lib/gcc/arm-none-eabi/6.3.1/thumb/v6-m/crtend.o
                0x20002388                . = ALIGN (0x4)
                0x20002388                __data_end__ = .

.igot.plt       0x20002388        0x0 load address 0x00024b08
 .igot.plt      0x20002388        0x0 c:/a/gcc_arm/6/bin/../lib/gcc/arm-none-eabi/6.3.1/thumb/v6-m/crtbegin.o

.bss            0x20002388     0x2ba0 load address 0x00024b08
                0x20002388                . = ALIGN (0x4)
                0x20002388                __bss_start__ = .
 *(.bss*)
 .bss           0x20002388       0x1c c:/a/gcc_arm/6/bin/../lib/gcc/arm-none-eabi/6.3.1/thumb/v6-m/crtbegin.o
 .bss.m_adv_buffer
                0x200023a4       0x80 examples/beaconing/CMakeFiles/beaconing_nrf51422_xxAC_s130_2.0.1.dir/src/main.c.obj
 .bss.m_advertiser
                0x20002424       0x94 examples/beaconing/CMakeFiles/beaconing_nrf51422_xxAC_s130_2.0.1.dir/src/main.c.obj
 .bss.m_ble_evt_buffer
                0x200024b8       0x47 examples/beaconing/CMakeFiles/beaconing_nrf51422_xxAC_s130_2.0.1.dir/__/nrf_mesh_sdk.c.obj
 *fill*         0x200024ff        0x1 
 .bss.m_addr_nonvirtual_allocated
                0x20002500        0x4 examples/beaconing/CMakeFiles/beaconing_nrf51422_xxAC_s130_2.0.1.dir/__/__/mesh/access/src/device_state_manager.c.obj
 .bss.m_addr_unicast_allocated
                0x20002504        0x4 examples/beaconing/CMakeFiles/beaconing_nrf51422_xxAC_s130_2.0.1.dir/__/__/mesh/access/src/device_state_manager.c.obj
 .bss.m_addr_virtual_allocated
                0x20002508        0x4 examples/beaconing/CMakeFiles/beaconing_nrf51422_xxAC_s130_2.0.1.dir/__/__/mesh/access/src/device_state_manager.c.obj
 .bss.m_addresses
                0x2000250c       0x40 examples/beaconing/CMakeFiles/beaconing_nrf51422_xxAC_s130_2.0.1.dir/__/__/mesh/access/src/device_state_manager.c.obj
 .bss.m_appkey_allocated
                0x2000254c        0x4 examples/beaconing/CMakeFiles/beaconing_nrf51422_xxAC_s130_2.0.1.dir/__/__/mesh/access/src/device_state_manager.c.obj
 .bss.m_appkeys
                0x20002550       0xb0 examples/beaconing/CMakeFiles/beaconing_nrf51422_xxAC_s130_2.0.1.dir/__/__/mesh/access/src/device_state_manager.c.obj
 .bss.m_devkeys
                0x20002600       0x16 examples/beaconing/CMakeFiles/beaconing_nrf51422_xxAC_s130_2.0.1.dir/__/__/mesh/access/src/device_state_manager.c.obj
 .bss.m_has_primary_subnet
                0x20002616        0x1 examples/beaconing/CMakeFiles/beaconing_nrf51422_xxAC_s130_2.0.1.dir/__/__/mesh/access/src/device_state_manager.c.obj
 *fill*         0x20002617        0x1 
 .bss.m_local_unicast_addr
                0x20002618        0x4 examples/beaconing/CMakeFiles/beaconing_nrf51422_xxAC_s130_2.0.1.dir/__/__/mesh/access/src/device_state_manager.c.obj
 .bss.m_subnet_allocated
                0x2000261c        0x4 examples/beaconing/CMakeFiles/beaconing_nrf51422_xxAC_s130_2.0.1.dir/__/__/mesh/access/src/device_state_manager.c.obj
 .bss.m_subnets
                0x20002620      0x170 examples/beaconing/CMakeFiles/beaconing_nrf51422_xxAC_s130_2.0.1.dir/__/__/mesh/access/src/device_state_manager.c.obj
 .bss.m_virtual_addresses
                0x20002790       0xa0 examples/beaconing/CMakeFiles/beaconing_nrf51422_xxAC_s130_2.0.1.dir/__/__/mesh/access/src/device_state_manager.c.obj
 .bss.mp_evt_handlers_head
                0x20002830        0x4 mesh/core/libmesh_core_nrf51422_xxAC.a(event.c.obj)
 .bss.lock_count.7374
                0x20002834        0x4 mesh/core/libmesh_core_nrf51422_xxAC.a(net_state.c.obj)
 .bss.m_flash_manager
                0x20002838       0x24 mesh/core/libmesh_core_nrf51422_xxAC.a(net_state.c.obj)
 .bss.m_iv_update_timer
                0x2000285c       0x18 mesh/core/libmesh_core_nrf51422_xxAC.a(net_state.c.obj)
 .bss.m_net_state
                0x20002874       0x14 mesh/core/libmesh_core_nrf51422_xxAC.a(net_state.c.obj)
 .bss.m_seqnum_allocation_in_progress
                0x20002888        0x1 mesh/core/libmesh_core_nrf51422_xxAC.a(net_state.c.obj)
 .bss.m_test_mode
                0x20002889        0x1 mesh/core/libmesh_core_nrf51422_xxAC.a(net_state.c.obj)
 .bss.m_is_enabled
                0x2000288a        0x1 mesh/core/libmesh_core_nrf51422_xxAC.a(nrf_mesh.c.obj)
 .bss.m_is_initialized
                0x2000288b        0x1 mesh/core/libmesh_core_nrf51422_xxAC.a(nrf_mesh.c.obj)
 .bss.m_rx_cb   0x2000288c        0x4 mesh/core/libmesh_core_nrf51422_xxAC.a(nrf_mesh.c.obj)
 .bss.m_event_flag
                0x20002890        0x4 mesh/core/libmesh_core_nrf51422_xxAC.a(timer_scheduler.c.obj)
 .bss.m_scheduler
                0x20002894       0x10 mesh/core/libmesh_core_nrf51422_xxAC.a(timer_scheduler.c.obj)
 .bss.m_attributes
                0x200028a4        0x3 mesh/core/libmesh_core_nrf51422_xxAC.a(timer.c.obj)
 *fill*         0x200028a7        0x1 
 .bss.m_callbacks
                0x200028a8        0xc mesh/core/libmesh_core_nrf51422_xxAC.a(timer.c.obj)
 .bss.m_is_in_ts
                0x200028b4        0x1 mesh/core/libmesh_core_nrf51422_xxAC.a(timer.c.obj)
 *fill*         0x200028b5        0x3 
 .bss.m_reference_time
                0x200028b8        0x4 mesh/core/libmesh_core_nrf51422_xxAC.a(timer.c.obj)
 .bss.m_timeouts
                0x200028bc        0xc mesh/core/libmesh_core_nrf51422_xxAC.a(timer.c.obj)
 .bss.m_timer_mut
                0x200028c8        0x4 mesh/core/libmesh_core_nrf51422_xxAC.a(timer.c.obj)
 .bss.m_ts_end_time
                0x200028cc        0x4 mesh/core/libmesh_core_nrf51422_xxAC.a(timer.c.obj)
 .bss.mp_ppi_tasks
                0x200028d0        0xc mesh/core/libmesh_core_nrf51422_xxAC.a(timer.c.obj)
 .bss.m_current_time
                0x200028dc        0x4 mesh/core/libmesh_core_nrf51422_xxAC.a(ticker.c.obj)
 .bss.m_timer   0x200028e0       0x18 mesh/core/libmesh_core_nrf51422_xxAC.a(ticker.c.obj)
 .bss.m_current_timeslot
                0x200028f8       0x1c mesh/core/libmesh_core_nrf51422_xxAC.a(timeslot.c.obj)
 .bss.m_lfclk_ppm
                0x20002914        0x4 mesh/core/libmesh_core_nrf51422_xxAC.a(timeslot.c.obj)
 .bss.m_radio_request_earliest
                0x20002918       0x10 mesh/core/libmesh_core_nrf51422_xxAC.a(timeslot.c.obj)
 .bss.m_state_lock
                0x20002928        0x1 mesh/core/libmesh_core_nrf51422_xxAC.a(timeslot.c.obj)
 .bss.m_timeslot_forced_command
                0x20002929        0x1 mesh/core/libmesh_core_nrf51422_xxAC.a(timeslot.c.obj)
 *fill*         0x2000292a        0x6 
 .bss.s_last_rtc_value.6639
                0x20002930        0x8 mesh/core/libmesh_core_nrf51422_xxAC.a(timeslot.c.obj)
 .bss.m_bearer_event_fifo
                0x20002938       0x14 mesh/core/libmesh_core_nrf51422_xxAC.a(bearer_event.c.obj)
 .bss.m_bearer_event_fifo_buffer
                0x2000294c      0x100 mesh/core/libmesh_core_nrf51422_xxAC.a(bearer_event.c.obj)
 .bss.m_critical
                0x20002a4c        0x4 mesh/core/libmesh_core_nrf51422_xxAC.a(bearer_event.c.obj)
 .bss.m_flag_count
                0x20002a50        0x4 mesh/core/libmesh_core_nrf51422_xxAC.a(bearer_event.c.obj)
 .bss.m_flag_event_callbacks
                0x20002a54       0x18 mesh/core/libmesh_core_nrf51422_xxAC.a(bearer_event.c.obj)
 .bss.m_flags   0x20002a6c        0x4 mesh/core/libmesh_core_nrf51422_xxAC.a(bearer_event.c.obj)
 .bss.m_sequential_event_queue
                0x20002a70        0x8 mesh/core/libmesh_core_nrf51422_xxAC.a(bearer_event.c.obj)
 .bss.m_relay_check_cb
                0x20002a78        0x4 mesh/core/libmesh_core_nrf51422_xxAC.a(network.c.obj)
 .bss.m_relay_enable
                0x20002a7c        0x1 mesh/core/libmesh_core_nrf51422_xxAC.a(network.c.obj)
 *fill*         0x20002a7d        0x3 
 .bss.m_action_queue
                0x20002a80        0xc mesh/core/libmesh_core_nrf51422_xxAC.a(flash_manager.c.obj)
 .bss.m_action_queue_buffer
                0x20002a8c      0x104 mesh/core/libmesh_core_nrf51422_xxAC.a(flash_manager.c.obj)
 .bss.m_action_state
                0x20002b90        0x1 mesh/core/libmesh_core_nrf51422_xxAC.a(flash_manager.c.obj)
 *fill*         0x20002b91        0x3 
 .bss.m_memory_listener_queue
                0x20002b94        0x8 mesh/core/libmesh_core_nrf51422_xxAC.a(flash_manager.c.obj)
 .bss.m_processing_flag
                0x20002b9c        0x4 mesh/core/libmesh_core_nrf51422_xxAC.a(flash_manager.c.obj)
 .bss.m_state   0x20002ba0        0x1 mesh/core/libmesh_core_nrf51422_xxAC.a(flash_manager.c.obj)
 *fill*         0x20002ba1        0x1 
 .bss.m_token   0x20002ba2        0x2 mesh/core/libmesh_core_nrf51422_xxAC.a(flash_manager.c.obj)
 .bss.p_current.8491
                0x20002ba4        0x4 mesh/core/libmesh_core_nrf51422_xxAC.a(flash_manager.c.obj)
 .bss.result.8492
                0x20002ba8        0x1 mesh/core/libmesh_core_nrf51422_xxAC.a(flash_manager.c.obj)
 *fill*         0x20002ba9        0x3 
 .bss.m_adv_buffer
                0x20002bac       0x68 mesh/core/libmesh_core_nrf51422_xxAC.a(beacon.c.obj)
 .bss.m_advertiser
                0x20002c14       0x94 mesh/core/libmesh_core_nrf51422_xxAC.a(beacon.c.obj)
 .bss.m_adv_tx_count
                0x20002ca8        0x8 mesh/core/libmesh_core_nrf51422_xxAC.a(core_tx.c.obj)
 .bss.m_advertisers
                0x20002cb0      0x128 mesh/core/libmesh_core_nrf51422_xxAC.a(core_tx.c.obj)
 .bss.m_originator_adv_packet_buffer
                0x20002dd8      0x100 mesh/core/libmesh_core_nrf51422_xxAC.a(core_tx.c.obj)
 .bss.m_relay_adv_packet_buffer
                0x20002ed8       0x80 mesh/core/libmesh_core_nrf51422_xxAC.a(core_tx.c.obj)
 .bss.m_tx_complete_callback
                0x20002f58        0x4 mesh/core/libmesh_core_nrf51422_xxAC.a(core_tx.c.obj)
 .bss.m_beacon_salt
                0x20002f5c       0x10 mesh/core/libmesh_core_nrf51422_xxAC.a(net_beacon.c.obj)
 .bss.m_enabled
                0x20002f6c        0x1 mesh/core/libmesh_core_nrf51422_xxAC.a(net_beacon.c.obj)
 *fill*         0x20002f6d        0x3 
 .bss.m_tx_event
                0x20002f70       0x18 mesh/core/libmesh_core_nrf51422_xxAC.a(net_beacon.c.obj)
 .bss.m_adv_prng
                0x20002f88       0x10 mesh/core/libmesh_core_nrf51422_xxAC.a(advertiser.c.obj)
 .bss.m_action_queue
                0x20002f98        0x8 mesh/core/libmesh_core_nrf51422_xxAC.a(bearer_handler.c.obj)
 .bss.m_end_time
                0x20002fa0        0x4 mesh/core/libmesh_core_nrf51422_xxAC.a(bearer_handler.c.obj)
 .bss.m_scanner_is_active
                0x20002fa4        0x1 mesh/core/libmesh_core_nrf51422_xxAC.a(bearer_handler.c.obj)
 .bss.m_stopped
                0x20002fa5        0x1 mesh/core/libmesh_core_nrf51422_xxAC.a(bearer_handler.c.obj)
 *fill*         0x20002fa6        0x2 
 .bss.mp_action
                0x20002fa8        0x4 mesh/core/libmesh_core_nrf51422_xxAC.a(bearer_handler.c.obj)
 .bss.m_next_channel_index
                0x20002fac        0x1 mesh/core/libmesh_core_nrf51422_xxAC.a(broadcast.c.obj)
 *fill*         0x20002fad        0x3 
 .bss.m_scanner
                0x20002fb0      0x284 mesh/core/libmesh_core_nrf51422_xxAC.a(scanner.c.obj)
 .bss.m_internal_event_fifo
                0x20003234       0x14 mesh/core/libmesh_core_nrf51422_xxAC.a(internal_event.c.obj)
 .bss.m_internal_event_initialized
                0x20003248        0x1 mesh/core/libmesh_core_nrf51422_xxAC.a(internal_event.c.obj)
 *fill*         0x20003249        0x3 
 .bss.m_report_cb
                0x2000324c        0x4 mesh/core/libmesh_core_nrf51422_xxAC.a(internal_event.c.obj)
 .bss.m_uuid    0x20003250       0x10 mesh/core/libmesh_core_nrf51422_xxAC.a(nrf_mesh_configure.c.obj)
 .bss.m_msg_cache
                0x20003260      0x100 mesh/core/libmesh_core_nrf51422_xxAC.a(msg_cache.c.obj)
 .bss.m_msg_cache_head
                0x20003360        0x4 mesh/core/libmesh_core_nrf51422_xxAC.a(msg_cache.c.obj)
 .bss.m_sar_alloc
                0x20003364        0x4 mesh/core/libmesh_core_nrf51422_xxAC.a(transport.c.obj)
 .bss.m_sar_process_flag
                0x20003368        0x4 mesh/core/libmesh_core_nrf51422_xxAC.a(transport.c.obj)
 .bss.m_sar_release
                0x2000336c        0x4 mesh/core/libmesh_core_nrf51422_xxAC.a(transport.c.obj)
 .bss.m_sar_session_cache
                0x20003370       0x40 mesh/core/libmesh_core_nrf51422_xxAC.a(transport.c.obj)
 .bss.m_sar_session_cache_head
                0x200033b0        0x4 mesh/core/libmesh_core_nrf51422_xxAC.a(transport.c.obj)
 .bss.m_trs_config
                0x200033b4       0x18 mesh/core/libmesh_core_nrf51422_xxAC.a(transport.c.obj)
 .bss.m_trs_sar_sessions
                0x200033cc      0x1b0 mesh/core/libmesh_core_nrf51422_xxAC.a(transport.c.obj)
 .bss.m_defrag  0x2000357c       0x1c mesh/core/libmesh_core_nrf51422_xxAC.a(flash_manager_defrag.c.obj)
 .bss.m_token   0x20003598        0x2 mesh/core/libmesh_core_nrf51422_xxAC.a(flash_manager_defrag.c.obj)
 *fill*         0x2000359a        0x2 
 .bss.mp_recovery_area
                0x2000359c        0x4 mesh/core/libmesh_core_nrf51422_xxAC.a(flash_manager_defrag.c.obj)
 .bss.p_null_ptr.7544
                0x200035a0        0x4 mesh/core/libmesh_core_nrf51422_xxAC.a(flash_manager_defrag.c.obj)
 .bss.m_pool    0x200035a4     0x1000 mesh/core/libmesh_core_nrf51422_xxAC.a(packet_mgr.c.obj)
 .bss.mp_free_head
                0x200045a4        0x4 mesh/core/libmesh_core_nrf51422_xxAC.a(packet_mgr.c.obj)
 .bss.m_event_flag
                0x200045a8        0x4 mesh/core/libmesh_core_nrf51422_xxAC.a(mesh_flash.c.obj)
 .bss.m_suspended
                0x200045ac        0x1 mesh/core/libmesh_core_nrf51422_xxAC.a(mesh_flash.c.obj)
 *fill*         0x200045ad        0x3 
 .bss.m_users   0x200045b0      0x228 mesh/core/libmesh_core_nrf51422_xxAC.a(mesh_flash.c.obj)
 .bss.m_cache_full
                0x200047d8        0x1 mesh/core/libmesh_core_nrf51422_xxAC.a(replay_cache.c.obj)
 .bss.m_cache_index
                0x200047d9        0x1 mesh/core/libmesh_core_nrf51422_xxAC.a(replay_cache.c.obj)
 *fill*         0x200047da        0x2 
 .bss.m_replay_cache
                0x200047dc      0x200 mesh/core/libmesh_core_nrf51422_xxAC.a(replay_cache.c.obj)
 .bss.m_accepted_amount
                0x200049dc        0x4 mesh/core/libmesh_core_nrf51422_xxAC.a(filter_engine.c.obj)
 .bss.m_filter_list_head
                0x200049e0        0x4 mesh/core/libmesh_core_nrf51422_xxAC.a(filter_engine.c.obj)
 .bss.m_128buf  0x200049e4       0x10 mesh/core/libmesh_core_nrf51422_xxAC.a(aes_cmac.c.obj)
 .bss.m_subkey1
                0x200049f4       0x10 mesh/core/libmesh_core_nrf51422_xxAC.a(aes_cmac.c.obj)
 .bss.m_subkey2
                0x20004a04       0x10 mesh/core/libmesh_core_nrf51422_xxAC.a(aes_cmac.c.obj)
 .bss._acDownBuffer
                0x20004a14       0x80 external/rtt/librtt_nrf51422_xxAC.a(SEGGER_RTT.c.obj)
 .bss._acUpBuffer
                0x20004a94      0x400 external/rtt/librtt_nrf51422_xxAC.a(SEGGER_RTT.c.obj)
 .bss.__malloc_free_list
                0x20004e94        0x4 c:/a/gcc_arm/6/bin/../lib/gcc/arm-none-eabi/6.3.1/../../../../arm-none-eabi/lib/thumb/v6-m\libc_nano.a(lib_a-nano-mallocr.o)
                0x20004e94                __malloc_free_list
 .bss.__malloc_sbrk_start
                0x20004e98        0x4 c:/a/gcc_arm/6/bin/../lib/gcc/arm-none-eabi/6.3.1/../../../../arm-none-eabi/lib/thumb/v6-m\libc_nano.a(lib_a-nano-mallocr.o)
                0x20004e98                __malloc_sbrk_start
 .bss.heap_end.4116
                0x20004e9c        0x4 c:/a/gcc_arm/6/bin/../lib/gcc/arm-none-eabi/6.3.1/../../../../arm-none-eabi/lib/thumb/v6-m\libnosys.a(sbrk.o)
 *(COMMON)
 COMMON         0x20004ea0        0x8 examples/beaconing/CMakeFiles/beaconing_nrf51422_xxAC_s130_2.0.1.dir/__/nrf_mesh_sdk.c.obj
                0x20004ea0                nrf_nvic_state
 COMMON         0x20004ea8        0x4 mesh/core/libmesh_core_nrf51422_xxAC.a(nrf_mesh.c.obj)
                0x20004ea8                m_assertion_handler
 COMMON         0x20004eac       0x78 external/rtt/librtt_nrf51422_xxAC.a(SEGGER_RTT.c.obj)
                0x20004eac                _SEGGER_RTT
 COMMON         0x20004f24        0x4 c:/a/gcc_arm/6/bin/../lib/gcc/arm-none-eabi/6.3.1/../../../../arm-none-eabi/lib/thumb/v6-m\libc_nano.a(lib_a-reent.o)
                0x20004f24                errno
                0x20004f28                . = ALIGN (0x4)
                0x20004f28                __bss_end__ = .

.heap           0x20004f28      0x800
                0x20004f28                __HeapBase = .
                0x20004f28                __end__ = .
                0x20004f28                PROVIDE (end, .)
 *(.heap*)
 .heap          0x20004f28      0x800 examples/beaconing/CMakeFiles/beaconing_nrf51422_xxAC_s130_2.0.1.dir/__/__/external/nRF5_SDK_14.0.0_3bcc1f7/components/toolchain/gcc/gcc_startup_nrf51.S.obj
                0x20005728                __HeapLimit = .

.stack_dummy    0x20004f28      0x800
 *(.stack*)
 .stack         0x20004f28      0x800 examples/beaconing/CMakeFiles/beaconing_nrf51422_xxAC_s130_2.0.1.dir/__/__/external/nRF5_SDK_14.0.0_3bcc1f7/components/toolchain/gcc/gcc_startup_nrf51.S.obj
                0x20007d00                __StackTop = (ORIGIN (RAM) + LENGTH (RAM))
                0x20007500                __StackLimit = (__StackTop - SIZEOF (.stack_dummy))
                0x20007d00                PROVIDE (__stack, __StackTop)
                0x00000001                ASSERT ((__StackLimit >= __HeapLimit), region RAM overflowed with stack)
OUTPUT(examples\beaconing\beaconing_nrf51422_xxAC_s130_2.0.1.elf elf32-littlearm)

.ARM.attributes
                0x00000000       0x28
 .ARM.attributes
                0x00000000       0x1e c:/a/gcc_arm/6/bin/../lib/gcc/arm-none-eabi/6.3.1/thumb/v6-m/crti.o
 .ARM.attributes
                0x0000001e       0x2c c:/a/gcc_arm/6/bin/../lib/gcc/arm-none-eabi/6.3.1/thumb/v6-m/crtbegin.o
 .ARM.attributes
                0x0000004a       0x1b c:/a/gcc_arm/6/bin/../lib/gcc/arm-none-eabi/6.3.1/../../../../arm-none-eabi/lib/thumb/v6-m/crt0.o
 .ARM.attributes
                0x00000065       0x31 examples/beaconing/CMakeFiles/beaconing_nrf51422_xxAC_s130_2.0.1.dir/src/main.c.obj
 .ARM.attributes
                0x00000096       0x31 examples/beaconing/CMakeFiles/beaconing_nrf51422_xxAC_s130_2.0.1.dir/__/nrf_mesh_sdk.c.obj
 .ARM.attributes
                0x000000c7       0x31 examples/beaconing/CMakeFiles/beaconing_nrf51422_xxAC_s130_2.0.1.dir/__/__/mesh/access/src/device_state_manager.c.obj
 .ARM.attributes
                0x000000f8       0x31 examples/beaconing/CMakeFiles/beaconing_nrf51422_xxAC_s130_2.0.1.dir/__/nrf_mesh_weak.c.obj
 .ARM.attributes
                0x00000129       0x31 examples/beaconing/CMakeFiles/beaconing_nrf51422_xxAC_s130_2.0.1.dir/__/__/external/nRF5_SDK_14.0.0_3bcc1f7/components/toolchain/system_nrf51.c.obj
 .ARM.attributes
                0x0000015a       0x1b examples/beaconing/CMakeFiles/beaconing_nrf51422_xxAC_s130_2.0.1.dir/__/__/external/nRF5_SDK_14.0.0_3bcc1f7/components/toolchain/gcc/gcc_startup_nrf51.S.obj
 .ARM.attributes
                0x00000175       0x31 mesh/core/libmesh_core_nrf51422_xxAC.a(event.c.obj)
 .ARM.attributes
                0x000001a6       0x31 mesh/core/libmesh_core_nrf51422_xxAC.a(net_state.c.obj)
 .ARM.attributes
                0x000001d7       0x31 mesh/core/libmesh_core_nrf51422_xxAC.a(nrf_mesh_utils.c.obj)
 .ARM.attributes
                0x00000208       0x31 mesh/core/libmesh_core_nrf51422_xxAC.a(nrf_mesh.c.obj)
 .ARM.attributes
                0x00000239       0x31 mesh/core/libmesh_core_nrf51422_xxAC.a(hal.c.obj)
 .ARM.attributes
                0x0000026a       0x31 mesh/core/libmesh_core_nrf51422_xxAC.a(timer_scheduler.c.obj)
 .ARM.attributes
                0x0000029b       0x31 mesh/core/libmesh_core_nrf51422_xxAC.a(timer.c.obj)
 .ARM.attributes
                0x000002cc       0x31 mesh/core/libmesh_core_nrf51422_xxAC.a(ticker.c.obj)
 .ARM.attributes
                0x000002fd       0x31 mesh/core/libmesh_core_nrf51422_xxAC.a(rand.c.obj)
 .ARM.attributes
                0x0000032e       0x31 mesh/core/libmesh_core_nrf51422_xxAC.a(timeslot.c.obj)
 .ARM.attributes
                0x0000035f       0x31 mesh/core/libmesh_core_nrf51422_xxAC.a(bearer_event.c.obj)
 .ARM.attributes
                0x00000390       0x31 mesh/core/libmesh_core_nrf51422_xxAC.a(network.c.obj)
 .ARM.attributes
                0x000003c1       0x31 mesh/core/libmesh_core_nrf51422_xxAC.a(log.c.obj)
 .ARM.attributes
                0x000003f2       0x31 mesh/core/libmesh_core_nrf51422_xxAC.a(flash_manager.c.obj)
 .ARM.attributes
                0x00000423       0x31 mesh/core/libmesh_core_nrf51422_xxAC.a(beacon.c.obj)
 .ARM.attributes
                0x00000454       0x31 mesh/core/libmesh_core_nrf51422_xxAC.a(flash_manager_internal.c.obj)
 .ARM.attributes
                0x00000485       0x31 mesh/core/libmesh_core_nrf51422_xxAC.a(core_tx.c.obj)
 .ARM.attributes
                0x000004b6       0x31 mesh/core/libmesh_core_nrf51422_xxAC.a(net_beacon.c.obj)
 .ARM.attributes
                0x000004e7       0x31 mesh/core/libmesh_core_nrf51422_xxAC.a(advertiser.c.obj)
 .ARM.attributes
                0x00000518       0x31 mesh/core/libmesh_core_nrf51422_xxAC.a(bearer_handler.c.obj)
 .ARM.attributes
                0x00000549       0x31 mesh/core/libmesh_core_nrf51422_xxAC.a(broadcast.c.obj)
 .ARM.attributes
                0x0000057a       0x31 mesh/core/libmesh_core_nrf51422_xxAC.a(radio_config.c.obj)
 .ARM.attributes
                0x000005ab       0x31 mesh/core/libmesh_core_nrf51422_xxAC.a(scanner.c.obj)
 .ARM.attributes
                0x000005dc       0x31 mesh/core/libmesh_core_nrf51422_xxAC.a(internal_event.c.obj)
 .ARM.attributes
                0x0000060d       0x31 mesh/core/libmesh_core_nrf51422_xxAC.a(nrf_mesh_configure.c.obj)
 .ARM.attributes
                0x0000063e       0x31 mesh/core/libmesh_core_nrf51422_xxAC.a(msg_cache.c.obj)
 .ARM.attributes
                0x0000066f       0x31 mesh/core/libmesh_core_nrf51422_xxAC.a(transport.c.obj)
 .ARM.attributes
                0x000006a0       0x31 mesh/core/libmesh_core_nrf51422_xxAC.a(packet_buffer.c.obj)
 .ARM.attributes
                0x000006d1       0x31 mesh/core/libmesh_core_nrf51422_xxAC.a(flash_manager_defrag.c.obj)
 .ARM.attributes
                0x00000702       0x31 mesh/core/libmesh_core_nrf51422_xxAC.a(fifo.c.obj)
 .ARM.attributes
                0x00000733       0x31 mesh/core/libmesh_core_nrf51422_xxAC.a(packet_mgr.c.obj)
 .ARM.attributes
                0x00000764       0x31 mesh/core/libmesh_core_nrf51422_xxAC.a(mesh_flash.c.obj)
 .ARM.attributes
                0x00000795       0x31 mesh/core/libmesh_core_nrf51422_xxAC.a(queue.c.obj)
 .ARM.attributes
                0x000007c6       0x31 mesh/core/libmesh_core_nrf51422_xxAC.a(enc.c.obj)
 .ARM.attributes
                0x000007f7       0x31 mesh/core/libmesh_core_nrf51422_xxAC.a(msqueue.c.obj)
 .ARM.attributes
                0x00000828       0x31 mesh/core/libmesh_core_nrf51422_xxAC.a(ccm_soft.c.obj)
 .ARM.attributes
                0x00000859       0x31 mesh/core/libmesh_core_nrf51422_xxAC.a(replay_cache.c.obj)
 .ARM.attributes
                0x0000088a       0x31 mesh/core/libmesh_core_nrf51422_xxAC.a(filter_engine.c.obj)
 .ARM.attributes
                0x000008bb       0x31 mesh/core/libmesh_core_nrf51422_xxAC.a(aes.c.obj)
 .ARM.attributes
                0x000008ec       0x31 mesh/core/libmesh_core_nrf51422_xxAC.a(nrf_flash.c.obj)
 .ARM.attributes
                0x0000091d       0x31 mesh/core/libmesh_core_nrf51422_xxAC.a(aes_cmac.c.obj)
 .ARM.attributes
                0x0000094e       0x31 external/rtt/librtt_nrf51422_xxAC.a(SEGGER_RTT.c.obj)
 .ARM.attributes
                0x0000097f       0x31 external/rtt/librtt_nrf51422_xxAC.a(SEGGER_RTT_printf.c.obj)
 .ARM.attributes
                0x000009b0       0x1e c:/a/gcc_arm/6/bin/../lib/gcc/arm-none-eabi/6.3.1/thumb/v6-m\libgcc.a(_thumb1_case_uqi.o)
 .ARM.attributes
                0x000009ce       0x1e c:/a/gcc_arm/6/bin/../lib/gcc/arm-none-eabi/6.3.1/thumb/v6-m\libgcc.a(_thumb1_case_shi.o)
 .ARM.attributes
                0x000009ec       0x1e c:/a/gcc_arm/6/bin/../lib/gcc/arm-none-eabi/6.3.1/thumb/v6-m\libgcc.a(_thumb1_case_uhi.o)
 .ARM.attributes
                0x00000a0a       0x1e c:/a/gcc_arm/6/bin/../lib/gcc/arm-none-eabi/6.3.1/thumb/v6-m\libgcc.a(_udivsi3.o)
 .ARM.attributes
                0x00000a28       0x1e c:/a/gcc_arm/6/bin/../lib/gcc/arm-none-eabi/6.3.1/thumb/v6-m\libgcc.a(_divsi3.o)
 .ARM.attributes
                0x00000a46       0x1e c:/a/gcc_arm/6/bin/../lib/gcc/arm-none-eabi/6.3.1/thumb/v6-m\libgcc.a(_dvmd_tls.o)
 .ARM.attributes
                0x00000a64       0x2c c:/a/gcc_arm/6/bin/../lib/gcc/arm-none-eabi/6.3.1/thumb/v6-m\libgcc.a(_muldi3.o)
 .ARM.attributes
                0x00000a90       0x2c c:/a/gcc_arm/6/bin/../lib/gcc/arm-none-eabi/6.3.1/../../../../arm-none-eabi/lib/thumb/v6-m\libc_nano.a(lib_a-exit.o)
 .ARM.attributes
                0x00000abc       0x2c c:/a/gcc_arm/6/bin/../lib/gcc/arm-none-eabi/6.3.1/../../../../arm-none-eabi/lib/thumb/v6-m\libc_nano.a(lib_a-impure.o)
 .ARM.attributes
                0x00000ae8       0x2c c:/a/gcc_arm/6/bin/../lib/gcc/arm-none-eabi/6.3.1/../../../../arm-none-eabi/lib/thumb/v6-m\libc_nano.a(lib_a-init.o)
 .ARM.attributes
                0x00000b14       0x2c c:/a/gcc_arm/6/bin/../lib/gcc/arm-none-eabi/6.3.1/../../../../arm-none-eabi/lib/thumb/v6-m\libc_nano.a(lib_a-malloc.o)
 .ARM.attributes
                0x00000b40       0x2c c:/a/gcc_arm/6/bin/../lib/gcc/arm-none-eabi/6.3.1/../../../../arm-none-eabi/lib/thumb/v6-m\libc_nano.a(lib_a-memcmp.o)
 .ARM.attributes
                0x00000b6c       0x2c c:/a/gcc_arm/6/bin/../lib/gcc/arm-none-eabi/6.3.1/../../../../arm-none-eabi/lib/thumb/v6-m\libc_nano.a(lib_a-memcpy-stub.o)
 .ARM.attributes
                0x00000b98       0x2c c:/a/gcc_arm/6/bin/../lib/gcc/arm-none-eabi/6.3.1/../../../../arm-none-eabi/lib/thumb/v6-m\libc_nano.a(lib_a-memset.o)
 .ARM.attributes
                0x00000bc4       0x2c c:/a/gcc_arm/6/bin/../lib/gcc/arm-none-eabi/6.3.1/../../../../arm-none-eabi/lib/thumb/v6-m\libc_nano.a(lib_a-nano-freer.o)
 .ARM.attributes
                0x00000bf0       0x2c c:/a/gcc_arm/6/bin/../lib/gcc/arm-none-eabi/6.3.1/../../../../arm-none-eabi/lib/thumb/v6-m\libc_nano.a(lib_a-nano-mallocr.o)
 .ARM.attributes
                0x00000c1c       0x2c c:/a/gcc_arm/6/bin/../lib/gcc/arm-none-eabi/6.3.1/../../../../arm-none-eabi/lib/thumb/v6-m\libc_nano.a(lib_a-sbrkr.o)
 .ARM.attributes
                0x00000c48       0x2c c:/a/gcc_arm/6/bin/../lib/gcc/arm-none-eabi/6.3.1/../../../../arm-none-eabi/lib/thumb/v6-m\libc_nano.a(lib_a-sprintf.o)
 .ARM.attributes
                0x00000c74       0x2c c:/a/gcc_arm/6/bin/../lib/gcc/arm-none-eabi/6.3.1/../../../../arm-none-eabi/lib/thumb/v6-m\libc_nano.a(lib_a-strcpy.o)
 .ARM.attributes
                0x00000ca0       0x2c c:/a/gcc_arm/6/bin/../lib/gcc/arm-none-eabi/6.3.1/../../../../arm-none-eabi/lib/thumb/v6-m\libc_nano.a(lib_a-strrchr.o)
 .ARM.attributes
                0x00000ccc       0x2c c:/a/gcc_arm/6/bin/../lib/gcc/arm-none-eabi/6.3.1/../../../../arm-none-eabi/lib/thumb/v6-m\libc_nano.a(lib_a-mlock.o)
 .ARM.attributes
                0x00000cf8       0x2c c:/a/gcc_arm/6/bin/../lib/gcc/arm-none-eabi/6.3.1/../../../../arm-none-eabi/lib/thumb/v6-m\libc_nano.a(lib_a-nano-svfprintf.o)
 .ARM.attributes
                0x00000d24       0x2c c:/a/gcc_arm/6/bin/../lib/gcc/arm-none-eabi/6.3.1/../../../../arm-none-eabi/lib/thumb/v6-m\libc_nano.a(lib_a-nano-vfprintf_i.o)
 .ARM.attributes
                0x00000d50       0x2c c:/a/gcc_arm/6/bin/../lib/gcc/arm-none-eabi/6.3.1/../../../../arm-none-eabi/lib/thumb/v6-m\libc_nano.a(lib_a-reent.o)
 .ARM.attributes
                0x00000d7c       0x2c c:/a/gcc_arm/6/bin/../lib/gcc/arm-none-eabi/6.3.1/../../../../arm-none-eabi/lib/thumb/v6-m\libc_nano.a(lib_a-strchr.o)
 .ARM.attributes
                0x00000da8       0x2c c:/a/gcc_arm/6/bin/../lib/gcc/arm-none-eabi/6.3.1/../../../../arm-none-eabi/lib/thumb/v6-m\libc_nano.a(lib_a-memchr-stub.o)
 .ARM.attributes
                0x00000dd4       0x2c c:/a/gcc_arm/6/bin/../lib/gcc/arm-none-eabi/6.3.1/../../../../arm-none-eabi/lib/thumb/v6-m\libc_nano.a(lib_a-memmove.o)
 .ARM.attributes
                0x00000e00       0x2c c:/a/gcc_arm/6/bin/../lib/gcc/arm-none-eabi/6.3.1/../../../../arm-none-eabi/lib/thumb/v6-m\libc_nano.a(lib_a-nano-reallocr.o)
 .ARM.attributes
                0x00000e2c       0x2c c:/a/gcc_arm/6/bin/../lib/gcc/arm-none-eabi/6.3.1/../../../../arm-none-eabi/lib/thumb/v6-m\libc_nano.a(lib_a-nano-msizer.o)
 .ARM.attributes
                0x00000e58       0x2c c:/a/gcc_arm/6/bin/../lib/gcc/arm-none-eabi/6.3.1/thumb/v6-m/crtend.o
 .ARM.attributes
                0x00000e84       0x1e c:/a/gcc_arm/6/bin/../lib/gcc/arm-none-eabi/6.3.1/thumb/v6-m/crtn.o
 .ARM.attributes
                0x00000ea2       0x2c c:/a/gcc_arm/6/bin/../lib/gcc/arm-none-eabi/6.3.1/../../../../arm-none-eabi/lib/thumb/v6-m\libnosys.a(sbrk.o)
 .ARM.attributes
                0x00000ece       0x2c c:/a/gcc_arm/6/bin/../lib/gcc/arm-none-eabi/6.3.1/../../../../arm-none-eabi/lib/thumb/v6-m\libnosys.a(_exit.o)

.comment        0x00000000       0x7f
 .comment       0x00000000       0x7f examples/beaconing/CMakeFiles/beaconing_nrf51422_xxAC_s130_2.0.1.dir/src/main.c.obj
                                 0x80 (size before relaxing)
 .comment       0x0000007f       0x80 examples/beaconing/CMakeFiles/beaconing_nrf51422_xxAC_s130_2.0.1.dir/__/nrf_mesh_sdk.c.obj
 .comment       0x0000007f       0x80 examples/beaconing/CMakeFiles/beaconing_nrf51422_xxAC_s130_2.0.1.dir/__/__/mesh/access/src/device_state_manager.c.obj
 .comment       0x0000007f       0x80 examples/beaconing/CMakeFiles/beaconing_nrf51422_xxAC_s130_2.0.1.dir/__/nrf_mesh_weak.c.obj
 .comment       0x0000007f       0x80 examples/beaconing/CMakeFiles/beaconing_nrf51422_xxAC_s130_2.0.1.dir/__/__/external/nRF5_SDK_14.0.0_3bcc1f7/components/toolchain/system_nrf51.c.obj
 .comment       0x0000007f       0x80 mesh/core/libmesh_core_nrf51422_xxAC.a(event.c.obj)
 .comment       0x0000007f       0x80 mesh/core/libmesh_core_nrf51422_xxAC.a(net_state.c.obj)
 .comment       0x0000007f       0x80 mesh/core/libmesh_core_nrf51422_xxAC.a(nrf_mesh_utils.c.obj)
 .comment       0x0000007f       0x80 mesh/core/libmesh_core_nrf51422_xxAC.a(nrf_mesh.c.obj)
 .comment       0x0000007f       0x80 mesh/core/libmesh_core_nrf51422_xxAC.a(hal.c.obj)
 .comment       0x0000007f       0x80 mesh/core/libmesh_core_nrf51422_xxAC.a(timer_scheduler.c.obj)
 .comment       0x0000007f       0x80 mesh/core/libmesh_core_nrf51422_xxAC.a(timer.c.obj)
 .comment       0x0000007f       0x80 mesh/core/libmesh_core_nrf51422_xxAC.a(ticker.c.obj)
 .comment       0x0000007f       0x80 mesh/core/libmesh_core_nrf51422_xxAC.a(rand.c.obj)
 .comment       0x0000007f       0x80 mesh/core/libmesh_core_nrf51422_xxAC.a(timeslot.c.obj)
 .comment       0x0000007f       0x80 mesh/core/libmesh_core_nrf51422_xxAC.a(bearer_event.c.obj)
 .comment       0x0000007f       0x80 mesh/core/libmesh_core_nrf51422_xxAC.a(network.c.obj)
 .comment       0x0000007f       0x80 mesh/core/libmesh_core_nrf51422_xxAC.a(log.c.obj)
 .comment       0x0000007f       0x80 mesh/core/libmesh_core_nrf51422_xxAC.a(flash_manager.c.obj)
 .comment       0x0000007f       0x80 mesh/core/libmesh_core_nrf51422_xxAC.a(beacon.c.obj)
 .comment       0x0000007f       0x80 mesh/core/libmesh_core_nrf51422_xxAC.a(flash_manager_internal.c.obj)
 .comment       0x0000007f       0x80 mesh/core/libmesh_core_nrf51422_xxAC.a(core_tx.c.obj)
 .comment       0x0000007f       0x80 mesh/core/libmesh_core_nrf51422_xxAC.a(net_beacon.c.obj)
 .comment       0x0000007f       0x80 mesh/core/libmesh_core_nrf51422_xxAC.a(advertiser.c.obj)
 .comment       0x0000007f       0x80 mesh/core/libmesh_core_nrf51422_xxAC.a(bearer_handler.c.obj)
 .comment       0x0000007f       0x80 mesh/core/libmesh_core_nrf51422_xxAC.a(broadcast.c.obj)
 .comment       0x0000007f       0x80 mesh/core/libmesh_core_nrf51422_xxAC.a(radio_config.c.obj)
 .comment       0x0000007f       0x80 mesh/core/libmesh_core_nrf51422_xxAC.a(scanner.c.obj)
 .comment       0x0000007f       0x80 mesh/core/libmesh_core_nrf51422_xxAC.a(internal_event.c.obj)
 .comment       0x0000007f       0x80 mesh/core/libmesh_core_nrf51422_xxAC.a(nrf_mesh_configure.c.obj)
 .comment       0x0000007f       0x80 mesh/core/libmesh_core_nrf51422_xxAC.a(msg_cache.c.obj)
 .comment       0x0000007f       0x80 mesh/core/libmesh_core_nrf51422_xxAC.a(transport.c.obj)
 .comment       0x0000007f       0x80 mesh/core/libmesh_core_nrf51422_xxAC.a(packet_buffer.c.obj)
 .comment       0x0000007f       0x80 mesh/core/libmesh_core_nrf51422_xxAC.a(flash_manager_defrag.c.obj)
 .comment       0x0000007f       0x80 mesh/core/libmesh_core_nrf51422_xxAC.a(fifo.c.obj)
 .comment       0x0000007f       0x80 mesh/core/libmesh_core_nrf51422_xxAC.a(packet_mgr.c.obj)
 .comment       0x0000007f       0x80 mesh/core/libmesh_core_nrf51422_xxAC.a(mesh_flash.c.obj)
 .comment       0x0000007f       0x80 mesh/core/libmesh_core_nrf51422_xxAC.a(queue.c.obj)
 .comment       0x0000007f       0x80 mesh/core/libmesh_core_nrf51422_xxAC.a(enc.c.obj)
 .comment       0x0000007f       0x80 mesh/core/libmesh_core_nrf51422_xxAC.a(msqueue.c.obj)
 .comment       0x0000007f       0x80 mesh/core/libmesh_core_nrf51422_xxAC.a(ccm_soft.c.obj)
 .comment       0x0000007f       0x80 mesh/core/libmesh_core_nrf51422_xxAC.a(replay_cache.c.obj)
 .comment       0x0000007f       0x80 mesh/core/libmesh_core_nrf51422_xxAC.a(filter_engine.c.obj)
 .comment       0x0000007f       0x80 mesh/core/libmesh_core_nrf51422_xxAC.a(aes.c.obj)
 .comment       0x0000007f       0x80 mesh/core/libmesh_core_nrf51422_xxAC.a(nrf_flash.c.obj)
 .comment       0x0000007f       0x80 mesh/core/libmesh_core_nrf51422_xxAC.a(aes_cmac.c.obj)
 .comment       0x0000007f       0x80 external/rtt/librtt_nrf51422_xxAC.a(SEGGER_RTT.c.obj)
 .comment       0x0000007f       0x80 external/rtt/librtt_nrf51422_xxAC.a(SEGGER_RTT_printf.c.obj)

.debug_frame    0x00000000      0x4d4
 .debug_frame   0x00000000       0x20 c:/a/gcc_arm/6/bin/../lib/gcc/arm-none-eabi/6.3.1/thumb/v6-m\libgcc.a(_udivsi3.o)
 .debug_frame   0x00000020       0x20 c:/a/gcc_arm/6/bin/../lib/gcc/arm-none-eabi/6.3.1/thumb/v6-m\libgcc.a(_divsi3.o)
 .debug_frame   0x00000040       0x34 c:/a/gcc_arm/6/bin/../lib/gcc/arm-none-eabi/6.3.1/thumb/v6-m\libgcc.a(_muldi3.o)
 .debug_frame   0x00000074       0x28 c:/a/gcc_arm/6/bin/../lib/gcc/arm-none-eabi/6.3.1/../../../../arm-none-eabi/lib/thumb/v6-m\libc_nano.a(lib_a-exit.o)
 .debug_frame   0x0000009c       0x2c c:/a/gcc_arm/6/bin/../lib/gcc/arm-none-eabi/6.3.1/../../../../arm-none-eabi/lib/thumb/v6-m\libc_nano.a(lib_a-init.o)
 .debug_frame   0x000000c8       0x40 c:/a/gcc_arm/6/bin/../lib/gcc/arm-none-eabi/6.3.1/../../../../arm-none-eabi/lib/thumb/v6-m\libc_nano.a(lib_a-malloc.o)
 .debug_frame   0x00000108       0x2c c:/a/gcc_arm/6/bin/../lib/gcc/arm-none-eabi/6.3.1/../../../../arm-none-eabi/lib/thumb/v6-m\libc_nano.a(lib_a-memcmp.o)
 .debug_frame   0x00000134       0x28 c:/a/gcc_arm/6/bin/../lib/gcc/arm-none-eabi/6.3.1/../../../../arm-none-eabi/lib/thumb/v6-m\libc_nano.a(lib_a-memcpy-stub.o)
 .debug_frame   0x0000015c       0x20 c:/a/gcc_arm/6/bin/../lib/gcc/arm-none-eabi/6.3.1/../../../../arm-none-eabi/lib/thumb/v6-m\libc_nano.a(lib_a-memset.o)
 .debug_frame   0x0000017c       0x2c c:/a/gcc_arm/6/bin/../lib/gcc/arm-none-eabi/6.3.1/../../../../arm-none-eabi/lib/thumb/v6-m\libc_nano.a(lib_a-nano-freer.o)
 .debug_frame   0x000001a8       0x2c c:/a/gcc_arm/6/bin/../lib/gcc/arm-none-eabi/6.3.1/../../../../arm-none-eabi/lib/thumb/v6-m\libc_nano.a(lib_a-nano-mallocr.o)
 .debug_frame   0x000001d4       0x2c c:/a/gcc_arm/6/bin/../lib/gcc/arm-none-eabi/6.3.1/../../../../arm-none-eabi/lib/thumb/v6-m\libc_nano.a(lib_a-sbrkr.o)
 .debug_frame   0x00000200       0x50 c:/a/gcc_arm/6/bin/../lib/gcc/arm-none-eabi/6.3.1/../../../../arm-none-eabi/lib/thumb/v6-m\libc_nano.a(lib_a-sprintf.o)
 .debug_frame   0x00000250       0x20 c:/a/gcc_arm/6/bin/../lib/gcc/arm-none-eabi/6.3.1/../../../../arm-none-eabi/lib/thumb/v6-m\libc_nano.a(lib_a-strcpy.o)
 .debug_frame   0x00000270       0x2c c:/a/gcc_arm/6/bin/../lib/gcc/arm-none-eabi/6.3.1/../../../../arm-none-eabi/lib/thumb/v6-m\libc_nano.a(lib_a-strrchr.o)
 .debug_frame   0x0000029c       0x30 c:/a/gcc_arm/6/bin/../lib/gcc/arm-none-eabi/6.3.1/../../../../arm-none-eabi/lib/thumb/v6-m\libc_nano.a(lib_a-mlock.o)
 .debug_frame   0x000002cc       0x74 c:/a/gcc_arm/6/bin/../lib/gcc/arm-none-eabi/6.3.1/../../../../arm-none-eabi/lib/thumb/v6-m\libc_nano.a(lib_a-nano-svfprintf.o)
 .debug_frame   0x00000340       0x54 c:/a/gcc_arm/6/bin/../lib/gcc/arm-none-eabi/6.3.1/../../../../arm-none-eabi/lib/thumb/v6-m\libc_nano.a(lib_a-nano-vfprintf_i.o)
 .debug_frame   0x00000394       0x48 c:/a/gcc_arm/6/bin/../lib/gcc/arm-none-eabi/6.3.1/../../../../arm-none-eabi/lib/thumb/v6-m\libc_nano.a(lib_a-reent.o)
 .debug_frame   0x000003dc       0x20 c:/a/gcc_arm/6/bin/../lib/gcc/arm-none-eabi/6.3.1/../../../../arm-none-eabi/lib/thumb/v6-m\libc_nano.a(lib_a-strchr.o)
 .debug_frame   0x000003fc       0x20 c:/a/gcc_arm/6/bin/../lib/gcc/arm-none-eabi/6.3.1/../../../../arm-none-eabi/lib/thumb/v6-m\libc_nano.a(lib_a-memchr-stub.o)
 .debug_frame   0x0000041c       0x28 c:/a/gcc_arm/6/bin/../lib/gcc/arm-none-eabi/6.3.1/../../../../arm-none-eabi/lib/thumb/v6-m\libc_nano.a(lib_a-memmove.o)
 .debug_frame   0x00000444       0x30 c:/a/gcc_arm/6/bin/../lib/gcc/arm-none-eabi/6.3.1/../../../../arm-none-eabi/lib/thumb/v6-m\libc_nano.a(lib_a-nano-reallocr.o)
 .debug_frame   0x00000474       0x20 c:/a/gcc_arm/6/bin/../lib/gcc/arm-none-eabi/6.3.1/../../../../arm-none-eabi/lib/thumb/v6-m\libc_nano.a(lib_a-nano-msizer.o)
 .debug_frame   0x00000494       0x20 c:/a/gcc_arm/6/bin/../lib/gcc/arm-none-eabi/6.3.1/../../../../arm-none-eabi/lib/thumb/v6-m\libnosys.a(sbrk.o)
 .debug_frame   0x000004b4       0x20 c:/a/gcc_arm/6/bin/../lib/gcc/arm-none-eabi/6.3.1/../../../../arm-none-eabi/lib/thumb/v6-m\libnosys.a(_exit.o)
