Archive member included to satisfy reference by file (symbol)

mesh/core/libmesh_core_nrf52832_xxAA.a(internal_event.c.obj)
                              examples/dfu/CMakeFiles/dfu_nrf52832_xxAA_s132_3.1.0.dir/__/__/mesh/serial/src/serial_handler_device.c.obj (internal_event_init)
mesh/core/libmesh_core_nrf52832_xxAA.a(nrf_mesh_configure.c.obj)
                              examples/dfu/CMakeFiles/dfu_nrf52832_xxAA_s132_3.1.0.dir/__/__/mesh/serial/src/serial_handler_config.c.obj (nrf_mesh_configure_device_uuid_set)
mesh/core/libmesh_core_nrf52832_xxAA.a(event.c.obj)
                              examples/dfu/CMakeFiles/dfu_nrf52832_xxAA_s132_3.1.0.dir/__/__/mesh/access/src/access.c.obj (event_handle)
mesh/core/libmesh_core_nrf52832_xxAA.a(packet_buffer.c.obj)
                              examples/dfu/CMakeFiles/dfu_nrf52832_xxAA_s132_3.1.0.dir/__/__/mesh/serial/src/serial_bearer.c.obj (packet_buffer_max_packet_len_get)
mesh/core/libmesh_core_nrf52832_xxAA.a(fifo.c.obj)
                              mesh/core/libmesh_core_nrf52832_xxAA.a(internal_event.c.obj) (fifo_init)
mesh/core/libmesh_core_nrf52832_xxAA.a(net_state.c.obj)
                              examples/dfu/CMakeFiles/dfu_nrf52832_xxAA_s132_3.1.0.dir/__/__/mesh/serial/src/serial_handler_mesh.c.obj (net_state_reset)
mesh/core/libmesh_core_nrf52832_xxAA.a(mesh_flash.c.obj)
                              examples/dfu/CMakeFiles/dfu_nrf52832_xxAA_s132_3.1.0.dir/__/__/mesh/dfu/src/nrf_mesh_dfu.c.obj (mesh_flash_user_callback_set)
mesh/core/libmesh_core_nrf52832_xxAA.a(nrf_mesh_utils.c.obj)
                              examples/dfu/CMakeFiles/dfu_nrf52832_xxAA_s132_3.1.0.dir/__/__/mesh/access/src/device_state_manager.c.obj (nrf_mesh_address_type_get)
mesh/core/libmesh_core_nrf52832_xxAA.a(nrf_mesh.c.obj)
                              examples/dfu/CMakeFiles/dfu_nrf52832_xxAA_s132_3.1.0.dir/__/nrf_mesh_sdk.c.obj (nrf_mesh_init)
mesh/core/libmesh_core_nrf52832_xxAA.a(hal.c.obj)
                              examples/dfu/CMakeFiles/dfu_nrf52832_xxAA_s132_3.1.0.dir/__/__/mesh/serial/src/serial_handler_device.c.obj (hal_device_reset)
mesh/core/libmesh_core_nrf52832_xxAA.a(timer_scheduler.c.obj)
                              mesh/core/libmesh_core_nrf52832_xxAA.a(nrf_mesh.c.obj) (timer_sch_init)
mesh/core/libmesh_core_nrf52832_xxAA.a(timer.c.obj)
                              mesh/core/libmesh_core_nrf52832_xxAA.a(timer_scheduler.c.obj) (timer_order_cb)
mesh/core/libmesh_core_nrf52832_xxAA.a(ticker.c.obj)
                              mesh/core/libmesh_core_nrf52832_xxAA.a(nrf_mesh.c.obj) (ticker_init)
mesh/core/libmesh_core_nrf52832_xxAA.a(rand.c.obj)
                              examples/dfu/CMakeFiles/dfu_nrf52832_xxAA_s132_3.1.0.dir/__/__/mesh/dfu/src/nrf_mesh_dfu.c.obj (rand_prng_get)
mesh/core/libmesh_core_nrf52832_xxAA.a(timeslot.c.obj)
                              mesh/core/libmesh_core_nrf52832_xxAA.a(nrf_mesh.c.obj) (timeslot_sd_event_handler)
mesh/core/libmesh_core_nrf52832_xxAA.a(bearer_event.c.obj)
                              mesh/core/libmesh_core_nrf52832_xxAA.a(nrf_mesh.c.obj) (bearer_event_init)
mesh/core/libmesh_core_nrf52832_xxAA.a(enc.c.obj)
                              examples/dfu/CMakeFiles/dfu_nrf52832_xxAA_s132_3.1.0.dir/__/__/mesh/prov/src/prov_utils.c.obj (enc_aes_cmac)
mesh/core/libmesh_core_nrf52832_xxAA.a(network.c.obj)
                              mesh/core/libmesh_core_nrf52832_xxAA.a(nrf_mesh.c.obj) (network_init)
mesh/core/libmesh_core_nrf52832_xxAA.a(msqueue.c.obj)
                              mesh/core/libmesh_core_nrf52832_xxAA.a(mesh_flash.c.obj) (msq_get)
mesh/core/libmesh_core_nrf52832_xxAA.a(nrf_mesh_keygen.c.obj)
                              examples/dfu/CMakeFiles/dfu_nrf52832_xxAA_s132_3.1.0.dir/__/__/mesh/access/src/device_state_manager.c.obj (nrf_mesh_keygen_aid)
mesh/core/libmesh_core_nrf52832_xxAA.a(log.c.obj)
                              examples/dfu/CMakeFiles/dfu_nrf52832_xxAA_s132_3.1.0.dir/src/main.c.obj (log_callback_rtt)
mesh/core/libmesh_core_nrf52832_xxAA.a(flash_manager.c.obj)
                              mesh/core/libmesh_core_nrf52832_xxAA.a(nrf_mesh.c.obj) (flash_manager_init)
mesh/core/libmesh_core_nrf52832_xxAA.a(ccm_soft.c.obj)
                              mesh/core/libmesh_core_nrf52832_xxAA.a(enc.c.obj) (ccm_soft_encrypt)
mesh/core/libmesh_core_nrf52832_xxAA.a(beacon.c.obj)
                              mesh/core/libmesh_core_nrf52832_xxAA.a(nrf_mesh.c.obj) (beacon_init)
mesh/core/libmesh_core_nrf52832_xxAA.a(flash_manager_internal.c.obj)
                              mesh/core/libmesh_core_nrf52832_xxAA.a(flash_manager.c.obj) (entry_get)
mesh/core/libmesh_core_nrf52832_xxAA.a(core_tx.c.obj)
                              mesh/core/libmesh_core_nrf52832_xxAA.a(nrf_mesh.c.obj) (core_tx_init)
mesh/core/libmesh_core_nrf52832_xxAA.a(net_beacon.c.obj)
                              mesh/core/libmesh_core_nrf52832_xxAA.a(network.c.obj) (net_beacon_init)
mesh/core/libmesh_core_nrf52832_xxAA.a(advertiser.c.obj)
                              mesh/core/libmesh_core_nrf52832_xxAA.a(nrf_mesh.c.obj) (advertiser_init)
mesh/core/libmesh_core_nrf52832_xxAA.a(bearer_handler.c.obj)
                              mesh/core/libmesh_core_nrf52832_xxAA.a(nrf_mesh.c.obj) (bearer_handler_init)
mesh/core/libmesh_core_nrf52832_xxAA.a(broadcast.c.obj)
                              examples/dfu/CMakeFiles/dfu_nrf52832_xxAA_s132_3.1.0.dir/__/__/mesh/dfu/src/nrf_mesh_dfu.c.obj (broadcast_send)
mesh/core/libmesh_core_nrf52832_xxAA.a(radio_config.c.obj)
                              mesh/core/libmesh_core_nrf52832_xxAA.a(broadcast.c.obj) (radio_config_reset)
mesh/core/libmesh_core_nrf52832_xxAA.a(scanner.c.obj)
                              mesh/core/libmesh_core_nrf52832_xxAA.a(bearer_handler.c.obj) (scanner_radio_start)
mesh/core/libmesh_core_nrf52832_xxAA.a(aes.c.obj)
                              mesh/core/libmesh_core_nrf52832_xxAA.a(enc.c.obj) (aes_encrypt)
mesh/core/libmesh_core_nrf52832_xxAA.a(msg_cache.c.obj)
                              mesh/core/libmesh_core_nrf52832_xxAA.a(nrf_mesh.c.obj) (msg_cache_init)
mesh/core/libmesh_core_nrf52832_xxAA.a(transport.c.obj)
                              mesh/core/libmesh_core_nrf52832_xxAA.a(nrf_mesh.c.obj) (transport_init)
mesh/core/libmesh_core_nrf52832_xxAA.a(flash_manager_defrag.c.obj)
                              mesh/core/libmesh_core_nrf52832_xxAA.a(flash_manager.c.obj) (flash_manager_defrag_init)
mesh/core/libmesh_core_nrf52832_xxAA.a(nrf_flash.c.obj)
                              mesh/core/libmesh_core_nrf52832_xxAA.a(mesh_flash.c.obj) (nrf_flash_erase)
mesh/core/libmesh_core_nrf52832_xxAA.a(packet_mgr.c.obj)
                              mesh/core/libmesh_core_nrf52832_xxAA.a(nrf_mesh.c.obj) (packet_mgr_init)
mesh/core/libmesh_core_nrf52832_xxAA.a(queue.c.obj)
                              mesh/core/libmesh_core_nrf52832_xxAA.a(bearer_event.c.obj) (queue_init)
mesh/core/libmesh_core_nrf52832_xxAA.a(aes_cmac.c.obj)
                              mesh/core/libmesh_core_nrf52832_xxAA.a(enc.c.obj) (aes_cmac)
mesh/core/libmesh_core_nrf52832_xxAA.a(replay_cache.c.obj)
                              mesh/core/libmesh_core_nrf52832_xxAA.a(transport.c.obj) (replay_cache_add)
mesh/core/libmesh_core_nrf52832_xxAA.a(filter_engine.c.obj)
                              mesh/core/libmesh_core_nrf52832_xxAA.a(scanner.c.obj) (fen_filters_apply)
external/rtt/librtt_nrf52832_xxAA.a(SEGGER_RTT.c.obj)
                              mesh/core/libmesh_core_nrf52832_xxAA.a(log.c.obj) (SEGGER_RTT_Write)
external/rtt/librtt_nrf52832_xxAA.a(SEGGER_RTT_printf.c.obj)
                              mesh/core/libmesh_core_nrf52832_xxAA.a(log.c.obj) (SEGGER_RTT_vprintf)
external/micro-ecc/libuECC_nrf52832_xxAA.a(uECC.c.obj)
                              examples/dfu/CMakeFiles/dfu_nrf52832_xxAA_s132_3.1.0.dir/__/__/mesh/prov/src/prov_utils.c.obj (uECC_secp256r1)
c:/a/gcc_arm/6/bin/../lib/gcc/arm-none-eabi/6.3.1/../../../../arm-none-eabi/lib/thumb/v7e-m/fpv4-sp/hard\libc_nano.a(lib_a-exit.o)
                              c:/a/gcc_arm/6/bin/../lib/gcc/arm-none-eabi/6.3.1/../../../../arm-none-eabi/lib/thumb/v7e-m/fpv4-sp/hard/crt0.o (exit)
c:/a/gcc_arm/6/bin/../lib/gcc/arm-none-eabi/6.3.1/../../../../arm-none-eabi/lib/thumb/v7e-m/fpv4-sp/hard\libc_nano.a(lib_a-impure.o)
                              c:/a/gcc_arm/6/bin/../lib/gcc/arm-none-eabi/6.3.1/../../../../arm-none-eabi/lib/thumb/v7e-m/fpv4-sp/hard\libc_nano.a(lib_a-exit.o) (_global_impure_ptr)
c:/a/gcc_arm/6/bin/../lib/gcc/arm-none-eabi/6.3.1/../../../../arm-none-eabi/lib/thumb/v7e-m/fpv4-sp/hard\libc_nano.a(lib_a-init.o)
                              c:/a/gcc_arm/6/bin/../lib/gcc/arm-none-eabi/6.3.1/../../../../arm-none-eabi/lib/thumb/v7e-m/fpv4-sp/hard/crt0.o (__libc_init_array)
c:/a/gcc_arm/6/bin/../lib/gcc/arm-none-eabi/6.3.1/../../../../arm-none-eabi/lib/thumb/v7e-m/fpv4-sp/hard\libc_nano.a(lib_a-malloc.o)
                              mesh/core/libmesh_core_nrf52832_xxAA.a(transport.c.obj) (malloc)
c:/a/gcc_arm/6/bin/../lib/gcc/arm-none-eabi/6.3.1/../../../../arm-none-eabi/lib/thumb/v7e-m/fpv4-sp/hard\libc_nano.a(lib_a-memcmp.o)
                              examples/dfu/CMakeFiles/dfu_nrf52832_xxAA_s132_3.1.0.dir/__/__/mesh/access/src/device_state_manager.c.obj (memcmp)
c:/a/gcc_arm/6/bin/../lib/gcc/arm-none-eabi/6.3.1/../../../../arm-none-eabi/lib/thumb/v7e-m/fpv4-sp/hard\libc_nano.a(lib_a-memcpy-stub.o)
                              examples/dfu/CMakeFiles/dfu_nrf52832_xxAA_s132_3.1.0.dir/__/__/mesh/access/src/access.c.obj (memcpy)
c:/a/gcc_arm/6/bin/../lib/gcc/arm-none-eabi/6.3.1/../../../../arm-none-eabi/lib/thumb/v7e-m/fpv4-sp/hard\libc_nano.a(lib_a-memset.o)
                              c:/a/gcc_arm/6/bin/../lib/gcc/arm-none-eabi/6.3.1/../../../../arm-none-eabi/lib/thumb/v7e-m/fpv4-sp/hard/crt0.o (memset)
c:/a/gcc_arm/6/bin/../lib/gcc/arm-none-eabi/6.3.1/../../../../arm-none-eabi/lib/thumb/v7e-m/fpv4-sp/hard\libc_nano.a(lib_a-nano-freer.o)
                              c:/a/gcc_arm/6/bin/../lib/gcc/arm-none-eabi/6.3.1/../../../../arm-none-eabi/lib/thumb/v7e-m/fpv4-sp/hard\libc_nano.a(lib_a-malloc.o) (_free_r)
c:/a/gcc_arm/6/bin/../lib/gcc/arm-none-eabi/6.3.1/../../../../arm-none-eabi/lib/thumb/v7e-m/fpv4-sp/hard\libc_nano.a(lib_a-nano-mallocr.o)
                              c:/a/gcc_arm/6/bin/../lib/gcc/arm-none-eabi/6.3.1/../../../../arm-none-eabi/lib/thumb/v7e-m/fpv4-sp/hard\libc_nano.a(lib_a-malloc.o) (_malloc_r)
c:/a/gcc_arm/6/bin/../lib/gcc/arm-none-eabi/6.3.1/../../../../arm-none-eabi/lib/thumb/v7e-m/fpv4-sp/hard\libc_nano.a(lib_a-sbrkr.o)
                              c:/a/gcc_arm/6/bin/../lib/gcc/arm-none-eabi/6.3.1/../../../../arm-none-eabi/lib/thumb/v7e-m/fpv4-sp/hard\libc_nano.a(lib_a-nano-mallocr.o) (_sbrk_r)
c:/a/gcc_arm/6/bin/../lib/gcc/arm-none-eabi/6.3.1/../../../../arm-none-eabi/lib/thumb/v7e-m/fpv4-sp/hard\libc_nano.a(lib_a-strcpy.o)
                              external/rtt/librtt_nrf52832_xxAA.a(SEGGER_RTT.c.obj) (strcpy)
c:/a/gcc_arm/6/bin/../lib/gcc/arm-none-eabi/6.3.1/../../../../arm-none-eabi/lib/thumb/v7e-m/fpv4-sp/hard\libc_nano.a(lib_a-strlen.o)
                              examples/dfu/CMakeFiles/dfu_nrf52832_xxAA_s132_3.1.0.dir/__/__/mesh/prov/src/prov_beacon.c.obj (strlen)
c:/a/gcc_arm/6/bin/../lib/gcc/arm-none-eabi/6.3.1/../../../../arm-none-eabi/lib/thumb/v7e-m/fpv4-sp/hard\libc_nano.a(lib_a-strrchr.o)
                              examples/dfu/CMakeFiles/dfu_nrf52832_xxAA_s132_3.1.0.dir/src/main.c.obj (strrchr)
c:/a/gcc_arm/6/bin/../lib/gcc/arm-none-eabi/6.3.1/../../../../arm-none-eabi/lib/thumb/v7e-m/fpv4-sp/hard\libc_nano.a(lib_a-mlock.o)
                              c:/a/gcc_arm/6/bin/../lib/gcc/arm-none-eabi/6.3.1/../../../../arm-none-eabi/lib/thumb/v7e-m/fpv4-sp/hard\libc_nano.a(lib_a-nano-freer.o) (__malloc_lock)
c:/a/gcc_arm/6/bin/../lib/gcc/arm-none-eabi/6.3.1/../../../../arm-none-eabi/lib/thumb/v7e-m/fpv4-sp/hard\libc_nano.a(lib_a-reent.o)
                              c:/a/gcc_arm/6/bin/../lib/gcc/arm-none-eabi/6.3.1/../../../../arm-none-eabi/lib/thumb/v7e-m/fpv4-sp/hard\libc_nano.a(lib_a-sbrkr.o) (errno)
c:/a/gcc_arm/6/bin/../lib/gcc/arm-none-eabi/6.3.1/../../../../arm-none-eabi/lib/thumb/v7e-m/fpv4-sp/hard\libc_nano.a(lib_a-strchr.o)
                              c:/a/gcc_arm/6/bin/../lib/gcc/arm-none-eabi/6.3.1/../../../../arm-none-eabi/lib/thumb/v7e-m/fpv4-sp/hard\libc_nano.a(lib_a-strrchr.o) (strchr)
c:/a/gcc_arm/6/bin/../lib/gcc/arm-none-eabi/6.3.1/../../../../arm-none-eabi/lib/thumb/v7e-m/fpv4-sp/hard\libnosys.a(sbrk.o)
                              c:/a/gcc_arm/6/bin/../lib/gcc/arm-none-eabi/6.3.1/../../../../arm-none-eabi/lib/thumb/v7e-m/fpv4-sp/hard\libc_nano.a(lib_a-sbrkr.o) (_sbrk)
c:/a/gcc_arm/6/bin/../lib/gcc/arm-none-eabi/6.3.1/../../../../arm-none-eabi/lib/thumb/v7e-m/fpv4-sp/hard\libnosys.a(_exit.o)
                              c:/a/gcc_arm/6/bin/../lib/gcc/arm-none-eabi/6.3.1/../../../../arm-none-eabi/lib/thumb/v7e-m/fpv4-sp/hard\libc_nano.a(lib_a-exit.o) (_exit)

Allocating common symbols
Common symbol       size              file

nrf_nvic_state      0xc               examples/dfu/CMakeFiles/dfu_nrf52832_xxAA_s132_3.1.0.dir/__/nrf_mesh_sdk.c.obj
bank_addr           0x4               examples/dfu/CMakeFiles/dfu_nrf52832_xxAA_s132_3.1.0.dir/src/main.c.obj
rom_length          0x4               examples/dfu/CMakeFiles/dfu_nrf52832_xxAA_s132_3.1.0.dir/src/main.c.obj
m_cmd_handler       0x4               examples/dfu/CMakeFiles/dfu_nrf52832_xxAA_s132_3.1.0.dir/__/__/mesh/dfu/src/nrf_mesh_dfu.c.obj
errno               0x4               c:/a/gcc_arm/6/bin/../lib/gcc/arm-none-eabi/6.3.1/../../../../arm-none-eabi/lib/thumb/v7e-m/fpv4-sp/hard\libc_nano.a(lib_a-reent.o)
m_assertion_handler
                    0x4               mesh/core/libmesh_core_nrf52832_xxAA.a(nrf_mesh.c.obj)
_SEGGER_RTT         0x78              external/rtt/librtt_nrf52832_xxAA.a(SEGGER_RTT.c.obj)

Discarded input sections

 .text          0x00000000        0x0 c:/a/gcc_arm/6/bin/../lib/gcc/arm-none-eabi/6.3.1/thumb/v7e-m/fpv4-sp/hard/crti.o
 .data          0x00000000        0x0 c:/a/gcc_arm/6/bin/../lib/gcc/arm-none-eabi/6.3.1/thumb/v7e-m/fpv4-sp/hard/crti.o
 .bss           0x00000000        0x0 c:/a/gcc_arm/6/bin/../lib/gcc/arm-none-eabi/6.3.1/thumb/v7e-m/fpv4-sp/hard/crti.o
 .data          0x00000000        0x4 c:/a/gcc_arm/6/bin/../lib/gcc/arm-none-eabi/6.3.1/thumb/v7e-m/fpv4-sp/hard/crtbegin.o
 .data          0x00000000        0x0 c:/a/gcc_arm/6/bin/../lib/gcc/arm-none-eabi/6.3.1/../../../../arm-none-eabi/lib/thumb/v7e-m/fpv4-sp/hard/crt0.o
 .bss           0x00000000        0x0 c:/a/gcc_arm/6/bin/../lib/gcc/arm-none-eabi/6.3.1/../../../../arm-none-eabi/lib/thumb/v7e-m/fpv4-sp/hard/crt0.o
 .ARM.extab     0x00000000        0x0 c:/a/gcc_arm/6/bin/../lib/gcc/arm-none-eabi/6.3.1/../../../../arm-none-eabi/lib/thumb/v7e-m/fpv4-sp/hard/crt0.o
 .text          0x00000000        0x0 examples/dfu/CMakeFiles/dfu_nrf52832_xxAA_s132_3.1.0.dir/src/main.c.obj
 .data          0x00000000        0x0 examples/dfu/CMakeFiles/dfu_nrf52832_xxAA_s132_3.1.0.dir/src/main.c.obj
 .bss           0x00000000        0x0 examples/dfu/CMakeFiles/dfu_nrf52832_xxAA_s132_3.1.0.dir/src/main.c.obj
 .text          0x00000000        0x0 examples/dfu/CMakeFiles/dfu_nrf52832_xxAA_s132_3.1.0.dir/__/nrf_mesh_sdk.c.obj
 .data          0x00000000        0x0 examples/dfu/CMakeFiles/dfu_nrf52832_xxAA_s132_3.1.0.dir/__/nrf_mesh_sdk.c.obj
 .bss           0x00000000        0x0 examples/dfu/CMakeFiles/dfu_nrf52832_xxAA_s132_3.1.0.dir/__/nrf_mesh_sdk.c.obj
 .text          0x00000000        0x0 examples/dfu/CMakeFiles/dfu_nrf52832_xxAA_s132_3.1.0.dir/__/__/mesh/access/src/access_publish.c.obj
 .data          0x00000000        0x0 examples/dfu/CMakeFiles/dfu_nrf52832_xxAA_s132_3.1.0.dir/__/__/mesh/access/src/access_publish.c.obj
 .bss           0x00000000        0x0 examples/dfu/CMakeFiles/dfu_nrf52832_xxAA_s132_3.1.0.dir/__/__/mesh/access/src/access_publish.c.obj
 .text.publish_timer_tick
                0x00000000       0xbc examples/dfu/CMakeFiles/dfu_nrf52832_xxAA_s132_3.1.0.dir/__/__/mesh/access/src/access_publish.c.obj
 .text.access_publish_init
                0x00000000       0x38 examples/dfu/CMakeFiles/dfu_nrf52832_xxAA_s132_3.1.0.dir/__/__/mesh/access/src/access_publish.c.obj
 .text          0x00000000        0x0 examples/dfu/CMakeFiles/dfu_nrf52832_xxAA_s132_3.1.0.dir/__/__/mesh/access/src/access.c.obj
 .data          0x00000000        0x0 examples/dfu/CMakeFiles/dfu_nrf52832_xxAA_s132_3.1.0.dir/__/__/mesh/access/src/access.c.obj
 .bss           0x00000000        0x0 examples/dfu/CMakeFiles/dfu_nrf52832_xxAA_s132_3.1.0.dir/__/__/mesh/access/src/access.c.obj
 .text.is_valid_opcode
                0x00000000       0x42 examples/dfu/CMakeFiles/dfu_nrf52832_xxAA_s132_3.1.0.dir/__/__/mesh/access/src/access.c.obj
 .text.flash_invalidate_complete
                0x00000000       0x14 examples/dfu/CMakeFiles/dfu_nrf52832_xxAA_s132_3.1.0.dir/__/__/mesh/access/src/access.c.obj
 .text.restore_acquired_subscription
                0x00000000       0x30 examples/dfu/CMakeFiles/dfu_nrf52832_xxAA_s132_3.1.0.dir/__/__/mesh/access/src/access.c.obj
 .text.restore_acquired_element
                0x00000000       0x1c examples/dfu/CMakeFiles/dfu_nrf52832_xxAA_s132_3.1.0.dir/__/__/mesh/access/src/access.c.obj
 .text.restore_flash_data
                0x00000000       0x5c examples/dfu/CMakeFiles/dfu_nrf52832_xxAA_s132_3.1.0.dir/__/__/mesh/access/src/access.c.obj
 .text.add_flash_manager
                0x00000000       0x58 examples/dfu/CMakeFiles/dfu_nrf52832_xxAA_s132_3.1.0.dir/__/__/mesh/access/src/access.c.obj
 .text.flash_remove_complete
                0x00000000       0x5c examples/dfu/CMakeFiles/dfu_nrf52832_xxAA_s132_3.1.0.dir/__/__/mesh/access/src/access.c.obj
 .text.flash_write_complete
                0x00000000       0x54 examples/dfu/CMakeFiles/dfu_nrf52832_xxAA_s132_3.1.0.dir/__/__/mesh/access/src/access.c.obj
 .text.unlikely.bitfield_next_get.part.0.constprop.3
                0x00000000       0x34 examples/dfu/CMakeFiles/dfu_nrf52832_xxAA_s132_3.1.0.dir/__/__/mesh/access/src/access.c.obj
 .text.restore_acquired_model
                0x00000000       0x94 examples/dfu/CMakeFiles/dfu_nrf52832_xxAA_s132_3.1.0.dir/__/__/mesh/access/src/access.c.obj
 .text.handle_incoming
                0x00000000      0x158 examples/dfu/CMakeFiles/dfu_nrf52832_xxAA_s132_3.1.0.dir/__/__/mesh/access/src/access.c.obj
 .text.mesh_evt_cb
                0x00000000      0x134 examples/dfu/CMakeFiles/dfu_nrf52832_xxAA_s132_3.1.0.dir/__/__/mesh/access/src/access.c.obj
 .text.packet_tx
                0x00000000      0x2c0 examples/dfu/CMakeFiles/dfu_nrf52832_xxAA_s132_3.1.0.dir/__/__/mesh/access/src/access.c.obj
 .text.access_flash_config_load
                0x00000000      0x128 examples/dfu/CMakeFiles/dfu_nrf52832_xxAA_s132_3.1.0.dir/__/__/mesh/access/src/access.c.obj
 .text.access_init
                0x00000000       0x28 examples/dfu/CMakeFiles/dfu_nrf52832_xxAA_s132_3.1.0.dir/__/__/mesh/access/src/access.c.obj
 .text.access_model_add
                0x00000000      0x1b4 examples/dfu/CMakeFiles/dfu_nrf52832_xxAA_s132_3.1.0.dir/__/__/mesh/access/src/access.c.obj
 .text.access_model_publish
                0x00000000        0xc examples/dfu/CMakeFiles/dfu_nrf52832_xxAA_s132_3.1.0.dir/__/__/mesh/access/src/access.c.obj
 .text.access_model_reply
                0x00000000       0x12 examples/dfu/CMakeFiles/dfu_nrf52832_xxAA_s132_3.1.0.dir/__/__/mesh/access/src/access.c.obj
 .text.access_model_subscription_list_alloc
                0x00000000       0x50 examples/dfu/CMakeFiles/dfu_nrf52832_xxAA_s132_3.1.0.dir/__/__/mesh/access/src/access.c.obj
 .text.access_model_subscription_lists_share
                0x00000000       0x4c examples/dfu/CMakeFiles/dfu_nrf52832_xxAA_s132_3.1.0.dir/__/__/mesh/access/src/access.c.obj
 .text.access_default_ttl_set
                0x00000000       0x10 examples/dfu/CMakeFiles/dfu_nrf52832_xxAA_s132_3.1.0.dir/__/__/mesh/access/src/access.c.obj
 .text.access_default_ttl_get
                0x00000000        0xc examples/dfu/CMakeFiles/dfu_nrf52832_xxAA_s132_3.1.0.dir/__/__/mesh/access/src/access.c.obj
 .text.access_model_p_args_get
                0x00000000       0x28 examples/dfu/CMakeFiles/dfu_nrf52832_xxAA_s132_3.1.0.dir/__/__/mesh/access/src/access.c.obj
 .bss.m_evt_handler
                0x00000000        0x8 examples/dfu/CMakeFiles/dfu_nrf52832_xxAA_s132_3.1.0.dir/__/__/mesh/access/src/access.c.obj
 .data.flash_add_mem_available_struct.10233
                0x00000000       0x10 examples/dfu/CMakeFiles/dfu_nrf52832_xxAA_s132_3.1.0.dir/__/__/mesh/access/src/access.c.obj
 .data.m_default_ttl
                0x00000000        0x1 examples/dfu/CMakeFiles/dfu_nrf52832_xxAA_s132_3.1.0.dir/__/__/mesh/access/src/access.c.obj
 .rodata.mesh_evt_cb.str1.1
                0x00000000       0x2f examples/dfu/CMakeFiles/dfu_nrf52832_xxAA_s132_3.1.0.dir/__/__/mesh/access/src/access.c.obj
 .rodata.multiply_de_bruijn_bit_position.8982
                0x00000000       0x20 examples/dfu/CMakeFiles/dfu_nrf52832_xxAA_s132_3.1.0.dir/__/__/mesh/access/src/access.c.obj
 .rodata.packet_tx.str1.1
                0x00000000       0x13 examples/dfu/CMakeFiles/dfu_nrf52832_xxAA_s132_3.1.0.dir/__/__/mesh/access/src/access.c.obj
 .text          0x00000000        0x0 examples/dfu/CMakeFiles/dfu_nrf52832_xxAA_s132_3.1.0.dir/__/__/mesh/access/src/access_reliable.c.obj
 .data          0x00000000        0x0 examples/dfu/CMakeFiles/dfu_nrf52832_xxAA_s132_3.1.0.dir/__/__/mesh/access/src/access_reliable.c.obj
 .bss           0x00000000        0x0 examples/dfu/CMakeFiles/dfu_nrf52832_xxAA_s132_3.1.0.dir/__/__/mesh/access/src/access_reliable.c.obj
 .text.remove_and_reschedule
                0x00000000       0xd8 examples/dfu/CMakeFiles/dfu_nrf52832_xxAA_s132_3.1.0.dir/__/__/mesh/access/src/access_reliable.c.obj
 .text.reliable_timer_cb
                0x00000000      0x148 examples/dfu/CMakeFiles/dfu_nrf52832_xxAA_s132_3.1.0.dir/__/__/mesh/access/src/access_reliable.c.obj
 .text.access_reliable_message_rx_cb
                0x00000000       0x84 examples/dfu/CMakeFiles/dfu_nrf52832_xxAA_s132_3.1.0.dir/__/__/mesh/access/src/access_reliable.c.obj
 .text.access_reliable_init
                0x00000000       0x1c examples/dfu/CMakeFiles/dfu_nrf52832_xxAA_s132_3.1.0.dir/__/__/mesh/access/src/access_reliable.c.obj
 .text.access_model_reliable_cancel
                0x00000000       0x4c examples/dfu/CMakeFiles/dfu_nrf52832_xxAA_s132_3.1.0.dir/__/__/mesh/access/src/access_reliable.c.obj
 .text.access_model_reliable_publish
                0x00000000      0x1b8 examples/dfu/CMakeFiles/dfu_nrf52832_xxAA_s132_3.1.0.dir/__/__/mesh/access/src/access_reliable.c.obj
 .text          0x00000000        0x0 examples/dfu/CMakeFiles/dfu_nrf52832_xxAA_s132_3.1.0.dir/__/__/mesh/access/src/device_state_manager.c.obj
 .data          0x00000000        0x0 examples/dfu/CMakeFiles/dfu_nrf52832_xxAA_s132_3.1.0.dir/__/__/mesh/access/src/device_state_manager.c.obj
 .bss           0x00000000        0x0 examples/dfu/CMakeFiles/dfu_nrf52832_xxAA_s132_3.1.0.dir/__/__/mesh/access/src/device_state_manager.c.obj
 .text.bitfield_is_all_clear
                0x00000000       0x3c examples/dfu/CMakeFiles/dfu_nrf52832_xxAA_s132_3.1.0.dir/__/__/mesh/access/src/device_state_manager.c.obj
 .text.flash_update_all
                0x00000000       0x6c examples/dfu/CMakeFiles/dfu_nrf52832_xxAA_s132_3.1.0.dir/__/__/mesh/access/src/device_state_manager.c.obj
 .text.flash_operation_complete
                0x00000000       0x58 examples/dfu/CMakeFiles/dfu_nrf52832_xxAA_s132_3.1.0.dir/__/__/mesh/access/src/device_state_manager.c.obj
 .text.flash_invalidate_complete
                0x00000000        0x8 examples/dfu/CMakeFiles/dfu_nrf52832_xxAA_s132_3.1.0.dir/__/__/mesh/access/src/device_state_manager.c.obj
 .text.flash_write_complete
                0x00000000        0x8 examples/dfu/CMakeFiles/dfu_nrf52832_xxAA_s132_3.1.0.dir/__/__/mesh/access/src/device_state_manager.c.obj
 .text.dsm_flash_config_load
                0x00000000      0x114 examples/dfu/CMakeFiles/dfu_nrf52832_xxAA_s132_3.1.0.dir/__/__/mesh/access/src/device_state_manager.c.obj
 .text.dsm_has_unflashed_data
                0x00000000       0x24 examples/dfu/CMakeFiles/dfu_nrf52832_xxAA_s132_3.1.0.dir/__/__/mesh/access/src/device_state_manager.c.obj
 .text.dsm_flash_area_get
                0x00000000        0xc examples/dfu/CMakeFiles/dfu_nrf52832_xxAA_s132_3.1.0.dir/__/__/mesh/access/src/device_state_manager.c.obj
 .text.build_flash_area
                0x00000000       0x8c examples/dfu/CMakeFiles/dfu_nrf52832_xxAA_s132_3.1.0.dir/__/__/mesh/access/src/device_state_manager.c.obj
 .text.dsm_init
                0x00000000       0x24 examples/dfu/CMakeFiles/dfu_nrf52832_xxAA_s132_3.1.0.dir/__/__/mesh/access/src/device_state_manager.c.obj
 .text.flash_remove_complete
                0x00000000        0x4 examples/dfu/CMakeFiles/dfu_nrf52832_xxAA_s132_3.1.0.dir/__/__/mesh/access/src/device_state_manager.c.obj
 .text.dsm_address_publish_add_handle
                0x00000000       0x38 examples/dfu/CMakeFiles/dfu_nrf52832_xxAA_s132_3.1.0.dir/__/__/mesh/access/src/device_state_manager.c.obj
 .text.dsm_address_subscription_add_handle
                0x00000000       0x38 examples/dfu/CMakeFiles/dfu_nrf52832_xxAA_s132_3.1.0.dir/__/__/mesh/access/src/device_state_manager.c.obj
 .text.dsm_address_subscription_count_get
                0x00000000       0x58 examples/dfu/CMakeFiles/dfu_nrf52832_xxAA_s132_3.1.0.dir/__/__/mesh/access/src/device_state_manager.c.obj
 .text.dsm_net_key_index_to_subnet_handle
                0x00000000       0x1c examples/dfu/CMakeFiles/dfu_nrf52832_xxAA_s132_3.1.0.dir/__/__/mesh/access/src/device_state_manager.c.obj
 .text.dsm_subnet_handle_to_netkey_index
                0x00000000       0x34 examples/dfu/CMakeFiles/dfu_nrf52832_xxAA_s132_3.1.0.dir/__/__/mesh/access/src/device_state_manager.c.obj
 .text.dsm_app_key_index_to_appkey_handle
                0x00000000       0x1c examples/dfu/CMakeFiles/dfu_nrf52832_xxAA_s132_3.1.0.dir/__/__/mesh/access/src/device_state_manager.c.obj
 .text.dsm_appkey_handle_to_appkey_index
                0x00000000       0x34 examples/dfu/CMakeFiles/dfu_nrf52832_xxAA_s132_3.1.0.dir/__/__/mesh/access/src/device_state_manager.c.obj
 .text.dsm_devkey_handle_get
                0x00000000       0x34 examples/dfu/CMakeFiles/dfu_nrf52832_xxAA_s132_3.1.0.dir/__/__/mesh/access/src/device_state_manager.c.obj
 .text.dsm_beacon_secmat_get
                0x00000000       0x38 examples/dfu/CMakeFiles/dfu_nrf52832_xxAA_s132_3.1.0.dir/__/__/mesh/access/src/device_state_manager.c.obj
 .text.dsm_proxy_identity_get
                0x00000000        0x4 examples/dfu/CMakeFiles/dfu_nrf52832_xxAA_s132_3.1.0.dir/__/__/mesh/access/src/device_state_manager.c.obj
 .data.mem_listener.10511
                0x00000000       0x10 examples/dfu/CMakeFiles/dfu_nrf52832_xxAA_s132_3.1.0.dir/__/__/mesh/access/src/device_state_manager.c.obj
 .text          0x00000000        0x0 examples/dfu/CMakeFiles/dfu_nrf52832_xxAA_s132_3.1.0.dir/__/__/mesh/serial/src/serial_uart.c.obj
 .data          0x00000000        0x0 examples/dfu/CMakeFiles/dfu_nrf52832_xxAA_s132_3.1.0.dir/__/__/mesh/serial/src/serial_uart.c.obj
 .bss           0x00000000        0x0 examples/dfu/CMakeFiles/dfu_nrf52832_xxAA_s132_3.1.0.dir/__/__/mesh/serial/src/serial_uart.c.obj
 .text          0x00000000        0x0 examples/dfu/CMakeFiles/dfu_nrf52832_xxAA_s132_3.1.0.dir/__/__/mesh/serial/src/serial_bearer.c.obj
 .data          0x00000000        0x0 examples/dfu/CMakeFiles/dfu_nrf52832_xxAA_s132_3.1.0.dir/__/__/mesh/serial/src/serial_bearer.c.obj
 .bss           0x00000000        0x0 examples/dfu/CMakeFiles/dfu_nrf52832_xxAA_s132_3.1.0.dir/__/__/mesh/serial/src/serial_bearer.c.obj
 .text.serial_bearer_rx_pending
                0x00000000        0xc examples/dfu/CMakeFiles/dfu_nrf52832_xxAA_s132_3.1.0.dir/__/__/mesh/serial/src/serial_bearer.c.obj
 .text          0x00000000        0x0 examples/dfu/CMakeFiles/dfu_nrf52832_xxAA_s132_3.1.0.dir/__/__/mesh/serial/src/serial_handler_common.c.obj
 .data          0x00000000        0x0 examples/dfu/CMakeFiles/dfu_nrf52832_xxAA_s132_3.1.0.dir/__/__/mesh/serial/src/serial_handler_common.c.obj
 .bss           0x00000000        0x0 examples/dfu/CMakeFiles/dfu_nrf52832_xxAA_s132_3.1.0.dir/__/__/mesh/serial/src/serial_handler_common.c.obj
 .text          0x00000000        0x0 examples/dfu/CMakeFiles/dfu_nrf52832_xxAA_s132_3.1.0.dir/__/__/mesh/serial/src/serial_handler_access.c.obj
 .data          0x00000000        0x0 examples/dfu/CMakeFiles/dfu_nrf52832_xxAA_s132_3.1.0.dir/__/__/mesh/serial/src/serial_handler_access.c.obj
 .bss           0x00000000        0x0 examples/dfu/CMakeFiles/dfu_nrf52832_xxAA_s132_3.1.0.dir/__/__/mesh/serial/src/serial_handler_access.c.obj
 .text          0x00000000        0x0 examples/dfu/CMakeFiles/dfu_nrf52832_xxAA_s132_3.1.0.dir/__/__/mesh/serial/src/serial_handler_config.c.obj
 .data          0x00000000        0x0 examples/dfu/CMakeFiles/dfu_nrf52832_xxAA_s132_3.1.0.dir/__/__/mesh/serial/src/serial_handler_config.c.obj
 .bss           0x00000000        0x0 examples/dfu/CMakeFiles/dfu_nrf52832_xxAA_s132_3.1.0.dir/__/__/mesh/serial/src/serial_handler_config.c.obj
 .text          0x00000000        0x0 examples/dfu/CMakeFiles/dfu_nrf52832_xxAA_s132_3.1.0.dir/__/__/mesh/serial/src/serial_handler_openmesh.c.obj
 .data          0x00000000        0x0 examples/dfu/CMakeFiles/dfu_nrf52832_xxAA_s132_3.1.0.dir/__/__/mesh/serial/src/serial_handler_openmesh.c.obj
 .bss           0x00000000        0x0 examples/dfu/CMakeFiles/dfu_nrf52832_xxAA_s132_3.1.0.dir/__/__/mesh/serial/src/serial_handler_openmesh.c.obj
 .text          0x00000000        0x0 examples/dfu/CMakeFiles/dfu_nrf52832_xxAA_s132_3.1.0.dir/__/__/mesh/serial/src/serial.c.obj
 .data          0x00000000        0x0 examples/dfu/CMakeFiles/dfu_nrf52832_xxAA_s132_3.1.0.dir/__/__/mesh/serial/src/serial.c.obj
 .bss           0x00000000        0x0 examples/dfu/CMakeFiles/dfu_nrf52832_xxAA_s132_3.1.0.dir/__/__/mesh/serial/src/serial.c.obj
 .text          0x00000000        0x0 examples/dfu/CMakeFiles/dfu_nrf52832_xxAA_s132_3.1.0.dir/__/__/mesh/serial/src/serial_handler_prov.c.obj
 .data          0x00000000        0x0 examples/dfu/CMakeFiles/dfu_nrf52832_xxAA_s132_3.1.0.dir/__/__/mesh/serial/src/serial_handler_prov.c.obj
 .bss           0x00000000        0x0 examples/dfu/CMakeFiles/dfu_nrf52832_xxAA_s132_3.1.0.dir/__/__/mesh/serial/src/serial_handler_prov.c.obj
 .text.serial_handler_prov_context_get
                0x00000000       0x1c examples/dfu/CMakeFiles/dfu_nrf52832_xxAA_s132_3.1.0.dir/__/__/mesh/serial/src/serial_handler_prov.c.obj
 .text.serial_handler_prov_keys_get
                0x00000000       0x14 examples/dfu/CMakeFiles/dfu_nrf52832_xxAA_s132_3.1.0.dir/__/__/mesh/serial/src/serial_handler_prov.c.obj
 .text.serial_handler_prov_oob_caps_get
                0x00000000        0xc examples/dfu/CMakeFiles/dfu_nrf52832_xxAA_s132_3.1.0.dir/__/__/mesh/serial/src/serial_handler_prov.c.obj
 .text          0x00000000        0x0 examples/dfu/CMakeFiles/dfu_nrf52832_xxAA_s132_3.1.0.dir/__/__/mesh/serial/src/serial_handler_dfu.c.obj
 .data          0x00000000        0x0 examples/dfu/CMakeFiles/dfu_nrf52832_xxAA_s132_3.1.0.dir/__/__/mesh/serial/src/serial_handler_dfu.c.obj
 .bss           0x00000000        0x0 examples/dfu/CMakeFiles/dfu_nrf52832_xxAA_s132_3.1.0.dir/__/__/mesh/serial/src/serial_handler_dfu.c.obj
 .text          0x00000000        0x0 examples/dfu/CMakeFiles/dfu_nrf52832_xxAA_s132_3.1.0.dir/__/__/mesh/serial/src/serial_handler_mesh.c.obj
 .data          0x00000000        0x0 examples/dfu/CMakeFiles/dfu_nrf52832_xxAA_s132_3.1.0.dir/__/__/mesh/serial/src/serial_handler_mesh.c.obj
 .bss           0x00000000        0x0 examples/dfu/CMakeFiles/dfu_nrf52832_xxAA_s132_3.1.0.dir/__/__/mesh/serial/src/serial_handler_mesh.c.obj
 .text          0x00000000        0x0 examples/dfu/CMakeFiles/dfu_nrf52832_xxAA_s132_3.1.0.dir/__/__/mesh/serial/src/serial_handler_models.c.obj
 .data          0x00000000        0x0 examples/dfu/CMakeFiles/dfu_nrf52832_xxAA_s132_3.1.0.dir/__/__/mesh/serial/src/serial_handler_models.c.obj
 .bss           0x00000000        0x0 examples/dfu/CMakeFiles/dfu_nrf52832_xxAA_s132_3.1.0.dir/__/__/mesh/serial/src/serial_handler_models.c.obj
 .text.serial_handler_models_register
                0x00000000       0x34 examples/dfu/CMakeFiles/dfu_nrf52832_xxAA_s132_3.1.0.dir/__/__/mesh/serial/src/serial_handler_models.c.obj
 .text          0x00000000        0x0 examples/dfu/CMakeFiles/dfu_nrf52832_xxAA_s132_3.1.0.dir/__/__/mesh/serial/src/serial_handler_device.c.obj
 .data          0x00000000        0x0 examples/dfu/CMakeFiles/dfu_nrf52832_xxAA_s132_3.1.0.dir/__/__/mesh/serial/src/serial_handler_device.c.obj
 .bss           0x00000000        0x0 examples/dfu/CMakeFiles/dfu_nrf52832_xxAA_s132_3.1.0.dir/__/__/mesh/serial/src/serial_handler_device.c.obj
 .text          0x00000000        0x0 examples/dfu/CMakeFiles/dfu_nrf52832_xxAA_s132_3.1.0.dir/__/__/mesh/serial/src/nrf_mesh_serial.c.obj
 .data          0x00000000        0x0 examples/dfu/CMakeFiles/dfu_nrf52832_xxAA_s132_3.1.0.dir/__/__/mesh/serial/src/nrf_mesh_serial.c.obj
 .bss           0x00000000        0x0 examples/dfu/CMakeFiles/dfu_nrf52832_xxAA_s132_3.1.0.dir/__/__/mesh/serial/src/nrf_mesh_serial.c.obj
 .text.nrf_mesh_serial_state_get
                0x00000000        0x4 examples/dfu/CMakeFiles/dfu_nrf52832_xxAA_s132_3.1.0.dir/__/__/mesh/serial/src/nrf_mesh_serial.c.obj
 .text.nrf_mesh_serial_tx
                0x00000000       0x60 examples/dfu/CMakeFiles/dfu_nrf52832_xxAA_s132_3.1.0.dir/__/__/mesh/serial/src/nrf_mesh_serial.c.obj
 .text          0x00000000        0x0 examples/dfu/CMakeFiles/dfu_nrf52832_xxAA_s132_3.1.0.dir/__/__/mesh/serial/src/serial_handler_app.c.obj
 .data          0x00000000        0x0 examples/dfu/CMakeFiles/dfu_nrf52832_xxAA_s132_3.1.0.dir/__/__/mesh/serial/src/serial_handler_app.c.obj
 .bss           0x00000000        0x0 examples/dfu/CMakeFiles/dfu_nrf52832_xxAA_s132_3.1.0.dir/__/__/mesh/serial/src/serial_handler_app.c.obj
 .text          0x00000000        0x0 examples/dfu/CMakeFiles/dfu_nrf52832_xxAA_s132_3.1.0.dir/__/__/mesh/prov/src/prov_provisioner.c.obj
 .data          0x00000000        0x0 examples/dfu/CMakeFiles/dfu_nrf52832_xxAA_s132_3.1.0.dir/__/__/mesh/prov/src/prov_provisioner.c.obj
 .bss           0x00000000        0x0 examples/dfu/CMakeFiles/dfu_nrf52832_xxAA_s132_3.1.0.dir/__/__/mesh/prov/src/prov_provisioner.c.obj
 .text.prov_provisioner_oob_pubkey
                0x00000000       0x34 examples/dfu/CMakeFiles/dfu_nrf52832_xxAA_s132_3.1.0.dir/__/__/mesh/prov/src/prov_provisioner.c.obj
 .text          0x00000000        0x0 examples/dfu/CMakeFiles/dfu_nrf52832_xxAA_s132_3.1.0.dir/__/__/mesh/prov/src/prov_provisionee.c.obj
 .data          0x00000000        0x0 examples/dfu/CMakeFiles/dfu_nrf52832_xxAA_s132_3.1.0.dir/__/__/mesh/prov/src/prov_provisionee.c.obj
 .bss           0x00000000        0x0 examples/dfu/CMakeFiles/dfu_nrf52832_xxAA_s132_3.1.0.dir/__/__/mesh/prov/src/prov_provisionee.c.obj
 .text          0x00000000        0x0 examples/dfu/CMakeFiles/dfu_nrf52832_xxAA_s132_3.1.0.dir/__/__/mesh/prov/src/nrf_mesh_prov.c.obj
 .data          0x00000000        0x0 examples/dfu/CMakeFiles/dfu_nrf52832_xxAA_s132_3.1.0.dir/__/__/mesh/prov/src/nrf_mesh_prov.c.obj
 .bss           0x00000000        0x0 examples/dfu/CMakeFiles/dfu_nrf52832_xxAA_s132_3.1.0.dir/__/__/mesh/prov/src/nrf_mesh_prov.c.obj
 .text.nrf_mesh_prov_pubkey_provide
                0x00000000       0x10 examples/dfu/CMakeFiles/dfu_nrf52832_xxAA_s132_3.1.0.dir/__/__/mesh/prov/src/nrf_mesh_prov.c.obj
 .text          0x00000000        0x0 examples/dfu/CMakeFiles/dfu_nrf52832_xxAA_s132_3.1.0.dir/__/__/mesh/prov/src/provisioning.c.obj
 .data          0x00000000        0x0 examples/dfu/CMakeFiles/dfu_nrf52832_xxAA_s132_3.1.0.dir/__/__/mesh/prov/src/provisioning.c.obj
 .bss           0x00000000        0x0 examples/dfu/CMakeFiles/dfu_nrf52832_xxAA_s132_3.1.0.dir/__/__/mesh/prov/src/provisioning.c.obj
 .text.prov_listen_stop
                0x00000000        0x8 examples/dfu/CMakeFiles/dfu_nrf52832_xxAA_s132_3.1.0.dir/__/__/mesh/prov/src/provisioning.c.obj
 .text.prov_tx  0x00000000        0x4 examples/dfu/CMakeFiles/dfu_nrf52832_xxAA_s132_3.1.0.dir/__/__/mesh/prov/src/provisioning.c.obj
 .text          0x00000000        0x0 examples/dfu/CMakeFiles/dfu_nrf52832_xxAA_s132_3.1.0.dir/__/__/mesh/prov/src/prov_beacon.c.obj
 .data          0x00000000        0x0 examples/dfu/CMakeFiles/dfu_nrf52832_xxAA_s132_3.1.0.dir/__/__/mesh/prov/src/prov_beacon.c.obj
 .bss           0x00000000        0x0 examples/dfu/CMakeFiles/dfu_nrf52832_xxAA_s132_3.1.0.dir/__/__/mesh/prov/src/prov_beacon.c.obj
 .text.prov_beacon_unprov_report
                0x00000000        0xc examples/dfu/CMakeFiles/dfu_nrf52832_xxAA_s132_3.1.0.dir/__/__/mesh/prov/src/prov_beacon.c.obj
 .text          0x00000000        0x0 examples/dfu/CMakeFiles/dfu_nrf52832_xxAA_s132_3.1.0.dir/__/__/mesh/prov/src/prov_utils.c.obj
 .data          0x00000000        0x0 examples/dfu/CMakeFiles/dfu_nrf52832_xxAA_s132_3.1.0.dir/__/__/mesh/prov/src/prov_utils.c.obj
 .bss           0x00000000        0x0 examples/dfu/CMakeFiles/dfu_nrf52832_xxAA_s132_3.1.0.dir/__/__/mesh/prov/src/prov_utils.c.obj
 .text.prov_utils_opt_set
                0x00000000       0x20 examples/dfu/CMakeFiles/dfu_nrf52832_xxAA_s132_3.1.0.dir/__/__/mesh/prov/src/prov_utils.c.obj
 .text.prov_utils_opt_get
                0x00000000       0x1c examples/dfu/CMakeFiles/dfu_nrf52832_xxAA_s132_3.1.0.dir/__/__/mesh/prov/src/prov_utils.c.obj
 .text          0x00000000        0x0 examples/dfu/CMakeFiles/dfu_nrf52832_xxAA_s132_3.1.0.dir/__/__/mesh/prov/src/prov_bearer_adv.c.obj
 .data          0x00000000        0x0 examples/dfu/CMakeFiles/dfu_nrf52832_xxAA_s132_3.1.0.dir/__/__/mesh/prov/src/prov_bearer_adv.c.obj
 .bss           0x00000000        0x0 examples/dfu/CMakeFiles/dfu_nrf52832_xxAA_s132_3.1.0.dir/__/__/mesh/prov/src/prov_bearer_adv.c.obj
 .text          0x00000000        0x0 examples/dfu/CMakeFiles/dfu_nrf52832_xxAA_s132_3.1.0.dir/__/__/mesh/dfu/src/nrf_mesh_dfu.c.obj
 .data          0x00000000        0x0 examples/dfu/CMakeFiles/dfu_nrf52832_xxAA_s132_3.1.0.dir/__/__/mesh/dfu/src/nrf_mesh_dfu.c.obj
 .bss           0x00000000        0x0 examples/dfu/CMakeFiles/dfu_nrf52832_xxAA_s132_3.1.0.dir/__/__/mesh/dfu/src/nrf_mesh_dfu.c.obj
 .text          0x00000000        0x0 examples/dfu/CMakeFiles/dfu_nrf52832_xxAA_s132_3.1.0.dir/__/nrf_mesh_weak.c.obj
 .data          0x00000000        0x0 examples/dfu/CMakeFiles/dfu_nrf52832_xxAA_s132_3.1.0.dir/__/nrf_mesh_weak.c.obj
 .bss           0x00000000        0x0 examples/dfu/CMakeFiles/dfu_nrf52832_xxAA_s132_3.1.0.dir/__/nrf_mesh_weak.c.obj
 .text._weak_handler
                0x00000000        0x4 examples/dfu/CMakeFiles/dfu_nrf52832_xxAA_s132_3.1.0.dir/__/nrf_mesh_weak.c.obj
 .text._weak_handler_ptr
                0x00000000        0x4 examples/dfu/CMakeFiles/dfu_nrf52832_xxAA_s132_3.1.0.dir/__/nrf_mesh_weak.c.obj
 .comment       0x00000000       0x80 examples/dfu/CMakeFiles/dfu_nrf52832_xxAA_s132_3.1.0.dir/__/nrf_mesh_weak.c.obj
 .ARM.attributes
                0x00000000       0x39 examples/dfu/CMakeFiles/dfu_nrf52832_xxAA_s132_3.1.0.dir/__/nrf_mesh_weak.c.obj
 .text          0x00000000        0x0 examples/dfu/CMakeFiles/dfu_nrf52832_xxAA_s132_3.1.0.dir/__/__/external/nRF5_SDK_14.0.0_3bcc1f7/components/toolchain/system_nrf52.c.obj
 .data          0x00000000        0x0 examples/dfu/CMakeFiles/dfu_nrf52832_xxAA_s132_3.1.0.dir/__/__/external/nRF5_SDK_14.0.0_3bcc1f7/components/toolchain/system_nrf52.c.obj
 .bss           0x00000000        0x0 examples/dfu/CMakeFiles/dfu_nrf52832_xxAA_s132_3.1.0.dir/__/__/external/nRF5_SDK_14.0.0_3bcc1f7/components/toolchain/system_nrf52.c.obj
 .text.SystemCoreClockUpdate
                0x00000000       0x10 examples/dfu/CMakeFiles/dfu_nrf52832_xxAA_s132_3.1.0.dir/__/__/external/nRF5_SDK_14.0.0_3bcc1f7/components/toolchain/system_nrf52.c.obj
 .data          0x00000000        0x0 examples/dfu/CMakeFiles/dfu_nrf52832_xxAA_s132_3.1.0.dir/__/__/external/nRF5_SDK_14.0.0_3bcc1f7/components/toolchain/gcc/gcc_startup_nrf52.S.obj
 .bss           0x00000000        0x0 examples/dfu/CMakeFiles/dfu_nrf52832_xxAA_s132_3.1.0.dir/__/__/external/nRF5_SDK_14.0.0_3bcc1f7/components/toolchain/gcc/gcc_startup_nrf52.S.obj
 .text          0x00000000        0x0 mesh/core/libmesh_core_nrf52832_xxAA.a(internal_event.c.obj)
 .data          0x00000000        0x0 mesh/core/libmesh_core_nrf52832_xxAA.a(internal_event.c.obj)
 .bss           0x00000000        0x0 mesh/core/libmesh_core_nrf52832_xxAA.a(internal_event.c.obj)
 .text.internal_event_pop
                0x00000000       0x1c mesh/core/libmesh_core_nrf52832_xxAA.a(internal_event.c.obj)
 .text          0x00000000        0x0 mesh/core/libmesh_core_nrf52832_xxAA.a(nrf_mesh_configure.c.obj)
 .data          0x00000000        0x0 mesh/core/libmesh_core_nrf52832_xxAA.a(nrf_mesh_configure.c.obj)
 .bss           0x00000000        0x0 mesh/core/libmesh_core_nrf52832_xxAA.a(nrf_mesh_configure.c.obj)
 .text          0x00000000        0x0 mesh/core/libmesh_core_nrf52832_xxAA.a(event.c.obj)
 .data          0x00000000        0x0 mesh/core/libmesh_core_nrf52832_xxAA.a(event.c.obj)
 .bss           0x00000000        0x0 mesh/core/libmesh_core_nrf52832_xxAA.a(event.c.obj)
 .text.event_handler_remove
                0x00000000       0x58 mesh/core/libmesh_core_nrf52832_xxAA.a(event.c.obj)
 .text          0x00000000        0x0 mesh/core/libmesh_core_nrf52832_xxAA.a(packet_buffer.c.obj)
 .data          0x00000000        0x0 mesh/core/libmesh_core_nrf52832_xxAA.a(packet_buffer.c.obj)
 .bss           0x00000000        0x0 mesh/core/libmesh_core_nrf52832_xxAA.a(packet_buffer.c.obj)
 .text          0x00000000        0x0 mesh/core/libmesh_core_nrf52832_xxAA.a(fifo.c.obj)
 .data          0x00000000        0x0 mesh/core/libmesh_core_nrf52832_xxAA.a(fifo.c.obj)
 .bss           0x00000000        0x0 mesh/core/libmesh_core_nrf52832_xxAA.a(fifo.c.obj)
 .text.fifo_peek_at
                0x00000000       0x50 mesh/core/libmesh_core_nrf52832_xxAA.a(fifo.c.obj)
 .text.fifo_peek
                0x00000000        0x6 mesh/core/libmesh_core_nrf52832_xxAA.a(fifo.c.obj)
 .text.fifo_flush
                0x00000000        0x6 mesh/core/libmesh_core_nrf52832_xxAA.a(fifo.c.obj)
 .text.fifo_get_len
                0x00000000        0x8 mesh/core/libmesh_core_nrf52832_xxAA.a(fifo.c.obj)
 .text.fifo_is_full
                0x00000000       0x10 mesh/core/libmesh_core_nrf52832_xxAA.a(fifo.c.obj)
 .text.fifo_is_empty
                0x00000000        0xc mesh/core/libmesh_core_nrf52832_xxAA.a(fifo.c.obj)
 .text          0x00000000        0x0 mesh/core/libmesh_core_nrf52832_xxAA.a(net_state.c.obj)
 .data          0x00000000        0x0 mesh/core/libmesh_core_nrf52832_xxAA.a(net_state.c.obj)
 .bss           0x00000000        0x0 mesh/core/libmesh_core_nrf52832_xxAA.a(net_state.c.obj)
 .text.net_state_iv_update_test_mode_set
                0x00000000        0xc mesh/core/libmesh_core_nrf52832_xxAA.a(net_state.c.obj)
 .text          0x00000000        0x0 mesh/core/libmesh_core_nrf52832_xxAA.a(mesh_flash.c.obj)
 .data          0x00000000        0x0 mesh/core/libmesh_core_nrf52832_xxAA.a(mesh_flash.c.obj)
 .bss           0x00000000        0x0 mesh/core/libmesh_core_nrf52832_xxAA.a(mesh_flash.c.obj)
 .text.mesh_flash_op_available_slots
                0x00000000       0x2c mesh/core/libmesh_core_nrf52832_xxAA.a(mesh_flash.c.obj)
 .text          0x00000000        0x0 mesh/core/libmesh_core_nrf52832_xxAA.a(nrf_mesh_utils.c.obj)
 .data          0x00000000        0x0 mesh/core/libmesh_core_nrf52832_xxAA.a(nrf_mesh_utils.c.obj)
 .bss           0x00000000        0x0 mesh/core/libmesh_core_nrf52832_xxAA.a(nrf_mesh_utils.c.obj)
 .text.nrf_mesh_rand_get
                0x00000000       0x10 mesh/core/libmesh_core_nrf52832_xxAA.a(nrf_mesh_utils.c.obj)
 .text.nrf_mesh_gap_address_type_get
                0x00000000       0x3c mesh/core/libmesh_core_nrf52832_xxAA.a(nrf_mesh_utils.c.obj)
 .text          0x00000000        0x0 mesh/core/libmesh_core_nrf52832_xxAA.a(nrf_mesh.c.obj)
 .data          0x00000000        0x0 mesh/core/libmesh_core_nrf52832_xxAA.a(nrf_mesh.c.obj)
 .bss           0x00000000        0x0 mesh/core/libmesh_core_nrf52832_xxAA.a(nrf_mesh.c.obj)
 .text.nrf_mesh_evt_handler_remove
                0x00000000        0x4 mesh/core/libmesh_core_nrf52832_xxAA.a(nrf_mesh.c.obj)
 .text.nrf_mesh_rx_cb_set
                0x00000000        0xc mesh/core/libmesh_core_nrf52832_xxAA.a(nrf_mesh.c.obj)
 .text.nrf_mesh_rx_cb_clear
                0x00000000        0xc mesh/core/libmesh_core_nrf52832_xxAA.a(nrf_mesh.c.obj)
 .text          0x00000000        0x0 mesh/core/libmesh_core_nrf52832_xxAA.a(hal.c.obj)
 .data          0x00000000        0x0 mesh/core/libmesh_core_nrf52832_xxAA.a(hal.c.obj)
 .bss           0x00000000        0x0 mesh/core/libmesh_core_nrf52832_xxAA.a(hal.c.obj)
 .text          0x00000000        0x0 mesh/core/libmesh_core_nrf52832_xxAA.a(timer_scheduler.c.obj)
 .data          0x00000000        0x0 mesh/core/libmesh_core_nrf52832_xxAA.a(timer_scheduler.c.obj)
 .bss           0x00000000        0x0 mesh/core/libmesh_core_nrf52832_xxAA.a(timer_scheduler.c.obj)
 .text          0x00000000        0x0 mesh/core/libmesh_core_nrf52832_xxAA.a(timer.c.obj)
 .data          0x00000000        0x0 mesh/core/libmesh_core_nrf52832_xxAA.a(timer.c.obj)
 .bss           0x00000000        0x0 mesh/core/libmesh_core_nrf52832_xxAA.a(timer.c.obj)
 .text.timer_order_cb_ppi
                0x00000000       0xc4 mesh/core/libmesh_core_nrf52832_xxAA.a(timer.c.obj)
 .text.timer_order_ppi
                0x00000000       0x84 mesh/core/libmesh_core_nrf52832_xxAA.a(timer.c.obj)
 .text.timer_abort
                0x00000000       0x78 mesh/core/libmesh_core_nrf52832_xxAA.a(timer.c.obj)
 .text          0x00000000        0x0 mesh/core/libmesh_core_nrf52832_xxAA.a(ticker.c.obj)
 .data          0x00000000        0x0 mesh/core/libmesh_core_nrf52832_xxAA.a(ticker.c.obj)
 .bss           0x00000000        0x0 mesh/core/libmesh_core_nrf52832_xxAA.a(ticker.c.obj)
 .text.ticker_get
                0x00000000        0xc mesh/core/libmesh_core_nrf52832_xxAA.a(ticker.c.obj)
 .text          0x00000000        0x0 mesh/core/libmesh_core_nrf52832_xxAA.a(rand.c.obj)
 .data          0x00000000        0x0 mesh/core/libmesh_core_nrf52832_xxAA.a(rand.c.obj)
 .bss           0x00000000        0x0 mesh/core/libmesh_core_nrf52832_xxAA.a(rand.c.obj)
 .text          0x00000000        0x0 mesh/core/libmesh_core_nrf52832_xxAA.a(timeslot.c.obj)
 .data          0x00000000        0x0 mesh/core/libmesh_core_nrf52832_xxAA.a(timeslot.c.obj)
 .bss           0x00000000        0x0 mesh/core/libmesh_core_nrf52832_xxAA.a(timeslot.c.obj)
 .text.timeslot_end_time_get
                0x00000000       0x10 mesh/core/libmesh_core_nrf52832_xxAA.a(timeslot.c.obj)
 .text.timeslot_is_in_ts
                0x00000000        0xc mesh/core/libmesh_core_nrf52832_xxAA.a(timeslot.c.obj)
 .text.timeslot_restart
                0x00000000       0x10 mesh/core/libmesh_core_nrf52832_xxAA.a(timeslot.c.obj)
 .text          0x00000000        0x0 mesh/core/libmesh_core_nrf52832_xxAA.a(bearer_event.c.obj)
 .data          0x00000000        0x0 mesh/core/libmesh_core_nrf52832_xxAA.a(bearer_event.c.obj)
 .bss           0x00000000        0x0 mesh/core/libmesh_core_nrf52832_xxAA.a(bearer_event.c.obj)
 .text.bearer_event_timer_sch_post
                0x00000000       0x34 mesh/core/libmesh_core_nrf52832_xxAA.a(bearer_event.c.obj)
 .text          0x00000000        0x0 mesh/core/libmesh_core_nrf52832_xxAA.a(enc.c.obj)
 .data          0x00000000        0x0 mesh/core/libmesh_core_nrf52832_xxAA.a(enc.c.obj)
 .bss           0x00000000        0x0 mesh/core/libmesh_core_nrf52832_xxAA.a(enc.c.obj)
 .text.enc_key_generate
                0x00000000        0x6 mesh/core/libmesh_core_nrf52832_xxAA.a(enc.c.obj)
 .text          0x00000000        0x0 mesh/core/libmesh_core_nrf52832_xxAA.a(network.c.obj)
 .data          0x00000000        0x0 mesh/core/libmesh_core_nrf52832_xxAA.a(network.c.obj)
 .bss           0x00000000        0x0 mesh/core/libmesh_core_nrf52832_xxAA.a(network.c.obj)
 .text.network_opt_set
                0x00000000       0x54 mesh/core/libmesh_core_nrf52832_xxAA.a(network.c.obj)
 .text.network_opt_get
                0x00000000       0x48 mesh/core/libmesh_core_nrf52832_xxAA.a(network.c.obj)
 .text.network_packet_discard
                0x00000000       0x3c mesh/core/libmesh_core_nrf52832_xxAA.a(network.c.obj)
 .text          0x00000000        0x0 mesh/core/libmesh_core_nrf52832_xxAA.a(msqueue.c.obj)
 .data          0x00000000        0x0 mesh/core/libmesh_core_nrf52832_xxAA.a(msqueue.c.obj)
 .bss           0x00000000        0x0 mesh/core/libmesh_core_nrf52832_xxAA.a(msqueue.c.obj)
 .text          0x00000000        0x0 mesh/core/libmesh_core_nrf52832_xxAA.a(nrf_mesh_keygen.c.obj)
 .data          0x00000000        0x0 mesh/core/libmesh_core_nrf52832_xxAA.a(nrf_mesh_keygen.c.obj)
 .bss           0x00000000        0x0 mesh/core/libmesh_core_nrf52832_xxAA.a(nrf_mesh_keygen.c.obj)
 .text.nrf_mesh_keygen_identitykey
                0x00000000       0x4c mesh/core/libmesh_core_nrf52832_xxAA.a(nrf_mesh_keygen.c.obj)
 .text          0x00000000        0x0 mesh/core/libmesh_core_nrf52832_xxAA.a(log.c.obj)
 .data          0x00000000        0x0 mesh/core/libmesh_core_nrf52832_xxAA.a(log.c.obj)
 .bss           0x00000000        0x0 mesh/core/libmesh_core_nrf52832_xxAA.a(log.c.obj)
 .text.log_callback_logview
                0x00000000       0x38 mesh/core/libmesh_core_nrf52832_xxAA.a(log.c.obj)
 .text.log_set_callback
                0x00000000        0xc mesh/core/libmesh_core_nrf52832_xxAA.a(log.c.obj)
 .rodata.log_callback_logview.str1.1
                0x00000000        0xf mesh/core/libmesh_core_nrf52832_xxAA.a(log.c.obj)
 .text          0x00000000        0x0 mesh/core/libmesh_core_nrf52832_xxAA.a(flash_manager.c.obj)
 .data          0x00000000        0x0 mesh/core/libmesh_core_nrf52832_xxAA.a(flash_manager.c.obj)
 .bss           0x00000000        0x0 mesh/core/libmesh_core_nrf52832_xxAA.a(flash_manager.c.obj)
 .text.flash_manager_entry_get
                0x00000000       0x48 mesh/core/libmesh_core_nrf52832_xxAA.a(flash_manager.c.obj)
 .text.flash_manager_entry_count_get
                0x00000000       0x5c mesh/core/libmesh_core_nrf52832_xxAA.a(flash_manager.c.obj)
 .text.flash_manager_entry_release
                0x00000000       0x12 mesh/core/libmesh_core_nrf52832_xxAA.a(flash_manager.c.obj)
 .text          0x00000000        0x0 mesh/core/libmesh_core_nrf52832_xxAA.a(ccm_soft.c.obj)
 .data          0x00000000        0x0 mesh/core/libmesh_core_nrf52832_xxAA.a(ccm_soft.c.obj)
 .bss           0x00000000        0x0 mesh/core/libmesh_core_nrf52832_xxAA.a(ccm_soft.c.obj)
 .text          0x00000000        0x0 mesh/core/libmesh_core_nrf52832_xxAA.a(beacon.c.obj)
 .data          0x00000000        0x0 mesh/core/libmesh_core_nrf52832_xxAA.a(beacon.c.obj)
 .bss           0x00000000        0x0 mesh/core/libmesh_core_nrf52832_xxAA.a(beacon.c.obj)
 .text          0x00000000        0x0 mesh/core/libmesh_core_nrf52832_xxAA.a(flash_manager_internal.c.obj)
 .data          0x00000000        0x0 mesh/core/libmesh_core_nrf52832_xxAA.a(flash_manager_internal.c.obj)
 .bss           0x00000000        0x0 mesh/core/libmesh_core_nrf52832_xxAA.a(flash_manager_internal.c.obj)
 .text          0x00000000        0x0 mesh/core/libmesh_core_nrf52832_xxAA.a(core_tx.c.obj)
 .data          0x00000000        0x0 mesh/core/libmesh_core_nrf52832_xxAA.a(core_tx.c.obj)
 .bss           0x00000000        0x0 mesh/core/libmesh_core_nrf52832_xxAA.a(core_tx.c.obj)
 .text.core_tx_adv_count_set
                0x00000000       0x38 mesh/core/libmesh_core_nrf52832_xxAA.a(core_tx.c.obj)
 .text.core_tx_adv_count_get
                0x00000000       0x28 mesh/core/libmesh_core_nrf52832_xxAA.a(core_tx.c.obj)
 .text.core_tx_adv_interval_set
                0x00000000       0x34 mesh/core/libmesh_core_nrf52832_xxAA.a(core_tx.c.obj)
 .text.core_tx_adv_interval_get
                0x00000000       0x34 mesh/core/libmesh_core_nrf52832_xxAA.a(core_tx.c.obj)
 .text.core_tx_adv_address_set
                0x00000000       0x34 mesh/core/libmesh_core_nrf52832_xxAA.a(core_tx.c.obj)
 .text          0x00000000        0x0 mesh/core/libmesh_core_nrf52832_xxAA.a(net_beacon.c.obj)
 .data          0x00000000        0x0 mesh/core/libmesh_core_nrf52832_xxAA.a(net_beacon.c.obj)
 .bss           0x00000000        0x0 mesh/core/libmesh_core_nrf52832_xxAA.a(net_beacon.c.obj)
 .text.net_beacon_state_set
                0x00000000       0x34 mesh/core/libmesh_core_nrf52832_xxAA.a(net_beacon.c.obj)
 .text.net_beacon_state_get
                0x00000000        0xc mesh/core/libmesh_core_nrf52832_xxAA.a(net_beacon.c.obj)
 .text          0x00000000        0x0 mesh/core/libmesh_core_nrf52832_xxAA.a(advertiser.c.obj)
 .data          0x00000000        0x0 mesh/core/libmesh_core_nrf52832_xxAA.a(advertiser.c.obj)
 .bss           0x00000000        0x0 mesh/core/libmesh_core_nrf52832_xxAA.a(advertiser.c.obj)
 .text.advertiser_address_set
                0x00000000       0x50 mesh/core/libmesh_core_nrf52832_xxAA.a(advertiser.c.obj)
 .text.advertiser_config_set
                0x00000000       0x44 mesh/core/libmesh_core_nrf52832_xxAA.a(advertiser.c.obj)
 .text.advertiser_config_get
                0x00000000       0x2c mesh/core/libmesh_core_nrf52832_xxAA.a(advertiser.c.obj)
 .text          0x00000000        0x0 mesh/core/libmesh_core_nrf52832_xxAA.a(bearer_handler.c.obj)
 .data          0x00000000        0x0 mesh/core/libmesh_core_nrf52832_xxAA.a(bearer_handler.c.obj)
 .bss           0x00000000        0x0 mesh/core/libmesh_core_nrf52832_xxAA.a(bearer_handler.c.obj)
 .text.bearer_handler_action_fire
                0x00000000       0xb0 mesh/core/libmesh_core_nrf52832_xxAA.a(bearer_handler.c.obj)
 .text          0x00000000        0x0 mesh/core/libmesh_core_nrf52832_xxAA.a(broadcast.c.obj)
 .data          0x00000000        0x0 mesh/core/libmesh_core_nrf52832_xxAA.a(broadcast.c.obj)
 .bss           0x00000000        0x0 mesh/core/libmesh_core_nrf52832_xxAA.a(broadcast.c.obj)
 .text          0x00000000        0x0 mesh/core/libmesh_core_nrf52832_xxAA.a(radio_config.c.obj)
 .data          0x00000000        0x0 mesh/core/libmesh_core_nrf52832_xxAA.a(radio_config.c.obj)
 .bss           0x00000000        0x0 mesh/core/libmesh_core_nrf52832_xxAA.a(radio_config.c.obj)
 .text.radio_config_access_addr_get
                0x00000000       0x64 mesh/core/libmesh_core_nrf52832_xxAA.a(radio_config.c.obj)
 .text          0x00000000        0x0 mesh/core/libmesh_core_nrf52832_xxAA.a(scanner.c.obj)
 .data          0x00000000        0x0 mesh/core/libmesh_core_nrf52832_xxAA.a(scanner.c.obj)
 .bss           0x00000000        0x0 mesh/core/libmesh_core_nrf52832_xxAA.a(scanner.c.obj)
 .text.scanner_is_enabled
                0x00000000       0x10 mesh/core/libmesh_core_nrf52832_xxAA.a(scanner.c.obj)
 .text.scanner_stats_get
                0x00000000        0x8 mesh/core/libmesh_core_nrf52832_xxAA.a(scanner.c.obj)
 .text.scanner_config_radio_mode_set
                0x00000000       0x10 mesh/core/libmesh_core_nrf52832_xxAA.a(scanner.c.obj)
 .text          0x00000000        0x0 mesh/core/libmesh_core_nrf52832_xxAA.a(aes.c.obj)
 .data          0x00000000        0x0 mesh/core/libmesh_core_nrf52832_xxAA.a(aes.c.obj)
 .bss           0x00000000        0x0 mesh/core/libmesh_core_nrf52832_xxAA.a(aes.c.obj)
 .text          0x00000000        0x0 mesh/core/libmesh_core_nrf52832_xxAA.a(msg_cache.c.obj)
 .data          0x00000000        0x0 mesh/core/libmesh_core_nrf52832_xxAA.a(msg_cache.c.obj)
 .bss           0x00000000        0x0 mesh/core/libmesh_core_nrf52832_xxAA.a(msg_cache.c.obj)
 .text.msg_cache_clear
                0x00000000       0x18 mesh/core/libmesh_core_nrf52832_xxAA.a(msg_cache.c.obj)
 .text          0x00000000        0x0 mesh/core/libmesh_core_nrf52832_xxAA.a(transport.c.obj)
 .data          0x00000000        0x0 mesh/core/libmesh_core_nrf52832_xxAA.a(transport.c.obj)
 .bss           0x00000000        0x0 mesh/core/libmesh_core_nrf52832_xxAA.a(transport.c.obj)
 .text.transport_sar_mem_funcs_set
                0x00000000       0x44 mesh/core/libmesh_core_nrf52832_xxAA.a(transport.c.obj)
 .text.transport_opt_set
                0x00000000       0xd0 mesh/core/libmesh_core_nrf52832_xxAA.a(transport.c.obj)
 .text.transport_opt_get
                0x00000000       0x68 mesh/core/libmesh_core_nrf52832_xxAA.a(transport.c.obj)
 .text          0x00000000        0x0 mesh/core/libmesh_core_nrf52832_xxAA.a(flash_manager_defrag.c.obj)
 .data          0x00000000        0x0 mesh/core/libmesh_core_nrf52832_xxAA.a(flash_manager_defrag.c.obj)
 .bss           0x00000000        0x0 mesh/core/libmesh_core_nrf52832_xxAA.a(flash_manager_defrag.c.obj)
 .text.flash_manager_defragging
                0x00000000       0x44 mesh/core/libmesh_core_nrf52832_xxAA.a(flash_manager_defrag.c.obj)
 .text          0x00000000        0x0 mesh/core/libmesh_core_nrf52832_xxAA.a(nrf_flash.c.obj)
 .data          0x00000000        0x0 mesh/core/libmesh_core_nrf52832_xxAA.a(nrf_flash.c.obj)
 .bss           0x00000000        0x0 mesh/core/libmesh_core_nrf52832_xxAA.a(nrf_flash.c.obj)
 .text          0x00000000        0x0 mesh/core/libmesh_core_nrf52832_xxAA.a(packet_mgr.c.obj)
 .data          0x00000000        0x0 mesh/core/libmesh_core_nrf52832_xxAA.a(packet_mgr.c.obj)
 .bss           0x00000000        0x0 mesh/core/libmesh_core_nrf52832_xxAA.a(packet_mgr.c.obj)
 .text.packet_mgr_alloc
                0x00000000      0x19c mesh/core/libmesh_core_nrf52832_xxAA.a(packet_mgr.c.obj)
 .text.packet_mgr_free
                0x00000000       0x6c mesh/core/libmesh_core_nrf52832_xxAA.a(packet_mgr.c.obj)
 .text.packet_mgr_get_free_space
                0x00000000       0x1c mesh/core/libmesh_core_nrf52832_xxAA.a(packet_mgr.c.obj)
 .text.packet_mgr_refcount_get
                0x00000000        0x6 mesh/core/libmesh_core_nrf52832_xxAA.a(packet_mgr.c.obj)
 .text.packet_mgr_size_get
                0x00000000        0x6 mesh/core/libmesh_core_nrf52832_xxAA.a(packet_mgr.c.obj)
 .text          0x00000000        0x0 mesh/core/libmesh_core_nrf52832_xxAA.a(queue.c.obj)
 .data          0x00000000        0x0 mesh/core/libmesh_core_nrf52832_xxAA.a(queue.c.obj)
 .bss           0x00000000        0x0 mesh/core/libmesh_core_nrf52832_xxAA.a(queue.c.obj)
 .text          0x00000000        0x0 mesh/core/libmesh_core_nrf52832_xxAA.a(aes_cmac.c.obj)
 .data          0x00000000        0x0 mesh/core/libmesh_core_nrf52832_xxAA.a(aes_cmac.c.obj)
 .bss           0x00000000        0x0 mesh/core/libmesh_core_nrf52832_xxAA.a(aes_cmac.c.obj)
 .text          0x00000000        0x0 mesh/core/libmesh_core_nrf52832_xxAA.a(replay_cache.c.obj)
 .data          0x00000000        0x0 mesh/core/libmesh_core_nrf52832_xxAA.a(replay_cache.c.obj)
 .bss           0x00000000        0x0 mesh/core/libmesh_core_nrf52832_xxAA.a(replay_cache.c.obj)
 .text.replay_cache_on_iv_update
                0x00000000       0x24 mesh/core/libmesh_core_nrf52832_xxAA.a(replay_cache.c.obj)
 .text          0x00000000        0x0 mesh/core/libmesh_core_nrf52832_xxAA.a(filter_engine.c.obj)
 .data          0x00000000        0x0 mesh/core/libmesh_core_nrf52832_xxAA.a(filter_engine.c.obj)
 .bss           0x00000000        0x0 mesh/core/libmesh_core_nrf52832_xxAA.a(filter_engine.c.obj)
 .text.fen_filter_start
                0x00000000       0x68 mesh/core/libmesh_core_nrf52832_xxAA.a(filter_engine.c.obj)
 .text.fen_filter_stop
                0x00000000       0x5c mesh/core/libmesh_core_nrf52832_xxAA.a(filter_engine.c.obj)
 .text.fen_accepted_amount_get
                0x00000000        0xc mesh/core/libmesh_core_nrf52832_xxAA.a(filter_engine.c.obj)
 .text          0x00000000        0x0 external/rtt/librtt_nrf52832_xxAA.a(SEGGER_RTT.c.obj)
 .data          0x00000000        0x0 external/rtt/librtt_nrf52832_xxAA.a(SEGGER_RTT.c.obj)
 .bss           0x00000000        0x0 external/rtt/librtt_nrf52832_xxAA.a(SEGGER_RTT.c.obj)
 .text._PostTerminalSwitch.constprop.0
                0x00000000       0x28 external/rtt/librtt_nrf52832_xxAA.a(SEGGER_RTT.c.obj)
 .text.SEGGER_RTT_ReadNoLock
                0x00000000       0x88 external/rtt/librtt_nrf52832_xxAA.a(SEGGER_RTT.c.obj)
 .text.SEGGER_RTT_Read
                0x00000000       0x1c external/rtt/librtt_nrf52832_xxAA.a(SEGGER_RTT.c.obj)
 .text.SEGGER_RTT_WriteSkipNoLock
                0x00000000       0xb4 external/rtt/librtt_nrf52832_xxAA.a(SEGGER_RTT.c.obj)
 .text.SEGGER_RTT_WriteString
                0x00000000       0x1a external/rtt/librtt_nrf52832_xxAA.a(SEGGER_RTT.c.obj)
 .text.SEGGER_RTT_GetKey
                0x00000000       0x20 external/rtt/librtt_nrf52832_xxAA.a(SEGGER_RTT.c.obj)
 .text.SEGGER_RTT_WaitKey
                0x00000000        0xc external/rtt/librtt_nrf52832_xxAA.a(SEGGER_RTT.c.obj)
 .text.SEGGER_RTT_HasKey
                0x00000000       0x1c external/rtt/librtt_nrf52832_xxAA.a(SEGGER_RTT.c.obj)
 .text.SEGGER_RTT_HasData
                0x00000000       0x14 external/rtt/librtt_nrf52832_xxAA.a(SEGGER_RTT.c.obj)
 .text.SEGGER_RTT_AllocDownBuffer
                0x00000000       0x68 external/rtt/librtt_nrf52832_xxAA.a(SEGGER_RTT.c.obj)
 .text.SEGGER_RTT_AllocUpBuffer
                0x00000000       0x70 external/rtt/librtt_nrf52832_xxAA.a(SEGGER_RTT.c.obj)
 .text.SEGGER_RTT_ConfigUpBuffer
                0x00000000       0x68 external/rtt/librtt_nrf52832_xxAA.a(SEGGER_RTT.c.obj)
 .text.SEGGER_RTT_ConfigDownBuffer
                0x00000000       0x60 external/rtt/librtt_nrf52832_xxAA.a(SEGGER_RTT.c.obj)
 .text.SEGGER_RTT_SetNameUpBuffer
                0x00000000       0x3c external/rtt/librtt_nrf52832_xxAA.a(SEGGER_RTT.c.obj)
 .text.SEGGER_RTT_SetNameDownBuffer
                0x00000000       0x3c external/rtt/librtt_nrf52832_xxAA.a(SEGGER_RTT.c.obj)
 .text.SEGGER_RTT_Init
                0x00000000       0x10 external/rtt/librtt_nrf52832_xxAA.a(SEGGER_RTT.c.obj)
 .text.SEGGER_RTT_SetTerminal
                0x00000000       0x84 external/rtt/librtt_nrf52832_xxAA.a(SEGGER_RTT.c.obj)
 .text.SEGGER_RTT_TerminalOut
                0x00000000       0xa0 external/rtt/librtt_nrf52832_xxAA.a(SEGGER_RTT.c.obj)
 .bss._ActiveTerminal
                0x00000000        0x1 external/rtt/librtt_nrf52832_xxAA.a(SEGGER_RTT.c.obj)
 .rodata._aTerminalId
                0x00000000       0x10 external/rtt/librtt_nrf52832_xxAA.a(SEGGER_RTT.c.obj)
 .text          0x00000000        0x0 external/rtt/librtt_nrf52832_xxAA.a(SEGGER_RTT_printf.c.obj)
 .data          0x00000000        0x0 external/rtt/librtt_nrf52832_xxAA.a(SEGGER_RTT_printf.c.obj)
 .bss           0x00000000        0x0 external/rtt/librtt_nrf52832_xxAA.a(SEGGER_RTT_printf.c.obj)
 .text          0x00000000        0x0 external/micro-ecc/libuECC_nrf52832_xxAA.a(uECC.c.obj)
 .data          0x00000000        0x0 external/micro-ecc/libuECC_nrf52832_xxAA.a(uECC.c.obj)
 .bss           0x00000000        0x0 external/micro-ecc/libuECC_nrf52832_xxAA.a(uECC.c.obj)
 .text.uECC_vli_modMult
                0x00000000      0x148 external/micro-ecc/libuECC_nrf52832_xxAA.a(uECC.c.obj)
 .text.HMAC_init
                0x00000000       0x46 external/micro-ecc/libuECC_nrf52832_xxAA.a(uECC.c.obj)
 .text.HMAC_update
                0x00000000        0x4 external/micro-ecc/libuECC_nrf52832_xxAA.a(uECC.c.obj)
 .text.HMAC_finish
                0x00000000       0x62 external/micro-ecc/libuECC_nrf52832_xxAA.a(uECC.c.obj)
 .text.update_V
                0x00000000       0x24 external/micro-ecc/libuECC_nrf52832_xxAA.a(uECC.c.obj)
 .text.bits2int
                0x00000000       0x88 external/micro-ecc/libuECC_nrf52832_xxAA.a(uECC.c.obj)
 .text.uECC_sign_with_k
                0x00000000      0x17c external/micro-ecc/libuECC_nrf52832_xxAA.a(uECC.c.obj)
 .text.uECC_set_rng
                0x00000000        0xc external/micro-ecc/libuECC_nrf52832_xxAA.a(uECC.c.obj)
 .text.uECC_get_rng
                0x00000000        0xc external/micro-ecc/libuECC_nrf52832_xxAA.a(uECC.c.obj)
 .text.uECC_curve_private_key_size
                0x00000000        0xe external/micro-ecc/libuECC_nrf52832_xxAA.a(uECC.c.obj)
 .text.uECC_curve_public_key_size
                0x00000000        0x8 external/micro-ecc/libuECC_nrf52832_xxAA.a(uECC.c.obj)
 .text.uECC_compute_public_key
                0x00000000       0x7e external/micro-ecc/libuECC_nrf52832_xxAA.a(uECC.c.obj)
 .text.uECC_sign
                0x00000000       0x56 external/micro-ecc/libuECC_nrf52832_xxAA.a(uECC.c.obj)
 .text.uECC_sign_deterministic
                0x00000000      0x192 external/micro-ecc/libuECC_nrf52832_xxAA.a(uECC.c.obj)
 .text.uECC_verify
                0x00000000      0x2f0 external/micro-ecc/libuECC_nrf52832_xxAA.a(uECC.c.obj)
 .text          0x00000000        0x0 c:/a/gcc_arm/6/bin/../lib/gcc/arm-none-eabi/6.3.1/../../../../arm-none-eabi/lib/thumb/v7e-m/fpv4-sp/hard\libc_nano.a(lib_a-exit.o)
 .data          0x00000000        0x0 c:/a/gcc_arm/6/bin/../lib/gcc/arm-none-eabi/6.3.1/../../../../arm-none-eabi/lib/thumb/v7e-m/fpv4-sp/hard\libc_nano.a(lib_a-exit.o)
 .bss           0x00000000        0x0 c:/a/gcc_arm/6/bin/../lib/gcc/arm-none-eabi/6.3.1/../../../../arm-none-eabi/lib/thumb/v7e-m/fpv4-sp/hard\libc_nano.a(lib_a-exit.o)
 .text          0x00000000        0x0 c:/a/gcc_arm/6/bin/../lib/gcc/arm-none-eabi/6.3.1/../../../../arm-none-eabi/lib/thumb/v7e-m/fpv4-sp/hard\libc_nano.a(lib_a-impure.o)
 .data          0x00000000        0x0 c:/a/gcc_arm/6/bin/../lib/gcc/arm-none-eabi/6.3.1/../../../../arm-none-eabi/lib/thumb/v7e-m/fpv4-sp/hard\libc_nano.a(lib_a-impure.o)
 .bss           0x00000000        0x0 c:/a/gcc_arm/6/bin/../lib/gcc/arm-none-eabi/6.3.1/../../../../arm-none-eabi/lib/thumb/v7e-m/fpv4-sp/hard\libc_nano.a(lib_a-impure.o)
 .text          0x00000000        0x0 c:/a/gcc_arm/6/bin/../lib/gcc/arm-none-eabi/6.3.1/../../../../arm-none-eabi/lib/thumb/v7e-m/fpv4-sp/hard\libc_nano.a(lib_a-init.o)
 .data          0x00000000        0x0 c:/a/gcc_arm/6/bin/../lib/gcc/arm-none-eabi/6.3.1/../../../../arm-none-eabi/lib/thumb/v7e-m/fpv4-sp/hard\libc_nano.a(lib_a-init.o)
 .bss           0x00000000        0x0 c:/a/gcc_arm/6/bin/../lib/gcc/arm-none-eabi/6.3.1/../../../../arm-none-eabi/lib/thumb/v7e-m/fpv4-sp/hard\libc_nano.a(lib_a-init.o)
 .text          0x00000000        0x0 c:/a/gcc_arm/6/bin/../lib/gcc/arm-none-eabi/6.3.1/../../../../arm-none-eabi/lib/thumb/v7e-m/fpv4-sp/hard\libc_nano.a(lib_a-malloc.o)
 .data          0x00000000        0x0 c:/a/gcc_arm/6/bin/../lib/gcc/arm-none-eabi/6.3.1/../../../../arm-none-eabi/lib/thumb/v7e-m/fpv4-sp/hard\libc_nano.a(lib_a-malloc.o)
 .bss           0x00000000        0x0 c:/a/gcc_arm/6/bin/../lib/gcc/arm-none-eabi/6.3.1/../../../../arm-none-eabi/lib/thumb/v7e-m/fpv4-sp/hard\libc_nano.a(lib_a-malloc.o)
 .text          0x00000000        0x0 c:/a/gcc_arm/6/bin/../lib/gcc/arm-none-eabi/6.3.1/../../../../arm-none-eabi/lib/thumb/v7e-m/fpv4-sp/hard\libc_nano.a(lib_a-memcmp.o)
 .data          0x00000000        0x0 c:/a/gcc_arm/6/bin/../lib/gcc/arm-none-eabi/6.3.1/../../../../arm-none-eabi/lib/thumb/v7e-m/fpv4-sp/hard\libc_nano.a(lib_a-memcmp.o)
 .bss           0x00000000        0x0 c:/a/gcc_arm/6/bin/../lib/gcc/arm-none-eabi/6.3.1/../../../../arm-none-eabi/lib/thumb/v7e-m/fpv4-sp/hard\libc_nano.a(lib_a-memcmp.o)
 .text          0x00000000        0x0 c:/a/gcc_arm/6/bin/../lib/gcc/arm-none-eabi/6.3.1/../../../../arm-none-eabi/lib/thumb/v7e-m/fpv4-sp/hard\libc_nano.a(lib_a-memcpy-stub.o)
 .data          0x00000000        0x0 c:/a/gcc_arm/6/bin/../lib/gcc/arm-none-eabi/6.3.1/../../../../arm-none-eabi/lib/thumb/v7e-m/fpv4-sp/hard\libc_nano.a(lib_a-memcpy-stub.o)
 .bss           0x00000000        0x0 c:/a/gcc_arm/6/bin/../lib/gcc/arm-none-eabi/6.3.1/../../../../arm-none-eabi/lib/thumb/v7e-m/fpv4-sp/hard\libc_nano.a(lib_a-memcpy-stub.o)
 .text          0x00000000        0x0 c:/a/gcc_arm/6/bin/../lib/gcc/arm-none-eabi/6.3.1/../../../../arm-none-eabi/lib/thumb/v7e-m/fpv4-sp/hard\libc_nano.a(lib_a-memset.o)
 .data          0x00000000        0x0 c:/a/gcc_arm/6/bin/../lib/gcc/arm-none-eabi/6.3.1/../../../../arm-none-eabi/lib/thumb/v7e-m/fpv4-sp/hard\libc_nano.a(lib_a-memset.o)
 .bss           0x00000000        0x0 c:/a/gcc_arm/6/bin/../lib/gcc/arm-none-eabi/6.3.1/../../../../arm-none-eabi/lib/thumb/v7e-m/fpv4-sp/hard\libc_nano.a(lib_a-memset.o)
 .text          0x00000000        0x0 c:/a/gcc_arm/6/bin/../lib/gcc/arm-none-eabi/6.3.1/../../../../arm-none-eabi/lib/thumb/v7e-m/fpv4-sp/hard\libc_nano.a(lib_a-nano-freer.o)
 .data          0x00000000        0x0 c:/a/gcc_arm/6/bin/../lib/gcc/arm-none-eabi/6.3.1/../../../../arm-none-eabi/lib/thumb/v7e-m/fpv4-sp/hard\libc_nano.a(lib_a-nano-freer.o)
 .bss           0x00000000        0x0 c:/a/gcc_arm/6/bin/../lib/gcc/arm-none-eabi/6.3.1/../../../../arm-none-eabi/lib/thumb/v7e-m/fpv4-sp/hard\libc_nano.a(lib_a-nano-freer.o)
 .text          0x00000000        0x0 c:/a/gcc_arm/6/bin/../lib/gcc/arm-none-eabi/6.3.1/../../../../arm-none-eabi/lib/thumb/v7e-m/fpv4-sp/hard\libc_nano.a(lib_a-nano-mallocr.o)
 .data          0x00000000        0x0 c:/a/gcc_arm/6/bin/../lib/gcc/arm-none-eabi/6.3.1/../../../../arm-none-eabi/lib/thumb/v7e-m/fpv4-sp/hard\libc_nano.a(lib_a-nano-mallocr.o)
 .bss           0x00000000        0x0 c:/a/gcc_arm/6/bin/../lib/gcc/arm-none-eabi/6.3.1/../../../../arm-none-eabi/lib/thumb/v7e-m/fpv4-sp/hard\libc_nano.a(lib_a-nano-mallocr.o)
 .text          0x00000000        0x0 c:/a/gcc_arm/6/bin/../lib/gcc/arm-none-eabi/6.3.1/../../../../arm-none-eabi/lib/thumb/v7e-m/fpv4-sp/hard\libc_nano.a(lib_a-sbrkr.o)
 .data          0x00000000        0x0 c:/a/gcc_arm/6/bin/../lib/gcc/arm-none-eabi/6.3.1/../../../../arm-none-eabi/lib/thumb/v7e-m/fpv4-sp/hard\libc_nano.a(lib_a-sbrkr.o)
 .bss           0x00000000        0x0 c:/a/gcc_arm/6/bin/../lib/gcc/arm-none-eabi/6.3.1/../../../../arm-none-eabi/lib/thumb/v7e-m/fpv4-sp/hard\libc_nano.a(lib_a-sbrkr.o)
 .text          0x00000000        0x0 c:/a/gcc_arm/6/bin/../lib/gcc/arm-none-eabi/6.3.1/../../../../arm-none-eabi/lib/thumb/v7e-m/fpv4-sp/hard\libc_nano.a(lib_a-strcpy.o)
 .data          0x00000000        0x0 c:/a/gcc_arm/6/bin/../lib/gcc/arm-none-eabi/6.3.1/../../../../arm-none-eabi/lib/thumb/v7e-m/fpv4-sp/hard\libc_nano.a(lib_a-strcpy.o)
 .bss           0x00000000        0x0 c:/a/gcc_arm/6/bin/../lib/gcc/arm-none-eabi/6.3.1/../../../../arm-none-eabi/lib/thumb/v7e-m/fpv4-sp/hard\libc_nano.a(lib_a-strcpy.o)
 .data          0x00000000        0x0 c:/a/gcc_arm/6/bin/../lib/gcc/arm-none-eabi/6.3.1/../../../../arm-none-eabi/lib/thumb/v7e-m/fpv4-sp/hard\libc_nano.a(lib_a-strlen.o)
 .bss           0x00000000        0x0 c:/a/gcc_arm/6/bin/../lib/gcc/arm-none-eabi/6.3.1/../../../../arm-none-eabi/lib/thumb/v7e-m/fpv4-sp/hard\libc_nano.a(lib_a-strlen.o)
 .text          0x00000000        0x0 c:/a/gcc_arm/6/bin/../lib/gcc/arm-none-eabi/6.3.1/../../../../arm-none-eabi/lib/thumb/v7e-m/fpv4-sp/hard\libc_nano.a(lib_a-strrchr.o)
 .data          0x00000000        0x0 c:/a/gcc_arm/6/bin/../lib/gcc/arm-none-eabi/6.3.1/../../../../arm-none-eabi/lib/thumb/v7e-m/fpv4-sp/hard\libc_nano.a(lib_a-strrchr.o)
 .bss           0x00000000        0x0 c:/a/gcc_arm/6/bin/../lib/gcc/arm-none-eabi/6.3.1/../../../../arm-none-eabi/lib/thumb/v7e-m/fpv4-sp/hard\libc_nano.a(lib_a-strrchr.o)
 .text          0x00000000        0x0 c:/a/gcc_arm/6/bin/../lib/gcc/arm-none-eabi/6.3.1/../../../../arm-none-eabi/lib/thumb/v7e-m/fpv4-sp/hard\libc_nano.a(lib_a-mlock.o)
 .data          0x00000000        0x0 c:/a/gcc_arm/6/bin/../lib/gcc/arm-none-eabi/6.3.1/../../../../arm-none-eabi/lib/thumb/v7e-m/fpv4-sp/hard\libc_nano.a(lib_a-mlock.o)
 .bss           0x00000000        0x0 c:/a/gcc_arm/6/bin/../lib/gcc/arm-none-eabi/6.3.1/../../../../arm-none-eabi/lib/thumb/v7e-m/fpv4-sp/hard\libc_nano.a(lib_a-mlock.o)
 .text          0x00000000        0x0 c:/a/gcc_arm/6/bin/../lib/gcc/arm-none-eabi/6.3.1/../../../../arm-none-eabi/lib/thumb/v7e-m/fpv4-sp/hard\libc_nano.a(lib_a-reent.o)
 .data          0x00000000        0x0 c:/a/gcc_arm/6/bin/../lib/gcc/arm-none-eabi/6.3.1/../../../../arm-none-eabi/lib/thumb/v7e-m/fpv4-sp/hard\libc_nano.a(lib_a-reent.o)
 .bss           0x00000000        0x0 c:/a/gcc_arm/6/bin/../lib/gcc/arm-none-eabi/6.3.1/../../../../arm-none-eabi/lib/thumb/v7e-m/fpv4-sp/hard\libc_nano.a(lib_a-reent.o)
 .text.cleanup_glue
                0x00000000       0x1a c:/a/gcc_arm/6/bin/../lib/gcc/arm-none-eabi/6.3.1/../../../../arm-none-eabi/lib/thumb/v7e-m/fpv4-sp/hard\libc_nano.a(lib_a-reent.o)
 .text._reclaim_reent
                0x00000000       0xb8 c:/a/gcc_arm/6/bin/../lib/gcc/arm-none-eabi/6.3.1/../../../../arm-none-eabi/lib/thumb/v7e-m/fpv4-sp/hard\libc_nano.a(lib_a-reent.o)
 .text          0x00000000        0x0 c:/a/gcc_arm/6/bin/../lib/gcc/arm-none-eabi/6.3.1/../../../../arm-none-eabi/lib/thumb/v7e-m/fpv4-sp/hard\libc_nano.a(lib_a-strchr.o)
 .data          0x00000000        0x0 c:/a/gcc_arm/6/bin/../lib/gcc/arm-none-eabi/6.3.1/../../../../arm-none-eabi/lib/thumb/v7e-m/fpv4-sp/hard\libc_nano.a(lib_a-strchr.o)
 .bss           0x00000000        0x0 c:/a/gcc_arm/6/bin/../lib/gcc/arm-none-eabi/6.3.1/../../../../arm-none-eabi/lib/thumb/v7e-m/fpv4-sp/hard\libc_nano.a(lib_a-strchr.o)
 .text          0x00000000        0x0 c:/a/gcc_arm/6/bin/../lib/gcc/arm-none-eabi/6.3.1/thumb/v7e-m/fpv4-sp/hard/crtend.o
 .data          0x00000000        0x0 c:/a/gcc_arm/6/bin/../lib/gcc/arm-none-eabi/6.3.1/thumb/v7e-m/fpv4-sp/hard/crtend.o
 .bss           0x00000000        0x0 c:/a/gcc_arm/6/bin/../lib/gcc/arm-none-eabi/6.3.1/thumb/v7e-m/fpv4-sp/hard/crtend.o
 .text          0x00000000        0x0 c:/a/gcc_arm/6/bin/../lib/gcc/arm-none-eabi/6.3.1/thumb/v7e-m/fpv4-sp/hard/crtn.o
 .data          0x00000000        0x0 c:/a/gcc_arm/6/bin/../lib/gcc/arm-none-eabi/6.3.1/thumb/v7e-m/fpv4-sp/hard/crtn.o
 .bss           0x00000000        0x0 c:/a/gcc_arm/6/bin/../lib/gcc/arm-none-eabi/6.3.1/thumb/v7e-m/fpv4-sp/hard/crtn.o
 .text          0x00000000        0x0 c:/a/gcc_arm/6/bin/../lib/gcc/arm-none-eabi/6.3.1/../../../../arm-none-eabi/lib/thumb/v7e-m/fpv4-sp/hard\libnosys.a(sbrk.o)
 .data          0x00000000        0x0 c:/a/gcc_arm/6/bin/../lib/gcc/arm-none-eabi/6.3.1/../../../../arm-none-eabi/lib/thumb/v7e-m/fpv4-sp/hard\libnosys.a(sbrk.o)
 .bss           0x00000000        0x0 c:/a/gcc_arm/6/bin/../lib/gcc/arm-none-eabi/6.3.1/../../../../arm-none-eabi/lib/thumb/v7e-m/fpv4-sp/hard\libnosys.a(sbrk.o)
 .text          0x00000000        0x0 c:/a/gcc_arm/6/bin/../lib/gcc/arm-none-eabi/6.3.1/../../../../arm-none-eabi/lib/thumb/v7e-m/fpv4-sp/hard\libnosys.a(_exit.o)
 .data          0x00000000        0x0 c:/a/gcc_arm/6/bin/../lib/gcc/arm-none-eabi/6.3.1/../../../../arm-none-eabi/lib/thumb/v7e-m/fpv4-sp/hard\libnosys.a(_exit.o)
 .bss           0x00000000        0x0 c:/a/gcc_arm/6/bin/../lib/gcc/arm-none-eabi/6.3.1/../../../../arm-none-eabi/lib/thumb/v7e-m/fpv4-sp/hard\libnosys.a(_exit.o)

Memory Configuration

Name             Origin             Length             Attributes
FLASH            0x0001f000         0x00059000         xr
RAM              0x200019c0         0x0000d640         xrw
*default*        0x00000000         0xffffffff

Linker script and memory map

LOAD c:/a/gcc_arm/6/bin/../lib/gcc/arm-none-eabi/6.3.1/thumb/v7e-m/fpv4-sp/hard/crti.o
LOAD c:/a/gcc_arm/6/bin/../lib/gcc/arm-none-eabi/6.3.1/thumb/v7e-m/fpv4-sp/hard/crtbegin.o
LOAD c:/a/gcc_arm/6/bin/../lib/gcc/arm-none-eabi/6.3.1/../../../../arm-none-eabi/lib/thumb/v7e-m/fpv4-sp/hard/crt0.o
LOAD examples/dfu/CMakeFiles/dfu_nrf52832_xxAA_s132_3.1.0.dir/src/main.c.obj
LOAD examples/dfu/CMakeFiles/dfu_nrf52832_xxAA_s132_3.1.0.dir/__/nrf_mesh_sdk.c.obj
LOAD examples/dfu/CMakeFiles/dfu_nrf52832_xxAA_s132_3.1.0.dir/__/__/mesh/access/src/access_publish.c.obj
LOAD examples/dfu/CMakeFiles/dfu_nrf52832_xxAA_s132_3.1.0.dir/__/__/mesh/access/src/access.c.obj
LOAD examples/dfu/CMakeFiles/dfu_nrf52832_xxAA_s132_3.1.0.dir/__/__/mesh/access/src/access_reliable.c.obj
LOAD examples/dfu/CMakeFiles/dfu_nrf52832_xxAA_s132_3.1.0.dir/__/__/mesh/access/src/device_state_manager.c.obj
LOAD examples/dfu/CMakeFiles/dfu_nrf52832_xxAA_s132_3.1.0.dir/__/__/mesh/serial/src/serial_uart.c.obj
LOAD examples/dfu/CMakeFiles/dfu_nrf52832_xxAA_s132_3.1.0.dir/__/__/mesh/serial/src/serial_bearer.c.obj
LOAD examples/dfu/CMakeFiles/dfu_nrf52832_xxAA_s132_3.1.0.dir/__/__/mesh/serial/src/serial_handler_common.c.obj
LOAD examples/dfu/CMakeFiles/dfu_nrf52832_xxAA_s132_3.1.0.dir/__/__/mesh/serial/src/serial_handler_access.c.obj
LOAD examples/dfu/CMakeFiles/dfu_nrf52832_xxAA_s132_3.1.0.dir/__/__/mesh/serial/src/serial_handler_config.c.obj
LOAD examples/dfu/CMakeFiles/dfu_nrf52832_xxAA_s132_3.1.0.dir/__/__/mesh/serial/src/serial_handler_openmesh.c.obj
LOAD examples/dfu/CMakeFiles/dfu_nrf52832_xxAA_s132_3.1.0.dir/__/__/mesh/serial/src/serial.c.obj
LOAD examples/dfu/CMakeFiles/dfu_nrf52832_xxAA_s132_3.1.0.dir/__/__/mesh/serial/src/serial_handler_prov.c.obj
LOAD examples/dfu/CMakeFiles/dfu_nrf52832_xxAA_s132_3.1.0.dir/__/__/mesh/serial/src/serial_handler_dfu.c.obj
LOAD examples/dfu/CMakeFiles/dfu_nrf52832_xxAA_s132_3.1.0.dir/__/__/mesh/serial/src/serial_handler_mesh.c.obj
LOAD examples/dfu/CMakeFiles/dfu_nrf52832_xxAA_s132_3.1.0.dir/__/__/mesh/serial/src/serial_handler_models.c.obj
LOAD examples/dfu/CMakeFiles/dfu_nrf52832_xxAA_s132_3.1.0.dir/__/__/mesh/serial/src/serial_handler_device.c.obj
LOAD examples/dfu/CMakeFiles/dfu_nrf52832_xxAA_s132_3.1.0.dir/__/__/mesh/serial/src/nrf_mesh_serial.c.obj
LOAD examples/dfu/CMakeFiles/dfu_nrf52832_xxAA_s132_3.1.0.dir/__/__/mesh/serial/src/serial_handler_app.c.obj
LOAD examples/dfu/CMakeFiles/dfu_nrf52832_xxAA_s132_3.1.0.dir/__/__/mesh/prov/src/prov_provisioner.c.obj
LOAD examples/dfu/CMakeFiles/dfu_nrf52832_xxAA_s132_3.1.0.dir/__/__/mesh/prov/src/prov_provisionee.c.obj
LOAD examples/dfu/CMakeFiles/dfu_nrf52832_xxAA_s132_3.1.0.dir/__/__/mesh/prov/src/nrf_mesh_prov.c.obj
LOAD examples/dfu/CMakeFiles/dfu_nrf52832_xxAA_s132_3.1.0.dir/__/__/mesh/prov/src/provisioning.c.obj
LOAD examples/dfu/CMakeFiles/dfu_nrf52832_xxAA_s132_3.1.0.dir/__/__/mesh/prov/src/prov_beacon.c.obj
LOAD examples/dfu/CMakeFiles/dfu_nrf52832_xxAA_s132_3.1.0.dir/__/__/mesh/prov/src/prov_utils.c.obj
LOAD examples/dfu/CMakeFiles/dfu_nrf52832_xxAA_s132_3.1.0.dir/__/__/mesh/prov/src/prov_bearer_adv.c.obj
LOAD examples/dfu/CMakeFiles/dfu_nrf52832_xxAA_s132_3.1.0.dir/__/__/mesh/dfu/src/nrf_mesh_dfu.c.obj
LOAD examples/dfu/CMakeFiles/dfu_nrf52832_xxAA_s132_3.1.0.dir/__/nrf_mesh_weak.c.obj
LOAD examples/dfu/CMakeFiles/dfu_nrf52832_xxAA_s132_3.1.0.dir/__/__/external/nRF5_SDK_14.0.0_3bcc1f7/components/toolchain/system_nrf52.c.obj
LOAD examples/dfu/CMakeFiles/dfu_nrf52832_xxAA_s132_3.1.0.dir/__/__/external/nRF5_SDK_14.0.0_3bcc1f7/components/toolchain/gcc/gcc_startup_nrf52.S.obj
LOAD mesh/core/libmesh_core_nrf52832_xxAA.a
LOAD external/rtt/librtt_nrf52832_xxAA.a
LOAD external/micro-ecc/libuECC_nrf52832_xxAA.a
START GROUP
LOAD c:/a/gcc_arm/6/bin/../lib/gcc/arm-none-eabi/6.3.1/thumb/v7e-m/fpv4-sp/hard\libgcc.a
LOAD c:/a/gcc_arm/6/bin/../lib/gcc/arm-none-eabi/6.3.1/../../../../arm-none-eabi/lib/thumb/v7e-m/fpv4-sp/hard\libc_nano.a
END GROUP
START GROUP
LOAD c:/a/gcc_arm/6/bin/../lib/gcc/arm-none-eabi/6.3.1/thumb/v7e-m/fpv4-sp/hard\libgcc.a
LOAD c:/a/gcc_arm/6/bin/../lib/gcc/arm-none-eabi/6.3.1/../../../../arm-none-eabi/lib/thumb/v7e-m/fpv4-sp/hard\libc_nano.a
END GROUP
LOAD c:/a/gcc_arm/6/bin/../lib/gcc/arm-none-eabi/6.3.1/thumb/v7e-m/fpv4-sp/hard/crtend.o
LOAD c:/a/gcc_arm/6/bin/../lib/gcc/arm-none-eabi/6.3.1/thumb/v7e-m/fpv4-sp/hard/crtn.o
START GROUP
LOAD c:/a/gcc_arm/6/bin/../lib/gcc/arm-none-eabi/6.3.1/thumb/v7e-m/fpv4-sp/hard\libgcc.a
LOAD c:/a/gcc_arm/6/bin/../lib/gcc/arm-none-eabi/6.3.1/../../../../arm-none-eabi/lib/thumb/v7e-m/fpv4-sp/hard\libc.a
LOAD c:/a/gcc_arm/6/bin/../lib/gcc/arm-none-eabi/6.3.1/../../../../arm-none-eabi/lib/thumb/v7e-m/fpv4-sp/hard\libnosys.a
END GROUP

.text           0x0001f000    0x12304
 *(.isr_vector)
 .isr_vector    0x0001f000      0x200 examples/dfu/CMakeFiles/dfu_nrf52832_xxAA_s132_3.1.0.dir/__/__/external/nRF5_SDK_14.0.0_3bcc1f7/components/toolchain/gcc/gcc_startup_nrf52.S.obj
                0x0001f000                __isr_vector
 *(.text*)
 .text          0x0001f200       0x6c c:/a/gcc_arm/6/bin/../lib/gcc/arm-none-eabi/6.3.1/thumb/v7e-m/fpv4-sp/hard/crtbegin.o
 .text          0x0001f26c       0x74 c:/a/gcc_arm/6/bin/../lib/gcc/arm-none-eabi/6.3.1/../../../../arm-none-eabi/lib/thumb/v7e-m/fpv4-sp/hard/crt0.o
                0x0001f26c                _start
                0x0001f26c                _mainCRTStartup
 .text.mesh_evt_handler
                0x0001f2e0       0xd8 examples/dfu/CMakeFiles/dfu_nrf52832_xxAA_s132_3.1.0.dir/src/main.c.obj
 .text.startup.main
                0x0001f3b8      0x30c examples/dfu/CMakeFiles/dfu_nrf52832_xxAA_s132_3.1.0.dir/src/main.c.obj
                0x0001f3b8                main
 .text.sd_evt_get
                0x0001f6c4        0x4 examples/dfu/CMakeFiles/dfu_nrf52832_xxAA_s132_3.1.0.dir/__/nrf_mesh_sdk.c.obj
 .text.sd_softdevice_enable
                0x0001f6c8        0x4 examples/dfu/CMakeFiles/dfu_nrf52832_xxAA_s132_3.1.0.dir/__/nrf_mesh_sdk.c.obj
 .text.sd_ble_enable
                0x0001f6cc        0x4 examples/dfu/CMakeFiles/dfu_nrf52832_xxAA_s132_3.1.0.dir/__/nrf_mesh_sdk.c.obj
 .text.sd_ble_evt_get
                0x0001f6d0        0x4 examples/dfu/CMakeFiles/dfu_nrf52832_xxAA_s132_3.1.0.dir/__/nrf_mesh_sdk.c.obj
 .text.sleep_forever
                0x0001f6d4       0x1c examples/dfu/CMakeFiles/dfu_nrf52832_xxAA_s132_3.1.0.dir/__/nrf_mesh_sdk.c.obj
 .text.mesh_assert_handler
                0x0001f6f0       0x64 examples/dfu/CMakeFiles/dfu_nrf52832_xxAA_s132_3.1.0.dir/__/nrf_mesh_sdk.c.obj
                0x0001f6f0                mesh_assert_handler
 .text.softdevice_assert_handler
                0x0001f754       0x74 examples/dfu/CMakeFiles/dfu_nrf52832_xxAA_s132_3.1.0.dir/__/nrf_mesh_sdk.c.obj
                0x0001f754                softdevice_assert_handler
 .text.app_error_handler
                0x0001f7c8       0x74 examples/dfu/CMakeFiles/dfu_nrf52832_xxAA_s132_3.1.0.dir/__/nrf_mesh_sdk.c.obj
                0x0001f7c8                app_error_handler
 .text.HardFault_Handler
                0x0001f83c       0x60 examples/dfu/CMakeFiles/dfu_nrf52832_xxAA_s132_3.1.0.dir/__/nrf_mesh_sdk.c.obj
                0x0001f83c                HardFault_Handler
 .text.SWI2_EGU2_IRQHandler
                0x0001f89c       0x3c examples/dfu/CMakeFiles/dfu_nrf52832_xxAA_s132_3.1.0.dir/__/nrf_mesh_sdk.c.obj
                0x0001f89c                SWI2_EGU2_IRQHandler
 .text.mesh_softdevice_enable
                0x0001f8d8      0x128 examples/dfu/CMakeFiles/dfu_nrf52832_xxAA_s132_3.1.0.dir/__/nrf_mesh_sdk.c.obj
                0x0001f8d8                mesh_softdevice_enable
 .text.mesh_softdevice_setup
                0x0001fa00       0x80 examples/dfu/CMakeFiles/dfu_nrf52832_xxAA_s132_3.1.0.dir/__/nrf_mesh_sdk.c.obj
                0x0001fa00                mesh_softdevice_setup
 .text.mesh_core_setup
                0x0001fa80      0x150 examples/dfu/CMakeFiles/dfu_nrf52832_xxAA_s132_3.1.0.dir/__/nrf_mesh_sdk.c.obj
                0x0001fa80                mesh_core_setup
 .text.add_to_publication_list
                0x0001fbd0       0x84 examples/dfu/CMakeFiles/dfu_nrf52832_xxAA_s132_3.1.0.dir/__/__/mesh/access/src/access_publish.c.obj
 .text.step_resolution_to_us
                0x0001fc54       0x44 examples/dfu/CMakeFiles/dfu_nrf52832_xxAA_s132_3.1.0.dir/__/__/mesh/access/src/access_publish.c.obj
 .text.schedule_publication_timer
                0x0001fc98      0x184 examples/dfu/CMakeFiles/dfu_nrf52832_xxAA_s132_3.1.0.dir/__/__/mesh/access/src/access_publish.c.obj
 .text.access_publish_period_set
                0x0001fe1c       0x6c examples/dfu/CMakeFiles/dfu_nrf52832_xxAA_s132_3.1.0.dir/__/__/mesh/access/src/access_publish.c.obj
                0x0001fe1c                access_publish_period_set
 .text.access_publish_period_get
                0x0001fe88       0x30 examples/dfu/CMakeFiles/dfu_nrf52832_xxAA_s132_3.1.0.dir/__/__/mesh/access/src/access_publish.c.obj
                0x0001fe88                access_publish_period_get
 .text.bitfield_get
                0x0001feb8       0x1a examples/dfu/CMakeFiles/dfu_nrf52832_xxAA_s132_3.1.0.dir/__/__/mesh/access/src/access.c.obj
 *fill*         0x0001fed2        0x2 
 .text.model_handle_valid_and_allocated
                0x0001fed4       0x20 examples/dfu/CMakeFiles/dfu_nrf52832_xxAA_s132_3.1.0.dir/__/__/mesh/access/src/access.c.obj
 .text.flash_manager_mem_available
                0x0001fef4        0x2 examples/dfu/CMakeFiles/dfu_nrf52832_xxAA_s132_3.1.0.dir/__/__/mesh/access/src/access.c.obj
 *fill*         0x0001fef6        0x2 
 .text.access_flash_config_clear
                0x0001fef8       0x28 examples/dfu/CMakeFiles/dfu_nrf52832_xxAA_s132_3.1.0.dir/__/__/mesh/access/src/access.c.obj
 .text.access_flash_config_store
                0x0001ff20      0x14c examples/dfu/CMakeFiles/dfu_nrf52832_xxAA_s132_3.1.0.dir/__/__/mesh/access/src/access.c.obj
                0x0001ff20                access_flash_config_store
 .text.access_state_clear
                0x0002006c       0x4c examples/dfu/CMakeFiles/dfu_nrf52832_xxAA_s132_3.1.0.dir/__/__/mesh/access/src/access.c.obj
 .text.access_clear
                0x000200b8       0x12 examples/dfu/CMakeFiles/dfu_nrf52832_xxAA_s132_3.1.0.dir/__/__/mesh/access/src/access.c.obj
                0x000200b8                access_clear
 *fill*         0x000200ca        0x2 
 .text.access_model_publish_address_set
                0x000200cc       0x3c examples/dfu/CMakeFiles/dfu_nrf52832_xxAA_s132_3.1.0.dir/__/__/mesh/access/src/access.c.obj
                0x000200cc                access_model_publish_address_set
 .text.access_model_publish_address_get
                0x00020108       0x28 examples/dfu/CMakeFiles/dfu_nrf52832_xxAA_s132_3.1.0.dir/__/__/mesh/access/src/access.c.obj
                0x00020108                access_model_publish_address_get
 .text.access_model_publish_period_set
                0x00020130       0x6c examples/dfu/CMakeFiles/dfu_nrf52832_xxAA_s132_3.1.0.dir/__/__/mesh/access/src/access.c.obj
                0x00020130                access_model_publish_period_set
 .text.access_model_publish_period_get
                0x0002019c       0x3c examples/dfu/CMakeFiles/dfu_nrf52832_xxAA_s132_3.1.0.dir/__/__/mesh/access/src/access.c.obj
                0x0002019c                access_model_publish_period_get
 .text.access_model_subscription_add
                0x000201d8       0x60 examples/dfu/CMakeFiles/dfu_nrf52832_xxAA_s132_3.1.0.dir/__/__/mesh/access/src/access.c.obj
                0x000201d8                access_model_subscription_add
 .text.access_model_subscription_remove
                0x00020238       0x60 examples/dfu/CMakeFiles/dfu_nrf52832_xxAA_s132_3.1.0.dir/__/__/mesh/access/src/access.c.obj
                0x00020238                access_model_subscription_remove
 .text.access_model_subscriptions_get
                0x00020298       0x80 examples/dfu/CMakeFiles/dfu_nrf52832_xxAA_s132_3.1.0.dir/__/__/mesh/access/src/access.c.obj
                0x00020298                access_model_subscriptions_get
 .text.access_model_application_bind
                0x00020318       0x50 examples/dfu/CMakeFiles/dfu_nrf52832_xxAA_s132_3.1.0.dir/__/__/mesh/access/src/access.c.obj
                0x00020318                access_model_application_bind
 .text.access_model_application_unbind
                0x00020368       0x50 examples/dfu/CMakeFiles/dfu_nrf52832_xxAA_s132_3.1.0.dir/__/__/mesh/access/src/access.c.obj
                0x00020368                access_model_application_unbind
 .text.access_model_applications_get
                0x000203b8       0x64 examples/dfu/CMakeFiles/dfu_nrf52832_xxAA_s132_3.1.0.dir/__/__/mesh/access/src/access.c.obj
                0x000203b8                access_model_applications_get
 .text.access_model_publish_application_set
                0x0002041c       0x3c examples/dfu/CMakeFiles/dfu_nrf52832_xxAA_s132_3.1.0.dir/__/__/mesh/access/src/access.c.obj
                0x0002041c                access_model_publish_application_set
 .text.access_model_publish_application_get
                0x00020458       0x28 examples/dfu/CMakeFiles/dfu_nrf52832_xxAA_s132_3.1.0.dir/__/__/mesh/access/src/access.c.obj
                0x00020458                access_model_publish_application_get
 .text.access_model_publish_ttl_set
                0x00020480       0x40 examples/dfu/CMakeFiles/dfu_nrf52832_xxAA_s132_3.1.0.dir/__/__/mesh/access/src/access.c.obj
                0x00020480                access_model_publish_ttl_set
 .text.access_model_publish_ttl_get
                0x000204c0       0x28 examples/dfu/CMakeFiles/dfu_nrf52832_xxAA_s132_3.1.0.dir/__/__/mesh/access/src/access.c.obj
                0x000204c0                access_model_publish_ttl_get
 .text.access_element_location_set
                0x000204e8       0x20 examples/dfu/CMakeFiles/dfu_nrf52832_xxAA_s132_3.1.0.dir/__/__/mesh/access/src/access.c.obj
                0x000204e8                access_element_location_set
 .text.access_element_location_get
                0x00020508       0x18 examples/dfu/CMakeFiles/dfu_nrf52832_xxAA_s132_3.1.0.dir/__/__/mesh/access/src/access.c.obj
                0x00020508                access_element_location_get
 .text.access_element_sig_model_count_get
                0x00020520       0x18 examples/dfu/CMakeFiles/dfu_nrf52832_xxAA_s132_3.1.0.dir/__/__/mesh/access/src/access.c.obj
                0x00020520                access_element_sig_model_count_get
 .text.access_element_vendor_model_count_get
                0x00020538       0x18 examples/dfu/CMakeFiles/dfu_nrf52832_xxAA_s132_3.1.0.dir/__/__/mesh/access/src/access.c.obj
                0x00020538                access_element_vendor_model_count_get
 .text.access_model_id_get
                0x00020550       0x2c examples/dfu/CMakeFiles/dfu_nrf52832_xxAA_s132_3.1.0.dir/__/__/mesh/access/src/access.c.obj
                0x00020550                access_model_id_get
 .text.access_handle_get
                0x0002057c       0x54 examples/dfu/CMakeFiles/dfu_nrf52832_xxAA_s132_3.1.0.dir/__/__/mesh/access/src/access.c.obj
                0x0002057c                access_handle_get
 .text.access_element_models_get
                0x000205d0       0x48 examples/dfu/CMakeFiles/dfu_nrf52832_xxAA_s132_3.1.0.dir/__/__/mesh/access/src/access.c.obj
                0x000205d0                access_element_models_get
 .text.access_reliable_cancel_all
                0x00020618       0x34 examples/dfu/CMakeFiles/dfu_nrf52832_xxAA_s132_3.1.0.dir/__/__/mesh/access/src/access_reliable.c.obj
                0x00020618                access_reliable_cancel_all
 .text.bitfield_get
                0x0002064c       0x1a examples/dfu/CMakeFiles/dfu_nrf52832_xxAA_s132_3.1.0.dir/__/__/mesh/access/src/device_state_manager.c.obj
 .text.bitfield_set
                0x00020666       0x18 examples/dfu/CMakeFiles/dfu_nrf52832_xxAA_s132_3.1.0.dir/__/__/mesh/access/src/device_state_manager.c.obj
 .text.bitfield_clear
                0x0002067e       0x1a examples/dfu/CMakeFiles/dfu_nrf52832_xxAA_s132_3.1.0.dir/__/__/mesh/access/src/device_state_manager.c.obj
 .text.address_handle_virtual_valid
                0x00020698       0x18 examples/dfu/CMakeFiles/dfu_nrf52832_xxAA_s132_3.1.0.dir/__/__/mesh/access/src/device_state_manager.c.obj
 .text.net_key_handle_get
                0x000206b0       0x58 examples/dfu/CMakeFiles/dfu_nrf52832_xxAA_s132_3.1.0.dir/__/__/mesh/access/src/device_state_manager.c.obj
 .text.dev_key_handle_get
                0x00020708       0x30 examples/dfu/CMakeFiles/dfu_nrf52832_xxAA_s132_3.1.0.dir/__/__/mesh/access/src/device_state_manager.c.obj
 .text.app_key_handle_get
                0x00020738       0x58 examples/dfu/CMakeFiles/dfu_nrf52832_xxAA_s132_3.1.0.dir/__/__/mesh/access/src/device_state_manager.c.obj
 .text.addr_nonvirtual_to_flash_entry
                0x00020790       0x10 examples/dfu/CMakeFiles/dfu_nrf52832_xxAA_s132_3.1.0.dir/__/__/mesh/access/src/device_state_manager.c.obj
 .text.flash_mem_listener_callback
                0x000207a0       0x20 examples/dfu/CMakeFiles/dfu_nrf52832_xxAA_s132_3.1.0.dir/__/__/mesh/access/src/device_state_manager.c.obj
 .text.devkey_set
                0x000207c0       0x50 examples/dfu/CMakeFiles/dfu_nrf52832_xxAA_s132_3.1.0.dir/__/__/mesh/access/src/device_state_manager.c.obj
 .text.devkey_to_dsm_entry
                0x00020810       0x18 examples/dfu/CMakeFiles/dfu_nrf52832_xxAA_s132_3.1.0.dir/__/__/mesh/access/src/device_state_manager.c.obj
 .text.devkey_to_flash_entry
                0x00020828       0x28 examples/dfu/CMakeFiles/dfu_nrf52832_xxAA_s132_3.1.0.dir/__/__/mesh/access/src/device_state_manager.c.obj
 .text.appkey_to_flash_entry
                0x00020850       0x28 examples/dfu/CMakeFiles/dfu_nrf52832_xxAA_s132_3.1.0.dir/__/__/mesh/access/src/device_state_manager.c.obj
 .text.subnet_to_flash_entry
                0x00020878       0x20 examples/dfu/CMakeFiles/dfu_nrf52832_xxAA_s132_3.1.0.dir/__/__/mesh/access/src/device_state_manager.c.obj
 .text.addr_virtual_to_flash_entry
                0x00020898       0x18 examples/dfu/CMakeFiles/dfu_nrf52832_xxAA_s132_3.1.0.dir/__/__/mesh/access/src/device_state_manager.c.obj
 .text.addr_unicast_to_dsm_entry
                0x000208b0        0xc examples/dfu/CMakeFiles/dfu_nrf52832_xxAA_s132_3.1.0.dir/__/__/mesh/access/src/device_state_manager.c.obj
 .text.addr_unicast_to_flash_entry
                0x000208bc       0x10 examples/dfu/CMakeFiles/dfu_nrf52832_xxAA_s132_3.1.0.dir/__/__/mesh/access/src/device_state_manager.c.obj
 .text.appkey_set
                0x000208cc       0x6c examples/dfu/CMakeFiles/dfu_nrf52832_xxAA_s132_3.1.0.dir/__/__/mesh/access/src/device_state_manager.c.obj
 .text.appkey_to_dsm_entry
                0x00020938       0x14 examples/dfu/CMakeFiles/dfu_nrf52832_xxAA_s132_3.1.0.dir/__/__/mesh/access/src/device_state_manager.c.obj
 .text.subnet_set
                0x0002094c       0x94 examples/dfu/CMakeFiles/dfu_nrf52832_xxAA_s132_3.1.0.dir/__/__/mesh/access/src/device_state_manager.c.obj
 .text.subnet_to_dsm_entry
                0x000209e0        0xc examples/dfu/CMakeFiles/dfu_nrf52832_xxAA_s132_3.1.0.dir/__/__/mesh/access/src/device_state_manager.c.obj
 .text.virtual_address_set
                0x000209ec       0x58 examples/dfu/CMakeFiles/dfu_nrf52832_xxAA_s132_3.1.0.dir/__/__/mesh/access/src/device_state_manager.c.obj
 .text.addr_virtual_to_dsm_entry
                0x00020a44        0xe examples/dfu/CMakeFiles/dfu_nrf52832_xxAA_s132_3.1.0.dir/__/__/mesh/access/src/device_state_manager.c.obj
 *fill*         0x00020a52        0x2 
 .text.flash_save
                0x00020a54       0x84 examples/dfu/CMakeFiles/dfu_nrf52832_xxAA_s132_3.1.0.dir/__/__/mesh/access/src/device_state_manager.c.obj
 .text.flash_invalidate
                0x00020ad8       0x68 examples/dfu/CMakeFiles/dfu_nrf52832_xxAA_s132_3.1.0.dir/__/__/mesh/access/src/device_state_manager.c.obj
 .text.reset_flash_area
                0x00020b40       0x28 examples/dfu/CMakeFiles/dfu_nrf52832_xxAA_s132_3.1.0.dir/__/__/mesh/access/src/device_state_manager.c.obj
 .text.virtual_address_uuid_index_get
                0x00020b68       0x60 examples/dfu/CMakeFiles/dfu_nrf52832_xxAA_s132_3.1.0.dir/__/__/mesh/access/src/device_state_manager.c.obj
 .text.add_address_virtual
                0x00020bc8       0x74 examples/dfu/CMakeFiles/dfu_nrf52832_xxAA_s132_3.1.0.dir/__/__/mesh/access/src/device_state_manager.c.obj
 .text.get_subnet_handle
                0x00020c3c       0x3c examples/dfu/CMakeFiles/dfu_nrf52832_xxAA_s132_3.1.0.dir/__/__/mesh/access/src/device_state_manager.c.obj
 .text.get_app_handle
                0x00020c78       0x48 examples/dfu/CMakeFiles/dfu_nrf52832_xxAA_s132_3.1.0.dir/__/__/mesh/access/src/device_state_manager.c.obj
 .text.add_address.part.5
                0x00020cc0      0x164 examples/dfu/CMakeFiles/dfu_nrf52832_xxAA_s132_3.1.0.dir/__/__/mesh/access/src/device_state_manager.c.obj
 .text.address_handle_valid
                0x00020e24       0x28 examples/dfu/CMakeFiles/dfu_nrf52832_xxAA_s132_3.1.0.dir/__/__/mesh/access/src/device_state_manager.c.obj
 .text.address_handle_nonvirtual_valid
                0x00020e4c       0x14 examples/dfu/CMakeFiles/dfu_nrf52832_xxAA_s132_3.1.0.dir/__/__/mesh/access/src/device_state_manager.c.obj
 .text.address_delete_if_unused
                0x00020e60       0x78 examples/dfu/CMakeFiles/dfu_nrf52832_xxAA_s132_3.1.0.dir/__/__/mesh/access/src/device_state_manager.c.obj
 .text.addr_nonvirtual_to_dsm_entry
                0x00020ed8       0x38 examples/dfu/CMakeFiles/dfu_nrf52832_xxAA_s132_3.1.0.dir/__/__/mesh/access/src/device_state_manager.c.obj
 .text.dsm_clear
                0x00020f10       0x74 examples/dfu/CMakeFiles/dfu_nrf52832_xxAA_s132_3.1.0.dir/__/__/mesh/access/src/device_state_manager.c.obj
                0x00020f10                dsm_clear
 .text.dsm_local_unicast_addresses_set
                0x00020f84       0x74 examples/dfu/CMakeFiles/dfu_nrf52832_xxAA_s132_3.1.0.dir/__/__/mesh/access/src/device_state_manager.c.obj
                0x00020f84                dsm_local_unicast_addresses_set
 .text.dsm_local_unicast_addresses_get
                0x00020ff8       0x2c examples/dfu/CMakeFiles/dfu_nrf52832_xxAA_s132_3.1.0.dir/__/__/mesh/access/src/device_state_manager.c.obj
                0x00020ff8                dsm_local_unicast_addresses_get
 .text.dsm_address_publish_add
                0x00021024        0xc examples/dfu/CMakeFiles/dfu_nrf52832_xxAA_s132_3.1.0.dir/__/__/mesh/access/src/device_state_manager.c.obj
                0x00021024                dsm_address_publish_add
 .text.dsm_address_publish_virtual_add
                0x00021030        0x6 examples/dfu/CMakeFiles/dfu_nrf52832_xxAA_s132_3.1.0.dir/__/__/mesh/access/src/device_state_manager.c.obj
                0x00021030                dsm_address_publish_virtual_add
 *fill*         0x00021036        0x2 
 .text.dsm_address_publish_remove
                0x00021038       0x44 examples/dfu/CMakeFiles/dfu_nrf52832_xxAA_s132_3.1.0.dir/__/__/mesh/access/src/device_state_manager.c.obj
                0x00021038                dsm_address_publish_remove
 .text.dsm_address_subscription_add
                0x0002107c        0xc examples/dfu/CMakeFiles/dfu_nrf52832_xxAA_s132_3.1.0.dir/__/__/mesh/access/src/device_state_manager.c.obj
                0x0002107c                dsm_address_subscription_add
 .text.dsm_address_subscription_virtual_add
                0x00021088        0x6 examples/dfu/CMakeFiles/dfu_nrf52832_xxAA_s132_3.1.0.dir/__/__/mesh/access/src/device_state_manager.c.obj
                0x00021088                dsm_address_subscription_virtual_add
 *fill*         0x0002108e        0x2 
 .text.dsm_address_subscription_get
                0x00021090       0x34 examples/dfu/CMakeFiles/dfu_nrf52832_xxAA_s132_3.1.0.dir/__/__/mesh/access/src/device_state_manager.c.obj
                0x00021090                dsm_address_subscription_get
 .text.dsm_address_get
                0x000210c4       0x5c examples/dfu/CMakeFiles/dfu_nrf52832_xxAA_s132_3.1.0.dir/__/__/mesh/access/src/device_state_manager.c.obj
                0x000210c4                dsm_address_get
 .text.dsm_address_subscription_remove
                0x00021120       0x5c examples/dfu/CMakeFiles/dfu_nrf52832_xxAA_s132_3.1.0.dir/__/__/mesh/access/src/device_state_manager.c.obj
                0x00021120                dsm_address_subscription_remove
 .text.dsm_address_get_all
                0x0002117c       0x74 examples/dfu/CMakeFiles/dfu_nrf52832_xxAA_s132_3.1.0.dir/__/__/mesh/access/src/device_state_manager.c.obj
                0x0002117c                dsm_address_get_all
 .text.dsm_address_handle_get
                0x000211f0       0x98 examples/dfu/CMakeFiles/dfu_nrf52832_xxAA_s132_3.1.0.dir/__/__/mesh/access/src/device_state_manager.c.obj
                0x000211f0                dsm_address_handle_get
 .text.dsm_subnet_handle_get
                0x00021288        0xc examples/dfu/CMakeFiles/dfu_nrf52832_xxAA_s132_3.1.0.dir/__/__/mesh/access/src/device_state_manager.c.obj
                0x00021288                dsm_subnet_handle_get
 .text.dsm_appkey_handle_get
                0x00021294        0xc examples/dfu/CMakeFiles/dfu_nrf52832_xxAA_s132_3.1.0.dir/__/__/mesh/access/src/device_state_manager.c.obj
                0x00021294                dsm_appkey_handle_get
 .text.dsm_subnet_add
                0x000212a0       0x58 examples/dfu/CMakeFiles/dfu_nrf52832_xxAA_s132_3.1.0.dir/__/__/mesh/access/src/device_state_manager.c.obj
                0x000212a0                dsm_subnet_add
 .text.dsm_subnet_update
                0x000212f8       0x44 examples/dfu/CMakeFiles/dfu_nrf52832_xxAA_s132_3.1.0.dir/__/__/mesh/access/src/device_state_manager.c.obj
                0x000212f8                dsm_subnet_update
 .text.dsm_subnet_get_all
                0x0002133c       0x60 examples/dfu/CMakeFiles/dfu_nrf52832_xxAA_s132_3.1.0.dir/__/__/mesh/access/src/device_state_manager.c.obj
                0x0002133c                dsm_subnet_get_all
 .text.dsm_devkey_add
                0x0002139c       0x7c examples/dfu/CMakeFiles/dfu_nrf52832_xxAA_s132_3.1.0.dir/__/__/mesh/access/src/device_state_manager.c.obj
                0x0002139c                dsm_devkey_add
 .text.dsm_devkey_delete
                0x00021418       0x38 examples/dfu/CMakeFiles/dfu_nrf52832_xxAA_s132_3.1.0.dir/__/__/mesh/access/src/device_state_manager.c.obj
                0x00021418                dsm_devkey_delete
 .text.dsm_appkey_add
                0x00021450       0x78 examples/dfu/CMakeFiles/dfu_nrf52832_xxAA_s132_3.1.0.dir/__/__/mesh/access/src/device_state_manager.c.obj
                0x00021450                dsm_appkey_add
 .text.dsm_appkey_update
                0x000214c8       0x48 examples/dfu/CMakeFiles/dfu_nrf52832_xxAA_s132_3.1.0.dir/__/__/mesh/access/src/device_state_manager.c.obj
                0x000214c8                dsm_appkey_update
 .text.dsm_appkey_delete
                0x00021510       0x30 examples/dfu/CMakeFiles/dfu_nrf52832_xxAA_s132_3.1.0.dir/__/__/mesh/access/src/device_state_manager.c.obj
                0x00021510                dsm_appkey_delete
 .text.dsm_subnet_delete
                0x00021540       0xa4 examples/dfu/CMakeFiles/dfu_nrf52832_xxAA_s132_3.1.0.dir/__/__/mesh/access/src/device_state_manager.c.obj
                0x00021540                dsm_subnet_delete
 .text.dsm_appkey_get_all
                0x000215e4       0x88 examples/dfu/CMakeFiles/dfu_nrf52832_xxAA_s132_3.1.0.dir/__/__/mesh/access/src/device_state_manager.c.obj
                0x000215e4                dsm_appkey_get_all
 .text.dsm_tx_secmat_get
                0x0002166c       0xec examples/dfu/CMakeFiles/dfu_nrf52832_xxAA_s132_3.1.0.dir/__/__/mesh/access/src/device_state_manager.c.obj
                0x0002166c                dsm_tx_secmat_get
 .text.nrf_mesh_net_secmat_next_get
                0x00021758       0x74 examples/dfu/CMakeFiles/dfu_nrf52832_xxAA_s132_3.1.0.dir/__/__/mesh/access/src/device_state_manager.c.obj
                0x00021758                nrf_mesh_net_secmat_next_get
 .text.nrf_mesh_app_secmat_next_get
                0x000217cc       0x9c examples/dfu/CMakeFiles/dfu_nrf52832_xxAA_s132_3.1.0.dir/__/__/mesh/access/src/device_state_manager.c.obj
                0x000217cc                nrf_mesh_app_secmat_next_get
 .text.nrf_mesh_devkey_secmat_get
                0x00021868       0x34 examples/dfu/CMakeFiles/dfu_nrf52832_xxAA_s132_3.1.0.dir/__/__/mesh/access/src/device_state_manager.c.obj
                0x00021868                nrf_mesh_devkey_secmat_get
 .text.nrf_mesh_beacon_info_next_get
                0x0002189c       0xbc examples/dfu/CMakeFiles/dfu_nrf52832_xxAA_s132_3.1.0.dir/__/__/mesh/access/src/device_state_manager.c.obj
                0x0002189c                nrf_mesh_beacon_info_next_get
 .text.nrf_mesh_rx_address_get
                0x00021958      0x118 examples/dfu/CMakeFiles/dfu_nrf52832_xxAA_s132_3.1.0.dir/__/__/mesh/access/src/device_state_manager.c.obj
                0x00021958                nrf_mesh_rx_address_get
 .text.serial_uart_init
                0x00021a70       0xa0 examples/dfu/CMakeFiles/dfu_nrf52832_xxAA_s132_3.1.0.dir/__/__/mesh/serial/src/serial_uart.c.obj
                0x00021a70                serial_uart_init
 .text.serial_uart_process
                0x00021b10       0x5c examples/dfu/CMakeFiles/dfu_nrf52832_xxAA_s132_3.1.0.dir/__/__/mesh/serial/src/serial_uart.c.obj
                0x00021b10                serial_uart_process
 .text.UARTE0_UART0_IRQHandler
                0x00021b6c        0x4 examples/dfu/CMakeFiles/dfu_nrf52832_xxAA_s132_3.1.0.dir/__/__/mesh/serial/src/serial_uart.c.obj
                0x00021b6c                UARTE0_UART0_IRQHandler
 .text.serial_uart_receive_set
                0x00021b70        0xc examples/dfu/CMakeFiles/dfu_nrf52832_xxAA_s132_3.1.0.dir/__/__/mesh/serial/src/serial_uart.c.obj
                0x00021b70                serial_uart_receive_set
 .text.do_transmit
                0x00021b7c       0x44 examples/dfu/CMakeFiles/dfu_nrf52832_xxAA_s132_3.1.0.dir/__/__/mesh/serial/src/serial_bearer.c.obj
 .text.char_tx  0x00021bc0       0x84 examples/dfu/CMakeFiles/dfu_nrf52832_xxAA_s132_3.1.0.dir/__/__/mesh/serial/src/serial_bearer.c.obj
 .text.serial_bearer_init
                0x00021c44       0x80 examples/dfu/CMakeFiles/dfu_nrf52832_xxAA_s132_3.1.0.dir/__/__/mesh/serial/src/serial_bearer.c.obj
                0x00021c44                serial_bearer_init
 .text.serial_bearer_packet_buffer_get
                0x00021cc4       0x24 examples/dfu/CMakeFiles/dfu_nrf52832_xxAA_s132_3.1.0.dir/__/__/mesh/serial/src/serial_bearer.c.obj
                0x00021cc4                serial_bearer_packet_buffer_get
 .text.serial_bearer_blocking_buffer_get
                0x00021ce8       0x38 examples/dfu/CMakeFiles/dfu_nrf52832_xxAA_s132_3.1.0.dir/__/__/mesh/serial/src/serial_bearer.c.obj
                0x00021ce8                serial_bearer_blocking_buffer_get
 .text.serial_bearer_tx
                0x00021d20       0x70 examples/dfu/CMakeFiles/dfu_nrf52832_xxAA_s132_3.1.0.dir/__/__/mesh/serial/src/serial_bearer.c.obj
                0x00021d20                serial_bearer_tx
 .text.send_cmd_response.constprop.5
                0x00021d90       0x26 examples/dfu/CMakeFiles/dfu_nrf52832_xxAA_s132_3.1.0.dir/__/__/mesh/serial/src/serial_bearer.c.obj
 *fill*         0x00021db6        0x2 
 .text.char_rx  0x00021db8       0xa4 examples/dfu/CMakeFiles/dfu_nrf52832_xxAA_s132_3.1.0.dir/__/__/mesh/serial/src/serial_bearer.c.obj
 .text.serial_bearer_rx_get
                0x00021e5c       0x38 examples/dfu/CMakeFiles/dfu_nrf52832_xxAA_s132_3.1.0.dir/__/__/mesh/serial/src/serial_bearer.c.obj
                0x00021e5c                serial_bearer_rx_get
 .text.serial_handler_common_cmd_rsp_nodata_on_error
                0x00021e94       0x2a examples/dfu/CMakeFiles/dfu_nrf52832_xxAA_s132_3.1.0.dir/__/__/mesh/serial/src/serial_handler_common.c.obj
                0x00021e94                serial_handler_common_cmd_rsp_nodata_on_error
 .text.serial_handler_common_rx
                0x00021ebe       0x4a examples/dfu/CMakeFiles/dfu_nrf52832_xxAA_s132_3.1.0.dir/__/__/mesh/serial/src/serial_handler_common.c.obj
                0x00021ebe                serial_handler_common_rx
 .text.access_flash_store
                0x00021f08       0x18 examples/dfu/CMakeFiles/dfu_nrf52832_xxAA_s132_3.1.0.dir/__/__/mesh/serial/src/serial_handler_access.c.obj
 .text.elem_models_get
                0x00021f20       0x44 examples/dfu/CMakeFiles/dfu_nrf52832_xxAA_s132_3.1.0.dir/__/__/mesh/serial/src/serial_handler_access.c.obj
 .text.handle_get
                0x00021f64       0x1e examples/dfu/CMakeFiles/dfu_nrf52832_xxAA_s132_3.1.0.dir/__/__/mesh/serial/src/serial_handler_access.c.obj
 .text.model_id_get
                0x00021f82       0x1e examples/dfu/CMakeFiles/dfu_nrf52832_xxAA_s132_3.1.0.dir/__/__/mesh/serial/src/serial_handler_access.c.obj
 .text.elem_vendor_model_cnt_get
                0x00021fa0       0x1c examples/dfu/CMakeFiles/dfu_nrf52832_xxAA_s132_3.1.0.dir/__/__/mesh/serial/src/serial_handler_access.c.obj
 .text.elem_sig_model_cnt_get
                0x00021fbc       0x1c examples/dfu/CMakeFiles/dfu_nrf52832_xxAA_s132_3.1.0.dir/__/__/mesh/serial/src/serial_handler_access.c.obj
 .text.elem_loc_get
                0x00021fd8       0x1c examples/dfu/CMakeFiles/dfu_nrf52832_xxAA_s132_3.1.0.dir/__/__/mesh/serial/src/serial_handler_access.c.obj
 .text.elem_loc_set
                0x00021ff4       0x22 examples/dfu/CMakeFiles/dfu_nrf52832_xxAA_s132_3.1.0.dir/__/__/mesh/serial/src/serial_handler_access.c.obj
 .text.model_pub_ttl_get
                0x00022016       0x1c examples/dfu/CMakeFiles/dfu_nrf52832_xxAA_s132_3.1.0.dir/__/__/mesh/serial/src/serial_handler_access.c.obj
 .text.model_pub_ttl_set
                0x00022032       0x22 examples/dfu/CMakeFiles/dfu_nrf52832_xxAA_s132_3.1.0.dir/__/__/mesh/serial/src/serial_handler_access.c.obj
 .text.model_pub_app_get
                0x00022054       0x1c examples/dfu/CMakeFiles/dfu_nrf52832_xxAA_s132_3.1.0.dir/__/__/mesh/serial/src/serial_handler_access.c.obj
 .text.model_pub_app_set
                0x00022070       0x22 examples/dfu/CMakeFiles/dfu_nrf52832_xxAA_s132_3.1.0.dir/__/__/mesh/serial/src/serial_handler_access.c.obj
 .text.model_app_get
                0x00022092       0x44 examples/dfu/CMakeFiles/dfu_nrf52832_xxAA_s132_3.1.0.dir/__/__/mesh/serial/src/serial_handler_access.c.obj
 .text.model_app_unbind
                0x000220d6       0x22 examples/dfu/CMakeFiles/dfu_nrf52832_xxAA_s132_3.1.0.dir/__/__/mesh/serial/src/serial_handler_access.c.obj
 .text.model_app_bind
                0x000220f8       0x22 examples/dfu/CMakeFiles/dfu_nrf52832_xxAA_s132_3.1.0.dir/__/__/mesh/serial/src/serial_handler_access.c.obj
 .text.model_subs_get
                0x0002211a       0x44 examples/dfu/CMakeFiles/dfu_nrf52832_xxAA_s132_3.1.0.dir/__/__/mesh/serial/src/serial_handler_access.c.obj
 .text.model_subs_remove
                0x0002215e       0x22 examples/dfu/CMakeFiles/dfu_nrf52832_xxAA_s132_3.1.0.dir/__/__/mesh/serial/src/serial_handler_access.c.obj
 .text.model_subs_add
                0x00022180       0x22 examples/dfu/CMakeFiles/dfu_nrf52832_xxAA_s132_3.1.0.dir/__/__/mesh/serial/src/serial_handler_access.c.obj
 .text.model_pub_period_get
                0x000221a2       0x20 examples/dfu/CMakeFiles/dfu_nrf52832_xxAA_s132_3.1.0.dir/__/__/mesh/serial/src/serial_handler_access.c.obj
 .text.model_pub_period_set
                0x000221c2       0x24 examples/dfu/CMakeFiles/dfu_nrf52832_xxAA_s132_3.1.0.dir/__/__/mesh/serial/src/serial_handler_access.c.obj
 .text.model_pub_addr_get
                0x000221e6       0x1c examples/dfu/CMakeFiles/dfu_nrf52832_xxAA_s132_3.1.0.dir/__/__/mesh/serial/src/serial_handler_access.c.obj
 .text.model_pub_addr_set
                0x00022202       0x22 examples/dfu/CMakeFiles/dfu_nrf52832_xxAA_s132_3.1.0.dir/__/__/mesh/serial/src/serial_handler_access.c.obj
 .text.serial_handler_access_rx
                0x00022224       0x30 examples/dfu/CMakeFiles/dfu_nrf52832_xxAA_s132_3.1.0.dir/__/__/mesh/serial/src/serial_handler_access.c.obj
                0x00022224                serial_handler_access_rx
 .text.serial_handler_config_rx
                0x00022254       0xb4 examples/dfu/CMakeFiles/dfu_nrf52832_xxAA_s132_3.1.0.dir/__/__/mesh/serial/src/serial_handler_config.c.obj
                0x00022254                serial_handler_config_rx
 .text.serial_handler_openmesh_rx
                0x00022308       0x36 examples/dfu/CMakeFiles/dfu_nrf52832_xxAA_s132_3.1.0.dir/__/__/mesh/serial/src/serial_handler_openmesh.c.obj
                0x00022308                serial_handler_openmesh_rx
 *fill*         0x0002233e        0x2 
 .text.serial_init
                0x00022340       0x1c examples/dfu/CMakeFiles/dfu_nrf52832_xxAA_s132_3.1.0.dir/__/__/mesh/serial/src/serial.c.obj
                0x00022340                serial_init
 .text.serial_packet_buffer_get
                0x0002235c       0x14 examples/dfu/CMakeFiles/dfu_nrf52832_xxAA_s132_3.1.0.dir/__/__/mesh/serial/src/serial.c.obj
                0x0002235c                serial_packet_buffer_get
 .text.serial_tx
                0x00022370       0x2c examples/dfu/CMakeFiles/dfu_nrf52832_xxAA_s132_3.1.0.dir/__/__/mesh/serial/src/serial.c.obj
                0x00022370                serial_tx
 .text.serial_start
                0x0002239c       0xfc examples/dfu/CMakeFiles/dfu_nrf52832_xxAA_s132_3.1.0.dir/__/__/mesh/serial/src/serial.c.obj
                0x0002239c                serial_start
 .text.serial_process_cmd
                0x00022498      0x124 examples/dfu/CMakeFiles/dfu_nrf52832_xxAA_s132_3.1.0.dir/__/__/mesh/serial/src/serial.c.obj
 .text.serial_process
                0x000225bc       0x30 examples/dfu/CMakeFiles/dfu_nrf52832_xxAA_s132_3.1.0.dir/__/__/mesh/serial/src/serial.c.obj
                0x000225bc                serial_process
 .text.serial_translate_error
                0x000225ec       0x6e examples/dfu/CMakeFiles/dfu_nrf52832_xxAA_s132_3.1.0.dir/__/__/mesh/serial/src/serial.c.obj
                0x000225ec                serial_translate_error
 *fill*         0x0002265a        0x2 
 .text.serial_state_get
                0x0002265c        0xc examples/dfu/CMakeFiles/dfu_nrf52832_xxAA_s132_3.1.0.dir/__/__/mesh/serial/src/serial.c.obj
                0x0002265c                serial_state_get
 .text.serial_cmd_rsp_send
                0x00022668       0x64 examples/dfu/CMakeFiles/dfu_nrf52832_xxAA_s132_3.1.0.dir/__/__/mesh/serial/src/serial.c.obj
                0x00022668                serial_cmd_rsp_send
 .text.find_context_id
                0x000226cc       0x20 examples/dfu/CMakeFiles/dfu_nrf52832_xxAA_s132_3.1.0.dir/__/__/mesh/serial/src/serial_handler_prov.c.obj
 .text.serial_handler_prov_evt_in
                0x000226ec      0x28c examples/dfu/CMakeFiles/dfu_nrf52832_xxAA_s132_3.1.0.dir/__/__/mesh/serial/src/serial_handler_prov.c.obj
 .text.serial_handler_prov_init
                0x00022978       0x8c examples/dfu/CMakeFiles/dfu_nrf52832_xxAA_s132_3.1.0.dir/__/__/mesh/serial/src/serial_handler_prov.c.obj
                0x00022978                serial_handler_prov_init
 .text.serial_handler_prov_pkt_in
                0x00022a04      0x20c examples/dfu/CMakeFiles/dfu_nrf52832_xxAA_s132_3.1.0.dir/__/__/mesh/serial/src/serial_handler_prov.c.obj
                0x00022a04                serial_handler_prov_pkt_in
 .text.serial_handler_mesh_evt_handle
                0x00022c10      0x1d4 examples/dfu/CMakeFiles/dfu_nrf52832_xxAA_s132_3.1.0.dir/__/__/mesh/serial/src/serial_handler_dfu.c.obj
 .text.serial_handler_dfu_init
                0x00022de4       0x14 examples/dfu/CMakeFiles/dfu_nrf52832_xxAA_s132_3.1.0.dir/__/__/mesh/serial/src/serial_handler_dfu.c.obj
                0x00022de4                serial_handler_dfu_init
 .text.serial_handler_dfu_rx
                0x00022df8      0x15c examples/dfu/CMakeFiles/dfu_nrf52832_xxAA_s132_3.1.0.dir/__/__/mesh/serial/src/serial_handler_dfu.c.obj
                0x00022df8                serial_handler_dfu_rx
 .text.serial_handler_mesh_evt_handle
                0x00022f54      0x144 examples/dfu/CMakeFiles/dfu_nrf52832_xxAA_s132_3.1.0.dir/__/__/mesh/serial/src/serial_handler_mesh.c.obj
 .text.handle_cmd_clear
                0x00023098       0x20 examples/dfu/CMakeFiles/dfu_nrf52832_xxAA_s132_3.1.0.dir/__/__/mesh/serial/src/serial_handler_mesh.c.obj
 .text.handle_cmd_packet_send
                0x000230b8       0x8c examples/dfu/CMakeFiles/dfu_nrf52832_xxAA_s132_3.1.0.dir/__/__/mesh/serial/src/serial_handler_mesh.c.obj
 .text.handle_cmd_addr_virtual_count_max_get
                0x00023144       0x1a examples/dfu/CMakeFiles/dfu_nrf52832_xxAA_s132_3.1.0.dir/__/__/mesh/serial/src/serial_handler_mesh.c.obj
 .text.handle_cmd_appkey_count_max_get
                0x0002315e        0x4 examples/dfu/CMakeFiles/dfu_nrf52832_xxAA_s132_3.1.0.dir/__/__/mesh/serial/src/serial_handler_mesh.c.obj
 .text.handle_cmd_addr_nonvirtual_count_max_get
                0x00023162       0x1a examples/dfu/CMakeFiles/dfu_nrf52832_xxAA_s132_3.1.0.dir/__/__/mesh/serial/src/serial_handler_mesh.c.obj
 .text.handle_cmd_addr_local_unicast_get
                0x0002317c       0x2c examples/dfu/CMakeFiles/dfu_nrf52832_xxAA_s132_3.1.0.dir/__/__/mesh/serial/src/serial_handler_mesh.c.obj
 .text.handle_cmd_devkey_count_max_get
                0x000231a8       0x1a examples/dfu/CMakeFiles/dfu_nrf52832_xxAA_s132_3.1.0.dir/__/__/mesh/serial/src/serial_handler_mesh.c.obj
 .text.handle_cmd_subnet_count_max_get
                0x000231c2       0x1a examples/dfu/CMakeFiles/dfu_nrf52832_xxAA_s132_3.1.0.dir/__/__/mesh/serial/src/serial_handler_mesh.c.obj
 .text.handle_cmd_addr_get_all
                0x000231dc       0x28 examples/dfu/CMakeFiles/dfu_nrf52832_xxAA_s132_3.1.0.dir/__/__/mesh/serial/src/serial_handler_mesh.c.obj
 .text.handle_cmd_addr_get
                0x00023204       0x60 examples/dfu/CMakeFiles/dfu_nrf52832_xxAA_s132_3.1.0.dir/__/__/mesh/serial/src/serial_handler_mesh.c.obj
 .text.handle_cmd_addr_publication_remove
                0x00023264       0x26 examples/dfu/CMakeFiles/dfu_nrf52832_xxAA_s132_3.1.0.dir/__/__/mesh/serial/src/serial_handler_mesh.c.obj
 .text.handle_cmd_addr_publication_add_virtual
                0x0002328a       0x26 examples/dfu/CMakeFiles/dfu_nrf52832_xxAA_s132_3.1.0.dir/__/__/mesh/serial/src/serial_handler_mesh.c.obj
 .text.handle_cmd_addr_publication_add
                0x000232b0       0x26 examples/dfu/CMakeFiles/dfu_nrf52832_xxAA_s132_3.1.0.dir/__/__/mesh/serial/src/serial_handler_mesh.c.obj
 .text.handle_cmd_addr_subscription_remove
                0x000232d6       0x26 examples/dfu/CMakeFiles/dfu_nrf52832_xxAA_s132_3.1.0.dir/__/__/mesh/serial/src/serial_handler_mesh.c.obj
 .text.handle_cmd_addr_subscription_add_virtual
                0x000232fc       0x26 examples/dfu/CMakeFiles/dfu_nrf52832_xxAA_s132_3.1.0.dir/__/__/mesh/serial/src/serial_handler_mesh.c.obj
 .text.handle_cmd_addr_subscription_add
                0x00023322       0x26 examples/dfu/CMakeFiles/dfu_nrf52832_xxAA_s132_3.1.0.dir/__/__/mesh/serial/src/serial_handler_mesh.c.obj
 .text.handle_cmd_addr_local_unicast_set
                0x00023348       0x32 examples/dfu/CMakeFiles/dfu_nrf52832_xxAA_s132_3.1.0.dir/__/__/mesh/serial/src/serial_handler_mesh.c.obj
 .text.handle_cmd_devkey_delete
                0x0002337a       0x26 examples/dfu/CMakeFiles/dfu_nrf52832_xxAA_s132_3.1.0.dir/__/__/mesh/serial/src/serial_handler_mesh.c.obj
 .text.handle_cmd_devkey_add
                0x000233a0       0x20 examples/dfu/CMakeFiles/dfu_nrf52832_xxAA_s132_3.1.0.dir/__/__/mesh/serial/src/serial_handler_mesh.c.obj
 .text.handle_cmd_appkey_get_all
                0x000233c0       0x36 examples/dfu/CMakeFiles/dfu_nrf52832_xxAA_s132_3.1.0.dir/__/__/mesh/serial/src/serial_handler_mesh.c.obj
 .text.handle_cmd_appkey_delete
                0x000233f6       0x26 examples/dfu/CMakeFiles/dfu_nrf52832_xxAA_s132_3.1.0.dir/__/__/mesh/serial/src/serial_handler_mesh.c.obj
 .text.handle_cmd_appkey_update
                0x0002341c       0x28 examples/dfu/CMakeFiles/dfu_nrf52832_xxAA_s132_3.1.0.dir/__/__/mesh/serial/src/serial_handler_mesh.c.obj
 .text.handle_cmd_appkey_add
                0x00023444       0x2a examples/dfu/CMakeFiles/dfu_nrf52832_xxAA_s132_3.1.0.dir/__/__/mesh/serial/src/serial_handler_mesh.c.obj
 .text.handle_cmd_subnet_get_all
                0x0002346e       0x2e examples/dfu/CMakeFiles/dfu_nrf52832_xxAA_s132_3.1.0.dir/__/__/mesh/serial/src/serial_handler_mesh.c.obj
 .text.handle_cmd_subnet_delete
                0x0002349c       0x26 examples/dfu/CMakeFiles/dfu_nrf52832_xxAA_s132_3.1.0.dir/__/__/mesh/serial/src/serial_handler_mesh.c.obj
 .text.handle_cmd_subnet_update
                0x000234c2       0x28 examples/dfu/CMakeFiles/dfu_nrf52832_xxAA_s132_3.1.0.dir/__/__/mesh/serial/src/serial_handler_mesh.c.obj
 .text.handle_cmd_subnet_add
                0x000234ea       0x28 examples/dfu/CMakeFiles/dfu_nrf52832_xxAA_s132_3.1.0.dir/__/__/mesh/serial/src/serial_handler_mesh.c.obj
 .text.handle_cmd_disable
                0x00023512       0x18 examples/dfu/CMakeFiles/dfu_nrf52832_xxAA_s132_3.1.0.dir/__/__/mesh/serial/src/serial_handler_mesh.c.obj
 .text.handle_cmd_enable
                0x0002352a       0x18 examples/dfu/CMakeFiles/dfu_nrf52832_xxAA_s132_3.1.0.dir/__/__/mesh/serial/src/serial_handler_mesh.c.obj
 *fill*         0x00023542        0x2 
 .text.serial_handler_mesh_init
                0x00023544       0x14 examples/dfu/CMakeFiles/dfu_nrf52832_xxAA_s132_3.1.0.dir/__/__/mesh/serial/src/serial_handler_mesh.c.obj
                0x00023544                serial_handler_mesh_init
 .text.serial_handler_mesh_rx
                0x00023558       0x80 examples/dfu/CMakeFiles/dfu_nrf52832_xxAA_s132_3.1.0.dir/__/__/mesh/serial/src/serial_handler_mesh.c.obj
                0x00023558                serial_handler_mesh_rx
 .text.registered_model_get
                0x000235d8       0x3c examples/dfu/CMakeFiles/dfu_nrf52832_xxAA_s132_3.1.0.dir/__/__/mesh/serial/src/serial_handler_models.c.obj
 .text.model_command
                0x00023614       0x5e examples/dfu/CMakeFiles/dfu_nrf52832_xxAA_s132_3.1.0.dir/__/__/mesh/serial/src/serial_handler_models.c.obj
 .text.model_init
                0x00023672       0x3a examples/dfu/CMakeFiles/dfu_nrf52832_xxAA_s132_3.1.0.dir/__/__/mesh/serial/src/serial_handler_models.c.obj
 .text.models_get
                0x000236ac       0x7c examples/dfu/CMakeFiles/dfu_nrf52832_xxAA_s132_3.1.0.dir/__/__/mesh/serial/src/serial_handler_models.c.obj
 .text.serial_handler_models_rx
                0x00023728       0x30 examples/dfu/CMakeFiles/dfu_nrf52832_xxAA_s132_3.1.0.dir/__/__/mesh/serial/src/serial_handler_models.c.obj
                0x00023728                serial_handler_models_rx
 .text.handle_cmd_device_beacon_params_get
                0x00023758       0x90 examples/dfu/CMakeFiles/dfu_nrf52832_xxAA_s132_3.1.0.dir/__/__/mesh/serial/src/serial_handler_device.c.obj
 .text.handle_cmd_device_fw_info_get
                0x000237e8        0xc examples/dfu/CMakeFiles/dfu_nrf52832_xxAA_s132_3.1.0.dir/__/__/mesh/serial/src/serial_handler_device.c.obj
 .text.handle_cmd_device_serial_version_get
                0x000237f4       0x1a examples/dfu/CMakeFiles/dfu_nrf52832_xxAA_s132_3.1.0.dir/__/__/mesh/serial/src/serial_handler_device.c.obj
 *fill*         0x0002380e        0x2 
 .text.handle_cmd_device_beacon_params_set
                0x00023810       0x6c examples/dfu/CMakeFiles/dfu_nrf52832_xxAA_s132_3.1.0.dir/__/__/mesh/serial/src/serial_handler_device.c.obj
 .text.handle_cmd_device_beacon_stop
                0x0002387c       0x44 examples/dfu/CMakeFiles/dfu_nrf52832_xxAA_s132_3.1.0.dir/__/__/mesh/serial/src/serial_handler_device.c.obj
 .text.handle_cmd_device_beacon_start
                0x000238c0       0x70 examples/dfu/CMakeFiles/dfu_nrf52832_xxAA_s132_3.1.0.dir/__/__/mesh/serial/src/serial_handler_device.c.obj
 .text.handle_cmd_device_radio_reset
                0x00023930       0x1a examples/dfu/CMakeFiles/dfu_nrf52832_xxAA_s132_3.1.0.dir/__/__/mesh/serial/src/serial_handler_device.c.obj
 *fill*         0x0002394a        0x2 
 .text.handle_cmd_device_internal_events_report
                0x0002394c       0x20 examples/dfu/CMakeFiles/dfu_nrf52832_xxAA_s132_3.1.0.dir/__/__/mesh/serial/src/serial_handler_device.c.obj
 .text.event_report_cb
                0x0002396c       0x58 examples/dfu/CMakeFiles/dfu_nrf52832_xxAA_s132_3.1.0.dir/__/__/mesh/serial/src/serial_handler_device.c.obj
 .text.handle_cmd_device_echo
                0x000239c4       0x40 examples/dfu/CMakeFiles/dfu_nrf52832_xxAA_s132_3.1.0.dir/__/__/mesh/serial/src/serial_handler_device.c.obj
 .text.serial_handler_device_init
                0x00023a04       0x14 examples/dfu/CMakeFiles/dfu_nrf52832_xxAA_s132_3.1.0.dir/__/__/mesh/serial/src/serial_handler_device.c.obj
                0x00023a04                serial_handler_device_init
 .text.serial_handler_device_rx
                0x00023a18       0x30 examples/dfu/CMakeFiles/dfu_nrf52832_xxAA_s132_3.1.0.dir/__/__/mesh/serial/src/serial_handler_device.c.obj
                0x00023a18                serial_handler_device_rx
 .text.nrf_mesh_serial_init
                0x00023a48       0x36 examples/dfu/CMakeFiles/dfu_nrf52832_xxAA_s132_3.1.0.dir/__/__/mesh/serial/src/nrf_mesh_serial.c.obj
                0x00023a48                nrf_mesh_serial_init
 .text.nrf_mesh_serial_enable
                0x00023a7e        0x4 examples/dfu/CMakeFiles/dfu_nrf52832_xxAA_s132_3.1.0.dir/__/__/mesh/serial/src/nrf_mesh_serial.c.obj
                0x00023a7e                nrf_mesh_serial_enable
 *fill*         0x00023a82        0x2 
 .text.serial_handler_app_cb_set
                0x00023a84        0xc examples/dfu/CMakeFiles/dfu_nrf52832_xxAA_s132_3.1.0.dir/__/__/mesh/serial/src/serial_handler_app.c.obj
                0x00023a84                serial_handler_app_cb_set
 .text.serial_handler_app_rx
                0x00023a90       0x2c examples/dfu/CMakeFiles/dfu_nrf52832_xxAA_s132_3.1.0.dir/__/__/mesh/serial/src/serial_handler_app.c.obj
                0x00023a90                serial_handler_app_rx
 .text.send_confirmation
                0x00023abc       0x26 examples/dfu/CMakeFiles/dfu_nrf52832_xxAA_s132_3.1.0.dir/__/__/mesh/prov/src/prov_provisioner.c.obj
 .text.prov_provisioner_cb_link_closed
                0x00023ae2       0x28 examples/dfu/CMakeFiles/dfu_nrf52832_xxAA_s132_3.1.0.dir/__/__/mesh/prov/src/prov_provisioner.c.obj
 .text.prov_provisioner_cb_link_established
                0x00023b0a       0x3e examples/dfu/CMakeFiles/dfu_nrf52832_xxAA_s132_3.1.0.dir/__/__/mesh/prov/src/prov_provisioner.c.obj
 .text.prov_provisioner_cb_ack_received
                0x00023b48       0x48 examples/dfu/CMakeFiles/dfu_nrf52832_xxAA_s132_3.1.0.dir/__/__/mesh/prov/src/prov_provisioner.c.obj
 .text.request_authentication
                0x00023b90       0x8c examples/dfu/CMakeFiles/dfu_nrf52832_xxAA_s132_3.1.0.dir/__/__/mesh/prov/src/prov_provisioner.c.obj
 .text.prov_provisioner_pkt_in
                0x00023c1c      0x28c examples/dfu/CMakeFiles/dfu_nrf52832_xxAA_s132_3.1.0.dir/__/__/mesh/prov/src/prov_provisioner.c.obj
 .text.prov_provisioner_provision
                0x00023ea8       0x48 examples/dfu/CMakeFiles/dfu_nrf52832_xxAA_s132_3.1.0.dir/__/__/mesh/prov/src/prov_provisioner.c.obj
                0x00023ea8                prov_provisioner_provision
 .text.prov_provisioner_oob_use
                0x00023ef0       0x7a examples/dfu/CMakeFiles/dfu_nrf52832_xxAA_s132_3.1.0.dir/__/__/mesh/prov/src/prov_provisioner.c.obj
                0x00023ef0                prov_provisioner_oob_use
 .text.prov_provisioner_auth_data
                0x00023f6a       0x44 examples/dfu/CMakeFiles/dfu_nrf52832_xxAA_s132_3.1.0.dir/__/__/mesh/prov/src/prov_provisioner.c.obj
                0x00023f6a                prov_provisioner_auth_data
 .text.prov_provisioner_shared_secret
                0x00023fae       0x2a examples/dfu/CMakeFiles/dfu_nrf52832_xxAA_s132_3.1.0.dir/__/__/mesh/prov/src/prov_provisioner.c.obj
                0x00023fae                prov_provisioner_shared_secret
 .text.complete_provisioning
                0x00023fd8       0x52 examples/dfu/CMakeFiles/dfu_nrf52832_xxAA_s132_3.1.0.dir/__/__/mesh/prov/src/prov_provisionee.c.obj
 .text.prov_provisionee_cb_link_closed
                0x0002402a       0x32 examples/dfu/CMakeFiles/dfu_nrf52832_xxAA_s132_3.1.0.dir/__/__/mesh/prov/src/prov_provisionee.c.obj
 .text.prov_provisionee_cb_link_established
                0x0002405c       0x20 examples/dfu/CMakeFiles/dfu_nrf52832_xxAA_s132_3.1.0.dir/__/__/mesh/prov/src/prov_provisionee.c.obj
 .text.send_failed
                0x0002407c       0x36 examples/dfu/CMakeFiles/dfu_nrf52832_xxAA_s132_3.1.0.dir/__/__/mesh/prov/src/prov_provisionee.c.obj
 .text.request_authentication
                0x000240b2       0x8c examples/dfu/CMakeFiles/dfu_nrf52832_xxAA_s132_3.1.0.dir/__/__/mesh/prov/src/prov_provisionee.c.obj
 .text.start_authentication
                0x0002413e       0x54 examples/dfu/CMakeFiles/dfu_nrf52832_xxAA_s132_3.1.0.dir/__/__/mesh/prov/src/prov_provisionee.c.obj
 *fill*         0x00024192        0x2 
 .text.prov_provisionee_pkt_in
                0x00024194      0x2a4 examples/dfu/CMakeFiles/dfu_nrf52832_xxAA_s132_3.1.0.dir/__/__/mesh/prov/src/prov_provisionee.c.obj
 .text.prov_provisionee_cb_ack_received
                0x00024438       0xb4 examples/dfu/CMakeFiles/dfu_nrf52832_xxAA_s132_3.1.0.dir/__/__/mesh/prov/src/prov_provisionee.c.obj
 .text.prov_provisionee_init
                0x000244ec       0x40 examples/dfu/CMakeFiles/dfu_nrf52832_xxAA_s132_3.1.0.dir/__/__/mesh/prov/src/prov_provisionee.c.obj
                0x000244ec                prov_provisionee_init
 .text.prov_provisionee_auth_data
                0x0002452c       0x7a examples/dfu/CMakeFiles/dfu_nrf52832_xxAA_s132_3.1.0.dir/__/__/mesh/prov/src/prov_provisionee.c.obj
                0x0002452c                prov_provisionee_auth_data
 .text.prov_provisionee_shared_secret
                0x000245a6       0x2a examples/dfu/CMakeFiles/dfu_nrf52832_xxAA_s132_3.1.0.dir/__/__/mesh/prov/src/prov_provisionee.c.obj
                0x000245a6                prov_provisionee_shared_secret
 .text.nrf_mesh_prov_init
                0x000245d0       0x24 examples/dfu/CMakeFiles/dfu_nrf52832_xxAA_s132_3.1.0.dir/__/__/mesh/prov/src/nrf_mesh_prov.c.obj
                0x000245d0                nrf_mesh_prov_init
 .text.nrf_mesh_prov_generate_keys
                0x000245f4        0x4 examples/dfu/CMakeFiles/dfu_nrf52832_xxAA_s132_3.1.0.dir/__/__/mesh/prov/src/nrf_mesh_prov.c.obj
                0x000245f4                nrf_mesh_prov_generate_keys
 .text.nrf_mesh_prov_listen
                0x000245f8       0x24 examples/dfu/CMakeFiles/dfu_nrf52832_xxAA_s132_3.1.0.dir/__/__/mesh/prov/src/nrf_mesh_prov.c.obj
                0x000245f8                nrf_mesh_prov_listen
 .text.nrf_mesh_prov_provision
                0x0002461c       0x4e examples/dfu/CMakeFiles/dfu_nrf52832_xxAA_s132_3.1.0.dir/__/__/mesh/prov/src/nrf_mesh_prov.c.obj
                0x0002461c                nrf_mesh_prov_provision
 .text.nrf_mesh_prov_oob_use
                0x0002466a        0xe examples/dfu/CMakeFiles/dfu_nrf52832_xxAA_s132_3.1.0.dir/__/__/mesh/prov/src/nrf_mesh_prov.c.obj
                0x0002466a                nrf_mesh_prov_oob_use
 .text.nrf_mesh_prov_auth_data_provide
                0x00024678        0xe examples/dfu/CMakeFiles/dfu_nrf52832_xxAA_s132_3.1.0.dir/__/__/mesh/prov/src/nrf_mesh_prov.c.obj
                0x00024678                nrf_mesh_prov_auth_data_provide
 .text.nrf_mesh_prov_shared_secret_provide
                0x00024686        0xe examples/dfu/CMakeFiles/dfu_nrf52832_xxAA_s132_3.1.0.dir/__/__/mesh/prov/src/nrf_mesh_prov.c.obj
                0x00024686                nrf_mesh_prov_shared_secret_provide
 .text.send_data
                0x00024694       0x40 examples/dfu/CMakeFiles/dfu_nrf52832_xxAA_s132_3.1.0.dir/__/__/mesh/prov/src/provisioning.c.obj
 .text.prov_packet_length_valid
                0x000246d4       0x1c examples/dfu/CMakeFiles/dfu_nrf52832_xxAA_s132_3.1.0.dir/__/__/mesh/prov/src/provisioning.c.obj
                0x000246d4                prov_packet_length_valid
 .text.prov_init
                0x000246f0       0x2c examples/dfu/CMakeFiles/dfu_nrf52832_xxAA_s132_3.1.0.dir/__/__/mesh/prov/src/provisioning.c.obj
                0x000246f0                prov_init
 .text.prov_listen_start
                0x0002471c       0x14 examples/dfu/CMakeFiles/dfu_nrf52832_xxAA_s132_3.1.0.dir/__/__/mesh/prov/src/provisioning.c.obj
                0x0002471c                prov_listen_start
 .text.prov_link_open
                0x00024730       0x14 examples/dfu/CMakeFiles/dfu_nrf52832_xxAA_s132_3.1.0.dir/__/__/mesh/prov/src/provisioning.c.obj
                0x00024730                prov_link_open
 .text.prov_link_close
                0x00024744        0x8 examples/dfu/CMakeFiles/dfu_nrf52832_xxAA_s132_3.1.0.dir/__/__/mesh/prov/src/provisioning.c.obj
                0x00024744                prov_link_close
 .text.prov_tx_invite
                0x0002474c       0x28 examples/dfu/CMakeFiles/dfu_nrf52832_xxAA_s132_3.1.0.dir/__/__/mesh/prov/src/provisioning.c.obj
                0x0002474c                prov_tx_invite
 .text.prov_tx_capabilities
                0x00024774       0x1e examples/dfu/CMakeFiles/dfu_nrf52832_xxAA_s132_3.1.0.dir/__/__/mesh/prov/src/provisioning.c.obj
                0x00024774                prov_tx_capabilities
 .text.prov_tx_start
                0x00024792       0x20 examples/dfu/CMakeFiles/dfu_nrf52832_xxAA_s132_3.1.0.dir/__/__/mesh/prov/src/provisioning.c.obj
                0x00024792                prov_tx_start
 .text.prov_tx_public_key
                0x000247b2       0x26 examples/dfu/CMakeFiles/dfu_nrf52832_xxAA_s132_3.1.0.dir/__/__/mesh/prov/src/provisioning.c.obj
                0x000247b2                prov_tx_public_key
 .text.prov_tx_input_complete
                0x000247d8       0x16 examples/dfu/CMakeFiles/dfu_nrf52832_xxAA_s132_3.1.0.dir/__/__/mesh/prov/src/provisioning.c.obj
                0x000247d8                prov_tx_input_complete
 .text.prov_tx_confirmation
                0x000247ee       0x26 examples/dfu/CMakeFiles/dfu_nrf52832_xxAA_s132_3.1.0.dir/__/__/mesh/prov/src/provisioning.c.obj
                0x000247ee                prov_tx_confirmation
 .text.prov_tx_random
                0x00024814       0x26 examples/dfu/CMakeFiles/dfu_nrf52832_xxAA_s132_3.1.0.dir/__/__/mesh/prov/src/provisioning.c.obj
                0x00024814                prov_tx_random
 .text.prov_tx_complete
                0x0002483a       0x16 examples/dfu/CMakeFiles/dfu_nrf52832_xxAA_s132_3.1.0.dir/__/__/mesh/prov/src/provisioning.c.obj
                0x0002483a                prov_tx_complete
 .text.prov_tx_failed
                0x00024850       0x1a examples/dfu/CMakeFiles/dfu_nrf52832_xxAA_s132_3.1.0.dir/__/__/mesh/prov/src/provisioning.c.obj
                0x00024850                prov_tx_failed
 .text.prov_tx_data
                0x0002486a        0x6 examples/dfu/CMakeFiles/dfu_nrf52832_xxAA_s132_3.1.0.dir/__/__/mesh/prov/src/provisioning.c.obj
                0x0002486a                prov_tx_data
 .text.prov_cb_link_opened
                0x00024870        0x8 examples/dfu/CMakeFiles/dfu_nrf52832_xxAA_s132_3.1.0.dir/__/__/mesh/prov/src/provisioning.c.obj
                0x00024870                prov_cb_link_opened
 .text.prov_cb_link_closed
                0x00024878        0x8 examples/dfu/CMakeFiles/dfu_nrf52832_xxAA_s132_3.1.0.dir/__/__/mesh/prov/src/provisioning.c.obj
                0x00024878                prov_cb_link_closed
 .text.prov_cb_pkt_in
                0x00024880       0x7c examples/dfu/CMakeFiles/dfu_nrf52832_xxAA_s132_3.1.0.dir/__/__/mesh/prov/src/provisioning.c.obj
                0x00024880                prov_cb_pkt_in
 .text.prov_cb_ack_in
                0x000248fc        0x8 examples/dfu/CMakeFiles/dfu_nrf52832_xxAA_s132_3.1.0.dir/__/__/mesh/prov/src/provisioning.c.obj
                0x000248fc                prov_cb_ack_in
 .text.prov_beacon_unprov_build
                0x00024904       0x54 examples/dfu/CMakeFiles/dfu_nrf52832_xxAA_s132_3.1.0.dir/__/__/mesh/prov/src/prov_beacon.c.obj
                0x00024904                prov_beacon_unprov_build
 .text.prov_beacon_unprov_packet_in
                0x00024958       0xb0 examples/dfu/CMakeFiles/dfu_nrf52832_xxAA_s132_3.1.0.dir/__/__/mesh/prov/src/prov_beacon.c.obj
                0x00024958                prov_beacon_unprov_packet_in
 .text.oob_gen_alphanumeric
                0x00024a08       0x34 examples/dfu/CMakeFiles/dfu_nrf52832_xxAA_s132_3.1.0.dir/__/__/mesh/prov/src/prov_utils.c.obj
 .text.oob_gen_numeric
                0x00024a3c       0x3c examples/dfu/CMakeFiles/dfu_nrf52832_xxAA_s132_3.1.0.dir/__/__/mesh/prov/src/prov_utils.c.obj
 .text.prov_utils_use_ecdh_offloading
                0x00024a78        0xc examples/dfu/CMakeFiles/dfu_nrf52832_xxAA_s132_3.1.0.dir/__/__/mesh/prov/src/prov_utils.c.obj
                0x00024a78                prov_utils_use_ecdh_offloading
 .text.prov_utils_authentication_values_derive
                0x00024a84       0xa4 examples/dfu/CMakeFiles/dfu_nrf52832_xxAA_s132_3.1.0.dir/__/__/mesh/prov/src/prov_utils.c.obj
                0x00024a84                prov_utils_authentication_values_derive
 .text.prov_utils_keys_generate
                0x00024b28       0x1e examples/dfu/CMakeFiles/dfu_nrf52832_xxAA_s132_3.1.0.dir/__/__/mesh/prov/src/prov_utils.c.obj
                0x00024b28                prov_utils_keys_generate
 *fill*         0x00024b46        0x2 
 .text.prov_utils_derive_keys
                0x00024b48       0xb0 examples/dfu/CMakeFiles/dfu_nrf52832_xxAA_s132_3.1.0.dir/__/__/mesh/prov/src/prov_utils.c.obj
                0x00024b48                prov_utils_derive_keys
 .text.prov_utils_calculate_shared_secret
                0x00024bf8       0x38 examples/dfu/CMakeFiles/dfu_nrf52832_xxAA_s132_3.1.0.dir/__/__/mesh/prov/src/prov_utils.c.obj
                0x00024bf8                prov_utils_calculate_shared_secret
 .text.prov_utils_generate_oob_data
                0x00024c30       0x9c examples/dfu/CMakeFiles/dfu_nrf52832_xxAA_s132_3.1.0.dir/__/__/mesh/prov/src/prov_utils.c.obj
                0x00024c30                prov_utils_generate_oob_data
 .text.prov_utils_confirmation_check
                0x00024ccc       0x5c examples/dfu/CMakeFiles/dfu_nrf52832_xxAA_s132_3.1.0.dir/__/__/mesh/prov/src/prov_utils.c.obj
                0x00024ccc                prov_utils_confirmation_check
 .text.remove_active_bearer
                0x00024d28       0x60 examples/dfu/CMakeFiles/dfu_nrf52832_xxAA_s132_3.1.0.dir/__/__/mesh/prov/src/prov_bearer_adv.c.obj
 .text.prov_bearer_adv_listen_stop
                0x00024d88       0x38 examples/dfu/CMakeFiles/dfu_nrf52832_xxAA_s132_3.1.0.dir/__/__/mesh/prov/src/prov_bearer_adv.c.obj
 .text.close_link
                0x00024dc0       0x68 examples/dfu/CMakeFiles/dfu_nrf52832_xxAA_s132_3.1.0.dir/__/__/mesh/prov/src/prov_bearer_adv.c.obj
 .text.send_packet
                0x00024e28       0x6c examples/dfu/CMakeFiles/dfu_nrf52832_xxAA_s132_3.1.0.dir/__/__/mesh/prov/src/prov_bearer_adv.c.obj
 .text.prov_buffer_tx
                0x00024e94      0x158 examples/dfu/CMakeFiles/dfu_nrf52832_xxAA_s132_3.1.0.dir/__/__/mesh/prov/src/prov_bearer_adv.c.obj
 .text.send_link_close
                0x00024fec       0x38 examples/dfu/CMakeFiles/dfu_nrf52832_xxAA_s132_3.1.0.dir/__/__/mesh/prov/src/prov_bearer_adv.c.obj
 .text.prov_bearer_adv_link_close
                0x00025024       0x70 examples/dfu/CMakeFiles/dfu_nrf52832_xxAA_s132_3.1.0.dir/__/__/mesh/prov/src/prov_bearer_adv.c.obj
 .text.send_transaction_ack
                0x00025094       0x24 examples/dfu/CMakeFiles/dfu_nrf52832_xxAA_s132_3.1.0.dir/__/__/mesh/prov/src/prov_bearer_adv.c.obj
 .text.send_link_ack
                0x000250b8       0x32 examples/dfu/CMakeFiles/dfu_nrf52832_xxAA_s132_3.1.0.dir/__/__/mesh/prov/src/prov_bearer_adv.c.obj
 .text.link_timeout_cb
                0x000250ea        0x8 examples/dfu/CMakeFiles/dfu_nrf52832_xxAA_s132_3.1.0.dir/__/__/mesh/prov/src/prov_bearer_adv.c.obj
 .text.reset_timeout_timer
                0x000250f2       0x1a examples/dfu/CMakeFiles/dfu_nrf52832_xxAA_s132_3.1.0.dir/__/__/mesh/prov/src/prov_bearer_adv.c.obj
 .text.tx_complete_cb
                0x0002510c       0x1c examples/dfu/CMakeFiles/dfu_nrf52832_xxAA_s132_3.1.0.dir/__/__/mesh/prov/src/prov_bearer_adv.c.obj
 .text.tx_retry_cb
                0x00025128       0xcc examples/dfu/CMakeFiles/dfu_nrf52832_xxAA_s132_3.1.0.dir/__/__/mesh/prov/src/prov_bearer_adv.c.obj
 .text.add_active_bearer
                0x000251f4       0x80 examples/dfu/CMakeFiles/dfu_nrf52832_xxAA_s132_3.1.0.dir/__/__/mesh/prov/src/prov_bearer_adv.c.obj
 .text.prov_bearer_adv_link_open
                0x00025274       0xf0 examples/dfu/CMakeFiles/dfu_nrf52832_xxAA_s132_3.1.0.dir/__/__/mesh/prov/src/prov_bearer_adv.c.obj
 .text.async_process
                0x00025364       0x50 examples/dfu/CMakeFiles/dfu_nrf52832_xxAA_s132_3.1.0.dir/__/__/mesh/prov/src/prov_bearer_adv.c.obj
 .text.prov_bearer_adv_listen
                0x000253b4       0xe8 examples/dfu/CMakeFiles/dfu_nrf52832_xxAA_s132_3.1.0.dir/__/__/mesh/prov/src/prov_bearer_adv.c.obj
 .text.calculate_3GPP_CRC
                0x0002549c       0x24 examples/dfu/CMakeFiles/dfu_nrf52832_xxAA_s132_3.1.0.dir/__/__/mesh/prov/src/prov_bearer_adv.c.obj
                0x0002549c                calculate_3GPP_CRC
 .text.prov_bearer_adv_tx
                0x000254c0       0xac examples/dfu/CMakeFiles/dfu_nrf52832_xxAA_s132_3.1.0.dir/__/__/mesh/prov/src/prov_bearer_adv.c.obj
 .text.prov_buffer_rx
                0x0002556c       0x74 examples/dfu/CMakeFiles/dfu_nrf52832_xxAA_s132_3.1.0.dir/__/__/mesh/prov/src/prov_bearer_adv.c.obj
 .text.prov_bearer_adv_interface_get
                0x000255e0       0x24 examples/dfu/CMakeFiles/dfu_nrf52832_xxAA_s132_3.1.0.dir/__/__/mesh/prov/src/prov_bearer_adv.c.obj
                0x000255e0                prov_bearer_adv_interface_get
 .text.prov_bearer_adv_packet_in
                0x00025604      0x80c examples/dfu/CMakeFiles/dfu_nrf52832_xxAA_s132_3.1.0.dir/__/__/mesh/prov/src/prov_bearer_adv.c.obj
                0x00025604                prov_bearer_adv_packet_in
 .text.tx_complete_cb
                0x00025e10        0x2 examples/dfu/CMakeFiles/dfu_nrf52832_xxAA_s132_3.1.0.dir/__/__/mesh/dfu/src/nrf_mesh_dfu.c.obj
 *fill*         0x00025e12        0x2 
 .text.reset_transfer_state
                0x00025e14       0x24 examples/dfu/CMakeFiles/dfu_nrf52832_xxAA_s132_3.1.0.dir/__/__/mesh/dfu/src/nrf_mesh_dfu.c.obj
 .text.end_transfer
                0x00025e38       0x48 examples/dfu/CMakeFiles/dfu_nrf52832_xxAA_s132_3.1.0.dir/__/__/mesh/dfu/src/nrf_mesh_dfu.c.obj
 .text.dfu_evt_handler
                0x00025e80      0x820 examples/dfu/CMakeFiles/dfu_nrf52832_xxAA_s132_3.1.0.dir/__/__/mesh/dfu/src/nrf_mesh_dfu.c.obj
 .text.next_tx_timeout
                0x000266a0       0x64 examples/dfu/CMakeFiles/dfu_nrf52832_xxAA_s132_3.1.0.dir/__/__/mesh/dfu/src/nrf_mesh_dfu.c.obj
 .text.tx_timeout
                0x00026704      0x108 examples/dfu/CMakeFiles/dfu_nrf52832_xxAA_s132_3.1.0.dir/__/__/mesh/dfu/src/nrf_mesh_dfu.c.obj
 .text.nrf_mesh_dfu_jump_to_bootloader
                0x0002680c       0x40 examples/dfu/CMakeFiles/dfu_nrf52832_xxAA_s132_3.1.0.dir/__/__/mesh/dfu/src/nrf_mesh_dfu.c.obj
                0x0002680c                nrf_mesh_dfu_jump_to_bootloader
 .text.nrf_mesh_dfu_state_get
                0x0002684c       0x48 examples/dfu/CMakeFiles/dfu_nrf52832_xxAA_s132_3.1.0.dir/__/__/mesh/dfu/src/nrf_mesh_dfu.c.obj
                0x0002684c                nrf_mesh_dfu_state_get
 .text.nrf_mesh_dfu_cmd_send
                0x00026894       0x90 examples/dfu/CMakeFiles/dfu_nrf52832_xxAA_s132_3.1.0.dir/__/__/mesh/dfu/src/nrf_mesh_dfu.c.obj
                0x00026894                nrf_mesh_dfu_cmd_send
 .text.nrf_mesh_dfu_init
                0x00026924      0x158 examples/dfu/CMakeFiles/dfu_nrf52832_xxAA_s132_3.1.0.dir/__/__/mesh/dfu/src/nrf_mesh_dfu.c.obj
                0x00026924                nrf_mesh_dfu_init
 .text.flash_op_complete
                0x00026a7c      0x160 examples/dfu/CMakeFiles/dfu_nrf52832_xxAA_s132_3.1.0.dir/__/__/mesh/dfu/src/nrf_mesh_dfu.c.obj
 .text.abort_timeout
                0x00026bdc       0x80 examples/dfu/CMakeFiles/dfu_nrf52832_xxAA_s132_3.1.0.dir/__/__/mesh/dfu/src/nrf_mesh_dfu.c.obj
 .text.timer_timeout
                0x00026c5c       0x7c examples/dfu/CMakeFiles/dfu_nrf52832_xxAA_s132_3.1.0.dir/__/__/mesh/dfu/src/nrf_mesh_dfu.c.obj
 .text.nrf_mesh_dfu_rx
                0x00026cd8       0xc8 examples/dfu/CMakeFiles/dfu_nrf52832_xxAA_s132_3.1.0.dir/__/__/mesh/dfu/src/nrf_mesh_dfu.c.obj
                0x00026cd8                nrf_mesh_dfu_rx
 .text.nrf_mesh_dfu_request
                0x00026da0       0x98 examples/dfu/CMakeFiles/dfu_nrf52832_xxAA_s132_3.1.0.dir/__/__/mesh/dfu/src/nrf_mesh_dfu.c.obj
                0x00026da0                nrf_mesh_dfu_request
 .text.nrf_mesh_dfu_relay
                0x00026e38       0x68 examples/dfu/CMakeFiles/dfu_nrf52832_xxAA_s132_3.1.0.dir/__/__/mesh/dfu/src/nrf_mesh_dfu.c.obj
                0x00026e38                nrf_mesh_dfu_relay
 .text.nrf_mesh_dfu_abort
                0x00026ea0       0x2c examples/dfu/CMakeFiles/dfu_nrf52832_xxAA_s132_3.1.0.dir/__/__/mesh/dfu/src/nrf_mesh_dfu.c.obj
                0x00026ea0                nrf_mesh_dfu_abort
 .text.nrf_mesh_dfu_bank_info_get
                0x00026ecc       0x30 examples/dfu/CMakeFiles/dfu_nrf52832_xxAA_s132_3.1.0.dir/__/__/mesh/dfu/src/nrf_mesh_dfu.c.obj
                0x00026ecc                nrf_mesh_dfu_bank_info_get
 .text.nrf_mesh_dfu_bank_flash
                0x00026efc       0x28 examples/dfu/CMakeFiles/dfu_nrf52832_xxAA_s132_3.1.0.dir/__/__/mesh/dfu/src/nrf_mesh_dfu.c.obj
                0x00026efc                nrf_mesh_dfu_bank_flash
 .text.errata_57
                0x00026f24       0x34 examples/dfu/CMakeFiles/dfu_nrf52832_xxAA_s132_3.1.0.dir/__/__/external/nRF5_SDK_14.0.0_3bcc1f7/components/toolchain/system_nrf52.c.obj
 .text.errata_136
                0x00026f58       0x40 examples/dfu/CMakeFiles/dfu_nrf52832_xxAA_s132_3.1.0.dir/__/__/external/nRF5_SDK_14.0.0_3bcc1f7/components/toolchain/system_nrf52.c.obj
 .text.SystemInit
                0x00026f98      0x238 examples/dfu/CMakeFiles/dfu_nrf52832_xxAA_s132_3.1.0.dir/__/__/external/nRF5_SDK_14.0.0_3bcc1f7/components/toolchain/system_nrf52.c.obj
                0x00026f98                SystemInit
 .text          0x000271d0       0x3c examples/dfu/CMakeFiles/dfu_nrf52832_xxAA_s132_3.1.0.dir/__/__/external/nRF5_SDK_14.0.0_3bcc1f7/components/toolchain/gcc/gcc_startup_nrf52.S.obj
                0x000271d0                Reset_Handler
                0x000271f8                NMI_Handler
                0x000271fc                MemoryManagement_Handler
                0x000271fe                BusFault_Handler
                0x00027200                UsageFault_Handler
                0x00027202                SVC_Handler
                0x00027204                DebugMon_Handler
                0x00027206                PendSV_Handler
                0x00027208                SysTick_Handler
                0x0002720a                POWER_CLOCK_IRQHandler
                0x0002720a                RADIO_IRQHandler
                0x0002720a                PDM_IRQHandler
                0x0002720a                RTC0_IRQHandler
                0x0002720a                TIMER3_IRQHandler
                0x0002720a                FPU_IRQHandler
                0x0002720a                SPIM0_SPIS0_TWIM0_TWIS0_SPI0_TWI0_IRQHandler
                0x0002720a                GPIOTE_IRQHandler
                0x0002720a                TEMP_IRQHandler
                0x0002720a                I2S_IRQHandler
                0x0002720a                SWI4_EGU4_IRQHandler
                0x0002720a                TIMER0_IRQHandler
                0x0002720a                PWM1_IRQHandler
                0x0002720a                TIMER1_IRQHandler
                0x0002720a                PWM2_IRQHandler
                0x0002720a                ECB_IRQHandler
                0x0002720a                SPIM1_SPIS1_TWIM1_TWIS1_SPI1_TWI1_IRQHandler
                0x0002720a                Default_Handler
                0x0002720a                SAADC_IRQHandler
                0x0002720a                CCM_AAR_IRQHandler
                0x0002720a                WDT_IRQHandler
                0x0002720a                TIMER4_IRQHandler
                0x0002720a                SWI5_EGU5_IRQHandler
                0x0002720a                RNG_IRQHandler
                0x0002720a                RTC2_IRQHandler
                0x0002720a                PWM0_IRQHandler
                0x0002720a                SWI3_EGU3_IRQHandler
                0x0002720a                RTC1_IRQHandler
                0x0002720a                SWI1_EGU1_IRQHandler
                0x0002720a                SPIM2_SPIS2_SPI2_IRQHandler
                0x0002720a                NFCT_IRQHandler
                0x0002720a                SWI0_EGU0_IRQHandler
                0x0002720a                MWU_IRQHandler
                0x0002720a                TIMER2_IRQHandler
                0x0002720a                COMP_LPCOMP_IRQHandler
 .text.internal_event_init
                0x0002720c       0x40 mesh/core/libmesh_core_nrf52832_xxAA.a(internal_event.c.obj)
                0x0002720c                internal_event_init
 .text.internal_event_push
                0x0002724c       0x28 mesh/core/libmesh_core_nrf52832_xxAA.a(internal_event.c.obj)
                0x0002724c                internal_event_push
 .text.nrf_mesh_configure_device_uuid_set
                0x00027274       0x10 mesh/core/libmesh_core_nrf52832_xxAA.a(nrf_mesh_configure.c.obj)
                0x00027274                nrf_mesh_configure_device_uuid_set
 .text.nrf_mesh_configure_device_uuid_reset
                0x00027284       0x28 mesh/core/libmesh_core_nrf52832_xxAA.a(nrf_mesh_configure.c.obj)
                0x00027284                nrf_mesh_configure_device_uuid_reset
 .text.nrf_mesh_configure_device_uuid_get
                0x000272ac        0x8 mesh/core/libmesh_core_nrf52832_xxAA.a(nrf_mesh_configure.c.obj)
                0x000272ac                nrf_mesh_configure_device_uuid_get
 .text.event_handle
                0x000272b4       0x30 mesh/core/libmesh_core_nrf52832_xxAA.a(event.c.obj)
                0x000272b4                event_handle
 .text.event_handler_add
                0x000272e4       0x78 mesh/core/libmesh_core_nrf52832_xxAA.a(event.c.obj)
                0x000272e4                event_handler_add
 .text.m_adjust_desired_packet_length
                0x0002735c       0x34 mesh/core/libmesh_core_nrf52832_xxAA.a(packet_buffer.c.obj)
 .text.m_index_increment.part.0
                0x00027390       0x14 mesh/core/libmesh_core_nrf52832_xxAA.a(packet_buffer.c.obj)
 .text.m_free_popped_packet
                0x000273a4       0x60 mesh/core/libmesh_core_nrf52832_xxAA.a(packet_buffer.c.obj)
 .text.free_skipped_packets
                0x00027404       0x1c mesh/core/libmesh_core_nrf52832_xxAA.a(packet_buffer.c.obj)
 .text.packet_buffer_max_packet_len_get
                0x00027420       0x34 mesh/core/libmesh_core_nrf52832_xxAA.a(packet_buffer.c.obj)
                0x00027420                packet_buffer_max_packet_len_get
 .text.packet_buffer_init
                0x00027454       0xe0 mesh/core/libmesh_core_nrf52832_xxAA.a(packet_buffer.c.obj)
                0x00027454                packet_buffer_init
 .text.packet_buffer_flush
                0x00027534       0x5e mesh/core/libmesh_core_nrf52832_xxAA.a(packet_buffer.c.obj)
                0x00027534                packet_buffer_flush
 *fill*         0x00027592        0x2 
 .text.packet_buffer_reserve
                0x00027594      0x11c mesh/core/libmesh_core_nrf52832_xxAA.a(packet_buffer.c.obj)
                0x00027594                packet_buffer_reserve
 .text.packet_buffer_commit
                0x000276b0      0x104 mesh/core/libmesh_core_nrf52832_xxAA.a(packet_buffer.c.obj)
                0x000276b0                packet_buffer_commit
 .text.packet_buffer_pop
                0x000277b4       0x58 mesh/core/libmesh_core_nrf52832_xxAA.a(packet_buffer.c.obj)
                0x000277b4                packet_buffer_pop
 .text.packet_buffer_can_pop
                0x0002780c       0x28 mesh/core/libmesh_core_nrf52832_xxAA.a(packet_buffer.c.obj)
                0x0002780c                packet_buffer_can_pop
 .text.packet_buffer_packets_ready_to_pop
                0x00027834       0x58 mesh/core/libmesh_core_nrf52832_xxAA.a(packet_buffer.c.obj)
                0x00027834                packet_buffer_packets_ready_to_pop
 .text.packet_buffer_free
                0x0002788c       0x8c mesh/core/libmesh_core_nrf52832_xxAA.a(packet_buffer.c.obj)
                0x0002788c                packet_buffer_free
 .text.fifo_init
                0x00027918       0x50 mesh/core/libmesh_core_nrf52832_xxAA.a(fifo.c.obj)
                0x00027918                fifo_init
 .text.fifo_push
                0x00027968       0x50 mesh/core/libmesh_core_nrf52832_xxAA.a(fifo.c.obj)
                0x00027968                fifo_push
 .text.fifo_pop
                0x000279b8       0x52 mesh/core/libmesh_core_nrf52832_xxAA.a(fifo.c.obj)
                0x000279b8                fifo_pop
 *fill*         0x00027a0a        0x2 
 .text.flash_mem_available
                0x00027a0c       0x20 mesh/core/libmesh_core_nrf52832_xxAA.a(net_state.c.obj)
 .text.flash_store_iv_index
                0x00027a2c       0x38 mesh/core/libmesh_core_nrf52832_xxAA.a(net_state.c.obj)
 .text.seqnum_block_allocate
                0x00027a64       0x48 mesh/core/libmesh_core_nrf52832_xxAA.a(net_state.c.obj)
 .text.net_state_reset
                0x00027aac       0x3c mesh/core/libmesh_core_nrf52832_xxAA.a(net_state.c.obj)
                0x00027aac                net_state_reset
 .text.flash_write_complete
                0x00027ae8       0x78 mesh/core/libmesh_core_nrf52832_xxAA.a(net_state.c.obj)
 .text.net_state_recover_from_flash
                0x00027b60       0x84 mesh/core/libmesh_core_nrf52832_xxAA.a(net_state.c.obj)
                0x00027b60                net_state_recover_from_flash
 .text.net_state_flash_area_get
                0x00027be4        0xc mesh/core/libmesh_core_nrf52832_xxAA.a(net_state.c.obj)
                0x00027be4                net_state_flash_area_get
 .text.init_flash_storage
                0x00027bf0       0x40 mesh/core/libmesh_core_nrf52832_xxAA.a(net_state.c.obj)
 .text.net_state_init
                0x00027c30       0x48 mesh/core/libmesh_core_nrf52832_xxAA.a(net_state.c.obj)
                0x00027c30                net_state_init
 .text.net_state_iv_update_start
                0x00027c78       0x64 mesh/core/libmesh_core_nrf52832_xxAA.a(net_state.c.obj)
                0x00027c78                net_state_iv_update_start
 .text.iv_update_trigger_if_pending
                0x00027cdc       0x8c mesh/core/libmesh_core_nrf52832_xxAA.a(net_state.c.obj)
 .text.iv_update_timer_handler
                0x00027d68       0x74 mesh/core/libmesh_core_nrf52832_xxAA.a(net_state.c.obj)
 .text.net_state_seqnum_alloc
                0x00027ddc       0x68 mesh/core/libmesh_core_nrf52832_xxAA.a(net_state.c.obj)
                0x00027ddc                net_state_seqnum_alloc
 .text.net_state_iv_index_lock
                0x00027e44       0x48 mesh/core/libmesh_core_nrf52832_xxAA.a(net_state.c.obj)
                0x00027e44                net_state_iv_index_lock
 .text.net_state_beacon_received
                0x00027e8c       0x94 mesh/core/libmesh_core_nrf52832_xxAA.a(net_state.c.obj)
                0x00027e8c                net_state_beacon_received
 .text.net_state_beacon_iv_index_get
                0x00027f20        0xc mesh/core/libmesh_core_nrf52832_xxAA.a(net_state.c.obj)
                0x00027f20                net_state_beacon_iv_index_get
 .text.net_state_tx_iv_index_get
                0x00027f2c       0x14 mesh/core/libmesh_core_nrf52832_xxAA.a(net_state.c.obj)
                0x00027f2c                net_state_tx_iv_index_get
 .text.net_state_rx_iv_index_get
                0x00027f40       0x18 mesh/core/libmesh_core_nrf52832_xxAA.a(net_state.c.obj)
                0x00027f40                net_state_rx_iv_index_get
 .text.net_state_iv_update_get
                0x00027f58        0xc mesh/core/libmesh_core_nrf52832_xxAA.a(net_state.c.obj)
                0x00027f58                net_state_iv_update_get
 .text.send_end_events
                0x00027f64       0x80 mesh/core/libmesh_core_nrf52832_xxAA.a(mesh_flash.c.obj)
 .text.flash_op_schedule
                0x00027fe4       0x9c mesh/core/libmesh_core_nrf52832_xxAA.a(mesh_flash.c.obj)
 .text.flash_op_start
                0x00028080      0x170 mesh/core/libmesh_core_nrf52832_xxAA.a(mesh_flash.c.obj)
 .text.mesh_flash_init
                0x000281f0       0x88 mesh/core/libmesh_core_nrf52832_xxAA.a(mesh_flash.c.obj)
                0x000281f0                mesh_flash_init
 .text.mesh_flash_user_callback_set
                0x00028278       0x2c mesh/core/libmesh_core_nrf52832_xxAA.a(mesh_flash.c.obj)
                0x00028278                mesh_flash_user_callback_set
 .text.mesh_flash_op_push
                0x000282a4      0x128 mesh/core/libmesh_core_nrf52832_xxAA.a(mesh_flash.c.obj)
                0x000282a4                mesh_flash_op_push
 .text.mesh_flash_in_progress
                0x000283cc       0x34 mesh/core/libmesh_core_nrf52832_xxAA.a(mesh_flash.c.obj)
                0x000283cc                mesh_flash_in_progress
 .text.mesh_flash_set_suspended
                0x00028400       0x80 mesh/core/libmesh_core_nrf52832_xxAA.a(mesh_flash.c.obj)
                0x00028400                mesh_flash_set_suspended
 .text.nrf_mesh_address_type_get
                0x00028480       0x10 mesh/core/libmesh_core_nrf52832_xxAA.a(nrf_mesh_utils.c.obj)
                0x00028480                nrf_mesh_address_type_get
 .text.sd_softdevice_is_enabled
                0x00028490        0x4 mesh/core/libmesh_core_nrf52832_xxAA.a(nrf_mesh.c.obj)
 .text.nrf_mesh_init
                0x00028494       0xbc mesh/core/libmesh_core_nrf52832_xxAA.a(nrf_mesh.c.obj)
                0x00028494                nrf_mesh_init
 .text.nrf_mesh_enable
                0x00028550       0x48 mesh/core/libmesh_core_nrf52832_xxAA.a(nrf_mesh.c.obj)
                0x00028550                nrf_mesh_enable
 .text.nrf_mesh_disable
                0x00028598       0x28 mesh/core/libmesh_core_nrf52832_xxAA.a(nrf_mesh.c.obj)
                0x00028598                nrf_mesh_disable
 .text.nrf_mesh_packet_send
                0x000285c0        0x4 mesh/core/libmesh_core_nrf52832_xxAA.a(nrf_mesh.c.obj)
                0x000285c0                nrf_mesh_packet_send
 .text.nrf_mesh_process
                0x000285c4      0x1c0 mesh/core/libmesh_core_nrf52832_xxAA.a(nrf_mesh.c.obj)
                0x000285c4                nrf_mesh_process
 .text.nrf_mesh_on_ble_evt
                0x00028784        0x4 mesh/core/libmesh_core_nrf52832_xxAA.a(nrf_mesh.c.obj)
                0x00028784                nrf_mesh_on_ble_evt
 .text.nrf_mesh_on_sd_evt
                0x00028788        0xa mesh/core/libmesh_core_nrf52832_xxAA.a(nrf_mesh.c.obj)
                0x00028788                nrf_mesh_on_sd_evt
 .text.nrf_mesh_evt_handler_add
                0x00028792        0x4 mesh/core/libmesh_core_nrf52832_xxAA.a(nrf_mesh.c.obj)
                0x00028792                nrf_mesh_evt_handler_add
 .text.sd_power_reset_reason_clr
                0x00028796        0x4 mesh/core/libmesh_core_nrf52832_xxAA.a(hal.c.obj)
 .text.sd_power_gpregret_set
                0x0002879a        0x4 mesh/core/libmesh_core_nrf52832_xxAA.a(hal.c.obj)
 *fill*         0x0002879e        0x2 
 .text.hal_device_reset
                0x000287a0       0x38 mesh/core/libmesh_core_nrf52832_xxAA.a(hal.c.obj)
                0x000287a0                hal_device_reset
 .text.hal_lfclk_ppm_get
                0x000287d8       0x14 mesh/core/libmesh_core_nrf52832_xxAA.a(hal.c.obj)
                0x000287d8                hal_lfclk_ppm_get
 .text.add_to_add_list
                0x000287ec       0x44 mesh/core/libmesh_core_nrf52832_xxAA.a(timer_scheduler.c.obj)
 .text.process_dirty_events
                0x00028830       0x6c mesh/core/libmesh_core_nrf52832_xxAA.a(timer_scheduler.c.obj)
 .text.timer_cb
                0x0002889c        0xc mesh/core/libmesh_core_nrf52832_xxAA.a(timer_scheduler.c.obj)
 .text.add_evt.constprop.0
                0x000288a8       0x68 mesh/core/libmesh_core_nrf52832_xxAA.a(timer_scheduler.c.obj)
 .text.process_add_list
                0x00028910       0x48 mesh/core/libmesh_core_nrf52832_xxAA.a(timer_scheduler.c.obj)
 .text.flag_event_cb
                0x00028958      0x104 mesh/core/libmesh_core_nrf52832_xxAA.a(timer_scheduler.c.obj)
 .text.timer_sch_init
                0x00028a5c       0x24 mesh/core/libmesh_core_nrf52832_xxAA.a(timer_scheduler.c.obj)
                0x00028a5c                timer_sch_init
 .text.timer_sch_schedule
                0x00028a80       0x50 mesh/core/libmesh_core_nrf52832_xxAA.a(timer_scheduler.c.obj)
                0x00028a80                timer_sch_schedule
 .text.timer_sch_abort
                0x00028ad0       0x64 mesh/core/libmesh_core_nrf52832_xxAA.a(timer_scheduler.c.obj)
                0x00028ad0                timer_sch_abort
 .text.timer_sch_reschedule
                0x00028b34       0x70 mesh/core/libmesh_core_nrf52832_xxAA.a(timer_scheduler.c.obj)
                0x00028b34                timer_sch_reschedule
 .text.timer_mut_unlock
                0x00028ba4       0x10 mesh/core/libmesh_core_nrf52832_xxAA.a(timer.c.obj)
 .text.timer_order_cb
                0x00028bb4       0x94 mesh/core/libmesh_core_nrf52832_xxAA.a(timer.c.obj)
                0x00028bb4                timer_order_cb
 .text.timer_now
                0x00028c48       0x48 mesh/core/libmesh_core_nrf52832_xxAA.a(timer.c.obj)
                0x00028c48                timer_now
 .text.timer_event_handler
                0x00028c90       0x90 mesh/core/libmesh_core_nrf52832_xxAA.a(timer.c.obj)
                0x00028c90                timer_event_handler
 .text.timer_on_ts_begin
                0x00028d20       0xfc mesh/core/libmesh_core_nrf52832_xxAA.a(timer.c.obj)
                0x00028d20                timer_on_ts_begin
 .text.timer_on_ts_end
                0x00028e1c       0x60 mesh/core/libmesh_core_nrf52832_xxAA.a(timer.c.obj)
                0x00028e1c                timer_on_ts_end
 .text.timer_cb
                0x00028e7c       0x10 mesh/core/libmesh_core_nrf52832_xxAA.a(ticker.c.obj)
 .text.ticker_init
                0x00028e8c       0x3c mesh/core/libmesh_core_nrf52832_xxAA.a(ticker.c.obj)
                0x00028e8c                ticker_init
 .text.sd_rand_application_bytes_available_get
                0x00028ec8        0x4 mesh/core/libmesh_core_nrf52832_xxAA.a(rand.c.obj)
 .text.sd_rand_application_vector_get
                0x00028ecc        0x4 mesh/core/libmesh_core_nrf52832_xxAA.a(rand.c.obj)
 .text.rand_prng_get
                0x00028ed0       0x22 mesh/core/libmesh_core_nrf52832_xxAA.a(rand.c.obj)
                0x00028ed0                rand_prng_get
 *fill*         0x00028ef2        0x2 
 .text.rand_hw_rng_get
                0x00028ef4       0x50 mesh/core/libmesh_core_nrf52832_xxAA.a(rand.c.obj)
                0x00028ef4                rand_hw_rng_get
 .text.rand_prng_seed
                0x00028f44       0x34 mesh/core/libmesh_core_nrf52832_xxAA.a(rand.c.obj)
                0x00028f44                rand_prng_seed
 .text.sd_radio_session_open
                0x00028f78        0x4 mesh/core/libmesh_core_nrf52832_xxAA.a(timeslot.c.obj)
 .text.sd_radio_session_close
                0x00028f7c        0x4 mesh/core/libmesh_core_nrf52832_xxAA.a(timeslot.c.obj)
 .text.sd_radio_request
                0x00028f80        0x4 mesh/core/libmesh_core_nrf52832_xxAA.a(timeslot.c.obj)
 .text.end_timer_handler
                0x00028f84       0x24 mesh/core/libmesh_core_nrf52832_xxAA.a(timeslot.c.obj)
 .text.get_end_time.constprop.10
                0x00028fa8       0x28 mesh/core/libmesh_core_nrf52832_xxAA.a(timeslot.c.obj)
 .text.handle_extend_end.constprop.3
                0x00028fd0       0xc0 mesh/core/libmesh_core_nrf52832_xxAA.a(timeslot.c.obj)
 .text.radio_signal_callback
                0x00029090      0x14c mesh/core/libmesh_core_nrf52832_xxAA.a(timeslot.c.obj)
 .text.timeslot_sd_event_handler
                0x000291dc       0x44 mesh/core/libmesh_core_nrf52832_xxAA.a(timeslot.c.obj)
                0x000291dc                timeslot_sd_event_handler
 .text.timeslot_init
                0x00029220       0x48 mesh/core/libmesh_core_nrf52832_xxAA.a(timeslot.c.obj)
                0x00029220                timeslot_init
 .text.timeslot_start
                0x00029268       0x20 mesh/core/libmesh_core_nrf52832_xxAA.a(timeslot.c.obj)
                0x00029268                timeslot_start
 .text.timeslot_end_is_pending
                0x00029288       0x24 mesh/core/libmesh_core_nrf52832_xxAA.a(timeslot.c.obj)
                0x00029288                timeslot_end_is_pending
 .text.timeslot_start_time_get
                0x000292ac        0xc mesh/core/libmesh_core_nrf52832_xxAA.a(timeslot.c.obj)
                0x000292ac                timeslot_start_time_get
 .text.timeslot_remaining_time_get
                0x000292b8       0x20 mesh/core/libmesh_core_nrf52832_xxAA.a(timeslot.c.obj)
                0x000292b8                timeslot_remaining_time_get
 .text.timeslot_is_in_cb
                0x000292d8        0xc mesh/core/libmesh_core_nrf52832_xxAA.a(timeslot.c.obj)
                0x000292d8                timeslot_is_in_cb
 .text.timeslot_trigger
                0x000292e4       0x24 mesh/core/libmesh_core_nrf52832_xxAA.a(timeslot.c.obj)
                0x000292e4                timeslot_trigger
 .text.timeslot_stop
                0x00029308       0x10 mesh/core/libmesh_core_nrf52832_xxAA.a(timeslot.c.obj)
                0x00029308                timeslot_stop
 .text.timeslot_state_lock
                0x00029318       0x28 mesh/core/libmesh_core_nrf52832_xxAA.a(timeslot.c.obj)
                0x00029318                timeslot_state_lock
 .text.evt_push
                0x00029340       0x24 mesh/core/libmesh_core_nrf52832_xxAA.a(bearer_event.c.obj)
 .text.QDEC_IRQHandler
                0x00029364       0xc4 mesh/core/libmesh_core_nrf52832_xxAA.a(bearer_event.c.obj)
                0x00029364                QDEC_IRQHandler
 .text.bearer_event_init
                0x00029428       0x38 mesh/core/libmesh_core_nrf52832_xxAA.a(bearer_event.c.obj)
                0x00029428                bearer_event_init
 .text.bearer_event_generic_post
                0x00029460       0x30 mesh/core/libmesh_core_nrf52832_xxAA.a(bearer_event.c.obj)
                0x00029460                bearer_event_generic_post
 .text.bearer_event_timer_post
                0x00029490       0x30 mesh/core/libmesh_core_nrf52832_xxAA.a(bearer_event.c.obj)
                0x00029490                bearer_event_timer_post
 .text.bearer_event_critical_section_begin
                0x000294c0       0x44 mesh/core/libmesh_core_nrf52832_xxAA.a(bearer_event.c.obj)
                0x000294c0                bearer_event_critical_section_begin
 .text.bearer_event_critical_section_end
                0x00029504       0x40 mesh/core/libmesh_core_nrf52832_xxAA.a(bearer_event.c.obj)
                0x00029504                bearer_event_critical_section_end
 .text.bearer_event_flag_add
                0x00029544       0x50 mesh/core/libmesh_core_nrf52832_xxAA.a(bearer_event.c.obj)
                0x00029544                bearer_event_flag_add
 .text.bearer_event_flag_set
                0x00029594       0x58 mesh/core/libmesh_core_nrf52832_xxAA.a(bearer_event.c.obj)
                0x00029594                bearer_event_flag_set
 .text.bearer_event_sequential_add
                0x000295ec       0x44 mesh/core/libmesh_core_nrf52832_xxAA.a(bearer_event.c.obj)
                0x000295ec                bearer_event_sequential_add
 .text.bearer_event_sequential_post
                0x00029630       0x64 mesh/core/libmesh_core_nrf52832_xxAA.a(bearer_event.c.obj)
                0x00029630                bearer_event_sequential_post
 .text.bearer_event_sequential_pending
                0x00029694       0x1c mesh/core/libmesh_core_nrf52832_xxAA.a(bearer_event.c.obj)
                0x00029694                bearer_event_sequential_pending
 .text.enc_aes_encrypt
                0x000296b0        0x4 mesh/core/libmesh_core_nrf52832_xxAA.a(enc.c.obj)
                0x000296b0                enc_aes_encrypt
 .text.enc_aes_cmac
                0x000296b4        0x4 mesh/core/libmesh_core_nrf52832_xxAA.a(enc.c.obj)
                0x000296b4                enc_aes_cmac
 .text.enc_aes_ccm_encrypt
                0x000296b8        0x4 mesh/core/libmesh_core_nrf52832_xxAA.a(enc.c.obj)
                0x000296b8                enc_aes_ccm_encrypt
 .text.enc_aes_ccm_decrypt
                0x000296bc        0x4 mesh/core/libmesh_core_nrf52832_xxAA.a(enc.c.obj)
                0x000296bc                enc_aes_ccm_decrypt
 .text.enc_nonce_generate
                0x000296c0       0xb8 mesh/core/libmesh_core_nrf52832_xxAA.a(enc.c.obj)
                0x000296c0                enc_nonce_generate
 .text.enc_s1   0x00029778       0x38 mesh/core/libmesh_core_nrf52832_xxAA.a(enc.c.obj)
                0x00029778                enc_s1
 .text.enc_k1   0x000297b0       0x48 mesh/core/libmesh_core_nrf52832_xxAA.a(enc.c.obj)
                0x000297b0                enc_k1
 .text.enc_k2   0x000297f8       0xd8 mesh/core/libmesh_core_nrf52832_xxAA.a(enc.c.obj)
                0x000297f8                enc_k2
 .text.enc_k3   0x000298d0       0x68 mesh/core/libmesh_core_nrf52832_xxAA.a(enc.c.obj)
                0x000298d0                enc_k3
 .text.enc_k4   0x00029938       0x60 mesh/core/libmesh_core_nrf52832_xxAA.a(enc.c.obj)
                0x00029938                enc_k4
 .text.header_transfuscate
                0x00029998       0x54 mesh/core/libmesh_core_nrf52832_xxAA.a(network.c.obj)
 .text.allocate_packet
                0x000299ec      0x14c mesh/core/libmesh_core_nrf52832_xxAA.a(network.c.obj)
 .text.network_init
                0x00029b38       0x2c mesh/core/libmesh_core_nrf52832_xxAA.a(network.c.obj)
                0x00029b38                network_init
 .text.network_packet_alloc
                0x00029b64       0x50 mesh/core/libmesh_core_nrf52832_xxAA.a(network.c.obj)
                0x00029b64                network_packet_alloc
 .text.network_packet_send
                0x00029bb4      0x140 mesh/core/libmesh_core_nrf52832_xxAA.a(network.c.obj)
                0x00029bb4                network_packet_send
 .text.network_packet_in
                0x00029cf4      0x450 mesh/core/libmesh_core_nrf52832_xxAA.a(network.c.obj)
                0x00029cf4                network_packet_in
 .text.stage_get_available
                0x0002a144       0x24 mesh/core/libmesh_core_nrf52832_xxAA.a(msqueue.c.obj)
 .text.msq_get  0x0002a168       0x4c mesh/core/libmesh_core_nrf52832_xxAA.a(msqueue.c.obj)
                0x0002a168                msq_get
 .text.msq_move
                0x0002a1b4       0x44 mesh/core/libmesh_core_nrf52832_xxAA.a(msqueue.c.obj)
                0x0002a1b4                msq_move
 .text.msq_reset
                0x0002a1f8       0x2c mesh/core/libmesh_core_nrf52832_xxAA.a(msqueue.c.obj)
                0x0002a1f8                msq_reset
 .text.msq_init
                0x0002a224       0x78 mesh/core/libmesh_core_nrf52832_xxAA.a(msqueue.c.obj)
                0x0002a224                msq_init
 .text.msq_available
                0x0002a29c       0x3c mesh/core/libmesh_core_nrf52832_xxAA.a(msqueue.c.obj)
                0x0002a29c                msq_available
 .text.nrf_mesh_keygen_aid
                0x0002a2d8       0x12 mesh/core/libmesh_core_nrf52832_xxAA.a(nrf_mesh_keygen.c.obj)
                0x0002a2d8                nrf_mesh_keygen_aid
 .text.nrf_mesh_keygen_network_secmat
                0x0002a2ea       0x20 mesh/core/libmesh_core_nrf52832_xxAA.a(nrf_mesh_keygen.c.obj)
                0x0002a2ea                nrf_mesh_keygen_network_secmat
 *fill*         0x0002a30a        0x2 
 .text.nrf_mesh_keygen_beacon_secmat
                0x0002a30c       0x50 mesh/core/libmesh_core_nrf52832_xxAA.a(nrf_mesh_keygen.c.obj)
                0x0002a30c                nrf_mesh_keygen_beacon_secmat
 .text.nrf_mesh_keygen_virtual_address
                0x0002a35c       0x50 mesh/core/libmesh_core_nrf52832_xxAA.a(nrf_mesh_keygen.c.obj)
                0x0002a35c                nrf_mesh_keygen_virtual_address
 .text.log_callback_rtt
                0x0002a3ac       0x2c mesh/core/libmesh_core_nrf52832_xxAA.a(log.c.obj)
                0x0002a3ac                log_callback_rtt
 .text.log_init
                0x0002a3d8       0x1c mesh/core/libmesh_core_nrf52832_xxAA.a(log.c.obj)
                0x0002a3d8                log_init
 .text.log_vprintf
                0x0002a3f4       0x18 mesh/core/libmesh_core_nrf52832_xxAA.a(log.c.obj)
                0x0002a3f4                log_vprintf
 .text.log_printf
                0x0002a40c       0x18 mesh/core/libmesh_core_nrf52832_xxAA.a(log.c.obj)
                0x0002a40c                log_printf
 .text.get_area_end
                0x0002a424        0xc mesh/core/libmesh_core_nrf52832_xxAA.a(flash_manager.c.obj)
 .text.handle_matches_filter
                0x0002a430       0x26 mesh/core/libmesh_core_nrf52832_xxAA.a(flash_manager.c.obj)
 *fill*         0x0002a456        0x2 
 .text.get_packet_buffer
                0x0002a458       0x2c mesh/core/libmesh_core_nrf52832_xxAA.a(flash_manager.c.obj)
 .text.get_entry_action
                0x0002a484       0x30 mesh/core/libmesh_core_nrf52832_xxAA.a(flash_manager.c.obj)
 .text.flash_area_is_blank
                0x0002a4b4       0x48 mesh/core/libmesh_core_nrf52832_xxAA.a(flash_manager.c.obj)
 .text.flash    0x0002a4fc       0x1c mesh/core/libmesh_core_nrf52832_xxAA.a(flash_manager.c.obj)
 .text.free_packet_buffer
                0x0002a518       0x54 mesh/core/libmesh_core_nrf52832_xxAA.a(flash_manager.c.obj)
 .text.reserve_action_buffer
                0x0002a56c       0x24 mesh/core/libmesh_core_nrf52832_xxAA.a(flash_manager.c.obj)
 .text.commit_action_buffer
                0x0002a590       0x18 mesh/core/libmesh_core_nrf52832_xxAA.a(flash_manager.c.obj)
 .text.schedule_processing
                0x0002a5a8        0xc mesh/core/libmesh_core_nrf52832_xxAA.a(flash_manager.c.obj)
 .text.get_next_entry
                0x0002a5b4       0x40 mesh/core/libmesh_core_nrf52832_xxAA.a(flash_manager.c.obj)
 .text.get_last_entry.isra.1
                0x0002a5f4       0x30 mesh/core/libmesh_core_nrf52832_xxAA.a(flash_manager.c.obj)
 .text.process_action_queue
                0x0002a624      0x4e0 mesh/core/libmesh_core_nrf52832_xxAA.a(flash_manager.c.obj)
 .text.flash_op_ended_callback
                0x0002ab04       0x24 mesh/core/libmesh_core_nrf52832_xxAA.a(flash_manager.c.obj)
 .text.flash_manager_init
                0x0002ab28       0x68 mesh/core/libmesh_core_nrf52832_xxAA.a(flash_manager.c.obj)
                0x0002ab28                flash_manager_init
 .text.flash_manager_remove
                0x0002ab90       0x24 mesh/core/libmesh_core_nrf52832_xxAA.a(flash_manager.c.obj)
                0x0002ab90                flash_manager_remove
 .text.flash_manager_entry_next_get
                0x0002abb4       0x6c mesh/core/libmesh_core_nrf52832_xxAA.a(flash_manager.c.obj)
                0x0002abb4                flash_manager_entry_next_get
 .text.flash_manager_entry_alloc
                0x0002ac20       0x78 mesh/core/libmesh_core_nrf52832_xxAA.a(flash_manager.c.obj)
                0x0002ac20                flash_manager_entry_alloc
 .text.flash_manager_entry_commit
                0x0002ac98       0x12 mesh/core/libmesh_core_nrf52832_xxAA.a(flash_manager.c.obj)
                0x0002ac98                flash_manager_entry_commit
 *fill*         0x0002acaa        0x2 
 .text.flash_manager_entry_invalidate
                0x0002acac       0x64 mesh/core/libmesh_core_nrf52832_xxAA.a(flash_manager.c.obj)
                0x0002acac                flash_manager_entry_invalidate
 .text.flash_manager_add
                0x0002ad10      0x248 mesh/core/libmesh_core_nrf52832_xxAA.a(flash_manager.c.obj)
                0x0002ad10                flash_manager_add
 .text.flash_manager_mem_listener_register
                0x0002af58       0x44 mesh/core/libmesh_core_nrf52832_xxAA.a(flash_manager.c.obj)
                0x0002af58                flash_manager_mem_listener_register
 .text.flash_manager_is_stable
                0x0002af9c       0x24 mesh/core/libmesh_core_nrf52832_xxAA.a(flash_manager.c.obj)
                0x0002af9c                flash_manager_is_stable
 .text.flash_manager_on_defrag_end
                0x0002afc0       0x58 mesh/core/libmesh_core_nrf52832_xxAA.a(flash_manager.c.obj)
                0x0002afc0                flash_manager_on_defrag_end
 .text.flash_manager_recovery_page_get
                0x0002b018        0x4 mesh/core/libmesh_core_nrf52832_xxAA.a(flash_manager.c.obj)
                0x0002b018                flash_manager_recovery_page_get
 .text.utils_xor
                0x0002b01c       0x14 mesh/core/libmesh_core_nrf52832_xxAA.a(ccm_soft.c.obj)
 .text.ccm_soft_authenticate_blocks
                0x0002b030       0x68 mesh/core/libmesh_core_nrf52832_xxAA.a(ccm_soft.c.obj)
 .text.utils_reverse_memcpy.constprop.0
                0x0002b098        0xa mesh/core/libmesh_core_nrf52832_xxAA.a(ccm_soft.c.obj)
 .text.ccm_soft_authenticate
                0x0002b0a2       0xa0 mesh/core/libmesh_core_nrf52832_xxAA.a(ccm_soft.c.obj)
 .text.ccm_soft_crypt
                0x0002b142       0x6c mesh/core/libmesh_core_nrf52832_xxAA.a(ccm_soft.c.obj)
 .text.ccm_soft_encrypt
                0x0002b1ae       0x70 mesh/core/libmesh_core_nrf52832_xxAA.a(ccm_soft.c.obj)
                0x0002b1ae                ccm_soft_encrypt
 .text.ccm_soft_decrypt
                0x0002b21e       0xfe mesh/core/libmesh_core_nrf52832_xxAA.a(ccm_soft.c.obj)
                0x0002b21e                ccm_soft_decrypt
 .text.beacon_init
                0x0002b31c       0x48 mesh/core/libmesh_core_nrf52832_xxAA.a(beacon.c.obj)
                0x0002b31c                beacon_init
 .text.beacon_create
                0x0002b364       0x46 mesh/core/libmesh_core_nrf52832_xxAA.a(beacon.c.obj)
                0x0002b364                beacon_create
 *fill*         0x0002b3aa        0x2 
 .text.beacon_tx
                0x0002b3ac       0x3c mesh/core/libmesh_core_nrf52832_xxAA.a(beacon.c.obj)
                0x0002b3ac                beacon_tx
 .text.beacon_packet_in
                0x0002b3e8      0x160 mesh/core/libmesh_core_nrf52832_xxAA.a(beacon.c.obj)
                0x0002b3e8                beacon_packet_in
 .text.entry_get
                0x0002b548       0x88 mesh/core/libmesh_core_nrf52832_xxAA.a(flash_manager_internal.c.obj)
                0x0002b548                entry_get
 .text.adv_tx_complete_callback
                0x0002b5d0       0x50 mesh/core/libmesh_core_nrf52832_xxAA.a(core_tx.c.obj)
 .text.core_tx_init
                0x0002b620       0x4c mesh/core/libmesh_core_nrf52832_xxAA.a(core_tx.c.obj)
                0x0002b620                core_tx_init
 .text.core_tx_complete_cb_set
                0x0002b66c        0xc mesh/core/libmesh_core_nrf52832_xxAA.a(core_tx.c.obj)
                0x0002b66c                core_tx_complete_cb_set
 .text.core_tx_packet_alloc
                0x0002b678       0x98 mesh/core/libmesh_core_nrf52832_xxAA.a(core_tx.c.obj)
                0x0002b678                core_tx_packet_alloc
 .text.core_tx_packet_send
                0x0002b710       0x6c mesh/core/libmesh_core_nrf52832_xxAA.a(core_tx.c.obj)
                0x0002b710                core_tx_packet_send
 .text.core_tx_packet_discard
                0x0002b77c       0x6c mesh/core/libmesh_core_nrf52832_xxAA.a(core_tx.c.obj)
                0x0002b77c                core_tx_packet_discard
 .text.network_beacon_tx_cb
                0x0002b7e8       0xe0 mesh/core/libmesh_core_nrf52832_xxAA.a(net_beacon.c.obj)
 .text.net_beacon_init
                0x0002b8c8       0x60 mesh/core/libmesh_core_nrf52832_xxAA.a(net_beacon.c.obj)
                0x0002b8c8                net_beacon_init
 .text.net_beacon_packet_in
                0x0002b928       0xb8 mesh/core/libmesh_core_nrf52832_xxAA.a(net_beacon.c.obj)
                0x0002b928                net_beacon_packet_in
 .text.set_gap_addr_type
                0x0002b9e0       0x34 mesh/core/libmesh_core_nrf52832_xxAA.a(advertiser.c.obj)
 .text.tx_complete_event_callback
                0x0002ba14       0x3c mesh/core/libmesh_core_nrf52832_xxAA.a(advertiser.c.obj)
 .text.broadcast_complete_cb
                0x0002ba50       0x64 mesh/core/libmesh_core_nrf52832_xxAA.a(advertiser.c.obj)
 .text.schedule_first_time
                0x0002bab4       0x28 mesh/core/libmesh_core_nrf52832_xxAA.a(advertiser.c.obj)
 .text.timeout_event
                0x0002badc      0x130 mesh/core/libmesh_core_nrf52832_xxAA.a(advertiser.c.obj)
 .text.advertiser_init
                0x0002bc0c        0xc mesh/core/libmesh_core_nrf52832_xxAA.a(advertiser.c.obj)
                0x0002bc0c                advertiser_init
 .text.advertiser_enable
                0x0002bc18       0x2a mesh/core/libmesh_core_nrf52832_xxAA.a(advertiser.c.obj)
                0x0002bc18                advertiser_enable
 .text.advertiser_disable
                0x0002bc42        0xa mesh/core/libmesh_core_nrf52832_xxAA.a(advertiser.c.obj)
                0x0002bc42                advertiser_disable
 .text.advertiser_packet_alloc
                0x0002bc4c       0x94 mesh/core/libmesh_core_nrf52832_xxAA.a(advertiser.c.obj)
                0x0002bc4c                advertiser_packet_alloc
 .text.advertiser_packet_send
                0x0002bce0       0x78 mesh/core/libmesh_core_nrf52832_xxAA.a(advertiser.c.obj)
                0x0002bce0                advertiser_packet_send
 .text.advertiser_packet_discard
                0x0002bd58       0x2c mesh/core/libmesh_core_nrf52832_xxAA.a(advertiser.c.obj)
                0x0002bd58                advertiser_packet_discard
 .text.advertiser_channels_set
                0x0002bd84       0x84 mesh/core/libmesh_core_nrf52832_xxAA.a(advertiser.c.obj)
                0x0002bd84                advertiser_channels_set
 .text.advertiser_interval_set
                0x0002be08       0x68 mesh/core/libmesh_core_nrf52832_xxAA.a(advertiser.c.obj)
                0x0002be08                advertiser_interval_set
 .text.advertiser_flush
                0x0002be70       0x1e mesh/core/libmesh_core_nrf52832_xxAA.a(advertiser.c.obj)
                0x0002be70                advertiser_flush
 *fill*         0x0002be8e        0x2 
 .text.advertiser_address_default_get
                0x0002be90       0x38 mesh/core/libmesh_core_nrf52832_xxAA.a(advertiser.c.obj)
                0x0002be90                advertiser_address_default_get
 .text.advertiser_instance_init
                0x0002bec8       0xbc mesh/core/libmesh_core_nrf52832_xxAA.a(advertiser.c.obj)
                0x0002bec8                advertiser_instance_init
 .text.action_switch
                0x0002bf84       0xc0 mesh/core/libmesh_core_nrf52832_xxAA.a(bearer_handler.c.obj)
 .text.bearer_handler_init
                0x0002c044       0x2c mesh/core/libmesh_core_nrf52832_xxAA.a(bearer_handler.c.obj)
                0x0002c044                bearer_handler_init
 .text.bearer_handler_start
                0x0002c070       0x1c mesh/core/libmesh_core_nrf52832_xxAA.a(bearer_handler.c.obj)
                0x0002c070                bearer_handler_start
 .text.bearer_handler_stop
                0x0002c08c       0x20 mesh/core/libmesh_core_nrf52832_xxAA.a(bearer_handler.c.obj)
                0x0002c08c                bearer_handler_stop
 .text.bearer_handler_action_enqueue
                0x0002c0ac       0x94 mesh/core/libmesh_core_nrf52832_xxAA.a(bearer_handler.c.obj)
                0x0002c0ac                bearer_handler_action_enqueue
 .text.bearer_handler_action_end
                0x0002c140       0x78 mesh/core/libmesh_core_nrf52832_xxAA.a(bearer_handler.c.obj)
                0x0002c140                bearer_handler_action_end
 .text.bearer_handler_radio_irq_handler
                0x0002c1b8       0x64 mesh/core/libmesh_core_nrf52832_xxAA.a(bearer_handler.c.obj)
                0x0002c1b8                bearer_handler_radio_irq_handler
 .text.bearer_handler_timer_irq_handler
                0x0002c21c       0x30 mesh/core/libmesh_core_nrf52832_xxAA.a(bearer_handler.c.obj)
                0x0002c21c                bearer_handler_timer_irq_handler
 .text.bearer_handler_on_ts_begin
                0x0002c24c       0x44 mesh/core/libmesh_core_nrf52832_xxAA.a(bearer_handler.c.obj)
                0x0002c24c                bearer_handler_on_ts_begin
 .text.bearer_handler_on_ts_end
                0x0002c290       0x48 mesh/core/libmesh_core_nrf52832_xxAA.a(bearer_handler.c.obj)
                0x0002c290                bearer_handler_on_ts_end
 .text.radio_irq_handler
                0x0002c2d8       0xb0 mesh/core/libmesh_core_nrf52832_xxAA.a(broadcast.c.obj)
 .text.broadcast_start
                0x0002c388       0x8c mesh/core/libmesh_core_nrf52832_xxAA.a(broadcast.c.obj)
 .text.broadcast_send
                0x0002c414       0x80 mesh/core/libmesh_core_nrf52832_xxAA.a(broadcast.c.obj)
                0x0002c414                broadcast_send
 .text.radio_config_reset
                0x0002c494       0x34 mesh/core/libmesh_core_nrf52832_xxAA.a(radio_config.c.obj)
                0x0002c494                radio_config_reset
 .text.radio_config_channel_set
                0x0002c4c8       0x34 mesh/core/libmesh_core_nrf52832_xxAA.a(radio_config.c.obj)
                0x0002c4c8                radio_config_channel_set
 .text.radio_config_config
                0x0002c4fc       0x80 mesh/core/libmesh_core_nrf52832_xxAA.a(radio_config.c.obj)
                0x0002c4fc                radio_config_config
 .text.radio_config_access_addr_set
                0x0002c57c       0x68 mesh/core/libmesh_core_nrf52832_xxAA.a(radio_config.c.obj)
                0x0002c57c                radio_config_access_addr_set
 .text.radio_trigger
                0x0002c5e4       0x24 mesh/core/libmesh_core_nrf52832_xxAA.a(scanner.c.obj)
 .text.scan_window_end
                0x0002c608       0x10 mesh/core/libmesh_core_nrf52832_xxAA.a(scanner.c.obj)
 .text.scan_window_start
                0x0002c618       0x24 mesh/core/libmesh_core_nrf52832_xxAA.a(scanner.c.obj)
 .text.radio_configure
                0x0002c63c       0x78 mesh/core/libmesh_core_nrf52832_xxAA.a(scanner.c.obj)
 .text.radio_set_packet
                0x0002c6b4       0x50 mesh/core/libmesh_core_nrf52832_xxAA.a(scanner.c.obj)
 .text.radio_start
                0x0002c704       0x4c mesh/core/libmesh_core_nrf52832_xxAA.a(scanner.c.obj)
 .text.radio_stop
                0x0002c750       0x30 mesh/core/libmesh_core_nrf52832_xxAA.a(scanner.c.obj)
 .text.schedule_timers
                0x0002c780       0x38 mesh/core/libmesh_core_nrf52832_xxAA.a(scanner.c.obj)
 .text.scanner_radio_start
                0x0002c7b8       0x28 mesh/core/libmesh_core_nrf52832_xxAA.a(scanner.c.obj)
                0x0002c7b8                scanner_radio_start
 .text.scanner_radio_stop
                0x0002c7e0       0x10 mesh/core/libmesh_core_nrf52832_xxAA.a(scanner.c.obj)
                0x0002c7e0                scanner_radio_stop
 .text.scanner_radio_irq_handler
                0x0002c7f0      0x124 mesh/core/libmesh_core_nrf52832_xxAA.a(scanner.c.obj)
                0x0002c7f0                scanner_radio_irq_handler
 .text.scanner_enable
                0x0002c914       0x30 mesh/core/libmesh_core_nrf52832_xxAA.a(scanner.c.obj)
                0x0002c914                scanner_enable
 .text.scanner_disable
                0x0002c944       0x48 mesh/core/libmesh_core_nrf52832_xxAA.a(scanner.c.obj)
                0x0002c944                scanner_disable
 .text.scanner_packet_release
                0x0002c98c       0x38 mesh/core/libmesh_core_nrf52832_xxAA.a(scanner.c.obj)
                0x0002c98c                scanner_packet_release
 .text.scanner_rx
                0x0002c9c4       0x30 mesh/core/libmesh_core_nrf52832_xxAA.a(scanner.c.obj)
                0x0002c9c4                scanner_rx
 .text.scanner_config_scan_time_set
                0x0002c9f4       0x68 mesh/core/libmesh_core_nrf52832_xxAA.a(scanner.c.obj)
                0x0002c9f4                scanner_config_scan_time_set
 .text.scanner_config_channels_set
                0x0002ca5c       0x64 mesh/core/libmesh_core_nrf52832_xxAA.a(scanner.c.obj)
                0x0002ca5c                scanner_config_channels_set
 .text.scanner_config_access_addresses_set
                0x0002cac0       0x44 mesh/core/libmesh_core_nrf52832_xxAA.a(scanner.c.obj)
                0x0002cac0                scanner_config_access_addresses_set
 .text.scanner_config_reset
                0x0002cb04       0x50 mesh/core/libmesh_core_nrf52832_xxAA.a(scanner.c.obj)
                0x0002cb04                scanner_config_reset
 .text.scanner_init
                0x0002cb54       0x48 mesh/core/libmesh_core_nrf52832_xxAA.a(scanner.c.obj)
                0x0002cb54                scanner_init
 .text.sd_ecb_block_encrypt
                0x0002cb9c        0x4 mesh/core/libmesh_core_nrf52832_xxAA.a(aes.c.obj)
 .text.aes_encrypt
                0x0002cba0       0x32 mesh/core/libmesh_core_nrf52832_xxAA.a(aes.c.obj)
                0x0002cba0                aes_encrypt
 *fill*         0x0002cbd2        0x2 
 .text.msg_cache_init
                0x0002cbd4       0x24 mesh/core/libmesh_core_nrf52832_xxAA.a(msg_cache.c.obj)
                0x0002cbd4                msg_cache_init
 .text.msg_cache_entry_exists
                0x0002cbf8       0x3c mesh/core/libmesh_core_nrf52832_xxAA.a(msg_cache.c.obj)
                0x0002cbf8                msg_cache_entry_exists
 .text.msg_cache_entry_add
                0x0002cc34       0x2c mesh/core/libmesh_core_nrf52832_xxAA.a(msg_cache.c.obj)
                0x0002cc34                msg_cache_entry_add
 .text.block_ack_full
                0x0002cc60       0x28 mesh/core/libmesh_core_nrf52832_xxAA.a(transport.c.obj)
 .text.seqauth_sequence_number_get
                0x0002cc88       0x12 mesh/core/libmesh_core_nrf52832_xxAA.a(transport.c.obj)
 *fill*         0x0002cc9a        0x2 
 .text.sar_rx_session_mark_as_handled
                0x0002cc9c       0x54 mesh/core/libmesh_core_nrf52832_xxAA.a(transport.c.obj)
 .text.sar_ctx_find
                0x0002ccf0       0x3c mesh/core/libmesh_core_nrf52832_xxAA.a(transport.c.obj)
 .text.m_send_sar_cancel_event
                0x0002cd2c       0x28 mesh/core/libmesh_core_nrf52832_xxAA.a(transport.c.obj)
 .text.tx_complete
                0x0002cd54       0x34 mesh/core/libmesh_core_nrf52832_xxAA.a(transport.c.obj)
 .text.upper_trs_packet_alloc
                0x0002cd88       0x2e mesh/core/libmesh_core_nrf52832_xxAA.a(transport.c.obj)
 *fill*         0x0002cdb6        0x2 
 .text.upper_trs_packet_encrypt
                0x0002cdb8       0xbc mesh/core/libmesh_core_nrf52832_xxAA.a(transport.c.obj)
 .text.sar_ctx_free
                0x0002ce74       0x3c mesh/core/libmesh_core_nrf52832_xxAA.a(transport.c.obj)
 .text.sar_ctx_tx_complete
                0x0002ceb0       0x3c mesh/core/libmesh_core_nrf52832_xxAA.a(transport.c.obj)
 .text.sar_ctx_cancel
                0x0002ceec      0x108 mesh/core/libmesh_core_nrf52832_xxAA.a(transport.c.obj)
 .text.abort_timeout
                0x0002cff4        0x8 mesh/core/libmesh_core_nrf52832_xxAA.a(transport.c.obj)
 .text.sar_ctx_alloc
                0x0002cffc       0xb8 mesh/core/libmesh_core_nrf52832_xxAA.a(transport.c.obj)
 .text.test_transport_decrypt
                0x0002d0b4       0x88 mesh/core/libmesh_core_nrf52832_xxAA.a(transport.c.obj)
 .text.upper_transport_access_packet_in
                0x0002d13c      0x28c mesh/core/libmesh_core_nrf52832_xxAA.a(transport.c.obj)
 .text.trs_packet_header_build
                0x0002d3c8       0xa6 mesh/core/libmesh_core_nrf52832_xxAA.a(transport.c.obj)
 *fill*         0x0002d46e        0x2 
 .text.trs_sar_packet_out
                0x0002d470       0xbc mesh/core/libmesh_core_nrf52832_xxAA.a(transport.c.obj)
 .text.retry_timeout
                0x0002d52c       0x54 mesh/core/libmesh_core_nrf52832_xxAA.a(transport.c.obj)
 .text.sar_ack_send
                0x0002d580      0x128 mesh/core/libmesh_core_nrf52832_xxAA.a(transport.c.obj)
 .text.ack_timeout
                0x0002d6a8       0x34 mesh/core/libmesh_core_nrf52832_xxAA.a(transport.c.obj)
 .text.tx_retry_timer_reset
                0x0002d6dc       0x50 mesh/core/libmesh_core_nrf52832_xxAA.a(transport.c.obj)
 .text.upper_transport_packet_in
                0x0002d72c      0x164 mesh/core/libmesh_core_nrf52832_xxAA.a(transport.c.obj)
 .text.transport_sar_process
                0x0002d890       0x70 mesh/core/libmesh_core_nrf52832_xxAA.a(transport.c.obj)
 .text.transport_sar_mem_funcs_reset
                0x0002d900       0x28 mesh/core/libmesh_core_nrf52832_xxAA.a(transport.c.obj)
                0x0002d900                transport_sar_mem_funcs_reset
 .text.transport_init
                0x0002d928       0x78 mesh/core/libmesh_core_nrf52832_xxAA.a(transport.c.obj)
                0x0002d928                transport_init
 .text.transport_packet_in
                0x0002d9a0      0x4f4 mesh/core/libmesh_core_nrf52832_xxAA.a(transport.c.obj)
                0x0002d9a0                transport_packet_in
 .text.transport_tx
                0x0002de94      0x2ac mesh/core/libmesh_core_nrf52832_xxAA.a(transport.c.obj)
                0x0002de94                transport_tx
 .text.get_last_page
                0x0002e140       0x14 mesh/core/libmesh_core_nrf52832_xxAA.a(flash_manager_defrag.c.obj)
 .text.defrag_on_end
                0x0002e154       0x1c mesh/core/libmesh_core_nrf52832_xxAA.a(flash_manager_defrag.c.obj)
 .text.execute_procedure_step
                0x0002e170       0xa0 mesh/core/libmesh_core_nrf52832_xxAA.a(flash_manager_defrag.c.obj)
 .text.get_next_entry
                0x0002e210       0x40 mesh/core/libmesh_core_nrf52832_xxAA.a(flash_manager_defrag.c.obj)
 .text.get_next_data_entry
                0x0002e250       0x20 mesh/core/libmesh_core_nrf52832_xxAA.a(flash_manager_defrag.c.obj)
 .text.on_flash_op_end
                0x0002e270       0x30 mesh/core/libmesh_core_nrf52832_xxAA.a(flash_manager_defrag.c.obj)
 .text.check_for_invalid_entries
                0x0002e2a0       0x38 mesh/core/libmesh_core_nrf52832_xxAA.a(flash_manager_defrag.c.obj)
 .text.erase_recovery_area
                0x0002e2d8       0x34 mesh/core/libmesh_core_nrf52832_xxAA.a(flash_manager_defrag.c.obj)
 .text.flash.constprop.6
                0x0002e30c       0x24 mesh/core/libmesh_core_nrf52832_xxAA.a(flash_manager_defrag.c.obj)
 .text.seal_storage_page
                0x0002e330       0x50 mesh/core/libmesh_core_nrf52832_xxAA.a(flash_manager_defrag.c.obj)
 .text.invalidate_duplicate_entries
                0x0002e380       0x9c mesh/core/libmesh_core_nrf52832_xxAA.a(flash_manager_defrag.c.obj)
 .text.copy_metadata
                0x0002e41c       0x3c mesh/core/libmesh_core_nrf52832_xxAA.a(flash_manager_defrag.c.obj)
 .text.write_defrag_start_pointer
                0x0002e458       0x20 mesh/core/libmesh_core_nrf52832_xxAA.a(flash_manager_defrag.c.obj)
 .text.write_back
                0x0002e478       0x28 mesh/core/libmesh_core_nrf52832_xxAA.a(flash_manager_defrag.c.obj)
 .text.post_process
                0x0002e4a0       0x40 mesh/core/libmesh_core_nrf52832_xxAA.a(flash_manager_defrag.c.obj)
 .text.backup_entries
                0x0002e4e0      0x118 mesh/core/libmesh_core_nrf52832_xxAA.a(flash_manager_defrag.c.obj)
 .text.erase_source
                0x0002e5f8       0x34 mesh/core/libmesh_core_nrf52832_xxAA.a(flash_manager_defrag.c.obj)
 .text.flash_manager_defrag_init
                0x0002e62c       0x94 mesh/core/libmesh_core_nrf52832_xxAA.a(flash_manager_defrag.c.obj)
                0x0002e62c                flash_manager_defrag_init
 .text.flash_manager_defrag_is_running
                0x0002e6c0       0x10 mesh/core/libmesh_core_nrf52832_xxAA.a(flash_manager_defrag.c.obj)
                0x0002e6c0                flash_manager_defrag_is_running
 .text.flash_manager_defrag
                0x0002e6d0       0xd8 mesh/core/libmesh_core_nrf52832_xxAA.a(flash_manager_defrag.c.obj)
                0x0002e6d0                flash_manager_defrag
 .text.flash_manager_defrag_recovery_page_get
                0x0002e7a8        0xc mesh/core/libmesh_core_nrf52832_xxAA.a(flash_manager_defrag.c.obj)
                0x0002e7a8                flash_manager_defrag_recovery_page_get
 .text.wait_for_ready
                0x0002e7b4       0x10 mesh/core/libmesh_core_nrf52832_xxAA.a(nrf_flash.c.obj)
 .text.nrf_flash_erase
                0x0002e7c4       0x50 mesh/core/libmesh_core_nrf52832_xxAA.a(nrf_flash.c.obj)
                0x0002e7c4                nrf_flash_erase
 .text.nrf_flash_write
                0x0002e814       0x50 mesh/core/libmesh_core_nrf52832_xxAA.a(nrf_flash.c.obj)
                0x0002e814                nrf_flash_write
 .text.packet_mgr_init
                0x0002e864       0x4c mesh/core/libmesh_core_nrf52832_xxAA.a(packet_mgr.c.obj)
                0x0002e864                packet_mgr_init
 .text.queue_init
                0x0002e8b0       0x20 mesh/core/libmesh_core_nrf52832_xxAA.a(queue.c.obj)
                0x0002e8b0                queue_init
 .text.queue_push
                0x0002e8d0       0x48 mesh/core/libmesh_core_nrf52832_xxAA.a(queue.c.obj)
                0x0002e8d0                queue_push
 .text.queue_pop
                0x0002e918       0x34 mesh/core/libmesh_core_nrf52832_xxAA.a(queue.c.obj)
                0x0002e918                queue_pop
 .text.queue_peek
                0x0002e94c       0x1c mesh/core/libmesh_core_nrf52832_xxAA.a(queue.c.obj)
                0x0002e94c                queue_peek
 .text.my_xor.constprop.1
                0x0002e968       0x20 mesh/core/libmesh_core_nrf52832_xxAA.a(aes_cmac.c.obj)
 .text.utils_lshift.constprop.2
                0x0002e988       0x24 mesh/core/libmesh_core_nrf52832_xxAA.a(aes_cmac.c.obj)
 .text.aes_cmac_subkey_generate
                0x0002e9ac       0x6c mesh/core/libmesh_core_nrf52832_xxAA.a(aes_cmac.c.obj)
                0x0002e9ac                aes_cmac_subkey_generate
 .text.aes_cmac
                0x0002ea18       0xbc mesh/core/libmesh_core_nrf52832_xxAA.a(aes_cmac.c.obj)
                0x0002ea18                aes_cmac
 .text.replay_cache_add
                0x0002ead4       0x60 mesh/core/libmesh_core_nrf52832_xxAA.a(replay_cache.c.obj)
                0x0002ead4                replay_cache_add
 .text.replay_cache_has_room
                0x0002eb34       0x38 mesh/core/libmesh_core_nrf52832_xxAA.a(replay_cache.c.obj)
                0x0002eb34                replay_cache_has_room
 .text.replay_cache_has_elem
                0x0002eb6c       0x38 mesh/core/libmesh_core_nrf52832_xxAA.a(replay_cache.c.obj)
                0x0002eb6c                replay_cache_has_elem
 .text.replay_cache_clear
                0x0002eba4       0x28 mesh/core/libmesh_core_nrf52832_xxAA.a(replay_cache.c.obj)
                0x0002eba4                replay_cache_clear
 .text.replay_cache_init
                0x0002ebcc        0x4 mesh/core/libmesh_core_nrf52832_xxAA.a(replay_cache.c.obj)
                0x0002ebcc                replay_cache_init
 .text.fen_filters_apply
                0x0002ebd0       0x34 mesh/core/libmesh_core_nrf52832_xxAA.a(filter_engine.c.obj)
                0x0002ebd0                fen_filters_apply
 .text._GetAvailWriteSpace
                0x0002ec04       0x1c external/rtt/librtt_nrf52832_xxAA.a(SEGGER_RTT.c.obj)
 .text._WriteNoCheck
                0x0002ec20       0x3c external/rtt/librtt_nrf52832_xxAA.a(SEGGER_RTT.c.obj)
 .text._WriteBlocking
                0x0002ec5c       0x52 external/rtt/librtt_nrf52832_xxAA.a(SEGGER_RTT.c.obj)
 *fill*         0x0002ecae        0x2 
 .text._DoInit  0x0002ecb0       0x60 external/rtt/librtt_nrf52832_xxAA.a(SEGGER_RTT.c.obj)
 .text.SEGGER_RTT_WriteNoLock
                0x0002ed10       0x68 external/rtt/librtt_nrf52832_xxAA.a(SEGGER_RTT.c.obj)
                0x0002ed10                SEGGER_RTT_WriteNoLock
 .text.SEGGER_RTT_Write
                0x0002ed78       0x34 external/rtt/librtt_nrf52832_xxAA.a(SEGGER_RTT.c.obj)
                0x0002ed78                SEGGER_RTT_Write
 .text._StoreChar
                0x0002edac       0x3e external/rtt/librtt_nrf52832_xxAA.a(SEGGER_RTT_printf.c.obj)
 *fill*         0x0002edea        0x2 
 .text._PrintUnsigned
                0x0002edec       0xd0 external/rtt/librtt_nrf52832_xxAA.a(SEGGER_RTT_printf.c.obj)
 .text.SEGGER_RTT_vprintf
                0x0002eebc      0x246 external/rtt/librtt_nrf52832_xxAA.a(SEGGER_RTT_printf.c.obj)
                0x0002eebc                SEGGER_RTT_vprintf
 .text.SEGGER_RTT_printf
                0x0002f102       0x1e external/rtt/librtt_nrf52832_xxAA.a(SEGGER_RTT_printf.c.obj)
                0x0002f102                SEGGER_RTT_printf
 .text.uECC_vli_mult
                0x0002f120       0x64 external/micro-ecc/libuECC_nrf52832_xxAA.a(uECC.c.obj)
 .text.uECC_vli_clear
                0x0002f184       0x16 external/micro-ecc/libuECC_nrf52832_xxAA.a(uECC.c.obj)
 .text.uECC_vli_isZero
                0x0002f19a       0x1e external/micro-ecc/libuECC_nrf52832_xxAA.a(uECC.c.obj)
 .text.uECC_vli_testBit
                0x0002f1b8       0x14 external/micro-ecc/libuECC_nrf52832_xxAA.a(uECC.c.obj)
 .text.uECC_vli_numBits
                0x0002f1cc       0x3a external/micro-ecc/libuECC_nrf52832_xxAA.a(uECC.c.obj)
 .text.uECC_vli_set
                0x0002f206       0x18 external/micro-ecc/libuECC_nrf52832_xxAA.a(uECC.c.obj)
 .text.uECC_vli_cmp_unsafe
                0x0002f21e       0x28 external/micro-ecc/libuECC_nrf52832_xxAA.a(uECC.c.obj)
 .text.uECC_vli_rshift1
                0x0002f246       0x1c external/micro-ecc/libuECC_nrf52832_xxAA.a(uECC.c.obj)
 .text.uECC_vli_modMult_fast
                0x0002f262       0x20 external/micro-ecc/libuECC_nrf52832_xxAA.a(uECC.c.obj)
 .text.uECC_vli_modSquare_fast
                0x0002f282        0x8 external/micro-ecc/libuECC_nrf52832_xxAA.a(uECC.c.obj)
 .text.apply_z  0x0002f28a       0x3e external/micro-ecc/libuECC_nrf52832_xxAA.a(uECC.c.obj)
 .text.uECC_vli_nativeToBytes
                0x0002f2c8       0x28 external/micro-ecc/libuECC_nrf52832_xxAA.a(uECC.c.obj)
 .text.uECC_vli_bytesToNative
                0x0002f2f0       0x40 external/micro-ecc/libuECC_nrf52832_xxAA.a(uECC.c.obj)
 .text.default_RNG
                0x0002f330        0xc external/micro-ecc/libuECC_nrf52832_xxAA.a(uECC.c.obj)
 .text.uECC_vli_add.isra.0
                0x0002f33c       0x4a external/micro-ecc/libuECC_nrf52832_xxAA.a(uECC.c.obj)
 .text.regularize_k
                0x0002f386       0x50 external/micro-ecc/libuECC_nrf52832_xxAA.a(uECC.c.obj)
 .text.uECC_vli_sub.isra.1
                0x0002f3d6       0x4e external/micro-ecc/libuECC_nrf52832_xxAA.a(uECC.c.obj)
 .text.uECC_vli_cmp
                0x0002f424       0x30 external/micro-ecc/libuECC_nrf52832_xxAA.a(uECC.c.obj)
 .text.uECC_generate_random_int
                0x0002f454       0x78 external/micro-ecc/libuECC_nrf52832_xxAA.a(uECC.c.obj)
 .text.uECC_vli_modAdd
                0x0002f4cc       0x2e external/micro-ecc/libuECC_nrf52832_xxAA.a(uECC.c.obj)
 *fill*         0x0002f4fa        0x2 
 .text.vli_mmod_fast_secp256r1
                0x0002f4fc      0x194 external/micro-ecc/libuECC_nrf52832_xxAA.a(uECC.c.obj)
 .text.uECC_vli_modSub.isra.2
                0x0002f690       0x1c external/micro-ecc/libuECC_nrf52832_xxAA.a(uECC.c.obj)
 .text.double_jacobian_default
                0x0002f6ac      0x14a external/micro-ecc/libuECC_nrf52832_xxAA.a(uECC.c.obj)
 .text.x_side_default
                0x0002f7f6       0x5a external/micro-ecc/libuECC_nrf52832_xxAA.a(uECC.c.obj)
 .text.XYcZ_add
                0x0002f850       0xbc external/micro-ecc/libuECC_nrf52832_xxAA.a(uECC.c.obj)
 .text.XYcZ_addC
                0x0002f90c      0x10a external/micro-ecc/libuECC_nrf52832_xxAA.a(uECC.c.obj)
 .text.vli_modInv_update
                0x0002fa16       0x36 external/micro-ecc/libuECC_nrf52832_xxAA.a(uECC.c.obj)
 .text.uECC_vli_modInv
                0x0002fa4c      0x102 external/micro-ecc/libuECC_nrf52832_xxAA.a(uECC.c.obj)
 .text.EccPoint_mult
                0x0002fb4e      0x19e external/micro-ecc/libuECC_nrf52832_xxAA.a(uECC.c.obj)
 .text.EccPoint_compute_public_key
                0x0002fcec       0x54 external/micro-ecc/libuECC_nrf52832_xxAA.a(uECC.c.obj)
 .text.uECC_secp256r1
                0x0002fd40        0x8 external/micro-ecc/libuECC_nrf52832_xxAA.a(uECC.c.obj)
                0x0002fd40                uECC_secp256r1
 .text.uECC_make_key
                0x0002fd48       0x7e external/micro-ecc/libuECC_nrf52832_xxAA.a(uECC.c.obj)
                0x0002fd48                uECC_make_key
 *fill*         0x0002fdc6        0x2 
 .text.uECC_shared_secret
                0x0002fdc8       0xbc external/micro-ecc/libuECC_nrf52832_xxAA.a(uECC.c.obj)
                0x0002fdc8                uECC_shared_secret
 .text.uECC_valid_point
                0x0002fe84       0x86 external/micro-ecc/libuECC_nrf52832_xxAA.a(uECC.c.obj)
                0x0002fe84                uECC_valid_point
 .text.uECC_valid_public_key
                0x0002ff0a       0x32 external/micro-ecc/libuECC_nrf52832_xxAA.a(uECC.c.obj)
                0x0002ff0a                uECC_valid_public_key
 .text.exit     0x0002ff3c       0x28 c:/a/gcc_arm/6/bin/../lib/gcc/arm-none-eabi/6.3.1/../../../../arm-none-eabi/lib/thumb/v7e-m/fpv4-sp/hard\libc_nano.a(lib_a-exit.o)
                0x0002ff3c                exit
 .text.__libc_init_array
                0x0002ff64       0x48 c:/a/gcc_arm/6/bin/../lib/gcc/arm-none-eabi/6.3.1/../../../../arm-none-eabi/lib/thumb/v7e-m/fpv4-sp/hard\libc_nano.a(lib_a-init.o)
                0x0002ff64                __libc_init_array
 .text.malloc   0x0002ffac       0x10 c:/a/gcc_arm/6/bin/../lib/gcc/arm-none-eabi/6.3.1/../../../../arm-none-eabi/lib/thumb/v7e-m/fpv4-sp/hard\libc_nano.a(lib_a-malloc.o)
                0x0002ffac                malloc
 .text.free     0x0002ffbc       0x10 c:/a/gcc_arm/6/bin/../lib/gcc/arm-none-eabi/6.3.1/../../../../arm-none-eabi/lib/thumb/v7e-m/fpv4-sp/hard\libc_nano.a(lib_a-malloc.o)
                0x0002ffbc                free
 .text.memcmp   0x0002ffcc       0x1e c:/a/gcc_arm/6/bin/../lib/gcc/arm-none-eabi/6.3.1/../../../../arm-none-eabi/lib/thumb/v7e-m/fpv4-sp/hard\libc_nano.a(lib_a-memcmp.o)
                0x0002ffcc                memcmp
 .text.memcpy   0x0002ffea       0x16 c:/a/gcc_arm/6/bin/../lib/gcc/arm-none-eabi/6.3.1/../../../../arm-none-eabi/lib/thumb/v7e-m/fpv4-sp/hard\libc_nano.a(lib_a-memcpy-stub.o)
                0x0002ffea                memcpy
 .text.memset   0x00030000       0x10 c:/a/gcc_arm/6/bin/../lib/gcc/arm-none-eabi/6.3.1/../../../../arm-none-eabi/lib/thumb/v7e-m/fpv4-sp/hard\libc_nano.a(lib_a-memset.o)
                0x00030000                memset
 .text._free_r  0x00030010       0x9c c:/a/gcc_arm/6/bin/../lib/gcc/arm-none-eabi/6.3.1/../../../../arm-none-eabi/lib/thumb/v7e-m/fpv4-sp/hard\libc_nano.a(lib_a-nano-freer.o)
                0x00030010                _free_r
 .text._malloc_r
                0x000300ac       0xbc c:/a/gcc_arm/6/bin/../lib/gcc/arm-none-eabi/6.3.1/../../../../arm-none-eabi/lib/thumb/v7e-m/fpv4-sp/hard\libc_nano.a(lib_a-nano-mallocr.o)
                0x000300ac                _malloc_r
 .text._sbrk_r  0x00030168       0x20 c:/a/gcc_arm/6/bin/../lib/gcc/arm-none-eabi/6.3.1/../../../../arm-none-eabi/lib/thumb/v7e-m/fpv4-sp/hard\libc_nano.a(lib_a-sbrkr.o)
                0x00030168                _sbrk_r
 .text.strcpy   0x00030188       0x10 c:/a/gcc_arm/6/bin/../lib/gcc/arm-none-eabi/6.3.1/../../../../arm-none-eabi/lib/thumb/v7e-m/fpv4-sp/hard\libc_nano.a(lib_a-strcpy.o)
                0x00030188                strcpy
 .text          0x00030198       0x10 c:/a/gcc_arm/6/bin/../lib/gcc/arm-none-eabi/6.3.1/../../../../arm-none-eabi/lib/thumb/v7e-m/fpv4-sp/hard\libc_nano.a(lib_a-strlen.o)
                0x00030198                strlen
 .text.strrchr  0x000301a8       0x26 c:/a/gcc_arm/6/bin/../lib/gcc/arm-none-eabi/6.3.1/../../../../arm-none-eabi/lib/thumb/v7e-m/fpv4-sp/hard\libc_nano.a(lib_a-strrchr.o)
                0x000301a8                strrchr
 .text.__malloc_lock
                0x000301ce        0x2 c:/a/gcc_arm/6/bin/../lib/gcc/arm-none-eabi/6.3.1/../../../../arm-none-eabi/lib/thumb/v7e-m/fpv4-sp/hard\libc_nano.a(lib_a-mlock.o)
                0x000301ce                __malloc_lock
 .text.__malloc_unlock
                0x000301d0        0x2 c:/a/gcc_arm/6/bin/../lib/gcc/arm-none-eabi/6.3.1/../../../../arm-none-eabi/lib/thumb/v7e-m/fpv4-sp/hard\libc_nano.a(lib_a-mlock.o)
                0x000301d0                __malloc_unlock
 .text.strchr   0x000301d2       0x1c c:/a/gcc_arm/6/bin/../lib/gcc/arm-none-eabi/6.3.1/../../../../arm-none-eabi/lib/thumb/v7e-m/fpv4-sp/hard\libc_nano.a(lib_a-strchr.o)
                0x000301d2                strchr
 *fill*         0x000301ee        0x2 
 .text._sbrk    0x000301f0       0x1c c:/a/gcc_arm/6/bin/../lib/gcc/arm-none-eabi/6.3.1/../../../../arm-none-eabi/lib/thumb/v7e-m/fpv4-sp/hard\libnosys.a(sbrk.o)
                0x000301f0                _sbrk
 .text._exit    0x0003020c        0x4 c:/a/gcc_arm/6/bin/../lib/gcc/arm-none-eabi/6.3.1/../../../../arm-none-eabi/lib/thumb/v7e-m/fpv4-sp/hard\libnosys.a(_exit.o)
                0x0003020c                _exit
 *(.init)
 .init          0x00030210        0x4 c:/a/gcc_arm/6/bin/../lib/gcc/arm-none-eabi/6.3.1/thumb/v7e-m/fpv4-sp/hard/crti.o
                0x00030210                _init
 .init          0x00030214        0x8 c:/a/gcc_arm/6/bin/../lib/gcc/arm-none-eabi/6.3.1/thumb/v7e-m/fpv4-sp/hard/crtn.o
 *(.fini)
 .fini          0x0003021c        0x4 c:/a/gcc_arm/6/bin/../lib/gcc/arm-none-eabi/6.3.1/thumb/v7e-m/fpv4-sp/hard/crti.o
                0x0003021c                _fini
 .fini          0x00030220        0x8 c:/a/gcc_arm/6/bin/../lib/gcc/arm-none-eabi/6.3.1/thumb/v7e-m/fpv4-sp/hard/crtn.o
 *crtbegin.o(.ctors)
 *crtbegin?.o(.ctors)
 *(EXCLUDE_FILE(*crtend.o *crtend?.o) .ctors)
 *(SORT(.ctors.*))
 *(.ctors)
 *crtbegin.o(.dtors)
 *crtbegin?.o(.dtors)
 *(EXCLUDE_FILE(*crtend.o *crtend?.o) .dtors)
 *(SORT(.dtors.*))
 *(.dtors)
 *(.rodata*)
 .rodata.main.str1.1
                0x00030228       0x9d examples/dfu/CMakeFiles/dfu_nrf52832_xxAA_s132_3.1.0.dir/src/main.c.obj
 .rodata.mesh_evt_handler.str1.1
                0x000302c5       0x1b examples/dfu/CMakeFiles/dfu_nrf52832_xxAA_s132_3.1.0.dir/src/main.c.obj
 .rodata.HardFault_Handler.str1.1
                0x000302e0        0xe examples/dfu/CMakeFiles/dfu_nrf52832_xxAA_s132_3.1.0.dir/__/nrf_mesh_sdk.c.obj
 .rodata.app_error_handler.str1.1
                0x000302ee       0x1d examples/dfu/CMakeFiles/dfu_nrf52832_xxAA_s132_3.1.0.dir/__/nrf_mesh_sdk.c.obj
 .rodata.mesh_assert_handler.str1.1
                0x0003030b       0x34 examples/dfu/CMakeFiles/dfu_nrf52832_xxAA_s132_3.1.0.dir/__/nrf_mesh_sdk.c.obj
 .rodata.mesh_core_setup.str1.1
                0x0003033f       0x47 examples/dfu/CMakeFiles/dfu_nrf52832_xxAA_s132_3.1.0.dir/__/nrf_mesh_sdk.c.obj
 .rodata.mesh_softdevice_enable.str1.1
                0x00030386       0x65 examples/dfu/CMakeFiles/dfu_nrf52832_xxAA_s132_3.1.0.dir/__/nrf_mesh_sdk.c.obj
 .rodata.softdevice_assert_handler.str1.1
                0x000303eb       0x1d examples/dfu/CMakeFiles/dfu_nrf52832_xxAA_s132_3.1.0.dir/__/nrf_mesh_sdk.c.obj
 .rodata.m_flash_groups
                0x00030408       0xc0 examples/dfu/CMakeFiles/dfu_nrf52832_xxAA_s132_3.1.0.dir/__/__/mesh/access/src/device_state_manager.c.obj
 .rodata.m_cmd_handlers
                0x000304c8       0xb0 examples/dfu/CMakeFiles/dfu_nrf52832_xxAA_s132_3.1.0.dir/__/__/mesh/serial/src/serial_handler_access.c.obj
 .rodata.m_cmd_handlers
                0x00030578       0x48 examples/dfu/CMakeFiles/dfu_nrf52832_xxAA_s132_3.1.0.dir/__/__/mesh/serial/src/serial.c.obj
 .rodata.serial_process_cmd.str1.1
                0x000305c0       0x17 examples/dfu/CMakeFiles/dfu_nrf52832_xxAA_s132_3.1.0.dir/__/__/mesh/serial/src/serial.c.obj
 .rodata.serial_start.str1.1
                0x000305d7       0x63 examples/dfu/CMakeFiles/dfu_nrf52832_xxAA_s132_3.1.0.dir/__/__/mesh/serial/src/serial.c.obj
 .rodata.serial_handler_prov_init.str1.1
                0x0003063a       0x4b examples/dfu/CMakeFiles/dfu_nrf52832_xxAA_s132_3.1.0.dir/__/__/mesh/serial/src/serial_handler_prov.c.obj
 .rodata.lengths.10798
                0x00030685        0x7 examples/dfu/CMakeFiles/dfu_nrf52832_xxAA_s132_3.1.0.dir/__/__/mesh/serial/src/serial_handler_dfu.c.obj
 .rodata.m_handlers
                0x0003068c       0xe8 examples/dfu/CMakeFiles/dfu_nrf52832_xxAA_s132_3.1.0.dir/__/__/mesh/serial/src/serial_handler_mesh.c.obj
 .rodata.m_cmd_handlers
                0x00030774       0x18 examples/dfu/CMakeFiles/dfu_nrf52832_xxAA_s132_3.1.0.dir/__/__/mesh/serial/src/serial_handler_models.c.obj
 .rodata.m_cmd_handlers
                0x0003078c       0x48 examples/dfu/CMakeFiles/dfu_nrf52832_xxAA_s132_3.1.0.dir/__/__/mesh/serial/src/serial_handler_device.c.obj
 .rodata.m_prov_callbacks
                0x000307d4       0x10 examples/dfu/CMakeFiles/dfu_nrf52832_xxAA_s132_3.1.0.dir/__/__/mesh/prov/src/prov_provisioner.c.obj
 .rodata.m_prov_callbacks
                0x000307e4       0x10 examples/dfu/CMakeFiles/dfu_nrf52832_xxAA_s132_3.1.0.dir/__/__/mesh/prov/src/prov_provisionee.c.obj
 .rodata.prov_provisionee_cb_ack_received.str1.1
                0x000307f4       0x53 examples/dfu/CMakeFiles/dfu_nrf52832_xxAA_s132_3.1.0.dir/__/__/mesh/prov/src/prov_provisionee.c.obj
 .rodata.pdu_sizes.10677
                0x00030847        0xa examples/dfu/CMakeFiles/dfu_nrf52832_xxAA_s132_3.1.0.dir/__/__/mesh/prov/src/provisioning.c.obj
 .rodata.prov_cb_pkt_in.str1.1
                0x00030851       0x34 examples/dfu/CMakeFiles/dfu_nrf52832_xxAA_s132_3.1.0.dir/__/__/mesh/prov/src/provisioning.c.obj
 .rodata.alphanumeric.10781
                0x00030885       0x25 examples/dfu/CMakeFiles/dfu_nrf52832_xxAA_s132_3.1.0.dir/__/__/mesh/prov/src/prov_utils.c.obj
 *fill*         0x000308aa        0x2 
 .rodata.numeric_max.10775
                0x000308ac       0x24 examples/dfu/CMakeFiles/dfu_nrf52832_xxAA_s132_3.1.0.dir/__/__/mesh/prov/src/prov_utils.c.obj
 .rodata.prov_utils_authentication_values_derive.str1.1
                0x000308d0        0x5 examples/dfu/CMakeFiles/dfu_nrf52832_xxAA_s132_3.1.0.dir/__/__/mesh/prov/src/prov_utils.c.obj
 .rodata.prov_utils_derive_keys.str1.1
                0x000308d5        0xf examples/dfu/CMakeFiles/dfu_nrf52832_xxAA_s132_3.1.0.dir/__/__/mesh/prov/src/prov_utils.c.obj
 .rodata.add_active_bearer.str1.1
                0x000308e4       0x2c examples/dfu/CMakeFiles/dfu_nrf52832_xxAA_s132_3.1.0.dir/__/__/mesh/prov/src/prov_bearer_adv.c.obj
 .rodata.crctable.10539
                0x00030910      0x100 examples/dfu/CMakeFiles/dfu_nrf52832_xxAA_s132_3.1.0.dir/__/__/mesh/prov/src/prov_bearer_adv.c.obj
 .rodata.interface.10768
                0x00030a10       0x14 examples/dfu/CMakeFiles/dfu_nrf52832_xxAA_s132_3.1.0.dir/__/__/mesh/prov/src/prov_bearer_adv.c.obj
 .rodata.prov_bearer_adv_packet_in.str1.1
                0x00030a24      0x26e examples/dfu/CMakeFiles/dfu_nrf52832_xxAA_s132_3.1.0.dir/__/__/mesh/prov/src/prov_bearer_adv.c.obj
 .rodata.tx_retry_cb.str1.1
                0x00030c92       0x37 examples/dfu/CMakeFiles/dfu_nrf52832_xxAA_s132_3.1.0.dir/__/__/mesh/prov/src/prov_bearer_adv.c.obj
 .rodata.abort_timeout.str1.1
                0x00030cc9       0x19 examples/dfu/CMakeFiles/dfu_nrf52832_xxAA_s132_3.1.0.dir/__/__/mesh/dfu/src/nrf_mesh_dfu.c.obj
 .rodata.dfu_evt_handler.str1.1
                0x00030ce2      0x182 examples/dfu/CMakeFiles/dfu_nrf52832_xxAA_s132_3.1.0.dir/__/__/mesh/dfu/src/nrf_mesh_dfu.c.obj
 .rodata.flash_op_complete.str1.1
                0x00030e64       0x3b examples/dfu/CMakeFiles/dfu_nrf52832_xxAA_s132_3.1.0.dir/__/__/mesh/dfu/src/nrf_mesh_dfu.c.obj
 .rodata.m_adv_channels
                0x00030e9f        0x3 examples/dfu/CMakeFiles/dfu_nrf52832_xxAA_s132_3.1.0.dir/__/__/mesh/dfu/src/nrf_mesh_dfu.c.obj
 .rodata.nrf_mesh_dfu_cmd_send.str1.1
                0x00030ea2       0x18 examples/dfu/CMakeFiles/dfu_nrf52832_xxAA_s132_3.1.0.dir/__/__/mesh/dfu/src/nrf_mesh_dfu.c.obj
 .rodata.timer_timeout.str1.1
                0x00030eba       0x18 examples/dfu/CMakeFiles/dfu_nrf52832_xxAA_s132_3.1.0.dir/__/__/mesh/dfu/src/nrf_mesh_dfu.c.obj
                                 0x13 (size before relaxing)
 *fill*         0x00030eba        0x2 
 .rodata.m_all_operations
                0x00030ebc       0x10 mesh/core/libmesh_core_nrf52832_xxAA.a(mesh_flash.c.obj)
 .rodata.types_lookup.8805
                0x00030ecc        0x4 mesh/core/libmesh_core_nrf52832_xxAA.a(nrf_mesh_utils.c.obj)
 .rodata.nrf_mesh_process.str1.1
                0x00030ed0       0x70 mesh/core/libmesh_core_nrf52832_xxAA.a(nrf_mesh.c.obj)
 .rodata.CSWTCH.9
                0x00030f40       0x10 mesh/core/libmesh_core_nrf52832_xxAA.a(hal.c.obj)
 .rodata        0x00030f50       0x15 mesh/core/libmesh_core_nrf52832_xxAA.a(enc.c.obj)
 .rodata.network_packet_in.str1.1
                0x00030f65       0x48 mesh/core/libmesh_core_nrf52832_xxAA.a(network.c.obj)
 .rodata.network_packet_send.str1.1
                0x00030fad       0x49 mesh/core/libmesh_core_nrf52832_xxAA.a(network.c.obj)
 .rodata        0x00030ff6        0x7 mesh/core/libmesh_core_nrf52832_xxAA.a(nrf_mesh_keygen.c.obj)
 .rodata.log_callback_rtt.str1.1
                0x00030ffd       0x15 mesh/core/libmesh_core_nrf52832_xxAA.a(log.c.obj)
 .rodata.str1.1
                0x00031012       0x11 mesh/core/libmesh_core_nrf52832_xxAA.a(log.c.obj)
 *fill*         0x00031023        0x1 
 .rodata.INVALID_HEADER
                0x00031024        0x4 mesh/core/libmesh_core_nrf52832_xxAA.a(flash_manager.c.obj)
                0x00031024                INVALID_HEADER
 .rodata.PADDING_HEADER
                0x00031028        0x4 mesh/core/libmesh_core_nrf52832_xxAA.a(flash_manager.c.obj)
                0x00031028                PADDING_HEADER
 .rodata.SEAL_HEADER
                0x0003102c        0x4 mesh/core/libmesh_core_nrf52832_xxAA.a(flash_manager.c.obj)
                0x0003102c                SEAL_HEADER
 .rodata.process_action_queue.str1.1
                0x00031030       0x21 mesh/core/libmesh_core_nrf52832_xxAA.a(flash_manager.c.obj)
                                 0x4f (size before relaxing)
 .rodata.beacon_packet_in.str1.1
                0x00031051       0x51 mesh/core/libmesh_core_nrf52832_xxAA.a(beacon.c.obj)
                                 0x59 (size before relaxing)
 .rodata.net_beacon_init.str1.1
                0x000310a2        0x5 mesh/core/libmesh_core_nrf52832_xxAA.a(net_beacon.c.obj)
 .rodata.radio_mode_to_us_per_byte.9181
                0x000310a7        0x6 mesh/core/libmesh_core_nrf52832_xxAA.a(broadcast.c.obj)
 .rodata.channel_rf_offsets.8443
                0x000310ad       0x28 mesh/core/libmesh_core_nrf52832_xxAA.a(radio_config.c.obj)
 .rodata        0x000310d5        0x3 mesh/core/libmesh_core_nrf52832_xxAA.a(scanner.c.obj)
 .rodata.sar_ctx_cancel.str1.1
                0x000310d8       0x35 mesh/core/libmesh_core_nrf52832_xxAA.a(transport.c.obj)
                                 0x63 (size before relaxing)
 .rodata.test_transport_decrypt.str1.1
                0x0003110d       0x13 mesh/core/libmesh_core_nrf52832_xxAA.a(transport.c.obj)
 .rodata.transport_packet_in.str1.1
                0x00031120       0x24 mesh/core/libmesh_core_nrf52832_xxAA.a(transport.c.obj)
 .rodata.transport_tx.str1.1
                0x00031144       0x2c mesh/core/libmesh_core_nrf52832_xxAA.a(transport.c.obj)
                                 0x34 (size before relaxing)
 .rodata.upper_transport_access_packet_in.str1.1
                0x00031170       0x29 mesh/core/libmesh_core_nrf52832_xxAA.a(transport.c.obj)
 .rodata.upper_transport_packet_in.str1.1
                0x00031199       0x2e mesh/core/libmesh_core_nrf52832_xxAA.a(transport.c.obj)
 .rodata.flash_manager_defrag.str1.1
                0x000311c7       0x28 mesh/core/libmesh_core_nrf52832_xxAA.a(flash_manager_defrag.c.obj)
                                 0x56 (size before relaxing)
 *fill*         0x000311ef        0x1 
 .rodata.m_procedure_steps
                0x000311f0       0x28 mesh/core/libmesh_core_nrf52832_xxAA.a(flash_manager_defrag.c.obj)
 .rodata.Rb.7341
                0x00031218       0x10 mesh/core/libmesh_core_nrf52832_xxAA.a(aes_cmac.c.obj)
 .rodata._DoInit.str1.1
                0x00031228       0x14 external/rtt/librtt_nrf52832_xxAA.a(SEGGER_RTT.c.obj)
 .rodata._aV2C.5497
                0x0003123c       0x10 external/rtt/librtt_nrf52832_xxAA.a(SEGGER_RTT_printf.c.obj)
 .rodata.curve_secp256r1
                0x0003124c       0xb0 external/micro-ecc/libuECC_nrf52832_xxAA.a(uECC.c.obj)
 .rodata._global_impure_ptr
                0x000312fc        0x4 c:/a/gcc_arm/6/bin/../lib/gcc/arm-none-eabi/6.3.1/../../../../arm-none-eabi/lib/thumb/v7e-m/fpv4-sp/hard\libc_nano.a(lib_a-impure.o)
                0x000312fc                _global_impure_ptr
 *(.eh_frame*)
 .eh_frame      0x00031300        0x0 c:/a/gcc_arm/6/bin/../lib/gcc/arm-none-eabi/6.3.1/thumb/v7e-m/fpv4-sp/hard/crtbegin.o
 .eh_frame      0x00031300        0x4 c:/a/gcc_arm/6/bin/../lib/gcc/arm-none-eabi/6.3.1/thumb/v7e-m/fpv4-sp/hard/crtend.o

.glue_7         0x00031304        0x0
 .glue_7        0x00031304        0x0 linker stubs

.glue_7t        0x00031304        0x0
 .glue_7t       0x00031304        0x0 linker stubs

.vfp11_veneer   0x00031304        0x0
 .vfp11_veneer  0x00031304        0x0 linker stubs

.v4_bx          0x00031304        0x0
 .v4_bx         0x00031304        0x0 linker stubs

.iplt           0x00031304        0x0
 .iplt          0x00031304        0x0 c:/a/gcc_arm/6/bin/../lib/gcc/arm-none-eabi/6.3.1/thumb/v7e-m/fpv4-sp/hard/crtbegin.o

.ARM.extab
 *(.ARM.extab* .gnu.linkonce.armextab.*)
                0x00031304                __exidx_start = .

.ARM.exidx      0x00031304        0x8
 *(.ARM.exidx* .gnu.linkonce.armexidx.*)
 .ARM.exidx     0x00031304        0x8 c:/a/gcc_arm/6/bin/../lib/gcc/arm-none-eabi/6.3.1/../../../../arm-none-eabi/lib/thumb/v7e-m/fpv4-sp/hard/crt0.o
                0x0003130c                __exidx_end = .
                0x0003130c                __etext = .

.rel.dyn        0x0003130c        0x0
 .rel.iplt      0x0003130c        0x0 c:/a/gcc_arm/6/bin/../lib/gcc/arm-none-eabi/6.3.1/thumb/v7e-m/fpv4-sp/hard/crtbegin.o

.data           0x200019c0      0x108 load address 0x0003130c
                0x200019c0                __data_start__ = .
 *(vtable)
 *(.data*)
 .data.rom_base
                0x200019c0        0x4 examples/dfu/CMakeFiles/dfu_nrf52832_xxAA_s132_3.1.0.dir/src/main.c.obj
                0x200019c0                rom_base
 .data.rom_end  0x200019c4        0x4 examples/dfu/CMakeFiles/dfu_nrf52832_xxAA_s132_3.1.0.dir/src/main.c.obj
                0x200019c4                rom_end
 .data.flash_clear_mem_available_struct.10322
                0x200019c8       0x10 examples/dfu/CMakeFiles/dfu_nrf52832_xxAA_s132_3.1.0.dir/__/__/mesh/access/src/access.c.obj
 .data.flash_store_mem_available_struct.10346
                0x200019d8       0x10 examples/dfu/CMakeFiles/dfu_nrf52832_xxAA_s132_3.1.0.dir/__/__/mesh/access/src/access.c.obj
 .data.mem_listener.10485
                0x200019e8       0x10 examples/dfu/CMakeFiles/dfu_nrf52832_xxAA_s132_3.1.0.dir/__/__/mesh/access/src/device_state_manager.c.obj
 .data.m_unprov_report
                0x200019f8        0x1 examples/dfu/CMakeFiles/dfu_nrf52832_xxAA_s132_3.1.0.dir/__/__/mesh/prov/src/prov_beacon.c.obj
 *fill*         0x200019f9        0x3 
 .data.m_async_process_flag
                0x200019fc        0x4 examples/dfu/CMakeFiles/dfu_nrf52832_xxAA_s132_3.1.0.dir/__/__/mesh/prov/src/prov_bearer_adv.c.obj
 .data.SystemCoreClock
                0x20001a00        0x4 examples/dfu/CMakeFiles/dfu_nrf52832_xxAA_s132_3.1.0.dir/__/__/external/nRF5_SDK_14.0.0_3bcc1f7/components/toolchain/system_nrf52.c.obj
                0x20001a00                SystemCoreClock
 .data.mem_listener.9705
                0x20001a04       0x10 mesh/core/libmesh_core_nrf52832_xxAA.a(net_state.c.obj)
 .data.mem_listener.9710
                0x20001a14       0x10 mesh/core/libmesh_core_nrf52832_xxAA.a(net_state.c.obj)
 .data.mem_listener.9724
                0x20001a24       0x10 mesh/core/libmesh_core_nrf52832_xxAA.a(net_state.c.obj)
 .data.mem_listener.9741
                0x20001a34       0x10 mesh/core/libmesh_core_nrf52832_xxAA.a(net_state.c.obj)
 .data.g_log_debug_level
                0x20001a44        0x4 mesh/core/libmesh_core_nrf52832_xxAA.a(log.c.obj)
                0x20001a44                g_log_debug_level
 .data.g_log_debug_msk
                0x20001a48        0x4 mesh/core/libmesh_core_nrf52832_xxAA.a(log.c.obj)
                0x20001a48                g_log_debug_msk
 .data.g_log_hex_digits
                0x20001a4c        0x4 mesh/core/libmesh_core_nrf52832_xxAA.a(log.c.obj)
                0x20001a4c                g_log_hex_digits
 .data.m_log_callback
                0x20001a50        0x4 mesh/core/libmesh_core_nrf52832_xxAA.a(log.c.obj)
                0x20001a50                m_log_callback
 .data.g_rng_function
                0x20001a54        0x4 external/micro-ecc/libuECC_nrf52832_xxAA.a(uECC.c.obj)
 .data._impure_ptr
                0x20001a58        0x4 c:/a/gcc_arm/6/bin/../lib/gcc/arm-none-eabi/6.3.1/../../../../arm-none-eabi/lib/thumb/v7e-m/fpv4-sp/hard\libc_nano.a(lib_a-impure.o)
                0x20001a58                _impure_ptr
 .data.impure_data
                0x20001a5c       0x60 c:/a/gcc_arm/6/bin/../lib/gcc/arm-none-eabi/6.3.1/../../../../arm-none-eabi/lib/thumb/v7e-m/fpv4-sp/hard\libc_nano.a(lib_a-impure.o)
                0x20001abc                . = ALIGN (0x4)
                0x20001abc                PROVIDE (__preinit_array_start, .)
 *(.preinit_array)
                0x20001abc                PROVIDE (__preinit_array_end, .)
                0x20001abc                . = ALIGN (0x4)
                0x20001abc                PROVIDE (__init_array_start, .)
 *(SORT(.init_array.*))
 *(.init_array)
 .init_array    0x20001abc        0x4 c:/a/gcc_arm/6/bin/../lib/gcc/arm-none-eabi/6.3.1/thumb/v7e-m/fpv4-sp/hard/crtbegin.o
                0x20001ac0                PROVIDE (__init_array_end, .)
                0x20001ac0                . = ALIGN (0x4)
                [!provide]                PROVIDE (__fini_array_start, .)
 *(SORT(.fini_array.*))
 *(.fini_array)
 .fini_array    0x20001ac0        0x4 c:/a/gcc_arm/6/bin/../lib/gcc/arm-none-eabi/6.3.1/thumb/v7e-m/fpv4-sp/hard/crtbegin.o
                [!provide]                PROVIDE (__fini_array_end, .)
 *(.jcr*)
 .jcr           0x20001ac4        0x0 c:/a/gcc_arm/6/bin/../lib/gcc/arm-none-eabi/6.3.1/thumb/v7e-m/fpv4-sp/hard/crtbegin.o
 .jcr           0x20001ac4        0x4 c:/a/gcc_arm/6/bin/../lib/gcc/arm-none-eabi/6.3.1/thumb/v7e-m/fpv4-sp/hard/crtend.o
                0x20001ac8                . = ALIGN (0x4)
                0x20001ac8                __data_end__ = .

.igot.plt       0x20001ac8        0x0 load address 0x00031414
 .igot.plt      0x20001ac8        0x0 c:/a/gcc_arm/6/bin/../lib/gcc/arm-none-eabi/6.3.1/thumb/v7e-m/fpv4-sp/hard/crtbegin.o

.bss            0x20001ac8     0x38c4 load address 0x00031418
                0x20001ac8                . = ALIGN (0x4)
                0x20001ac8                __bss_start__ = .
 *(.bss*)
 .bss           0x20001ac8       0x1c c:/a/gcc_arm/6/bin/../lib/gcc/arm-none-eabi/6.3.1/thumb/v7e-m/fpv4-sp/hard/crtbegin.o
 .bss.m_evt_handler
                0x20001ae4        0x8 examples/dfu/CMakeFiles/dfu_nrf52832_xxAA_s132_3.1.0.dir/src/main.c.obj
 .bss.m_ble_evt_buffer
                0x20001aec       0x4f examples/dfu/CMakeFiles/dfu_nrf52832_xxAA_s132_3.1.0.dir/__/nrf_mesh_sdk.c.obj
 *fill*         0x20001b3b        0x1 
 .bss.m_publish_timer
                0x20001b3c       0x18 examples/dfu/CMakeFiles/dfu_nrf52832_xxAA_s132_3.1.0.dir/__/__/mesh/access/src/access_publish.c.obj
 .bss.m_publish_timer_counter
                0x20001b54        0x4 examples/dfu/CMakeFiles/dfu_nrf52832_xxAA_s132_3.1.0.dir/__/__/mesh/access/src/access_publish.c.obj
 .bss.m_publish_timer_running
                0x20001b58        0x1 examples/dfu/CMakeFiles/dfu_nrf52832_xxAA_s132_3.1.0.dir/__/__/mesh/access/src/access_publish.c.obj
 .bss.m_timer_resolution
                0x20001b59        0x1 examples/dfu/CMakeFiles/dfu_nrf52832_xxAA_s132_3.1.0.dir/__/__/mesh/access/src/access_publish.c.obj
 *fill*         0x20001b5a        0x2 
 .bss.mp_publication_list
                0x20001b5c        0x4 examples/dfu/CMakeFiles/dfu_nrf52832_xxAA_s132_3.1.0.dir/__/__/mesh/access/src/access_publish.c.obj
 .bss.m_element_pool
                0x20001b60        0x6 examples/dfu/CMakeFiles/dfu_nrf52832_xxAA_s132_3.1.0.dir/__/__/mesh/access/src/access.c.obj
 *fill*         0x20001b66        0x2 
 .bss.m_flash_manager
                0x20001b68       0x24 examples/dfu/CMakeFiles/dfu_nrf52832_xxAA_s132_3.1.0.dir/__/__/mesh/access/src/access.c.obj
 .bss.m_flash_not_ready
                0x20001b8c        0x1 examples/dfu/CMakeFiles/dfu_nrf52832_xxAA_s132_3.1.0.dir/__/__/mesh/access/src/access.c.obj
 .bss.m_metadata_stored
                0x20001b8d        0x1 examples/dfu/CMakeFiles/dfu_nrf52832_xxAA_s132_3.1.0.dir/__/__/mesh/access/src/access.c.obj
 *fill*         0x20001b8e        0x2 
 .bss.m_model_pool
                0x20001b90       0x68 examples/dfu/CMakeFiles/dfu_nrf52832_xxAA_s132_3.1.0.dir/__/__/mesh/access/src/access.c.obj
 .bss.m_subscription_list_pool
                0x20001bf8       0x10 examples/dfu/CMakeFiles/dfu_nrf52832_xxAA_s132_3.1.0.dir/__/__/mesh/access/src/access.c.obj
 .bss.m_reliable
                0x20001c08       0x6c examples/dfu/CMakeFiles/dfu_nrf52832_xxAA_s132_3.1.0.dir/__/__/mesh/access/src/access_reliable.c.obj
 .bss.m_addr_nonvirtual_allocated
                0x20001c74        0x4 examples/dfu/CMakeFiles/dfu_nrf52832_xxAA_s132_3.1.0.dir/__/__/mesh/access/src/device_state_manager.c.obj
 .bss.m_addr_nonvirtual_needs_flashing
                0x20001c78        0x4 examples/dfu/CMakeFiles/dfu_nrf52832_xxAA_s132_3.1.0.dir/__/__/mesh/access/src/device_state_manager.c.obj
 .bss.m_addr_unicast_allocated
                0x20001c7c        0x4 examples/dfu/CMakeFiles/dfu_nrf52832_xxAA_s132_3.1.0.dir/__/__/mesh/access/src/device_state_manager.c.obj
 .bss.m_addr_unicast_needs_flashing
                0x20001c80        0x4 examples/dfu/CMakeFiles/dfu_nrf52832_xxAA_s132_3.1.0.dir/__/__/mesh/access/src/device_state_manager.c.obj
 .bss.m_addr_virtual_allocated
                0x20001c84        0x4 examples/dfu/CMakeFiles/dfu_nrf52832_xxAA_s132_3.1.0.dir/__/__/mesh/access/src/device_state_manager.c.obj
 .bss.m_addr_virtual_needs_flashing
                0x20001c88        0x4 examples/dfu/CMakeFiles/dfu_nrf52832_xxAA_s132_3.1.0.dir/__/__/mesh/access/src/device_state_manager.c.obj
 .bss.m_addresses
                0x20001c8c       0x40 examples/dfu/CMakeFiles/dfu_nrf52832_xxAA_s132_3.1.0.dir/__/__/mesh/access/src/device_state_manager.c.obj
 .bss.m_appkey_allocated
                0x20001ccc        0x4 examples/dfu/CMakeFiles/dfu_nrf52832_xxAA_s132_3.1.0.dir/__/__/mesh/access/src/device_state_manager.c.obj
 .bss.m_appkey_needs_flashing
                0x20001cd0        0x4 examples/dfu/CMakeFiles/dfu_nrf52832_xxAA_s132_3.1.0.dir/__/__/mesh/access/src/device_state_manager.c.obj
 .bss.m_appkeys
                0x20001cd4       0xb0 examples/dfu/CMakeFiles/dfu_nrf52832_xxAA_s132_3.1.0.dir/__/__/mesh/access/src/device_state_manager.c.obj
 .bss.m_devkey_allocated
                0x20001d84        0x4 examples/dfu/CMakeFiles/dfu_nrf52832_xxAA_s132_3.1.0.dir/__/__/mesh/access/src/device_state_manager.c.obj
 .bss.m_devkey_needs_flashing
                0x20001d88        0x4 examples/dfu/CMakeFiles/dfu_nrf52832_xxAA_s132_3.1.0.dir/__/__/mesh/access/src/device_state_manager.c.obj
 .bss.m_devkeys
                0x20001d8c       0x16 examples/dfu/CMakeFiles/dfu_nrf52832_xxAA_s132_3.1.0.dir/__/__/mesh/access/src/device_state_manager.c.obj
 .bss.m_flash_is_available
                0x20001da2        0x1 examples/dfu/CMakeFiles/dfu_nrf52832_xxAA_s132_3.1.0.dir/__/__/mesh/access/src/device_state_manager.c.obj
 *fill*         0x20001da3        0x1 
 .bss.m_flash_manager
                0x20001da4       0x24 examples/dfu/CMakeFiles/dfu_nrf52832_xxAA_s132_3.1.0.dir/__/__/mesh/access/src/device_state_manager.c.obj
 .bss.m_flash_mem_listener_update_all
                0x20001dc8       0x10 examples/dfu/CMakeFiles/dfu_nrf52832_xxAA_s132_3.1.0.dir/__/__/mesh/access/src/device_state_manager.c.obj
 .bss.m_has_primary_subnet
                0x20001dd8        0x1 examples/dfu/CMakeFiles/dfu_nrf52832_xxAA_s132_3.1.0.dir/__/__/mesh/access/src/device_state_manager.c.obj
 *fill*         0x20001dd9        0x1 
 .bss.m_local_unicast_addr
                0x20001dda        0x4 examples/dfu/CMakeFiles/dfu_nrf52832_xxAA_s132_3.1.0.dir/__/__/mesh/access/src/device_state_manager.c.obj
 *fill*         0x20001dde        0x2 
 .bss.m_subnet_allocated
                0x20001de0        0x4 examples/dfu/CMakeFiles/dfu_nrf52832_xxAA_s132_3.1.0.dir/__/__/mesh/access/src/device_state_manager.c.obj
 .bss.m_subnet_needs_flashing
                0x20001de4        0x4 examples/dfu/CMakeFiles/dfu_nrf52832_xxAA_s132_3.1.0.dir/__/__/mesh/access/src/device_state_manager.c.obj
 .bss.m_subnets
                0x20001de8      0x170 examples/dfu/CMakeFiles/dfu_nrf52832_xxAA_s132_3.1.0.dir/__/__/mesh/access/src/device_state_manager.c.obj
 .bss.m_virtual_addresses
                0x20001f58       0xa0 examples/dfu/CMakeFiles/dfu_nrf52832_xxAA_s132_3.1.0.dir/__/__/mesh/access/src/device_state_manager.c.obj
 .bss.m_can_receive
                0x20001ff8        0x1 examples/dfu/CMakeFiles/dfu_nrf52832_xxAA_s132_3.1.0.dir/__/__/mesh/serial/src/serial_uart.c.obj
 *fill*         0x20001ff9        0x3 
 .bss.m_char_rx_cb
                0x20001ffc        0x4 examples/dfu/CMakeFiles/dfu_nrf52832_xxAA_s132_3.1.0.dir/__/__/mesh/serial/src/serial_uart.c.obj
 .bss.m_char_tx_cb
                0x20002000        0x4 examples/dfu/CMakeFiles/dfu_nrf52832_xxAA_s132_3.1.0.dir/__/__/mesh/serial/src/serial_uart.c.obj
 .bss.m_cur_tx_packet_index
                0x20002004        0x2 examples/dfu/CMakeFiles/dfu_nrf52832_xxAA_s132_3.1.0.dir/__/__/mesh/serial/src/serial_bearer.c.obj
 *fill*         0x20002006        0x2 
 .bss.m_event_flag
                0x20002008        0x4 examples/dfu/CMakeFiles/dfu_nrf52832_xxAA_s132_3.1.0.dir/__/__/mesh/serial/src/serial_bearer.c.obj
 .bss.m_rx_buffer
                0x2000200c       0xd0 examples/dfu/CMakeFiles/dfu_nrf52832_xxAA_s132_3.1.0.dir/__/__/mesh/serial/src/serial_bearer.c.obj
 .bss.m_rx_packet_buf
                0x200020dc        0xc examples/dfu/CMakeFiles/dfu_nrf52832_xxAA_s132_3.1.0.dir/__/__/mesh/serial/src/serial_bearer.c.obj
 .bss.m_serial_state
                0x200020e8        0x1 examples/dfu/CMakeFiles/dfu_nrf52832_xxAA_s132_3.1.0.dir/__/__/mesh/serial/src/serial_bearer.c.obj
 *fill*         0x200020e9        0x1 
 .bss.m_stored_pac_len
                0x200020ea        0x2 examples/dfu/CMakeFiles/dfu_nrf52832_xxAA_s132_3.1.0.dir/__/__/mesh/serial/src/serial_bearer.c.obj
 .bss.m_tx_buffer
                0x200020ec       0xd0 examples/dfu/CMakeFiles/dfu_nrf52832_xxAA_s132_3.1.0.dir/__/__/mesh/serial/src/serial_bearer.c.obj
 .bss.m_tx_packet_buf
                0x200021bc        0xc examples/dfu/CMakeFiles/dfu_nrf52832_xxAA_s132_3.1.0.dir/__/__/mesh/serial/src/serial_bearer.c.obj
 .bss.mp_current_rx_packet
                0x200021c8        0x4 examples/dfu/CMakeFiles/dfu_nrf52832_xxAA_s132_3.1.0.dir/__/__/mesh/serial/src/serial_bearer.c.obj
 .bss.mp_current_tx_packet
                0x200021cc        0x4 examples/dfu/CMakeFiles/dfu_nrf52832_xxAA_s132_3.1.0.dir/__/__/mesh/serial/src/serial_bearer.c.obj
 .bss.rx_index.10752
                0x200021d0        0x2 examples/dfu/CMakeFiles/dfu_nrf52832_xxAA_s132_3.1.0.dir/__/__/mesh/serial/src/serial_bearer.c.obj
 .bss.m_cmd_handler_scheduled
                0x200021d2        0x1 examples/dfu/CMakeFiles/dfu_nrf52832_xxAA_s132_3.1.0.dir/__/__/mesh/serial/src/serial.c.obj
 .bss.m_state   0x200021d3        0x1 examples/dfu/CMakeFiles/dfu_nrf52832_xxAA_s132_3.1.0.dir/__/__/mesh/serial/src/serial.c.obj
 .bss.m_mesh_evt_handler
                0x200021d4        0x8 examples/dfu/CMakeFiles/dfu_nrf52832_xxAA_s132_3.1.0.dir/__/__/mesh/serial/src/serial_handler_prov.c.obj
 .bss.m_private_key
                0x200021dc       0x20 examples/dfu/CMakeFiles/dfu_nrf52832_xxAA_s132_3.1.0.dir/__/__/mesh/serial/src/serial_handler_prov.c.obj
 .bss.m_prov_contexts
                0x200021fc      0x5f8 examples/dfu/CMakeFiles/dfu_nrf52832_xxAA_s132_3.1.0.dir/__/__/mesh/serial/src/serial_handler_prov.c.obj
 .bss.m_provisioning_caps
                0x200027f4        0xb examples/dfu/CMakeFiles/dfu_nrf52832_xxAA_s132_3.1.0.dir/__/__/mesh/serial/src/serial_handler_prov.c.obj
 .bss.m_public_key
                0x200027ff       0x40 examples/dfu/CMakeFiles/dfu_nrf52832_xxAA_s132_3.1.0.dir/__/__/mesh/serial/src/serial_handler_prov.c.obj
 .bss.m_scanning_running
                0x2000283f        0x1 examples/dfu/CMakeFiles/dfu_nrf52832_xxAA_s132_3.1.0.dir/__/__/mesh/serial/src/serial_handler_prov.c.obj
 .bss.m_evt_handler
                0x20002840        0x8 examples/dfu/CMakeFiles/dfu_nrf52832_xxAA_s132_3.1.0.dir/__/__/mesh/serial/src/serial_handler_dfu.c.obj
 .bss.m_evt_handler
                0x20002848        0x8 examples/dfu/CMakeFiles/dfu_nrf52832_xxAA_s132_3.1.0.dir/__/__/mesh/serial/src/serial_handler_mesh.c.obj
 .bss.p_serial_evt.10984
                0x20002850        0x4 examples/dfu/CMakeFiles/dfu_nrf52832_xxAA_s132_3.1.0.dir/__/__/mesh/serial/src/serial_handler_mesh.c.obj
 .bss.m_models_list
                0x20002854       0x18 examples/dfu/CMakeFiles/dfu_nrf52832_xxAA_s132_3.1.0.dir/__/__/mesh/serial/src/serial_handler_models.c.obj
 .bss.m_beacons
                0x2000286c      0x134 examples/dfu/CMakeFiles/dfu_nrf52832_xxAA_s132_3.1.0.dir/__/__/mesh/serial/src/serial_handler_device.c.obj
 .bss.m_app_rx_cb
                0x200029a0        0x4 examples/dfu/CMakeFiles/dfu_nrf52832_xxAA_s132_3.1.0.dir/__/__/mesh/serial/src/serial_handler_app.c.obj
 .bss.m_offload_ecdh
                0x200029a4        0x1 examples/dfu/CMakeFiles/dfu_nrf52832_xxAA_s132_3.1.0.dir/__/__/mesh/prov/src/prov_utils.c.obj
 *fill*         0x200029a5        0x3 
 .bss.mp_bearer_head
                0x200029a8        0x4 examples/dfu/CMakeFiles/dfu_nrf52832_xxAA_s132_3.1.0.dir/__/__/mesh/prov/src/prov_bearer_adv.c.obj
 .bss.m_adv_packet
                0x200029ac       0x28 examples/dfu/CMakeFiles/dfu_nrf52832_xxAA_s132_3.1.0.dir/__/__/mesh/dfu/src/nrf_mesh_dfu.c.obj
 .bss.m_broadcast
                0x200029d4       0x34 examples/dfu/CMakeFiles/dfu_nrf52832_xxAA_s132_3.1.0.dir/__/__/mesh/dfu/src/nrf_mesh_dfu.c.obj
 .bss.m_prng    0x20002a08       0x10 examples/dfu/CMakeFiles/dfu_nrf52832_xxAA_s132_3.1.0.dir/__/__/mesh/dfu/src/nrf_mesh_dfu.c.obj
 .bss.m_timer_evt
                0x20002a18       0x18 examples/dfu/CMakeFiles/dfu_nrf52832_xxAA_s132_3.1.0.dir/__/__/mesh/dfu/src/nrf_mesh_dfu.c.obj
 .bss.m_transfer_state
                0x20002a30       0x12 examples/dfu/CMakeFiles/dfu_nrf52832_xxAA_s132_3.1.0.dir/__/__/mesh/dfu/src/nrf_mesh_dfu.c.obj
 *fill*         0x20002a42        0x2 
 .bss.m_tx_slots
                0x20002a44      0x120 examples/dfu/CMakeFiles/dfu_nrf52832_xxAA_s132_3.1.0.dir/__/__/mesh/dfu/src/nrf_mesh_dfu.c.obj
 .bss.m_tx_timer_evt
                0x20002b64       0x18 examples/dfu/CMakeFiles/dfu_nrf52832_xxAA_s132_3.1.0.dir/__/__/mesh/dfu/src/nrf_mesh_dfu.c.obj
 .bss.mp_curr_fwid
                0x20002b7c        0x4 examples/dfu/CMakeFiles/dfu_nrf52832_xxAA_s132_3.1.0.dir/__/__/mesh/dfu/src/nrf_mesh_dfu.c.obj
 .bss.m_internal_event_fifo
                0x20002b80       0x14 mesh/core/libmesh_core_nrf52832_xxAA.a(internal_event.c.obj)
 .bss.m_internal_event_fifo_buffer
                0x20002b94      0x100 mesh/core/libmesh_core_nrf52832_xxAA.a(internal_event.c.obj)
 .bss.m_internal_event_initialized
                0x20002c94        0x1 mesh/core/libmesh_core_nrf52832_xxAA.a(internal_event.c.obj)
 *fill*         0x20002c95        0x3 
 .bss.m_report_cb
                0x20002c98        0x4 mesh/core/libmesh_core_nrf52832_xxAA.a(internal_event.c.obj)
 .bss.m_uuid    0x20002c9c       0x10 mesh/core/libmesh_core_nrf52832_xxAA.a(nrf_mesh_configure.c.obj)
 .bss.mp_evt_handlers_head
                0x20002cac        0x4 mesh/core/libmesh_core_nrf52832_xxAA.a(event.c.obj)
 .bss.lock_count.9764
                0x20002cb0        0x4 mesh/core/libmesh_core_nrf52832_xxAA.a(net_state.c.obj)
 .bss.m_flash_manager
                0x20002cb4       0x24 mesh/core/libmesh_core_nrf52832_xxAA.a(net_state.c.obj)
 .bss.m_iv_update_timer
                0x20002cd8       0x18 mesh/core/libmesh_core_nrf52832_xxAA.a(net_state.c.obj)
 .bss.m_net_state
                0x20002cf0       0x14 mesh/core/libmesh_core_nrf52832_xxAA.a(net_state.c.obj)
 .bss.m_seqnum_allocation_in_progress
                0x20002d04        0x1 mesh/core/libmesh_core_nrf52832_xxAA.a(net_state.c.obj)
 .bss.m_test_mode
                0x20002d05        0x1 mesh/core/libmesh_core_nrf52832_xxAA.a(net_state.c.obj)
 *fill*         0x20002d06        0x2 
 .bss.m_event_flag
                0x20002d08        0x4 mesh/core/libmesh_core_nrf52832_xxAA.a(mesh_flash.c.obj)
 .bss.m_suspended
                0x20002d0c        0x1 mesh/core/libmesh_core_nrf52832_xxAA.a(mesh_flash.c.obj)
 *fill*         0x20002d0d        0x3 
 .bss.m_users   0x20002d10      0x228 mesh/core/libmesh_core_nrf52832_xxAA.a(mesh_flash.c.obj)
 .bss.suspend_count.9861
                0x20002f38        0x4 mesh/core/libmesh_core_nrf52832_xxAA.a(mesh_flash.c.obj)
 .bss.m_is_enabled
                0x20002f3c        0x1 mesh/core/libmesh_core_nrf52832_xxAA.a(nrf_mesh.c.obj)
 .bss.m_is_initialized
                0x20002f3d        0x1 mesh/core/libmesh_core_nrf52832_xxAA.a(nrf_mesh.c.obj)
 *fill*         0x20002f3e        0x2 
 .bss.m_rx_cb   0x20002f40        0x4 mesh/core/libmesh_core_nrf52832_xxAA.a(nrf_mesh.c.obj)
 .bss.m_event_flag
                0x20002f44        0x4 mesh/core/libmesh_core_nrf52832_xxAA.a(timer_scheduler.c.obj)
 .bss.m_scheduler
                0x20002f48       0x10 mesh/core/libmesh_core_nrf52832_xxAA.a(timer_scheduler.c.obj)
 .bss.m_attributes
                0x20002f58        0x3 mesh/core/libmesh_core_nrf52832_xxAA.a(timer.c.obj)
 *fill*         0x20002f5b        0x1 
 .bss.m_callbacks
                0x20002f5c        0xc mesh/core/libmesh_core_nrf52832_xxAA.a(timer.c.obj)
 .bss.m_is_in_ts
                0x20002f68        0x1 mesh/core/libmesh_core_nrf52832_xxAA.a(timer.c.obj)
 *fill*         0x20002f69        0x3 
 .bss.m_reference_time
                0x20002f6c        0x4 mesh/core/libmesh_core_nrf52832_xxAA.a(timer.c.obj)
 .bss.m_timeouts
                0x20002f70        0xc mesh/core/libmesh_core_nrf52832_xxAA.a(timer.c.obj)
 .bss.m_timer_mut
                0x20002f7c        0x4 mesh/core/libmesh_core_nrf52832_xxAA.a(timer.c.obj)
 .bss.m_ts_end_time
                0x20002f80        0x4 mesh/core/libmesh_core_nrf52832_xxAA.a(timer.c.obj)
 .bss.mp_ppi_tasks
                0x20002f84        0xc mesh/core/libmesh_core_nrf52832_xxAA.a(timer.c.obj)
 .bss.m_current_time
                0x20002f90        0x4 mesh/core/libmesh_core_nrf52832_xxAA.a(ticker.c.obj)
 .bss.m_timer   0x20002f94       0x18 mesh/core/libmesh_core_nrf52832_xxAA.a(ticker.c.obj)
 .bss.m_current_timeslot
                0x20002fac       0x1c mesh/core/libmesh_core_nrf52832_xxAA.a(timeslot.c.obj)
 .bss.m_lfclk_ppm
                0x20002fc8        0x4 mesh/core/libmesh_core_nrf52832_xxAA.a(timeslot.c.obj)
 .bss.m_radio_request_earliest
                0x20002fcc       0x10 mesh/core/libmesh_core_nrf52832_xxAA.a(timeslot.c.obj)
 .bss.m_state_lock
                0x20002fdc        0x1 mesh/core/libmesh_core_nrf52832_xxAA.a(timeslot.c.obj)
 .bss.m_timeslot_forced_command
                0x20002fdd        0x1 mesh/core/libmesh_core_nrf52832_xxAA.a(timeslot.c.obj)
 *fill*         0x20002fde        0x2 
 .bss.s_last_rtc_value.9029
                0x20002fe0        0x8 mesh/core/libmesh_core_nrf52832_xxAA.a(timeslot.c.obj)
 .bss.m_bearer_event_fifo
                0x20002fe8       0x14 mesh/core/libmesh_core_nrf52832_xxAA.a(bearer_event.c.obj)
 .bss.m_bearer_event_fifo_buffer
                0x20002ffc      0x100 mesh/core/libmesh_core_nrf52832_xxAA.a(bearer_event.c.obj)
 .bss.m_critical
                0x200030fc        0x4 mesh/core/libmesh_core_nrf52832_xxAA.a(bearer_event.c.obj)
 .bss.m_flag_count
                0x20003100        0x4 mesh/core/libmesh_core_nrf52832_xxAA.a(bearer_event.c.obj)
 .bss.m_flag_event_callbacks
                0x20003104       0x18 mesh/core/libmesh_core_nrf52832_xxAA.a(bearer_event.c.obj)
 .bss.m_flags   0x2000311c        0x4 mesh/core/libmesh_core_nrf52832_xxAA.a(bearer_event.c.obj)
 .bss.m_sequential_event_queue
                0x20003120        0x8 mesh/core/libmesh_core_nrf52832_xxAA.a(bearer_event.c.obj)
 .bss.m_relay_check_cb
                0x20003128        0x4 mesh/core/libmesh_core_nrf52832_xxAA.a(network.c.obj)
 .bss.m_relay_enable
                0x2000312c        0x1 mesh/core/libmesh_core_nrf52832_xxAA.a(network.c.obj)
 *fill*         0x2000312d        0x3 
 .bss.m_action_queue
                0x20003130        0xc mesh/core/libmesh_core_nrf52832_xxAA.a(flash_manager.c.obj)
 .bss.m_action_queue_buffer
                0x2000313c      0x104 mesh/core/libmesh_core_nrf52832_xxAA.a(flash_manager.c.obj)
 .bss.m_action_state
                0x20003240        0x1 mesh/core/libmesh_core_nrf52832_xxAA.a(flash_manager.c.obj)
 *fill*         0x20003241        0x3 
 .bss.m_memory_listener_queue
                0x20003244        0x8 mesh/core/libmesh_core_nrf52832_xxAA.a(flash_manager.c.obj)
 .bss.m_processing_flag
                0x2000324c        0x4 mesh/core/libmesh_core_nrf52832_xxAA.a(flash_manager.c.obj)
 .bss.m_state   0x20003250        0x1 mesh/core/libmesh_core_nrf52832_xxAA.a(flash_manager.c.obj)
 *fill*         0x20003251        0x1 
 .bss.m_token   0x20003252        0x2 mesh/core/libmesh_core_nrf52832_xxAA.a(flash_manager.c.obj)
 .bss.p_current.10881
                0x20003254        0x4 mesh/core/libmesh_core_nrf52832_xxAA.a(flash_manager.c.obj)
 .bss.result.10882
                0x20003258        0x1 mesh/core/libmesh_core_nrf52832_xxAA.a(flash_manager.c.obj)
 *fill*         0x20003259        0x3 
 .bss.m_adv_buffer
                0x2000325c       0x68 mesh/core/libmesh_core_nrf52832_xxAA.a(beacon.c.obj)
 .bss.m_advertiser
                0x200032c4       0x94 mesh/core/libmesh_core_nrf52832_xxAA.a(beacon.c.obj)
 .bss.m_adv_tx_count
                0x20003358        0x8 mesh/core/libmesh_core_nrf52832_xxAA.a(core_tx.c.obj)
 .bss.m_advertisers
                0x20003360      0x128 mesh/core/libmesh_core_nrf52832_xxAA.a(core_tx.c.obj)
 .bss.m_originator_adv_packet_buffer
                0x20003488      0x100 mesh/core/libmesh_core_nrf52832_xxAA.a(core_tx.c.obj)
 .bss.m_relay_adv_packet_buffer
                0x20003588       0x80 mesh/core/libmesh_core_nrf52832_xxAA.a(core_tx.c.obj)
 .bss.m_tx_complete_callback
                0x20003608        0x4 mesh/core/libmesh_core_nrf52832_xxAA.a(core_tx.c.obj)
 .bss.m_beacon_salt
                0x2000360c       0x10 mesh/core/libmesh_core_nrf52832_xxAA.a(net_beacon.c.obj)
 .bss.m_enabled
                0x2000361c        0x1 mesh/core/libmesh_core_nrf52832_xxAA.a(net_beacon.c.obj)
 *fill*         0x2000361d        0x3 
 .bss.m_tx_event
                0x20003620       0x18 mesh/core/libmesh_core_nrf52832_xxAA.a(net_beacon.c.obj)
 .bss.m_adv_prng
                0x20003638       0x10 mesh/core/libmesh_core_nrf52832_xxAA.a(advertiser.c.obj)
 .bss.m_action_queue
                0x20003648        0x8 mesh/core/libmesh_core_nrf52832_xxAA.a(bearer_handler.c.obj)
 .bss.m_end_time
                0x20003650        0x4 mesh/core/libmesh_core_nrf52832_xxAA.a(bearer_handler.c.obj)
 .bss.m_scanner_is_active
                0x20003654        0x1 mesh/core/libmesh_core_nrf52832_xxAA.a(bearer_handler.c.obj)
 .bss.m_stopped
                0x20003655        0x1 mesh/core/libmesh_core_nrf52832_xxAA.a(bearer_handler.c.obj)
 *fill*         0x20003656        0x2 
 .bss.mp_action
                0x20003658        0x4 mesh/core/libmesh_core_nrf52832_xxAA.a(bearer_handler.c.obj)
 .bss.m_next_channel_index
                0x2000365c        0x1 mesh/core/libmesh_core_nrf52832_xxAA.a(broadcast.c.obj)
 *fill*         0x2000365d        0x3 
 .bss.m_scanner
                0x20003660      0x284 mesh/core/libmesh_core_nrf52832_xxAA.a(scanner.c.obj)
 .bss.m_msg_cache
                0x200038e4      0x100 mesh/core/libmesh_core_nrf52832_xxAA.a(msg_cache.c.obj)
 .bss.m_msg_cache_head
                0x200039e4        0x4 mesh/core/libmesh_core_nrf52832_xxAA.a(msg_cache.c.obj)
 .bss.m_sar_alloc
                0x200039e8        0x4 mesh/core/libmesh_core_nrf52832_xxAA.a(transport.c.obj)
 .bss.m_sar_process_flag
                0x200039ec        0x4 mesh/core/libmesh_core_nrf52832_xxAA.a(transport.c.obj)
 .bss.m_sar_release
                0x200039f0        0x4 mesh/core/libmesh_core_nrf52832_xxAA.a(transport.c.obj)
 .bss.m_sar_session_cache
                0x200039f4       0x40 mesh/core/libmesh_core_nrf52832_xxAA.a(transport.c.obj)
 .bss.m_sar_session_cache_head
                0x20003a34        0x4 mesh/core/libmesh_core_nrf52832_xxAA.a(transport.c.obj)
 .bss.m_trs_config
                0x20003a38       0x18 mesh/core/libmesh_core_nrf52832_xxAA.a(transport.c.obj)
 .bss.m_trs_sar_sessions
                0x20003a50      0x1b0 mesh/core/libmesh_core_nrf52832_xxAA.a(transport.c.obj)
 .bss.m_defrag  0x20003c00       0x1c mesh/core/libmesh_core_nrf52832_xxAA.a(flash_manager_defrag.c.obj)
 .bss.m_token   0x20003c1c        0x2 mesh/core/libmesh_core_nrf52832_xxAA.a(flash_manager_defrag.c.obj)
 *fill*         0x20003c1e        0x2 
 .bss.mp_recovery_area
                0x20003c20        0x4 mesh/core/libmesh_core_nrf52832_xxAA.a(flash_manager_defrag.c.obj)
 .bss.p_null_ptr.9934
                0x20003c24        0x4 mesh/core/libmesh_core_nrf52832_xxAA.a(flash_manager_defrag.c.obj)
 .bss.m_pool    0x20003c28     0x1000 mesh/core/libmesh_core_nrf52832_xxAA.a(packet_mgr.c.obj)
 .bss.mp_free_head
                0x20004c28        0x4 mesh/core/libmesh_core_nrf52832_xxAA.a(packet_mgr.c.obj)
 .bss.m_128buf  0x20004c2c       0x10 mesh/core/libmesh_core_nrf52832_xxAA.a(aes_cmac.c.obj)
 .bss.m_subkey1
                0x20004c3c       0x10 mesh/core/libmesh_core_nrf52832_xxAA.a(aes_cmac.c.obj)
 .bss.m_subkey2
                0x20004c4c       0x10 mesh/core/libmesh_core_nrf52832_xxAA.a(aes_cmac.c.obj)
 .bss.m_cache_full
                0x20004c5c        0x1 mesh/core/libmesh_core_nrf52832_xxAA.a(replay_cache.c.obj)
 .bss.m_cache_index
                0x20004c5d        0x1 mesh/core/libmesh_core_nrf52832_xxAA.a(replay_cache.c.obj)
 *fill*         0x20004c5e        0x2 
 .bss.m_replay_cache
                0x20004c60      0x200 mesh/core/libmesh_core_nrf52832_xxAA.a(replay_cache.c.obj)
 .bss.m_accepted_amount
                0x20004e60        0x4 mesh/core/libmesh_core_nrf52832_xxAA.a(filter_engine.c.obj)
 .bss.m_filter_list_head
                0x20004e64        0x4 mesh/core/libmesh_core_nrf52832_xxAA.a(filter_engine.c.obj)
 .bss._acDownBuffer
                0x20004e68       0x80 external/rtt/librtt_nrf52832_xxAA.a(SEGGER_RTT.c.obj)
 .bss._acUpBuffer
                0x20004ee8      0x400 external/rtt/librtt_nrf52832_xxAA.a(SEGGER_RTT.c.obj)
 .bss.__malloc_free_list
                0x200052e8        0x4 c:/a/gcc_arm/6/bin/../lib/gcc/arm-none-eabi/6.3.1/../../../../arm-none-eabi/lib/thumb/v7e-m/fpv4-sp/hard\libc_nano.a(lib_a-nano-mallocr.o)
                0x200052e8                __malloc_free_list
 .bss.__malloc_sbrk_start
                0x200052ec        0x4 c:/a/gcc_arm/6/bin/../lib/gcc/arm-none-eabi/6.3.1/../../../../arm-none-eabi/lib/thumb/v7e-m/fpv4-sp/hard\libc_nano.a(lib_a-nano-mallocr.o)
                0x200052ec                __malloc_sbrk_start
 .bss.heap_end.5239
                0x200052f0        0x4 c:/a/gcc_arm/6/bin/../lib/gcc/arm-none-eabi/6.3.1/../../../../arm-none-eabi/lib/thumb/v7e-m/fpv4-sp/hard\libnosys.a(sbrk.o)
 *(COMMON)
 COMMON         0x200052f4        0x8 examples/dfu/CMakeFiles/dfu_nrf52832_xxAA_s132_3.1.0.dir/src/main.c.obj
                0x200052f4                bank_addr
                0x200052f8                rom_length
 COMMON         0x200052fc        0xc examples/dfu/CMakeFiles/dfu_nrf52832_xxAA_s132_3.1.0.dir/__/nrf_mesh_sdk.c.obj
                0x200052fc                nrf_nvic_state
 COMMON         0x20005308        0x4 examples/dfu/CMakeFiles/dfu_nrf52832_xxAA_s132_3.1.0.dir/__/__/mesh/dfu/src/nrf_mesh_dfu.c.obj
                0x20005308                m_cmd_handler
 COMMON         0x2000530c        0x4 mesh/core/libmesh_core_nrf52832_xxAA.a(nrf_mesh.c.obj)
                0x2000530c                m_assertion_handler
 COMMON         0x20005310       0x78 external/rtt/librtt_nrf52832_xxAA.a(SEGGER_RTT.c.obj)
                0x20005310                _SEGGER_RTT
 COMMON         0x20005388        0x4 c:/a/gcc_arm/6/bin/../lib/gcc/arm-none-eabi/6.3.1/../../../../arm-none-eabi/lib/thumb/v7e-m/fpv4-sp/hard\libc_nano.a(lib_a-reent.o)
                0x20005388                errno
                0x2000538c                . = ALIGN (0x4)
                0x2000538c                __bss_end__ = .

.heap           0x20005390     0x2000
                0x20005390                __HeapBase = .
                0x20005390                __end__ = .
                0x20005390                PROVIDE (end, .)
 *(.heap*)
 .heap          0x20005390     0x2000 examples/dfu/CMakeFiles/dfu_nrf52832_xxAA_s132_3.1.0.dir/__/__/external/nRF5_SDK_14.0.0_3bcc1f7/components/toolchain/gcc/gcc_startup_nrf52.S.obj
                0x20007390                __HeapLimit = .

.stack_dummy    0x20005390     0x2000
 *(.stack*)
 .stack         0x20005390     0x2000 examples/dfu/CMakeFiles/dfu_nrf52832_xxAA_s132_3.1.0.dir/__/__/external/nRF5_SDK_14.0.0_3bcc1f7/components/toolchain/gcc/gcc_startup_nrf52.S.obj
                0x2000f000                __StackTop = (ORIGIN (RAM) + LENGTH (RAM))
                0x2000d000                __StackLimit = (__StackTop - SIZEOF (.stack_dummy))
                0x2000f000                PROVIDE (__stack, __StackTop)
                0x00000001                ASSERT ((__StackLimit >= __HeapLimit), region RAM overflowed with stack)
OUTPUT(examples\dfu\dfu_nrf52832_xxAA_s132_3.1.0.elf elf32-littlearm)

.ARM.attributes
                0x00000000       0x30
 .ARM.attributes
                0x00000000       0x22 c:/a/gcc_arm/6/bin/../lib/gcc/arm-none-eabi/6.3.1/thumb/v7e-m/fpv4-sp/hard/crti.o
 .ARM.attributes
                0x00000022       0x34 c:/a/gcc_arm/6/bin/../lib/gcc/arm-none-eabi/6.3.1/thumb/v7e-m/fpv4-sp/hard/crtbegin.o
 .ARM.attributes
                0x00000056       0x20 c:/a/gcc_arm/6/bin/../lib/gcc/arm-none-eabi/6.3.1/../../../../arm-none-eabi/lib/thumb/v7e-m/fpv4-sp/hard/crt0.o
 .ARM.attributes
                0x00000076       0x39 examples/dfu/CMakeFiles/dfu_nrf52832_xxAA_s132_3.1.0.dir/src/main.c.obj
 .ARM.attributes
                0x000000af       0x39 examples/dfu/CMakeFiles/dfu_nrf52832_xxAA_s132_3.1.0.dir/__/nrf_mesh_sdk.c.obj
 .ARM.attributes
                0x000000e8       0x39 examples/dfu/CMakeFiles/dfu_nrf52832_xxAA_s132_3.1.0.dir/__/__/mesh/access/src/access_publish.c.obj
 .ARM.attributes
                0x00000121       0x39 examples/dfu/CMakeFiles/dfu_nrf52832_xxAA_s132_3.1.0.dir/__/__/mesh/access/src/access.c.obj
 .ARM.attributes
                0x0000015a       0x39 examples/dfu/CMakeFiles/dfu_nrf52832_xxAA_s132_3.1.0.dir/__/__/mesh/access/src/access_reliable.c.obj
 .ARM.attributes
                0x00000193       0x39 examples/dfu/CMakeFiles/dfu_nrf52832_xxAA_s132_3.1.0.dir/__/__/mesh/access/src/device_state_manager.c.obj
 .ARM.attributes
                0x000001cc       0x39 examples/dfu/CMakeFiles/dfu_nrf52832_xxAA_s132_3.1.0.dir/__/__/mesh/serial/src/serial_uart.c.obj
 .ARM.attributes
                0x00000205       0x39 examples/dfu/CMakeFiles/dfu_nrf52832_xxAA_s132_3.1.0.dir/__/__/mesh/serial/src/serial_bearer.c.obj
 .ARM.attributes
                0x0000023e       0x39 examples/dfu/CMakeFiles/dfu_nrf52832_xxAA_s132_3.1.0.dir/__/__/mesh/serial/src/serial_handler_common.c.obj
 .ARM.attributes
                0x00000277       0x39 examples/dfu/CMakeFiles/dfu_nrf52832_xxAA_s132_3.1.0.dir/__/__/mesh/serial/src/serial_handler_access.c.obj
 .ARM.attributes
                0x000002b0       0x39 examples/dfu/CMakeFiles/dfu_nrf52832_xxAA_s132_3.1.0.dir/__/__/mesh/serial/src/serial_handler_config.c.obj
 .ARM.attributes
                0x000002e9       0x39 examples/dfu/CMakeFiles/dfu_nrf52832_xxAA_s132_3.1.0.dir/__/__/mesh/serial/src/serial_handler_openmesh.c.obj
 .ARM.attributes
                0x00000322       0x39 examples/dfu/CMakeFiles/dfu_nrf52832_xxAA_s132_3.1.0.dir/__/__/mesh/serial/src/serial.c.obj
 .ARM.attributes
                0x0000035b       0x39 examples/dfu/CMakeFiles/dfu_nrf52832_xxAA_s132_3.1.0.dir/__/__/mesh/serial/src/serial_handler_prov.c.obj
 .ARM.attributes
                0x00000394       0x39 examples/dfu/CMakeFiles/dfu_nrf52832_xxAA_s132_3.1.0.dir/__/__/mesh/serial/src/serial_handler_dfu.c.obj
 .ARM.attributes
                0x000003cd       0x39 examples/dfu/CMakeFiles/dfu_nrf52832_xxAA_s132_3.1.0.dir/__/__/mesh/serial/src/serial_handler_mesh.c.obj
 .ARM.attributes
                0x00000406       0x39 examples/dfu/CMakeFiles/dfu_nrf52832_xxAA_s132_3.1.0.dir/__/__/mesh/serial/src/serial_handler_models.c.obj
 .ARM.attributes
                0x0000043f       0x39 examples/dfu/CMakeFiles/dfu_nrf52832_xxAA_s132_3.1.0.dir/__/__/mesh/serial/src/serial_handler_device.c.obj
 .ARM.attributes
                0x00000478       0x39 examples/dfu/CMakeFiles/dfu_nrf52832_xxAA_s132_3.1.0.dir/__/__/mesh/serial/src/nrf_mesh_serial.c.obj
 .ARM.attributes
                0x000004b1       0x39 examples/dfu/CMakeFiles/dfu_nrf52832_xxAA_s132_3.1.0.dir/__/__/mesh/serial/src/serial_handler_app.c.obj
 .ARM.attributes
                0x000004ea       0x39 examples/dfu/CMakeFiles/dfu_nrf52832_xxAA_s132_3.1.0.dir/__/__/mesh/prov/src/prov_provisioner.c.obj
 .ARM.attributes
                0x00000523       0x39 examples/dfu/CMakeFiles/dfu_nrf52832_xxAA_s132_3.1.0.dir/__/__/mesh/prov/src/prov_provisionee.c.obj
 .ARM.attributes
                0x0000055c       0x39 examples/dfu/CMakeFiles/dfu_nrf52832_xxAA_s132_3.1.0.dir/__/__/mesh/prov/src/nrf_mesh_prov.c.obj
 .ARM.attributes
                0x00000595       0x39 examples/dfu/CMakeFiles/dfu_nrf52832_xxAA_s132_3.1.0.dir/__/__/mesh/prov/src/provisioning.c.obj
 .ARM.attributes
                0x000005ce       0x39 examples/dfu/CMakeFiles/dfu_nrf52832_xxAA_s132_3.1.0.dir/__/__/mesh/prov/src/prov_beacon.c.obj
 .ARM.attributes
                0x00000607       0x39 examples/dfu/CMakeFiles/dfu_nrf52832_xxAA_s132_3.1.0.dir/__/__/mesh/prov/src/prov_utils.c.obj
 .ARM.attributes
                0x00000640       0x39 examples/dfu/CMakeFiles/dfu_nrf52832_xxAA_s132_3.1.0.dir/__/__/mesh/prov/src/prov_bearer_adv.c.obj
 .ARM.attributes
                0x00000679       0x39 examples/dfu/CMakeFiles/dfu_nrf52832_xxAA_s132_3.1.0.dir/__/__/mesh/dfu/src/nrf_mesh_dfu.c.obj
 .ARM.attributes
                0x000006b2       0x39 examples/dfu/CMakeFiles/dfu_nrf52832_xxAA_s132_3.1.0.dir/__/__/external/nRF5_SDK_14.0.0_3bcc1f7/components/toolchain/system_nrf52.c.obj
 .ARM.attributes
                0x000006eb       0x20 examples/dfu/CMakeFiles/dfu_nrf52832_xxAA_s132_3.1.0.dir/__/__/external/nRF5_SDK_14.0.0_3bcc1f7/components/toolchain/gcc/gcc_startup_nrf52.S.obj
 .ARM.attributes
                0x0000070b       0x39 mesh/core/libmesh_core_nrf52832_xxAA.a(internal_event.c.obj)
 .ARM.attributes
                0x00000744       0x39 mesh/core/libmesh_core_nrf52832_xxAA.a(nrf_mesh_configure.c.obj)
 .ARM.attributes
                0x0000077d       0x39 mesh/core/libmesh_core_nrf52832_xxAA.a(event.c.obj)
 .ARM.attributes
                0x000007b6       0x39 mesh/core/libmesh_core_nrf52832_xxAA.a(packet_buffer.c.obj)
 .ARM.attributes
                0x000007ef       0x39 mesh/core/libmesh_core_nrf52832_xxAA.a(fifo.c.obj)
 .ARM.attributes
                0x00000828       0x39 mesh/core/libmesh_core_nrf52832_xxAA.a(net_state.c.obj)
 .ARM.attributes
                0x00000861       0x39 mesh/core/libmesh_core_nrf52832_xxAA.a(mesh_flash.c.obj)
 .ARM.attributes
                0x0000089a       0x39 mesh/core/libmesh_core_nrf52832_xxAA.a(nrf_mesh_utils.c.obj)
 .ARM.attributes
                0x000008d3       0x39 mesh/core/libmesh_core_nrf52832_xxAA.a(nrf_mesh.c.obj)
 .ARM.attributes
                0x0000090c       0x39 mesh/core/libmesh_core_nrf52832_xxAA.a(hal.c.obj)
 .ARM.attributes
                0x00000945       0x39 mesh/core/libmesh_core_nrf52832_xxAA.a(timer_scheduler.c.obj)
 .ARM.attributes
                0x0000097e       0x39 mesh/core/libmesh_core_nrf52832_xxAA.a(timer.c.obj)
 .ARM.attributes
                0x000009b7       0x39 mesh/core/libmesh_core_nrf52832_xxAA.a(ticker.c.obj)
 .ARM.attributes
                0x000009f0       0x39 mesh/core/libmesh_core_nrf52832_xxAA.a(rand.c.obj)
 .ARM.attributes
                0x00000a29       0x39 mesh/core/libmesh_core_nrf52832_xxAA.a(timeslot.c.obj)
 .ARM.attributes
                0x00000a62       0x39 mesh/core/libmesh_core_nrf52832_xxAA.a(bearer_event.c.obj)
 .ARM.attributes
                0x00000a9b       0x39 mesh/core/libmesh_core_nrf52832_xxAA.a(enc.c.obj)
 .ARM.attributes
                0x00000ad4       0x39 mesh/core/libmesh_core_nrf52832_xxAA.a(network.c.obj)
 .ARM.attributes
                0x00000b0d       0x39 mesh/core/libmesh_core_nrf52832_xxAA.a(msqueue.c.obj)
 .ARM.attributes
                0x00000b46       0x39 mesh/core/libmesh_core_nrf52832_xxAA.a(nrf_mesh_keygen.c.obj)
 .ARM.attributes
                0x00000b7f       0x39 mesh/core/libmesh_core_nrf52832_xxAA.a(log.c.obj)
 .ARM.attributes
                0x00000bb8       0x39 mesh/core/libmesh_core_nrf52832_xxAA.a(flash_manager.c.obj)
 .ARM.attributes
                0x00000bf1       0x39 mesh/core/libmesh_core_nrf52832_xxAA.a(ccm_soft.c.obj)
 .ARM.attributes
                0x00000c2a       0x39 mesh/core/libmesh_core_nrf52832_xxAA.a(beacon.c.obj)
 .ARM.attributes
                0x00000c63       0x39 mesh/core/libmesh_core_nrf52832_xxAA.a(flash_manager_internal.c.obj)
 .ARM.attributes
                0x00000c9c       0x39 mesh/core/libmesh_core_nrf52832_xxAA.a(core_tx.c.obj)
 .ARM.attributes
                0x00000cd5       0x39 mesh/core/libmesh_core_nrf52832_xxAA.a(net_beacon.c.obj)
 .ARM.attributes
                0x00000d0e       0x39 mesh/core/libmesh_core_nrf52832_xxAA.a(advertiser.c.obj)
 .ARM.attributes
                0x00000d47       0x39 mesh/core/libmesh_core_nrf52832_xxAA.a(bearer_handler.c.obj)
 .ARM.attributes
                0x00000d80       0x39 mesh/core/libmesh_core_nrf52832_xxAA.a(broadcast.c.obj)
 .ARM.attributes
                0x00000db9       0x39 mesh/core/libmesh_core_nrf52832_xxAA.a(radio_config.c.obj)
 .ARM.attributes
                0x00000df2       0x39 mesh/core/libmesh_core_nrf52832_xxAA.a(scanner.c.obj)
 .ARM.attributes
                0x00000e2b       0x39 mesh/core/libmesh_core_nrf52832_xxAA.a(aes.c.obj)
 .ARM.attributes
                0x00000e64       0x39 mesh/core/libmesh_core_nrf52832_xxAA.a(msg_cache.c.obj)
 .ARM.attributes
                0x00000e9d       0x39 mesh/core/libmesh_core_nrf52832_xxAA.a(transport.c.obj)
 .ARM.attributes
                0x00000ed6       0x39 mesh/core/libmesh_core_nrf52832_xxAA.a(flash_manager_defrag.c.obj)
 .ARM.attributes
                0x00000f0f       0x39 mesh/core/libmesh_core_nrf52832_xxAA.a(nrf_flash.c.obj)
 .ARM.attributes
                0x00000f48       0x39 mesh/core/libmesh_core_nrf52832_xxAA.a(packet_mgr.c.obj)
 .ARM.attributes
                0x00000f81       0x39 mesh/core/libmesh_core_nrf52832_xxAA.a(queue.c.obj)
 .ARM.attributes
                0x00000fba       0x39 mesh/core/libmesh_core_nrf52832_xxAA.a(aes_cmac.c.obj)
 .ARM.attributes
                0x00000ff3       0x39 mesh/core/libmesh_core_nrf52832_xxAA.a(replay_cache.c.obj)
 .ARM.attributes
                0x0000102c       0x39 mesh/core/libmesh_core_nrf52832_xxAA.a(filter_engine.c.obj)
 .ARM.attributes
                0x00001065       0x39 external/rtt/librtt_nrf52832_xxAA.a(SEGGER_RTT.c.obj)
 .ARM.attributes
                0x0000109e       0x39 external/rtt/librtt_nrf52832_xxAA.a(SEGGER_RTT_printf.c.obj)
 .ARM.attributes
                0x000010d7       0x39 external/micro-ecc/libuECC_nrf52832_xxAA.a(uECC.c.obj)
 .ARM.attributes
                0x00001110       0x34 c:/a/gcc_arm/6/bin/../lib/gcc/arm-none-eabi/6.3.1/../../../../arm-none-eabi/lib/thumb/v7e-m/fpv4-sp/hard\libc_nano.a(lib_a-exit.o)
 .ARM.attributes
                0x00001144       0x34 c:/a/gcc_arm/6/bin/../lib/gcc/arm-none-eabi/6.3.1/../../../../arm-none-eabi/lib/thumb/v7e-m/fpv4-sp/hard\libc_nano.a(lib_a-impure.o)
 .ARM.attributes
                0x00001178       0x34 c:/a/gcc_arm/6/bin/../lib/gcc/arm-none-eabi/6.3.1/../../../../arm-none-eabi/lib/thumb/v7e-m/fpv4-sp/hard\libc_nano.a(lib_a-init.o)
 .ARM.attributes
                0x000011ac       0x34 c:/a/gcc_arm/6/bin/../lib/gcc/arm-none-eabi/6.3.1/../../../../arm-none-eabi/lib/thumb/v7e-m/fpv4-sp/hard\libc_nano.a(lib_a-malloc.o)
 .ARM.attributes
                0x000011e0       0x34 c:/a/gcc_arm/6/bin/../lib/gcc/arm-none-eabi/6.3.1/../../../../arm-none-eabi/lib/thumb/v7e-m/fpv4-sp/hard\libc_nano.a(lib_a-memcmp.o)
 .ARM.attributes
                0x00001214       0x34 c:/a/gcc_arm/6/bin/../lib/gcc/arm-none-eabi/6.3.1/../../../../arm-none-eabi/lib/thumb/v7e-m/fpv4-sp/hard\libc_nano.a(lib_a-memcpy-stub.o)
 .ARM.attributes
                0x00001248       0x34 c:/a/gcc_arm/6/bin/../lib/gcc/arm-none-eabi/6.3.1/../../../../arm-none-eabi/lib/thumb/v7e-m/fpv4-sp/hard\libc_nano.a(lib_a-memset.o)
 .ARM.attributes
                0x0000127c       0x34 c:/a/gcc_arm/6/bin/../lib/gcc/arm-none-eabi/6.3.1/../../../../arm-none-eabi/lib/thumb/v7e-m/fpv4-sp/hard\libc_nano.a(lib_a-nano-freer.o)
 .ARM.attributes
                0x000012b0       0x34 c:/a/gcc_arm/6/bin/../lib/gcc/arm-none-eabi/6.3.1/../../../../arm-none-eabi/lib/thumb/v7e-m/fpv4-sp/hard\libc_nano.a(lib_a-nano-mallocr.o)
 .ARM.attributes
                0x000012e4       0x34 c:/a/gcc_arm/6/bin/../lib/gcc/arm-none-eabi/6.3.1/../../../../arm-none-eabi/lib/thumb/v7e-m/fpv4-sp/hard\libc_nano.a(lib_a-sbrkr.o)
 .ARM.attributes
                0x00001318       0x34 c:/a/gcc_arm/6/bin/../lib/gcc/arm-none-eabi/6.3.1/../../../../arm-none-eabi/lib/thumb/v7e-m/fpv4-sp/hard\libc_nano.a(lib_a-strcpy.o)
 .ARM.attributes
                0x0000134c       0x1b c:/a/gcc_arm/6/bin/../lib/gcc/arm-none-eabi/6.3.1/../../../../arm-none-eabi/lib/thumb/v7e-m/fpv4-sp/hard\libc_nano.a(lib_a-strlen.o)
 .ARM.attributes
                0x00001367       0x34 c:/a/gcc_arm/6/bin/../lib/gcc/arm-none-eabi/6.3.1/../../../../arm-none-eabi/lib/thumb/v7e-m/fpv4-sp/hard\libc_nano.a(lib_a-strrchr.o)
 .ARM.attributes
                0x0000139b       0x34 c:/a/gcc_arm/6/bin/../lib/gcc/arm-none-eabi/6.3.1/../../../../arm-none-eabi/lib/thumb/v7e-m/fpv4-sp/hard\libc_nano.a(lib_a-mlock.o)
 .ARM.attributes
                0x000013cf       0x34 c:/a/gcc_arm/6/bin/../lib/gcc/arm-none-eabi/6.3.1/../../../../arm-none-eabi/lib/thumb/v7e-m/fpv4-sp/hard\libc_nano.a(lib_a-reent.o)
 .ARM.attributes
                0x00001403       0x34 c:/a/gcc_arm/6/bin/../lib/gcc/arm-none-eabi/6.3.1/../../../../arm-none-eabi/lib/thumb/v7e-m/fpv4-sp/hard\libc_nano.a(lib_a-strchr.o)
 .ARM.attributes
                0x00001437       0x34 c:/a/gcc_arm/6/bin/../lib/gcc/arm-none-eabi/6.3.1/thumb/v7e-m/fpv4-sp/hard/crtend.o
 .ARM.attributes
                0x0000146b       0x22 c:/a/gcc_arm/6/bin/../lib/gcc/arm-none-eabi/6.3.1/thumb/v7e-m/fpv4-sp/hard/crtn.o
 .ARM.attributes
                0x0000148d       0x34 c:/a/gcc_arm/6/bin/../lib/gcc/arm-none-eabi/6.3.1/../../../../arm-none-eabi/lib/thumb/v7e-m/fpv4-sp/hard\libnosys.a(sbrk.o)
 .ARM.attributes
                0x000014c1       0x34 c:/a/gcc_arm/6/bin/../lib/gcc/arm-none-eabi/6.3.1/../../../../arm-none-eabi/lib/thumb/v7e-m/fpv4-sp/hard\libnosys.a(_exit.o)

.comment        0x00000000       0x7f
 .comment       0x00000000       0x7f examples/dfu/CMakeFiles/dfu_nrf52832_xxAA_s132_3.1.0.dir/src/main.c.obj
                                 0x80 (size before relaxing)
 .comment       0x0000007f       0x80 examples/dfu/CMakeFiles/dfu_nrf52832_xxAA_s132_3.1.0.dir/__/nrf_mesh_sdk.c.obj
 .comment       0x0000007f       0x80 examples/dfu/CMakeFiles/dfu_nrf52832_xxAA_s132_3.1.0.dir/__/__/mesh/access/src/access_publish.c.obj
 .comment       0x0000007f       0x80 examples/dfu/CMakeFiles/dfu_nrf52832_xxAA_s132_3.1.0.dir/__/__/mesh/access/src/access.c.obj
 .comment       0x0000007f       0x80 examples/dfu/CMakeFiles/dfu_nrf52832_xxAA_s132_3.1.0.dir/__/__/mesh/access/src/access_reliable.c.obj
 .comment       0x0000007f       0x80 examples/dfu/CMakeFiles/dfu_nrf52832_xxAA_s132_3.1.0.dir/__/__/mesh/access/src/device_state_manager.c.obj
 .comment       0x0000007f       0x80 examples/dfu/CMakeFiles/dfu_nrf52832_xxAA_s132_3.1.0.dir/__/__/mesh/serial/src/serial_uart.c.obj
 .comment       0x0000007f       0x80 examples/dfu/CMakeFiles/dfu_nrf52832_xxAA_s132_3.1.0.dir/__/__/mesh/serial/src/serial_bearer.c.obj
 .comment       0x0000007f       0x80 examples/dfu/CMakeFiles/dfu_nrf52832_xxAA_s132_3.1.0.dir/__/__/mesh/serial/src/serial_handler_common.c.obj
 .comment       0x0000007f       0x80 examples/dfu/CMakeFiles/dfu_nrf52832_xxAA_s132_3.1.0.dir/__/__/mesh/serial/src/serial_handler_access.c.obj
 .comment       0x0000007f       0x80 examples/dfu/CMakeFiles/dfu_nrf52832_xxAA_s132_3.1.0.dir/__/__/mesh/serial/src/serial_handler_config.c.obj
 .comment       0x0000007f       0x80 examples/dfu/CMakeFiles/dfu_nrf52832_xxAA_s132_3.1.0.dir/__/__/mesh/serial/src/serial_handler_openmesh.c.obj
 .comment       0x0000007f       0x80 examples/dfu/CMakeFiles/dfu_nrf52832_xxAA_s132_3.1.0.dir/__/__/mesh/serial/src/serial.c.obj
 .comment       0x0000007f       0x80 examples/dfu/CMakeFiles/dfu_nrf52832_xxAA_s132_3.1.0.dir/__/__/mesh/serial/src/serial_handler_prov.c.obj
 .comment       0x0000007f       0x80 examples/dfu/CMakeFiles/dfu_nrf52832_xxAA_s132_3.1.0.dir/__/__/mesh/serial/src/serial_handler_dfu.c.obj
 .comment       0x0000007f       0x80 examples/dfu/CMakeFiles/dfu_nrf52832_xxAA_s132_3.1.0.dir/__/__/mesh/serial/src/serial_handler_mesh.c.obj
 .comment       0x0000007f       0x80 examples/dfu/CMakeFiles/dfu_nrf52832_xxAA_s132_3.1.0.dir/__/__/mesh/serial/src/serial_handler_models.c.obj
 .comment       0x0000007f       0x80 examples/dfu/CMakeFiles/dfu_nrf52832_xxAA_s132_3.1.0.dir/__/__/mesh/serial/src/serial_handler_device.c.obj
 .comment       0x0000007f       0x80 examples/dfu/CMakeFiles/dfu_nrf52832_xxAA_s132_3.1.0.dir/__/__/mesh/serial/src/nrf_mesh_serial.c.obj
 .comment       0x0000007f       0x80 examples/dfu/CMakeFiles/dfu_nrf52832_xxAA_s132_3.1.0.dir/__/__/mesh/serial/src/serial_handler_app.c.obj
 .comment       0x0000007f       0x80 examples/dfu/CMakeFiles/dfu_nrf52832_xxAA_s132_3.1.0.dir/__/__/mesh/prov/src/prov_provisioner.c.obj
 .comment       0x0000007f       0x80 examples/dfu/CMakeFiles/dfu_nrf52832_xxAA_s132_3.1.0.dir/__/__/mesh/prov/src/prov_provisionee.c.obj
 .comment       0x0000007f       0x80 examples/dfu/CMakeFiles/dfu_nrf52832_xxAA_s132_3.1.0.dir/__/__/mesh/prov/src/nrf_mesh_prov.c.obj
 .comment       0x0000007f       0x80 examples/dfu/CMakeFiles/dfu_nrf52832_xxAA_s132_3.1.0.dir/__/__/mesh/prov/src/provisioning.c.obj
 .comment       0x0000007f       0x80 examples/dfu/CMakeFiles/dfu_nrf52832_xxAA_s132_3.1.0.dir/__/__/mesh/prov/src/prov_beacon.c.obj
 .comment       0x0000007f       0x80 examples/dfu/CMakeFiles/dfu_nrf52832_xxAA_s132_3.1.0.dir/__/__/mesh/prov/src/prov_utils.c.obj
 .comment       0x0000007f       0x80 examples/dfu/CMakeFiles/dfu_nrf52832_xxAA_s132_3.1.0.dir/__/__/mesh/prov/src/prov_bearer_adv.c.obj
 .comment       0x0000007f       0x80 examples/dfu/CMakeFiles/dfu_nrf52832_xxAA_s132_3.1.0.dir/__/__/mesh/dfu/src/nrf_mesh_dfu.c.obj
 .comment       0x0000007f       0x80 examples/dfu/CMakeFiles/dfu_nrf52832_xxAA_s132_3.1.0.dir/__/__/external/nRF5_SDK_14.0.0_3bcc1f7/components/toolchain/system_nrf52.c.obj
 .comment       0x0000007f       0x80 mesh/core/libmesh_core_nrf52832_xxAA.a(internal_event.c.obj)
 .comment       0x0000007f       0x80 mesh/core/libmesh_core_nrf52832_xxAA.a(nrf_mesh_configure.c.obj)
 .comment       0x0000007f       0x80 mesh/core/libmesh_core_nrf52832_xxAA.a(event.c.obj)
 .comment       0x0000007f       0x80 mesh/core/libmesh_core_nrf52832_xxAA.a(packet_buffer.c.obj)
 .comment       0x0000007f       0x80 mesh/core/libmesh_core_nrf52832_xxAA.a(fifo.c.obj)
 .comment       0x0000007f       0x80 mesh/core/libmesh_core_nrf52832_xxAA.a(net_state.c.obj)
 .comment       0x0000007f       0x80 mesh/core/libmesh_core_nrf52832_xxAA.a(mesh_flash.c.obj)
 .comment       0x0000007f       0x80 mesh/core/libmesh_core_nrf52832_xxAA.a(nrf_mesh_utils.c.obj)
 .comment       0x0000007f       0x80 mesh/core/libmesh_core_nrf52832_xxAA.a(nrf_mesh.c.obj)
 .comment       0x0000007f       0x80 mesh/core/libmesh_core_nrf52832_xxAA.a(hal.c.obj)
 .comment       0x0000007f       0x80 mesh/core/libmesh_core_nrf52832_xxAA.a(timer_scheduler.c.obj)
 .comment       0x0000007f       0x80 mesh/core/libmesh_core_nrf52832_xxAA.a(timer.c.obj)
 .comment       0x0000007f       0x80 mesh/core/libmesh_core_nrf52832_xxAA.a(ticker.c.obj)
 .comment       0x0000007f       0x80 mesh/core/libmesh_core_nrf52832_xxAA.a(rand.c.obj)
 .comment       0x0000007f       0x80 mesh/core/libmesh_core_nrf52832_xxAA.a(timeslot.c.obj)
 .comment       0x0000007f       0x80 mesh/core/libmesh_core_nrf52832_xxAA.a(bearer_event.c.obj)
 .comment       0x0000007f       0x80 mesh/core/libmesh_core_nrf52832_xxAA.a(enc.c.obj)
 .comment       0x0000007f       0x80 mesh/core/libmesh_core_nrf52832_xxAA.a(network.c.obj)
 .comment       0x0000007f       0x80 mesh/core/libmesh_core_nrf52832_xxAA.a(msqueue.c.obj)
 .comment       0x0000007f       0x80 mesh/core/libmesh_core_nrf52832_xxAA.a(nrf_mesh_keygen.c.obj)
 .comment       0x0000007f       0x80 mesh/core/libmesh_core_nrf52832_xxAA.a(log.c.obj)
 .comment       0x0000007f       0x80 mesh/core/libmesh_core_nrf52832_xxAA.a(flash_manager.c.obj)
 .comment       0x0000007f       0x80 mesh/core/libmesh_core_nrf52832_xxAA.a(ccm_soft.c.obj)
 .comment       0x0000007f       0x80 mesh/core/libmesh_core_nrf52832_xxAA.a(beacon.c.obj)
 .comment       0x0000007f       0x80 mesh/core/libmesh_core_nrf52832_xxAA.a(flash_manager_internal.c.obj)
 .comment       0x0000007f       0x80 mesh/core/libmesh_core_nrf52832_xxAA.a(core_tx.c.obj)
 .comment       0x0000007f       0x80 mesh/core/libmesh_core_nrf52832_xxAA.a(net_beacon.c.obj)
 .comment       0x0000007f       0x80 mesh/core/libmesh_core_nrf52832_xxAA.a(advertiser.c.obj)
 .comment       0x0000007f       0x80 mesh/core/libmesh_core_nrf52832_xxAA.a(bearer_handler.c.obj)
 .comment       0x0000007f       0x80 mesh/core/libmesh_core_nrf52832_xxAA.a(broadcast.c.obj)
 .comment       0x0000007f       0x80 mesh/core/libmesh_core_nrf52832_xxAA.a(radio_config.c.obj)
 .comment       0x0000007f       0x80 mesh/core/libmesh_core_nrf52832_xxAA.a(scanner.c.obj)
 .comment       0x0000007f       0x80 mesh/core/libmesh_core_nrf52832_xxAA.a(aes.c.obj)
 .comment       0x0000007f       0x80 mesh/core/libmesh_core_nrf52832_xxAA.a(msg_cache.c.obj)
 .comment       0x0000007f       0x80 mesh/core/libmesh_core_nrf52832_xxAA.a(transport.c.obj)
 .comment       0x0000007f       0x80 mesh/core/libmesh_core_nrf52832_xxAA.a(flash_manager_defrag.c.obj)
 .comment       0x0000007f       0x80 mesh/core/libmesh_core_nrf52832_xxAA.a(nrf_flash.c.obj)
 .comment       0x0000007f       0x80 mesh/core/libmesh_core_nrf52832_xxAA.a(packet_mgr.c.obj)
 .comment       0x0000007f       0x80 mesh/core/libmesh_core_nrf52832_xxAA.a(queue.c.obj)
 .comment       0x0000007f       0x80 mesh/core/libmesh_core_nrf52832_xxAA.a(aes_cmac.c.obj)
 .comment       0x0000007f       0x80 mesh/core/libmesh_core_nrf52832_xxAA.a(replay_cache.c.obj)
 .comment       0x0000007f       0x80 mesh/core/libmesh_core_nrf52832_xxAA.a(filter_engine.c.obj)
 .comment       0x0000007f       0x80 external/rtt/librtt_nrf52832_xxAA.a(SEGGER_RTT.c.obj)
 .comment       0x0000007f       0x80 external/rtt/librtt_nrf52832_xxAA.a(SEGGER_RTT_printf.c.obj)
 .comment       0x0000007f       0x80 external/micro-ecc/libuECC_nrf52832_xxAA.a(uECC.c.obj)

.debug_frame    0x00000000      0x2c4
 .debug_frame   0x00000000       0x28 c:/a/gcc_arm/6/bin/../lib/gcc/arm-none-eabi/6.3.1/../../../../arm-none-eabi/lib/thumb/v7e-m/fpv4-sp/hard\libc_nano.a(lib_a-exit.o)
 .debug_frame   0x00000028       0x2c c:/a/gcc_arm/6/bin/../lib/gcc/arm-none-eabi/6.3.1/../../../../arm-none-eabi/lib/thumb/v7e-m/fpv4-sp/hard\libc_nano.a(lib_a-init.o)
 .debug_frame   0x00000054       0x30 c:/a/gcc_arm/6/bin/../lib/gcc/arm-none-eabi/6.3.1/../../../../arm-none-eabi/lib/thumb/v7e-m/fpv4-sp/hard\libc_nano.a(lib_a-malloc.o)
 .debug_frame   0x00000084       0x28 c:/a/gcc_arm/6/bin/../lib/gcc/arm-none-eabi/6.3.1/../../../../arm-none-eabi/lib/thumb/v7e-m/fpv4-sp/hard\libc_nano.a(lib_a-memcmp.o)
 .debug_frame   0x000000ac       0x28 c:/a/gcc_arm/6/bin/../lib/gcc/arm-none-eabi/6.3.1/../../../../arm-none-eabi/lib/thumb/v7e-m/fpv4-sp/hard\libc_nano.a(lib_a-memcpy-stub.o)
 .debug_frame   0x000000d4       0x20 c:/a/gcc_arm/6/bin/../lib/gcc/arm-none-eabi/6.3.1/../../../../arm-none-eabi/lib/thumb/v7e-m/fpv4-sp/hard\libc_nano.a(lib_a-memset.o)
 .debug_frame   0x000000f4       0x38 c:/a/gcc_arm/6/bin/../lib/gcc/arm-none-eabi/6.3.1/../../../../arm-none-eabi/lib/thumb/v7e-m/fpv4-sp/hard\libc_nano.a(lib_a-nano-freer.o)
 .debug_frame   0x0000012c       0x2c c:/a/gcc_arm/6/bin/../lib/gcc/arm-none-eabi/6.3.1/../../../../arm-none-eabi/lib/thumb/v7e-m/fpv4-sp/hard\libc_nano.a(lib_a-nano-mallocr.o)
 .debug_frame   0x00000158       0x2c c:/a/gcc_arm/6/bin/../lib/gcc/arm-none-eabi/6.3.1/../../../../arm-none-eabi/lib/thumb/v7e-m/fpv4-sp/hard\libc_nano.a(lib_a-sbrkr.o)
 .debug_frame   0x00000184       0x20 c:/a/gcc_arm/6/bin/../lib/gcc/arm-none-eabi/6.3.1/../../../../arm-none-eabi/lib/thumb/v7e-m/fpv4-sp/hard\libc_nano.a(lib_a-strcpy.o)
 .debug_frame   0x000001a4       0x34 c:/a/gcc_arm/6/bin/../lib/gcc/arm-none-eabi/6.3.1/../../../../arm-none-eabi/lib/thumb/v7e-m/fpv4-sp/hard\libc_nano.a(lib_a-strrchr.o)
 .debug_frame   0x000001d8       0x30 c:/a/gcc_arm/6/bin/../lib/gcc/arm-none-eabi/6.3.1/../../../../arm-none-eabi/lib/thumb/v7e-m/fpv4-sp/hard\libc_nano.a(lib_a-mlock.o)
 .debug_frame   0x00000208       0x5c c:/a/gcc_arm/6/bin/../lib/gcc/arm-none-eabi/6.3.1/../../../../arm-none-eabi/lib/thumb/v7e-m/fpv4-sp/hard\libc_nano.a(lib_a-reent.o)
 .debug_frame   0x00000264       0x20 c:/a/gcc_arm/6/bin/../lib/gcc/arm-none-eabi/6.3.1/../../../../arm-none-eabi/lib/thumb/v7e-m/fpv4-sp/hard\libc_nano.a(lib_a-strchr.o)
 .debug_frame   0x00000284       0x20 c:/a/gcc_arm/6/bin/../lib/gcc/arm-none-eabi/6.3.1/../../../../arm-none-eabi/lib/thumb/v7e-m/fpv4-sp/hard\libnosys.a(sbrk.o)
 .debug_frame   0x000002a4       0x20 c:/a/gcc_arm/6/bin/../lib/gcc/arm-none-eabi/6.3.1/../../../../arm-none-eabi/lib/thumb/v7e-m/fpv4-sp/hard\libnosys.a(_exit.o)
