Archive member included to satisfy reference by file (symbol)

mesh/core/libmesh_core_nrf51422_xxAC.a(nrf_mesh_configure.c.obj)
                              examples/dfu/CMakeFiles/dfu_no_serial_nrf51422_xxAC_s130_2.0.1.dir/__/__/mesh/prov/src/prov_beacon.c.obj (nrf_mesh_configure_device_uuid_get)
mesh/core/libmesh_core_nrf51422_xxAC.a(event.c.obj)
                              examples/dfu/CMakeFiles/dfu_no_serial_nrf51422_xxAC_s130_2.0.1.dir/__/__/mesh/access/src/access.c.obj (event_handle)
mesh/core/libmesh_core_nrf51422_xxAC.a(net_state.c.obj)
                              examples/dfu/CMakeFiles/dfu_no_serial_nrf51422_xxAC_s130_2.0.1.dir/__/__/mesh/access/src/device_state_manager.c.obj (net_state_flash_area_get)
mesh/core/libmesh_core_nrf51422_xxAC.a(mesh_flash.c.obj)
                              examples/dfu/CMakeFiles/dfu_no_serial_nrf51422_xxAC_s130_2.0.1.dir/__/__/mesh/dfu/src/nrf_mesh_dfu.c.obj (mesh_flash_user_callback_set)
mesh/core/libmesh_core_nrf51422_xxAC.a(nrf_mesh_utils.c.obj)
                              examples/dfu/CMakeFiles/dfu_no_serial_nrf51422_xxAC_s130_2.0.1.dir/__/__/mesh/access/src/device_state_manager.c.obj (nrf_mesh_address_type_get)
mesh/core/libmesh_core_nrf51422_xxAC.a(nrf_mesh.c.obj)
                              examples/dfu/CMakeFiles/dfu_no_serial_nrf51422_xxAC_s130_2.0.1.dir/__/nrf_mesh_sdk.c.obj (nrf_mesh_init)
mesh/core/libmesh_core_nrf51422_xxAC.a(hal.c.obj)
                              examples/dfu/CMakeFiles/dfu_no_serial_nrf51422_xxAC_s130_2.0.1.dir/__/__/mesh/dfu/src/nrf_mesh_dfu.c.obj (hal_device_reset)
mesh/core/libmesh_core_nrf51422_xxAC.a(timer_scheduler.c.obj)
                              mesh/core/libmesh_core_nrf51422_xxAC.a(nrf_mesh.c.obj) (timer_sch_init)
mesh/core/libmesh_core_nrf51422_xxAC.a(timer.c.obj)
                              mesh/core/libmesh_core_nrf51422_xxAC.a(timer_scheduler.c.obj) (timer_order_cb)
mesh/core/libmesh_core_nrf51422_xxAC.a(ticker.c.obj)
                              mesh/core/libmesh_core_nrf51422_xxAC.a(nrf_mesh.c.obj) (ticker_init)
mesh/core/libmesh_core_nrf51422_xxAC.a(rand.c.obj)
                              examples/dfu/CMakeFiles/dfu_no_serial_nrf51422_xxAC_s130_2.0.1.dir/__/__/mesh/dfu/src/nrf_mesh_dfu.c.obj (rand_prng_get)
mesh/core/libmesh_core_nrf51422_xxAC.a(timeslot.c.obj)
                              mesh/core/libmesh_core_nrf51422_xxAC.a(nrf_mesh.c.obj) (timeslot_sd_event_handler)
mesh/core/libmesh_core_nrf51422_xxAC.a(bearer_event.c.obj)
                              mesh/core/libmesh_core_nrf51422_xxAC.a(nrf_mesh.c.obj) (bearer_event_init)
mesh/core/libmesh_core_nrf51422_xxAC.a(enc.c.obj)
                              examples/dfu/CMakeFiles/dfu_no_serial_nrf51422_xxAC_s130_2.0.1.dir/__/__/mesh/prov/src/prov_utils.c.obj (enc_aes_cmac)
mesh/core/libmesh_core_nrf51422_xxAC.a(network.c.obj)
                              mesh/core/libmesh_core_nrf51422_xxAC.a(nrf_mesh.c.obj) (network_init)
mesh/core/libmesh_core_nrf51422_xxAC.a(msqueue.c.obj)
                              mesh/core/libmesh_core_nrf51422_xxAC.a(mesh_flash.c.obj) (msq_get)
mesh/core/libmesh_core_nrf51422_xxAC.a(nrf_mesh_keygen.c.obj)
                              examples/dfu/CMakeFiles/dfu_no_serial_nrf51422_xxAC_s130_2.0.1.dir/__/__/mesh/access/src/device_state_manager.c.obj (nrf_mesh_keygen_aid)
mesh/core/libmesh_core_nrf51422_xxAC.a(log.c.obj)
                              examples/dfu/CMakeFiles/dfu_no_serial_nrf51422_xxAC_s130_2.0.1.dir/src/main.c.obj (log_callback_rtt)
mesh/core/libmesh_core_nrf51422_xxAC.a(flash_manager.c.obj)
                              mesh/core/libmesh_core_nrf51422_xxAC.a(nrf_mesh.c.obj) (flash_manager_init)
mesh/core/libmesh_core_nrf51422_xxAC.a(ccm_soft.c.obj)
                              mesh/core/libmesh_core_nrf51422_xxAC.a(enc.c.obj) (ccm_soft_encrypt)
mesh/core/libmesh_core_nrf51422_xxAC.a(beacon.c.obj)
                              mesh/core/libmesh_core_nrf51422_xxAC.a(nrf_mesh.c.obj) (beacon_init)
mesh/core/libmesh_core_nrf51422_xxAC.a(flash_manager_internal.c.obj)
                              mesh/core/libmesh_core_nrf51422_xxAC.a(flash_manager.c.obj) (entry_get)
mesh/core/libmesh_core_nrf51422_xxAC.a(core_tx.c.obj)
                              mesh/core/libmesh_core_nrf51422_xxAC.a(nrf_mesh.c.obj) (core_tx_init)
mesh/core/libmesh_core_nrf51422_xxAC.a(net_beacon.c.obj)
                              mesh/core/libmesh_core_nrf51422_xxAC.a(network.c.obj) (net_beacon_init)
mesh/core/libmesh_core_nrf51422_xxAC.a(advertiser.c.obj)
                              mesh/core/libmesh_core_nrf51422_xxAC.a(nrf_mesh.c.obj) (advertiser_init)
mesh/core/libmesh_core_nrf51422_xxAC.a(bearer_handler.c.obj)
                              mesh/core/libmesh_core_nrf51422_xxAC.a(nrf_mesh.c.obj) (bearer_handler_init)
mesh/core/libmesh_core_nrf51422_xxAC.a(broadcast.c.obj)
                              examples/dfu/CMakeFiles/dfu_no_serial_nrf51422_xxAC_s130_2.0.1.dir/__/__/mesh/dfu/src/nrf_mesh_dfu.c.obj (broadcast_send)
mesh/core/libmesh_core_nrf51422_xxAC.a(radio_config.c.obj)
                              mesh/core/libmesh_core_nrf51422_xxAC.a(broadcast.c.obj) (radio_config_reset)
mesh/core/libmesh_core_nrf51422_xxAC.a(scanner.c.obj)
                              mesh/core/libmesh_core_nrf51422_xxAC.a(bearer_handler.c.obj) (scanner_radio_start)
mesh/core/libmesh_core_nrf51422_xxAC.a(internal_event.c.obj)
                              mesh/core/libmesh_core_nrf51422_xxAC.a(network.c.obj) (internal_event_push)
mesh/core/libmesh_core_nrf51422_xxAC.a(aes.c.obj)
                              mesh/core/libmesh_core_nrf51422_xxAC.a(enc.c.obj) (aes_encrypt)
mesh/core/libmesh_core_nrf51422_xxAC.a(msg_cache.c.obj)
                              mesh/core/libmesh_core_nrf51422_xxAC.a(nrf_mesh.c.obj) (msg_cache_init)
mesh/core/libmesh_core_nrf51422_xxAC.a(transport.c.obj)
                              mesh/core/libmesh_core_nrf51422_xxAC.a(nrf_mesh.c.obj) (transport_init)
mesh/core/libmesh_core_nrf51422_xxAC.a(packet_buffer.c.obj)
                              mesh/core/libmesh_core_nrf51422_xxAC.a(flash_manager.c.obj) (packet_buffer_init)
mesh/core/libmesh_core_nrf51422_xxAC.a(flash_manager_defrag.c.obj)
                              mesh/core/libmesh_core_nrf51422_xxAC.a(flash_manager.c.obj) (flash_manager_defrag_init)
mesh/core/libmesh_core_nrf51422_xxAC.a(fifo.c.obj)
                              mesh/core/libmesh_core_nrf51422_xxAC.a(bearer_event.c.obj) (fifo_init)
mesh/core/libmesh_core_nrf51422_xxAC.a(nrf_flash.c.obj)
                              mesh/core/libmesh_core_nrf51422_xxAC.a(mesh_flash.c.obj) (nrf_flash_erase)
mesh/core/libmesh_core_nrf51422_xxAC.a(packet_mgr.c.obj)
                              mesh/core/libmesh_core_nrf51422_xxAC.a(nrf_mesh.c.obj) (packet_mgr_init)
mesh/core/libmesh_core_nrf51422_xxAC.a(queue.c.obj)
                              mesh/core/libmesh_core_nrf51422_xxAC.a(bearer_event.c.obj) (queue_init)
mesh/core/libmesh_core_nrf51422_xxAC.a(aes_cmac.c.obj)
                              mesh/core/libmesh_core_nrf51422_xxAC.a(enc.c.obj) (aes_cmac)
mesh/core/libmesh_core_nrf51422_xxAC.a(replay_cache.c.obj)
                              mesh/core/libmesh_core_nrf51422_xxAC.a(transport.c.obj) (replay_cache_add)
mesh/core/libmesh_core_nrf51422_xxAC.a(filter_engine.c.obj)
                              mesh/core/libmesh_core_nrf51422_xxAC.a(scanner.c.obj) (fen_filters_apply)
external/rtt/librtt_nrf51422_xxAC.a(SEGGER_RTT.c.obj)
                              mesh/core/libmesh_core_nrf51422_xxAC.a(log.c.obj) (SEGGER_RTT_Write)
external/rtt/librtt_nrf51422_xxAC.a(SEGGER_RTT_printf.c.obj)
                              mesh/core/libmesh_core_nrf51422_xxAC.a(log.c.obj) (SEGGER_RTT_vprintf)
external/micro-ecc/libuECC_nrf51422_xxAC.a(uECC.c.obj)
                              examples/dfu/CMakeFiles/dfu_no_serial_nrf51422_xxAC_s130_2.0.1.dir/__/__/mesh/prov/src/prov_utils.c.obj (uECC_secp256r1)
c:/a/gcc_arm/6/bin/../lib/gcc/arm-none-eabi/6.3.1/thumb/v6-m\libgcc.a(_thumb1_case_uqi.o)
                              examples/dfu/CMakeFiles/dfu_no_serial_nrf51422_xxAC_s130_2.0.1.dir/src/main.c.obj (__gnu_thumb1_case_uqi)
c:/a/gcc_arm/6/bin/../lib/gcc/arm-none-eabi/6.3.1/thumb/v6-m\libgcc.a(_thumb1_case_shi.o)
                              examples/dfu/CMakeFiles/dfu_no_serial_nrf51422_xxAC_s130_2.0.1.dir/__/__/mesh/prov/src/prov_provisioner.c.obj (__gnu_thumb1_case_shi)
c:/a/gcc_arm/6/bin/../lib/gcc/arm-none-eabi/6.3.1/thumb/v6-m\libgcc.a(_thumb1_case_uhi.o)
                              examples/dfu/CMakeFiles/dfu_no_serial_nrf51422_xxAC_s130_2.0.1.dir/__/__/mesh/prov/src/prov_provisionee.c.obj (__gnu_thumb1_case_uhi)
c:/a/gcc_arm/6/bin/../lib/gcc/arm-none-eabi/6.3.1/thumb/v6-m\libgcc.a(_udivsi3.o)
                              examples/dfu/CMakeFiles/dfu_no_serial_nrf51422_xxAC_s130_2.0.1.dir/__/__/mesh/access/src/access_publish.c.obj (__aeabi_uidiv)
c:/a/gcc_arm/6/bin/../lib/gcc/arm-none-eabi/6.3.1/thumb/v6-m\libgcc.a(_divsi3.o)
                              examples/dfu/CMakeFiles/dfu_no_serial_nrf51422_xxAC_s130_2.0.1.dir/__/__/mesh/access/src/access_reliable.c.obj (__aeabi_idiv)
c:/a/gcc_arm/6/bin/../lib/gcc/arm-none-eabi/6.3.1/thumb/v6-m\libgcc.a(_dvmd_tls.o)
                              c:/a/gcc_arm/6/bin/../lib/gcc/arm-none-eabi/6.3.1/thumb/v6-m\libgcc.a(_udivsi3.o) (__aeabi_idiv0)
c:/a/gcc_arm/6/bin/../lib/gcc/arm-none-eabi/6.3.1/thumb/v6-m\libgcc.a(_muldi3.o)
                              mesh/core/libmesh_core_nrf51422_xxAC.a(timeslot.c.obj) (__aeabi_lmul)
c:/a/gcc_arm/6/bin/../lib/gcc/arm-none-eabi/6.3.1/../../../../arm-none-eabi/lib/thumb/v6-m\libc_nano.a(lib_a-exit.o)
                              c:/a/gcc_arm/6/bin/../lib/gcc/arm-none-eabi/6.3.1/../../../../arm-none-eabi/lib/thumb/v6-m/crt0.o (exit)
c:/a/gcc_arm/6/bin/../lib/gcc/arm-none-eabi/6.3.1/../../../../arm-none-eabi/lib/thumb/v6-m\libc_nano.a(lib_a-impure.o)
                              c:/a/gcc_arm/6/bin/../lib/gcc/arm-none-eabi/6.3.1/../../../../arm-none-eabi/lib/thumb/v6-m\libc_nano.a(lib_a-exit.o) (_global_impure_ptr)
c:/a/gcc_arm/6/bin/../lib/gcc/arm-none-eabi/6.3.1/../../../../arm-none-eabi/lib/thumb/v6-m\libc_nano.a(lib_a-init.o)
                              c:/a/gcc_arm/6/bin/../lib/gcc/arm-none-eabi/6.3.1/../../../../arm-none-eabi/lib/thumb/v6-m/crt0.o (__libc_init_array)
c:/a/gcc_arm/6/bin/../lib/gcc/arm-none-eabi/6.3.1/../../../../arm-none-eabi/lib/thumb/v6-m\libc_nano.a(lib_a-malloc.o)
                              mesh/core/libmesh_core_nrf51422_xxAC.a(transport.c.obj) (malloc)
c:/a/gcc_arm/6/bin/../lib/gcc/arm-none-eabi/6.3.1/../../../../arm-none-eabi/lib/thumb/v6-m\libc_nano.a(lib_a-memcmp.o)
                              examples/dfu/CMakeFiles/dfu_no_serial_nrf51422_xxAC_s130_2.0.1.dir/__/__/mesh/access/src/device_state_manager.c.obj (memcmp)
c:/a/gcc_arm/6/bin/../lib/gcc/arm-none-eabi/6.3.1/../../../../arm-none-eabi/lib/thumb/v6-m\libc_nano.a(lib_a-memcpy-stub.o)
                              examples/dfu/CMakeFiles/dfu_no_serial_nrf51422_xxAC_s130_2.0.1.dir/__/__/mesh/access/src/access.c.obj (memcpy)
c:/a/gcc_arm/6/bin/../lib/gcc/arm-none-eabi/6.3.1/../../../../arm-none-eabi/lib/thumb/v6-m\libc_nano.a(lib_a-memset.o)
                              c:/a/gcc_arm/6/bin/../lib/gcc/arm-none-eabi/6.3.1/../../../../arm-none-eabi/lib/thumb/v6-m/crt0.o (memset)
c:/a/gcc_arm/6/bin/../lib/gcc/arm-none-eabi/6.3.1/../../../../arm-none-eabi/lib/thumb/v6-m\libc_nano.a(lib_a-nano-freer.o)
                              c:/a/gcc_arm/6/bin/../lib/gcc/arm-none-eabi/6.3.1/../../../../arm-none-eabi/lib/thumb/v6-m\libc_nano.a(lib_a-malloc.o) (_free_r)
c:/a/gcc_arm/6/bin/../lib/gcc/arm-none-eabi/6.3.1/../../../../arm-none-eabi/lib/thumb/v6-m\libc_nano.a(lib_a-nano-mallocr.o)
                              c:/a/gcc_arm/6/bin/../lib/gcc/arm-none-eabi/6.3.1/../../../../arm-none-eabi/lib/thumb/v6-m\libc_nano.a(lib_a-malloc.o) (_malloc_r)
c:/a/gcc_arm/6/bin/../lib/gcc/arm-none-eabi/6.3.1/../../../../arm-none-eabi/lib/thumb/v6-m\libc_nano.a(lib_a-sbrkr.o)
                              c:/a/gcc_arm/6/bin/../lib/gcc/arm-none-eabi/6.3.1/../../../../arm-none-eabi/lib/thumb/v6-m\libc_nano.a(lib_a-nano-mallocr.o) (_sbrk_r)
c:/a/gcc_arm/6/bin/../lib/gcc/arm-none-eabi/6.3.1/../../../../arm-none-eabi/lib/thumb/v6-m\libc_nano.a(lib_a-strcpy.o)
                              external/rtt/librtt_nrf51422_xxAC.a(SEGGER_RTT.c.obj) (strcpy)
c:/a/gcc_arm/6/bin/../lib/gcc/arm-none-eabi/6.3.1/../../../../arm-none-eabi/lib/thumb/v6-m\libc_nano.a(lib_a-strlen.o)
                              examples/dfu/CMakeFiles/dfu_no_serial_nrf51422_xxAC_s130_2.0.1.dir/__/__/mesh/prov/src/prov_beacon.c.obj (strlen)
c:/a/gcc_arm/6/bin/../lib/gcc/arm-none-eabi/6.3.1/../../../../arm-none-eabi/lib/thumb/v6-m\libc_nano.a(lib_a-strrchr.o)
                              examples/dfu/CMakeFiles/dfu_no_serial_nrf51422_xxAC_s130_2.0.1.dir/src/main.c.obj (strrchr)
c:/a/gcc_arm/6/bin/../lib/gcc/arm-none-eabi/6.3.1/../../../../arm-none-eabi/lib/thumb/v6-m\libc_nano.a(lib_a-mlock.o)
                              c:/a/gcc_arm/6/bin/../lib/gcc/arm-none-eabi/6.3.1/../../../../arm-none-eabi/lib/thumb/v6-m\libc_nano.a(lib_a-nano-freer.o) (__malloc_lock)
c:/a/gcc_arm/6/bin/../lib/gcc/arm-none-eabi/6.3.1/../../../../arm-none-eabi/lib/thumb/v6-m\libc_nano.a(lib_a-reent.o)
                              c:/a/gcc_arm/6/bin/../lib/gcc/arm-none-eabi/6.3.1/../../../../arm-none-eabi/lib/thumb/v6-m\libc_nano.a(lib_a-sbrkr.o) (errno)
c:/a/gcc_arm/6/bin/../lib/gcc/arm-none-eabi/6.3.1/../../../../arm-none-eabi/lib/thumb/v6-m\libc_nano.a(lib_a-strchr.o)
                              c:/a/gcc_arm/6/bin/../lib/gcc/arm-none-eabi/6.3.1/../../../../arm-none-eabi/lib/thumb/v6-m\libc_nano.a(lib_a-strrchr.o) (strchr)
c:/a/gcc_arm/6/bin/../lib/gcc/arm-none-eabi/6.3.1/../../../../arm-none-eabi/lib/thumb/v6-m\libnosys.a(sbrk.o)
                              c:/a/gcc_arm/6/bin/../lib/gcc/arm-none-eabi/6.3.1/../../../../arm-none-eabi/lib/thumb/v6-m\libc_nano.a(lib_a-sbrkr.o) (_sbrk)
c:/a/gcc_arm/6/bin/../lib/gcc/arm-none-eabi/6.3.1/../../../../arm-none-eabi/lib/thumb/v6-m\libnosys.a(_exit.o)
                              c:/a/gcc_arm/6/bin/../lib/gcc/arm-none-eabi/6.3.1/../../../../arm-none-eabi/lib/thumb/v6-m\libc_nano.a(lib_a-exit.o) (_exit)

Allocating common symbols
Common symbol       size              file

nrf_nvic_state      0x8               examples/dfu/CMakeFiles/dfu_no_serial_nrf51422_xxAC_s130_2.0.1.dir/__/nrf_mesh_sdk.c.obj
bank_addr           0x4               examples/dfu/CMakeFiles/dfu_no_serial_nrf51422_xxAC_s130_2.0.1.dir/src/main.c.obj
rom_length          0x4               examples/dfu/CMakeFiles/dfu_no_serial_nrf51422_xxAC_s130_2.0.1.dir/src/main.c.obj
m_cmd_handler       0x4               examples/dfu/CMakeFiles/dfu_no_serial_nrf51422_xxAC_s130_2.0.1.dir/__/__/mesh/dfu/src/nrf_mesh_dfu.c.obj
errno               0x4               c:/a/gcc_arm/6/bin/../lib/gcc/arm-none-eabi/6.3.1/../../../../arm-none-eabi/lib/thumb/v6-m\libc_nano.a(lib_a-reent.o)
m_assertion_handler
                    0x4               mesh/core/libmesh_core_nrf51422_xxAC.a(nrf_mesh.c.obj)
_SEGGER_RTT         0x78              external/rtt/librtt_nrf51422_xxAC.a(SEGGER_RTT.c.obj)

Discarded input sections

 .text          0x00000000        0x0 c:/a/gcc_arm/6/bin/../lib/gcc/arm-none-eabi/6.3.1/thumb/v6-m/crti.o
 .data          0x00000000        0x0 c:/a/gcc_arm/6/bin/../lib/gcc/arm-none-eabi/6.3.1/thumb/v6-m/crti.o
 .bss           0x00000000        0x0 c:/a/gcc_arm/6/bin/../lib/gcc/arm-none-eabi/6.3.1/thumb/v6-m/crti.o
 .data          0x00000000        0x4 c:/a/gcc_arm/6/bin/../lib/gcc/arm-none-eabi/6.3.1/thumb/v6-m/crtbegin.o
 .data          0x00000000        0x0 c:/a/gcc_arm/6/bin/../lib/gcc/arm-none-eabi/6.3.1/../../../../arm-none-eabi/lib/thumb/v6-m/crt0.o
 .bss           0x00000000        0x0 c:/a/gcc_arm/6/bin/../lib/gcc/arm-none-eabi/6.3.1/../../../../arm-none-eabi/lib/thumb/v6-m/crt0.o
 .ARM.extab     0x00000000        0x0 c:/a/gcc_arm/6/bin/../lib/gcc/arm-none-eabi/6.3.1/../../../../arm-none-eabi/lib/thumb/v6-m/crt0.o
 .text          0x00000000        0x0 examples/dfu/CMakeFiles/dfu_no_serial_nrf51422_xxAC_s130_2.0.1.dir/src/main.c.obj
 .data          0x00000000        0x0 examples/dfu/CMakeFiles/dfu_no_serial_nrf51422_xxAC_s130_2.0.1.dir/src/main.c.obj
 .bss           0x00000000        0x0 examples/dfu/CMakeFiles/dfu_no_serial_nrf51422_xxAC_s130_2.0.1.dir/src/main.c.obj
 .text          0x00000000        0x0 examples/dfu/CMakeFiles/dfu_no_serial_nrf51422_xxAC_s130_2.0.1.dir/__/nrf_mesh_sdk.c.obj
 .data          0x00000000        0x0 examples/dfu/CMakeFiles/dfu_no_serial_nrf51422_xxAC_s130_2.0.1.dir/__/nrf_mesh_sdk.c.obj
 .bss           0x00000000        0x0 examples/dfu/CMakeFiles/dfu_no_serial_nrf51422_xxAC_s130_2.0.1.dir/__/nrf_mesh_sdk.c.obj
 .text          0x00000000        0x0 examples/dfu/CMakeFiles/dfu_no_serial_nrf51422_xxAC_s130_2.0.1.dir/__/__/mesh/access/src/access_publish.c.obj
 .data          0x00000000        0x0 examples/dfu/CMakeFiles/dfu_no_serial_nrf51422_xxAC_s130_2.0.1.dir/__/__/mesh/access/src/access_publish.c.obj
 .bss           0x00000000        0x0 examples/dfu/CMakeFiles/dfu_no_serial_nrf51422_xxAC_s130_2.0.1.dir/__/__/mesh/access/src/access_publish.c.obj
 .text.add_to_publication_list
                0x00000000       0x60 examples/dfu/CMakeFiles/dfu_no_serial_nrf51422_xxAC_s130_2.0.1.dir/__/__/mesh/access/src/access_publish.c.obj
 .text.step_resolution_to_us
                0x00000000       0x48 examples/dfu/CMakeFiles/dfu_no_serial_nrf51422_xxAC_s130_2.0.1.dir/__/__/mesh/access/src/access_publish.c.obj
 .text.schedule_publication_timer
                0x00000000      0x16c examples/dfu/CMakeFiles/dfu_no_serial_nrf51422_xxAC_s130_2.0.1.dir/__/__/mesh/access/src/access_publish.c.obj
 .text.publish_timer_tick
                0x00000000       0xac examples/dfu/CMakeFiles/dfu_no_serial_nrf51422_xxAC_s130_2.0.1.dir/__/__/mesh/access/src/access_publish.c.obj
 .text.access_publish_init
                0x00000000       0x38 examples/dfu/CMakeFiles/dfu_no_serial_nrf51422_xxAC_s130_2.0.1.dir/__/__/mesh/access/src/access_publish.c.obj
 .text.access_publish_period_set
                0x00000000       0x84 examples/dfu/CMakeFiles/dfu_no_serial_nrf51422_xxAC_s130_2.0.1.dir/__/__/mesh/access/src/access_publish.c.obj
 .text.access_publish_period_get
                0x00000000       0x30 examples/dfu/CMakeFiles/dfu_no_serial_nrf51422_xxAC_s130_2.0.1.dir/__/__/mesh/access/src/access_publish.c.obj
 .bss.m_publish_timer
                0x00000000       0x18 examples/dfu/CMakeFiles/dfu_no_serial_nrf51422_xxAC_s130_2.0.1.dir/__/__/mesh/access/src/access_publish.c.obj
 .bss.m_publish_timer_counter
                0x00000000        0x4 examples/dfu/CMakeFiles/dfu_no_serial_nrf51422_xxAC_s130_2.0.1.dir/__/__/mesh/access/src/access_publish.c.obj
 .bss.m_publish_timer_running
                0x00000000        0x1 examples/dfu/CMakeFiles/dfu_no_serial_nrf51422_xxAC_s130_2.0.1.dir/__/__/mesh/access/src/access_publish.c.obj
 .bss.m_timer_resolution
                0x00000000        0x1 examples/dfu/CMakeFiles/dfu_no_serial_nrf51422_xxAC_s130_2.0.1.dir/__/__/mesh/access/src/access_publish.c.obj
 .bss.mp_publication_list
                0x00000000        0x4 examples/dfu/CMakeFiles/dfu_no_serial_nrf51422_xxAC_s130_2.0.1.dir/__/__/mesh/access/src/access_publish.c.obj
 .comment       0x00000000       0x80 examples/dfu/CMakeFiles/dfu_no_serial_nrf51422_xxAC_s130_2.0.1.dir/__/__/mesh/access/src/access_publish.c.obj
 .ARM.attributes
                0x00000000       0x31 examples/dfu/CMakeFiles/dfu_no_serial_nrf51422_xxAC_s130_2.0.1.dir/__/__/mesh/access/src/access_publish.c.obj
 .text          0x00000000        0x0 examples/dfu/CMakeFiles/dfu_no_serial_nrf51422_xxAC_s130_2.0.1.dir/__/__/mesh/access/src/access.c.obj
 .data          0x00000000        0x0 examples/dfu/CMakeFiles/dfu_no_serial_nrf51422_xxAC_s130_2.0.1.dir/__/__/mesh/access/src/access.c.obj
 .bss           0x00000000        0x0 examples/dfu/CMakeFiles/dfu_no_serial_nrf51422_xxAC_s130_2.0.1.dir/__/__/mesh/access/src/access.c.obj
 .text.bitfield_get
                0x00000000       0x18 examples/dfu/CMakeFiles/dfu_no_serial_nrf51422_xxAC_s130_2.0.1.dir/__/__/mesh/access/src/access.c.obj
 .text.is_valid_opcode
                0x00000000       0x4c examples/dfu/CMakeFiles/dfu_no_serial_nrf51422_xxAC_s130_2.0.1.dir/__/__/mesh/access/src/access.c.obj
 .text.model_handle_valid_and_allocated
                0x00000000       0x20 examples/dfu/CMakeFiles/dfu_no_serial_nrf51422_xxAC_s130_2.0.1.dir/__/__/mesh/access/src/access.c.obj
 .text.flash_invalidate_complete
                0x00000000       0x18 examples/dfu/CMakeFiles/dfu_no_serial_nrf51422_xxAC_s130_2.0.1.dir/__/__/mesh/access/src/access.c.obj
 .text.flash_manager_mem_available
                0x00000000        0x6 examples/dfu/CMakeFiles/dfu_no_serial_nrf51422_xxAC_s130_2.0.1.dir/__/__/mesh/access/src/access.c.obj
 .text.restore_acquired_subscription
                0x00000000       0x2c examples/dfu/CMakeFiles/dfu_no_serial_nrf51422_xxAC_s130_2.0.1.dir/__/__/mesh/access/src/access.c.obj
 .text.restore_acquired_element
                0x00000000       0x1c examples/dfu/CMakeFiles/dfu_no_serial_nrf51422_xxAC_s130_2.0.1.dir/__/__/mesh/access/src/access.c.obj
 .text.restore_flash_data
                0x00000000       0x5c examples/dfu/CMakeFiles/dfu_no_serial_nrf51422_xxAC_s130_2.0.1.dir/__/__/mesh/access/src/access.c.obj
 .text.access_flash_config_clear
                0x00000000       0x28 examples/dfu/CMakeFiles/dfu_no_serial_nrf51422_xxAC_s130_2.0.1.dir/__/__/mesh/access/src/access.c.obj
 .text.access_flash_config_store
                0x00000000      0x144 examples/dfu/CMakeFiles/dfu_no_serial_nrf51422_xxAC_s130_2.0.1.dir/__/__/mesh/access/src/access.c.obj
 .text.access_state_clear
                0x00000000       0x4c examples/dfu/CMakeFiles/dfu_no_serial_nrf51422_xxAC_s130_2.0.1.dir/__/__/mesh/access/src/access.c.obj
 .text.add_flash_manager
                0x00000000       0x5c examples/dfu/CMakeFiles/dfu_no_serial_nrf51422_xxAC_s130_2.0.1.dir/__/__/mesh/access/src/access.c.obj
 .text.flash_remove_complete
                0x00000000       0x60 examples/dfu/CMakeFiles/dfu_no_serial_nrf51422_xxAC_s130_2.0.1.dir/__/__/mesh/access/src/access.c.obj
 .text.flash_write_complete
                0x00000000       0x54 examples/dfu/CMakeFiles/dfu_no_serial_nrf51422_xxAC_s130_2.0.1.dir/__/__/mesh/access/src/access.c.obj
 .text.unlikely.bitfield_next_get.part.0.constprop.3
                0x00000000       0x34 examples/dfu/CMakeFiles/dfu_no_serial_nrf51422_xxAC_s130_2.0.1.dir/__/__/mesh/access/src/access.c.obj
 .text.restore_acquired_model
                0x00000000       0x88 examples/dfu/CMakeFiles/dfu_no_serial_nrf51422_xxAC_s130_2.0.1.dir/__/__/mesh/access/src/access.c.obj
 .text.handle_incoming
                0x00000000      0x168 examples/dfu/CMakeFiles/dfu_no_serial_nrf51422_xxAC_s130_2.0.1.dir/__/__/mesh/access/src/access.c.obj
 .text.mesh_evt_cb
                0x00000000      0x130 examples/dfu/CMakeFiles/dfu_no_serial_nrf51422_xxAC_s130_2.0.1.dir/__/__/mesh/access/src/access.c.obj
 .text.packet_tx
                0x00000000      0x2f8 examples/dfu/CMakeFiles/dfu_no_serial_nrf51422_xxAC_s130_2.0.1.dir/__/__/mesh/access/src/access.c.obj
 .text.access_flash_config_load
                0x00000000      0x128 examples/dfu/CMakeFiles/dfu_no_serial_nrf51422_xxAC_s130_2.0.1.dir/__/__/mesh/access/src/access.c.obj
 .text.access_clear
                0x00000000       0x10 examples/dfu/CMakeFiles/dfu_no_serial_nrf51422_xxAC_s130_2.0.1.dir/__/__/mesh/access/src/access.c.obj
 .text.access_init
                0x00000000       0x28 examples/dfu/CMakeFiles/dfu_no_serial_nrf51422_xxAC_s130_2.0.1.dir/__/__/mesh/access/src/access.c.obj
 .text.access_model_add
                0x00000000      0x1ac examples/dfu/CMakeFiles/dfu_no_serial_nrf51422_xxAC_s130_2.0.1.dir/__/__/mesh/access/src/access.c.obj
 .text.access_model_publish
                0x00000000       0x14 examples/dfu/CMakeFiles/dfu_no_serial_nrf51422_xxAC_s130_2.0.1.dir/__/__/mesh/access/src/access.c.obj
 .text.access_model_reply
                0x00000000       0x1c examples/dfu/CMakeFiles/dfu_no_serial_nrf51422_xxAC_s130_2.0.1.dir/__/__/mesh/access/src/access.c.obj
 .text.access_model_publish_address_set
                0x00000000       0x3c examples/dfu/CMakeFiles/dfu_no_serial_nrf51422_xxAC_s130_2.0.1.dir/__/__/mesh/access/src/access.c.obj
 .text.access_model_publish_address_get
                0x00000000       0x2c examples/dfu/CMakeFiles/dfu_no_serial_nrf51422_xxAC_s130_2.0.1.dir/__/__/mesh/access/src/access.c.obj
 .text.access_model_publish_period_set
                0x00000000       0x80 examples/dfu/CMakeFiles/dfu_no_serial_nrf51422_xxAC_s130_2.0.1.dir/__/__/mesh/access/src/access.c.obj
 .text.access_model_publish_period_get
                0x00000000       0x44 examples/dfu/CMakeFiles/dfu_no_serial_nrf51422_xxAC_s130_2.0.1.dir/__/__/mesh/access/src/access.c.obj
 .text.access_model_subscription_list_alloc
                0x00000000       0x54 examples/dfu/CMakeFiles/dfu_no_serial_nrf51422_xxAC_s130_2.0.1.dir/__/__/mesh/access/src/access.c.obj
 .text.access_model_subscription_lists_share
                0x00000000       0x4c examples/dfu/CMakeFiles/dfu_no_serial_nrf51422_xxAC_s130_2.0.1.dir/__/__/mesh/access/src/access.c.obj
 .text.access_model_subscription_add
                0x00000000       0x5c examples/dfu/CMakeFiles/dfu_no_serial_nrf51422_xxAC_s130_2.0.1.dir/__/__/mesh/access/src/access.c.obj
 .text.access_model_subscription_remove
                0x00000000       0x5c examples/dfu/CMakeFiles/dfu_no_serial_nrf51422_xxAC_s130_2.0.1.dir/__/__/mesh/access/src/access.c.obj
 .text.access_model_subscriptions_get
                0x00000000       0x7c examples/dfu/CMakeFiles/dfu_no_serial_nrf51422_xxAC_s130_2.0.1.dir/__/__/mesh/access/src/access.c.obj
 .text.access_model_application_bind
                0x00000000       0x50 examples/dfu/CMakeFiles/dfu_no_serial_nrf51422_xxAC_s130_2.0.1.dir/__/__/mesh/access/src/access.c.obj
 .text.access_model_application_unbind
                0x00000000       0x50 examples/dfu/CMakeFiles/dfu_no_serial_nrf51422_xxAC_s130_2.0.1.dir/__/__/mesh/access/src/access.c.obj
 .text.access_model_applications_get
                0x00000000       0x60 examples/dfu/CMakeFiles/dfu_no_serial_nrf51422_xxAC_s130_2.0.1.dir/__/__/mesh/access/src/access.c.obj
 .text.access_model_publish_application_set
                0x00000000       0x3c examples/dfu/CMakeFiles/dfu_no_serial_nrf51422_xxAC_s130_2.0.1.dir/__/__/mesh/access/src/access.c.obj
 .text.access_model_publish_application_get
                0x00000000       0x2c examples/dfu/CMakeFiles/dfu_no_serial_nrf51422_xxAC_s130_2.0.1.dir/__/__/mesh/access/src/access.c.obj
 .text.access_default_ttl_set
                0x00000000       0x10 examples/dfu/CMakeFiles/dfu_no_serial_nrf51422_xxAC_s130_2.0.1.dir/__/__/mesh/access/src/access.c.obj
 .text.access_default_ttl_get
                0x00000000        0xc examples/dfu/CMakeFiles/dfu_no_serial_nrf51422_xxAC_s130_2.0.1.dir/__/__/mesh/access/src/access.c.obj
 .text.access_model_publish_ttl_set
                0x00000000       0x44 examples/dfu/CMakeFiles/dfu_no_serial_nrf51422_xxAC_s130_2.0.1.dir/__/__/mesh/access/src/access.c.obj
 .text.access_model_publish_ttl_get
                0x00000000       0x2c examples/dfu/CMakeFiles/dfu_no_serial_nrf51422_xxAC_s130_2.0.1.dir/__/__/mesh/access/src/access.c.obj
 .text.access_element_location_set
                0x00000000       0x28 examples/dfu/CMakeFiles/dfu_no_serial_nrf51422_xxAC_s130_2.0.1.dir/__/__/mesh/access/src/access.c.obj
 .text.access_element_location_get
                0x00000000       0x1c examples/dfu/CMakeFiles/dfu_no_serial_nrf51422_xxAC_s130_2.0.1.dir/__/__/mesh/access/src/access.c.obj
 .text.access_element_sig_model_count_get
                0x00000000       0x1c examples/dfu/CMakeFiles/dfu_no_serial_nrf51422_xxAC_s130_2.0.1.dir/__/__/mesh/access/src/access.c.obj
 .text.access_element_vendor_model_count_get
                0x00000000       0x1c examples/dfu/CMakeFiles/dfu_no_serial_nrf51422_xxAC_s130_2.0.1.dir/__/__/mesh/access/src/access.c.obj
 .text.access_model_id_get
                0x00000000       0x38 examples/dfu/CMakeFiles/dfu_no_serial_nrf51422_xxAC_s130_2.0.1.dir/__/__/mesh/access/src/access.c.obj
 .text.access_handle_get
                0x00000000       0x54 examples/dfu/CMakeFiles/dfu_no_serial_nrf51422_xxAC_s130_2.0.1.dir/__/__/mesh/access/src/access.c.obj
 .text.access_element_models_get
                0x00000000       0x60 examples/dfu/CMakeFiles/dfu_no_serial_nrf51422_xxAC_s130_2.0.1.dir/__/__/mesh/access/src/access.c.obj
 .text.access_model_p_args_get
                0x00000000       0x2c examples/dfu/CMakeFiles/dfu_no_serial_nrf51422_xxAC_s130_2.0.1.dir/__/__/mesh/access/src/access.c.obj
 .bss.m_element_pool
                0x00000000        0x6 examples/dfu/CMakeFiles/dfu_no_serial_nrf51422_xxAC_s130_2.0.1.dir/__/__/mesh/access/src/access.c.obj
 .bss.m_evt_handler
                0x00000000        0x8 examples/dfu/CMakeFiles/dfu_no_serial_nrf51422_xxAC_s130_2.0.1.dir/__/__/mesh/access/src/access.c.obj
 .bss.m_flash_manager
                0x00000000       0x24 examples/dfu/CMakeFiles/dfu_no_serial_nrf51422_xxAC_s130_2.0.1.dir/__/__/mesh/access/src/access.c.obj
 .bss.m_flash_not_ready
                0x00000000        0x1 examples/dfu/CMakeFiles/dfu_no_serial_nrf51422_xxAC_s130_2.0.1.dir/__/__/mesh/access/src/access.c.obj
 .bss.m_metadata_stored
                0x00000000        0x1 examples/dfu/CMakeFiles/dfu_no_serial_nrf51422_xxAC_s130_2.0.1.dir/__/__/mesh/access/src/access.c.obj
 .bss.m_model_pool
                0x00000000       0x68 examples/dfu/CMakeFiles/dfu_no_serial_nrf51422_xxAC_s130_2.0.1.dir/__/__/mesh/access/src/access.c.obj
 .bss.m_subscription_list_pool
                0x00000000       0x10 examples/dfu/CMakeFiles/dfu_no_serial_nrf51422_xxAC_s130_2.0.1.dir/__/__/mesh/access/src/access.c.obj
 .data.flash_add_mem_available_struct.7843
                0x00000000       0x10 examples/dfu/CMakeFiles/dfu_no_serial_nrf51422_xxAC_s130_2.0.1.dir/__/__/mesh/access/src/access.c.obj
 .data.flash_clear_mem_available_struct.7932
                0x00000000       0x10 examples/dfu/CMakeFiles/dfu_no_serial_nrf51422_xxAC_s130_2.0.1.dir/__/__/mesh/access/src/access.c.obj
 .data.flash_store_mem_available_struct.7956
                0x00000000       0x10 examples/dfu/CMakeFiles/dfu_no_serial_nrf51422_xxAC_s130_2.0.1.dir/__/__/mesh/access/src/access.c.obj
 .data.m_default_ttl
                0x00000000        0x1 examples/dfu/CMakeFiles/dfu_no_serial_nrf51422_xxAC_s130_2.0.1.dir/__/__/mesh/access/src/access.c.obj
 .rodata.mesh_evt_cb.str1.1
                0x00000000       0x2f examples/dfu/CMakeFiles/dfu_no_serial_nrf51422_xxAC_s130_2.0.1.dir/__/__/mesh/access/src/access.c.obj
 .rodata.multiply_de_bruijn_bit_position.6592
                0x00000000       0x20 examples/dfu/CMakeFiles/dfu_no_serial_nrf51422_xxAC_s130_2.0.1.dir/__/__/mesh/access/src/access.c.obj
 .rodata.packet_tx.str1.1
                0x00000000       0x13 examples/dfu/CMakeFiles/dfu_no_serial_nrf51422_xxAC_s130_2.0.1.dir/__/__/mesh/access/src/access.c.obj
 .comment       0x00000000       0x80 examples/dfu/CMakeFiles/dfu_no_serial_nrf51422_xxAC_s130_2.0.1.dir/__/__/mesh/access/src/access.c.obj
 .ARM.attributes
                0x00000000       0x31 examples/dfu/CMakeFiles/dfu_no_serial_nrf51422_xxAC_s130_2.0.1.dir/__/__/mesh/access/src/access.c.obj
 .text          0x00000000        0x0 examples/dfu/CMakeFiles/dfu_no_serial_nrf51422_xxAC_s130_2.0.1.dir/__/__/mesh/access/src/access_reliable.c.obj
 .data          0x00000000        0x0 examples/dfu/CMakeFiles/dfu_no_serial_nrf51422_xxAC_s130_2.0.1.dir/__/__/mesh/access/src/access_reliable.c.obj
 .bss           0x00000000        0x0 examples/dfu/CMakeFiles/dfu_no_serial_nrf51422_xxAC_s130_2.0.1.dir/__/__/mesh/access/src/access_reliable.c.obj
 .text.remove_and_reschedule
                0x00000000       0xe0 examples/dfu/CMakeFiles/dfu_no_serial_nrf51422_xxAC_s130_2.0.1.dir/__/__/mesh/access/src/access_reliable.c.obj
 .text.reliable_timer_cb
                0x00000000      0x150 examples/dfu/CMakeFiles/dfu_no_serial_nrf51422_xxAC_s130_2.0.1.dir/__/__/mesh/access/src/access_reliable.c.obj
 .text.access_reliable_message_rx_cb
                0x00000000       0x88 examples/dfu/CMakeFiles/dfu_no_serial_nrf51422_xxAC_s130_2.0.1.dir/__/__/mesh/access/src/access_reliable.c.obj
 .text.access_reliable_init
                0x00000000       0x1c examples/dfu/CMakeFiles/dfu_no_serial_nrf51422_xxAC_s130_2.0.1.dir/__/__/mesh/access/src/access_reliable.c.obj
 .text.access_reliable_cancel_all
                0x00000000       0x34 examples/dfu/CMakeFiles/dfu_no_serial_nrf51422_xxAC_s130_2.0.1.dir/__/__/mesh/access/src/access_reliable.c.obj
 .text.access_model_reliable_cancel
                0x00000000       0x50 examples/dfu/CMakeFiles/dfu_no_serial_nrf51422_xxAC_s130_2.0.1.dir/__/__/mesh/access/src/access_reliable.c.obj
 .text.access_model_reliable_publish
                0x00000000      0x1cc examples/dfu/CMakeFiles/dfu_no_serial_nrf51422_xxAC_s130_2.0.1.dir/__/__/mesh/access/src/access_reliable.c.obj
 .bss.m_reliable
                0x00000000       0x6c examples/dfu/CMakeFiles/dfu_no_serial_nrf51422_xxAC_s130_2.0.1.dir/__/__/mesh/access/src/access_reliable.c.obj
 .comment       0x00000000       0x80 examples/dfu/CMakeFiles/dfu_no_serial_nrf51422_xxAC_s130_2.0.1.dir/__/__/mesh/access/src/access_reliable.c.obj
 .ARM.attributes
                0x00000000       0x31 examples/dfu/CMakeFiles/dfu_no_serial_nrf51422_xxAC_s130_2.0.1.dir/__/__/mesh/access/src/access_reliable.c.obj
 .text          0x00000000        0x0 examples/dfu/CMakeFiles/dfu_no_serial_nrf51422_xxAC_s130_2.0.1.dir/__/__/mesh/access/src/device_state_manager.c.obj
 .data          0x00000000        0x0 examples/dfu/CMakeFiles/dfu_no_serial_nrf51422_xxAC_s130_2.0.1.dir/__/__/mesh/access/src/device_state_manager.c.obj
 .bss           0x00000000        0x0 examples/dfu/CMakeFiles/dfu_no_serial_nrf51422_xxAC_s130_2.0.1.dir/__/__/mesh/access/src/device_state_manager.c.obj
 .text.bitfield_set
                0x00000000       0x16 examples/dfu/CMakeFiles/dfu_no_serial_nrf51422_xxAC_s130_2.0.1.dir/__/__/mesh/access/src/device_state_manager.c.obj
 .text.bitfield_clear
                0x00000000       0x16 examples/dfu/CMakeFiles/dfu_no_serial_nrf51422_xxAC_s130_2.0.1.dir/__/__/mesh/access/src/device_state_manager.c.obj
 .text.bitfield_is_all_clear
                0x00000000       0x3a examples/dfu/CMakeFiles/dfu_no_serial_nrf51422_xxAC_s130_2.0.1.dir/__/__/mesh/access/src/device_state_manager.c.obj
 .text.address_handle_virtual_valid
                0x00000000       0x1c examples/dfu/CMakeFiles/dfu_no_serial_nrf51422_xxAC_s130_2.0.1.dir/__/__/mesh/access/src/device_state_manager.c.obj
 .text.net_key_handle_get
                0x00000000       0x4c examples/dfu/CMakeFiles/dfu_no_serial_nrf51422_xxAC_s130_2.0.1.dir/__/__/mesh/access/src/device_state_manager.c.obj
 .text.dev_key_handle_get
                0x00000000       0x34 examples/dfu/CMakeFiles/dfu_no_serial_nrf51422_xxAC_s130_2.0.1.dir/__/__/mesh/access/src/device_state_manager.c.obj
 .text.app_key_handle_get
                0x00000000       0x4c examples/dfu/CMakeFiles/dfu_no_serial_nrf51422_xxAC_s130_2.0.1.dir/__/__/mesh/access/src/device_state_manager.c.obj
 .text.addr_nonvirtual_to_flash_entry
                0x00000000       0x10 examples/dfu/CMakeFiles/dfu_no_serial_nrf51422_xxAC_s130_2.0.1.dir/__/__/mesh/access/src/device_state_manager.c.obj
 .text.flash_mem_listener_callback
                0x00000000       0x20 examples/dfu/CMakeFiles/dfu_no_serial_nrf51422_xxAC_s130_2.0.1.dir/__/__/mesh/access/src/device_state_manager.c.obj
 .text.devkey_set
                0x00000000       0x4c examples/dfu/CMakeFiles/dfu_no_serial_nrf51422_xxAC_s130_2.0.1.dir/__/__/mesh/access/src/device_state_manager.c.obj
 .text.devkey_to_dsm_entry
                0x00000000       0x14 examples/dfu/CMakeFiles/dfu_no_serial_nrf51422_xxAC_s130_2.0.1.dir/__/__/mesh/access/src/device_state_manager.c.obj
 .text.devkey_to_flash_entry
                0x00000000       0x28 examples/dfu/CMakeFiles/dfu_no_serial_nrf51422_xxAC_s130_2.0.1.dir/__/__/mesh/access/src/device_state_manager.c.obj
 .text.appkey_to_flash_entry
                0x00000000       0x28 examples/dfu/CMakeFiles/dfu_no_serial_nrf51422_xxAC_s130_2.0.1.dir/__/__/mesh/access/src/device_state_manager.c.obj
 .text.subnet_to_flash_entry
                0x00000000       0x20 examples/dfu/CMakeFiles/dfu_no_serial_nrf51422_xxAC_s130_2.0.1.dir/__/__/mesh/access/src/device_state_manager.c.obj
 .text.addr_virtual_to_flash_entry
                0x00000000       0x1c examples/dfu/CMakeFiles/dfu_no_serial_nrf51422_xxAC_s130_2.0.1.dir/__/__/mesh/access/src/device_state_manager.c.obj
 .text.addr_unicast_to_dsm_entry
                0x00000000       0x10 examples/dfu/CMakeFiles/dfu_no_serial_nrf51422_xxAC_s130_2.0.1.dir/__/__/mesh/access/src/device_state_manager.c.obj
 .text.addr_unicast_to_flash_entry
                0x00000000       0x14 examples/dfu/CMakeFiles/dfu_no_serial_nrf51422_xxAC_s130_2.0.1.dir/__/__/mesh/access/src/device_state_manager.c.obj
 .text.appkey_set
                0x00000000       0x74 examples/dfu/CMakeFiles/dfu_no_serial_nrf51422_xxAC_s130_2.0.1.dir/__/__/mesh/access/src/device_state_manager.c.obj
 .text.appkey_to_dsm_entry
                0x00000000       0x12 examples/dfu/CMakeFiles/dfu_no_serial_nrf51422_xxAC_s130_2.0.1.dir/__/__/mesh/access/src/device_state_manager.c.obj
 .text.subnet_set
                0x00000000       0xa0 examples/dfu/CMakeFiles/dfu_no_serial_nrf51422_xxAC_s130_2.0.1.dir/__/__/mesh/access/src/device_state_manager.c.obj
 .text.subnet_to_dsm_entry
                0x00000000       0x10 examples/dfu/CMakeFiles/dfu_no_serial_nrf51422_xxAC_s130_2.0.1.dir/__/__/mesh/access/src/device_state_manager.c.obj
 .text.virtual_address_set
                0x00000000       0x58 examples/dfu/CMakeFiles/dfu_no_serial_nrf51422_xxAC_s130_2.0.1.dir/__/__/mesh/access/src/device_state_manager.c.obj
 .text.addr_virtual_to_dsm_entry
                0x00000000       0x10 examples/dfu/CMakeFiles/dfu_no_serial_nrf51422_xxAC_s130_2.0.1.dir/__/__/mesh/access/src/device_state_manager.c.obj
 .text.flash_save
                0x00000000       0x88 examples/dfu/CMakeFiles/dfu_no_serial_nrf51422_xxAC_s130_2.0.1.dir/__/__/mesh/access/src/device_state_manager.c.obj
 .text.flash_invalidate
                0x00000000       0x6c examples/dfu/CMakeFiles/dfu_no_serial_nrf51422_xxAC_s130_2.0.1.dir/__/__/mesh/access/src/device_state_manager.c.obj
 .text.flash_update_all
                0x00000000       0x70 examples/dfu/CMakeFiles/dfu_no_serial_nrf51422_xxAC_s130_2.0.1.dir/__/__/mesh/access/src/device_state_manager.c.obj
 .text.reset_flash_area
                0x00000000       0x28 examples/dfu/CMakeFiles/dfu_no_serial_nrf51422_xxAC_s130_2.0.1.dir/__/__/mesh/access/src/device_state_manager.c.obj
 .text.add_address_virtual
                0x00000000       0x80 examples/dfu/CMakeFiles/dfu_no_serial_nrf51422_xxAC_s130_2.0.1.dir/__/__/mesh/access/src/device_state_manager.c.obj
 .text.flash_operation_complete
                0x00000000       0x58 examples/dfu/CMakeFiles/dfu_no_serial_nrf51422_xxAC_s130_2.0.1.dir/__/__/mesh/access/src/device_state_manager.c.obj
 .text.flash_invalidate_complete
                0x00000000        0xc examples/dfu/CMakeFiles/dfu_no_serial_nrf51422_xxAC_s130_2.0.1.dir/__/__/mesh/access/src/device_state_manager.c.obj
 .text.flash_write_complete
                0x00000000        0xc examples/dfu/CMakeFiles/dfu_no_serial_nrf51422_xxAC_s130_2.0.1.dir/__/__/mesh/access/src/device_state_manager.c.obj
 .text.add_address.part.5
                0x00000000      0x150 examples/dfu/CMakeFiles/dfu_no_serial_nrf51422_xxAC_s130_2.0.1.dir/__/__/mesh/access/src/device_state_manager.c.obj
 .text.address_handle_valid
                0x00000000       0x28 examples/dfu/CMakeFiles/dfu_no_serial_nrf51422_xxAC_s130_2.0.1.dir/__/__/mesh/access/src/device_state_manager.c.obj
 .text.address_handle_nonvirtual_valid
                0x00000000       0x18 examples/dfu/CMakeFiles/dfu_no_serial_nrf51422_xxAC_s130_2.0.1.dir/__/__/mesh/access/src/device_state_manager.c.obj
 .text.address_delete_if_unused
                0x00000000       0x7c examples/dfu/CMakeFiles/dfu_no_serial_nrf51422_xxAC_s130_2.0.1.dir/__/__/mesh/access/src/device_state_manager.c.obj
 .text.addr_nonvirtual_to_dsm_entry
                0x00000000       0x34 examples/dfu/CMakeFiles/dfu_no_serial_nrf51422_xxAC_s130_2.0.1.dir/__/__/mesh/access/src/device_state_manager.c.obj
 .text.dsm_flash_config_load
                0x00000000       0xf0 examples/dfu/CMakeFiles/dfu_no_serial_nrf51422_xxAC_s130_2.0.1.dir/__/__/mesh/access/src/device_state_manager.c.obj
 .text.dsm_has_unflashed_data
                0x00000000       0x28 examples/dfu/CMakeFiles/dfu_no_serial_nrf51422_xxAC_s130_2.0.1.dir/__/__/mesh/access/src/device_state_manager.c.obj
 .text.dsm_flash_area_get
                0x00000000       0x10 examples/dfu/CMakeFiles/dfu_no_serial_nrf51422_xxAC_s130_2.0.1.dir/__/__/mesh/access/src/device_state_manager.c.obj
 .text.build_flash_area
                0x00000000       0x90 examples/dfu/CMakeFiles/dfu_no_serial_nrf51422_xxAC_s130_2.0.1.dir/__/__/mesh/access/src/device_state_manager.c.obj
 .text.dsm_init
                0x00000000       0x28 examples/dfu/CMakeFiles/dfu_no_serial_nrf51422_xxAC_s130_2.0.1.dir/__/__/mesh/access/src/device_state_manager.c.obj
 .text.flash_remove_complete
                0x00000000        0x8 examples/dfu/CMakeFiles/dfu_no_serial_nrf51422_xxAC_s130_2.0.1.dir/__/__/mesh/access/src/device_state_manager.c.obj
 .text.dsm_clear
                0x00000000       0x74 examples/dfu/CMakeFiles/dfu_no_serial_nrf51422_xxAC_s130_2.0.1.dir/__/__/mesh/access/src/device_state_manager.c.obj
 .text.dsm_local_unicast_addresses_set
                0x00000000       0x74 examples/dfu/CMakeFiles/dfu_no_serial_nrf51422_xxAC_s130_2.0.1.dir/__/__/mesh/access/src/device_state_manager.c.obj
 .text.dsm_local_unicast_addresses_get
                0x00000000       0x2c examples/dfu/CMakeFiles/dfu_no_serial_nrf51422_xxAC_s130_2.0.1.dir/__/__/mesh/access/src/device_state_manager.c.obj
 .text.dsm_address_publish_add
                0x00000000       0x14 examples/dfu/CMakeFiles/dfu_no_serial_nrf51422_xxAC_s130_2.0.1.dir/__/__/mesh/access/src/device_state_manager.c.obj
 .text.dsm_address_publish_add_handle
                0x00000000       0x38 examples/dfu/CMakeFiles/dfu_no_serial_nrf51422_xxAC_s130_2.0.1.dir/__/__/mesh/access/src/device_state_manager.c.obj
 .text.dsm_address_publish_virtual_add
                0x00000000        0xa examples/dfu/CMakeFiles/dfu_no_serial_nrf51422_xxAC_s130_2.0.1.dir/__/__/mesh/access/src/device_state_manager.c.obj
 .text.dsm_address_publish_remove
                0x00000000       0x44 examples/dfu/CMakeFiles/dfu_no_serial_nrf51422_xxAC_s130_2.0.1.dir/__/__/mesh/access/src/device_state_manager.c.obj
 .text.dsm_address_subscription_add
                0x00000000       0x14 examples/dfu/CMakeFiles/dfu_no_serial_nrf51422_xxAC_s130_2.0.1.dir/__/__/mesh/access/src/device_state_manager.c.obj
 .text.dsm_address_subscription_virtual_add
                0x00000000        0xa examples/dfu/CMakeFiles/dfu_no_serial_nrf51422_xxAC_s130_2.0.1.dir/__/__/mesh/access/src/device_state_manager.c.obj
 .text.dsm_address_subscription_add_handle
                0x00000000       0x38 examples/dfu/CMakeFiles/dfu_no_serial_nrf51422_xxAC_s130_2.0.1.dir/__/__/mesh/access/src/device_state_manager.c.obj
 .text.dsm_address_subscription_get
                0x00000000       0x34 examples/dfu/CMakeFiles/dfu_no_serial_nrf51422_xxAC_s130_2.0.1.dir/__/__/mesh/access/src/device_state_manager.c.obj
 .text.dsm_address_get
                0x00000000       0x60 examples/dfu/CMakeFiles/dfu_no_serial_nrf51422_xxAC_s130_2.0.1.dir/__/__/mesh/access/src/device_state_manager.c.obj
 .text.dsm_address_subscription_count_get
                0x00000000       0x58 examples/dfu/CMakeFiles/dfu_no_serial_nrf51422_xxAC_s130_2.0.1.dir/__/__/mesh/access/src/device_state_manager.c.obj
 .text.dsm_address_subscription_remove
                0x00000000       0x64 examples/dfu/CMakeFiles/dfu_no_serial_nrf51422_xxAC_s130_2.0.1.dir/__/__/mesh/access/src/device_state_manager.c.obj
 .text.dsm_address_get_all
                0x00000000       0x68 examples/dfu/CMakeFiles/dfu_no_serial_nrf51422_xxAC_s130_2.0.1.dir/__/__/mesh/access/src/device_state_manager.c.obj
 .text.dsm_address_handle_get
                0x00000000       0x98 examples/dfu/CMakeFiles/dfu_no_serial_nrf51422_xxAC_s130_2.0.1.dir/__/__/mesh/access/src/device_state_manager.c.obj
 .text.dsm_net_key_index_to_subnet_handle
                0x00000000       0x1c examples/dfu/CMakeFiles/dfu_no_serial_nrf51422_xxAC_s130_2.0.1.dir/__/__/mesh/access/src/device_state_manager.c.obj
 .text.dsm_subnet_handle_get
                0x00000000       0x14 examples/dfu/CMakeFiles/dfu_no_serial_nrf51422_xxAC_s130_2.0.1.dir/__/__/mesh/access/src/device_state_manager.c.obj
 .text.dsm_subnet_handle_to_netkey_index
                0x00000000       0x38 examples/dfu/CMakeFiles/dfu_no_serial_nrf51422_xxAC_s130_2.0.1.dir/__/__/mesh/access/src/device_state_manager.c.obj
 .text.dsm_app_key_index_to_appkey_handle
                0x00000000       0x1c examples/dfu/CMakeFiles/dfu_no_serial_nrf51422_xxAC_s130_2.0.1.dir/__/__/mesh/access/src/device_state_manager.c.obj
 .text.dsm_appkey_handle_get
                0x00000000       0x14 examples/dfu/CMakeFiles/dfu_no_serial_nrf51422_xxAC_s130_2.0.1.dir/__/__/mesh/access/src/device_state_manager.c.obj
 .text.dsm_appkey_handle_to_appkey_index
                0x00000000       0x38 examples/dfu/CMakeFiles/dfu_no_serial_nrf51422_xxAC_s130_2.0.1.dir/__/__/mesh/access/src/device_state_manager.c.obj
 .text.dsm_subnet_add
                0x00000000       0x60 examples/dfu/CMakeFiles/dfu_no_serial_nrf51422_xxAC_s130_2.0.1.dir/__/__/mesh/access/src/device_state_manager.c.obj
 .text.dsm_subnet_update
                0x00000000       0x44 examples/dfu/CMakeFiles/dfu_no_serial_nrf51422_xxAC_s130_2.0.1.dir/__/__/mesh/access/src/device_state_manager.c.obj
 .text.dsm_subnet_get_all
                0x00000000       0x58 examples/dfu/CMakeFiles/dfu_no_serial_nrf51422_xxAC_s130_2.0.1.dir/__/__/mesh/access/src/device_state_manager.c.obj
 .text.dsm_devkey_add
                0x00000000       0x7c examples/dfu/CMakeFiles/dfu_no_serial_nrf51422_xxAC_s130_2.0.1.dir/__/__/mesh/access/src/device_state_manager.c.obj
 .text.dsm_devkey_delete
                0x00000000       0x3c examples/dfu/CMakeFiles/dfu_no_serial_nrf51422_xxAC_s130_2.0.1.dir/__/__/mesh/access/src/device_state_manager.c.obj
 .text.dsm_devkey_handle_get
                0x00000000       0x30 examples/dfu/CMakeFiles/dfu_no_serial_nrf51422_xxAC_s130_2.0.1.dir/__/__/mesh/access/src/device_state_manager.c.obj
 .text.dsm_appkey_add
                0x00000000       0x7c examples/dfu/CMakeFiles/dfu_no_serial_nrf51422_xxAC_s130_2.0.1.dir/__/__/mesh/access/src/device_state_manager.c.obj
 .text.dsm_appkey_update
                0x00000000       0x48 examples/dfu/CMakeFiles/dfu_no_serial_nrf51422_xxAC_s130_2.0.1.dir/__/__/mesh/access/src/device_state_manager.c.obj
 .text.dsm_appkey_delete
                0x00000000       0x34 examples/dfu/CMakeFiles/dfu_no_serial_nrf51422_xxAC_s130_2.0.1.dir/__/__/mesh/access/src/device_state_manager.c.obj
 .text.dsm_subnet_delete
                0x00000000       0xa8 examples/dfu/CMakeFiles/dfu_no_serial_nrf51422_xxAC_s130_2.0.1.dir/__/__/mesh/access/src/device_state_manager.c.obj
 .text.dsm_appkey_get_all
                0x00000000       0x78 examples/dfu/CMakeFiles/dfu_no_serial_nrf51422_xxAC_s130_2.0.1.dir/__/__/mesh/access/src/device_state_manager.c.obj
 .text.dsm_tx_secmat_get
                0x00000000       0xf8 examples/dfu/CMakeFiles/dfu_no_serial_nrf51422_xxAC_s130_2.0.1.dir/__/__/mesh/access/src/device_state_manager.c.obj
 .text.dsm_beacon_secmat_get
                0x00000000       0x38 examples/dfu/CMakeFiles/dfu_no_serial_nrf51422_xxAC_s130_2.0.1.dir/__/__/mesh/access/src/device_state_manager.c.obj
 .text.dsm_proxy_identity_get
                0x00000000        0x4 examples/dfu/CMakeFiles/dfu_no_serial_nrf51422_xxAC_s130_2.0.1.dir/__/__/mesh/access/src/device_state_manager.c.obj
 .bss.m_addr_nonvirtual_needs_flashing
                0x00000000        0x4 examples/dfu/CMakeFiles/dfu_no_serial_nrf51422_xxAC_s130_2.0.1.dir/__/__/mesh/access/src/device_state_manager.c.obj
 .bss.m_addr_unicast_needs_flashing
                0x00000000        0x4 examples/dfu/CMakeFiles/dfu_no_serial_nrf51422_xxAC_s130_2.0.1.dir/__/__/mesh/access/src/device_state_manager.c.obj
 .bss.m_addr_virtual_needs_flashing
                0x00000000        0x4 examples/dfu/CMakeFiles/dfu_no_serial_nrf51422_xxAC_s130_2.0.1.dir/__/__/mesh/access/src/device_state_manager.c.obj
 .bss.m_appkey_needs_flashing
                0x00000000        0x4 examples/dfu/CMakeFiles/dfu_no_serial_nrf51422_xxAC_s130_2.0.1.dir/__/__/mesh/access/src/device_state_manager.c.obj
 .bss.m_devkey_allocated
                0x00000000        0x4 examples/dfu/CMakeFiles/dfu_no_serial_nrf51422_xxAC_s130_2.0.1.dir/__/__/mesh/access/src/device_state_manager.c.obj
 .bss.m_devkey_needs_flashing
                0x00000000        0x4 examples/dfu/CMakeFiles/dfu_no_serial_nrf51422_xxAC_s130_2.0.1.dir/__/__/mesh/access/src/device_state_manager.c.obj
 .bss.m_flash_is_available
                0x00000000        0x1 examples/dfu/CMakeFiles/dfu_no_serial_nrf51422_xxAC_s130_2.0.1.dir/__/__/mesh/access/src/device_state_manager.c.obj
 .bss.m_flash_manager
                0x00000000       0x24 examples/dfu/CMakeFiles/dfu_no_serial_nrf51422_xxAC_s130_2.0.1.dir/__/__/mesh/access/src/device_state_manager.c.obj
 .bss.m_flash_mem_listener_update_all
                0x00000000       0x10 examples/dfu/CMakeFiles/dfu_no_serial_nrf51422_xxAC_s130_2.0.1.dir/__/__/mesh/access/src/device_state_manager.c.obj
 .bss.m_subnet_needs_flashing
                0x00000000        0x4 examples/dfu/CMakeFiles/dfu_no_serial_nrf51422_xxAC_s130_2.0.1.dir/__/__/mesh/access/src/device_state_manager.c.obj
 .data.mem_listener.8095
                0x00000000       0x10 examples/dfu/CMakeFiles/dfu_no_serial_nrf51422_xxAC_s130_2.0.1.dir/__/__/mesh/access/src/device_state_manager.c.obj
 .data.mem_listener.8121
                0x00000000       0x10 examples/dfu/CMakeFiles/dfu_no_serial_nrf51422_xxAC_s130_2.0.1.dir/__/__/mesh/access/src/device_state_manager.c.obj
 .rodata.m_flash_groups
                0x00000000       0xc0 examples/dfu/CMakeFiles/dfu_no_serial_nrf51422_xxAC_s130_2.0.1.dir/__/__/mesh/access/src/device_state_manager.c.obj
 .text          0x00000000        0x0 examples/dfu/CMakeFiles/dfu_no_serial_nrf51422_xxAC_s130_2.0.1.dir/__/__/mesh/prov/src/prov_provisioner.c.obj
 .data          0x00000000        0x0 examples/dfu/CMakeFiles/dfu_no_serial_nrf51422_xxAC_s130_2.0.1.dir/__/__/mesh/prov/src/prov_provisioner.c.obj
 .bss           0x00000000        0x0 examples/dfu/CMakeFiles/dfu_no_serial_nrf51422_xxAC_s130_2.0.1.dir/__/__/mesh/prov/src/prov_provisioner.c.obj
 .text.send_confirmation
                0x00000000       0x34 examples/dfu/CMakeFiles/dfu_no_serial_nrf51422_xxAC_s130_2.0.1.dir/__/__/mesh/prov/src/prov_provisioner.c.obj
 .text.prov_provisioner_cb_link_closed
                0x00000000       0x28 examples/dfu/CMakeFiles/dfu_no_serial_nrf51422_xxAC_s130_2.0.1.dir/__/__/mesh/prov/src/prov_provisioner.c.obj
 .text.prov_provisioner_cb_link_established
                0x00000000       0x44 examples/dfu/CMakeFiles/dfu_no_serial_nrf51422_xxAC_s130_2.0.1.dir/__/__/mesh/prov/src/prov_provisioner.c.obj
 .text.prov_provisioner_cb_ack_received
                0x00000000       0x50 examples/dfu/CMakeFiles/dfu_no_serial_nrf51422_xxAC_s130_2.0.1.dir/__/__/mesh/prov/src/prov_provisioner.c.obj
 .text.request_authentication
                0x00000000       0x98 examples/dfu/CMakeFiles/dfu_no_serial_nrf51422_xxAC_s130_2.0.1.dir/__/__/mesh/prov/src/prov_provisioner.c.obj
 .text.prov_provisioner_pkt_in
                0x00000000      0x2ec examples/dfu/CMakeFiles/dfu_no_serial_nrf51422_xxAC_s130_2.0.1.dir/__/__/mesh/prov/src/prov_provisioner.c.obj
 .text.prov_provisioner_provision
                0x00000000       0x54 examples/dfu/CMakeFiles/dfu_no_serial_nrf51422_xxAC_s130_2.0.1.dir/__/__/mesh/prov/src/prov_provisioner.c.obj
 .text.prov_provisioner_oob_use
                0x00000000       0x8c examples/dfu/CMakeFiles/dfu_no_serial_nrf51422_xxAC_s130_2.0.1.dir/__/__/mesh/prov/src/prov_provisioner.c.obj
 .text.prov_provisioner_auth_data
                0x00000000       0x4c examples/dfu/CMakeFiles/dfu_no_serial_nrf51422_xxAC_s130_2.0.1.dir/__/__/mesh/prov/src/prov_provisioner.c.obj
 .text.prov_provisioner_shared_secret
                0x00000000       0x2c examples/dfu/CMakeFiles/dfu_no_serial_nrf51422_xxAC_s130_2.0.1.dir/__/__/mesh/prov/src/prov_provisioner.c.obj
 .text.prov_provisioner_oob_pubkey
                0x00000000       0x3c examples/dfu/CMakeFiles/dfu_no_serial_nrf51422_xxAC_s130_2.0.1.dir/__/__/mesh/prov/src/prov_provisioner.c.obj
 .rodata.m_prov_callbacks
                0x00000000       0x10 examples/dfu/CMakeFiles/dfu_no_serial_nrf51422_xxAC_s130_2.0.1.dir/__/__/mesh/prov/src/prov_provisioner.c.obj
 .comment       0x00000000       0x80 examples/dfu/CMakeFiles/dfu_no_serial_nrf51422_xxAC_s130_2.0.1.dir/__/__/mesh/prov/src/prov_provisioner.c.obj
 .ARM.attributes
                0x00000000       0x31 examples/dfu/CMakeFiles/dfu_no_serial_nrf51422_xxAC_s130_2.0.1.dir/__/__/mesh/prov/src/prov_provisioner.c.obj
 .text          0x00000000        0x0 examples/dfu/CMakeFiles/dfu_no_serial_nrf51422_xxAC_s130_2.0.1.dir/__/__/mesh/prov/src/prov_provisionee.c.obj
 .data          0x00000000        0x0 examples/dfu/CMakeFiles/dfu_no_serial_nrf51422_xxAC_s130_2.0.1.dir/__/__/mesh/prov/src/prov_provisionee.c.obj
 .bss           0x00000000        0x0 examples/dfu/CMakeFiles/dfu_no_serial_nrf51422_xxAC_s130_2.0.1.dir/__/__/mesh/prov/src/prov_provisionee.c.obj
 .text.complete_provisioning
                0x00000000       0x6c examples/dfu/CMakeFiles/dfu_no_serial_nrf51422_xxAC_s130_2.0.1.dir/__/__/mesh/prov/src/prov_provisionee.c.obj
 .text.prov_provisionee_cb_link_closed
                0x00000000       0x34 examples/dfu/CMakeFiles/dfu_no_serial_nrf51422_xxAC_s130_2.0.1.dir/__/__/mesh/prov/src/prov_provisionee.c.obj
 .text.prov_provisionee_cb_link_established
                0x00000000       0x20 examples/dfu/CMakeFiles/dfu_no_serial_nrf51422_xxAC_s130_2.0.1.dir/__/__/mesh/prov/src/prov_provisionee.c.obj
 .text.send_failed
                0x00000000       0x40 examples/dfu/CMakeFiles/dfu_no_serial_nrf51422_xxAC_s130_2.0.1.dir/__/__/mesh/prov/src/prov_provisionee.c.obj
 .text.request_authentication
                0x00000000       0x94 examples/dfu/CMakeFiles/dfu_no_serial_nrf51422_xxAC_s130_2.0.1.dir/__/__/mesh/prov/src/prov_provisionee.c.obj
 .text.start_authentication
                0x00000000       0x60 examples/dfu/CMakeFiles/dfu_no_serial_nrf51422_xxAC_s130_2.0.1.dir/__/__/mesh/prov/src/prov_provisionee.c.obj
 .text.prov_provisionee_pkt_in
                0x00000000      0x314 examples/dfu/CMakeFiles/dfu_no_serial_nrf51422_xxAC_s130_2.0.1.dir/__/__/mesh/prov/src/prov_provisionee.c.obj
 .text.prov_provisionee_cb_ack_received
                0x00000000       0xb8 examples/dfu/CMakeFiles/dfu_no_serial_nrf51422_xxAC_s130_2.0.1.dir/__/__/mesh/prov/src/prov_provisionee.c.obj
 .text.prov_provisionee_init
                0x00000000       0x48 examples/dfu/CMakeFiles/dfu_no_serial_nrf51422_xxAC_s130_2.0.1.dir/__/__/mesh/prov/src/prov_provisionee.c.obj
 .text.prov_provisionee_auth_data
                0x00000000       0x88 examples/dfu/CMakeFiles/dfu_no_serial_nrf51422_xxAC_s130_2.0.1.dir/__/__/mesh/prov/src/prov_provisionee.c.obj
 .text.prov_provisionee_shared_secret
                0x00000000       0x2c examples/dfu/CMakeFiles/dfu_no_serial_nrf51422_xxAC_s130_2.0.1.dir/__/__/mesh/prov/src/prov_provisionee.c.obj
 .rodata.m_prov_callbacks
                0x00000000       0x10 examples/dfu/CMakeFiles/dfu_no_serial_nrf51422_xxAC_s130_2.0.1.dir/__/__/mesh/prov/src/prov_provisionee.c.obj
 .rodata.prov_provisionee_cb_ack_received.str1.1
                0x00000000       0x53 examples/dfu/CMakeFiles/dfu_no_serial_nrf51422_xxAC_s130_2.0.1.dir/__/__/mesh/prov/src/prov_provisionee.c.obj
 .comment       0x00000000       0x80 examples/dfu/CMakeFiles/dfu_no_serial_nrf51422_xxAC_s130_2.0.1.dir/__/__/mesh/prov/src/prov_provisionee.c.obj
 .ARM.attributes
                0x00000000       0x31 examples/dfu/CMakeFiles/dfu_no_serial_nrf51422_xxAC_s130_2.0.1.dir/__/__/mesh/prov/src/prov_provisionee.c.obj
 .text          0x00000000        0x0 examples/dfu/CMakeFiles/dfu_no_serial_nrf51422_xxAC_s130_2.0.1.dir/__/__/mesh/prov/src/nrf_mesh_prov.c.obj
 .data          0x00000000        0x0 examples/dfu/CMakeFiles/dfu_no_serial_nrf51422_xxAC_s130_2.0.1.dir/__/__/mesh/prov/src/nrf_mesh_prov.c.obj
 .bss           0x00000000        0x0 examples/dfu/CMakeFiles/dfu_no_serial_nrf51422_xxAC_s130_2.0.1.dir/__/__/mesh/prov/src/nrf_mesh_prov.c.obj
 .text.nrf_mesh_prov_init
                0x00000000       0x34 examples/dfu/CMakeFiles/dfu_no_serial_nrf51422_xxAC_s130_2.0.1.dir/__/__/mesh/prov/src/nrf_mesh_prov.c.obj
 .text.nrf_mesh_prov_generate_keys
                0x00000000        0x8 examples/dfu/CMakeFiles/dfu_no_serial_nrf51422_xxAC_s130_2.0.1.dir/__/__/mesh/prov/src/nrf_mesh_prov.c.obj
 .text.nrf_mesh_prov_listen
                0x00000000       0x26 examples/dfu/CMakeFiles/dfu_no_serial_nrf51422_xxAC_s130_2.0.1.dir/__/__/mesh/prov/src/nrf_mesh_prov.c.obj
 .text.nrf_mesh_prov_provision
                0x00000000       0x5c examples/dfu/CMakeFiles/dfu_no_serial_nrf51422_xxAC_s130_2.0.1.dir/__/__/mesh/prov/src/nrf_mesh_prov.c.obj
 .text.nrf_mesh_prov_oob_use
                0x00000000       0x1c examples/dfu/CMakeFiles/dfu_no_serial_nrf51422_xxAC_s130_2.0.1.dir/__/__/mesh/prov/src/nrf_mesh_prov.c.obj
 .text.nrf_mesh_prov_auth_data_provide
                0x00000000       0x1c examples/dfu/CMakeFiles/dfu_no_serial_nrf51422_xxAC_s130_2.0.1.dir/__/__/mesh/prov/src/nrf_mesh_prov.c.obj
 .text.nrf_mesh_prov_shared_secret_provide
                0x00000000       0x1c examples/dfu/CMakeFiles/dfu_no_serial_nrf51422_xxAC_s130_2.0.1.dir/__/__/mesh/prov/src/nrf_mesh_prov.c.obj
 .text.nrf_mesh_prov_pubkey_provide
                0x00000000       0x1c examples/dfu/CMakeFiles/dfu_no_serial_nrf51422_xxAC_s130_2.0.1.dir/__/__/mesh/prov/src/nrf_mesh_prov.c.obj
 .comment       0x00000000       0x80 examples/dfu/CMakeFiles/dfu_no_serial_nrf51422_xxAC_s130_2.0.1.dir/__/__/mesh/prov/src/nrf_mesh_prov.c.obj
 .ARM.attributes
                0x00000000       0x31 examples/dfu/CMakeFiles/dfu_no_serial_nrf51422_xxAC_s130_2.0.1.dir/__/__/mesh/prov/src/nrf_mesh_prov.c.obj
 .text          0x00000000        0x0 examples/dfu/CMakeFiles/dfu_no_serial_nrf51422_xxAC_s130_2.0.1.dir/__/__/mesh/prov/src/provisioning.c.obj
 .data          0x00000000        0x0 examples/dfu/CMakeFiles/dfu_no_serial_nrf51422_xxAC_s130_2.0.1.dir/__/__/mesh/prov/src/provisioning.c.obj
 .bss           0x00000000        0x0 examples/dfu/CMakeFiles/dfu_no_serial_nrf51422_xxAC_s130_2.0.1.dir/__/__/mesh/prov/src/provisioning.c.obj
 .text.send_data
                0x00000000       0x48 examples/dfu/CMakeFiles/dfu_no_serial_nrf51422_xxAC_s130_2.0.1.dir/__/__/mesh/prov/src/provisioning.c.obj
 .text.prov_packet_length_valid
                0x00000000       0x20 examples/dfu/CMakeFiles/dfu_no_serial_nrf51422_xxAC_s130_2.0.1.dir/__/__/mesh/prov/src/provisioning.c.obj
 .text.prov_init
                0x00000000       0x34 examples/dfu/CMakeFiles/dfu_no_serial_nrf51422_xxAC_s130_2.0.1.dir/__/__/mesh/prov/src/provisioning.c.obj
 .text.prov_listen_start
                0x00000000       0x14 examples/dfu/CMakeFiles/dfu_no_serial_nrf51422_xxAC_s130_2.0.1.dir/__/__/mesh/prov/src/provisioning.c.obj
 .text.prov_listen_stop
                0x00000000        0xe examples/dfu/CMakeFiles/dfu_no_serial_nrf51422_xxAC_s130_2.0.1.dir/__/__/mesh/prov/src/provisioning.c.obj
 .text.prov_link_open
                0x00000000       0x14 examples/dfu/CMakeFiles/dfu_no_serial_nrf51422_xxAC_s130_2.0.1.dir/__/__/mesh/prov/src/provisioning.c.obj
 .text.prov_link_close
                0x00000000        0xe examples/dfu/CMakeFiles/dfu_no_serial_nrf51422_xxAC_s130_2.0.1.dir/__/__/mesh/prov/src/provisioning.c.obj
 .text.prov_tx_invite
                0x00000000       0x24 examples/dfu/CMakeFiles/dfu_no_serial_nrf51422_xxAC_s130_2.0.1.dir/__/__/mesh/prov/src/provisioning.c.obj
 .text.prov_tx_capabilities
                0x00000000       0x1c examples/dfu/CMakeFiles/dfu_no_serial_nrf51422_xxAC_s130_2.0.1.dir/__/__/mesh/prov/src/provisioning.c.obj
 .text.prov_tx_start
                0x00000000       0x1e examples/dfu/CMakeFiles/dfu_no_serial_nrf51422_xxAC_s130_2.0.1.dir/__/__/mesh/prov/src/provisioning.c.obj
 .text.prov_tx_public_key
                0x00000000       0x24 examples/dfu/CMakeFiles/dfu_no_serial_nrf51422_xxAC_s130_2.0.1.dir/__/__/mesh/prov/src/provisioning.c.obj
 .text.prov_tx_input_complete
                0x00000000       0x10 examples/dfu/CMakeFiles/dfu_no_serial_nrf51422_xxAC_s130_2.0.1.dir/__/__/mesh/prov/src/provisioning.c.obj
 .text.prov_tx_confirmation
                0x00000000       0x24 examples/dfu/CMakeFiles/dfu_no_serial_nrf51422_xxAC_s130_2.0.1.dir/__/__/mesh/prov/src/provisioning.c.obj
 .text.prov_tx_random
                0x00000000       0x24 examples/dfu/CMakeFiles/dfu_no_serial_nrf51422_xxAC_s130_2.0.1.dir/__/__/mesh/prov/src/provisioning.c.obj
 .text.prov_tx_complete
                0x00000000       0x10 examples/dfu/CMakeFiles/dfu_no_serial_nrf51422_xxAC_s130_2.0.1.dir/__/__/mesh/prov/src/provisioning.c.obj
 .text.prov_tx_failed
                0x00000000       0x14 examples/dfu/CMakeFiles/dfu_no_serial_nrf51422_xxAC_s130_2.0.1.dir/__/__/mesh/prov/src/provisioning.c.obj
 .text.prov_tx_data
                0x00000000        0xa examples/dfu/CMakeFiles/dfu_no_serial_nrf51422_xxAC_s130_2.0.1.dir/__/__/mesh/prov/src/provisioning.c.obj
 .text.prov_tx  0x00000000        0x8 examples/dfu/CMakeFiles/dfu_no_serial_nrf51422_xxAC_s130_2.0.1.dir/__/__/mesh/prov/src/provisioning.c.obj
 .rodata.pdu_sizes.8283
                0x00000000        0xa examples/dfu/CMakeFiles/dfu_no_serial_nrf51422_xxAC_s130_2.0.1.dir/__/__/mesh/prov/src/provisioning.c.obj
 .text          0x00000000        0x0 examples/dfu/CMakeFiles/dfu_no_serial_nrf51422_xxAC_s130_2.0.1.dir/__/__/mesh/prov/src/prov_beacon.c.obj
 .data          0x00000000        0x0 examples/dfu/CMakeFiles/dfu_no_serial_nrf51422_xxAC_s130_2.0.1.dir/__/__/mesh/prov/src/prov_beacon.c.obj
 .bss           0x00000000        0x0 examples/dfu/CMakeFiles/dfu_no_serial_nrf51422_xxAC_s130_2.0.1.dir/__/__/mesh/prov/src/prov_beacon.c.obj
 .text.prov_beacon_unprov_build
                0x00000000       0x52 examples/dfu/CMakeFiles/dfu_no_serial_nrf51422_xxAC_s130_2.0.1.dir/__/__/mesh/prov/src/prov_beacon.c.obj
 .text.prov_beacon_unprov_report
                0x00000000        0xc examples/dfu/CMakeFiles/dfu_no_serial_nrf51422_xxAC_s130_2.0.1.dir/__/__/mesh/prov/src/prov_beacon.c.obj
 .text          0x00000000        0x0 examples/dfu/CMakeFiles/dfu_no_serial_nrf51422_xxAC_s130_2.0.1.dir/__/__/mesh/prov/src/prov_utils.c.obj
 .data          0x00000000        0x0 examples/dfu/CMakeFiles/dfu_no_serial_nrf51422_xxAC_s130_2.0.1.dir/__/__/mesh/prov/src/prov_utils.c.obj
 .bss           0x00000000        0x0 examples/dfu/CMakeFiles/dfu_no_serial_nrf51422_xxAC_s130_2.0.1.dir/__/__/mesh/prov/src/prov_utils.c.obj
 .text.oob_gen_alphanumeric
                0x00000000       0x34 examples/dfu/CMakeFiles/dfu_no_serial_nrf51422_xxAC_s130_2.0.1.dir/__/__/mesh/prov/src/prov_utils.c.obj
 .text.oob_gen_numeric
                0x00000000       0x30 examples/dfu/CMakeFiles/dfu_no_serial_nrf51422_xxAC_s130_2.0.1.dir/__/__/mesh/prov/src/prov_utils.c.obj
 .text.prov_utils_opt_set
                0x00000000       0x20 examples/dfu/CMakeFiles/dfu_no_serial_nrf51422_xxAC_s130_2.0.1.dir/__/__/mesh/prov/src/prov_utils.c.obj
 .text.prov_utils_opt_get
                0x00000000       0x1c examples/dfu/CMakeFiles/dfu_no_serial_nrf51422_xxAC_s130_2.0.1.dir/__/__/mesh/prov/src/prov_utils.c.obj
 .text.prov_utils_use_ecdh_offloading
                0x00000000        0xc examples/dfu/CMakeFiles/dfu_no_serial_nrf51422_xxAC_s130_2.0.1.dir/__/__/mesh/prov/src/prov_utils.c.obj
 .text.prov_utils_authentication_values_derive
                0x00000000       0xc0 examples/dfu/CMakeFiles/dfu_no_serial_nrf51422_xxAC_s130_2.0.1.dir/__/__/mesh/prov/src/prov_utils.c.obj
 .text.prov_utils_keys_generate
                0x00000000       0x20 examples/dfu/CMakeFiles/dfu_no_serial_nrf51422_xxAC_s130_2.0.1.dir/__/__/mesh/prov/src/prov_utils.c.obj
 .text.prov_utils_derive_keys
                0x00000000       0xc0 examples/dfu/CMakeFiles/dfu_no_serial_nrf51422_xxAC_s130_2.0.1.dir/__/__/mesh/prov/src/prov_utils.c.obj
 .text.prov_utils_calculate_shared_secret
                0x00000000       0x3e examples/dfu/CMakeFiles/dfu_no_serial_nrf51422_xxAC_s130_2.0.1.dir/__/__/mesh/prov/src/prov_utils.c.obj
 .text.prov_utils_generate_oob_data
                0x00000000       0x9c examples/dfu/CMakeFiles/dfu_no_serial_nrf51422_xxAC_s130_2.0.1.dir/__/__/mesh/prov/src/prov_utils.c.obj
 .text.prov_utils_confirmation_check
                0x00000000       0x70 examples/dfu/CMakeFiles/dfu_no_serial_nrf51422_xxAC_s130_2.0.1.dir/__/__/mesh/prov/src/prov_utils.c.obj
 .bss.m_offload_ecdh
                0x00000000        0x1 examples/dfu/CMakeFiles/dfu_no_serial_nrf51422_xxAC_s130_2.0.1.dir/__/__/mesh/prov/src/prov_utils.c.obj
 .rodata.alphanumeric.8387
                0x00000000       0x25 examples/dfu/CMakeFiles/dfu_no_serial_nrf51422_xxAC_s130_2.0.1.dir/__/__/mesh/prov/src/prov_utils.c.obj
 .rodata.numeric_max.8381
                0x00000000       0x24 examples/dfu/CMakeFiles/dfu_no_serial_nrf51422_xxAC_s130_2.0.1.dir/__/__/mesh/prov/src/prov_utils.c.obj
 .rodata.prov_utils_authentication_values_derive.str1.1
                0x00000000        0x5 examples/dfu/CMakeFiles/dfu_no_serial_nrf51422_xxAC_s130_2.0.1.dir/__/__/mesh/prov/src/prov_utils.c.obj
 .rodata.prov_utils_derive_keys.str1.1
                0x00000000        0xf examples/dfu/CMakeFiles/dfu_no_serial_nrf51422_xxAC_s130_2.0.1.dir/__/__/mesh/prov/src/prov_utils.c.obj
 .comment       0x00000000       0x80 examples/dfu/CMakeFiles/dfu_no_serial_nrf51422_xxAC_s130_2.0.1.dir/__/__/mesh/prov/src/prov_utils.c.obj
 .ARM.attributes
                0x00000000       0x31 examples/dfu/CMakeFiles/dfu_no_serial_nrf51422_xxAC_s130_2.0.1.dir/__/__/mesh/prov/src/prov_utils.c.obj
 .text          0x00000000        0x0 examples/dfu/CMakeFiles/dfu_no_serial_nrf51422_xxAC_s130_2.0.1.dir/__/__/mesh/prov/src/prov_bearer_adv.c.obj
 .data          0x00000000        0x0 examples/dfu/CMakeFiles/dfu_no_serial_nrf51422_xxAC_s130_2.0.1.dir/__/__/mesh/prov/src/prov_bearer_adv.c.obj
 .bss           0x00000000        0x0 examples/dfu/CMakeFiles/dfu_no_serial_nrf51422_xxAC_s130_2.0.1.dir/__/__/mesh/prov/src/prov_bearer_adv.c.obj
 .text.prov_bearer_adv_listen_stop
                0x00000000       0x38 examples/dfu/CMakeFiles/dfu_no_serial_nrf51422_xxAC_s130_2.0.1.dir/__/__/mesh/prov/src/prov_bearer_adv.c.obj
 .text.prov_buffer_tx
                0x00000000      0x168 examples/dfu/CMakeFiles/dfu_no_serial_nrf51422_xxAC_s130_2.0.1.dir/__/__/mesh/prov/src/prov_bearer_adv.c.obj
 .text.link_timeout_cb
                0x00000000        0xc examples/dfu/CMakeFiles/dfu_no_serial_nrf51422_xxAC_s130_2.0.1.dir/__/__/mesh/prov/src/prov_bearer_adv.c.obj
 .text.tx_complete_cb
                0x00000000       0x24 examples/dfu/CMakeFiles/dfu_no_serial_nrf51422_xxAC_s130_2.0.1.dir/__/__/mesh/prov/src/prov_bearer_adv.c.obj
 .text.tx_retry_cb
                0x00000000       0xd4 examples/dfu/CMakeFiles/dfu_no_serial_nrf51422_xxAC_s130_2.0.1.dir/__/__/mesh/prov/src/prov_bearer_adv.c.obj
 .text.add_active_bearer
                0x00000000       0x88 examples/dfu/CMakeFiles/dfu_no_serial_nrf51422_xxAC_s130_2.0.1.dir/__/__/mesh/prov/src/prov_bearer_adv.c.obj
 .text.prov_bearer_adv_link_open
                0x00000000       0xf0 examples/dfu/CMakeFiles/dfu_no_serial_nrf51422_xxAC_s130_2.0.1.dir/__/__/mesh/prov/src/prov_bearer_adv.c.obj
 .text.async_process
                0x00000000       0x58 examples/dfu/CMakeFiles/dfu_no_serial_nrf51422_xxAC_s130_2.0.1.dir/__/__/mesh/prov/src/prov_bearer_adv.c.obj
 .text.prov_bearer_adv_listen
                0x00000000       0xf4 examples/dfu/CMakeFiles/dfu_no_serial_nrf51422_xxAC_s130_2.0.1.dir/__/__/mesh/prov/src/prov_bearer_adv.c.obj
 .text.prov_bearer_adv_tx
                0x00000000       0xac examples/dfu/CMakeFiles/dfu_no_serial_nrf51422_xxAC_s130_2.0.1.dir/__/__/mesh/prov/src/prov_bearer_adv.c.obj
 .text.prov_bearer_adv_interface_get
                0x00000000       0x24 examples/dfu/CMakeFiles/dfu_no_serial_nrf51422_xxAC_s130_2.0.1.dir/__/__/mesh/prov/src/prov_bearer_adv.c.obj
 .data.m_async_process_flag
                0x00000000        0x4 examples/dfu/CMakeFiles/dfu_no_serial_nrf51422_xxAC_s130_2.0.1.dir/__/__/mesh/prov/src/prov_bearer_adv.c.obj
 .rodata.add_active_bearer.str1.1
                0x00000000       0x2c examples/dfu/CMakeFiles/dfu_no_serial_nrf51422_xxAC_s130_2.0.1.dir/__/__/mesh/prov/src/prov_bearer_adv.c.obj
 .rodata.interface.8374
                0x00000000       0x14 examples/dfu/CMakeFiles/dfu_no_serial_nrf51422_xxAC_s130_2.0.1.dir/__/__/mesh/prov/src/prov_bearer_adv.c.obj
 .text          0x00000000        0x0 examples/dfu/CMakeFiles/dfu_no_serial_nrf51422_xxAC_s130_2.0.1.dir/__/__/mesh/dfu/src/nrf_mesh_dfu.c.obj
 .data          0x00000000        0x0 examples/dfu/CMakeFiles/dfu_no_serial_nrf51422_xxAC_s130_2.0.1.dir/__/__/mesh/dfu/src/nrf_mesh_dfu.c.obj
 .bss           0x00000000        0x0 examples/dfu/CMakeFiles/dfu_no_serial_nrf51422_xxAC_s130_2.0.1.dir/__/__/mesh/dfu/src/nrf_mesh_dfu.c.obj
 .text.nrf_mesh_dfu_jump_to_bootloader
                0x00000000       0x40 examples/dfu/CMakeFiles/dfu_no_serial_nrf51422_xxAC_s130_2.0.1.dir/__/__/mesh/dfu/src/nrf_mesh_dfu.c.obj
 .text.nrf_mesh_dfu_state_get
                0x00000000       0x40 examples/dfu/CMakeFiles/dfu_no_serial_nrf51422_xxAC_s130_2.0.1.dir/__/__/mesh/dfu/src/nrf_mesh_dfu.c.obj
 .text.nrf_mesh_dfu_abort
                0x00000000       0x2c examples/dfu/CMakeFiles/dfu_no_serial_nrf51422_xxAC_s130_2.0.1.dir/__/__/mesh/dfu/src/nrf_mesh_dfu.c.obj
 .text.nrf_mesh_dfu_bank_info_get
                0x00000000       0x2c examples/dfu/CMakeFiles/dfu_no_serial_nrf51422_xxAC_s130_2.0.1.dir/__/__/mesh/dfu/src/nrf_mesh_dfu.c.obj
 .text          0x00000000        0x0 examples/dfu/CMakeFiles/dfu_no_serial_nrf51422_xxAC_s130_2.0.1.dir/__/nrf_mesh_weak.c.obj
 .data          0x00000000        0x0 examples/dfu/CMakeFiles/dfu_no_serial_nrf51422_xxAC_s130_2.0.1.dir/__/nrf_mesh_weak.c.obj
 .bss           0x00000000        0x0 examples/dfu/CMakeFiles/dfu_no_serial_nrf51422_xxAC_s130_2.0.1.dir/__/nrf_mesh_weak.c.obj
 .text._weak_handler
                0x00000000        0x4 examples/dfu/CMakeFiles/dfu_no_serial_nrf51422_xxAC_s130_2.0.1.dir/__/nrf_mesh_weak.c.obj
 .text._weak_handler_ptr
                0x00000000        0x4 examples/dfu/CMakeFiles/dfu_no_serial_nrf51422_xxAC_s130_2.0.1.dir/__/nrf_mesh_weak.c.obj
 .comment       0x00000000       0x80 examples/dfu/CMakeFiles/dfu_no_serial_nrf51422_xxAC_s130_2.0.1.dir/__/nrf_mesh_weak.c.obj
 .ARM.attributes
                0x00000000       0x31 examples/dfu/CMakeFiles/dfu_no_serial_nrf51422_xxAC_s130_2.0.1.dir/__/nrf_mesh_weak.c.obj
 .text          0x00000000        0x0 examples/dfu/CMakeFiles/dfu_no_serial_nrf51422_xxAC_s130_2.0.1.dir/__/__/external/nRF5_SDK_14.0.0_3bcc1f7/components/toolchain/system_nrf51.c.obj
 .data          0x00000000        0x0 examples/dfu/CMakeFiles/dfu_no_serial_nrf51422_xxAC_s130_2.0.1.dir/__/__/external/nRF5_SDK_14.0.0_3bcc1f7/components/toolchain/system_nrf51.c.obj
 .bss           0x00000000        0x0 examples/dfu/CMakeFiles/dfu_no_serial_nrf51422_xxAC_s130_2.0.1.dir/__/__/external/nRF5_SDK_14.0.0_3bcc1f7/components/toolchain/system_nrf51.c.obj
 .text.SystemCoreClockUpdate
                0x00000000       0x10 examples/dfu/CMakeFiles/dfu_no_serial_nrf51422_xxAC_s130_2.0.1.dir/__/__/external/nRF5_SDK_14.0.0_3bcc1f7/components/toolchain/system_nrf51.c.obj
 .data.SystemCoreClock
                0x00000000        0x4 examples/dfu/CMakeFiles/dfu_no_serial_nrf51422_xxAC_s130_2.0.1.dir/__/__/external/nRF5_SDK_14.0.0_3bcc1f7/components/toolchain/system_nrf51.c.obj
 .data          0x00000000        0x0 examples/dfu/CMakeFiles/dfu_no_serial_nrf51422_xxAC_s130_2.0.1.dir/__/__/external/nRF5_SDK_14.0.0_3bcc1f7/components/toolchain/gcc/gcc_startup_nrf51.S.obj
 .bss           0x00000000        0x0 examples/dfu/CMakeFiles/dfu_no_serial_nrf51422_xxAC_s130_2.0.1.dir/__/__/external/nRF5_SDK_14.0.0_3bcc1f7/components/toolchain/gcc/gcc_startup_nrf51.S.obj
 .text          0x00000000        0x0 mesh/core/libmesh_core_nrf51422_xxAC.a(nrf_mesh_configure.c.obj)
 .data          0x00000000        0x0 mesh/core/libmesh_core_nrf51422_xxAC.a(nrf_mesh_configure.c.obj)
 .bss           0x00000000        0x0 mesh/core/libmesh_core_nrf51422_xxAC.a(nrf_mesh_configure.c.obj)
 .text.nrf_mesh_configure_device_uuid_set
                0x00000000       0x14 mesh/core/libmesh_core_nrf51422_xxAC.a(nrf_mesh_configure.c.obj)
 .text          0x00000000        0x0 mesh/core/libmesh_core_nrf51422_xxAC.a(event.c.obj)
 .data          0x00000000        0x0 mesh/core/libmesh_core_nrf51422_xxAC.a(event.c.obj)
 .bss           0x00000000        0x0 mesh/core/libmesh_core_nrf51422_xxAC.a(event.c.obj)
 .text.event_handler_remove
                0x00000000       0x58 mesh/core/libmesh_core_nrf51422_xxAC.a(event.c.obj)
 .text          0x00000000        0x0 mesh/core/libmesh_core_nrf51422_xxAC.a(net_state.c.obj)
 .data          0x00000000        0x0 mesh/core/libmesh_core_nrf51422_xxAC.a(net_state.c.obj)
 .bss           0x00000000        0x0 mesh/core/libmesh_core_nrf51422_xxAC.a(net_state.c.obj)
 .text.net_state_reset
                0x00000000       0x3c mesh/core/libmesh_core_nrf51422_xxAC.a(net_state.c.obj)
 .text.net_state_iv_update_test_mode_set
                0x00000000        0xc mesh/core/libmesh_core_nrf51422_xxAC.a(net_state.c.obj)
 .data.mem_listener.7351
                0x00000000       0x10 mesh/core/libmesh_core_nrf51422_xxAC.a(net_state.c.obj)
 .text          0x00000000        0x0 mesh/core/libmesh_core_nrf51422_xxAC.a(mesh_flash.c.obj)
 .data          0x00000000        0x0 mesh/core/libmesh_core_nrf51422_xxAC.a(mesh_flash.c.obj)
 .bss           0x00000000        0x0 mesh/core/libmesh_core_nrf51422_xxAC.a(mesh_flash.c.obj)
 .text.mesh_flash_op_available_slots
                0x00000000       0x2c mesh/core/libmesh_core_nrf51422_xxAC.a(mesh_flash.c.obj)
 .text          0x00000000        0x0 mesh/core/libmesh_core_nrf51422_xxAC.a(nrf_mesh_utils.c.obj)
 .data          0x00000000        0x0 mesh/core/libmesh_core_nrf51422_xxAC.a(nrf_mesh_utils.c.obj)
 .bss           0x00000000        0x0 mesh/core/libmesh_core_nrf51422_xxAC.a(nrf_mesh_utils.c.obj)
 .text.nrf_mesh_rand_get
                0x00000000       0x14 mesh/core/libmesh_core_nrf51422_xxAC.a(nrf_mesh_utils.c.obj)
 .text.nrf_mesh_gap_address_type_get
                0x00000000       0x40 mesh/core/libmesh_core_nrf51422_xxAC.a(nrf_mesh_utils.c.obj)
 .text          0x00000000        0x0 mesh/core/libmesh_core_nrf51422_xxAC.a(nrf_mesh.c.obj)
 .data          0x00000000        0x0 mesh/core/libmesh_core_nrf51422_xxAC.a(nrf_mesh.c.obj)
 .bss           0x00000000        0x0 mesh/core/libmesh_core_nrf51422_xxAC.a(nrf_mesh.c.obj)
 .text.nrf_mesh_disable
                0x00000000       0x28 mesh/core/libmesh_core_nrf51422_xxAC.a(nrf_mesh.c.obj)
 .text.nrf_mesh_packet_send
                0x00000000        0x8 mesh/core/libmesh_core_nrf51422_xxAC.a(nrf_mesh.c.obj)
 .text.nrf_mesh_evt_handler_remove
                0x00000000        0x8 mesh/core/libmesh_core_nrf51422_xxAC.a(nrf_mesh.c.obj)
 .text.nrf_mesh_rx_cb_set
                0x00000000        0xc mesh/core/libmesh_core_nrf51422_xxAC.a(nrf_mesh.c.obj)
 .text.nrf_mesh_rx_cb_clear
                0x00000000        0xc mesh/core/libmesh_core_nrf51422_xxAC.a(nrf_mesh.c.obj)
 .text          0x00000000        0x0 mesh/core/libmesh_core_nrf51422_xxAC.a(hal.c.obj)
 .data          0x00000000        0x0 mesh/core/libmesh_core_nrf51422_xxAC.a(hal.c.obj)
 .bss           0x00000000        0x0 mesh/core/libmesh_core_nrf51422_xxAC.a(hal.c.obj)
 .text.sd_power_reset_reason_clr
                0x00000000        0x4 mesh/core/libmesh_core_nrf51422_xxAC.a(hal.c.obj)
 .text.sd_power_gpregret_set
                0x00000000        0x4 mesh/core/libmesh_core_nrf51422_xxAC.a(hal.c.obj)
 .text.hal_device_reset
                0x00000000       0x2c mesh/core/libmesh_core_nrf51422_xxAC.a(hal.c.obj)
 .text          0x00000000        0x0 mesh/core/libmesh_core_nrf51422_xxAC.a(timer_scheduler.c.obj)
 .data          0x00000000        0x0 mesh/core/libmesh_core_nrf51422_xxAC.a(timer_scheduler.c.obj)
 .bss           0x00000000        0x0 mesh/core/libmesh_core_nrf51422_xxAC.a(timer_scheduler.c.obj)
 .text          0x00000000        0x0 mesh/core/libmesh_core_nrf51422_xxAC.a(timer.c.obj)
 .data          0x00000000        0x0 mesh/core/libmesh_core_nrf51422_xxAC.a(timer.c.obj)
 .bss           0x00000000        0x0 mesh/core/libmesh_core_nrf51422_xxAC.a(timer.c.obj)
 .text.timer_order_cb_ppi
                0x00000000       0xc4 mesh/core/libmesh_core_nrf51422_xxAC.a(timer.c.obj)
 .text.timer_order_ppi
                0x00000000       0x80 mesh/core/libmesh_core_nrf51422_xxAC.a(timer.c.obj)
 .text.timer_abort
                0x00000000       0x7c mesh/core/libmesh_core_nrf51422_xxAC.a(timer.c.obj)
 .text          0x00000000        0x0 mesh/core/libmesh_core_nrf51422_xxAC.a(ticker.c.obj)
 .data          0x00000000        0x0 mesh/core/libmesh_core_nrf51422_xxAC.a(ticker.c.obj)
 .bss           0x00000000        0x0 mesh/core/libmesh_core_nrf51422_xxAC.a(ticker.c.obj)
 .text.ticker_get
                0x00000000        0xc mesh/core/libmesh_core_nrf51422_xxAC.a(ticker.c.obj)
 .text          0x00000000        0x0 mesh/core/libmesh_core_nrf51422_xxAC.a(rand.c.obj)
 .data          0x00000000        0x0 mesh/core/libmesh_core_nrf51422_xxAC.a(rand.c.obj)
 .bss           0x00000000        0x0 mesh/core/libmesh_core_nrf51422_xxAC.a(rand.c.obj)
 .text          0x00000000        0x0 mesh/core/libmesh_core_nrf51422_xxAC.a(timeslot.c.obj)
 .data          0x00000000        0x0 mesh/core/libmesh_core_nrf51422_xxAC.a(timeslot.c.obj)
 .bss           0x00000000        0x0 mesh/core/libmesh_core_nrf51422_xxAC.a(timeslot.c.obj)
 .text.timeslot_end_time_get
                0x00000000       0x18 mesh/core/libmesh_core_nrf51422_xxAC.a(timeslot.c.obj)
 .text.timeslot_is_in_ts
                0x00000000        0xc mesh/core/libmesh_core_nrf51422_xxAC.a(timeslot.c.obj)
 .text.timeslot_restart
                0x00000000       0x14 mesh/core/libmesh_core_nrf51422_xxAC.a(timeslot.c.obj)
 .text          0x00000000        0x0 mesh/core/libmesh_core_nrf51422_xxAC.a(bearer_event.c.obj)
 .data          0x00000000        0x0 mesh/core/libmesh_core_nrf51422_xxAC.a(bearer_event.c.obj)
 .bss           0x00000000        0x0 mesh/core/libmesh_core_nrf51422_xxAC.a(bearer_event.c.obj)
 .text.bearer_event_generic_post
                0x00000000       0x34 mesh/core/libmesh_core_nrf51422_xxAC.a(bearer_event.c.obj)
 .text.bearer_event_timer_sch_post
                0x00000000       0x38 mesh/core/libmesh_core_nrf51422_xxAC.a(bearer_event.c.obj)
 .text          0x00000000        0x0 mesh/core/libmesh_core_nrf51422_xxAC.a(enc.c.obj)
 .data          0x00000000        0x0 mesh/core/libmesh_core_nrf51422_xxAC.a(enc.c.obj)
 .bss           0x00000000        0x0 mesh/core/libmesh_core_nrf51422_xxAC.a(enc.c.obj)
 .text.enc_key_generate
                0x00000000        0xa mesh/core/libmesh_core_nrf51422_xxAC.a(enc.c.obj)
 .text.enc_k1   0x00000000       0x58 mesh/core/libmesh_core_nrf51422_xxAC.a(enc.c.obj)
 .text.enc_k2   0x00000000      0x110 mesh/core/libmesh_core_nrf51422_xxAC.a(enc.c.obj)
 .text.enc_k3   0x00000000       0x70 mesh/core/libmesh_core_nrf51422_xxAC.a(enc.c.obj)
 .text.enc_k4   0x00000000       0x74 mesh/core/libmesh_core_nrf51422_xxAC.a(enc.c.obj)
 .rodata        0x00000000       0x15 mesh/core/libmesh_core_nrf51422_xxAC.a(enc.c.obj)
 .text          0x00000000        0x0 mesh/core/libmesh_core_nrf51422_xxAC.a(network.c.obj)
 .data          0x00000000        0x0 mesh/core/libmesh_core_nrf51422_xxAC.a(network.c.obj)
 .bss           0x00000000        0x0 mesh/core/libmesh_core_nrf51422_xxAC.a(network.c.obj)
 .text.network_opt_set
                0x00000000       0x50 mesh/core/libmesh_core_nrf51422_xxAC.a(network.c.obj)
 .text.network_opt_get
                0x00000000       0x48 mesh/core/libmesh_core_nrf51422_xxAC.a(network.c.obj)
 .text.network_packet_discard
                0x00000000       0x40 mesh/core/libmesh_core_nrf51422_xxAC.a(network.c.obj)
 .text          0x00000000        0x0 mesh/core/libmesh_core_nrf51422_xxAC.a(msqueue.c.obj)
 .data          0x00000000        0x0 mesh/core/libmesh_core_nrf51422_xxAC.a(msqueue.c.obj)
 .bss           0x00000000        0x0 mesh/core/libmesh_core_nrf51422_xxAC.a(msqueue.c.obj)
 .text          0x00000000        0x0 mesh/core/libmesh_core_nrf51422_xxAC.a(nrf_mesh_keygen.c.obj)
 .data          0x00000000        0x0 mesh/core/libmesh_core_nrf51422_xxAC.a(nrf_mesh_keygen.c.obj)
 .bss           0x00000000        0x0 mesh/core/libmesh_core_nrf51422_xxAC.a(nrf_mesh_keygen.c.obj)
 .text.nrf_mesh_keygen_aid
                0x00000000       0x16 mesh/core/libmesh_core_nrf51422_xxAC.a(nrf_mesh_keygen.c.obj)
 .text.nrf_mesh_keygen_network_secmat
                0x00000000       0x20 mesh/core/libmesh_core_nrf51422_xxAC.a(nrf_mesh_keygen.c.obj)
 .text.nrf_mesh_keygen_beacon_secmat
                0x00000000       0x54 mesh/core/libmesh_core_nrf51422_xxAC.a(nrf_mesh_keygen.c.obj)
 .text.nrf_mesh_keygen_identitykey
                0x00000000       0x4c mesh/core/libmesh_core_nrf51422_xxAC.a(nrf_mesh_keygen.c.obj)
 .text.nrf_mesh_keygen_virtual_address
                0x00000000       0x50 mesh/core/libmesh_core_nrf51422_xxAC.a(nrf_mesh_keygen.c.obj)
 .rodata        0x00000000        0x7 mesh/core/libmesh_core_nrf51422_xxAC.a(nrf_mesh_keygen.c.obj)
 .comment       0x00000000       0x80 mesh/core/libmesh_core_nrf51422_xxAC.a(nrf_mesh_keygen.c.obj)
 .ARM.attributes
                0x00000000       0x31 mesh/core/libmesh_core_nrf51422_xxAC.a(nrf_mesh_keygen.c.obj)
 .text          0x00000000        0x0 mesh/core/libmesh_core_nrf51422_xxAC.a(log.c.obj)
 .data          0x00000000        0x0 mesh/core/libmesh_core_nrf51422_xxAC.a(log.c.obj)
 .bss           0x00000000        0x0 mesh/core/libmesh_core_nrf51422_xxAC.a(log.c.obj)
 .text.log_callback_logview
                0x00000000       0x34 mesh/core/libmesh_core_nrf51422_xxAC.a(log.c.obj)
 .text.log_set_callback
                0x00000000        0xc mesh/core/libmesh_core_nrf51422_xxAC.a(log.c.obj)
 .rodata.log_callback_logview.str1.1
                0x00000000        0xf mesh/core/libmesh_core_nrf51422_xxAC.a(log.c.obj)
 .text          0x00000000        0x0 mesh/core/libmesh_core_nrf51422_xxAC.a(flash_manager.c.obj)
 .data          0x00000000        0x0 mesh/core/libmesh_core_nrf51422_xxAC.a(flash_manager.c.obj)
 .bss           0x00000000        0x0 mesh/core/libmesh_core_nrf51422_xxAC.a(flash_manager.c.obj)
 .text.flash_manager_remove
                0x00000000       0x24 mesh/core/libmesh_core_nrf51422_xxAC.a(flash_manager.c.obj)
 .text.flash_manager_entry_get
                0x00000000       0x4c mesh/core/libmesh_core_nrf51422_xxAC.a(flash_manager.c.obj)
 .text.flash_manager_entry_count_get
                0x00000000       0x5c mesh/core/libmesh_core_nrf51422_xxAC.a(flash_manager.c.obj)
 .text.flash_manager_entry_release
                0x00000000       0x10 mesh/core/libmesh_core_nrf51422_xxAC.a(flash_manager.c.obj)
 .text          0x00000000        0x0 mesh/core/libmesh_core_nrf51422_xxAC.a(ccm_soft.c.obj)
 .data          0x00000000        0x0 mesh/core/libmesh_core_nrf51422_xxAC.a(ccm_soft.c.obj)
 .bss           0x00000000        0x0 mesh/core/libmesh_core_nrf51422_xxAC.a(ccm_soft.c.obj)
 .text          0x00000000        0x0 mesh/core/libmesh_core_nrf51422_xxAC.a(beacon.c.obj)
 .data          0x00000000        0x0 mesh/core/libmesh_core_nrf51422_xxAC.a(beacon.c.obj)
 .bss           0x00000000        0x0 mesh/core/libmesh_core_nrf51422_xxAC.a(beacon.c.obj)
 .text          0x00000000        0x0 mesh/core/libmesh_core_nrf51422_xxAC.a(flash_manager_internal.c.obj)
 .data          0x00000000        0x0 mesh/core/libmesh_core_nrf51422_xxAC.a(flash_manager_internal.c.obj)
 .bss           0x00000000        0x0 mesh/core/libmesh_core_nrf51422_xxAC.a(flash_manager_internal.c.obj)
 .text          0x00000000        0x0 mesh/core/libmesh_core_nrf51422_xxAC.a(core_tx.c.obj)
 .data          0x00000000        0x0 mesh/core/libmesh_core_nrf51422_xxAC.a(core_tx.c.obj)
 .bss           0x00000000        0x0 mesh/core/libmesh_core_nrf51422_xxAC.a(core_tx.c.obj)
 .text.core_tx_adv_count_set
                0x00000000       0x40 mesh/core/libmesh_core_nrf51422_xxAC.a(core_tx.c.obj)
 .text.core_tx_adv_count_get
                0x00000000       0x2c mesh/core/libmesh_core_nrf51422_xxAC.a(core_tx.c.obj)
 .text.core_tx_adv_interval_set
                0x00000000       0x34 mesh/core/libmesh_core_nrf51422_xxAC.a(core_tx.c.obj)
 .text.core_tx_adv_interval_get
                0x00000000       0x34 mesh/core/libmesh_core_nrf51422_xxAC.a(core_tx.c.obj)
 .text.core_tx_adv_address_set
                0x00000000       0x34 mesh/core/libmesh_core_nrf51422_xxAC.a(core_tx.c.obj)
 .text          0x00000000        0x0 mesh/core/libmesh_core_nrf51422_xxAC.a(net_beacon.c.obj)
 .data          0x00000000        0x0 mesh/core/libmesh_core_nrf51422_xxAC.a(net_beacon.c.obj)
 .bss           0x00000000        0x0 mesh/core/libmesh_core_nrf51422_xxAC.a(net_beacon.c.obj)
 .text.net_beacon_state_set
                0x00000000       0x38 mesh/core/libmesh_core_nrf51422_xxAC.a(net_beacon.c.obj)
 .text.net_beacon_state_get
                0x00000000        0xc mesh/core/libmesh_core_nrf51422_xxAC.a(net_beacon.c.obj)
 .text          0x00000000        0x0 mesh/core/libmesh_core_nrf51422_xxAC.a(advertiser.c.obj)
 .data          0x00000000        0x0 mesh/core/libmesh_core_nrf51422_xxAC.a(advertiser.c.obj)
 .bss           0x00000000        0x0 mesh/core/libmesh_core_nrf51422_xxAC.a(advertiser.c.obj)
 .text.advertiser_disable
                0x00000000        0xe mesh/core/libmesh_core_nrf51422_xxAC.a(advertiser.c.obj)
 .text.advertiser_channels_set
                0x00000000       0x94 mesh/core/libmesh_core_nrf51422_xxAC.a(advertiser.c.obj)
 .text.advertiser_address_set
                0x00000000       0x58 mesh/core/libmesh_core_nrf51422_xxAC.a(advertiser.c.obj)
 .text.advertiser_config_set
                0x00000000       0x48 mesh/core/libmesh_core_nrf51422_xxAC.a(advertiser.c.obj)
 .text.advertiser_config_get
                0x00000000       0x30 mesh/core/libmesh_core_nrf51422_xxAC.a(advertiser.c.obj)
 .text          0x00000000        0x0 mesh/core/libmesh_core_nrf51422_xxAC.a(bearer_handler.c.obj)
 .data          0x00000000        0x0 mesh/core/libmesh_core_nrf51422_xxAC.a(bearer_handler.c.obj)
 .bss           0x00000000        0x0 mesh/core/libmesh_core_nrf51422_xxAC.a(bearer_handler.c.obj)
 .text.bearer_handler_stop
                0x00000000       0x20 mesh/core/libmesh_core_nrf51422_xxAC.a(bearer_handler.c.obj)
 .text.bearer_handler_action_fire
                0x00000000       0xc0 mesh/core/libmesh_core_nrf51422_xxAC.a(bearer_handler.c.obj)
 .text          0x00000000        0x0 mesh/core/libmesh_core_nrf51422_xxAC.a(broadcast.c.obj)
 .data          0x00000000        0x0 mesh/core/libmesh_core_nrf51422_xxAC.a(broadcast.c.obj)
 .bss           0x00000000        0x0 mesh/core/libmesh_core_nrf51422_xxAC.a(broadcast.c.obj)
 .text          0x00000000        0x0 mesh/core/libmesh_core_nrf51422_xxAC.a(radio_config.c.obj)
 .data          0x00000000        0x0 mesh/core/libmesh_core_nrf51422_xxAC.a(radio_config.c.obj)
 .bss           0x00000000        0x0 mesh/core/libmesh_core_nrf51422_xxAC.a(radio_config.c.obj)
 .text.radio_config_access_addr_get
                0x00000000       0x78 mesh/core/libmesh_core_nrf51422_xxAC.a(radio_config.c.obj)
 .text          0x00000000        0x0 mesh/core/libmesh_core_nrf51422_xxAC.a(scanner.c.obj)
 .data          0x00000000        0x0 mesh/core/libmesh_core_nrf51422_xxAC.a(scanner.c.obj)
 .bss           0x00000000        0x0 mesh/core/libmesh_core_nrf51422_xxAC.a(scanner.c.obj)
 .text.scanner_disable
                0x00000000       0x44 mesh/core/libmesh_core_nrf51422_xxAC.a(scanner.c.obj)
 .text.scanner_is_enabled
                0x00000000       0x14 mesh/core/libmesh_core_nrf51422_xxAC.a(scanner.c.obj)
 .text.scanner_stats_get
                0x00000000        0xc mesh/core/libmesh_core_nrf51422_xxAC.a(scanner.c.obj)
 .text.scanner_config_radio_mode_set
                0x00000000       0x10 mesh/core/libmesh_core_nrf51422_xxAC.a(scanner.c.obj)
 .text          0x00000000        0x0 mesh/core/libmesh_core_nrf51422_xxAC.a(internal_event.c.obj)
 .data          0x00000000        0x0 mesh/core/libmesh_core_nrf51422_xxAC.a(internal_event.c.obj)
 .bss           0x00000000        0x0 mesh/core/libmesh_core_nrf51422_xxAC.a(internal_event.c.obj)
 .text.internal_event_init
                0x00000000       0x40 mesh/core/libmesh_core_nrf51422_xxAC.a(internal_event.c.obj)
 .text.internal_event_pop
                0x00000000       0x20 mesh/core/libmesh_core_nrf51422_xxAC.a(internal_event.c.obj)
 .bss.m_internal_event_fifo_buffer
                0x00000000      0x100 mesh/core/libmesh_core_nrf51422_xxAC.a(internal_event.c.obj)
 .text          0x00000000        0x0 mesh/core/libmesh_core_nrf51422_xxAC.a(aes.c.obj)
 .data          0x00000000        0x0 mesh/core/libmesh_core_nrf51422_xxAC.a(aes.c.obj)
 .bss           0x00000000        0x0 mesh/core/libmesh_core_nrf51422_xxAC.a(aes.c.obj)
 .text          0x00000000        0x0 mesh/core/libmesh_core_nrf51422_xxAC.a(msg_cache.c.obj)
 .data          0x00000000        0x0 mesh/core/libmesh_core_nrf51422_xxAC.a(msg_cache.c.obj)
 .bss           0x00000000        0x0 mesh/core/libmesh_core_nrf51422_xxAC.a(msg_cache.c.obj)
 .text.msg_cache_clear
                0x00000000       0x18 mesh/core/libmesh_core_nrf51422_xxAC.a(msg_cache.c.obj)
 .text          0x00000000        0x0 mesh/core/libmesh_core_nrf51422_xxAC.a(transport.c.obj)
 .data          0x00000000        0x0 mesh/core/libmesh_core_nrf51422_xxAC.a(transport.c.obj)
 .bss           0x00000000        0x0 mesh/core/libmesh_core_nrf51422_xxAC.a(transport.c.obj)
 .text.transport_sar_mem_funcs_set
                0x00000000       0x3c mesh/core/libmesh_core_nrf51422_xxAC.a(transport.c.obj)
 .text.transport_tx
                0x00000000      0x2b8 mesh/core/libmesh_core_nrf51422_xxAC.a(transport.c.obj)
 .text.transport_opt_set
                0x00000000       0xcc mesh/core/libmesh_core_nrf51422_xxAC.a(transport.c.obj)
 .text.transport_opt_get
                0x00000000       0x58 mesh/core/libmesh_core_nrf51422_xxAC.a(transport.c.obj)
 .rodata.transport_tx.str1.1
                0x00000000       0x34 mesh/core/libmesh_core_nrf51422_xxAC.a(transport.c.obj)
 .text          0x00000000        0x0 mesh/core/libmesh_core_nrf51422_xxAC.a(packet_buffer.c.obj)
 .data          0x00000000        0x0 mesh/core/libmesh_core_nrf51422_xxAC.a(packet_buffer.c.obj)
 .bss           0x00000000        0x0 mesh/core/libmesh_core_nrf51422_xxAC.a(packet_buffer.c.obj)
 .text.packet_buffer_max_packet_len_get
                0x00000000       0x38 mesh/core/libmesh_core_nrf51422_xxAC.a(packet_buffer.c.obj)
 .text          0x00000000        0x0 mesh/core/libmesh_core_nrf51422_xxAC.a(flash_manager_defrag.c.obj)
 .data          0x00000000        0x0 mesh/core/libmesh_core_nrf51422_xxAC.a(flash_manager_defrag.c.obj)
 .bss           0x00000000        0x0 mesh/core/libmesh_core_nrf51422_xxAC.a(flash_manager_defrag.c.obj)
 .text.flash_manager_defragging
                0x00000000       0x44 mesh/core/libmesh_core_nrf51422_xxAC.a(flash_manager_defrag.c.obj)
 .text          0x00000000        0x0 mesh/core/libmesh_core_nrf51422_xxAC.a(fifo.c.obj)
 .data          0x00000000        0x0 mesh/core/libmesh_core_nrf51422_xxAC.a(fifo.c.obj)
 .bss           0x00000000        0x0 mesh/core/libmesh_core_nrf51422_xxAC.a(fifo.c.obj)
 .text.fifo_peek_at
                0x00000000       0x5a mesh/core/libmesh_core_nrf51422_xxAC.a(fifo.c.obj)
 .text.fifo_peek
                0x00000000        0xa mesh/core/libmesh_core_nrf51422_xxAC.a(fifo.c.obj)
 .text.fifo_flush
                0x00000000        0x6 mesh/core/libmesh_core_nrf51422_xxAC.a(fifo.c.obj)
 .text.fifo_get_len
                0x00000000        0x8 mesh/core/libmesh_core_nrf51422_xxAC.a(fifo.c.obj)
 .text.fifo_is_full
                0x00000000       0x12 mesh/core/libmesh_core_nrf51422_xxAC.a(fifo.c.obj)
 .text.fifo_is_empty
                0x00000000        0xe mesh/core/libmesh_core_nrf51422_xxAC.a(fifo.c.obj)
 .text          0x00000000        0x0 mesh/core/libmesh_core_nrf51422_xxAC.a(nrf_flash.c.obj)
 .data          0x00000000        0x0 mesh/core/libmesh_core_nrf51422_xxAC.a(nrf_flash.c.obj)
 .bss           0x00000000        0x0 mesh/core/libmesh_core_nrf51422_xxAC.a(nrf_flash.c.obj)
 .text          0x00000000        0x0 mesh/core/libmesh_core_nrf51422_xxAC.a(packet_mgr.c.obj)
 .data          0x00000000        0x0 mesh/core/libmesh_core_nrf51422_xxAC.a(packet_mgr.c.obj)
 .bss           0x00000000        0x0 mesh/core/libmesh_core_nrf51422_xxAC.a(packet_mgr.c.obj)
 .text.packet_mgr_alloc
                0x00000000      0x18c mesh/core/libmesh_core_nrf51422_xxAC.a(packet_mgr.c.obj)
 .text.packet_mgr_free
                0x00000000       0x6c mesh/core/libmesh_core_nrf51422_xxAC.a(packet_mgr.c.obj)
 .text.packet_mgr_get_free_space
                0x00000000       0x1c mesh/core/libmesh_core_nrf51422_xxAC.a(packet_mgr.c.obj)
 .text.packet_mgr_refcount_get
                0x00000000        0x6 mesh/core/libmesh_core_nrf51422_xxAC.a(packet_mgr.c.obj)
 .text.packet_mgr_size_get
                0x00000000        0x6 mesh/core/libmesh_core_nrf51422_xxAC.a(packet_mgr.c.obj)
 .text          0x00000000        0x0 mesh/core/libmesh_core_nrf51422_xxAC.a(queue.c.obj)
 .data          0x00000000        0x0 mesh/core/libmesh_core_nrf51422_xxAC.a(queue.c.obj)
 .bss           0x00000000        0x0 mesh/core/libmesh_core_nrf51422_xxAC.a(queue.c.obj)
 .text          0x00000000        0x0 mesh/core/libmesh_core_nrf51422_xxAC.a(aes_cmac.c.obj)
 .data          0x00000000        0x0 mesh/core/libmesh_core_nrf51422_xxAC.a(aes_cmac.c.obj)
 .bss           0x00000000        0x0 mesh/core/libmesh_core_nrf51422_xxAC.a(aes_cmac.c.obj)
 .text          0x00000000        0x0 mesh/core/libmesh_core_nrf51422_xxAC.a(replay_cache.c.obj)
 .data          0x00000000        0x0 mesh/core/libmesh_core_nrf51422_xxAC.a(replay_cache.c.obj)
 .bss           0x00000000        0x0 mesh/core/libmesh_core_nrf51422_xxAC.a(replay_cache.c.obj)
 .text.replay_cache_on_iv_update
                0x00000000       0x28 mesh/core/libmesh_core_nrf51422_xxAC.a(replay_cache.c.obj)
 .text          0x00000000        0x0 mesh/core/libmesh_core_nrf51422_xxAC.a(filter_engine.c.obj)
 .data          0x00000000        0x0 mesh/core/libmesh_core_nrf51422_xxAC.a(filter_engine.c.obj)
 .bss           0x00000000        0x0 mesh/core/libmesh_core_nrf51422_xxAC.a(filter_engine.c.obj)
 .text.fen_filter_start
                0x00000000       0x74 mesh/core/libmesh_core_nrf51422_xxAC.a(filter_engine.c.obj)
 .text.fen_filter_stop
                0x00000000       0x58 mesh/core/libmesh_core_nrf51422_xxAC.a(filter_engine.c.obj)
 .text.fen_accepted_amount_get
                0x00000000        0xc mesh/core/libmesh_core_nrf51422_xxAC.a(filter_engine.c.obj)
 .text          0x00000000        0x0 external/rtt/librtt_nrf51422_xxAC.a(SEGGER_RTT.c.obj)
 .data          0x00000000        0x0 external/rtt/librtt_nrf51422_xxAC.a(SEGGER_RTT.c.obj)
 .bss           0x00000000        0x0 external/rtt/librtt_nrf51422_xxAC.a(SEGGER_RTT.c.obj)
 .text._PostTerminalSwitch.constprop.0
                0x00000000       0x20 external/rtt/librtt_nrf51422_xxAC.a(SEGGER_RTT.c.obj)
 .text.SEGGER_RTT_ReadNoLock
                0x00000000       0xa4 external/rtt/librtt_nrf51422_xxAC.a(SEGGER_RTT.c.obj)
 .text.SEGGER_RTT_Read
                0x00000000       0x1a external/rtt/librtt_nrf51422_xxAC.a(SEGGER_RTT.c.obj)
 .text.SEGGER_RTT_WriteSkipNoLock
                0x00000000       0xb0 external/rtt/librtt_nrf51422_xxAC.a(SEGGER_RTT.c.obj)
 .text.SEGGER_RTT_WriteString
                0x00000000       0x18 external/rtt/librtt_nrf51422_xxAC.a(SEGGER_RTT.c.obj)
 .text.SEGGER_RTT_GetKey
                0x00000000       0x1e external/rtt/librtt_nrf51422_xxAC.a(SEGGER_RTT.c.obj)
 .text.SEGGER_RTT_WaitKey
                0x00000000        0xc external/rtt/librtt_nrf51422_xxAC.a(SEGGER_RTT.c.obj)
 .text.SEGGER_RTT_HasKey
                0x00000000       0x20 external/rtt/librtt_nrf51422_xxAC.a(SEGGER_RTT.c.obj)
 .text.SEGGER_RTT_HasData
                0x00000000       0x14 external/rtt/librtt_nrf51422_xxAC.a(SEGGER_RTT.c.obj)
 .text.SEGGER_RTT_AllocDownBuffer
                0x00000000       0x64 external/rtt/librtt_nrf51422_xxAC.a(SEGGER_RTT.c.obj)
 .text.SEGGER_RTT_AllocUpBuffer
                0x00000000       0x68 external/rtt/librtt_nrf51422_xxAC.a(SEGGER_RTT.c.obj)
 .text.SEGGER_RTT_ConfigUpBuffer
                0x00000000       0x60 external/rtt/librtt_nrf51422_xxAC.a(SEGGER_RTT.c.obj)
 .text.SEGGER_RTT_ConfigDownBuffer
                0x00000000       0x5c external/rtt/librtt_nrf51422_xxAC.a(SEGGER_RTT.c.obj)
 .text.SEGGER_RTT_SetNameUpBuffer
                0x00000000       0x3c external/rtt/librtt_nrf51422_xxAC.a(SEGGER_RTT.c.obj)
 .text.SEGGER_RTT_SetNameDownBuffer
                0x00000000       0x3c external/rtt/librtt_nrf51422_xxAC.a(SEGGER_RTT.c.obj)
 .text.SEGGER_RTT_Init
                0x00000000       0x14 external/rtt/librtt_nrf51422_xxAC.a(SEGGER_RTT.c.obj)
 .text.SEGGER_RTT_SetTerminal
                0x00000000       0x80 external/rtt/librtt_nrf51422_xxAC.a(SEGGER_RTT.c.obj)
 .text.SEGGER_RTT_TerminalOut
                0x00000000       0xa0 external/rtt/librtt_nrf51422_xxAC.a(SEGGER_RTT.c.obj)
 .bss._ActiveTerminal
                0x00000000        0x1 external/rtt/librtt_nrf51422_xxAC.a(SEGGER_RTT.c.obj)
 .rodata._aTerminalId
                0x00000000       0x10 external/rtt/librtt_nrf51422_xxAC.a(SEGGER_RTT.c.obj)
 .text          0x00000000        0x0 external/rtt/librtt_nrf51422_xxAC.a(SEGGER_RTT_printf.c.obj)
 .data          0x00000000        0x0 external/rtt/librtt_nrf51422_xxAC.a(SEGGER_RTT_printf.c.obj)
 .bss           0x00000000        0x0 external/rtt/librtt_nrf51422_xxAC.a(SEGGER_RTT_printf.c.obj)
 .text          0x00000000        0x0 external/micro-ecc/libuECC_nrf51422_xxAC.a(uECC.c.obj)
 .data          0x00000000        0x0 external/micro-ecc/libuECC_nrf51422_xxAC.a(uECC.c.obj)
 .bss           0x00000000        0x0 external/micro-ecc/libuECC_nrf51422_xxAC.a(uECC.c.obj)
 .text.uECC_vli_mult
                0x00000000       0x90 external/micro-ecc/libuECC_nrf51422_xxAC.a(uECC.c.obj)
 .text.uECC_vli_clear
                0x00000000       0x16 external/micro-ecc/libuECC_nrf51422_xxAC.a(uECC.c.obj)
 .text.uECC_vli_isZero
                0x00000000       0x1c external/micro-ecc/libuECC_nrf51422_xxAC.a(uECC.c.obj)
 .text.uECC_vli_testBit
                0x00000000       0x12 external/micro-ecc/libuECC_nrf51422_xxAC.a(uECC.c.obj)
 .text.uECC_vli_numBits
                0x00000000       0x40 external/micro-ecc/libuECC_nrf51422_xxAC.a(uECC.c.obj)
 .text.uECC_vli_set
                0x00000000       0x16 external/micro-ecc/libuECC_nrf51422_xxAC.a(uECC.c.obj)
 .text.uECC_vli_cmp_unsafe
                0x00000000       0x24 external/micro-ecc/libuECC_nrf51422_xxAC.a(uECC.c.obj)
 .text.uECC_vli_rshift1
                0x00000000       0x1e external/micro-ecc/libuECC_nrf51422_xxAC.a(uECC.c.obj)
 .text.uECC_vli_modMult
                0x00000000      0x128 external/micro-ecc/libuECC_nrf51422_xxAC.a(uECC.c.obj)
 .text.uECC_vli_modMult_fast
                0x00000000       0x20 external/micro-ecc/libuECC_nrf51422_xxAC.a(uECC.c.obj)
 .text.uECC_vli_modSquare_fast
                0x00000000        0xc external/micro-ecc/libuECC_nrf51422_xxAC.a(uECC.c.obj)
 .text.apply_z  0x00000000       0x3e external/micro-ecc/libuECC_nrf51422_xxAC.a(uECC.c.obj)
 .text.uECC_vli_nativeToBytes
                0x00000000       0x24 external/micro-ecc/libuECC_nrf51422_xxAC.a(uECC.c.obj)
 .text.uECC_vli_bytesToNative
                0x00000000       0x44 external/micro-ecc/libuECC_nrf51422_xxAC.a(uECC.c.obj)
 .text.HMAC_init
                0x00000000       0x40 external/micro-ecc/libuECC_nrf51422_xxAC.a(uECC.c.obj)
 .text.HMAC_update
                0x00000000        0x8 external/micro-ecc/libuECC_nrf51422_xxAC.a(uECC.c.obj)
 .text.HMAC_finish
                0x00000000       0x5c external/micro-ecc/libuECC_nrf51422_xxAC.a(uECC.c.obj)
 .text.update_V
                0x00000000       0x22 external/micro-ecc/libuECC_nrf51422_xxAC.a(uECC.c.obj)
 .text.default_RNG
                0x00000000        0xc external/micro-ecc/libuECC_nrf51422_xxAC.a(uECC.c.obj)
 .text.uECC_vli_add.isra.0
                0x00000000       0x4a external/micro-ecc/libuECC_nrf51422_xxAC.a(uECC.c.obj)
 .text.regularize_k
                0x00000000       0x52 external/micro-ecc/libuECC_nrf51422_xxAC.a(uECC.c.obj)
 .text.uECC_vli_sub.isra.1
                0x00000000       0x4c external/micro-ecc/libuECC_nrf51422_xxAC.a(uECC.c.obj)
 .text.uECC_vli_cmp
                0x00000000       0x2a external/micro-ecc/libuECC_nrf51422_xxAC.a(uECC.c.obj)
 .text.uECC_generate_random_int
                0x00000000       0x78 external/micro-ecc/libuECC_nrf51422_xxAC.a(uECC.c.obj)
 .text.uECC_vli_modAdd
                0x00000000       0x2e external/micro-ecc/libuECC_nrf51422_xxAC.a(uECC.c.obj)
 .text.vli_mmod_fast_secp256r1
                0x00000000      0x19c external/micro-ecc/libuECC_nrf51422_xxAC.a(uECC.c.obj)
 .text.bits2int
                0x00000000       0x8c external/micro-ecc/libuECC_nrf51422_xxAC.a(uECC.c.obj)
 .text.uECC_vli_modSub.isra.2
                0x00000000       0x1a external/micro-ecc/libuECC_nrf51422_xxAC.a(uECC.c.obj)
 .text.double_jacobian_default
                0x00000000      0x14c external/micro-ecc/libuECC_nrf51422_xxAC.a(uECC.c.obj)
 .text.x_side_default
                0x00000000       0x58 external/micro-ecc/libuECC_nrf51422_xxAC.a(uECC.c.obj)
 .text.XYcZ_add
                0x00000000       0xbe external/micro-ecc/libuECC_nrf51422_xxAC.a(uECC.c.obj)
 .text.XYcZ_addC
                0x00000000      0x10c external/micro-ecc/libuECC_nrf51422_xxAC.a(uECC.c.obj)
 .text.vli_modInv_update
                0x00000000       0x3c external/micro-ecc/libuECC_nrf51422_xxAC.a(uECC.c.obj)
 .text.uECC_vli_modInv
                0x00000000      0x10a external/micro-ecc/libuECC_nrf51422_xxAC.a(uECC.c.obj)
 .text.EccPoint_mult
                0x00000000      0x19c external/micro-ecc/libuECC_nrf51422_xxAC.a(uECC.c.obj)
 .text.EccPoint_compute_public_key
                0x00000000       0x4c external/micro-ecc/libuECC_nrf51422_xxAC.a(uECC.c.obj)
 .text.uECC_sign_with_k
                0x00000000      0x184 external/micro-ecc/libuECC_nrf51422_xxAC.a(uECC.c.obj)
 .text.uECC_set_rng
                0x00000000        0xc external/micro-ecc/libuECC_nrf51422_xxAC.a(uECC.c.obj)
 .text.uECC_get_rng
                0x00000000        0xc external/micro-ecc/libuECC_nrf51422_xxAC.a(uECC.c.obj)
 .text.uECC_curve_private_key_size
                0x00000000       0x12 external/micro-ecc/libuECC_nrf51422_xxAC.a(uECC.c.obj)
 .text.uECC_curve_public_key_size
                0x00000000        0x8 external/micro-ecc/libuECC_nrf51422_xxAC.a(uECC.c.obj)
 .text.uECC_secp256r1
                0x00000000        0x8 external/micro-ecc/libuECC_nrf51422_xxAC.a(uECC.c.obj)
 .text.uECC_make_key
                0x00000000       0x84 external/micro-ecc/libuECC_nrf51422_xxAC.a(uECC.c.obj)
 .text.uECC_shared_secret
                0x00000000       0xc0 external/micro-ecc/libuECC_nrf51422_xxAC.a(uECC.c.obj)
 .text.uECC_valid_point
                0x00000000       0x86 external/micro-ecc/libuECC_nrf51422_xxAC.a(uECC.c.obj)
 .text.uECC_valid_public_key
                0x00000000       0x32 external/micro-ecc/libuECC_nrf51422_xxAC.a(uECC.c.obj)
 .text.uECC_compute_public_key
                0x00000000       0x88 external/micro-ecc/libuECC_nrf51422_xxAC.a(uECC.c.obj)
 .text.uECC_sign
                0x00000000       0x5a external/micro-ecc/libuECC_nrf51422_xxAC.a(uECC.c.obj)
 .text.uECC_sign_deterministic
                0x00000000      0x19c external/micro-ecc/libuECC_nrf51422_xxAC.a(uECC.c.obj)
 .text.uECC_verify
                0x00000000      0x2e4 external/micro-ecc/libuECC_nrf51422_xxAC.a(uECC.c.obj)
 .data.g_rng_function
                0x00000000        0x4 external/micro-ecc/libuECC_nrf51422_xxAC.a(uECC.c.obj)
 .rodata.curve_secp256r1
                0x00000000       0xb0 external/micro-ecc/libuECC_nrf51422_xxAC.a(uECC.c.obj)
 .comment       0x00000000       0x80 external/micro-ecc/libuECC_nrf51422_xxAC.a(uECC.c.obj)
 .ARM.attributes
                0x00000000       0x31 external/micro-ecc/libuECC_nrf51422_xxAC.a(uECC.c.obj)
 .data          0x00000000        0x0 c:/a/gcc_arm/6/bin/../lib/gcc/arm-none-eabi/6.3.1/thumb/v6-m\libgcc.a(_thumb1_case_uqi.o)
 .bss           0x00000000        0x0 c:/a/gcc_arm/6/bin/../lib/gcc/arm-none-eabi/6.3.1/thumb/v6-m\libgcc.a(_thumb1_case_uqi.o)
 .data          0x00000000        0x0 c:/a/gcc_arm/6/bin/../lib/gcc/arm-none-eabi/6.3.1/thumb/v6-m\libgcc.a(_thumb1_case_shi.o)
 .bss           0x00000000        0x0 c:/a/gcc_arm/6/bin/../lib/gcc/arm-none-eabi/6.3.1/thumb/v6-m\libgcc.a(_thumb1_case_shi.o)
 .data          0x00000000        0x0 c:/a/gcc_arm/6/bin/../lib/gcc/arm-none-eabi/6.3.1/thumb/v6-m\libgcc.a(_thumb1_case_uhi.o)
 .bss           0x00000000        0x0 c:/a/gcc_arm/6/bin/../lib/gcc/arm-none-eabi/6.3.1/thumb/v6-m\libgcc.a(_thumb1_case_uhi.o)
 .data          0x00000000        0x0 c:/a/gcc_arm/6/bin/../lib/gcc/arm-none-eabi/6.3.1/thumb/v6-m\libgcc.a(_udivsi3.o)
 .bss           0x00000000        0x0 c:/a/gcc_arm/6/bin/../lib/gcc/arm-none-eabi/6.3.1/thumb/v6-m\libgcc.a(_udivsi3.o)
 .data          0x00000000        0x0 c:/a/gcc_arm/6/bin/../lib/gcc/arm-none-eabi/6.3.1/thumb/v6-m\libgcc.a(_divsi3.o)
 .bss           0x00000000        0x0 c:/a/gcc_arm/6/bin/../lib/gcc/arm-none-eabi/6.3.1/thumb/v6-m\libgcc.a(_divsi3.o)
 .data          0x00000000        0x0 c:/a/gcc_arm/6/bin/../lib/gcc/arm-none-eabi/6.3.1/thumb/v6-m\libgcc.a(_dvmd_tls.o)
 .bss           0x00000000        0x0 c:/a/gcc_arm/6/bin/../lib/gcc/arm-none-eabi/6.3.1/thumb/v6-m\libgcc.a(_dvmd_tls.o)
 .data          0x00000000        0x0 c:/a/gcc_arm/6/bin/../lib/gcc/arm-none-eabi/6.3.1/thumb/v6-m\libgcc.a(_muldi3.o)
 .bss           0x00000000        0x0 c:/a/gcc_arm/6/bin/../lib/gcc/arm-none-eabi/6.3.1/thumb/v6-m\libgcc.a(_muldi3.o)
 .text          0x00000000        0x0 c:/a/gcc_arm/6/bin/../lib/gcc/arm-none-eabi/6.3.1/../../../../arm-none-eabi/lib/thumb/v6-m\libc_nano.a(lib_a-exit.o)
 .data          0x00000000        0x0 c:/a/gcc_arm/6/bin/../lib/gcc/arm-none-eabi/6.3.1/../../../../arm-none-eabi/lib/thumb/v6-m\libc_nano.a(lib_a-exit.o)
 .bss           0x00000000        0x0 c:/a/gcc_arm/6/bin/../lib/gcc/arm-none-eabi/6.3.1/../../../../arm-none-eabi/lib/thumb/v6-m\libc_nano.a(lib_a-exit.o)
 .text          0x00000000        0x0 c:/a/gcc_arm/6/bin/../lib/gcc/arm-none-eabi/6.3.1/../../../../arm-none-eabi/lib/thumb/v6-m\libc_nano.a(lib_a-impure.o)
 .data          0x00000000        0x0 c:/a/gcc_arm/6/bin/../lib/gcc/arm-none-eabi/6.3.1/../../../../arm-none-eabi/lib/thumb/v6-m\libc_nano.a(lib_a-impure.o)
 .bss           0x00000000        0x0 c:/a/gcc_arm/6/bin/../lib/gcc/arm-none-eabi/6.3.1/../../../../arm-none-eabi/lib/thumb/v6-m\libc_nano.a(lib_a-impure.o)
 .text          0x00000000        0x0 c:/a/gcc_arm/6/bin/../lib/gcc/arm-none-eabi/6.3.1/../../../../arm-none-eabi/lib/thumb/v6-m\libc_nano.a(lib_a-init.o)
 .data          0x00000000        0x0 c:/a/gcc_arm/6/bin/../lib/gcc/arm-none-eabi/6.3.1/../../../../arm-none-eabi/lib/thumb/v6-m\libc_nano.a(lib_a-init.o)
 .bss           0x00000000        0x0 c:/a/gcc_arm/6/bin/../lib/gcc/arm-none-eabi/6.3.1/../../../../arm-none-eabi/lib/thumb/v6-m\libc_nano.a(lib_a-init.o)
 .text          0x00000000        0x0 c:/a/gcc_arm/6/bin/../lib/gcc/arm-none-eabi/6.3.1/../../../../arm-none-eabi/lib/thumb/v6-m\libc_nano.a(lib_a-malloc.o)
 .data          0x00000000        0x0 c:/a/gcc_arm/6/bin/../lib/gcc/arm-none-eabi/6.3.1/../../../../arm-none-eabi/lib/thumb/v6-m\libc_nano.a(lib_a-malloc.o)
 .bss           0x00000000        0x0 c:/a/gcc_arm/6/bin/../lib/gcc/arm-none-eabi/6.3.1/../../../../arm-none-eabi/lib/thumb/v6-m\libc_nano.a(lib_a-malloc.o)
 .text          0x00000000        0x0 c:/a/gcc_arm/6/bin/../lib/gcc/arm-none-eabi/6.3.1/../../../../arm-none-eabi/lib/thumb/v6-m\libc_nano.a(lib_a-memcmp.o)
 .data          0x00000000        0x0 c:/a/gcc_arm/6/bin/../lib/gcc/arm-none-eabi/6.3.1/../../../../arm-none-eabi/lib/thumb/v6-m\libc_nano.a(lib_a-memcmp.o)
 .bss           0x00000000        0x0 c:/a/gcc_arm/6/bin/../lib/gcc/arm-none-eabi/6.3.1/../../../../arm-none-eabi/lib/thumb/v6-m\libc_nano.a(lib_a-memcmp.o)
 .text          0x00000000        0x0 c:/a/gcc_arm/6/bin/../lib/gcc/arm-none-eabi/6.3.1/../../../../arm-none-eabi/lib/thumb/v6-m\libc_nano.a(lib_a-memcpy-stub.o)
 .data          0x00000000        0x0 c:/a/gcc_arm/6/bin/../lib/gcc/arm-none-eabi/6.3.1/../../../../arm-none-eabi/lib/thumb/v6-m\libc_nano.a(lib_a-memcpy-stub.o)
 .bss           0x00000000        0x0 c:/a/gcc_arm/6/bin/../lib/gcc/arm-none-eabi/6.3.1/../../../../arm-none-eabi/lib/thumb/v6-m\libc_nano.a(lib_a-memcpy-stub.o)
 .text          0x00000000        0x0 c:/a/gcc_arm/6/bin/../lib/gcc/arm-none-eabi/6.3.1/../../../../arm-none-eabi/lib/thumb/v6-m\libc_nano.a(lib_a-memset.o)
 .data          0x00000000        0x0 c:/a/gcc_arm/6/bin/../lib/gcc/arm-none-eabi/6.3.1/../../../../arm-none-eabi/lib/thumb/v6-m\libc_nano.a(lib_a-memset.o)
 .bss           0x00000000        0x0 c:/a/gcc_arm/6/bin/../lib/gcc/arm-none-eabi/6.3.1/../../../../arm-none-eabi/lib/thumb/v6-m\libc_nano.a(lib_a-memset.o)
 .text          0x00000000        0x0 c:/a/gcc_arm/6/bin/../lib/gcc/arm-none-eabi/6.3.1/../../../../arm-none-eabi/lib/thumb/v6-m\libc_nano.a(lib_a-nano-freer.o)
 .data          0x00000000        0x0 c:/a/gcc_arm/6/bin/../lib/gcc/arm-none-eabi/6.3.1/../../../../arm-none-eabi/lib/thumb/v6-m\libc_nano.a(lib_a-nano-freer.o)
 .bss           0x00000000        0x0 c:/a/gcc_arm/6/bin/../lib/gcc/arm-none-eabi/6.3.1/../../../../arm-none-eabi/lib/thumb/v6-m\libc_nano.a(lib_a-nano-freer.o)
 .text          0x00000000        0x0 c:/a/gcc_arm/6/bin/../lib/gcc/arm-none-eabi/6.3.1/../../../../arm-none-eabi/lib/thumb/v6-m\libc_nano.a(lib_a-nano-mallocr.o)
 .data          0x00000000        0x0 c:/a/gcc_arm/6/bin/../lib/gcc/arm-none-eabi/6.3.1/../../../../arm-none-eabi/lib/thumb/v6-m\libc_nano.a(lib_a-nano-mallocr.o)
 .bss           0x00000000        0x0 c:/a/gcc_arm/6/bin/../lib/gcc/arm-none-eabi/6.3.1/../../../../arm-none-eabi/lib/thumb/v6-m\libc_nano.a(lib_a-nano-mallocr.o)
 .text          0x00000000        0x0 c:/a/gcc_arm/6/bin/../lib/gcc/arm-none-eabi/6.3.1/../../../../arm-none-eabi/lib/thumb/v6-m\libc_nano.a(lib_a-sbrkr.o)
 .data          0x00000000        0x0 c:/a/gcc_arm/6/bin/../lib/gcc/arm-none-eabi/6.3.1/../../../../arm-none-eabi/lib/thumb/v6-m\libc_nano.a(lib_a-sbrkr.o)
 .bss           0x00000000        0x0 c:/a/gcc_arm/6/bin/../lib/gcc/arm-none-eabi/6.3.1/../../../../arm-none-eabi/lib/thumb/v6-m\libc_nano.a(lib_a-sbrkr.o)
 .text          0x00000000        0x0 c:/a/gcc_arm/6/bin/../lib/gcc/arm-none-eabi/6.3.1/../../../../arm-none-eabi/lib/thumb/v6-m\libc_nano.a(lib_a-strcpy.o)
 .data          0x00000000        0x0 c:/a/gcc_arm/6/bin/../lib/gcc/arm-none-eabi/6.3.1/../../../../arm-none-eabi/lib/thumb/v6-m\libc_nano.a(lib_a-strcpy.o)
 .bss           0x00000000        0x0 c:/a/gcc_arm/6/bin/../lib/gcc/arm-none-eabi/6.3.1/../../../../arm-none-eabi/lib/thumb/v6-m\libc_nano.a(lib_a-strcpy.o)
 .text          0x00000000        0xe c:/a/gcc_arm/6/bin/../lib/gcc/arm-none-eabi/6.3.1/../../../../arm-none-eabi/lib/thumb/v6-m\libc_nano.a(lib_a-strlen.o)
 .data          0x00000000        0x0 c:/a/gcc_arm/6/bin/../lib/gcc/arm-none-eabi/6.3.1/../../../../arm-none-eabi/lib/thumb/v6-m\libc_nano.a(lib_a-strlen.o)
 .bss           0x00000000        0x0 c:/a/gcc_arm/6/bin/../lib/gcc/arm-none-eabi/6.3.1/../../../../arm-none-eabi/lib/thumb/v6-m\libc_nano.a(lib_a-strlen.o)
 .ARM.attributes
                0x00000000       0x1c c:/a/gcc_arm/6/bin/../lib/gcc/arm-none-eabi/6.3.1/../../../../arm-none-eabi/lib/thumb/v6-m\libc_nano.a(lib_a-strlen.o)
 .text          0x00000000        0x0 c:/a/gcc_arm/6/bin/../lib/gcc/arm-none-eabi/6.3.1/../../../../arm-none-eabi/lib/thumb/v6-m\libc_nano.a(lib_a-strrchr.o)
 .data          0x00000000        0x0 c:/a/gcc_arm/6/bin/../lib/gcc/arm-none-eabi/6.3.1/../../../../arm-none-eabi/lib/thumb/v6-m\libc_nano.a(lib_a-strrchr.o)
 .bss           0x00000000        0x0 c:/a/gcc_arm/6/bin/../lib/gcc/arm-none-eabi/6.3.1/../../../../arm-none-eabi/lib/thumb/v6-m\libc_nano.a(lib_a-strrchr.o)
 .text          0x00000000        0x0 c:/a/gcc_arm/6/bin/../lib/gcc/arm-none-eabi/6.3.1/../../../../arm-none-eabi/lib/thumb/v6-m\libc_nano.a(lib_a-mlock.o)
 .data          0x00000000        0x0 c:/a/gcc_arm/6/bin/../lib/gcc/arm-none-eabi/6.3.1/../../../../arm-none-eabi/lib/thumb/v6-m\libc_nano.a(lib_a-mlock.o)
 .bss           0x00000000        0x0 c:/a/gcc_arm/6/bin/../lib/gcc/arm-none-eabi/6.3.1/../../../../arm-none-eabi/lib/thumb/v6-m\libc_nano.a(lib_a-mlock.o)
 .text          0x00000000        0x0 c:/a/gcc_arm/6/bin/../lib/gcc/arm-none-eabi/6.3.1/../../../../arm-none-eabi/lib/thumb/v6-m\libc_nano.a(lib_a-reent.o)
 .data          0x00000000        0x0 c:/a/gcc_arm/6/bin/../lib/gcc/arm-none-eabi/6.3.1/../../../../arm-none-eabi/lib/thumb/v6-m\libc_nano.a(lib_a-reent.o)
 .bss           0x00000000        0x0 c:/a/gcc_arm/6/bin/../lib/gcc/arm-none-eabi/6.3.1/../../../../arm-none-eabi/lib/thumb/v6-m\libc_nano.a(lib_a-reent.o)
 .text.cleanup_glue
                0x00000000       0x1a c:/a/gcc_arm/6/bin/../lib/gcc/arm-none-eabi/6.3.1/../../../../arm-none-eabi/lib/thumb/v6-m\libc_nano.a(lib_a-reent.o)
 .text._reclaim_reent
                0x00000000       0xcc c:/a/gcc_arm/6/bin/../lib/gcc/arm-none-eabi/6.3.1/../../../../arm-none-eabi/lib/thumb/v6-m\libc_nano.a(lib_a-reent.o)
 .text          0x00000000        0x0 c:/a/gcc_arm/6/bin/../lib/gcc/arm-none-eabi/6.3.1/../../../../arm-none-eabi/lib/thumb/v6-m\libc_nano.a(lib_a-strchr.o)
 .data          0x00000000        0x0 c:/a/gcc_arm/6/bin/../lib/gcc/arm-none-eabi/6.3.1/../../../../arm-none-eabi/lib/thumb/v6-m\libc_nano.a(lib_a-strchr.o)
 .bss           0x00000000        0x0 c:/a/gcc_arm/6/bin/../lib/gcc/arm-none-eabi/6.3.1/../../../../arm-none-eabi/lib/thumb/v6-m\libc_nano.a(lib_a-strchr.o)
 .text          0x00000000        0x0 c:/a/gcc_arm/6/bin/../lib/gcc/arm-none-eabi/6.3.1/thumb/v6-m/crtend.o
 .data          0x00000000        0x0 c:/a/gcc_arm/6/bin/../lib/gcc/arm-none-eabi/6.3.1/thumb/v6-m/crtend.o
 .bss           0x00000000        0x0 c:/a/gcc_arm/6/bin/../lib/gcc/arm-none-eabi/6.3.1/thumb/v6-m/crtend.o
 .text          0x00000000        0x0 c:/a/gcc_arm/6/bin/../lib/gcc/arm-none-eabi/6.3.1/thumb/v6-m/crtn.o
 .data          0x00000000        0x0 c:/a/gcc_arm/6/bin/../lib/gcc/arm-none-eabi/6.3.1/thumb/v6-m/crtn.o
 .bss           0x00000000        0x0 c:/a/gcc_arm/6/bin/../lib/gcc/arm-none-eabi/6.3.1/thumb/v6-m/crtn.o
 .text          0x00000000        0x0 c:/a/gcc_arm/6/bin/../lib/gcc/arm-none-eabi/6.3.1/../../../../arm-none-eabi/lib/thumb/v6-m\libnosys.a(sbrk.o)
 .data          0x00000000        0x0 c:/a/gcc_arm/6/bin/../lib/gcc/arm-none-eabi/6.3.1/../../../../arm-none-eabi/lib/thumb/v6-m\libnosys.a(sbrk.o)
 .bss           0x00000000        0x0 c:/a/gcc_arm/6/bin/../lib/gcc/arm-none-eabi/6.3.1/../../../../arm-none-eabi/lib/thumb/v6-m\libnosys.a(sbrk.o)
 .text          0x00000000        0x0 c:/a/gcc_arm/6/bin/../lib/gcc/arm-none-eabi/6.3.1/../../../../arm-none-eabi/lib/thumb/v6-m\libnosys.a(_exit.o)
 .data          0x00000000        0x0 c:/a/gcc_arm/6/bin/../lib/gcc/arm-none-eabi/6.3.1/../../../../arm-none-eabi/lib/thumb/v6-m\libnosys.a(_exit.o)
 .bss           0x00000000        0x0 c:/a/gcc_arm/6/bin/../lib/gcc/arm-none-eabi/6.3.1/../../../../arm-none-eabi/lib/thumb/v6-m\libnosys.a(_exit.o)

Memory Configuration

Name             Origin             Length             Attributes
FLASH            0x0001b000         0x0001f000         xr
RAM              0x200022d8         0x00005a28         xrw
*default*        0x00000000         0xffffffff

Linker script and memory map

LOAD c:/a/gcc_arm/6/bin/../lib/gcc/arm-none-eabi/6.3.1/thumb/v6-m/crti.o
LOAD c:/a/gcc_arm/6/bin/../lib/gcc/arm-none-eabi/6.3.1/thumb/v6-m/crtbegin.o
LOAD c:/a/gcc_arm/6/bin/../lib/gcc/arm-none-eabi/6.3.1/../../../../arm-none-eabi/lib/thumb/v6-m/crt0.o
LOAD examples/dfu/CMakeFiles/dfu_no_serial_nrf51422_xxAC_s130_2.0.1.dir/src/main.c.obj
LOAD examples/dfu/CMakeFiles/dfu_no_serial_nrf51422_xxAC_s130_2.0.1.dir/__/nrf_mesh_sdk.c.obj
LOAD examples/dfu/CMakeFiles/dfu_no_serial_nrf51422_xxAC_s130_2.0.1.dir/__/__/mesh/access/src/access_publish.c.obj
LOAD examples/dfu/CMakeFiles/dfu_no_serial_nrf51422_xxAC_s130_2.0.1.dir/__/__/mesh/access/src/access.c.obj
LOAD examples/dfu/CMakeFiles/dfu_no_serial_nrf51422_xxAC_s130_2.0.1.dir/__/__/mesh/access/src/access_reliable.c.obj
LOAD examples/dfu/CMakeFiles/dfu_no_serial_nrf51422_xxAC_s130_2.0.1.dir/__/__/mesh/access/src/device_state_manager.c.obj
LOAD examples/dfu/CMakeFiles/dfu_no_serial_nrf51422_xxAC_s130_2.0.1.dir/__/__/mesh/prov/src/prov_provisioner.c.obj
LOAD examples/dfu/CMakeFiles/dfu_no_serial_nrf51422_xxAC_s130_2.0.1.dir/__/__/mesh/prov/src/prov_provisionee.c.obj
LOAD examples/dfu/CMakeFiles/dfu_no_serial_nrf51422_xxAC_s130_2.0.1.dir/__/__/mesh/prov/src/nrf_mesh_prov.c.obj
LOAD examples/dfu/CMakeFiles/dfu_no_serial_nrf51422_xxAC_s130_2.0.1.dir/__/__/mesh/prov/src/provisioning.c.obj
LOAD examples/dfu/CMakeFiles/dfu_no_serial_nrf51422_xxAC_s130_2.0.1.dir/__/__/mesh/prov/src/prov_beacon.c.obj
LOAD examples/dfu/CMakeFiles/dfu_no_serial_nrf51422_xxAC_s130_2.0.1.dir/__/__/mesh/prov/src/prov_utils.c.obj
LOAD examples/dfu/CMakeFiles/dfu_no_serial_nrf51422_xxAC_s130_2.0.1.dir/__/__/mesh/prov/src/prov_bearer_adv.c.obj
LOAD examples/dfu/CMakeFiles/dfu_no_serial_nrf51422_xxAC_s130_2.0.1.dir/__/__/mesh/dfu/src/nrf_mesh_dfu.c.obj
LOAD examples/dfu/CMakeFiles/dfu_no_serial_nrf51422_xxAC_s130_2.0.1.dir/__/nrf_mesh_weak.c.obj
LOAD examples/dfu/CMakeFiles/dfu_no_serial_nrf51422_xxAC_s130_2.0.1.dir/__/__/external/nRF5_SDK_14.0.0_3bcc1f7/components/toolchain/system_nrf51.c.obj
LOAD examples/dfu/CMakeFiles/dfu_no_serial_nrf51422_xxAC_s130_2.0.1.dir/__/__/external/nRF5_SDK_14.0.0_3bcc1f7/components/toolchain/gcc/gcc_startup_nrf51.S.obj
LOAD mesh/core/libmesh_core_nrf51422_xxAC.a
LOAD external/rtt/librtt_nrf51422_xxAC.a
LOAD external/micro-ecc/libuECC_nrf51422_xxAC.a
START GROUP
LOAD c:/a/gcc_arm/6/bin/../lib/gcc/arm-none-eabi/6.3.1/thumb/v6-m\libgcc.a
LOAD c:/a/gcc_arm/6/bin/../lib/gcc/arm-none-eabi/6.3.1/../../../../arm-none-eabi/lib/thumb/v6-m\libc_nano.a
END GROUP
START GROUP
LOAD c:/a/gcc_arm/6/bin/../lib/gcc/arm-none-eabi/6.3.1/thumb/v6-m\libgcc.a
LOAD c:/a/gcc_arm/6/bin/../lib/gcc/arm-none-eabi/6.3.1/../../../../arm-none-eabi/lib/thumb/v6-m\libc_nano.a
END GROUP
LOAD c:/a/gcc_arm/6/bin/../lib/gcc/arm-none-eabi/6.3.1/thumb/v6-m/crtend.o
LOAD c:/a/gcc_arm/6/bin/../lib/gcc/arm-none-eabi/6.3.1/thumb/v6-m/crtn.o
START GROUP
LOAD c:/a/gcc_arm/6/bin/../lib/gcc/arm-none-eabi/6.3.1/thumb/v6-m\libgcc.a
LOAD c:/a/gcc_arm/6/bin/../lib/gcc/arm-none-eabi/6.3.1/../../../../arm-none-eabi/lib/thumb/v6-m\libc.a
LOAD c:/a/gcc_arm/6/bin/../lib/gcc/arm-none-eabi/6.3.1/../../../../arm-none-eabi/lib/thumb/v6-m\libnosys.a
END GROUP

.text           0x0001b000     0xb938
 *(.isr_vector)
 .isr_vector    0x0001b000       0xc0 examples/dfu/CMakeFiles/dfu_no_serial_nrf51422_xxAC_s130_2.0.1.dir/__/__/external/nRF5_SDK_14.0.0_3bcc1f7/components/toolchain/gcc/gcc_startup_nrf51.S.obj
                0x0001b000                __isr_vector
 *(.text*)
 .text          0x0001b0c0       0x60 c:/a/gcc_arm/6/bin/../lib/gcc/arm-none-eabi/6.3.1/thumb/v6-m/crtbegin.o
 .text          0x0001b120       0x78 c:/a/gcc_arm/6/bin/../lib/gcc/arm-none-eabi/6.3.1/../../../../arm-none-eabi/lib/thumb/v6-m/crt0.o
                0x0001b120                _start
                0x0001b120                _mainCRTStartup
 .text.mesh_evt_handler
                0x0001b198       0xfc examples/dfu/CMakeFiles/dfu_no_serial_nrf51422_xxAC_s130_2.0.1.dir/src/main.c.obj
 .text.startup.main
                0x0001b294      0x2a0 examples/dfu/CMakeFiles/dfu_no_serial_nrf51422_xxAC_s130_2.0.1.dir/src/main.c.obj
                0x0001b294                main
 .text.sd_evt_get
                0x0001b534        0x4 examples/dfu/CMakeFiles/dfu_no_serial_nrf51422_xxAC_s130_2.0.1.dir/__/nrf_mesh_sdk.c.obj
 .text.sd_softdevice_enable
                0x0001b538        0x4 examples/dfu/CMakeFiles/dfu_no_serial_nrf51422_xxAC_s130_2.0.1.dir/__/nrf_mesh_sdk.c.obj
 .text.sd_ble_enable
                0x0001b53c        0x4 examples/dfu/CMakeFiles/dfu_no_serial_nrf51422_xxAC_s130_2.0.1.dir/__/nrf_mesh_sdk.c.obj
 .text.sd_ble_evt_get
                0x0001b540        0x4 examples/dfu/CMakeFiles/dfu_no_serial_nrf51422_xxAC_s130_2.0.1.dir/__/nrf_mesh_sdk.c.obj
 .text.sleep_forever
                0x0001b544       0x24 examples/dfu/CMakeFiles/dfu_no_serial_nrf51422_xxAC_s130_2.0.1.dir/__/nrf_mesh_sdk.c.obj
 .text.mesh_assert_handler
                0x0001b568       0x64 examples/dfu/CMakeFiles/dfu_no_serial_nrf51422_xxAC_s130_2.0.1.dir/__/nrf_mesh_sdk.c.obj
                0x0001b568                mesh_assert_handler
 .text.softdevice_assert_handler
                0x0001b5cc       0x7c examples/dfu/CMakeFiles/dfu_no_serial_nrf51422_xxAC_s130_2.0.1.dir/__/nrf_mesh_sdk.c.obj
                0x0001b5cc                softdevice_assert_handler
 .text.app_error_handler
                0x0001b648       0x7c examples/dfu/CMakeFiles/dfu_no_serial_nrf51422_xxAC_s130_2.0.1.dir/__/nrf_mesh_sdk.c.obj
                0x0001b648                app_error_handler
 .text.HardFault_Handler
                0x0001b6c4       0x60 examples/dfu/CMakeFiles/dfu_no_serial_nrf51422_xxAC_s130_2.0.1.dir/__/nrf_mesh_sdk.c.obj
                0x0001b6c4                HardFault_Handler
 .text.SWI2_IRQHandler
                0x0001b724       0x38 examples/dfu/CMakeFiles/dfu_no_serial_nrf51422_xxAC_s130_2.0.1.dir/__/nrf_mesh_sdk.c.obj
                0x0001b724                SWI2_IRQHandler
 .text.mesh_softdevice_enable
                0x0001b75c      0x12c examples/dfu/CMakeFiles/dfu_no_serial_nrf51422_xxAC_s130_2.0.1.dir/__/nrf_mesh_sdk.c.obj
                0x0001b75c                mesh_softdevice_enable
 .text.mesh_softdevice_setup
                0x0001b888       0x80 examples/dfu/CMakeFiles/dfu_no_serial_nrf51422_xxAC_s130_2.0.1.dir/__/nrf_mesh_sdk.c.obj
                0x0001b888                mesh_softdevice_setup
 .text.mesh_core_setup
                0x0001b908      0x158 examples/dfu/CMakeFiles/dfu_no_serial_nrf51422_xxAC_s130_2.0.1.dir/__/nrf_mesh_sdk.c.obj
                0x0001b908                mesh_core_setup
 .text.bitfield_get
                0x0001ba60       0x18 examples/dfu/CMakeFiles/dfu_no_serial_nrf51422_xxAC_s130_2.0.1.dir/__/__/mesh/access/src/device_state_manager.c.obj
 .text.virtual_address_uuid_index_get
                0x0001ba78       0x58 examples/dfu/CMakeFiles/dfu_no_serial_nrf51422_xxAC_s130_2.0.1.dir/__/__/mesh/access/src/device_state_manager.c.obj
 .text.get_subnet_handle
                0x0001bad0       0x44 examples/dfu/CMakeFiles/dfu_no_serial_nrf51422_xxAC_s130_2.0.1.dir/__/__/mesh/access/src/device_state_manager.c.obj
 .text.get_app_handle
                0x0001bb14       0x50 examples/dfu/CMakeFiles/dfu_no_serial_nrf51422_xxAC_s130_2.0.1.dir/__/__/mesh/access/src/device_state_manager.c.obj
 .text.nrf_mesh_net_secmat_next_get
                0x0001bb64       0x70 examples/dfu/CMakeFiles/dfu_no_serial_nrf51422_xxAC_s130_2.0.1.dir/__/__/mesh/access/src/device_state_manager.c.obj
                0x0001bb64                nrf_mesh_net_secmat_next_get
 .text.nrf_mesh_app_secmat_next_get
                0x0001bbd4       0xa0 examples/dfu/CMakeFiles/dfu_no_serial_nrf51422_xxAC_s130_2.0.1.dir/__/__/mesh/access/src/device_state_manager.c.obj
                0x0001bbd4                nrf_mesh_app_secmat_next_get
 .text.nrf_mesh_devkey_secmat_get
                0x0001bc74       0x34 examples/dfu/CMakeFiles/dfu_no_serial_nrf51422_xxAC_s130_2.0.1.dir/__/__/mesh/access/src/device_state_manager.c.obj
                0x0001bc74                nrf_mesh_devkey_secmat_get
 .text.nrf_mesh_beacon_info_next_get
                0x0001bca8       0xc0 examples/dfu/CMakeFiles/dfu_no_serial_nrf51422_xxAC_s130_2.0.1.dir/__/__/mesh/access/src/device_state_manager.c.obj
                0x0001bca8                nrf_mesh_beacon_info_next_get
 .text.nrf_mesh_rx_address_get
                0x0001bd68      0x108 examples/dfu/CMakeFiles/dfu_no_serial_nrf51422_xxAC_s130_2.0.1.dir/__/__/mesh/access/src/device_state_manager.c.obj
                0x0001bd68                nrf_mesh_rx_address_get
 .text.prov_cb_link_opened
                0x0001be70        0xe examples/dfu/CMakeFiles/dfu_no_serial_nrf51422_xxAC_s130_2.0.1.dir/__/__/mesh/prov/src/provisioning.c.obj
                0x0001be70                prov_cb_link_opened
 .text.prov_cb_link_closed
                0x0001be7e        0xe examples/dfu/CMakeFiles/dfu_no_serial_nrf51422_xxAC_s130_2.0.1.dir/__/__/mesh/prov/src/provisioning.c.obj
                0x0001be7e                prov_cb_link_closed
 .text.prov_cb_pkt_in
                0x0001be8c       0x80 examples/dfu/CMakeFiles/dfu_no_serial_nrf51422_xxAC_s130_2.0.1.dir/__/__/mesh/prov/src/provisioning.c.obj
                0x0001be8c                prov_cb_pkt_in
 .text.prov_cb_ack_in
                0x0001bf0c        0xe examples/dfu/CMakeFiles/dfu_no_serial_nrf51422_xxAC_s130_2.0.1.dir/__/__/mesh/prov/src/provisioning.c.obj
                0x0001bf0c                prov_cb_ack_in
 *fill*         0x0001bf1a        0x2 
 .text.prov_beacon_unprov_packet_in
                0x0001bf1c       0xb8 examples/dfu/CMakeFiles/dfu_no_serial_nrf51422_xxAC_s130_2.0.1.dir/__/__/mesh/prov/src/prov_beacon.c.obj
                0x0001bf1c                prov_beacon_unprov_packet_in
 .text.remove_active_bearer
                0x0001bfd4       0x68 examples/dfu/CMakeFiles/dfu_no_serial_nrf51422_xxAC_s130_2.0.1.dir/__/__/mesh/prov/src/prov_bearer_adv.c.obj
 .text.close_link
                0x0001c03c       0x6c examples/dfu/CMakeFiles/dfu_no_serial_nrf51422_xxAC_s130_2.0.1.dir/__/__/mesh/prov/src/prov_bearer_adv.c.obj
 .text.send_packet
                0x0001c0a8       0x70 examples/dfu/CMakeFiles/dfu_no_serial_nrf51422_xxAC_s130_2.0.1.dir/__/__/mesh/prov/src/prov_bearer_adv.c.obj
 .text.send_link_close
                0x0001c118       0x28 examples/dfu/CMakeFiles/dfu_no_serial_nrf51422_xxAC_s130_2.0.1.dir/__/__/mesh/prov/src/prov_bearer_adv.c.obj
 .text.prov_bearer_adv_link_close
                0x0001c140       0x78 examples/dfu/CMakeFiles/dfu_no_serial_nrf51422_xxAC_s130_2.0.1.dir/__/__/mesh/prov/src/prov_bearer_adv.c.obj
 .text.send_transaction_ack
                0x0001c1b8       0x24 examples/dfu/CMakeFiles/dfu_no_serial_nrf51422_xxAC_s130_2.0.1.dir/__/__/mesh/prov/src/prov_bearer_adv.c.obj
 .text.send_link_ack
                0x0001c1dc       0x26 examples/dfu/CMakeFiles/dfu_no_serial_nrf51422_xxAC_s130_2.0.1.dir/__/__/mesh/prov/src/prov_bearer_adv.c.obj
 .text.reset_timeout_timer
                0x0001c202       0x1a examples/dfu/CMakeFiles/dfu_no_serial_nrf51422_xxAC_s130_2.0.1.dir/__/__/mesh/prov/src/prov_bearer_adv.c.obj
 .text.calculate_3GPP_CRC
                0x0001c21c       0x24 examples/dfu/CMakeFiles/dfu_no_serial_nrf51422_xxAC_s130_2.0.1.dir/__/__/mesh/prov/src/prov_bearer_adv.c.obj
                0x0001c21c                calculate_3GPP_CRC
 .text.prov_buffer_rx
                0x0001c240       0x74 examples/dfu/CMakeFiles/dfu_no_serial_nrf51422_xxAC_s130_2.0.1.dir/__/__/mesh/prov/src/prov_bearer_adv.c.obj
 .text.prov_bearer_adv_packet_in
                0x0001c2b4      0x898 examples/dfu/CMakeFiles/dfu_no_serial_nrf51422_xxAC_s130_2.0.1.dir/__/__/mesh/prov/src/prov_bearer_adv.c.obj
                0x0001c2b4                prov_bearer_adv_packet_in
 .text.tx_complete_cb
                0x0001cb4c        0x2 examples/dfu/CMakeFiles/dfu_no_serial_nrf51422_xxAC_s130_2.0.1.dir/__/__/mesh/dfu/src/nrf_mesh_dfu.c.obj
 *fill*         0x0001cb4e        0x2 
 .text.reset_transfer_state
                0x0001cb50       0x24 examples/dfu/CMakeFiles/dfu_no_serial_nrf51422_xxAC_s130_2.0.1.dir/__/__/mesh/dfu/src/nrf_mesh_dfu.c.obj
 .text.end_transfer
                0x0001cb74       0x38 examples/dfu/CMakeFiles/dfu_no_serial_nrf51422_xxAC_s130_2.0.1.dir/__/__/mesh/dfu/src/nrf_mesh_dfu.c.obj
 .text.dfu_evt_handler
                0x0001cbac      0x808 examples/dfu/CMakeFiles/dfu_no_serial_nrf51422_xxAC_s130_2.0.1.dir/__/__/mesh/dfu/src/nrf_mesh_dfu.c.obj
 .text.next_tx_timeout
                0x0001d3b4       0x68 examples/dfu/CMakeFiles/dfu_no_serial_nrf51422_xxAC_s130_2.0.1.dir/__/__/mesh/dfu/src/nrf_mesh_dfu.c.obj
 .text.tx_timeout
                0x0001d41c      0x118 examples/dfu/CMakeFiles/dfu_no_serial_nrf51422_xxAC_s130_2.0.1.dir/__/__/mesh/dfu/src/nrf_mesh_dfu.c.obj
 .text.nrf_mesh_dfu_cmd_send
                0x0001d534       0x9c examples/dfu/CMakeFiles/dfu_no_serial_nrf51422_xxAC_s130_2.0.1.dir/__/__/mesh/dfu/src/nrf_mesh_dfu.c.obj
                0x0001d534                nrf_mesh_dfu_cmd_send
 .text.nrf_mesh_dfu_init
                0x0001d5d0      0x164 examples/dfu/CMakeFiles/dfu_no_serial_nrf51422_xxAC_s130_2.0.1.dir/__/__/mesh/dfu/src/nrf_mesh_dfu.c.obj
                0x0001d5d0                nrf_mesh_dfu_init
 .text.flash_op_complete
                0x0001d734      0x16c examples/dfu/CMakeFiles/dfu_no_serial_nrf51422_xxAC_s130_2.0.1.dir/__/__/mesh/dfu/src/nrf_mesh_dfu.c.obj
 .text.abort_timeout
                0x0001d8a0       0x84 examples/dfu/CMakeFiles/dfu_no_serial_nrf51422_xxAC_s130_2.0.1.dir/__/__/mesh/dfu/src/nrf_mesh_dfu.c.obj
 .text.timer_timeout
                0x0001d924       0x80 examples/dfu/CMakeFiles/dfu_no_serial_nrf51422_xxAC_s130_2.0.1.dir/__/__/mesh/dfu/src/nrf_mesh_dfu.c.obj
 .text.nrf_mesh_dfu_rx
                0x0001d9a4       0xec examples/dfu/CMakeFiles/dfu_no_serial_nrf51422_xxAC_s130_2.0.1.dir/__/__/mesh/dfu/src/nrf_mesh_dfu.c.obj
                0x0001d9a4                nrf_mesh_dfu_rx
 .text.nrf_mesh_dfu_request
                0x0001da90       0x90 examples/dfu/CMakeFiles/dfu_no_serial_nrf51422_xxAC_s130_2.0.1.dir/__/__/mesh/dfu/src/nrf_mesh_dfu.c.obj
                0x0001da90                nrf_mesh_dfu_request
 .text.nrf_mesh_dfu_relay
                0x0001db20       0x5c examples/dfu/CMakeFiles/dfu_no_serial_nrf51422_xxAC_s130_2.0.1.dir/__/__/mesh/dfu/src/nrf_mesh_dfu.c.obj
                0x0001db20                nrf_mesh_dfu_relay
 .text.nrf_mesh_dfu_bank_flash
                0x0001db7c       0x24 examples/dfu/CMakeFiles/dfu_no_serial_nrf51422_xxAC_s130_2.0.1.dir/__/__/mesh/dfu/src/nrf_mesh_dfu.c.obj
                0x0001db7c                nrf_mesh_dfu_bank_flash
 .text.SystemInit
                0x0001dba0       0xe0 examples/dfu/CMakeFiles/dfu_no_serial_nrf51422_xxAC_s130_2.0.1.dir/__/__/external/nRF5_SDK_14.0.0_3bcc1f7/components/toolchain/system_nrf51.c.obj
                0x0001dba0                SystemInit
 .text          0x0001dc80       0x4c examples/dfu/CMakeFiles/dfu_no_serial_nrf51422_xxAC_s130_2.0.1.dir/__/__/external/nRF5_SDK_14.0.0_3bcc1f7/components/toolchain/gcc/gcc_startup_nrf51.S.obj
                0x0001dc80                Reset_Handler
                0x0001dcc0                NMI_Handler
                0x0001dcc4                SVC_Handler
                0x0001dcc6                PendSV_Handler
                0x0001dcc8                SysTick_Handler
                0x0001dcca                GPIOTE_IRQHandler
                0x0001dcca                RTC0_IRQHandler
                0x0001dcca                POWER_CLOCK_IRQHandler
                0x0001dcca                SPI0_TWI0_IRQHandler
                0x0001dcca                LPCOMP_IRQHandler
                0x0001dcca                SWI4_IRQHandler
                0x0001dcca                TEMP_IRQHandler
                0x0001dcca                UART0_IRQHandler
                0x0001dcca                SWI5_IRQHandler
                0x0001dcca                TIMER0_IRQHandler
                0x0001dcca                RADIO_IRQHandler
                0x0001dcca                SWI0_IRQHandler
                0x0001dcca                TIMER1_IRQHandler
                0x0001dcca                ECB_IRQHandler
                0x0001dcca                Default_Handler
                0x0001dcca                ADC_IRQHandler
                0x0001dcca                SWI3_IRQHandler
                0x0001dcca                CCM_AAR_IRQHandler
                0x0001dcca                WDT_IRQHandler
                0x0001dcca                TIMER2_IRQHandler
                0x0001dcca                RNG_IRQHandler
                0x0001dcca                SPI1_TWI1_IRQHandler
                0x0001dcca                RTC1_IRQHandler
                0x0001dcca                SWI1_IRQHandler
 .text.nrf_mesh_configure_device_uuid_reset
                0x0001dccc       0x28 mesh/core/libmesh_core_nrf51422_xxAC.a(nrf_mesh_configure.c.obj)
                0x0001dccc                nrf_mesh_configure_device_uuid_reset
 .text.nrf_mesh_configure_device_uuid_get
                0x0001dcf4        0x8 mesh/core/libmesh_core_nrf51422_xxAC.a(nrf_mesh_configure.c.obj)
                0x0001dcf4                nrf_mesh_configure_device_uuid_get
 .text.event_handle
                0x0001dcfc       0x34 mesh/core/libmesh_core_nrf51422_xxAC.a(event.c.obj)
                0x0001dcfc                event_handle
 .text.event_handler_add
                0x0001dd30       0x7c mesh/core/libmesh_core_nrf51422_xxAC.a(event.c.obj)
                0x0001dd30                event_handler_add
 .text.flash_mem_available
                0x0001ddac       0x20 mesh/core/libmesh_core_nrf51422_xxAC.a(net_state.c.obj)
 .text.flash_store_iv_index
                0x0001ddcc       0x34 mesh/core/libmesh_core_nrf51422_xxAC.a(net_state.c.obj)
 .text.seqnum_block_allocate
                0x0001de00       0x50 mesh/core/libmesh_core_nrf51422_xxAC.a(net_state.c.obj)
 .text.flash_write_complete
                0x0001de50       0x80 mesh/core/libmesh_core_nrf51422_xxAC.a(net_state.c.obj)
 .text.net_state_recover_from_flash
                0x0001ded0       0x8c mesh/core/libmesh_core_nrf51422_xxAC.a(net_state.c.obj)
                0x0001ded0                net_state_recover_from_flash
 .text.net_state_flash_area_get
                0x0001df5c       0x10 mesh/core/libmesh_core_nrf51422_xxAC.a(net_state.c.obj)
                0x0001df5c                net_state_flash_area_get
 .text.init_flash_storage
                0x0001df6c       0x40 mesh/core/libmesh_core_nrf51422_xxAC.a(net_state.c.obj)
 .text.net_state_init
                0x0001dfac       0x48 mesh/core/libmesh_core_nrf51422_xxAC.a(net_state.c.obj)
                0x0001dfac                net_state_init
 .text.net_state_iv_update_start
                0x0001dff4       0x64 mesh/core/libmesh_core_nrf51422_xxAC.a(net_state.c.obj)
                0x0001dff4                net_state_iv_update_start
 .text.iv_update_trigger_if_pending
                0x0001e058       0x94 mesh/core/libmesh_core_nrf51422_xxAC.a(net_state.c.obj)
 .text.iv_update_timer_handler
                0x0001e0ec       0x80 mesh/core/libmesh_core_nrf51422_xxAC.a(net_state.c.obj)
 .text.net_state_seqnum_alloc
                0x0001e16c       0x68 mesh/core/libmesh_core_nrf51422_xxAC.a(net_state.c.obj)
                0x0001e16c                net_state_seqnum_alloc
 .text.net_state_iv_index_lock
                0x0001e1d4       0x4c mesh/core/libmesh_core_nrf51422_xxAC.a(net_state.c.obj)
                0x0001e1d4                net_state_iv_index_lock
 .text.net_state_beacon_received
                0x0001e220       0x98 mesh/core/libmesh_core_nrf51422_xxAC.a(net_state.c.obj)
                0x0001e220                net_state_beacon_received
 .text.net_state_beacon_iv_index_get
                0x0001e2b8        0xc mesh/core/libmesh_core_nrf51422_xxAC.a(net_state.c.obj)
                0x0001e2b8                net_state_beacon_iv_index_get
 .text.net_state_tx_iv_index_get
                0x0001e2c4       0x14 mesh/core/libmesh_core_nrf51422_xxAC.a(net_state.c.obj)
                0x0001e2c4                net_state_tx_iv_index_get
 .text.net_state_rx_iv_index_get
                0x0001e2d8       0x14 mesh/core/libmesh_core_nrf51422_xxAC.a(net_state.c.obj)
                0x0001e2d8                net_state_rx_iv_index_get
 .text.net_state_iv_update_get
                0x0001e2ec        0xc mesh/core/libmesh_core_nrf51422_xxAC.a(net_state.c.obj)
                0x0001e2ec                net_state_iv_update_get
 .text.send_end_events
                0x0001e2f8       0x80 mesh/core/libmesh_core_nrf51422_xxAC.a(mesh_flash.c.obj)
 .text.flash_op_schedule
                0x0001e378       0xa0 mesh/core/libmesh_core_nrf51422_xxAC.a(mesh_flash.c.obj)
 .text.flash_op_start
                0x0001e418      0x178 mesh/core/libmesh_core_nrf51422_xxAC.a(mesh_flash.c.obj)
 .text.mesh_flash_init
                0x0001e590       0x94 mesh/core/libmesh_core_nrf51422_xxAC.a(mesh_flash.c.obj)
                0x0001e590                mesh_flash_init
 .text.mesh_flash_user_callback_set
                0x0001e624       0x30 mesh/core/libmesh_core_nrf51422_xxAC.a(mesh_flash.c.obj)
                0x0001e624                mesh_flash_user_callback_set
 .text.mesh_flash_op_push
                0x0001e654      0x140 mesh/core/libmesh_core_nrf51422_xxAC.a(mesh_flash.c.obj)
                0x0001e654                mesh_flash_op_push
 .text.mesh_flash_in_progress
                0x0001e794       0x38 mesh/core/libmesh_core_nrf51422_xxAC.a(mesh_flash.c.obj)
                0x0001e794                mesh_flash_in_progress
 .text.mesh_flash_set_suspended
                0x0001e7cc       0x90 mesh/core/libmesh_core_nrf51422_xxAC.a(mesh_flash.c.obj)
                0x0001e7cc                mesh_flash_set_suspended
 .text.nrf_mesh_address_type_get
                0x0001e85c       0x14 mesh/core/libmesh_core_nrf51422_xxAC.a(nrf_mesh_utils.c.obj)
                0x0001e85c                nrf_mesh_address_type_get
 .text.sd_softdevice_is_enabled
                0x0001e870        0x4 mesh/core/libmesh_core_nrf51422_xxAC.a(nrf_mesh.c.obj)
 .text.nrf_mesh_init
                0x0001e874       0xb8 mesh/core/libmesh_core_nrf51422_xxAC.a(nrf_mesh.c.obj)
                0x0001e874                nrf_mesh_init
 .text.nrf_mesh_enable
                0x0001e92c       0x4c mesh/core/libmesh_core_nrf51422_xxAC.a(nrf_mesh.c.obj)
                0x0001e92c                nrf_mesh_enable
 .text.nrf_mesh_process
                0x0001e978      0x1c4 mesh/core/libmesh_core_nrf51422_xxAC.a(nrf_mesh.c.obj)
                0x0001e978                nrf_mesh_process
 .text.nrf_mesh_on_ble_evt
                0x0001eb3c        0x4 mesh/core/libmesh_core_nrf51422_xxAC.a(nrf_mesh.c.obj)
                0x0001eb3c                nrf_mesh_on_ble_evt
 .text.nrf_mesh_on_sd_evt
                0x0001eb40        0xa mesh/core/libmesh_core_nrf51422_xxAC.a(nrf_mesh.c.obj)
                0x0001eb40                nrf_mesh_on_sd_evt
 .text.nrf_mesh_evt_handler_add
                0x0001eb4a        0x8 mesh/core/libmesh_core_nrf51422_xxAC.a(nrf_mesh.c.obj)
                0x0001eb4a                nrf_mesh_evt_handler_add
 *fill*         0x0001eb52        0x2 
 .text.hal_lfclk_ppm_get
                0x0001eb54       0x14 mesh/core/libmesh_core_nrf51422_xxAC.a(hal.c.obj)
                0x0001eb54                hal_lfclk_ppm_get
 .text.add_to_add_list
                0x0001eb68       0x4c mesh/core/libmesh_core_nrf51422_xxAC.a(timer_scheduler.c.obj)
 .text.process_dirty_events
                0x0001ebb4       0x64 mesh/core/libmesh_core_nrf51422_xxAC.a(timer_scheduler.c.obj)
 .text.timer_cb
                0x0001ec18       0x10 mesh/core/libmesh_core_nrf51422_xxAC.a(timer_scheduler.c.obj)
 .text.add_evt.constprop.0
                0x0001ec28       0x70 mesh/core/libmesh_core_nrf51422_xxAC.a(timer_scheduler.c.obj)
 .text.process_add_list
                0x0001ec98       0x4c mesh/core/libmesh_core_nrf51422_xxAC.a(timer_scheduler.c.obj)
 .text.flag_event_cb
                0x0001ece4      0x104 mesh/core/libmesh_core_nrf51422_xxAC.a(timer_scheduler.c.obj)
 .text.timer_sch_init
                0x0001ede8       0x24 mesh/core/libmesh_core_nrf51422_xxAC.a(timer_scheduler.c.obj)
                0x0001ede8                timer_sch_init
 .text.timer_sch_schedule
                0x0001ee0c       0x54 mesh/core/libmesh_core_nrf51422_xxAC.a(timer_scheduler.c.obj)
                0x0001ee0c                timer_sch_schedule
 .text.timer_sch_abort
                0x0001ee60       0x68 mesh/core/libmesh_core_nrf51422_xxAC.a(timer_scheduler.c.obj)
                0x0001ee60                timer_sch_abort
 .text.timer_sch_reschedule
                0x0001eec8       0x78 mesh/core/libmesh_core_nrf51422_xxAC.a(timer_scheduler.c.obj)
                0x0001eec8                timer_sch_reschedule
 .text.timer_mut_unlock
                0x0001ef40       0x10 mesh/core/libmesh_core_nrf51422_xxAC.a(timer.c.obj)
 .text.timer_order_cb
                0x0001ef50       0x90 mesh/core/libmesh_core_nrf51422_xxAC.a(timer.c.obj)
                0x0001ef50                timer_order_cb
 .text.timer_now
                0x0001efe0       0x54 mesh/core/libmesh_core_nrf51422_xxAC.a(timer.c.obj)
                0x0001efe0                timer_now
 .text.timer_event_handler
                0x0001f034       0x94 mesh/core/libmesh_core_nrf51422_xxAC.a(timer.c.obj)
                0x0001f034                timer_event_handler
 .text.timer_on_ts_begin
                0x0001f0c8      0x104 mesh/core/libmesh_core_nrf51422_xxAC.a(timer.c.obj)
                0x0001f0c8                timer_on_ts_begin
 .text.timer_on_ts_end
                0x0001f1cc       0x64 mesh/core/libmesh_core_nrf51422_xxAC.a(timer.c.obj)
                0x0001f1cc                timer_on_ts_end
 .text.timer_cb
                0x0001f230       0x10 mesh/core/libmesh_core_nrf51422_xxAC.a(ticker.c.obj)
 .text.ticker_init
                0x0001f240       0x38 mesh/core/libmesh_core_nrf51422_xxAC.a(ticker.c.obj)
                0x0001f240                ticker_init
 .text.sd_rand_application_bytes_available_get
                0x0001f278        0x4 mesh/core/libmesh_core_nrf51422_xxAC.a(rand.c.obj)
 .text.sd_rand_application_vector_get
                0x0001f27c        0x4 mesh/core/libmesh_core_nrf51422_xxAC.a(rand.c.obj)
 .text.rand_prng_get
                0x0001f280       0x2e mesh/core/libmesh_core_nrf51422_xxAC.a(rand.c.obj)
                0x0001f280                rand_prng_get
 *fill*         0x0001f2ae        0x2 
 .text.rand_hw_rng_get
                0x0001f2b0       0x4c mesh/core/libmesh_core_nrf51422_xxAC.a(rand.c.obj)
                0x0001f2b0                rand_hw_rng_get
 .text.rand_prng_seed
                0x0001f2fc       0x30 mesh/core/libmesh_core_nrf51422_xxAC.a(rand.c.obj)
                0x0001f2fc                rand_prng_seed
 .text.sd_radio_session_open
                0x0001f32c        0x4 mesh/core/libmesh_core_nrf51422_xxAC.a(timeslot.c.obj)
 .text.sd_radio_session_close
                0x0001f330        0x4 mesh/core/libmesh_core_nrf51422_xxAC.a(timeslot.c.obj)
 .text.sd_radio_request
                0x0001f334        0x4 mesh/core/libmesh_core_nrf51422_xxAC.a(timeslot.c.obj)
 .text.end_timer_handler
                0x0001f338       0x2c mesh/core/libmesh_core_nrf51422_xxAC.a(timeslot.c.obj)
 .text.get_end_time.constprop.10
                0x0001f364       0x28 mesh/core/libmesh_core_nrf51422_xxAC.a(timeslot.c.obj)
 .text.handle_extend_end.constprop.3
                0x0001f38c       0xc4 mesh/core/libmesh_core_nrf51422_xxAC.a(timeslot.c.obj)
 .text.radio_signal_callback
                0x0001f450      0x160 mesh/core/libmesh_core_nrf51422_xxAC.a(timeslot.c.obj)
 .text.timeslot_sd_event_handler
                0x0001f5b0       0x48 mesh/core/libmesh_core_nrf51422_xxAC.a(timeslot.c.obj)
                0x0001f5b0                timeslot_sd_event_handler
 .text.timeslot_init
                0x0001f5f8       0x4c mesh/core/libmesh_core_nrf51422_xxAC.a(timeslot.c.obj)
                0x0001f5f8                timeslot_init
 .text.timeslot_start
                0x0001f644       0x1c mesh/core/libmesh_core_nrf51422_xxAC.a(timeslot.c.obj)
                0x0001f644                timeslot_start
 .text.timeslot_end_is_pending
                0x0001f660       0x2c mesh/core/libmesh_core_nrf51422_xxAC.a(timeslot.c.obj)
                0x0001f660                timeslot_end_is_pending
 .text.timeslot_start_time_get
                0x0001f68c        0xc mesh/core/libmesh_core_nrf51422_xxAC.a(timeslot.c.obj)
                0x0001f68c                timeslot_start_time_get
 .text.timeslot_remaining_time_get
                0x0001f698       0x24 mesh/core/libmesh_core_nrf51422_xxAC.a(timeslot.c.obj)
                0x0001f698                timeslot_remaining_time_get
 .text.timeslot_is_in_cb
                0x0001f6bc        0xc mesh/core/libmesh_core_nrf51422_xxAC.a(timeslot.c.obj)
                0x0001f6bc                timeslot_is_in_cb
 .text.timeslot_trigger
                0x0001f6c8       0x28 mesh/core/libmesh_core_nrf51422_xxAC.a(timeslot.c.obj)
                0x0001f6c8                timeslot_trigger
 .text.timeslot_stop
                0x0001f6f0       0x14 mesh/core/libmesh_core_nrf51422_xxAC.a(timeslot.c.obj)
                0x0001f6f0                timeslot_stop
 .text.timeslot_state_lock
                0x0001f704       0x2c mesh/core/libmesh_core_nrf51422_xxAC.a(timeslot.c.obj)
                0x0001f704                timeslot_state_lock
 .text.evt_push
                0x0001f730       0x24 mesh/core/libmesh_core_nrf51422_xxAC.a(bearer_event.c.obj)
 .text.QDEC_IRQHandler
                0x0001f754       0xc4 mesh/core/libmesh_core_nrf51422_xxAC.a(bearer_event.c.obj)
                0x0001f754                QDEC_IRQHandler
 .text.bearer_event_init
                0x0001f818       0x48 mesh/core/libmesh_core_nrf51422_xxAC.a(bearer_event.c.obj)
                0x0001f818                bearer_event_init
 .text.bearer_event_timer_post
                0x0001f860       0x34 mesh/core/libmesh_core_nrf51422_xxAC.a(bearer_event.c.obj)
                0x0001f860                bearer_event_timer_post
 .text.bearer_event_critical_section_begin
                0x0001f894       0x48 mesh/core/libmesh_core_nrf51422_xxAC.a(bearer_event.c.obj)
                0x0001f894                bearer_event_critical_section_begin
 .text.bearer_event_critical_section_end
                0x0001f8dc       0x48 mesh/core/libmesh_core_nrf51422_xxAC.a(bearer_event.c.obj)
                0x0001f8dc                bearer_event_critical_section_end
 .text.bearer_event_flag_add
                0x0001f924       0x54 mesh/core/libmesh_core_nrf51422_xxAC.a(bearer_event.c.obj)
                0x0001f924                bearer_event_flag_add
 .text.bearer_event_flag_set
                0x0001f978       0x58 mesh/core/libmesh_core_nrf51422_xxAC.a(bearer_event.c.obj)
                0x0001f978                bearer_event_flag_set
 .text.bearer_event_sequential_add
                0x0001f9d0       0x4c mesh/core/libmesh_core_nrf51422_xxAC.a(bearer_event.c.obj)
                0x0001f9d0                bearer_event_sequential_add
 .text.bearer_event_sequential_post
                0x0001fa1c       0x68 mesh/core/libmesh_core_nrf51422_xxAC.a(bearer_event.c.obj)
                0x0001fa1c                bearer_event_sequential_post
 .text.bearer_event_sequential_pending
                0x0001fa84       0x20 mesh/core/libmesh_core_nrf51422_xxAC.a(bearer_event.c.obj)
                0x0001fa84                bearer_event_sequential_pending
 .text.enc_aes_encrypt
                0x0001faa4        0x8 mesh/core/libmesh_core_nrf51422_xxAC.a(enc.c.obj)
                0x0001faa4                enc_aes_encrypt
 .text.enc_aes_cmac
                0x0001faac        0x8 mesh/core/libmesh_core_nrf51422_xxAC.a(enc.c.obj)
                0x0001faac                enc_aes_cmac
 .text.enc_aes_ccm_encrypt
                0x0001fab4        0x8 mesh/core/libmesh_core_nrf51422_xxAC.a(enc.c.obj)
                0x0001fab4                enc_aes_ccm_encrypt
 .text.enc_aes_ccm_decrypt
                0x0001fabc        0x8 mesh/core/libmesh_core_nrf51422_xxAC.a(enc.c.obj)
                0x0001fabc                enc_aes_ccm_decrypt
 .text.enc_nonce_generate
                0x0001fac4       0xd8 mesh/core/libmesh_core_nrf51422_xxAC.a(enc.c.obj)
                0x0001fac4                enc_nonce_generate
 .text.enc_s1   0x0001fb9c       0x3c mesh/core/libmesh_core_nrf51422_xxAC.a(enc.c.obj)
                0x0001fb9c                enc_s1
 .text.header_transfuscate
                0x0001fbd8       0x58 mesh/core/libmesh_core_nrf51422_xxAC.a(network.c.obj)
 .text.allocate_packet
                0x0001fc30      0x140 mesh/core/libmesh_core_nrf51422_xxAC.a(network.c.obj)
 .text.network_init
                0x0001fd70       0x2c mesh/core/libmesh_core_nrf51422_xxAC.a(network.c.obj)
                0x0001fd70                network_init
 .text.network_packet_alloc
                0x0001fd9c       0x58 mesh/core/libmesh_core_nrf51422_xxAC.a(network.c.obj)
                0x0001fd9c                network_packet_alloc
 .text.network_packet_send
                0x0001fdf4      0x154 mesh/core/libmesh_core_nrf51422_xxAC.a(network.c.obj)
                0x0001fdf4                network_packet_send
 .text.network_packet_in
                0x0001ff48      0x484 mesh/core/libmesh_core_nrf51422_xxAC.a(network.c.obj)
                0x0001ff48                network_packet_in
 .text.stage_get_available
                0x000203cc       0x26 mesh/core/libmesh_core_nrf51422_xxAC.a(msqueue.c.obj)
 *fill*         0x000203f2        0x2 
 .text.msq_get  0x000203f4       0x54 mesh/core/libmesh_core_nrf51422_xxAC.a(msqueue.c.obj)
                0x000203f4                msq_get
 .text.msq_move
                0x00020448       0x4c mesh/core/libmesh_core_nrf51422_xxAC.a(msqueue.c.obj)
                0x00020448                msq_move
 .text.msq_reset
                0x00020494       0x30 mesh/core/libmesh_core_nrf51422_xxAC.a(msqueue.c.obj)
                0x00020494                msq_reset
 .text.msq_init
                0x000204c4       0x88 mesh/core/libmesh_core_nrf51422_xxAC.a(msqueue.c.obj)
                0x000204c4                msq_init
 .text.msq_available
                0x0002054c       0x40 mesh/core/libmesh_core_nrf51422_xxAC.a(msqueue.c.obj)
                0x0002054c                msq_available
 .text.log_callback_rtt
                0x0002058c       0x28 mesh/core/libmesh_core_nrf51422_xxAC.a(log.c.obj)
                0x0002058c                log_callback_rtt
 .text.log_init
                0x000205b4       0x1c mesh/core/libmesh_core_nrf51422_xxAC.a(log.c.obj)
                0x000205b4                log_init
 .text.log_vprintf
                0x000205d0       0x1c mesh/core/libmesh_core_nrf51422_xxAC.a(log.c.obj)
                0x000205d0                log_vprintf
 .text.log_printf
                0x000205ec       0x16 mesh/core/libmesh_core_nrf51422_xxAC.a(log.c.obj)
                0x000205ec                log_printf
 .text.get_area_end
                0x00020602        0xc mesh/core/libmesh_core_nrf51422_xxAC.a(flash_manager.c.obj)
 *fill*         0x0002060e        0x2 
 .text.handle_matches_filter
                0x00020610       0x28 mesh/core/libmesh_core_nrf51422_xxAC.a(flash_manager.c.obj)
 .text.get_packet_buffer
                0x00020638       0x30 mesh/core/libmesh_core_nrf51422_xxAC.a(flash_manager.c.obj)
 .text.get_entry_action
                0x00020668       0x30 mesh/core/libmesh_core_nrf51422_xxAC.a(flash_manager.c.obj)
 .text.flash_area_is_blank
                0x00020698       0x50 mesh/core/libmesh_core_nrf51422_xxAC.a(flash_manager.c.obj)
 .text.flash    0x000206e8       0x1e mesh/core/libmesh_core_nrf51422_xxAC.a(flash_manager.c.obj)
 *fill*         0x00020706        0x2 
 .text.free_packet_buffer
                0x00020708       0x4c mesh/core/libmesh_core_nrf51422_xxAC.a(flash_manager.c.obj)
 .text.reserve_action_buffer
                0x00020754       0x20 mesh/core/libmesh_core_nrf51422_xxAC.a(flash_manager.c.obj)
 .text.commit_action_buffer
                0x00020774       0x18 mesh/core/libmesh_core_nrf51422_xxAC.a(flash_manager.c.obj)
 .text.schedule_processing
                0x0002078c       0x10 mesh/core/libmesh_core_nrf51422_xxAC.a(flash_manager.c.obj)
 .text.get_next_entry
                0x0002079c       0x44 mesh/core/libmesh_core_nrf51422_xxAC.a(flash_manager.c.obj)
 .text.get_last_entry.isra.1
                0x000207e0       0x34 mesh/core/libmesh_core_nrf51422_xxAC.a(flash_manager.c.obj)
 .text.process_action_queue
                0x00020814      0x49c mesh/core/libmesh_core_nrf51422_xxAC.a(flash_manager.c.obj)
 .text.flash_op_ended_callback
                0x00020cb0       0x24 mesh/core/libmesh_core_nrf51422_xxAC.a(flash_manager.c.obj)
 .text.flash_manager_init
                0x00020cd4       0x68 mesh/core/libmesh_core_nrf51422_xxAC.a(flash_manager.c.obj)
                0x00020cd4                flash_manager_init
 .text.flash_manager_entry_next_get
                0x00020d3c       0x74 mesh/core/libmesh_core_nrf51422_xxAC.a(flash_manager.c.obj)
                0x00020d3c                flash_manager_entry_next_get
 .text.flash_manager_entry_alloc
                0x00020db0       0x88 mesh/core/libmesh_core_nrf51422_xxAC.a(flash_manager.c.obj)
                0x00020db0                flash_manager_entry_alloc
 .text.flash_manager_entry_commit
                0x00020e38       0x10 mesh/core/libmesh_core_nrf51422_xxAC.a(flash_manager.c.obj)
                0x00020e38                flash_manager_entry_commit
 .text.flash_manager_entry_invalidate
                0x00020e48       0x70 mesh/core/libmesh_core_nrf51422_xxAC.a(flash_manager.c.obj)
                0x00020e48                flash_manager_entry_invalidate
 .text.flash_manager_add
                0x00020eb8      0x250 mesh/core/libmesh_core_nrf51422_xxAC.a(flash_manager.c.obj)
                0x00020eb8                flash_manager_add
 .text.flash_manager_mem_listener_register
                0x00021108       0x48 mesh/core/libmesh_core_nrf51422_xxAC.a(flash_manager.c.obj)
                0x00021108                flash_manager_mem_listener_register
 .text.flash_manager_is_stable
                0x00021150       0x24 mesh/core/libmesh_core_nrf51422_xxAC.a(flash_manager.c.obj)
                0x00021150                flash_manager_is_stable
 .text.flash_manager_on_defrag_end
                0x00021174       0x5c mesh/core/libmesh_core_nrf51422_xxAC.a(flash_manager.c.obj)
                0x00021174                flash_manager_on_defrag_end
 .text.flash_manager_recovery_page_get
                0x000211d0        0x8 mesh/core/libmesh_core_nrf51422_xxAC.a(flash_manager.c.obj)
                0x000211d0                flash_manager_recovery_page_get
 .text.utils_xor
                0x000211d8       0x16 mesh/core/libmesh_core_nrf51422_xxAC.a(ccm_soft.c.obj)
 .text.ccm_soft_authenticate_blocks
                0x000211ee       0x66 mesh/core/libmesh_core_nrf51422_xxAC.a(ccm_soft.c.obj)
 .text.utils_reverse_memcpy.constprop.0
                0x00021254        0xa mesh/core/libmesh_core_nrf51422_xxAC.a(ccm_soft.c.obj)
 .text.ccm_soft_authenticate
                0x0002125e       0x94 mesh/core/libmesh_core_nrf51422_xxAC.a(ccm_soft.c.obj)
 .text.ccm_soft_crypt
                0x000212f2       0x58 mesh/core/libmesh_core_nrf51422_xxAC.a(ccm_soft.c.obj)
 .text.ccm_soft_encrypt
                0x0002134a       0x6e mesh/core/libmesh_core_nrf51422_xxAC.a(ccm_soft.c.obj)
                0x0002134a                ccm_soft_encrypt
 .text.ccm_soft_decrypt
                0x000213b8      0x10c mesh/core/libmesh_core_nrf51422_xxAC.a(ccm_soft.c.obj)
                0x000213b8                ccm_soft_decrypt
 .text.beacon_init
                0x000214c4       0x4c mesh/core/libmesh_core_nrf51422_xxAC.a(beacon.c.obj)
                0x000214c4                beacon_init
 .text.beacon_create
                0x00021510       0x46 mesh/core/libmesh_core_nrf51422_xxAC.a(beacon.c.obj)
                0x00021510                beacon_create
 *fill*         0x00021556        0x2 
 .text.beacon_tx
                0x00021558       0x40 mesh/core/libmesh_core_nrf51422_xxAC.a(beacon.c.obj)
                0x00021558                beacon_tx
 .text.beacon_packet_in
                0x00021598      0x164 mesh/core/libmesh_core_nrf51422_xxAC.a(beacon.c.obj)
                0x00021598                beacon_packet_in
 .text.entry_get
                0x000216fc       0x80 mesh/core/libmesh_core_nrf51422_xxAC.a(flash_manager_internal.c.obj)
                0x000216fc                entry_get
 .text.adv_tx_complete_callback
                0x0002177c       0x50 mesh/core/libmesh_core_nrf51422_xxAC.a(core_tx.c.obj)
 .text.core_tx_init
                0x000217cc       0x4c mesh/core/libmesh_core_nrf51422_xxAC.a(core_tx.c.obj)
                0x000217cc                core_tx_init
 .text.core_tx_complete_cb_set
                0x00021818        0xc mesh/core/libmesh_core_nrf51422_xxAC.a(core_tx.c.obj)
                0x00021818                core_tx_complete_cb_set
 .text.core_tx_packet_alloc
                0x00021824       0xa4 mesh/core/libmesh_core_nrf51422_xxAC.a(core_tx.c.obj)
                0x00021824                core_tx_packet_alloc
 .text.core_tx_packet_send
                0x000218c8       0x78 mesh/core/libmesh_core_nrf51422_xxAC.a(core_tx.c.obj)
                0x000218c8                core_tx_packet_send
 .text.core_tx_packet_discard
                0x00021940       0x78 mesh/core/libmesh_core_nrf51422_xxAC.a(core_tx.c.obj)
                0x00021940                core_tx_packet_discard
 .text.network_beacon_tx_cb
                0x000219b8       0xf0 mesh/core/libmesh_core_nrf51422_xxAC.a(net_beacon.c.obj)
 .text.net_beacon_init
                0x00021aa8       0x5c mesh/core/libmesh_core_nrf51422_xxAC.a(net_beacon.c.obj)
                0x00021aa8                net_beacon_init
 .text.net_beacon_packet_in
                0x00021b04       0xd8 mesh/core/libmesh_core_nrf51422_xxAC.a(net_beacon.c.obj)
                0x00021b04                net_beacon_packet_in
 .text.set_gap_addr_type
                0x00021bdc       0x30 mesh/core/libmesh_core_nrf51422_xxAC.a(advertiser.c.obj)
 .text.tx_complete_event_callback
                0x00021c0c       0x44 mesh/core/libmesh_core_nrf51422_xxAC.a(advertiser.c.obj)
 .text.broadcast_complete_cb
                0x00021c50       0x68 mesh/core/libmesh_core_nrf51422_xxAC.a(advertiser.c.obj)
 .text.schedule_first_time
                0x00021cb8       0x28 mesh/core/libmesh_core_nrf51422_xxAC.a(advertiser.c.obj)
 .text.timeout_event
                0x00021ce0      0x12c mesh/core/libmesh_core_nrf51422_xxAC.a(advertiser.c.obj)
 .text.advertiser_init
                0x00021e0c       0x10 mesh/core/libmesh_core_nrf51422_xxAC.a(advertiser.c.obj)
                0x00021e0c                advertiser_init
 .text.advertiser_enable
                0x00021e1c       0x2c mesh/core/libmesh_core_nrf51422_xxAC.a(advertiser.c.obj)
                0x00021e1c                advertiser_enable
 .text.advertiser_packet_alloc
                0x00021e48       0xac mesh/core/libmesh_core_nrf51422_xxAC.a(advertiser.c.obj)
                0x00021e48                advertiser_packet_alloc
 .text.advertiser_packet_send
                0x00021ef4       0x74 mesh/core/libmesh_core_nrf51422_xxAC.a(advertiser.c.obj)
                0x00021ef4                advertiser_packet_send
 .text.advertiser_packet_discard
                0x00021f68       0x2c mesh/core/libmesh_core_nrf51422_xxAC.a(advertiser.c.obj)
                0x00021f68                advertiser_packet_discard
 .text.advertiser_interval_set
                0x00021f94       0x68 mesh/core/libmesh_core_nrf51422_xxAC.a(advertiser.c.obj)
                0x00021f94                advertiser_interval_set
 .text.advertiser_flush
                0x00021ffc       0x22 mesh/core/libmesh_core_nrf51422_xxAC.a(advertiser.c.obj)
                0x00021ffc                advertiser_flush
 *fill*         0x0002201e        0x2 
 .text.advertiser_address_default_get
                0x00022020       0x30 mesh/core/libmesh_core_nrf51422_xxAC.a(advertiser.c.obj)
                0x00022020                advertiser_address_default_get
 .text.advertiser_instance_init
                0x00022050       0xb4 mesh/core/libmesh_core_nrf51422_xxAC.a(advertiser.c.obj)
                0x00022050                advertiser_instance_init
 .text.action_switch
                0x00022104       0xc4 mesh/core/libmesh_core_nrf51422_xxAC.a(bearer_handler.c.obj)
 .text.bearer_handler_init
                0x000221c8       0x2c mesh/core/libmesh_core_nrf51422_xxAC.a(bearer_handler.c.obj)
                0x000221c8                bearer_handler_init
 .text.bearer_handler_start
                0x000221f4       0x1c mesh/core/libmesh_core_nrf51422_xxAC.a(bearer_handler.c.obj)
                0x000221f4                bearer_handler_start
 .text.bearer_handler_action_enqueue
                0x00022210       0x9c mesh/core/libmesh_core_nrf51422_xxAC.a(bearer_handler.c.obj)
                0x00022210                bearer_handler_action_enqueue
 .text.bearer_handler_action_end
                0x000222ac       0x7c mesh/core/libmesh_core_nrf51422_xxAC.a(bearer_handler.c.obj)
                0x000222ac                bearer_handler_action_end
 .text.bearer_handler_radio_irq_handler
                0x00022328       0x6c mesh/core/libmesh_core_nrf51422_xxAC.a(bearer_handler.c.obj)
                0x00022328                bearer_handler_radio_irq_handler
 .text.bearer_handler_timer_irq_handler
                0x00022394       0x30 mesh/core/libmesh_core_nrf51422_xxAC.a(bearer_handler.c.obj)
                0x00022394                bearer_handler_timer_irq_handler
 .text.bearer_handler_on_ts_begin
                0x000223c4       0x4c mesh/core/libmesh_core_nrf51422_xxAC.a(bearer_handler.c.obj)
                0x000223c4                bearer_handler_on_ts_begin
 .text.bearer_handler_on_ts_end
                0x00022410       0x50 mesh/core/libmesh_core_nrf51422_xxAC.a(bearer_handler.c.obj)
                0x00022410                bearer_handler_on_ts_end
 .text.radio_irq_handler
                0x00022460       0xbc mesh/core/libmesh_core_nrf51422_xxAC.a(broadcast.c.obj)
 .text.broadcast_start
                0x0002251c       0x98 mesh/core/libmesh_core_nrf51422_xxAC.a(broadcast.c.obj)
 .text.broadcast_send
                0x000225b4       0x80 mesh/core/libmesh_core_nrf51422_xxAC.a(broadcast.c.obj)
                0x000225b4                broadcast_send
 .text.radio_config_reset
                0x00022634       0x48 mesh/core/libmesh_core_nrf51422_xxAC.a(radio_config.c.obj)
                0x00022634                radio_config_reset
 .text.radio_config_channel_set
                0x0002267c       0x3c mesh/core/libmesh_core_nrf51422_xxAC.a(radio_config.c.obj)
                0x0002267c                radio_config_channel_set
 .text.radio_config_config
                0x000226b8       0xb0 mesh/core/libmesh_core_nrf51422_xxAC.a(radio_config.c.obj)
                0x000226b8                radio_config_config
 .text.radio_config_access_addr_set
                0x00022768       0x74 mesh/core/libmesh_core_nrf51422_xxAC.a(radio_config.c.obj)
                0x00022768                radio_config_access_addr_set
 .text.radio_trigger
                0x000227dc       0x24 mesh/core/libmesh_core_nrf51422_xxAC.a(scanner.c.obj)
 .text.scan_window_end
                0x00022800       0x14 mesh/core/libmesh_core_nrf51422_xxAC.a(scanner.c.obj)
 .text.scan_window_start
                0x00022814       0x28 mesh/core/libmesh_core_nrf51422_xxAC.a(scanner.c.obj)
 .text.radio_configure
                0x0002283c       0x88 mesh/core/libmesh_core_nrf51422_xxAC.a(scanner.c.obj)
 .text.radio_set_packet
                0x000228c4       0x58 mesh/core/libmesh_core_nrf51422_xxAC.a(scanner.c.obj)
 .text.radio_start
                0x0002291c       0x54 mesh/core/libmesh_core_nrf51422_xxAC.a(scanner.c.obj)
 .text.radio_stop
                0x00022970       0x38 mesh/core/libmesh_core_nrf51422_xxAC.a(scanner.c.obj)
 .text.schedule_timers
                0x000229a8       0x34 mesh/core/libmesh_core_nrf51422_xxAC.a(scanner.c.obj)
 .text.scanner_radio_start
                0x000229dc       0x28 mesh/core/libmesh_core_nrf51422_xxAC.a(scanner.c.obj)
                0x000229dc                scanner_radio_start
 .text.scanner_radio_stop
                0x00022a04       0x14 mesh/core/libmesh_core_nrf51422_xxAC.a(scanner.c.obj)
                0x00022a04                scanner_radio_stop
 .text.scanner_radio_irq_handler
                0x00022a18      0x124 mesh/core/libmesh_core_nrf51422_xxAC.a(scanner.c.obj)
                0x00022a18                scanner_radio_irq_handler
 .text.scanner_enable
                0x00022b3c       0x34 mesh/core/libmesh_core_nrf51422_xxAC.a(scanner.c.obj)
                0x00022b3c                scanner_enable
 .text.scanner_packet_release
                0x00022b70       0x38 mesh/core/libmesh_core_nrf51422_xxAC.a(scanner.c.obj)
                0x00022b70                scanner_packet_release
 .text.scanner_rx
                0x00022ba8       0x34 mesh/core/libmesh_core_nrf51422_xxAC.a(scanner.c.obj)
                0x00022ba8                scanner_rx
 .text.scanner_config_scan_time_set
                0x00022bdc       0x6c mesh/core/libmesh_core_nrf51422_xxAC.a(scanner.c.obj)
                0x00022bdc                scanner_config_scan_time_set
 .text.scanner_config_channels_set
                0x00022c48       0x68 mesh/core/libmesh_core_nrf51422_xxAC.a(scanner.c.obj)
                0x00022c48                scanner_config_channels_set
 .text.scanner_config_access_addresses_set
                0x00022cb0       0x44 mesh/core/libmesh_core_nrf51422_xxAC.a(scanner.c.obj)
                0x00022cb0                scanner_config_access_addresses_set
 .text.scanner_config_reset
                0x00022cf4       0x44 mesh/core/libmesh_core_nrf51422_xxAC.a(scanner.c.obj)
                0x00022cf4                scanner_config_reset
 .text.scanner_init
                0x00022d38       0x48 mesh/core/libmesh_core_nrf51422_xxAC.a(scanner.c.obj)
                0x00022d38                scanner_init
 .text.internal_event_push
                0x00022d80       0x30 mesh/core/libmesh_core_nrf51422_xxAC.a(internal_event.c.obj)
                0x00022d80                internal_event_push
 .text.sd_ecb_block_encrypt
                0x00022db0        0x4 mesh/core/libmesh_core_nrf51422_xxAC.a(aes.c.obj)
 .text.aes_encrypt
                0x00022db4       0x30 mesh/core/libmesh_core_nrf51422_xxAC.a(aes.c.obj)
                0x00022db4                aes_encrypt
 .text.msg_cache_init
                0x00022de4       0x28 mesh/core/libmesh_core_nrf51422_xxAC.a(msg_cache.c.obj)
                0x00022de4                msg_cache_init
 .text.msg_cache_entry_exists
                0x00022e0c       0x40 mesh/core/libmesh_core_nrf51422_xxAC.a(msg_cache.c.obj)
                0x00022e0c                msg_cache_entry_exists
 .text.msg_cache_entry_add
                0x00022e4c       0x2c mesh/core/libmesh_core_nrf51422_xxAC.a(msg_cache.c.obj)
                0x00022e4c                msg_cache_entry_add
 .text.block_ack_full
                0x00022e78       0x2c mesh/core/libmesh_core_nrf51422_xxAC.a(transport.c.obj)
 .text.seqauth_sequence_number_get
                0x00022ea4       0x18 mesh/core/libmesh_core_nrf51422_xxAC.a(transport.c.obj)
 .text.sar_rx_session_mark_as_handled
                0x00022ebc       0x54 mesh/core/libmesh_core_nrf51422_xxAC.a(transport.c.obj)
 .text.sar_ctx_find
                0x00022f10       0x40 mesh/core/libmesh_core_nrf51422_xxAC.a(transport.c.obj)
 .text.m_send_sar_cancel_event
                0x00022f50       0x26 mesh/core/libmesh_core_nrf51422_xxAC.a(transport.c.obj)
 *fill*         0x00022f76        0x2 
 .text.tx_complete
                0x00022f78       0x30 mesh/core/libmesh_core_nrf51422_xxAC.a(transport.c.obj)
 .text.upper_trs_packet_alloc
                0x00022fa8       0x30 mesh/core/libmesh_core_nrf51422_xxAC.a(transport.c.obj)
 .text.upper_trs_packet_encrypt
                0x00022fd8       0xc4 mesh/core/libmesh_core_nrf51422_xxAC.a(transport.c.obj)
 .text.sar_ctx_free
                0x0002309c       0x38 mesh/core/libmesh_core_nrf51422_xxAC.a(transport.c.obj)
 .text.sar_ctx_tx_complete
                0x000230d4       0x3c mesh/core/libmesh_core_nrf51422_xxAC.a(transport.c.obj)
 .text.sar_ctx_cancel
                0x00023110      0x110 mesh/core/libmesh_core_nrf51422_xxAC.a(transport.c.obj)
 .text.abort_timeout
                0x00023220        0xc mesh/core/libmesh_core_nrf51422_xxAC.a(transport.c.obj)
 .text.sar_ctx_alloc
                0x0002322c       0xc4 mesh/core/libmesh_core_nrf51422_xxAC.a(transport.c.obj)
 .text.test_transport_decrypt
                0x000232f0       0x90 mesh/core/libmesh_core_nrf51422_xxAC.a(transport.c.obj)
 .text.upper_transport_access_packet_in
                0x00023380      0x290 mesh/core/libmesh_core_nrf51422_xxAC.a(transport.c.obj)
 .text.trs_packet_header_build
                0x00023610       0x96 mesh/core/libmesh_core_nrf51422_xxAC.a(transport.c.obj)
 *fill*         0x000236a6        0x2 
 .text.trs_sar_packet_out
                0x000236a8       0xc4 mesh/core/libmesh_core_nrf51422_xxAC.a(transport.c.obj)
 .text.retry_timeout
                0x0002376c       0x54 mesh/core/libmesh_core_nrf51422_xxAC.a(transport.c.obj)
 .text.sar_ack_send
                0x000237c0      0x11c mesh/core/libmesh_core_nrf51422_xxAC.a(transport.c.obj)
 .text.ack_timeout
                0x000238dc       0x3c mesh/core/libmesh_core_nrf51422_xxAC.a(transport.c.obj)
 .text.tx_retry_timer_reset
                0x00023918       0x50 mesh/core/libmesh_core_nrf51422_xxAC.a(transport.c.obj)
 .text.upper_transport_packet_in
                0x00023968      0x174 mesh/core/libmesh_core_nrf51422_xxAC.a(transport.c.obj)
 .text.transport_sar_process
                0x00023adc       0x78 mesh/core/libmesh_core_nrf51422_xxAC.a(transport.c.obj)
 .text.transport_sar_mem_funcs_reset
                0x00023b54       0x2c mesh/core/libmesh_core_nrf51422_xxAC.a(transport.c.obj)
                0x00023b54                transport_sar_mem_funcs_reset
 .text.transport_init
                0x00023b80       0x74 mesh/core/libmesh_core_nrf51422_xxAC.a(transport.c.obj)
                0x00023b80                transport_init
 .text.transport_packet_in
                0x00023bf4      0x4f0 mesh/core/libmesh_core_nrf51422_xxAC.a(transport.c.obj)
                0x00023bf4                transport_packet_in
 .text.m_adjust_desired_packet_length
                0x000240e4       0x34 mesh/core/libmesh_core_nrf51422_xxAC.a(packet_buffer.c.obj)
 .text.m_index_increment.part.0
                0x00024118       0x18 mesh/core/libmesh_core_nrf51422_xxAC.a(packet_buffer.c.obj)
 .text.m_free_popped_packet
                0x00024130       0x64 mesh/core/libmesh_core_nrf51422_xxAC.a(packet_buffer.c.obj)
 .text.free_skipped_packets
                0x00024194       0x1c mesh/core/libmesh_core_nrf51422_xxAC.a(packet_buffer.c.obj)
 .text.packet_buffer_init
                0x000241b0       0xe0 mesh/core/libmesh_core_nrf51422_xxAC.a(packet_buffer.c.obj)
                0x000241b0                packet_buffer_init
 .text.packet_buffer_flush
                0x00024290       0x60 mesh/core/libmesh_core_nrf51422_xxAC.a(packet_buffer.c.obj)
                0x00024290                packet_buffer_flush
 .text.packet_buffer_reserve
                0x000242f0      0x11c mesh/core/libmesh_core_nrf51422_xxAC.a(packet_buffer.c.obj)
                0x000242f0                packet_buffer_reserve
 .text.packet_buffer_commit
                0x0002440c      0x10c mesh/core/libmesh_core_nrf51422_xxAC.a(packet_buffer.c.obj)
                0x0002440c                packet_buffer_commit
 .text.packet_buffer_pop
                0x00024518       0x64 mesh/core/libmesh_core_nrf51422_xxAC.a(packet_buffer.c.obj)
                0x00024518                packet_buffer_pop
 .text.packet_buffer_can_pop
                0x0002457c       0x2c mesh/core/libmesh_core_nrf51422_xxAC.a(packet_buffer.c.obj)
                0x0002457c                packet_buffer_can_pop
 .text.packet_buffer_packets_ready_to_pop
                0x000245a8       0x58 mesh/core/libmesh_core_nrf51422_xxAC.a(packet_buffer.c.obj)
                0x000245a8                packet_buffer_packets_ready_to_pop
 .text.packet_buffer_free
                0x00024600       0x94 mesh/core/libmesh_core_nrf51422_xxAC.a(packet_buffer.c.obj)
                0x00024600                packet_buffer_free
 .text.get_last_page
                0x00024694       0x14 mesh/core/libmesh_core_nrf51422_xxAC.a(flash_manager_defrag.c.obj)
 .text.defrag_on_end
                0x000246a8       0x1c mesh/core/libmesh_core_nrf51422_xxAC.a(flash_manager_defrag.c.obj)
 .text.execute_procedure_step
                0x000246c4       0xac mesh/core/libmesh_core_nrf51422_xxAC.a(flash_manager_defrag.c.obj)
 .text.get_next_entry
                0x00024770       0x44 mesh/core/libmesh_core_nrf51422_xxAC.a(flash_manager_defrag.c.obj)
 .text.get_next_data_entry
                0x000247b4       0x24 mesh/core/libmesh_core_nrf51422_xxAC.a(flash_manager_defrag.c.obj)
 .text.on_flash_op_end
                0x000247d8       0x34 mesh/core/libmesh_core_nrf51422_xxAC.a(flash_manager_defrag.c.obj)
 .text.check_for_invalid_entries
                0x0002480c       0x3c mesh/core/libmesh_core_nrf51422_xxAC.a(flash_manager_defrag.c.obj)
 .text.erase_recovery_area
                0x00024848       0x30 mesh/core/libmesh_core_nrf51422_xxAC.a(flash_manager_defrag.c.obj)
 .text.flash.constprop.6
                0x00024878       0x20 mesh/core/libmesh_core_nrf51422_xxAC.a(flash_manager_defrag.c.obj)
 .text.seal_storage_page
                0x00024898       0x58 mesh/core/libmesh_core_nrf51422_xxAC.a(flash_manager_defrag.c.obj)
 .text.invalidate_duplicate_entries
                0x000248f0       0x88 mesh/core/libmesh_core_nrf51422_xxAC.a(flash_manager_defrag.c.obj)
 .text.copy_metadata
                0x00024978       0x40 mesh/core/libmesh_core_nrf51422_xxAC.a(flash_manager_defrag.c.obj)
 .text.write_defrag_start_pointer
                0x000249b8       0x20 mesh/core/libmesh_core_nrf51422_xxAC.a(flash_manager_defrag.c.obj)
 .text.write_back
                0x000249d8       0x2c mesh/core/libmesh_core_nrf51422_xxAC.a(flash_manager_defrag.c.obj)
 .text.post_process
                0x00024a04       0x44 mesh/core/libmesh_core_nrf51422_xxAC.a(flash_manager_defrag.c.obj)
 .text.backup_entries
                0x00024a48      0x128 mesh/core/libmesh_core_nrf51422_xxAC.a(flash_manager_defrag.c.obj)
 .text.erase_source
                0x00024b70       0x30 mesh/core/libmesh_core_nrf51422_xxAC.a(flash_manager_defrag.c.obj)
 .text.flash_manager_defrag_init
                0x00024ba0       0xa0 mesh/core/libmesh_core_nrf51422_xxAC.a(flash_manager_defrag.c.obj)
                0x00024ba0                flash_manager_defrag_init
 .text.flash_manager_defrag_is_running
                0x00024c40       0x10 mesh/core/libmesh_core_nrf51422_xxAC.a(flash_manager_defrag.c.obj)
                0x00024c40                flash_manager_defrag_is_running
 .text.flash_manager_defrag
                0x00024c50       0xdc mesh/core/libmesh_core_nrf51422_xxAC.a(flash_manager_defrag.c.obj)
                0x00024c50                flash_manager_defrag
 .text.flash_manager_defrag_recovery_page_get
                0x00024d2c        0xc mesh/core/libmesh_core_nrf51422_xxAC.a(flash_manager_defrag.c.obj)
                0x00024d2c                flash_manager_defrag_recovery_page_get
 .text.fifo_init
                0x00024d38       0x5c mesh/core/libmesh_core_nrf51422_xxAC.a(fifo.c.obj)
                0x00024d38                fifo_init
 .text.fifo_push
                0x00024d94       0x5c mesh/core/libmesh_core_nrf51422_xxAC.a(fifo.c.obj)
                0x00024d94                fifo_push
 .text.fifo_pop
                0x00024df0       0x5c mesh/core/libmesh_core_nrf51422_xxAC.a(fifo.c.obj)
                0x00024df0                fifo_pop
 .text.wait_for_ready
                0x00024e4c       0x14 mesh/core/libmesh_core_nrf51422_xxAC.a(nrf_flash.c.obj)
 .text.nrf_flash_erase
                0x00024e60       0x58 mesh/core/libmesh_core_nrf51422_xxAC.a(nrf_flash.c.obj)
                0x00024e60                nrf_flash_erase
 .text.nrf_flash_write
                0x00024eb8       0x5c mesh/core/libmesh_core_nrf51422_xxAC.a(nrf_flash.c.obj)
                0x00024eb8                nrf_flash_write
 .text.packet_mgr_init
                0x00024f14       0x54 mesh/core/libmesh_core_nrf51422_xxAC.a(packet_mgr.c.obj)
                0x00024f14                packet_mgr_init
 .text.queue_init
                0x00024f68       0x24 mesh/core/libmesh_core_nrf51422_xxAC.a(queue.c.obj)
                0x00024f68                queue_init
 .text.queue_push
                0x00024f8c       0x54 mesh/core/libmesh_core_nrf51422_xxAC.a(queue.c.obj)
                0x00024f8c                queue_push
 .text.queue_pop
                0x00024fe0       0x3c mesh/core/libmesh_core_nrf51422_xxAC.a(queue.c.obj)
                0x00024fe0                queue_pop
 .text.queue_peek
                0x0002501c       0x20 mesh/core/libmesh_core_nrf51422_xxAC.a(queue.c.obj)
                0x0002501c                queue_peek
 .text.my_xor.constprop.1
                0x0002503c       0x12 mesh/core/libmesh_core_nrf51422_xxAC.a(aes_cmac.c.obj)
 .text.utils_lshift.constprop.2
                0x0002504e       0x18 mesh/core/libmesh_core_nrf51422_xxAC.a(aes_cmac.c.obj)
 *fill*         0x00025066        0x2 
 .text.aes_cmac_subkey_generate
                0x00025068       0x64 mesh/core/libmesh_core_nrf51422_xxAC.a(aes_cmac.c.obj)
                0x00025068                aes_cmac_subkey_generate
 .text.aes_cmac
                0x000250cc       0xc0 mesh/core/libmesh_core_nrf51422_xxAC.a(aes_cmac.c.obj)
                0x000250cc                aes_cmac
 .text.replay_cache_add
                0x0002518c       0x68 mesh/core/libmesh_core_nrf51422_xxAC.a(replay_cache.c.obj)
                0x0002518c                replay_cache_add
 .text.replay_cache_has_room
                0x000251f4       0x38 mesh/core/libmesh_core_nrf51422_xxAC.a(replay_cache.c.obj)
                0x000251f4                replay_cache_has_room
 .text.replay_cache_has_elem
                0x0002522c       0x38 mesh/core/libmesh_core_nrf51422_xxAC.a(replay_cache.c.obj)
                0x0002522c                replay_cache_has_elem
 .text.replay_cache_clear
                0x00025264       0x28 mesh/core/libmesh_core_nrf51422_xxAC.a(replay_cache.c.obj)
                0x00025264                replay_cache_clear
 .text.replay_cache_init
                0x0002528c        0x8 mesh/core/libmesh_core_nrf51422_xxAC.a(replay_cache.c.obj)
                0x0002528c                replay_cache_init
 .text.fen_filters_apply
                0x00025294       0x34 mesh/core/libmesh_core_nrf51422_xxAC.a(filter_engine.c.obj)
                0x00025294                fen_filters_apply
 .text._GetAvailWriteSpace
                0x000252c8       0x12 external/rtt/librtt_nrf51422_xxAC.a(SEGGER_RTT.c.obj)
 .text._WriteNoCheck
                0x000252da       0x38 external/rtt/librtt_nrf51422_xxAC.a(SEGGER_RTT.c.obj)
 .text._WriteBlocking
                0x00025312       0x5a external/rtt/librtt_nrf51422_xxAC.a(SEGGER_RTT.c.obj)
 .text._DoInit  0x0002536c       0x64 external/rtt/librtt_nrf51422_xxAC.a(SEGGER_RTT.c.obj)
 .text.SEGGER_RTT_WriteNoLock
                0x000253d0       0x6c external/rtt/librtt_nrf51422_xxAC.a(SEGGER_RTT.c.obj)
                0x000253d0                SEGGER_RTT_WriteNoLock
 .text.SEGGER_RTT_Write
                0x0002543c       0x34 external/rtt/librtt_nrf51422_xxAC.a(SEGGER_RTT.c.obj)
                0x0002543c                SEGGER_RTT_Write
 .text._StoreChar
                0x00025470       0x3e external/rtt/librtt_nrf51422_xxAC.a(SEGGER_RTT_printf.c.obj)
 *fill*         0x000254ae        0x2 
 .text._PrintUnsigned
                0x000254b0       0xe0 external/rtt/librtt_nrf51422_xxAC.a(SEGGER_RTT_printf.c.obj)
 .text.SEGGER_RTT_vprintf
                0x00025590      0x25c external/rtt/librtt_nrf51422_xxAC.a(SEGGER_RTT_printf.c.obj)
                0x00025590                SEGGER_RTT_vprintf
 .text.SEGGER_RTT_printf
                0x000257ec       0x18 external/rtt/librtt_nrf51422_xxAC.a(SEGGER_RTT_printf.c.obj)
                0x000257ec                SEGGER_RTT_printf
 .text          0x00025804       0x14 c:/a/gcc_arm/6/bin/../lib/gcc/arm-none-eabi/6.3.1/thumb/v6-m\libgcc.a(_thumb1_case_uqi.o)
                0x00025804                __gnu_thumb1_case_uqi
 .text          0x00025818       0x14 c:/a/gcc_arm/6/bin/../lib/gcc/arm-none-eabi/6.3.1/thumb/v6-m\libgcc.a(_thumb1_case_shi.o)
                0x00025818                __gnu_thumb1_case_shi
 .text          0x0002582c       0x14 c:/a/gcc_arm/6/bin/../lib/gcc/arm-none-eabi/6.3.1/thumb/v6-m\libgcc.a(_thumb1_case_uhi.o)
                0x0002582c                __gnu_thumb1_case_uhi
 .text          0x00025840      0x114 c:/a/gcc_arm/6/bin/../lib/gcc/arm-none-eabi/6.3.1/thumb/v6-m\libgcc.a(_udivsi3.o)
                0x00025840                __aeabi_uidiv
                0x00025840                __udivsi3
                0x0002594c                __aeabi_uidivmod
 .text          0x00025954      0x1d4 c:/a/gcc_arm/6/bin/../lib/gcc/arm-none-eabi/6.3.1/thumb/v6-m\libgcc.a(_divsi3.o)
                0x00025954                __divsi3
                0x00025954                __aeabi_idiv
                0x00025b20                __aeabi_idivmod
 .text          0x00025b28        0x4 c:/a/gcc_arm/6/bin/../lib/gcc/arm-none-eabi/6.3.1/thumb/v6-m\libgcc.a(_dvmd_tls.o)
                0x00025b28                __aeabi_idiv0
                0x00025b28                __aeabi_ldiv0
 .text          0x00025b2c       0x54 c:/a/gcc_arm/6/bin/../lib/gcc/arm-none-eabi/6.3.1/thumb/v6-m\libgcc.a(_muldi3.o)
                0x00025b2c                __muldi3
                0x00025b2c                __aeabi_lmul
 .text.exit     0x00025b80       0x2c c:/a/gcc_arm/6/bin/../lib/gcc/arm-none-eabi/6.3.1/../../../../arm-none-eabi/lib/thumb/v6-m\libc_nano.a(lib_a-exit.o)
                0x00025b80                exit
 .text.__libc_init_array
                0x00025bac       0x48 c:/a/gcc_arm/6/bin/../lib/gcc/arm-none-eabi/6.3.1/../../../../arm-none-eabi/lib/thumb/v6-m\libc_nano.a(lib_a-init.o)
                0x00025bac                __libc_init_array
 .text.malloc   0x00025bf4       0x14 c:/a/gcc_arm/6/bin/../lib/gcc/arm-none-eabi/6.3.1/../../../../arm-none-eabi/lib/thumb/v6-m\libc_nano.a(lib_a-malloc.o)
                0x00025bf4                malloc
 .text.free     0x00025c08       0x14 c:/a/gcc_arm/6/bin/../lib/gcc/arm-none-eabi/6.3.1/../../../../arm-none-eabi/lib/thumb/v6-m\libc_nano.a(lib_a-malloc.o)
                0x00025c08                free
 .text.memcmp   0x00025c1c       0x1e c:/a/gcc_arm/6/bin/../lib/gcc/arm-none-eabi/6.3.1/../../../../arm-none-eabi/lib/thumb/v6-m\libc_nano.a(lib_a-memcmp.o)
                0x00025c1c                memcmp
 .text.memcpy   0x00025c3a       0x12 c:/a/gcc_arm/6/bin/../lib/gcc/arm-none-eabi/6.3.1/../../../../arm-none-eabi/lib/thumb/v6-m\libc_nano.a(lib_a-memcpy-stub.o)
                0x00025c3a                memcpy
 .text.memset   0x00025c4c       0x10 c:/a/gcc_arm/6/bin/../lib/gcc/arm-none-eabi/6.3.1/../../../../arm-none-eabi/lib/thumb/v6-m\libc_nano.a(lib_a-memset.o)
                0x00025c4c                memset
 .text._free_r  0x00025c5c       0x94 c:/a/gcc_arm/6/bin/../lib/gcc/arm-none-eabi/6.3.1/../../../../arm-none-eabi/lib/thumb/v6-m\libc_nano.a(lib_a-nano-freer.o)
                0x00025c5c                _free_r
 .text._malloc_r
                0x00025cf0       0xbc c:/a/gcc_arm/6/bin/../lib/gcc/arm-none-eabi/6.3.1/../../../../arm-none-eabi/lib/thumb/v6-m\libc_nano.a(lib_a-nano-mallocr.o)
                0x00025cf0                _malloc_r
 .text._sbrk_r  0x00025dac       0x24 c:/a/gcc_arm/6/bin/../lib/gcc/arm-none-eabi/6.3.1/../../../../arm-none-eabi/lib/thumb/v6-m\libc_nano.a(lib_a-sbrkr.o)
                0x00025dac                _sbrk_r
 .text.strcpy   0x00025dd0       0x10 c:/a/gcc_arm/6/bin/../lib/gcc/arm-none-eabi/6.3.1/../../../../arm-none-eabi/lib/thumb/v6-m\libc_nano.a(lib_a-strcpy.o)
                0x00025dd0                strcpy
 .text.strrchr  0x00025de0       0x24 c:/a/gcc_arm/6/bin/../lib/gcc/arm-none-eabi/6.3.1/../../../../arm-none-eabi/lib/thumb/v6-m\libc_nano.a(lib_a-strrchr.o)
                0x00025de0                strrchr
 .text.__malloc_lock
                0x00025e04        0x2 c:/a/gcc_arm/6/bin/../lib/gcc/arm-none-eabi/6.3.1/../../../../arm-none-eabi/lib/thumb/v6-m\libc_nano.a(lib_a-mlock.o)
                0x00025e04                __malloc_lock
 .text.__malloc_unlock
                0x00025e06        0x2 c:/a/gcc_arm/6/bin/../lib/gcc/arm-none-eabi/6.3.1/../../../../arm-none-eabi/lib/thumb/v6-m\libc_nano.a(lib_a-mlock.o)
                0x00025e06                __malloc_unlock
 .text.strchr   0x00025e08       0x1c c:/a/gcc_arm/6/bin/../lib/gcc/arm-none-eabi/6.3.1/../../../../arm-none-eabi/lib/thumb/v6-m\libc_nano.a(lib_a-strchr.o)
                0x00025e08                strchr
 .text._sbrk    0x00025e24       0x1c c:/a/gcc_arm/6/bin/../lib/gcc/arm-none-eabi/6.3.1/../../../../arm-none-eabi/lib/thumb/v6-m\libnosys.a(sbrk.o)
                0x00025e24                _sbrk
 .text._exit    0x00025e40        0x4 c:/a/gcc_arm/6/bin/../lib/gcc/arm-none-eabi/6.3.1/../../../../arm-none-eabi/lib/thumb/v6-m\libnosys.a(_exit.o)
                0x00025e40                _exit
 *(.init)
 .init          0x00025e44        0x4 c:/a/gcc_arm/6/bin/../lib/gcc/arm-none-eabi/6.3.1/thumb/v6-m/crti.o
                0x00025e44                _init
 .init          0x00025e48        0x8 c:/a/gcc_arm/6/bin/../lib/gcc/arm-none-eabi/6.3.1/thumb/v6-m/crtn.o
 *(.fini)
 .fini          0x00025e50        0x4 c:/a/gcc_arm/6/bin/../lib/gcc/arm-none-eabi/6.3.1/thumb/v6-m/crti.o
                0x00025e50                _fini
 .fini          0x00025e54        0x8 c:/a/gcc_arm/6/bin/../lib/gcc/arm-none-eabi/6.3.1/thumb/v6-m/crtn.o
 *crtbegin.o(.ctors)
 *crtbegin?.o(.ctors)
 *(EXCLUDE_FILE(*crtend.o *crtend?.o) .ctors)
 *(SORT(.ctors.*))
 *(.ctors)
 *crtbegin.o(.dtors)
 *crtbegin?.o(.dtors)
 *(EXCLUDE_FILE(*crtend.o *crtend?.o) .dtors)
 *(SORT(.dtors.*))
 *(.dtors)
 *(.rodata*)
 .rodata.main.str1.1
                0x00025e5c       0x7f examples/dfu/CMakeFiles/dfu_no_serial_nrf51422_xxAC_s130_2.0.1.dir/src/main.c.obj
 .rodata.mesh_evt_handler.str1.1
                0x00025edb       0x1b examples/dfu/CMakeFiles/dfu_no_serial_nrf51422_xxAC_s130_2.0.1.dir/src/main.c.obj
 .rodata.HardFault_Handler.str1.1
                0x00025ef6        0xe examples/dfu/CMakeFiles/dfu_no_serial_nrf51422_xxAC_s130_2.0.1.dir/__/nrf_mesh_sdk.c.obj
 .rodata.app_error_handler.str1.1
                0x00025f04       0x1d examples/dfu/CMakeFiles/dfu_no_serial_nrf51422_xxAC_s130_2.0.1.dir/__/nrf_mesh_sdk.c.obj
 .rodata.mesh_assert_handler.str1.1
                0x00025f21       0x34 examples/dfu/CMakeFiles/dfu_no_serial_nrf51422_xxAC_s130_2.0.1.dir/__/nrf_mesh_sdk.c.obj
 .rodata.mesh_core_setup.str1.1
                0x00025f55       0x47 examples/dfu/CMakeFiles/dfu_no_serial_nrf51422_xxAC_s130_2.0.1.dir/__/nrf_mesh_sdk.c.obj
 .rodata.mesh_softdevice_enable.str1.1
                0x00025f9c       0x65 examples/dfu/CMakeFiles/dfu_no_serial_nrf51422_xxAC_s130_2.0.1.dir/__/nrf_mesh_sdk.c.obj
 .rodata.softdevice_assert_handler.str1.1
                0x00026001       0x1d examples/dfu/CMakeFiles/dfu_no_serial_nrf51422_xxAC_s130_2.0.1.dir/__/nrf_mesh_sdk.c.obj
 .rodata.prov_cb_pkt_in.str1.1
                0x0002601e       0x34 examples/dfu/CMakeFiles/dfu_no_serial_nrf51422_xxAC_s130_2.0.1.dir/__/__/mesh/prov/src/provisioning.c.obj
 .rodata.crctable.8145
                0x00026052      0x100 examples/dfu/CMakeFiles/dfu_no_serial_nrf51422_xxAC_s130_2.0.1.dir/__/__/mesh/prov/src/prov_bearer_adv.c.obj
 .rodata.prov_bearer_adv_packet_in.str1.1
                0x00026152      0x26e examples/dfu/CMakeFiles/dfu_no_serial_nrf51422_xxAC_s130_2.0.1.dir/__/__/mesh/prov/src/prov_bearer_adv.c.obj
 .rodata.tx_retry_cb.str1.1
                0x000263c0       0x37 examples/dfu/CMakeFiles/dfu_no_serial_nrf51422_xxAC_s130_2.0.1.dir/__/__/mesh/prov/src/prov_bearer_adv.c.obj
 .rodata.abort_timeout.str1.1
                0x000263f7       0x19 examples/dfu/CMakeFiles/dfu_no_serial_nrf51422_xxAC_s130_2.0.1.dir/__/__/mesh/dfu/src/nrf_mesh_dfu.c.obj
 .rodata.dfu_evt_handler.str1.1
                0x00026410      0x182 examples/dfu/CMakeFiles/dfu_no_serial_nrf51422_xxAC_s130_2.0.1.dir/__/__/mesh/dfu/src/nrf_mesh_dfu.c.obj
 .rodata.flash_op_complete.str1.1
                0x00026592       0x3b examples/dfu/CMakeFiles/dfu_no_serial_nrf51422_xxAC_s130_2.0.1.dir/__/__/mesh/dfu/src/nrf_mesh_dfu.c.obj
 .rodata.m_adv_channels
                0x000265cd        0x3 examples/dfu/CMakeFiles/dfu_no_serial_nrf51422_xxAC_s130_2.0.1.dir/__/__/mesh/dfu/src/nrf_mesh_dfu.c.obj
 .rodata.nrf_mesh_dfu_cmd_send.str1.1
                0x000265d0       0x18 examples/dfu/CMakeFiles/dfu_no_serial_nrf51422_xxAC_s130_2.0.1.dir/__/__/mesh/dfu/src/nrf_mesh_dfu.c.obj
 .rodata.timer_timeout.str1.1
                0x000265e8       0x18 examples/dfu/CMakeFiles/dfu_no_serial_nrf51422_xxAC_s130_2.0.1.dir/__/__/mesh/dfu/src/nrf_mesh_dfu.c.obj
                                 0x13 (size before relaxing)
 .rodata.m_all_operations
                0x000265e8       0x10 mesh/core/libmesh_core_nrf51422_xxAC.a(mesh_flash.c.obj)
 .rodata.types_lookup.6415
                0x000265f8        0x4 mesh/core/libmesh_core_nrf51422_xxAC.a(nrf_mesh_utils.c.obj)
 .rodata.nrf_mesh_process.str1.1
                0x000265fc       0x70 mesh/core/libmesh_core_nrf51422_xxAC.a(nrf_mesh.c.obj)
 .rodata.CSWTCH.9
                0x0002666c       0x10 mesh/core/libmesh_core_nrf51422_xxAC.a(hal.c.obj)
 .rodata.network_packet_in.str1.1
                0x0002667c       0x48 mesh/core/libmesh_core_nrf51422_xxAC.a(network.c.obj)
 .rodata.network_packet_send.str1.1
                0x000266c4       0x49 mesh/core/libmesh_core_nrf51422_xxAC.a(network.c.obj)
 .rodata.log_callback_rtt.str1.1
                0x0002670d       0x15 mesh/core/libmesh_core_nrf51422_xxAC.a(log.c.obj)
 .rodata.str1.1
                0x00026722       0x11 mesh/core/libmesh_core_nrf51422_xxAC.a(log.c.obj)
 *fill*         0x00026733        0x1 
 .rodata.INVALID_HEADER
                0x00026734        0x4 mesh/core/libmesh_core_nrf51422_xxAC.a(flash_manager.c.obj)
                0x00026734                INVALID_HEADER
 .rodata.PADDING_HEADER
                0x00026738        0x4 mesh/core/libmesh_core_nrf51422_xxAC.a(flash_manager.c.obj)
                0x00026738                PADDING_HEADER
 .rodata.SEAL_HEADER
                0x0002673c        0x4 mesh/core/libmesh_core_nrf51422_xxAC.a(flash_manager.c.obj)
                0x0002673c                SEAL_HEADER
 .rodata.process_action_queue.str1.1
                0x00026740       0x21 mesh/core/libmesh_core_nrf51422_xxAC.a(flash_manager.c.obj)
                                 0x4f (size before relaxing)
 .rodata.beacon_packet_in.str1.1
                0x00026761       0x51 mesh/core/libmesh_core_nrf51422_xxAC.a(beacon.c.obj)
                                 0x59 (size before relaxing)
 .rodata.net_beacon_init.str1.1
                0x000267b2        0x5 mesh/core/libmesh_core_nrf51422_xxAC.a(net_beacon.c.obj)
 .rodata.radio_mode_to_us_per_byte.6787
                0x000267b7        0x4 mesh/core/libmesh_core_nrf51422_xxAC.a(broadcast.c.obj)
 .rodata.channel_rf_offsets.6049
                0x000267bb       0x28 mesh/core/libmesh_core_nrf51422_xxAC.a(radio_config.c.obj)
 .rodata        0x000267e3        0x3 mesh/core/libmesh_core_nrf51422_xxAC.a(scanner.c.obj)
 .rodata.sar_ctx_cancel.str1.1
                0x000267e6       0x35 mesh/core/libmesh_core_nrf51422_xxAC.a(transport.c.obj)
                                 0x63 (size before relaxing)
 .rodata.test_transport_decrypt.str1.1
                0x0002681b       0x13 mesh/core/libmesh_core_nrf51422_xxAC.a(transport.c.obj)
 .rodata.transport_packet_in.str1.1
                0x0002682e       0x24 mesh/core/libmesh_core_nrf51422_xxAC.a(transport.c.obj)
 .rodata.upper_transport_access_packet_in.str1.1
                0x00026852       0x29 mesh/core/libmesh_core_nrf51422_xxAC.a(transport.c.obj)
 .rodata.upper_transport_packet_in.str1.1
                0x0002687b       0x2e mesh/core/libmesh_core_nrf51422_xxAC.a(transport.c.obj)
 .rodata.flash_manager_defrag.str1.1
                0x000268a9       0x28 mesh/core/libmesh_core_nrf51422_xxAC.a(flash_manager_defrag.c.obj)
                                 0x56 (size before relaxing)
 *fill*         0x000268d1        0x3 
 .rodata.m_procedure_steps
                0x000268d4       0x28 mesh/core/libmesh_core_nrf51422_xxAC.a(flash_manager_defrag.c.obj)
 .rodata.Rb.5039
                0x000268fc       0x10 mesh/core/libmesh_core_nrf51422_xxAC.a(aes_cmac.c.obj)
 .rodata._DoInit.str1.1
                0x0002690c       0x14 external/rtt/librtt_nrf51422_xxAC.a(SEGGER_RTT.c.obj)
 .rodata._aV2C.4374
                0x00026920       0x10 external/rtt/librtt_nrf51422_xxAC.a(SEGGER_RTT_printf.c.obj)
 .rodata._global_impure_ptr
                0x00026930        0x4 c:/a/gcc_arm/6/bin/../lib/gcc/arm-none-eabi/6.3.1/../../../../arm-none-eabi/lib/thumb/v6-m\libc_nano.a(lib_a-impure.o)
                0x00026930                _global_impure_ptr
 *(.eh_frame*)
 .eh_frame      0x00026934        0x0 c:/a/gcc_arm/6/bin/../lib/gcc/arm-none-eabi/6.3.1/thumb/v6-m/crtbegin.o
 .eh_frame      0x00026934        0x4 c:/a/gcc_arm/6/bin/../lib/gcc/arm-none-eabi/6.3.1/thumb/v6-m/crtend.o

.glue_7         0x00026938        0x0
 .glue_7        0x00026938        0x0 linker stubs

.glue_7t        0x00026938        0x0
 .glue_7t       0x00026938        0x0 linker stubs

.vfp11_veneer   0x00026938        0x0
 .vfp11_veneer  0x00026938        0x0 linker stubs

.v4_bx          0x00026938        0x0
 .v4_bx         0x00026938        0x0 linker stubs

.iplt           0x00026938        0x0
 .iplt          0x00026938        0x0 c:/a/gcc_arm/6/bin/../lib/gcc/arm-none-eabi/6.3.1/thumb/v6-m/crtbegin.o

.ARM.extab
 *(.ARM.extab* .gnu.linkonce.armextab.*)
                0x00026938                __exidx_start = .

.ARM.exidx      0x00026938        0x8
 *(.ARM.exidx* .gnu.linkonce.armexidx.*)
 .ARM.exidx     0x00026938        0x8 c:/a/gcc_arm/6/bin/../lib/gcc/arm-none-eabi/6.3.1/../../../../arm-none-eabi/lib/thumb/v6-m/crt0.o
                0x00026940                __exidx_end = .
                0x00026940                __etext = .

.rel.dyn        0x00026940        0x0
 .rel.iplt      0x00026940        0x0 c:/a/gcc_arm/6/bin/../lib/gcc/arm-none-eabi/6.3.1/thumb/v6-m/crtbegin.o

.data           0x200022d8       0xbc load address 0x00026940
                0x200022d8                __data_start__ = .
 *(vtable)
 *(.data*)
 .data.rom_base
                0x200022d8        0x4 examples/dfu/CMakeFiles/dfu_no_serial_nrf51422_xxAC_s130_2.0.1.dir/src/main.c.obj
                0x200022d8                rom_base
 .data.rom_end  0x200022dc        0x4 examples/dfu/CMakeFiles/dfu_no_serial_nrf51422_xxAC_s130_2.0.1.dir/src/main.c.obj
                0x200022dc                rom_end
 .data.m_unprov_report
                0x200022e0        0x1 examples/dfu/CMakeFiles/dfu_no_serial_nrf51422_xxAC_s130_2.0.1.dir/__/__/mesh/prov/src/prov_beacon.c.obj
 *fill*         0x200022e1        0x3 
 .data.mem_listener.7315
                0x200022e4       0x10 mesh/core/libmesh_core_nrf51422_xxAC.a(net_state.c.obj)
 .data.mem_listener.7320
                0x200022f4       0x10 mesh/core/libmesh_core_nrf51422_xxAC.a(net_state.c.obj)
 .data.mem_listener.7334
                0x20002304       0x10 mesh/core/libmesh_core_nrf51422_xxAC.a(net_state.c.obj)
 .data.g_log_debug_level
                0x20002314        0x4 mesh/core/libmesh_core_nrf51422_xxAC.a(log.c.obj)
                0x20002314                g_log_debug_level
 .data.g_log_debug_msk
                0x20002318        0x4 mesh/core/libmesh_core_nrf51422_xxAC.a(log.c.obj)
                0x20002318                g_log_debug_msk
 .data.g_log_hex_digits
                0x2000231c        0x4 mesh/core/libmesh_core_nrf51422_xxAC.a(log.c.obj)
                0x2000231c                g_log_hex_digits
 .data.m_log_callback
                0x20002320        0x4 mesh/core/libmesh_core_nrf51422_xxAC.a(log.c.obj)
                0x20002320                m_log_callback
 .data._impure_ptr
                0x20002324        0x4 c:/a/gcc_arm/6/bin/../lib/gcc/arm-none-eabi/6.3.1/../../../../arm-none-eabi/lib/thumb/v6-m\libc_nano.a(lib_a-impure.o)
                0x20002324                _impure_ptr
 .data.impure_data
                0x20002328       0x60 c:/a/gcc_arm/6/bin/../lib/gcc/arm-none-eabi/6.3.1/../../../../arm-none-eabi/lib/thumb/v6-m\libc_nano.a(lib_a-impure.o)
                0x20002388                . = ALIGN (0x4)
                0x20002388                PROVIDE (__preinit_array_start, .)
 *(.preinit_array)
                0x20002388                PROVIDE (__preinit_array_end, .)
                0x20002388                . = ALIGN (0x4)
                0x20002388                PROVIDE (__init_array_start, .)
 *(SORT(.init_array.*))
 *(.init_array)
 .init_array    0x20002388        0x4 c:/a/gcc_arm/6/bin/../lib/gcc/arm-none-eabi/6.3.1/thumb/v6-m/crtbegin.o
                0x2000238c                PROVIDE (__init_array_end, .)
                0x2000238c                . = ALIGN (0x4)
                [!provide]                PROVIDE (__fini_array_start, .)
 *(SORT(.fini_array.*))
 *(.fini_array)
 .fini_array    0x2000238c        0x4 c:/a/gcc_arm/6/bin/../lib/gcc/arm-none-eabi/6.3.1/thumb/v6-m/crtbegin.o
                [!provide]                PROVIDE (__fini_array_end, .)
 *(.jcr*)
 .jcr           0x20002390        0x0 c:/a/gcc_arm/6/bin/../lib/gcc/arm-none-eabi/6.3.1/thumb/v6-m/crtbegin.o
 .jcr           0x20002390        0x4 c:/a/gcc_arm/6/bin/../lib/gcc/arm-none-eabi/6.3.1/thumb/v6-m/crtend.o
                0x20002394                . = ALIGN (0x4)
                0x20002394                __data_end__ = .

.igot.plt       0x20002394        0x0 load address 0x000269fc
 .igot.plt      0x20002394        0x0 c:/a/gcc_arm/6/bin/../lib/gcc/arm-none-eabi/6.3.1/thumb/v6-m/crtbegin.o

.bss            0x20002398     0x2c7c load address 0x00026a00
                0x20002398                . = ALIGN (0x4)
                0x20002398                __bss_start__ = .
 *(.bss*)
 .bss           0x20002398       0x1c c:/a/gcc_arm/6/bin/../lib/gcc/arm-none-eabi/6.3.1/thumb/v6-m/crtbegin.o
 .bss.m_evt_handler
                0x200023b4        0x8 examples/dfu/CMakeFiles/dfu_no_serial_nrf51422_xxAC_s130_2.0.1.dir/src/main.c.obj
 .bss.m_ble_evt_buffer
                0x200023bc       0x47 examples/dfu/CMakeFiles/dfu_no_serial_nrf51422_xxAC_s130_2.0.1.dir/__/nrf_mesh_sdk.c.obj
 *fill*         0x20002403        0x1 
 .bss.m_addr_nonvirtual_allocated
                0x20002404        0x4 examples/dfu/CMakeFiles/dfu_no_serial_nrf51422_xxAC_s130_2.0.1.dir/__/__/mesh/access/src/device_state_manager.c.obj
 .bss.m_addr_unicast_allocated
                0x20002408        0x4 examples/dfu/CMakeFiles/dfu_no_serial_nrf51422_xxAC_s130_2.0.1.dir/__/__/mesh/access/src/device_state_manager.c.obj
 .bss.m_addr_virtual_allocated
                0x2000240c        0x4 examples/dfu/CMakeFiles/dfu_no_serial_nrf51422_xxAC_s130_2.0.1.dir/__/__/mesh/access/src/device_state_manager.c.obj
 .bss.m_addresses
                0x20002410       0x40 examples/dfu/CMakeFiles/dfu_no_serial_nrf51422_xxAC_s130_2.0.1.dir/__/__/mesh/access/src/device_state_manager.c.obj
 .bss.m_appkey_allocated
                0x20002450        0x4 examples/dfu/CMakeFiles/dfu_no_serial_nrf51422_xxAC_s130_2.0.1.dir/__/__/mesh/access/src/device_state_manager.c.obj
 .bss.m_appkeys
                0x20002454       0xb0 examples/dfu/CMakeFiles/dfu_no_serial_nrf51422_xxAC_s130_2.0.1.dir/__/__/mesh/access/src/device_state_manager.c.obj
 .bss.m_devkeys
                0x20002504       0x16 examples/dfu/CMakeFiles/dfu_no_serial_nrf51422_xxAC_s130_2.0.1.dir/__/__/mesh/access/src/device_state_manager.c.obj
 .bss.m_has_primary_subnet
                0x2000251a        0x1 examples/dfu/CMakeFiles/dfu_no_serial_nrf51422_xxAC_s130_2.0.1.dir/__/__/mesh/access/src/device_state_manager.c.obj
 *fill*         0x2000251b        0x1 
 .bss.m_local_unicast_addr
                0x2000251c        0x4 examples/dfu/CMakeFiles/dfu_no_serial_nrf51422_xxAC_s130_2.0.1.dir/__/__/mesh/access/src/device_state_manager.c.obj
 .bss.m_subnet_allocated
                0x20002520        0x4 examples/dfu/CMakeFiles/dfu_no_serial_nrf51422_xxAC_s130_2.0.1.dir/__/__/mesh/access/src/device_state_manager.c.obj
 .bss.m_subnets
                0x20002524      0x170 examples/dfu/CMakeFiles/dfu_no_serial_nrf51422_xxAC_s130_2.0.1.dir/__/__/mesh/access/src/device_state_manager.c.obj
 .bss.m_virtual_addresses
                0x20002694       0xa0 examples/dfu/CMakeFiles/dfu_no_serial_nrf51422_xxAC_s130_2.0.1.dir/__/__/mesh/access/src/device_state_manager.c.obj
 .bss.mp_bearer_head
                0x20002734        0x4 examples/dfu/CMakeFiles/dfu_no_serial_nrf51422_xxAC_s130_2.0.1.dir/__/__/mesh/prov/src/prov_bearer_adv.c.obj
 .bss.m_adv_packet
                0x20002738       0x28 examples/dfu/CMakeFiles/dfu_no_serial_nrf51422_xxAC_s130_2.0.1.dir/__/__/mesh/dfu/src/nrf_mesh_dfu.c.obj
 .bss.m_broadcast
                0x20002760       0x34 examples/dfu/CMakeFiles/dfu_no_serial_nrf51422_xxAC_s130_2.0.1.dir/__/__/mesh/dfu/src/nrf_mesh_dfu.c.obj
 .bss.m_prng    0x20002794       0x10 examples/dfu/CMakeFiles/dfu_no_serial_nrf51422_xxAC_s130_2.0.1.dir/__/__/mesh/dfu/src/nrf_mesh_dfu.c.obj
 .bss.m_timer_evt
                0x200027a4       0x18 examples/dfu/CMakeFiles/dfu_no_serial_nrf51422_xxAC_s130_2.0.1.dir/__/__/mesh/dfu/src/nrf_mesh_dfu.c.obj
 .bss.m_transfer_state
                0x200027bc       0x12 examples/dfu/CMakeFiles/dfu_no_serial_nrf51422_xxAC_s130_2.0.1.dir/__/__/mesh/dfu/src/nrf_mesh_dfu.c.obj
 *fill*         0x200027ce        0x2 
 .bss.m_tx_slots
                0x200027d0      0x120 examples/dfu/CMakeFiles/dfu_no_serial_nrf51422_xxAC_s130_2.0.1.dir/__/__/mesh/dfu/src/nrf_mesh_dfu.c.obj
 .bss.m_tx_timer_evt
                0x200028f0       0x18 examples/dfu/CMakeFiles/dfu_no_serial_nrf51422_xxAC_s130_2.0.1.dir/__/__/mesh/dfu/src/nrf_mesh_dfu.c.obj
 .bss.mp_curr_fwid
                0x20002908        0x4 examples/dfu/CMakeFiles/dfu_no_serial_nrf51422_xxAC_s130_2.0.1.dir/__/__/mesh/dfu/src/nrf_mesh_dfu.c.obj
 .bss.m_uuid    0x2000290c       0x10 mesh/core/libmesh_core_nrf51422_xxAC.a(nrf_mesh_configure.c.obj)
 .bss.mp_evt_handlers_head
                0x2000291c        0x4 mesh/core/libmesh_core_nrf51422_xxAC.a(event.c.obj)
 .bss.lock_count.7374
                0x20002920        0x4 mesh/core/libmesh_core_nrf51422_xxAC.a(net_state.c.obj)
 .bss.m_flash_manager
                0x20002924       0x24 mesh/core/libmesh_core_nrf51422_xxAC.a(net_state.c.obj)
 .bss.m_iv_update_timer
                0x20002948       0x18 mesh/core/libmesh_core_nrf51422_xxAC.a(net_state.c.obj)
 .bss.m_net_state
                0x20002960       0x14 mesh/core/libmesh_core_nrf51422_xxAC.a(net_state.c.obj)
 .bss.m_seqnum_allocation_in_progress
                0x20002974        0x1 mesh/core/libmesh_core_nrf51422_xxAC.a(net_state.c.obj)
 .bss.m_test_mode
                0x20002975        0x1 mesh/core/libmesh_core_nrf51422_xxAC.a(net_state.c.obj)
 *fill*         0x20002976        0x2 
 .bss.m_event_flag
                0x20002978        0x4 mesh/core/libmesh_core_nrf51422_xxAC.a(mesh_flash.c.obj)
 .bss.m_suspended
                0x2000297c        0x1 mesh/core/libmesh_core_nrf51422_xxAC.a(mesh_flash.c.obj)
 *fill*         0x2000297d        0x3 
 .bss.m_users   0x20002980      0x228 mesh/core/libmesh_core_nrf51422_xxAC.a(mesh_flash.c.obj)
 .bss.suspend_count.7471
                0x20002ba8        0x4 mesh/core/libmesh_core_nrf51422_xxAC.a(mesh_flash.c.obj)
 .bss.m_is_enabled
                0x20002bac        0x1 mesh/core/libmesh_core_nrf51422_xxAC.a(nrf_mesh.c.obj)
 .bss.m_is_initialized
                0x20002bad        0x1 mesh/core/libmesh_core_nrf51422_xxAC.a(nrf_mesh.c.obj)
 *fill*         0x20002bae        0x2 
 .bss.m_rx_cb   0x20002bb0        0x4 mesh/core/libmesh_core_nrf51422_xxAC.a(nrf_mesh.c.obj)
 .bss.m_event_flag
                0x20002bb4        0x4 mesh/core/libmesh_core_nrf51422_xxAC.a(timer_scheduler.c.obj)
 .bss.m_scheduler
                0x20002bb8       0x10 mesh/core/libmesh_core_nrf51422_xxAC.a(timer_scheduler.c.obj)
 .bss.m_attributes
                0x20002bc8        0x3 mesh/core/libmesh_core_nrf51422_xxAC.a(timer.c.obj)
 *fill*         0x20002bcb        0x1 
 .bss.m_callbacks
                0x20002bcc        0xc mesh/core/libmesh_core_nrf51422_xxAC.a(timer.c.obj)
 .bss.m_is_in_ts
                0x20002bd8        0x1 mesh/core/libmesh_core_nrf51422_xxAC.a(timer.c.obj)
 *fill*         0x20002bd9        0x3 
 .bss.m_reference_time
                0x20002bdc        0x4 mesh/core/libmesh_core_nrf51422_xxAC.a(timer.c.obj)
 .bss.m_timeouts
                0x20002be0        0xc mesh/core/libmesh_core_nrf51422_xxAC.a(timer.c.obj)
 .bss.m_timer_mut
                0x20002bec        0x4 mesh/core/libmesh_core_nrf51422_xxAC.a(timer.c.obj)
 .bss.m_ts_end_time
                0x20002bf0        0x4 mesh/core/libmesh_core_nrf51422_xxAC.a(timer.c.obj)
 .bss.mp_ppi_tasks
                0x20002bf4        0xc mesh/core/libmesh_core_nrf51422_xxAC.a(timer.c.obj)
 .bss.m_current_time
                0x20002c00        0x4 mesh/core/libmesh_core_nrf51422_xxAC.a(ticker.c.obj)
 .bss.m_timer   0x20002c04       0x18 mesh/core/libmesh_core_nrf51422_xxAC.a(ticker.c.obj)
 .bss.m_current_timeslot
                0x20002c1c       0x1c mesh/core/libmesh_core_nrf51422_xxAC.a(timeslot.c.obj)
 .bss.m_lfclk_ppm
                0x20002c38        0x4 mesh/core/libmesh_core_nrf51422_xxAC.a(timeslot.c.obj)
 .bss.m_radio_request_earliest
                0x20002c3c       0x10 mesh/core/libmesh_core_nrf51422_xxAC.a(timeslot.c.obj)
 .bss.m_state_lock
                0x20002c4c        0x1 mesh/core/libmesh_core_nrf51422_xxAC.a(timeslot.c.obj)
 .bss.m_timeslot_forced_command
                0x20002c4d        0x1 mesh/core/libmesh_core_nrf51422_xxAC.a(timeslot.c.obj)
 *fill*         0x20002c4e        0x2 
 .bss.s_last_rtc_value.6639
                0x20002c50        0x8 mesh/core/libmesh_core_nrf51422_xxAC.a(timeslot.c.obj)
 .bss.m_bearer_event_fifo
                0x20002c58       0x14 mesh/core/libmesh_core_nrf51422_xxAC.a(bearer_event.c.obj)
 .bss.m_bearer_event_fifo_buffer
                0x20002c6c      0x100 mesh/core/libmesh_core_nrf51422_xxAC.a(bearer_event.c.obj)
 .bss.m_critical
                0x20002d6c        0x4 mesh/core/libmesh_core_nrf51422_xxAC.a(bearer_event.c.obj)
 .bss.m_flag_count
                0x20002d70        0x4 mesh/core/libmesh_core_nrf51422_xxAC.a(bearer_event.c.obj)
 .bss.m_flag_event_callbacks
                0x20002d74       0x18 mesh/core/libmesh_core_nrf51422_xxAC.a(bearer_event.c.obj)
 .bss.m_flags   0x20002d8c        0x4 mesh/core/libmesh_core_nrf51422_xxAC.a(bearer_event.c.obj)
 .bss.m_sequential_event_queue
                0x20002d90        0x8 mesh/core/libmesh_core_nrf51422_xxAC.a(bearer_event.c.obj)
 .bss.m_relay_check_cb
                0x20002d98        0x4 mesh/core/libmesh_core_nrf51422_xxAC.a(network.c.obj)
 .bss.m_relay_enable
                0x20002d9c        0x1 mesh/core/libmesh_core_nrf51422_xxAC.a(network.c.obj)
 *fill*         0x20002d9d        0x3 
 .bss.m_action_queue
                0x20002da0        0xc mesh/core/libmesh_core_nrf51422_xxAC.a(flash_manager.c.obj)
 .bss.m_action_queue_buffer
                0x20002dac      0x104 mesh/core/libmesh_core_nrf51422_xxAC.a(flash_manager.c.obj)
 .bss.m_action_state
                0x20002eb0        0x1 mesh/core/libmesh_core_nrf51422_xxAC.a(flash_manager.c.obj)
 *fill*         0x20002eb1        0x3 
 .bss.m_memory_listener_queue
                0x20002eb4        0x8 mesh/core/libmesh_core_nrf51422_xxAC.a(flash_manager.c.obj)
 .bss.m_processing_flag
                0x20002ebc        0x4 mesh/core/libmesh_core_nrf51422_xxAC.a(flash_manager.c.obj)
 .bss.m_state   0x20002ec0        0x1 mesh/core/libmesh_core_nrf51422_xxAC.a(flash_manager.c.obj)
 *fill*         0x20002ec1        0x1 
 .bss.m_token   0x20002ec2        0x2 mesh/core/libmesh_core_nrf51422_xxAC.a(flash_manager.c.obj)
 .bss.p_current.8491
                0x20002ec4        0x4 mesh/core/libmesh_core_nrf51422_xxAC.a(flash_manager.c.obj)
 .bss.result.8492
                0x20002ec8        0x1 mesh/core/libmesh_core_nrf51422_xxAC.a(flash_manager.c.obj)
 *fill*         0x20002ec9        0x3 
 .bss.m_adv_buffer
                0x20002ecc       0x68 mesh/core/libmesh_core_nrf51422_xxAC.a(beacon.c.obj)
 .bss.m_advertiser
                0x20002f34       0x94 mesh/core/libmesh_core_nrf51422_xxAC.a(beacon.c.obj)
 .bss.m_adv_tx_count
                0x20002fc8        0x8 mesh/core/libmesh_core_nrf51422_xxAC.a(core_tx.c.obj)
 .bss.m_advertisers
                0x20002fd0      0x128 mesh/core/libmesh_core_nrf51422_xxAC.a(core_tx.c.obj)
 .bss.m_originator_adv_packet_buffer
                0x200030f8      0x100 mesh/core/libmesh_core_nrf51422_xxAC.a(core_tx.c.obj)
 .bss.m_relay_adv_packet_buffer
                0x200031f8       0x80 mesh/core/libmesh_core_nrf51422_xxAC.a(core_tx.c.obj)
 .bss.m_tx_complete_callback
                0x20003278        0x4 mesh/core/libmesh_core_nrf51422_xxAC.a(core_tx.c.obj)
 .bss.m_beacon_salt
                0x2000327c       0x10 mesh/core/libmesh_core_nrf51422_xxAC.a(net_beacon.c.obj)
 .bss.m_enabled
                0x2000328c        0x1 mesh/core/libmesh_core_nrf51422_xxAC.a(net_beacon.c.obj)
 *fill*         0x2000328d        0x3 
 .bss.m_tx_event
                0x20003290       0x18 mesh/core/libmesh_core_nrf51422_xxAC.a(net_beacon.c.obj)
 .bss.m_adv_prng
                0x200032a8       0x10 mesh/core/libmesh_core_nrf51422_xxAC.a(advertiser.c.obj)
 .bss.m_action_queue
                0x200032b8        0x8 mesh/core/libmesh_core_nrf51422_xxAC.a(bearer_handler.c.obj)
 .bss.m_end_time
                0x200032c0        0x4 mesh/core/libmesh_core_nrf51422_xxAC.a(bearer_handler.c.obj)
 .bss.m_scanner_is_active
                0x200032c4        0x1 mesh/core/libmesh_core_nrf51422_xxAC.a(bearer_handler.c.obj)
 .bss.m_stopped
                0x200032c5        0x1 mesh/core/libmesh_core_nrf51422_xxAC.a(bearer_handler.c.obj)
 *fill*         0x200032c6        0x2 
 .bss.mp_action
                0x200032c8        0x4 mesh/core/libmesh_core_nrf51422_xxAC.a(bearer_handler.c.obj)
 .bss.m_next_channel_index
                0x200032cc        0x1 mesh/core/libmesh_core_nrf51422_xxAC.a(broadcast.c.obj)
 *fill*         0x200032cd        0x3 
 .bss.m_scanner
                0x200032d0      0x284 mesh/core/libmesh_core_nrf51422_xxAC.a(scanner.c.obj)
 .bss.m_internal_event_fifo
                0x20003554       0x14 mesh/core/libmesh_core_nrf51422_xxAC.a(internal_event.c.obj)
 .bss.m_internal_event_initialized
                0x20003568        0x1 mesh/core/libmesh_core_nrf51422_xxAC.a(internal_event.c.obj)
 *fill*         0x20003569        0x3 
 .bss.m_report_cb
                0x2000356c        0x4 mesh/core/libmesh_core_nrf51422_xxAC.a(internal_event.c.obj)
 .bss.m_msg_cache
                0x20003570      0x100 mesh/core/libmesh_core_nrf51422_xxAC.a(msg_cache.c.obj)
 .bss.m_msg_cache_head
                0x20003670        0x4 mesh/core/libmesh_core_nrf51422_xxAC.a(msg_cache.c.obj)
 .bss.m_sar_alloc
                0x20003674        0x4 mesh/core/libmesh_core_nrf51422_xxAC.a(transport.c.obj)
 .bss.m_sar_process_flag
                0x20003678        0x4 mesh/core/libmesh_core_nrf51422_xxAC.a(transport.c.obj)
 .bss.m_sar_release
                0x2000367c        0x4 mesh/core/libmesh_core_nrf51422_xxAC.a(transport.c.obj)
 .bss.m_sar_session_cache
                0x20003680       0x40 mesh/core/libmesh_core_nrf51422_xxAC.a(transport.c.obj)
 .bss.m_sar_session_cache_head
                0x200036c0        0x4 mesh/core/libmesh_core_nrf51422_xxAC.a(transport.c.obj)
 .bss.m_trs_config
                0x200036c4       0x18 mesh/core/libmesh_core_nrf51422_xxAC.a(transport.c.obj)
 .bss.m_trs_sar_sessions
                0x200036dc      0x1b0 mesh/core/libmesh_core_nrf51422_xxAC.a(transport.c.obj)
 .bss.m_defrag  0x2000388c       0x1c mesh/core/libmesh_core_nrf51422_xxAC.a(flash_manager_defrag.c.obj)
 .bss.m_token   0x200038a8        0x2 mesh/core/libmesh_core_nrf51422_xxAC.a(flash_manager_defrag.c.obj)
 *fill*         0x200038aa        0x2 
 .bss.mp_recovery_area
                0x200038ac        0x4 mesh/core/libmesh_core_nrf51422_xxAC.a(flash_manager_defrag.c.obj)
 .bss.p_null_ptr.7544
                0x200038b0        0x4 mesh/core/libmesh_core_nrf51422_xxAC.a(flash_manager_defrag.c.obj)
 .bss.m_pool    0x200038b4     0x1000 mesh/core/libmesh_core_nrf51422_xxAC.a(packet_mgr.c.obj)
 .bss.mp_free_head
                0x200048b4        0x4 mesh/core/libmesh_core_nrf51422_xxAC.a(packet_mgr.c.obj)
 .bss.m_128buf  0x200048b8       0x10 mesh/core/libmesh_core_nrf51422_xxAC.a(aes_cmac.c.obj)
 .bss.m_subkey1
                0x200048c8       0x10 mesh/core/libmesh_core_nrf51422_xxAC.a(aes_cmac.c.obj)
 .bss.m_subkey2
                0x200048d8       0x10 mesh/core/libmesh_core_nrf51422_xxAC.a(aes_cmac.c.obj)
 .bss.m_cache_full
                0x200048e8        0x1 mesh/core/libmesh_core_nrf51422_xxAC.a(replay_cache.c.obj)
 .bss.m_cache_index
                0x200048e9        0x1 mesh/core/libmesh_core_nrf51422_xxAC.a(replay_cache.c.obj)
 *fill*         0x200048ea        0x2 
 .bss.m_replay_cache
                0x200048ec      0x200 mesh/core/libmesh_core_nrf51422_xxAC.a(replay_cache.c.obj)
 .bss.m_accepted_amount
                0x20004aec        0x4 mesh/core/libmesh_core_nrf51422_xxAC.a(filter_engine.c.obj)
 .bss.m_filter_list_head
                0x20004af0        0x4 mesh/core/libmesh_core_nrf51422_xxAC.a(filter_engine.c.obj)
 .bss._acDownBuffer
                0x20004af4       0x80 external/rtt/librtt_nrf51422_xxAC.a(SEGGER_RTT.c.obj)
 .bss._acUpBuffer
                0x20004b74      0x400 external/rtt/librtt_nrf51422_xxAC.a(SEGGER_RTT.c.obj)
 .bss.__malloc_free_list
                0x20004f74        0x4 c:/a/gcc_arm/6/bin/../lib/gcc/arm-none-eabi/6.3.1/../../../../arm-none-eabi/lib/thumb/v6-m\libc_nano.a(lib_a-nano-mallocr.o)
                0x20004f74                __malloc_free_list
 .bss.__malloc_sbrk_start
                0x20004f78        0x4 c:/a/gcc_arm/6/bin/../lib/gcc/arm-none-eabi/6.3.1/../../../../arm-none-eabi/lib/thumb/v6-m\libc_nano.a(lib_a-nano-mallocr.o)
                0x20004f78                __malloc_sbrk_start
 .bss.heap_end.4116
                0x20004f7c        0x4 c:/a/gcc_arm/6/bin/../lib/gcc/arm-none-eabi/6.3.1/../../../../arm-none-eabi/lib/thumb/v6-m\libnosys.a(sbrk.o)
 *(COMMON)
 COMMON         0x20004f80        0x8 examples/dfu/CMakeFiles/dfu_no_serial_nrf51422_xxAC_s130_2.0.1.dir/src/main.c.obj
                0x20004f80                bank_addr
                0x20004f84                rom_length
 COMMON         0x20004f88        0x8 examples/dfu/CMakeFiles/dfu_no_serial_nrf51422_xxAC_s130_2.0.1.dir/__/nrf_mesh_sdk.c.obj
                0x20004f88                nrf_nvic_state
 COMMON         0x20004f90        0x4 examples/dfu/CMakeFiles/dfu_no_serial_nrf51422_xxAC_s130_2.0.1.dir/__/__/mesh/dfu/src/nrf_mesh_dfu.c.obj
                0x20004f90                m_cmd_handler
 COMMON         0x20004f94        0x4 mesh/core/libmesh_core_nrf51422_xxAC.a(nrf_mesh.c.obj)
                0x20004f94                m_assertion_handler
 COMMON         0x20004f98       0x78 external/rtt/librtt_nrf51422_xxAC.a(SEGGER_RTT.c.obj)
                0x20004f98                _SEGGER_RTT
 COMMON         0x20005010        0x4 c:/a/gcc_arm/6/bin/../lib/gcc/arm-none-eabi/6.3.1/../../../../arm-none-eabi/lib/thumb/v6-m\libc_nano.a(lib_a-reent.o)
                0x20005010                errno
                0x20005014                . = ALIGN (0x4)
                0x20005014                __bss_end__ = .

.heap           0x20005018      0x800
                0x20005018                __HeapBase = .
                0x20005018                __end__ = .
                0x20005018                PROVIDE (end, .)
 *(.heap*)
 .heap          0x20005018      0x800 examples/dfu/CMakeFiles/dfu_no_serial_nrf51422_xxAC_s130_2.0.1.dir/__/__/external/nRF5_SDK_14.0.0_3bcc1f7/components/toolchain/gcc/gcc_startup_nrf51.S.obj
                0x20005818                __HeapLimit = .

.stack_dummy    0x20005018      0x800
 *(.stack*)
 .stack         0x20005018      0x800 examples/dfu/CMakeFiles/dfu_no_serial_nrf51422_xxAC_s130_2.0.1.dir/__/__/external/nRF5_SDK_14.0.0_3bcc1f7/components/toolchain/gcc/gcc_startup_nrf51.S.obj
                0x20007d00                __StackTop = (ORIGIN (RAM) + LENGTH (RAM))
                0x20007500                __StackLimit = (__StackTop - SIZEOF (.stack_dummy))
                0x20007d00                PROVIDE (__stack, __StackTop)
                0x00000001                ASSERT ((__StackLimit >= __HeapLimit), region RAM overflowed with stack)
OUTPUT(examples\dfu\dfu_no_serial_nrf51422_xxAC_s130_2.0.1.elf elf32-littlearm)

.ARM.attributes
                0x00000000       0x28
 .ARM.attributes
                0x00000000       0x1e c:/a/gcc_arm/6/bin/../lib/gcc/arm-none-eabi/6.3.1/thumb/v6-m/crti.o
 .ARM.attributes
                0x0000001e       0x2c c:/a/gcc_arm/6/bin/../lib/gcc/arm-none-eabi/6.3.1/thumb/v6-m/crtbegin.o
 .ARM.attributes
                0x0000004a       0x1b c:/a/gcc_arm/6/bin/../lib/gcc/arm-none-eabi/6.3.1/../../../../arm-none-eabi/lib/thumb/v6-m/crt0.o
 .ARM.attributes
                0x00000065       0x31 examples/dfu/CMakeFiles/dfu_no_serial_nrf51422_xxAC_s130_2.0.1.dir/src/main.c.obj
 .ARM.attributes
                0x00000096       0x31 examples/dfu/CMakeFiles/dfu_no_serial_nrf51422_xxAC_s130_2.0.1.dir/__/nrf_mesh_sdk.c.obj
 .ARM.attributes
                0x000000c7       0x31 examples/dfu/CMakeFiles/dfu_no_serial_nrf51422_xxAC_s130_2.0.1.dir/__/__/mesh/access/src/device_state_manager.c.obj
 .ARM.attributes
                0x000000f8       0x31 examples/dfu/CMakeFiles/dfu_no_serial_nrf51422_xxAC_s130_2.0.1.dir/__/__/mesh/prov/src/provisioning.c.obj
 .ARM.attributes
                0x00000129       0x31 examples/dfu/CMakeFiles/dfu_no_serial_nrf51422_xxAC_s130_2.0.1.dir/__/__/mesh/prov/src/prov_beacon.c.obj
 .ARM.attributes
                0x0000015a       0x31 examples/dfu/CMakeFiles/dfu_no_serial_nrf51422_xxAC_s130_2.0.1.dir/__/__/mesh/prov/src/prov_bearer_adv.c.obj
 .ARM.attributes
                0x0000018b       0x31 examples/dfu/CMakeFiles/dfu_no_serial_nrf51422_xxAC_s130_2.0.1.dir/__/__/mesh/dfu/src/nrf_mesh_dfu.c.obj
 .ARM.attributes
                0x000001bc       0x31 examples/dfu/CMakeFiles/dfu_no_serial_nrf51422_xxAC_s130_2.0.1.dir/__/__/external/nRF5_SDK_14.0.0_3bcc1f7/components/toolchain/system_nrf51.c.obj
 .ARM.attributes
                0x000001ed       0x1b examples/dfu/CMakeFiles/dfu_no_serial_nrf51422_xxAC_s130_2.0.1.dir/__/__/external/nRF5_SDK_14.0.0_3bcc1f7/components/toolchain/gcc/gcc_startup_nrf51.S.obj
 .ARM.attributes
                0x00000208       0x31 mesh/core/libmesh_core_nrf51422_xxAC.a(nrf_mesh_configure.c.obj)
 .ARM.attributes
                0x00000239       0x31 mesh/core/libmesh_core_nrf51422_xxAC.a(event.c.obj)
 .ARM.attributes
                0x0000026a       0x31 mesh/core/libmesh_core_nrf51422_xxAC.a(net_state.c.obj)
 .ARM.attributes
                0x0000029b       0x31 mesh/core/libmesh_core_nrf51422_xxAC.a(mesh_flash.c.obj)
 .ARM.attributes
                0x000002cc       0x31 mesh/core/libmesh_core_nrf51422_xxAC.a(nrf_mesh_utils.c.obj)
 .ARM.attributes
                0x000002fd       0x31 mesh/core/libmesh_core_nrf51422_xxAC.a(nrf_mesh.c.obj)
 .ARM.attributes
                0x0000032e       0x31 mesh/core/libmesh_core_nrf51422_xxAC.a(hal.c.obj)
 .ARM.attributes
                0x0000035f       0x31 mesh/core/libmesh_core_nrf51422_xxAC.a(timer_scheduler.c.obj)
 .ARM.attributes
                0x00000390       0x31 mesh/core/libmesh_core_nrf51422_xxAC.a(timer.c.obj)
 .ARM.attributes
                0x000003c1       0x31 mesh/core/libmesh_core_nrf51422_xxAC.a(ticker.c.obj)
 .ARM.attributes
                0x000003f2       0x31 mesh/core/libmesh_core_nrf51422_xxAC.a(rand.c.obj)
 .ARM.attributes
                0x00000423       0x31 mesh/core/libmesh_core_nrf51422_xxAC.a(timeslot.c.obj)
 .ARM.attributes
                0x00000454       0x31 mesh/core/libmesh_core_nrf51422_xxAC.a(bearer_event.c.obj)
 .ARM.attributes
                0x00000485       0x31 mesh/core/libmesh_core_nrf51422_xxAC.a(enc.c.obj)
 .ARM.attributes
                0x000004b6       0x31 mesh/core/libmesh_core_nrf51422_xxAC.a(network.c.obj)
 .ARM.attributes
                0x000004e7       0x31 mesh/core/libmesh_core_nrf51422_xxAC.a(msqueue.c.obj)
 .ARM.attributes
                0x00000518       0x31 mesh/core/libmesh_core_nrf51422_xxAC.a(log.c.obj)
 .ARM.attributes
                0x00000549       0x31 mesh/core/libmesh_core_nrf51422_xxAC.a(flash_manager.c.obj)
 .ARM.attributes
                0x0000057a       0x31 mesh/core/libmesh_core_nrf51422_xxAC.a(ccm_soft.c.obj)
 .ARM.attributes
                0x000005ab       0x31 mesh/core/libmesh_core_nrf51422_xxAC.a(beacon.c.obj)
 .ARM.attributes
                0x000005dc       0x31 mesh/core/libmesh_core_nrf51422_xxAC.a(flash_manager_internal.c.obj)
 .ARM.attributes
                0x0000060d       0x31 mesh/core/libmesh_core_nrf51422_xxAC.a(core_tx.c.obj)
 .ARM.attributes
                0x0000063e       0x31 mesh/core/libmesh_core_nrf51422_xxAC.a(net_beacon.c.obj)
 .ARM.attributes
                0x0000066f       0x31 mesh/core/libmesh_core_nrf51422_xxAC.a(advertiser.c.obj)
 .ARM.attributes
                0x000006a0       0x31 mesh/core/libmesh_core_nrf51422_xxAC.a(bearer_handler.c.obj)
 .ARM.attributes
                0x000006d1       0x31 mesh/core/libmesh_core_nrf51422_xxAC.a(broadcast.c.obj)
 .ARM.attributes
                0x00000702       0x31 mesh/core/libmesh_core_nrf51422_xxAC.a(radio_config.c.obj)
 .ARM.attributes
                0x00000733       0x31 mesh/core/libmesh_core_nrf51422_xxAC.a(scanner.c.obj)
 .ARM.attributes
                0x00000764       0x31 mesh/core/libmesh_core_nrf51422_xxAC.a(internal_event.c.obj)
 .ARM.attributes
                0x00000795       0x31 mesh/core/libmesh_core_nrf51422_xxAC.a(aes.c.obj)
 .ARM.attributes
                0x000007c6       0x31 mesh/core/libmesh_core_nrf51422_xxAC.a(msg_cache.c.obj)
 .ARM.attributes
                0x000007f7       0x31 mesh/core/libmesh_core_nrf51422_xxAC.a(transport.c.obj)
 .ARM.attributes
                0x00000828       0x31 mesh/core/libmesh_core_nrf51422_xxAC.a(packet_buffer.c.obj)
 .ARM.attributes
                0x00000859       0x31 mesh/core/libmesh_core_nrf51422_xxAC.a(flash_manager_defrag.c.obj)
 .ARM.attributes
                0x0000088a       0x31 mesh/core/libmesh_core_nrf51422_xxAC.a(fifo.c.obj)
 .ARM.attributes
                0x000008bb       0x31 mesh/core/libmesh_core_nrf51422_xxAC.a(nrf_flash.c.obj)
 .ARM.attributes
                0x000008ec       0x31 mesh/core/libmesh_core_nrf51422_xxAC.a(packet_mgr.c.obj)
 .ARM.attributes
                0x0000091d       0x31 mesh/core/libmesh_core_nrf51422_xxAC.a(queue.c.obj)
 .ARM.attributes
                0x0000094e       0x31 mesh/core/libmesh_core_nrf51422_xxAC.a(aes_cmac.c.obj)
 .ARM.attributes
                0x0000097f       0x31 mesh/core/libmesh_core_nrf51422_xxAC.a(replay_cache.c.obj)
 .ARM.attributes
                0x000009b0       0x31 mesh/core/libmesh_core_nrf51422_xxAC.a(filter_engine.c.obj)
 .ARM.attributes
                0x000009e1       0x31 external/rtt/librtt_nrf51422_xxAC.a(SEGGER_RTT.c.obj)
 .ARM.attributes
                0x00000a12       0x31 external/rtt/librtt_nrf51422_xxAC.a(SEGGER_RTT_printf.c.obj)
 .ARM.attributes
                0x00000a43       0x1e c:/a/gcc_arm/6/bin/../lib/gcc/arm-none-eabi/6.3.1/thumb/v6-m\libgcc.a(_thumb1_case_uqi.o)
 .ARM.attributes
                0x00000a61       0x1e c:/a/gcc_arm/6/bin/../lib/gcc/arm-none-eabi/6.3.1/thumb/v6-m\libgcc.a(_thumb1_case_shi.o)
 .ARM.attributes
                0x00000a7f       0x1e c:/a/gcc_arm/6/bin/../lib/gcc/arm-none-eabi/6.3.1/thumb/v6-m\libgcc.a(_thumb1_case_uhi.o)
 .ARM.attributes
                0x00000a9d       0x1e c:/a/gcc_arm/6/bin/../lib/gcc/arm-none-eabi/6.3.1/thumb/v6-m\libgcc.a(_udivsi3.o)
 .ARM.attributes
                0x00000abb       0x1e c:/a/gcc_arm/6/bin/../lib/gcc/arm-none-eabi/6.3.1/thumb/v6-m\libgcc.a(_divsi3.o)
 .ARM.attributes
                0x00000ad9       0x1e c:/a/gcc_arm/6/bin/../lib/gcc/arm-none-eabi/6.3.1/thumb/v6-m\libgcc.a(_dvmd_tls.o)
 .ARM.attributes
                0x00000af7       0x2c c:/a/gcc_arm/6/bin/../lib/gcc/arm-none-eabi/6.3.1/thumb/v6-m\libgcc.a(_muldi3.o)
 .ARM.attributes
                0x00000b23       0x2c c:/a/gcc_arm/6/bin/../lib/gcc/arm-none-eabi/6.3.1/../../../../arm-none-eabi/lib/thumb/v6-m\libc_nano.a(lib_a-exit.o)
 .ARM.attributes
                0x00000b4f       0x2c c:/a/gcc_arm/6/bin/../lib/gcc/arm-none-eabi/6.3.1/../../../../arm-none-eabi/lib/thumb/v6-m\libc_nano.a(lib_a-impure.o)
 .ARM.attributes
                0x00000b7b       0x2c c:/a/gcc_arm/6/bin/../lib/gcc/arm-none-eabi/6.3.1/../../../../arm-none-eabi/lib/thumb/v6-m\libc_nano.a(lib_a-init.o)
 .ARM.attributes
                0x00000ba7       0x2c c:/a/gcc_arm/6/bin/../lib/gcc/arm-none-eabi/6.3.1/../../../../arm-none-eabi/lib/thumb/v6-m\libc_nano.a(lib_a-malloc.o)
 .ARM.attributes
                0x00000bd3       0x2c c:/a/gcc_arm/6/bin/../lib/gcc/arm-none-eabi/6.3.1/../../../../arm-none-eabi/lib/thumb/v6-m\libc_nano.a(lib_a-memcmp.o)
 .ARM.attributes
                0x00000bff       0x2c c:/a/gcc_arm/6/bin/../lib/gcc/arm-none-eabi/6.3.1/../../../../arm-none-eabi/lib/thumb/v6-m\libc_nano.a(lib_a-memcpy-stub.o)
 .ARM.attributes
                0x00000c2b       0x2c c:/a/gcc_arm/6/bin/../lib/gcc/arm-none-eabi/6.3.1/../../../../arm-none-eabi/lib/thumb/v6-m\libc_nano.a(lib_a-memset.o)
 .ARM.attributes
                0x00000c57       0x2c c:/a/gcc_arm/6/bin/../lib/gcc/arm-none-eabi/6.3.1/../../../../arm-none-eabi/lib/thumb/v6-m\libc_nano.a(lib_a-nano-freer.o)
 .ARM.attributes
                0x00000c83       0x2c c:/a/gcc_arm/6/bin/../lib/gcc/arm-none-eabi/6.3.1/../../../../arm-none-eabi/lib/thumb/v6-m\libc_nano.a(lib_a-nano-mallocr.o)
 .ARM.attributes
                0x00000caf       0x2c c:/a/gcc_arm/6/bin/../lib/gcc/arm-none-eabi/6.3.1/../../../../arm-none-eabi/lib/thumb/v6-m\libc_nano.a(lib_a-sbrkr.o)
 .ARM.attributes
                0x00000cdb       0x2c c:/a/gcc_arm/6/bin/../lib/gcc/arm-none-eabi/6.3.1/../../../../arm-none-eabi/lib/thumb/v6-m\libc_nano.a(lib_a-strcpy.o)
 .ARM.attributes
                0x00000d07       0x2c c:/a/gcc_arm/6/bin/../lib/gcc/arm-none-eabi/6.3.1/../../../../arm-none-eabi/lib/thumb/v6-m\libc_nano.a(lib_a-strrchr.o)
 .ARM.attributes
                0x00000d33       0x2c c:/a/gcc_arm/6/bin/../lib/gcc/arm-none-eabi/6.3.1/../../../../arm-none-eabi/lib/thumb/v6-m\libc_nano.a(lib_a-mlock.o)
 .ARM.attributes
                0x00000d5f       0x2c c:/a/gcc_arm/6/bin/../lib/gcc/arm-none-eabi/6.3.1/../../../../arm-none-eabi/lib/thumb/v6-m\libc_nano.a(lib_a-reent.o)
 .ARM.attributes
                0x00000d8b       0x2c c:/a/gcc_arm/6/bin/../lib/gcc/arm-none-eabi/6.3.1/../../../../arm-none-eabi/lib/thumb/v6-m\libc_nano.a(lib_a-strchr.o)
 .ARM.attributes
                0x00000db7       0x2c c:/a/gcc_arm/6/bin/../lib/gcc/arm-none-eabi/6.3.1/thumb/v6-m/crtend.o
 .ARM.attributes
                0x00000de3       0x1e c:/a/gcc_arm/6/bin/../lib/gcc/arm-none-eabi/6.3.1/thumb/v6-m/crtn.o
 .ARM.attributes
                0x00000e01       0x2c c:/a/gcc_arm/6/bin/../lib/gcc/arm-none-eabi/6.3.1/../../../../arm-none-eabi/lib/thumb/v6-m\libnosys.a(sbrk.o)
 .ARM.attributes
                0x00000e2d       0x2c c:/a/gcc_arm/6/bin/../lib/gcc/arm-none-eabi/6.3.1/../../../../arm-none-eabi/lib/thumb/v6-m\libnosys.a(_exit.o)

.comment        0x00000000       0x7f
 .comment       0x00000000       0x7f examples/dfu/CMakeFiles/dfu_no_serial_nrf51422_xxAC_s130_2.0.1.dir/src/main.c.obj
                                 0x80 (size before relaxing)
 .comment       0x0000007f       0x80 examples/dfu/CMakeFiles/dfu_no_serial_nrf51422_xxAC_s130_2.0.1.dir/__/nrf_mesh_sdk.c.obj
 .comment       0x0000007f       0x80 examples/dfu/CMakeFiles/dfu_no_serial_nrf51422_xxAC_s130_2.0.1.dir/__/__/mesh/access/src/device_state_manager.c.obj
 .comment       0x0000007f       0x80 examples/dfu/CMakeFiles/dfu_no_serial_nrf51422_xxAC_s130_2.0.1.dir/__/__/mesh/prov/src/provisioning.c.obj
 .comment       0x0000007f       0x80 examples/dfu/CMakeFiles/dfu_no_serial_nrf51422_xxAC_s130_2.0.1.dir/__/__/mesh/prov/src/prov_beacon.c.obj
 .comment       0x0000007f       0x80 examples/dfu/CMakeFiles/dfu_no_serial_nrf51422_xxAC_s130_2.0.1.dir/__/__/mesh/prov/src/prov_bearer_adv.c.obj
 .comment       0x0000007f       0x80 examples/dfu/CMakeFiles/dfu_no_serial_nrf51422_xxAC_s130_2.0.1.dir/__/__/mesh/dfu/src/nrf_mesh_dfu.c.obj
 .comment       0x0000007f       0x80 examples/dfu/CMakeFiles/dfu_no_serial_nrf51422_xxAC_s130_2.0.1.dir/__/__/external/nRF5_SDK_14.0.0_3bcc1f7/components/toolchain/system_nrf51.c.obj
 .comment       0x0000007f       0x80 mesh/core/libmesh_core_nrf51422_xxAC.a(nrf_mesh_configure.c.obj)
 .comment       0x0000007f       0x80 mesh/core/libmesh_core_nrf51422_xxAC.a(event.c.obj)
 .comment       0x0000007f       0x80 mesh/core/libmesh_core_nrf51422_xxAC.a(net_state.c.obj)
 .comment       0x0000007f       0x80 mesh/core/libmesh_core_nrf51422_xxAC.a(mesh_flash.c.obj)
 .comment       0x0000007f       0x80 mesh/core/libmesh_core_nrf51422_xxAC.a(nrf_mesh_utils.c.obj)
 .comment       0x0000007f       0x80 mesh/core/libmesh_core_nrf51422_xxAC.a(nrf_mesh.c.obj)
 .comment       0x0000007f       0x80 mesh/core/libmesh_core_nrf51422_xxAC.a(hal.c.obj)
 .comment       0x0000007f       0x80 mesh/core/libmesh_core_nrf51422_xxAC.a(timer_scheduler.c.obj)
 .comment       0x0000007f       0x80 mesh/core/libmesh_core_nrf51422_xxAC.a(timer.c.obj)
 .comment       0x0000007f       0x80 mesh/core/libmesh_core_nrf51422_xxAC.a(ticker.c.obj)
 .comment       0x0000007f       0x80 mesh/core/libmesh_core_nrf51422_xxAC.a(rand.c.obj)
 .comment       0x0000007f       0x80 mesh/core/libmesh_core_nrf51422_xxAC.a(timeslot.c.obj)
 .comment       0x0000007f       0x80 mesh/core/libmesh_core_nrf51422_xxAC.a(bearer_event.c.obj)
 .comment       0x0000007f       0x80 mesh/core/libmesh_core_nrf51422_xxAC.a(enc.c.obj)
 .comment       0x0000007f       0x80 mesh/core/libmesh_core_nrf51422_xxAC.a(network.c.obj)
 .comment       0x0000007f       0x80 mesh/core/libmesh_core_nrf51422_xxAC.a(msqueue.c.obj)
 .comment       0x0000007f       0x80 mesh/core/libmesh_core_nrf51422_xxAC.a(log.c.obj)
 .comment       0x0000007f       0x80 mesh/core/libmesh_core_nrf51422_xxAC.a(flash_manager.c.obj)
 .comment       0x0000007f       0x80 mesh/core/libmesh_core_nrf51422_xxAC.a(ccm_soft.c.obj)
 .comment       0x0000007f       0x80 mesh/core/libmesh_core_nrf51422_xxAC.a(beacon.c.obj)
 .comment       0x0000007f       0x80 mesh/core/libmesh_core_nrf51422_xxAC.a(flash_manager_internal.c.obj)
 .comment       0x0000007f       0x80 mesh/core/libmesh_core_nrf51422_xxAC.a(core_tx.c.obj)
 .comment       0x0000007f       0x80 mesh/core/libmesh_core_nrf51422_xxAC.a(net_beacon.c.obj)
 .comment       0x0000007f       0x80 mesh/core/libmesh_core_nrf51422_xxAC.a(advertiser.c.obj)
 .comment       0x0000007f       0x80 mesh/core/libmesh_core_nrf51422_xxAC.a(bearer_handler.c.obj)
 .comment       0x0000007f       0x80 mesh/core/libmesh_core_nrf51422_xxAC.a(broadcast.c.obj)
 .comment       0x0000007f       0x80 mesh/core/libmesh_core_nrf51422_xxAC.a(radio_config.c.obj)
 .comment       0x0000007f       0x80 mesh/core/libmesh_core_nrf51422_xxAC.a(scanner.c.obj)
 .comment       0x0000007f       0x80 mesh/core/libmesh_core_nrf51422_xxAC.a(internal_event.c.obj)
 .comment       0x0000007f       0x80 mesh/core/libmesh_core_nrf51422_xxAC.a(aes.c.obj)
 .comment       0x0000007f       0x80 mesh/core/libmesh_core_nrf51422_xxAC.a(msg_cache.c.obj)
 .comment       0x0000007f       0x80 mesh/core/libmesh_core_nrf51422_xxAC.a(transport.c.obj)
 .comment       0x0000007f       0x80 mesh/core/libmesh_core_nrf51422_xxAC.a(packet_buffer.c.obj)
 .comment       0x0000007f       0x80 mesh/core/libmesh_core_nrf51422_xxAC.a(flash_manager_defrag.c.obj)
 .comment       0x0000007f       0x80 mesh/core/libmesh_core_nrf51422_xxAC.a(fifo.c.obj)
 .comment       0x0000007f       0x80 mesh/core/libmesh_core_nrf51422_xxAC.a(nrf_flash.c.obj)
 .comment       0x0000007f       0x80 mesh/core/libmesh_core_nrf51422_xxAC.a(packet_mgr.c.obj)
 .comment       0x0000007f       0x80 mesh/core/libmesh_core_nrf51422_xxAC.a(queue.c.obj)
 .comment       0x0000007f       0x80 mesh/core/libmesh_core_nrf51422_xxAC.a(aes_cmac.c.obj)
 .comment       0x0000007f       0x80 mesh/core/libmesh_core_nrf51422_xxAC.a(replay_cache.c.obj)
 .comment       0x0000007f       0x80 mesh/core/libmesh_core_nrf51422_xxAC.a(filter_engine.c.obj)
 .comment       0x0000007f       0x80 external/rtt/librtt_nrf51422_xxAC.a(SEGGER_RTT.c.obj)
 .comment       0x0000007f       0x80 external/rtt/librtt_nrf51422_xxAC.a(SEGGER_RTT_printf.c.obj)

.debug_frame    0x00000000      0x324
 .debug_frame   0x00000000       0x20 c:/a/gcc_arm/6/bin/../lib/gcc/arm-none-eabi/6.3.1/thumb/v6-m\libgcc.a(_udivsi3.o)
 .debug_frame   0x00000020       0x20 c:/a/gcc_arm/6/bin/../lib/gcc/arm-none-eabi/6.3.1/thumb/v6-m\libgcc.a(_divsi3.o)
 .debug_frame   0x00000040       0x34 c:/a/gcc_arm/6/bin/../lib/gcc/arm-none-eabi/6.3.1/thumb/v6-m\libgcc.a(_muldi3.o)
 .debug_frame   0x00000074       0x28 c:/a/gcc_arm/6/bin/../lib/gcc/arm-none-eabi/6.3.1/../../../../arm-none-eabi/lib/thumb/v6-m\libc_nano.a(lib_a-exit.o)
 .debug_frame   0x0000009c       0x2c c:/a/gcc_arm/6/bin/../lib/gcc/arm-none-eabi/6.3.1/../../../../arm-none-eabi/lib/thumb/v6-m\libc_nano.a(lib_a-init.o)
 .debug_frame   0x000000c8       0x40 c:/a/gcc_arm/6/bin/../lib/gcc/arm-none-eabi/6.3.1/../../../../arm-none-eabi/lib/thumb/v6-m\libc_nano.a(lib_a-malloc.o)
 .debug_frame   0x00000108       0x2c c:/a/gcc_arm/6/bin/../lib/gcc/arm-none-eabi/6.3.1/../../../../arm-none-eabi/lib/thumb/v6-m\libc_nano.a(lib_a-memcmp.o)
 .debug_frame   0x00000134       0x28 c:/a/gcc_arm/6/bin/../lib/gcc/arm-none-eabi/6.3.1/../../../../arm-none-eabi/lib/thumb/v6-m\libc_nano.a(lib_a-memcpy-stub.o)
 .debug_frame   0x0000015c       0x20 c:/a/gcc_arm/6/bin/../lib/gcc/arm-none-eabi/6.3.1/../../../../arm-none-eabi/lib/thumb/v6-m\libc_nano.a(lib_a-memset.o)
 .debug_frame   0x0000017c       0x2c c:/a/gcc_arm/6/bin/../lib/gcc/arm-none-eabi/6.3.1/../../../../arm-none-eabi/lib/thumb/v6-m\libc_nano.a(lib_a-nano-freer.o)
 .debug_frame   0x000001a8       0x2c c:/a/gcc_arm/6/bin/../lib/gcc/arm-none-eabi/6.3.1/../../../../arm-none-eabi/lib/thumb/v6-m\libc_nano.a(lib_a-nano-mallocr.o)
 .debug_frame   0x000001d4       0x2c c:/a/gcc_arm/6/bin/../lib/gcc/arm-none-eabi/6.3.1/../../../../arm-none-eabi/lib/thumb/v6-m\libc_nano.a(lib_a-sbrkr.o)
 .debug_frame   0x00000200       0x20 c:/a/gcc_arm/6/bin/../lib/gcc/arm-none-eabi/6.3.1/../../../../arm-none-eabi/lib/thumb/v6-m\libc_nano.a(lib_a-strcpy.o)
 .debug_frame   0x00000220       0x2c c:/a/gcc_arm/6/bin/../lib/gcc/arm-none-eabi/6.3.1/../../../../arm-none-eabi/lib/thumb/v6-m\libc_nano.a(lib_a-strrchr.o)
 .debug_frame   0x0000024c       0x30 c:/a/gcc_arm/6/bin/../lib/gcc/arm-none-eabi/6.3.1/../../../../arm-none-eabi/lib/thumb/v6-m\libc_nano.a(lib_a-mlock.o)
 .debug_frame   0x0000027c       0x48 c:/a/gcc_arm/6/bin/../lib/gcc/arm-none-eabi/6.3.1/../../../../arm-none-eabi/lib/thumb/v6-m\libc_nano.a(lib_a-reent.o)
 .debug_frame   0x000002c4       0x20 c:/a/gcc_arm/6/bin/../lib/gcc/arm-none-eabi/6.3.1/../../../../arm-none-eabi/lib/thumb/v6-m\libc_nano.a(lib_a-strchr.o)
 .debug_frame   0x000002e4       0x20 c:/a/gcc_arm/6/bin/../lib/gcc/arm-none-eabi/6.3.1/../../../../arm-none-eabi/lib/thumb/v6-m\libnosys.a(sbrk.o)
 .debug_frame   0x00000304       0x20 c:/a/gcc_arm/6/bin/../lib/gcc/arm-none-eabi/6.3.1/../../../../arm-none-eabi/lib/thumb/v6-m\libnosys.a(_exit.o)
