Archive member included to satisfy reference by file (symbol)

mesh/core/libmesh_core_nrf51422_xxAC.a(internal_event.c.obj)
                              examples/dfu/CMakeFiles/dfu_nrf51422_xxAC_s130_2.0.1.dir/__/__/mesh/serial/src/serial_handler_device.c.obj (internal_event_init)
mesh/core/libmesh_core_nrf51422_xxAC.a(nrf_mesh_configure.c.obj)
                              examples/dfu/CMakeFiles/dfu_nrf51422_xxAC_s130_2.0.1.dir/__/__/mesh/serial/src/serial_handler_config.c.obj (nrf_mesh_configure_device_uuid_set)
mesh/core/libmesh_core_nrf51422_xxAC.a(event.c.obj)
                              examples/dfu/CMakeFiles/dfu_nrf51422_xxAC_s130_2.0.1.dir/__/__/mesh/access/src/access.c.obj (event_handle)
mesh/core/libmesh_core_nrf51422_xxAC.a(packet_buffer.c.obj)
                              examples/dfu/CMakeFiles/dfu_nrf51422_xxAC_s130_2.0.1.dir/__/__/mesh/serial/src/serial_bearer.c.obj (packet_buffer_max_packet_len_get)
mesh/core/libmesh_core_nrf51422_xxAC.a(fifo.c.obj)
                              mesh/core/libmesh_core_nrf51422_xxAC.a(internal_event.c.obj) (fifo_init)
mesh/core/libmesh_core_nrf51422_xxAC.a(net_state.c.obj)
                              examples/dfu/CMakeFiles/dfu_nrf51422_xxAC_s130_2.0.1.dir/__/__/mesh/serial/src/serial_handler_mesh.c.obj (net_state_reset)
mesh/core/libmesh_core_nrf51422_xxAC.a(mesh_flash.c.obj)
                              examples/dfu/CMakeFiles/dfu_nrf51422_xxAC_s130_2.0.1.dir/__/__/mesh/dfu/src/nrf_mesh_dfu.c.obj (mesh_flash_user_callback_set)
mesh/core/libmesh_core_nrf51422_xxAC.a(nrf_mesh_utils.c.obj)
                              examples/dfu/CMakeFiles/dfu_nrf51422_xxAC_s130_2.0.1.dir/__/__/mesh/access/src/device_state_manager.c.obj (nrf_mesh_address_type_get)
mesh/core/libmesh_core_nrf51422_xxAC.a(nrf_mesh.c.obj)
                              examples/dfu/CMakeFiles/dfu_nrf51422_xxAC_s130_2.0.1.dir/__/nrf_mesh_sdk.c.obj (nrf_mesh_init)
mesh/core/libmesh_core_nrf51422_xxAC.a(hal.c.obj)
                              examples/dfu/CMakeFiles/dfu_nrf51422_xxAC_s130_2.0.1.dir/__/__/mesh/serial/src/serial_handler_device.c.obj (hal_device_reset)
mesh/core/libmesh_core_nrf51422_xxAC.a(timer_scheduler.c.obj)
                              mesh/core/libmesh_core_nrf51422_xxAC.a(nrf_mesh.c.obj) (timer_sch_init)
mesh/core/libmesh_core_nrf51422_xxAC.a(timer.c.obj)
                              mesh/core/libmesh_core_nrf51422_xxAC.a(timer_scheduler.c.obj) (timer_order_cb)
mesh/core/libmesh_core_nrf51422_xxAC.a(ticker.c.obj)
                              mesh/core/libmesh_core_nrf51422_xxAC.a(nrf_mesh.c.obj) (ticker_init)
mesh/core/libmesh_core_nrf51422_xxAC.a(rand.c.obj)
                              examples/dfu/CMakeFiles/dfu_nrf51422_xxAC_s130_2.0.1.dir/__/__/mesh/dfu/src/nrf_mesh_dfu.c.obj (rand_prng_get)
mesh/core/libmesh_core_nrf51422_xxAC.a(timeslot.c.obj)
                              mesh/core/libmesh_core_nrf51422_xxAC.a(nrf_mesh.c.obj) (timeslot_sd_event_handler)
mesh/core/libmesh_core_nrf51422_xxAC.a(bearer_event.c.obj)
                              mesh/core/libmesh_core_nrf51422_xxAC.a(nrf_mesh.c.obj) (bearer_event_init)
mesh/core/libmesh_core_nrf51422_xxAC.a(enc.c.obj)
                              examples/dfu/CMakeFiles/dfu_nrf51422_xxAC_s130_2.0.1.dir/__/__/mesh/prov/src/prov_utils.c.obj (enc_aes_cmac)
mesh/core/libmesh_core_nrf51422_xxAC.a(network.c.obj)
                              mesh/core/libmesh_core_nrf51422_xxAC.a(nrf_mesh.c.obj) (network_init)
mesh/core/libmesh_core_nrf51422_xxAC.a(msqueue.c.obj)
                              mesh/core/libmesh_core_nrf51422_xxAC.a(mesh_flash.c.obj) (msq_get)
mesh/core/libmesh_core_nrf51422_xxAC.a(nrf_mesh_keygen.c.obj)
                              examples/dfu/CMakeFiles/dfu_nrf51422_xxAC_s130_2.0.1.dir/__/__/mesh/access/src/device_state_manager.c.obj (nrf_mesh_keygen_aid)
mesh/core/libmesh_core_nrf51422_xxAC.a(log.c.obj)
                              examples/dfu/CMakeFiles/dfu_nrf51422_xxAC_s130_2.0.1.dir/src/main.c.obj (log_callback_rtt)
mesh/core/libmesh_core_nrf51422_xxAC.a(flash_manager.c.obj)
                              mesh/core/libmesh_core_nrf51422_xxAC.a(nrf_mesh.c.obj) (flash_manager_init)
mesh/core/libmesh_core_nrf51422_xxAC.a(ccm_soft.c.obj)
                              mesh/core/libmesh_core_nrf51422_xxAC.a(enc.c.obj) (ccm_soft_encrypt)
mesh/core/libmesh_core_nrf51422_xxAC.a(beacon.c.obj)
                              mesh/core/libmesh_core_nrf51422_xxAC.a(nrf_mesh.c.obj) (beacon_init)
mesh/core/libmesh_core_nrf51422_xxAC.a(flash_manager_internal.c.obj)
                              mesh/core/libmesh_core_nrf51422_xxAC.a(flash_manager.c.obj) (entry_get)
mesh/core/libmesh_core_nrf51422_xxAC.a(core_tx.c.obj)
                              mesh/core/libmesh_core_nrf51422_xxAC.a(nrf_mesh.c.obj) (core_tx_init)
mesh/core/libmesh_core_nrf51422_xxAC.a(net_beacon.c.obj)
                              mesh/core/libmesh_core_nrf51422_xxAC.a(network.c.obj) (net_beacon_init)
mesh/core/libmesh_core_nrf51422_xxAC.a(advertiser.c.obj)
                              mesh/core/libmesh_core_nrf51422_xxAC.a(nrf_mesh.c.obj) (advertiser_init)
mesh/core/libmesh_core_nrf51422_xxAC.a(bearer_handler.c.obj)
                              mesh/core/libmesh_core_nrf51422_xxAC.a(nrf_mesh.c.obj) (bearer_handler_init)
mesh/core/libmesh_core_nrf51422_xxAC.a(broadcast.c.obj)
                              examples/dfu/CMakeFiles/dfu_nrf51422_xxAC_s130_2.0.1.dir/__/__/mesh/dfu/src/nrf_mesh_dfu.c.obj (broadcast_send)
mesh/core/libmesh_core_nrf51422_xxAC.a(radio_config.c.obj)
                              mesh/core/libmesh_core_nrf51422_xxAC.a(broadcast.c.obj) (radio_config_reset)
mesh/core/libmesh_core_nrf51422_xxAC.a(scanner.c.obj)
                              mesh/core/libmesh_core_nrf51422_xxAC.a(bearer_handler.c.obj) (scanner_radio_start)
mesh/core/libmesh_core_nrf51422_xxAC.a(aes.c.obj)
                              mesh/core/libmesh_core_nrf51422_xxAC.a(enc.c.obj) (aes_encrypt)
mesh/core/libmesh_core_nrf51422_xxAC.a(msg_cache.c.obj)
                              mesh/core/libmesh_core_nrf51422_xxAC.a(nrf_mesh.c.obj) (msg_cache_init)
mesh/core/libmesh_core_nrf51422_xxAC.a(transport.c.obj)
                              mesh/core/libmesh_core_nrf51422_xxAC.a(nrf_mesh.c.obj) (transport_init)
mesh/core/libmesh_core_nrf51422_xxAC.a(flash_manager_defrag.c.obj)
                              mesh/core/libmesh_core_nrf51422_xxAC.a(flash_manager.c.obj) (flash_manager_defrag_init)
mesh/core/libmesh_core_nrf51422_xxAC.a(nrf_flash.c.obj)
                              mesh/core/libmesh_core_nrf51422_xxAC.a(mesh_flash.c.obj) (nrf_flash_erase)
mesh/core/libmesh_core_nrf51422_xxAC.a(packet_mgr.c.obj)
                              mesh/core/libmesh_core_nrf51422_xxAC.a(nrf_mesh.c.obj) (packet_mgr_init)
mesh/core/libmesh_core_nrf51422_xxAC.a(queue.c.obj)
                              mesh/core/libmesh_core_nrf51422_xxAC.a(bearer_event.c.obj) (queue_init)
mesh/core/libmesh_core_nrf51422_xxAC.a(aes_cmac.c.obj)
                              mesh/core/libmesh_core_nrf51422_xxAC.a(enc.c.obj) (aes_cmac)
mesh/core/libmesh_core_nrf51422_xxAC.a(replay_cache.c.obj)
                              mesh/core/libmesh_core_nrf51422_xxAC.a(transport.c.obj) (replay_cache_add)
mesh/core/libmesh_core_nrf51422_xxAC.a(filter_engine.c.obj)
                              mesh/core/libmesh_core_nrf51422_xxAC.a(scanner.c.obj) (fen_filters_apply)
external/rtt/librtt_nrf51422_xxAC.a(SEGGER_RTT.c.obj)
                              mesh/core/libmesh_core_nrf51422_xxAC.a(log.c.obj) (SEGGER_RTT_Write)
external/rtt/librtt_nrf51422_xxAC.a(SEGGER_RTT_printf.c.obj)
                              mesh/core/libmesh_core_nrf51422_xxAC.a(log.c.obj) (SEGGER_RTT_vprintf)
external/micro-ecc/libuECC_nrf51422_xxAC.a(uECC.c.obj)
                              examples/dfu/CMakeFiles/dfu_nrf51422_xxAC_s130_2.0.1.dir/__/__/mesh/prov/src/prov_utils.c.obj (uECC_secp256r1)
c:/a/gcc_arm/6/bin/../lib/gcc/arm-none-eabi/6.3.1/thumb/v6-m\libgcc.a(_thumb1_case_uqi.o)
                              examples/dfu/CMakeFiles/dfu_nrf51422_xxAC_s130_2.0.1.dir/src/main.c.obj (__gnu_thumb1_case_uqi)
c:/a/gcc_arm/6/bin/../lib/gcc/arm-none-eabi/6.3.1/thumb/v6-m\libgcc.a(_thumb1_case_shi.o)
                              examples/dfu/CMakeFiles/dfu_nrf51422_xxAC_s130_2.0.1.dir/__/__/mesh/prov/src/prov_provisioner.c.obj (__gnu_thumb1_case_shi)
c:/a/gcc_arm/6/bin/../lib/gcc/arm-none-eabi/6.3.1/thumb/v6-m\libgcc.a(_thumb1_case_uhi.o)
                              examples/dfu/CMakeFiles/dfu_nrf51422_xxAC_s130_2.0.1.dir/__/__/mesh/serial/src/serial_handler_prov.c.obj (__gnu_thumb1_case_uhi)
c:/a/gcc_arm/6/bin/../lib/gcc/arm-none-eabi/6.3.1/thumb/v6-m\libgcc.a(_udivsi3.o)
                              examples/dfu/CMakeFiles/dfu_nrf51422_xxAC_s130_2.0.1.dir/__/__/mesh/access/src/access_publish.c.obj (__aeabi_uidiv)
c:/a/gcc_arm/6/bin/../lib/gcc/arm-none-eabi/6.3.1/thumb/v6-m\libgcc.a(_divsi3.o)
                              examples/dfu/CMakeFiles/dfu_nrf51422_xxAC_s130_2.0.1.dir/__/__/mesh/access/src/access_reliable.c.obj (__aeabi_idiv)
c:/a/gcc_arm/6/bin/../lib/gcc/arm-none-eabi/6.3.1/thumb/v6-m\libgcc.a(_dvmd_tls.o)
                              c:/a/gcc_arm/6/bin/../lib/gcc/arm-none-eabi/6.3.1/thumb/v6-m\libgcc.a(_udivsi3.o) (__aeabi_idiv0)
c:/a/gcc_arm/6/bin/../lib/gcc/arm-none-eabi/6.3.1/thumb/v6-m\libgcc.a(_muldi3.o)
                              mesh/core/libmesh_core_nrf51422_xxAC.a(timeslot.c.obj) (__aeabi_lmul)
c:/a/gcc_arm/6/bin/../lib/gcc/arm-none-eabi/6.3.1/../../../../arm-none-eabi/lib/thumb/v6-m\libc_nano.a(lib_a-exit.o)
                              c:/a/gcc_arm/6/bin/../lib/gcc/arm-none-eabi/6.3.1/../../../../arm-none-eabi/lib/thumb/v6-m/crt0.o (exit)
c:/a/gcc_arm/6/bin/../lib/gcc/arm-none-eabi/6.3.1/../../../../arm-none-eabi/lib/thumb/v6-m\libc_nano.a(lib_a-impure.o)
                              c:/a/gcc_arm/6/bin/../lib/gcc/arm-none-eabi/6.3.1/../../../../arm-none-eabi/lib/thumb/v6-m\libc_nano.a(lib_a-exit.o) (_global_impure_ptr)
c:/a/gcc_arm/6/bin/../lib/gcc/arm-none-eabi/6.3.1/../../../../arm-none-eabi/lib/thumb/v6-m\libc_nano.a(lib_a-init.o)
                              c:/a/gcc_arm/6/bin/../lib/gcc/arm-none-eabi/6.3.1/../../../../arm-none-eabi/lib/thumb/v6-m/crt0.o (__libc_init_array)
c:/a/gcc_arm/6/bin/../lib/gcc/arm-none-eabi/6.3.1/../../../../arm-none-eabi/lib/thumb/v6-m\libc_nano.a(lib_a-malloc.o)
                              mesh/core/libmesh_core_nrf51422_xxAC.a(transport.c.obj) (malloc)
c:/a/gcc_arm/6/bin/../lib/gcc/arm-none-eabi/6.3.1/../../../../arm-none-eabi/lib/thumb/v6-m\libc_nano.a(lib_a-memcmp.o)
                              examples/dfu/CMakeFiles/dfu_nrf51422_xxAC_s130_2.0.1.dir/__/__/mesh/access/src/device_state_manager.c.obj (memcmp)
c:/a/gcc_arm/6/bin/../lib/gcc/arm-none-eabi/6.3.1/../../../../arm-none-eabi/lib/thumb/v6-m\libc_nano.a(lib_a-memcpy-stub.o)
                              examples/dfu/CMakeFiles/dfu_nrf51422_xxAC_s130_2.0.1.dir/__/__/mesh/access/src/access.c.obj (memcpy)
c:/a/gcc_arm/6/bin/../lib/gcc/arm-none-eabi/6.3.1/../../../../arm-none-eabi/lib/thumb/v6-m\libc_nano.a(lib_a-memset.o)
                              c:/a/gcc_arm/6/bin/../lib/gcc/arm-none-eabi/6.3.1/../../../../arm-none-eabi/lib/thumb/v6-m/crt0.o (memset)
c:/a/gcc_arm/6/bin/../lib/gcc/arm-none-eabi/6.3.1/../../../../arm-none-eabi/lib/thumb/v6-m\libc_nano.a(lib_a-nano-freer.o)
                              c:/a/gcc_arm/6/bin/../lib/gcc/arm-none-eabi/6.3.1/../../../../arm-none-eabi/lib/thumb/v6-m\libc_nano.a(lib_a-malloc.o) (_free_r)
c:/a/gcc_arm/6/bin/../lib/gcc/arm-none-eabi/6.3.1/../../../../arm-none-eabi/lib/thumb/v6-m\libc_nano.a(lib_a-nano-mallocr.o)
                              c:/a/gcc_arm/6/bin/../lib/gcc/arm-none-eabi/6.3.1/../../../../arm-none-eabi/lib/thumb/v6-m\libc_nano.a(lib_a-malloc.o) (_malloc_r)
c:/a/gcc_arm/6/bin/../lib/gcc/arm-none-eabi/6.3.1/../../../../arm-none-eabi/lib/thumb/v6-m\libc_nano.a(lib_a-sbrkr.o)
                              c:/a/gcc_arm/6/bin/../lib/gcc/arm-none-eabi/6.3.1/../../../../arm-none-eabi/lib/thumb/v6-m\libc_nano.a(lib_a-nano-mallocr.o) (_sbrk_r)
c:/a/gcc_arm/6/bin/../lib/gcc/arm-none-eabi/6.3.1/../../../../arm-none-eabi/lib/thumb/v6-m\libc_nano.a(lib_a-strcpy.o)
                              external/rtt/librtt_nrf51422_xxAC.a(SEGGER_RTT.c.obj) (strcpy)
c:/a/gcc_arm/6/bin/../lib/gcc/arm-none-eabi/6.3.1/../../../../arm-none-eabi/lib/thumb/v6-m\libc_nano.a(lib_a-strlen.o)
                              examples/dfu/CMakeFiles/dfu_nrf51422_xxAC_s130_2.0.1.dir/__/__/mesh/prov/src/prov_beacon.c.obj (strlen)
c:/a/gcc_arm/6/bin/../lib/gcc/arm-none-eabi/6.3.1/../../../../arm-none-eabi/lib/thumb/v6-m\libc_nano.a(lib_a-strrchr.o)
                              examples/dfu/CMakeFiles/dfu_nrf51422_xxAC_s130_2.0.1.dir/src/main.c.obj (strrchr)
c:/a/gcc_arm/6/bin/../lib/gcc/arm-none-eabi/6.3.1/../../../../arm-none-eabi/lib/thumb/v6-m\libc_nano.a(lib_a-mlock.o)
                              c:/a/gcc_arm/6/bin/../lib/gcc/arm-none-eabi/6.3.1/../../../../arm-none-eabi/lib/thumb/v6-m\libc_nano.a(lib_a-nano-freer.o) (__malloc_lock)
c:/a/gcc_arm/6/bin/../lib/gcc/arm-none-eabi/6.3.1/../../../../arm-none-eabi/lib/thumb/v6-m\libc_nano.a(lib_a-reent.o)
                              c:/a/gcc_arm/6/bin/../lib/gcc/arm-none-eabi/6.3.1/../../../../arm-none-eabi/lib/thumb/v6-m\libc_nano.a(lib_a-sbrkr.o) (errno)
c:/a/gcc_arm/6/bin/../lib/gcc/arm-none-eabi/6.3.1/../../../../arm-none-eabi/lib/thumb/v6-m\libc_nano.a(lib_a-strchr.o)
                              c:/a/gcc_arm/6/bin/../lib/gcc/arm-none-eabi/6.3.1/../../../../arm-none-eabi/lib/thumb/v6-m\libc_nano.a(lib_a-strrchr.o) (strchr)
c:/a/gcc_arm/6/bin/../lib/gcc/arm-none-eabi/6.3.1/../../../../arm-none-eabi/lib/thumb/v6-m\libnosys.a(sbrk.o)
                              c:/a/gcc_arm/6/bin/../lib/gcc/arm-none-eabi/6.3.1/../../../../arm-none-eabi/lib/thumb/v6-m\libc_nano.a(lib_a-sbrkr.o) (_sbrk)
c:/a/gcc_arm/6/bin/../lib/gcc/arm-none-eabi/6.3.1/../../../../arm-none-eabi/lib/thumb/v6-m\libnosys.a(_exit.o)
                              c:/a/gcc_arm/6/bin/../lib/gcc/arm-none-eabi/6.3.1/../../../../arm-none-eabi/lib/thumb/v6-m\libc_nano.a(lib_a-exit.o) (_exit)

Allocating common symbols
Common symbol       size              file

nrf_nvic_state      0x8               examples/dfu/CMakeFiles/dfu_nrf51422_xxAC_s130_2.0.1.dir/__/nrf_mesh_sdk.c.obj
bank_addr           0x4               examples/dfu/CMakeFiles/dfu_nrf51422_xxAC_s130_2.0.1.dir/src/main.c.obj
rom_length          0x4               examples/dfu/CMakeFiles/dfu_nrf51422_xxAC_s130_2.0.1.dir/src/main.c.obj
m_cmd_handler       0x4               examples/dfu/CMakeFiles/dfu_nrf51422_xxAC_s130_2.0.1.dir/__/__/mesh/dfu/src/nrf_mesh_dfu.c.obj
errno               0x4               c:/a/gcc_arm/6/bin/../lib/gcc/arm-none-eabi/6.3.1/../../../../arm-none-eabi/lib/thumb/v6-m\libc_nano.a(lib_a-reent.o)
m_assertion_handler
                    0x4               mesh/core/libmesh_core_nrf51422_xxAC.a(nrf_mesh.c.obj)
_SEGGER_RTT         0x78              external/rtt/librtt_nrf51422_xxAC.a(SEGGER_RTT.c.obj)

Discarded input sections

 .text          0x00000000        0x0 c:/a/gcc_arm/6/bin/../lib/gcc/arm-none-eabi/6.3.1/thumb/v6-m/crti.o
 .data          0x00000000        0x0 c:/a/gcc_arm/6/bin/../lib/gcc/arm-none-eabi/6.3.1/thumb/v6-m/crti.o
 .bss           0x00000000        0x0 c:/a/gcc_arm/6/bin/../lib/gcc/arm-none-eabi/6.3.1/thumb/v6-m/crti.o
 .data          0x00000000        0x4 c:/a/gcc_arm/6/bin/../lib/gcc/arm-none-eabi/6.3.1/thumb/v6-m/crtbegin.o
 .data          0x00000000        0x0 c:/a/gcc_arm/6/bin/../lib/gcc/arm-none-eabi/6.3.1/../../../../arm-none-eabi/lib/thumb/v6-m/crt0.o
 .bss           0x00000000        0x0 c:/a/gcc_arm/6/bin/../lib/gcc/arm-none-eabi/6.3.1/../../../../arm-none-eabi/lib/thumb/v6-m/crt0.o
 .ARM.extab     0x00000000        0x0 c:/a/gcc_arm/6/bin/../lib/gcc/arm-none-eabi/6.3.1/../../../../arm-none-eabi/lib/thumb/v6-m/crt0.o
 .text          0x00000000        0x0 examples/dfu/CMakeFiles/dfu_nrf51422_xxAC_s130_2.0.1.dir/src/main.c.obj
 .data          0x00000000        0x0 examples/dfu/CMakeFiles/dfu_nrf51422_xxAC_s130_2.0.1.dir/src/main.c.obj
 .bss           0x00000000        0x0 examples/dfu/CMakeFiles/dfu_nrf51422_xxAC_s130_2.0.1.dir/src/main.c.obj
 .text          0x00000000        0x0 examples/dfu/CMakeFiles/dfu_nrf51422_xxAC_s130_2.0.1.dir/__/nrf_mesh_sdk.c.obj
 .data          0x00000000        0x0 examples/dfu/CMakeFiles/dfu_nrf51422_xxAC_s130_2.0.1.dir/__/nrf_mesh_sdk.c.obj
 .bss           0x00000000        0x0 examples/dfu/CMakeFiles/dfu_nrf51422_xxAC_s130_2.0.1.dir/__/nrf_mesh_sdk.c.obj
 .text          0x00000000        0x0 examples/dfu/CMakeFiles/dfu_nrf51422_xxAC_s130_2.0.1.dir/__/__/mesh/access/src/access_publish.c.obj
 .data          0x00000000        0x0 examples/dfu/CMakeFiles/dfu_nrf51422_xxAC_s130_2.0.1.dir/__/__/mesh/access/src/access_publish.c.obj
 .bss           0x00000000        0x0 examples/dfu/CMakeFiles/dfu_nrf51422_xxAC_s130_2.0.1.dir/__/__/mesh/access/src/access_publish.c.obj
 .text.publish_timer_tick
                0x00000000       0xac examples/dfu/CMakeFiles/dfu_nrf51422_xxAC_s130_2.0.1.dir/__/__/mesh/access/src/access_publish.c.obj
 .text.access_publish_init
                0x00000000       0x38 examples/dfu/CMakeFiles/dfu_nrf51422_xxAC_s130_2.0.1.dir/__/__/mesh/access/src/access_publish.c.obj
 .text          0x00000000        0x0 examples/dfu/CMakeFiles/dfu_nrf51422_xxAC_s130_2.0.1.dir/__/__/mesh/access/src/access.c.obj
 .data          0x00000000        0x0 examples/dfu/CMakeFiles/dfu_nrf51422_xxAC_s130_2.0.1.dir/__/__/mesh/access/src/access.c.obj
 .bss           0x00000000        0x0 examples/dfu/CMakeFiles/dfu_nrf51422_xxAC_s130_2.0.1.dir/__/__/mesh/access/src/access.c.obj
 .text.is_valid_opcode
                0x00000000       0x4c examples/dfu/CMakeFiles/dfu_nrf51422_xxAC_s130_2.0.1.dir/__/__/mesh/access/src/access.c.obj
 .text.flash_invalidate_complete
                0x00000000       0x18 examples/dfu/CMakeFiles/dfu_nrf51422_xxAC_s130_2.0.1.dir/__/__/mesh/access/src/access.c.obj
 .text.restore_acquired_subscription
                0x00000000       0x2c examples/dfu/CMakeFiles/dfu_nrf51422_xxAC_s130_2.0.1.dir/__/__/mesh/access/src/access.c.obj
 .text.restore_acquired_element
                0x00000000       0x1c examples/dfu/CMakeFiles/dfu_nrf51422_xxAC_s130_2.0.1.dir/__/__/mesh/access/src/access.c.obj
 .text.restore_flash_data
                0x00000000       0x5c examples/dfu/CMakeFiles/dfu_nrf51422_xxAC_s130_2.0.1.dir/__/__/mesh/access/src/access.c.obj
 .text.add_flash_manager
                0x00000000       0x5c examples/dfu/CMakeFiles/dfu_nrf51422_xxAC_s130_2.0.1.dir/__/__/mesh/access/src/access.c.obj
 .text.flash_remove_complete
                0x00000000       0x60 examples/dfu/CMakeFiles/dfu_nrf51422_xxAC_s130_2.0.1.dir/__/__/mesh/access/src/access.c.obj
 .text.flash_write_complete
                0x00000000       0x54 examples/dfu/CMakeFiles/dfu_nrf51422_xxAC_s130_2.0.1.dir/__/__/mesh/access/src/access.c.obj
 .text.unlikely.bitfield_next_get.part.0.constprop.3
                0x00000000       0x34 examples/dfu/CMakeFiles/dfu_nrf51422_xxAC_s130_2.0.1.dir/__/__/mesh/access/src/access.c.obj
 .text.restore_acquired_model
                0x00000000       0x88 examples/dfu/CMakeFiles/dfu_nrf51422_xxAC_s130_2.0.1.dir/__/__/mesh/access/src/access.c.obj
 .text.handle_incoming
                0x00000000      0x168 examples/dfu/CMakeFiles/dfu_nrf51422_xxAC_s130_2.0.1.dir/__/__/mesh/access/src/access.c.obj
 .text.mesh_evt_cb
                0x00000000      0x130 examples/dfu/CMakeFiles/dfu_nrf51422_xxAC_s130_2.0.1.dir/__/__/mesh/access/src/access.c.obj
 .text.packet_tx
                0x00000000      0x2f8 examples/dfu/CMakeFiles/dfu_nrf51422_xxAC_s130_2.0.1.dir/__/__/mesh/access/src/access.c.obj
 .text.access_flash_config_load
                0x00000000      0x128 examples/dfu/CMakeFiles/dfu_nrf51422_xxAC_s130_2.0.1.dir/__/__/mesh/access/src/access.c.obj
 .text.access_init
                0x00000000       0x28 examples/dfu/CMakeFiles/dfu_nrf51422_xxAC_s130_2.0.1.dir/__/__/mesh/access/src/access.c.obj
 .text.access_model_add
                0x00000000      0x1ac examples/dfu/CMakeFiles/dfu_nrf51422_xxAC_s130_2.0.1.dir/__/__/mesh/access/src/access.c.obj
 .text.access_model_publish
                0x00000000       0x14 examples/dfu/CMakeFiles/dfu_nrf51422_xxAC_s130_2.0.1.dir/__/__/mesh/access/src/access.c.obj
 .text.access_model_reply
                0x00000000       0x1c examples/dfu/CMakeFiles/dfu_nrf51422_xxAC_s130_2.0.1.dir/__/__/mesh/access/src/access.c.obj
 .text.access_model_subscription_list_alloc
                0x00000000       0x54 examples/dfu/CMakeFiles/dfu_nrf51422_xxAC_s130_2.0.1.dir/__/__/mesh/access/src/access.c.obj
 .text.access_model_subscription_lists_share
                0x00000000       0x4c examples/dfu/CMakeFiles/dfu_nrf51422_xxAC_s130_2.0.1.dir/__/__/mesh/access/src/access.c.obj
 .text.access_default_ttl_set
                0x00000000       0x10 examples/dfu/CMakeFiles/dfu_nrf51422_xxAC_s130_2.0.1.dir/__/__/mesh/access/src/access.c.obj
 .text.access_default_ttl_get
                0x00000000        0xc examples/dfu/CMakeFiles/dfu_nrf51422_xxAC_s130_2.0.1.dir/__/__/mesh/access/src/access.c.obj
 .text.access_model_p_args_get
                0x00000000       0x2c examples/dfu/CMakeFiles/dfu_nrf51422_xxAC_s130_2.0.1.dir/__/__/mesh/access/src/access.c.obj
 .bss.m_evt_handler
                0x00000000        0x8 examples/dfu/CMakeFiles/dfu_nrf51422_xxAC_s130_2.0.1.dir/__/__/mesh/access/src/access.c.obj
 .data.flash_add_mem_available_struct.7843
                0x00000000       0x10 examples/dfu/CMakeFiles/dfu_nrf51422_xxAC_s130_2.0.1.dir/__/__/mesh/access/src/access.c.obj
 .data.m_default_ttl
                0x00000000        0x1 examples/dfu/CMakeFiles/dfu_nrf51422_xxAC_s130_2.0.1.dir/__/__/mesh/access/src/access.c.obj
 .rodata.mesh_evt_cb.str1.1
                0x00000000       0x2f examples/dfu/CMakeFiles/dfu_nrf51422_xxAC_s130_2.0.1.dir/__/__/mesh/access/src/access.c.obj
 .rodata.multiply_de_bruijn_bit_position.6592
                0x00000000       0x20 examples/dfu/CMakeFiles/dfu_nrf51422_xxAC_s130_2.0.1.dir/__/__/mesh/access/src/access.c.obj
 .rodata.packet_tx.str1.1
                0x00000000       0x13 examples/dfu/CMakeFiles/dfu_nrf51422_xxAC_s130_2.0.1.dir/__/__/mesh/access/src/access.c.obj
 .text          0x00000000        0x0 examples/dfu/CMakeFiles/dfu_nrf51422_xxAC_s130_2.0.1.dir/__/__/mesh/access/src/access_reliable.c.obj
 .data          0x00000000        0x0 examples/dfu/CMakeFiles/dfu_nrf51422_xxAC_s130_2.0.1.dir/__/__/mesh/access/src/access_reliable.c.obj
 .bss           0x00000000        0x0 examples/dfu/CMakeFiles/dfu_nrf51422_xxAC_s130_2.0.1.dir/__/__/mesh/access/src/access_reliable.c.obj
 .text.remove_and_reschedule
                0x00000000       0xe0 examples/dfu/CMakeFiles/dfu_nrf51422_xxAC_s130_2.0.1.dir/__/__/mesh/access/src/access_reliable.c.obj
 .text.reliable_timer_cb
                0x00000000      0x150 examples/dfu/CMakeFiles/dfu_nrf51422_xxAC_s130_2.0.1.dir/__/__/mesh/access/src/access_reliable.c.obj
 .text.access_reliable_message_rx_cb
                0x00000000       0x88 examples/dfu/CMakeFiles/dfu_nrf51422_xxAC_s130_2.0.1.dir/__/__/mesh/access/src/access_reliable.c.obj
 .text.access_reliable_init
                0x00000000       0x1c examples/dfu/CMakeFiles/dfu_nrf51422_xxAC_s130_2.0.1.dir/__/__/mesh/access/src/access_reliable.c.obj
 .text.access_model_reliable_cancel
                0x00000000       0x50 examples/dfu/CMakeFiles/dfu_nrf51422_xxAC_s130_2.0.1.dir/__/__/mesh/access/src/access_reliable.c.obj
 .text.access_model_reliable_publish
                0x00000000      0x1cc examples/dfu/CMakeFiles/dfu_nrf51422_xxAC_s130_2.0.1.dir/__/__/mesh/access/src/access_reliable.c.obj
 .text          0x00000000        0x0 examples/dfu/CMakeFiles/dfu_nrf51422_xxAC_s130_2.0.1.dir/__/__/mesh/access/src/device_state_manager.c.obj
 .data          0x00000000        0x0 examples/dfu/CMakeFiles/dfu_nrf51422_xxAC_s130_2.0.1.dir/__/__/mesh/access/src/device_state_manager.c.obj
 .bss           0x00000000        0x0 examples/dfu/CMakeFiles/dfu_nrf51422_xxAC_s130_2.0.1.dir/__/__/mesh/access/src/device_state_manager.c.obj
 .text.bitfield_is_all_clear
                0x00000000       0x3a examples/dfu/CMakeFiles/dfu_nrf51422_xxAC_s130_2.0.1.dir/__/__/mesh/access/src/device_state_manager.c.obj
 .text.flash_update_all
                0x00000000       0x70 examples/dfu/CMakeFiles/dfu_nrf51422_xxAC_s130_2.0.1.dir/__/__/mesh/access/src/device_state_manager.c.obj
 .text.flash_operation_complete
                0x00000000       0x58 examples/dfu/CMakeFiles/dfu_nrf51422_xxAC_s130_2.0.1.dir/__/__/mesh/access/src/device_state_manager.c.obj
 .text.flash_invalidate_complete
                0x00000000        0xc examples/dfu/CMakeFiles/dfu_nrf51422_xxAC_s130_2.0.1.dir/__/__/mesh/access/src/device_state_manager.c.obj
 .text.flash_write_complete
                0x00000000        0xc examples/dfu/CMakeFiles/dfu_nrf51422_xxAC_s130_2.0.1.dir/__/__/mesh/access/src/device_state_manager.c.obj
 .text.dsm_flash_config_load
                0x00000000       0xf0 examples/dfu/CMakeFiles/dfu_nrf51422_xxAC_s130_2.0.1.dir/__/__/mesh/access/src/device_state_manager.c.obj
 .text.dsm_has_unflashed_data
                0x00000000       0x28 examples/dfu/CMakeFiles/dfu_nrf51422_xxAC_s130_2.0.1.dir/__/__/mesh/access/src/device_state_manager.c.obj
 .text.dsm_flash_area_get
                0x00000000       0x10 examples/dfu/CMakeFiles/dfu_nrf51422_xxAC_s130_2.0.1.dir/__/__/mesh/access/src/device_state_manager.c.obj
 .text.build_flash_area
                0x00000000       0x90 examples/dfu/CMakeFiles/dfu_nrf51422_xxAC_s130_2.0.1.dir/__/__/mesh/access/src/device_state_manager.c.obj
 .text.dsm_init
                0x00000000       0x28 examples/dfu/CMakeFiles/dfu_nrf51422_xxAC_s130_2.0.1.dir/__/__/mesh/access/src/device_state_manager.c.obj
 .text.flash_remove_complete
                0x00000000        0x8 examples/dfu/CMakeFiles/dfu_nrf51422_xxAC_s130_2.0.1.dir/__/__/mesh/access/src/device_state_manager.c.obj
 .text.dsm_address_publish_add_handle
                0x00000000       0x38 examples/dfu/CMakeFiles/dfu_nrf51422_xxAC_s130_2.0.1.dir/__/__/mesh/access/src/device_state_manager.c.obj
 .text.dsm_address_subscription_add_handle
                0x00000000       0x38 examples/dfu/CMakeFiles/dfu_nrf51422_xxAC_s130_2.0.1.dir/__/__/mesh/access/src/device_state_manager.c.obj
 .text.dsm_address_subscription_count_get
                0x00000000       0x58 examples/dfu/CMakeFiles/dfu_nrf51422_xxAC_s130_2.0.1.dir/__/__/mesh/access/src/device_state_manager.c.obj
 .text.dsm_net_key_index_to_subnet_handle
                0x00000000       0x1c examples/dfu/CMakeFiles/dfu_nrf51422_xxAC_s130_2.0.1.dir/__/__/mesh/access/src/device_state_manager.c.obj
 .text.dsm_subnet_handle_to_netkey_index
                0x00000000       0x38 examples/dfu/CMakeFiles/dfu_nrf51422_xxAC_s130_2.0.1.dir/__/__/mesh/access/src/device_state_manager.c.obj
 .text.dsm_app_key_index_to_appkey_handle
                0x00000000       0x1c examples/dfu/CMakeFiles/dfu_nrf51422_xxAC_s130_2.0.1.dir/__/__/mesh/access/src/device_state_manager.c.obj
 .text.dsm_appkey_handle_to_appkey_index
                0x00000000       0x38 examples/dfu/CMakeFiles/dfu_nrf51422_xxAC_s130_2.0.1.dir/__/__/mesh/access/src/device_state_manager.c.obj
 .text.dsm_devkey_handle_get
                0x00000000       0x30 examples/dfu/CMakeFiles/dfu_nrf51422_xxAC_s130_2.0.1.dir/__/__/mesh/access/src/device_state_manager.c.obj
 .text.dsm_beacon_secmat_get
                0x00000000       0x38 examples/dfu/CMakeFiles/dfu_nrf51422_xxAC_s130_2.0.1.dir/__/__/mesh/access/src/device_state_manager.c.obj
 .text.dsm_proxy_identity_get
                0x00000000        0x4 examples/dfu/CMakeFiles/dfu_nrf51422_xxAC_s130_2.0.1.dir/__/__/mesh/access/src/device_state_manager.c.obj
 .data.mem_listener.8121
                0x00000000       0x10 examples/dfu/CMakeFiles/dfu_nrf51422_xxAC_s130_2.0.1.dir/__/__/mesh/access/src/device_state_manager.c.obj
 .text          0x00000000        0x0 examples/dfu/CMakeFiles/dfu_nrf51422_xxAC_s130_2.0.1.dir/__/__/mesh/serial/src/serial_uart.c.obj
 .data          0x00000000        0x0 examples/dfu/CMakeFiles/dfu_nrf51422_xxAC_s130_2.0.1.dir/__/__/mesh/serial/src/serial_uart.c.obj
 .bss           0x00000000        0x0 examples/dfu/CMakeFiles/dfu_nrf51422_xxAC_s130_2.0.1.dir/__/__/mesh/serial/src/serial_uart.c.obj
 .text          0x00000000        0x0 examples/dfu/CMakeFiles/dfu_nrf51422_xxAC_s130_2.0.1.dir/__/__/mesh/serial/src/serial_bearer.c.obj
 .data          0x00000000        0x0 examples/dfu/CMakeFiles/dfu_nrf51422_xxAC_s130_2.0.1.dir/__/__/mesh/serial/src/serial_bearer.c.obj
 .bss           0x00000000        0x0 examples/dfu/CMakeFiles/dfu_nrf51422_xxAC_s130_2.0.1.dir/__/__/mesh/serial/src/serial_bearer.c.obj
 .text.serial_bearer_rx_pending
                0x00000000       0x10 examples/dfu/CMakeFiles/dfu_nrf51422_xxAC_s130_2.0.1.dir/__/__/mesh/serial/src/serial_bearer.c.obj
 .text          0x00000000        0x0 examples/dfu/CMakeFiles/dfu_nrf51422_xxAC_s130_2.0.1.dir/__/__/mesh/serial/src/serial_handler_common.c.obj
 .data          0x00000000        0x0 examples/dfu/CMakeFiles/dfu_nrf51422_xxAC_s130_2.0.1.dir/__/__/mesh/serial/src/serial_handler_common.c.obj
 .bss           0x00000000        0x0 examples/dfu/CMakeFiles/dfu_nrf51422_xxAC_s130_2.0.1.dir/__/__/mesh/serial/src/serial_handler_common.c.obj
 .text          0x00000000        0x0 examples/dfu/CMakeFiles/dfu_nrf51422_xxAC_s130_2.0.1.dir/__/__/mesh/serial/src/serial_handler_access.c.obj
 .data          0x00000000        0x0 examples/dfu/CMakeFiles/dfu_nrf51422_xxAC_s130_2.0.1.dir/__/__/mesh/serial/src/serial_handler_access.c.obj
 .bss           0x00000000        0x0 examples/dfu/CMakeFiles/dfu_nrf51422_xxAC_s130_2.0.1.dir/__/__/mesh/serial/src/serial_handler_access.c.obj
 .text          0x00000000        0x0 examples/dfu/CMakeFiles/dfu_nrf51422_xxAC_s130_2.0.1.dir/__/__/mesh/serial/src/serial_handler_config.c.obj
 .data          0x00000000        0x0 examples/dfu/CMakeFiles/dfu_nrf51422_xxAC_s130_2.0.1.dir/__/__/mesh/serial/src/serial_handler_config.c.obj
 .bss           0x00000000        0x0 examples/dfu/CMakeFiles/dfu_nrf51422_xxAC_s130_2.0.1.dir/__/__/mesh/serial/src/serial_handler_config.c.obj
 .text          0x00000000        0x0 examples/dfu/CMakeFiles/dfu_nrf51422_xxAC_s130_2.0.1.dir/__/__/mesh/serial/src/serial_handler_openmesh.c.obj
 .data          0x00000000        0x0 examples/dfu/CMakeFiles/dfu_nrf51422_xxAC_s130_2.0.1.dir/__/__/mesh/serial/src/serial_handler_openmesh.c.obj
 .bss           0x00000000        0x0 examples/dfu/CMakeFiles/dfu_nrf51422_xxAC_s130_2.0.1.dir/__/__/mesh/serial/src/serial_handler_openmesh.c.obj
 .text          0x00000000        0x0 examples/dfu/CMakeFiles/dfu_nrf51422_xxAC_s130_2.0.1.dir/__/__/mesh/serial/src/serial.c.obj
 .data          0x00000000        0x0 examples/dfu/CMakeFiles/dfu_nrf51422_xxAC_s130_2.0.1.dir/__/__/mesh/serial/src/serial.c.obj
 .bss           0x00000000        0x0 examples/dfu/CMakeFiles/dfu_nrf51422_xxAC_s130_2.0.1.dir/__/__/mesh/serial/src/serial.c.obj
 .text          0x00000000        0x0 examples/dfu/CMakeFiles/dfu_nrf51422_xxAC_s130_2.0.1.dir/__/__/mesh/serial/src/serial_handler_prov.c.obj
 .data          0x00000000        0x0 examples/dfu/CMakeFiles/dfu_nrf51422_xxAC_s130_2.0.1.dir/__/__/mesh/serial/src/serial_handler_prov.c.obj
 .bss           0x00000000        0x0 examples/dfu/CMakeFiles/dfu_nrf51422_xxAC_s130_2.0.1.dir/__/__/mesh/serial/src/serial_handler_prov.c.obj
 .text.serial_handler_prov_context_get
                0x00000000       0x1c examples/dfu/CMakeFiles/dfu_nrf51422_xxAC_s130_2.0.1.dir/__/__/mesh/serial/src/serial_handler_prov.c.obj
 .text.serial_handler_prov_keys_get
                0x00000000       0x14 examples/dfu/CMakeFiles/dfu_nrf51422_xxAC_s130_2.0.1.dir/__/__/mesh/serial/src/serial_handler_prov.c.obj
 .text.serial_handler_prov_oob_caps_get
                0x00000000        0xc examples/dfu/CMakeFiles/dfu_nrf51422_xxAC_s130_2.0.1.dir/__/__/mesh/serial/src/serial_handler_prov.c.obj
 .text          0x00000000        0x0 examples/dfu/CMakeFiles/dfu_nrf51422_xxAC_s130_2.0.1.dir/__/__/mesh/serial/src/serial_handler_dfu.c.obj
 .data          0x00000000        0x0 examples/dfu/CMakeFiles/dfu_nrf51422_xxAC_s130_2.0.1.dir/__/__/mesh/serial/src/serial_handler_dfu.c.obj
 .bss           0x00000000        0x0 examples/dfu/CMakeFiles/dfu_nrf51422_xxAC_s130_2.0.1.dir/__/__/mesh/serial/src/serial_handler_dfu.c.obj
 .text          0x00000000        0x0 examples/dfu/CMakeFiles/dfu_nrf51422_xxAC_s130_2.0.1.dir/__/__/mesh/serial/src/serial_handler_mesh.c.obj
 .data          0x00000000        0x0 examples/dfu/CMakeFiles/dfu_nrf51422_xxAC_s130_2.0.1.dir/__/__/mesh/serial/src/serial_handler_mesh.c.obj
 .bss           0x00000000        0x0 examples/dfu/CMakeFiles/dfu_nrf51422_xxAC_s130_2.0.1.dir/__/__/mesh/serial/src/serial_handler_mesh.c.obj
 .text          0x00000000        0x0 examples/dfu/CMakeFiles/dfu_nrf51422_xxAC_s130_2.0.1.dir/__/__/mesh/serial/src/serial_handler_models.c.obj
 .data          0x00000000        0x0 examples/dfu/CMakeFiles/dfu_nrf51422_xxAC_s130_2.0.1.dir/__/__/mesh/serial/src/serial_handler_models.c.obj
 .bss           0x00000000        0x0 examples/dfu/CMakeFiles/dfu_nrf51422_xxAC_s130_2.0.1.dir/__/__/mesh/serial/src/serial_handler_models.c.obj
 .text.serial_handler_models_register
                0x00000000       0x3c examples/dfu/CMakeFiles/dfu_nrf51422_xxAC_s130_2.0.1.dir/__/__/mesh/serial/src/serial_handler_models.c.obj
 .text          0x00000000        0x0 examples/dfu/CMakeFiles/dfu_nrf51422_xxAC_s130_2.0.1.dir/__/__/mesh/serial/src/serial_handler_device.c.obj
 .data          0x00000000        0x0 examples/dfu/CMakeFiles/dfu_nrf51422_xxAC_s130_2.0.1.dir/__/__/mesh/serial/src/serial_handler_device.c.obj
 .bss           0x00000000        0x0 examples/dfu/CMakeFiles/dfu_nrf51422_xxAC_s130_2.0.1.dir/__/__/mesh/serial/src/serial_handler_device.c.obj
 .text          0x00000000        0x0 examples/dfu/CMakeFiles/dfu_nrf51422_xxAC_s130_2.0.1.dir/__/__/mesh/serial/src/nrf_mesh_serial.c.obj
 .data          0x00000000        0x0 examples/dfu/CMakeFiles/dfu_nrf51422_xxAC_s130_2.0.1.dir/__/__/mesh/serial/src/nrf_mesh_serial.c.obj
 .bss           0x00000000        0x0 examples/dfu/CMakeFiles/dfu_nrf51422_xxAC_s130_2.0.1.dir/__/__/mesh/serial/src/nrf_mesh_serial.c.obj
 .text.nrf_mesh_serial_state_get
                0x00000000        0x8 examples/dfu/CMakeFiles/dfu_nrf51422_xxAC_s130_2.0.1.dir/__/__/mesh/serial/src/nrf_mesh_serial.c.obj
 .text.nrf_mesh_serial_tx
                0x00000000       0x60 examples/dfu/CMakeFiles/dfu_nrf51422_xxAC_s130_2.0.1.dir/__/__/mesh/serial/src/nrf_mesh_serial.c.obj
 .text          0x00000000        0x0 examples/dfu/CMakeFiles/dfu_nrf51422_xxAC_s130_2.0.1.dir/__/__/mesh/serial/src/serial_handler_app.c.obj
 .data          0x00000000        0x0 examples/dfu/CMakeFiles/dfu_nrf51422_xxAC_s130_2.0.1.dir/__/__/mesh/serial/src/serial_handler_app.c.obj
 .bss           0x00000000        0x0 examples/dfu/CMakeFiles/dfu_nrf51422_xxAC_s130_2.0.1.dir/__/__/mesh/serial/src/serial_handler_app.c.obj
 .text          0x00000000        0x0 examples/dfu/CMakeFiles/dfu_nrf51422_xxAC_s130_2.0.1.dir/__/__/mesh/prov/src/prov_provisioner.c.obj
 .data          0x00000000        0x0 examples/dfu/CMakeFiles/dfu_nrf51422_xxAC_s130_2.0.1.dir/__/__/mesh/prov/src/prov_provisioner.c.obj
 .bss           0x00000000        0x0 examples/dfu/CMakeFiles/dfu_nrf51422_xxAC_s130_2.0.1.dir/__/__/mesh/prov/src/prov_provisioner.c.obj
 .text.prov_provisioner_oob_pubkey
                0x00000000       0x3c examples/dfu/CMakeFiles/dfu_nrf51422_xxAC_s130_2.0.1.dir/__/__/mesh/prov/src/prov_provisioner.c.obj
 .text          0x00000000        0x0 examples/dfu/CMakeFiles/dfu_nrf51422_xxAC_s130_2.0.1.dir/__/__/mesh/prov/src/prov_provisionee.c.obj
 .data          0x00000000        0x0 examples/dfu/CMakeFiles/dfu_nrf51422_xxAC_s130_2.0.1.dir/__/__/mesh/prov/src/prov_provisionee.c.obj
 .bss           0x00000000        0x0 examples/dfu/CMakeFiles/dfu_nrf51422_xxAC_s130_2.0.1.dir/__/__/mesh/prov/src/prov_provisionee.c.obj
 .text          0x00000000        0x0 examples/dfu/CMakeFiles/dfu_nrf51422_xxAC_s130_2.0.1.dir/__/__/mesh/prov/src/nrf_mesh_prov.c.obj
 .data          0x00000000        0x0 examples/dfu/CMakeFiles/dfu_nrf51422_xxAC_s130_2.0.1.dir/__/__/mesh/prov/src/nrf_mesh_prov.c.obj
 .bss           0x00000000        0x0 examples/dfu/CMakeFiles/dfu_nrf51422_xxAC_s130_2.0.1.dir/__/__/mesh/prov/src/nrf_mesh_prov.c.obj
 .text.nrf_mesh_prov_pubkey_provide
                0x00000000       0x1c examples/dfu/CMakeFiles/dfu_nrf51422_xxAC_s130_2.0.1.dir/__/__/mesh/prov/src/nrf_mesh_prov.c.obj
 .text          0x00000000        0x0 examples/dfu/CMakeFiles/dfu_nrf51422_xxAC_s130_2.0.1.dir/__/__/mesh/prov/src/provisioning.c.obj
 .data          0x00000000        0x0 examples/dfu/CMakeFiles/dfu_nrf51422_xxAC_s130_2.0.1.dir/__/__/mesh/prov/src/provisioning.c.obj
 .bss           0x00000000        0x0 examples/dfu/CMakeFiles/dfu_nrf51422_xxAC_s130_2.0.1.dir/__/__/mesh/prov/src/provisioning.c.obj
 .text.prov_listen_stop
                0x00000000        0xe examples/dfu/CMakeFiles/dfu_nrf51422_xxAC_s130_2.0.1.dir/__/__/mesh/prov/src/provisioning.c.obj
 .text.prov_tx  0x00000000        0x8 examples/dfu/CMakeFiles/dfu_nrf51422_xxAC_s130_2.0.1.dir/__/__/mesh/prov/src/provisioning.c.obj
 .text          0x00000000        0x0 examples/dfu/CMakeFiles/dfu_nrf51422_xxAC_s130_2.0.1.dir/__/__/mesh/prov/src/prov_beacon.c.obj
 .data          0x00000000        0x0 examples/dfu/CMakeFiles/dfu_nrf51422_xxAC_s130_2.0.1.dir/__/__/mesh/prov/src/prov_beacon.c.obj
 .bss           0x00000000        0x0 examples/dfu/CMakeFiles/dfu_nrf51422_xxAC_s130_2.0.1.dir/__/__/mesh/prov/src/prov_beacon.c.obj
 .text.prov_beacon_unprov_report
                0x00000000        0xc examples/dfu/CMakeFiles/dfu_nrf51422_xxAC_s130_2.0.1.dir/__/__/mesh/prov/src/prov_beacon.c.obj
 .text          0x00000000        0x0 examples/dfu/CMakeFiles/dfu_nrf51422_xxAC_s130_2.0.1.dir/__/__/mesh/prov/src/prov_utils.c.obj
 .data          0x00000000        0x0 examples/dfu/CMakeFiles/dfu_nrf51422_xxAC_s130_2.0.1.dir/__/__/mesh/prov/src/prov_utils.c.obj
 .bss           0x00000000        0x0 examples/dfu/CMakeFiles/dfu_nrf51422_xxAC_s130_2.0.1.dir/__/__/mesh/prov/src/prov_utils.c.obj
 .text.prov_utils_opt_set
                0x00000000       0x20 examples/dfu/CMakeFiles/dfu_nrf51422_xxAC_s130_2.0.1.dir/__/__/mesh/prov/src/prov_utils.c.obj
 .text.prov_utils_opt_get
                0x00000000       0x1c examples/dfu/CMakeFiles/dfu_nrf51422_xxAC_s130_2.0.1.dir/__/__/mesh/prov/src/prov_utils.c.obj
 .text          0x00000000        0x0 examples/dfu/CMakeFiles/dfu_nrf51422_xxAC_s130_2.0.1.dir/__/__/mesh/prov/src/prov_bearer_adv.c.obj
 .data          0x00000000        0x0 examples/dfu/CMakeFiles/dfu_nrf51422_xxAC_s130_2.0.1.dir/__/__/mesh/prov/src/prov_bearer_adv.c.obj
 .bss           0x00000000        0x0 examples/dfu/CMakeFiles/dfu_nrf51422_xxAC_s130_2.0.1.dir/__/__/mesh/prov/src/prov_bearer_adv.c.obj
 .text          0x00000000        0x0 examples/dfu/CMakeFiles/dfu_nrf51422_xxAC_s130_2.0.1.dir/__/__/mesh/dfu/src/nrf_mesh_dfu.c.obj
 .data          0x00000000        0x0 examples/dfu/CMakeFiles/dfu_nrf51422_xxAC_s130_2.0.1.dir/__/__/mesh/dfu/src/nrf_mesh_dfu.c.obj
 .bss           0x00000000        0x0 examples/dfu/CMakeFiles/dfu_nrf51422_xxAC_s130_2.0.1.dir/__/__/mesh/dfu/src/nrf_mesh_dfu.c.obj
 .text          0x00000000        0x0 examples/dfu/CMakeFiles/dfu_nrf51422_xxAC_s130_2.0.1.dir/__/nrf_mesh_weak.c.obj
 .data          0x00000000        0x0 examples/dfu/CMakeFiles/dfu_nrf51422_xxAC_s130_2.0.1.dir/__/nrf_mesh_weak.c.obj
 .bss           0x00000000        0x0 examples/dfu/CMakeFiles/dfu_nrf51422_xxAC_s130_2.0.1.dir/__/nrf_mesh_weak.c.obj
 .text._weak_handler
                0x00000000        0x4 examples/dfu/CMakeFiles/dfu_nrf51422_xxAC_s130_2.0.1.dir/__/nrf_mesh_weak.c.obj
 .text._weak_handler_ptr
                0x00000000        0x4 examples/dfu/CMakeFiles/dfu_nrf51422_xxAC_s130_2.0.1.dir/__/nrf_mesh_weak.c.obj
 .comment       0x00000000       0x80 examples/dfu/CMakeFiles/dfu_nrf51422_xxAC_s130_2.0.1.dir/__/nrf_mesh_weak.c.obj
 .ARM.attributes
                0x00000000       0x31 examples/dfu/CMakeFiles/dfu_nrf51422_xxAC_s130_2.0.1.dir/__/nrf_mesh_weak.c.obj
 .text          0x00000000        0x0 examples/dfu/CMakeFiles/dfu_nrf51422_xxAC_s130_2.0.1.dir/__/__/external/nRF5_SDK_14.0.0_3bcc1f7/components/toolchain/system_nrf51.c.obj
 .data          0x00000000        0x0 examples/dfu/CMakeFiles/dfu_nrf51422_xxAC_s130_2.0.1.dir/__/__/external/nRF5_SDK_14.0.0_3bcc1f7/components/toolchain/system_nrf51.c.obj
 .bss           0x00000000        0x0 examples/dfu/CMakeFiles/dfu_nrf51422_xxAC_s130_2.0.1.dir/__/__/external/nRF5_SDK_14.0.0_3bcc1f7/components/toolchain/system_nrf51.c.obj
 .text.SystemCoreClockUpdate
                0x00000000       0x10 examples/dfu/CMakeFiles/dfu_nrf51422_xxAC_s130_2.0.1.dir/__/__/external/nRF5_SDK_14.0.0_3bcc1f7/components/toolchain/system_nrf51.c.obj
 .data.SystemCoreClock
                0x00000000        0x4 examples/dfu/CMakeFiles/dfu_nrf51422_xxAC_s130_2.0.1.dir/__/__/external/nRF5_SDK_14.0.0_3bcc1f7/components/toolchain/system_nrf51.c.obj
 .data          0x00000000        0x0 examples/dfu/CMakeFiles/dfu_nrf51422_xxAC_s130_2.0.1.dir/__/__/external/nRF5_SDK_14.0.0_3bcc1f7/components/toolchain/gcc/gcc_startup_nrf51.S.obj
 .bss           0x00000000        0x0 examples/dfu/CMakeFiles/dfu_nrf51422_xxAC_s130_2.0.1.dir/__/__/external/nRF5_SDK_14.0.0_3bcc1f7/components/toolchain/gcc/gcc_startup_nrf51.S.obj
 .text          0x00000000        0x0 mesh/core/libmesh_core_nrf51422_xxAC.a(internal_event.c.obj)
 .data          0x00000000        0x0 mesh/core/libmesh_core_nrf51422_xxAC.a(internal_event.c.obj)
 .bss           0x00000000        0x0 mesh/core/libmesh_core_nrf51422_xxAC.a(internal_event.c.obj)
 .text.internal_event_pop
                0x00000000       0x20 mesh/core/libmesh_core_nrf51422_xxAC.a(internal_event.c.obj)
 .text          0x00000000        0x0 mesh/core/libmesh_core_nrf51422_xxAC.a(nrf_mesh_configure.c.obj)
 .data          0x00000000        0x0 mesh/core/libmesh_core_nrf51422_xxAC.a(nrf_mesh_configure.c.obj)
 .bss           0x00000000        0x0 mesh/core/libmesh_core_nrf51422_xxAC.a(nrf_mesh_configure.c.obj)
 .text          0x00000000        0x0 mesh/core/libmesh_core_nrf51422_xxAC.a(event.c.obj)
 .data          0x00000000        0x0 mesh/core/libmesh_core_nrf51422_xxAC.a(event.c.obj)
 .bss           0x00000000        0x0 mesh/core/libmesh_core_nrf51422_xxAC.a(event.c.obj)
 .text.event_handler_remove
                0x00000000       0x58 mesh/core/libmesh_core_nrf51422_xxAC.a(event.c.obj)
 .text          0x00000000        0x0 mesh/core/libmesh_core_nrf51422_xxAC.a(packet_buffer.c.obj)
 .data          0x00000000        0x0 mesh/core/libmesh_core_nrf51422_xxAC.a(packet_buffer.c.obj)
 .bss           0x00000000        0x0 mesh/core/libmesh_core_nrf51422_xxAC.a(packet_buffer.c.obj)
 .text          0x00000000        0x0 mesh/core/libmesh_core_nrf51422_xxAC.a(fifo.c.obj)
 .data          0x00000000        0x0 mesh/core/libmesh_core_nrf51422_xxAC.a(fifo.c.obj)
 .bss           0x00000000        0x0 mesh/core/libmesh_core_nrf51422_xxAC.a(fifo.c.obj)
 .text.fifo_peek_at
                0x00000000       0x5a mesh/core/libmesh_core_nrf51422_xxAC.a(fifo.c.obj)
 .text.fifo_peek
                0x00000000        0xa mesh/core/libmesh_core_nrf51422_xxAC.a(fifo.c.obj)
 .text.fifo_flush
                0x00000000        0x6 mesh/core/libmesh_core_nrf51422_xxAC.a(fifo.c.obj)
 .text.fifo_get_len
                0x00000000        0x8 mesh/core/libmesh_core_nrf51422_xxAC.a(fifo.c.obj)
 .text.fifo_is_full
                0x00000000       0x12 mesh/core/libmesh_core_nrf51422_xxAC.a(fifo.c.obj)
 .text.fifo_is_empty
                0x00000000        0xe mesh/core/libmesh_core_nrf51422_xxAC.a(fifo.c.obj)
 .text          0x00000000        0x0 mesh/core/libmesh_core_nrf51422_xxAC.a(net_state.c.obj)
 .data          0x00000000        0x0 mesh/core/libmesh_core_nrf51422_xxAC.a(net_state.c.obj)
 .bss           0x00000000        0x0 mesh/core/libmesh_core_nrf51422_xxAC.a(net_state.c.obj)
 .text.net_state_iv_update_test_mode_set
                0x00000000        0xc mesh/core/libmesh_core_nrf51422_xxAC.a(net_state.c.obj)
 .text          0x00000000        0x0 mesh/core/libmesh_core_nrf51422_xxAC.a(mesh_flash.c.obj)
 .data          0x00000000        0x0 mesh/core/libmesh_core_nrf51422_xxAC.a(mesh_flash.c.obj)
 .bss           0x00000000        0x0 mesh/core/libmesh_core_nrf51422_xxAC.a(mesh_flash.c.obj)
 .text.mesh_flash_op_available_slots
                0x00000000       0x2c mesh/core/libmesh_core_nrf51422_xxAC.a(mesh_flash.c.obj)
 .text          0x00000000        0x0 mesh/core/libmesh_core_nrf51422_xxAC.a(nrf_mesh_utils.c.obj)
 .data          0x00000000        0x0 mesh/core/libmesh_core_nrf51422_xxAC.a(nrf_mesh_utils.c.obj)
 .bss           0x00000000        0x0 mesh/core/libmesh_core_nrf51422_xxAC.a(nrf_mesh_utils.c.obj)
 .text.nrf_mesh_rand_get
                0x00000000       0x14 mesh/core/libmesh_core_nrf51422_xxAC.a(nrf_mesh_utils.c.obj)
 .text.nrf_mesh_gap_address_type_get
                0x00000000       0x40 mesh/core/libmesh_core_nrf51422_xxAC.a(nrf_mesh_utils.c.obj)
 .text          0x00000000        0x0 mesh/core/libmesh_core_nrf51422_xxAC.a(nrf_mesh.c.obj)
 .data          0x00000000        0x0 mesh/core/libmesh_core_nrf51422_xxAC.a(nrf_mesh.c.obj)
 .bss           0x00000000        0x0 mesh/core/libmesh_core_nrf51422_xxAC.a(nrf_mesh.c.obj)
 .text.nrf_mesh_evt_handler_remove
                0x00000000        0x8 mesh/core/libmesh_core_nrf51422_xxAC.a(nrf_mesh.c.obj)
 .text.nrf_mesh_rx_cb_set
                0x00000000        0xc mesh/core/libmesh_core_nrf51422_xxAC.a(nrf_mesh.c.obj)
 .text.nrf_mesh_rx_cb_clear
                0x00000000        0xc mesh/core/libmesh_core_nrf51422_xxAC.a(nrf_mesh.c.obj)
 .text          0x00000000        0x0 mesh/core/libmesh_core_nrf51422_xxAC.a(hal.c.obj)
 .data          0x00000000        0x0 mesh/core/libmesh_core_nrf51422_xxAC.a(hal.c.obj)
 .bss           0x00000000        0x0 mesh/core/libmesh_core_nrf51422_xxAC.a(hal.c.obj)
 .text          0x00000000        0x0 mesh/core/libmesh_core_nrf51422_xxAC.a(timer_scheduler.c.obj)
 .data          0x00000000        0x0 mesh/core/libmesh_core_nrf51422_xxAC.a(timer_scheduler.c.obj)
 .bss           0x00000000        0x0 mesh/core/libmesh_core_nrf51422_xxAC.a(timer_scheduler.c.obj)
 .text          0x00000000        0x0 mesh/core/libmesh_core_nrf51422_xxAC.a(timer.c.obj)
 .data          0x00000000        0x0 mesh/core/libmesh_core_nrf51422_xxAC.a(timer.c.obj)
 .bss           0x00000000        0x0 mesh/core/libmesh_core_nrf51422_xxAC.a(timer.c.obj)
 .text.timer_order_cb_ppi
                0x00000000       0xc4 mesh/core/libmesh_core_nrf51422_xxAC.a(timer.c.obj)
 .text.timer_order_ppi
                0x00000000       0x80 mesh/core/libmesh_core_nrf51422_xxAC.a(timer.c.obj)
 .text.timer_abort
                0x00000000       0x7c mesh/core/libmesh_core_nrf51422_xxAC.a(timer.c.obj)
 .text          0x00000000        0x0 mesh/core/libmesh_core_nrf51422_xxAC.a(ticker.c.obj)
 .data          0x00000000        0x0 mesh/core/libmesh_core_nrf51422_xxAC.a(ticker.c.obj)
 .bss           0x00000000        0x0 mesh/core/libmesh_core_nrf51422_xxAC.a(ticker.c.obj)
 .text.ticker_get
                0x00000000        0xc mesh/core/libmesh_core_nrf51422_xxAC.a(ticker.c.obj)
 .text          0x00000000        0x0 mesh/core/libmesh_core_nrf51422_xxAC.a(rand.c.obj)
 .data          0x00000000        0x0 mesh/core/libmesh_core_nrf51422_xxAC.a(rand.c.obj)
 .bss           0x00000000        0x0 mesh/core/libmesh_core_nrf51422_xxAC.a(rand.c.obj)
 .text          0x00000000        0x0 mesh/core/libmesh_core_nrf51422_xxAC.a(timeslot.c.obj)
 .data          0x00000000        0x0 mesh/core/libmesh_core_nrf51422_xxAC.a(timeslot.c.obj)
 .bss           0x00000000        0x0 mesh/core/libmesh_core_nrf51422_xxAC.a(timeslot.c.obj)
 .text.timeslot_end_time_get
                0x00000000       0x18 mesh/core/libmesh_core_nrf51422_xxAC.a(timeslot.c.obj)
 .text.timeslot_is_in_ts
                0x00000000        0xc mesh/core/libmesh_core_nrf51422_xxAC.a(timeslot.c.obj)
 .text.timeslot_restart
                0x00000000       0x14 mesh/core/libmesh_core_nrf51422_xxAC.a(timeslot.c.obj)
 .text          0x00000000        0x0 mesh/core/libmesh_core_nrf51422_xxAC.a(bearer_event.c.obj)
 .data          0x00000000        0x0 mesh/core/libmesh_core_nrf51422_xxAC.a(bearer_event.c.obj)
 .bss           0x00000000        0x0 mesh/core/libmesh_core_nrf51422_xxAC.a(bearer_event.c.obj)
 .text.bearer_event_timer_sch_post
                0x00000000       0x38 mesh/core/libmesh_core_nrf51422_xxAC.a(bearer_event.c.obj)
 .text          0x00000000        0x0 mesh/core/libmesh_core_nrf51422_xxAC.a(enc.c.obj)
 .data          0x00000000        0x0 mesh/core/libmesh_core_nrf51422_xxAC.a(enc.c.obj)
 .bss           0x00000000        0x0 mesh/core/libmesh_core_nrf51422_xxAC.a(enc.c.obj)
 .text.enc_key_generate
                0x00000000        0xa mesh/core/libmesh_core_nrf51422_xxAC.a(enc.c.obj)
 .text          0x00000000        0x0 mesh/core/libmesh_core_nrf51422_xxAC.a(network.c.obj)
 .data          0x00000000        0x0 mesh/core/libmesh_core_nrf51422_xxAC.a(network.c.obj)
 .bss           0x00000000        0x0 mesh/core/libmesh_core_nrf51422_xxAC.a(network.c.obj)
 .text.network_opt_set
                0x00000000       0x50 mesh/core/libmesh_core_nrf51422_xxAC.a(network.c.obj)
 .text.network_opt_get
                0x00000000       0x48 mesh/core/libmesh_core_nrf51422_xxAC.a(network.c.obj)
 .text.network_packet_discard
                0x00000000       0x40 mesh/core/libmesh_core_nrf51422_xxAC.a(network.c.obj)
 .text          0x00000000        0x0 mesh/core/libmesh_core_nrf51422_xxAC.a(msqueue.c.obj)
 .data          0x00000000        0x0 mesh/core/libmesh_core_nrf51422_xxAC.a(msqueue.c.obj)
 .bss           0x00000000        0x0 mesh/core/libmesh_core_nrf51422_xxAC.a(msqueue.c.obj)
 .text          0x00000000        0x0 mesh/core/libmesh_core_nrf51422_xxAC.a(nrf_mesh_keygen.c.obj)
 .data          0x00000000        0x0 mesh/core/libmesh_core_nrf51422_xxAC.a(nrf_mesh_keygen.c.obj)
 .bss           0x00000000        0x0 mesh/core/libmesh_core_nrf51422_xxAC.a(nrf_mesh_keygen.c.obj)
 .text.nrf_mesh_keygen_identitykey
                0x00000000       0x4c mesh/core/libmesh_core_nrf51422_xxAC.a(nrf_mesh_keygen.c.obj)
 .text          0x00000000        0x0 mesh/core/libmesh_core_nrf51422_xxAC.a(log.c.obj)
 .data          0x00000000        0x0 mesh/core/libmesh_core_nrf51422_xxAC.a(log.c.obj)
 .bss           0x00000000        0x0 mesh/core/libmesh_core_nrf51422_xxAC.a(log.c.obj)
 .text.log_callback_logview
                0x00000000       0x34 mesh/core/libmesh_core_nrf51422_xxAC.a(log.c.obj)
 .text.log_set_callback
                0x00000000        0xc mesh/core/libmesh_core_nrf51422_xxAC.a(log.c.obj)
 .rodata.log_callback_logview.str1.1
                0x00000000        0xf mesh/core/libmesh_core_nrf51422_xxAC.a(log.c.obj)
 .text          0x00000000        0x0 mesh/core/libmesh_core_nrf51422_xxAC.a(flash_manager.c.obj)
 .data          0x00000000        0x0 mesh/core/libmesh_core_nrf51422_xxAC.a(flash_manager.c.obj)
 .bss           0x00000000        0x0 mesh/core/libmesh_core_nrf51422_xxAC.a(flash_manager.c.obj)
 .text.flash_manager_entry_get
                0x00000000       0x4c mesh/core/libmesh_core_nrf51422_xxAC.a(flash_manager.c.obj)
 .text.flash_manager_entry_count_get
                0x00000000       0x5c mesh/core/libmesh_core_nrf51422_xxAC.a(flash_manager.c.obj)
 .text.flash_manager_entry_release
                0x00000000       0x10 mesh/core/libmesh_core_nrf51422_xxAC.a(flash_manager.c.obj)
 .text          0x00000000        0x0 mesh/core/libmesh_core_nrf51422_xxAC.a(ccm_soft.c.obj)
 .data          0x00000000        0x0 mesh/core/libmesh_core_nrf51422_xxAC.a(ccm_soft.c.obj)
 .bss           0x00000000        0x0 mesh/core/libmesh_core_nrf51422_xxAC.a(ccm_soft.c.obj)
 .text          0x00000000        0x0 mesh/core/libmesh_core_nrf51422_xxAC.a(beacon.c.obj)
 .data          0x00000000        0x0 mesh/core/libmesh_core_nrf51422_xxAC.a(beacon.c.obj)
 .bss           0x00000000        0x0 mesh/core/libmesh_core_nrf51422_xxAC.a(beacon.c.obj)
 .text          0x00000000        0x0 mesh/core/libmesh_core_nrf51422_xxAC.a(flash_manager_internal.c.obj)
 .data          0x00000000        0x0 mesh/core/libmesh_core_nrf51422_xxAC.a(flash_manager_internal.c.obj)
 .bss           0x00000000        0x0 mesh/core/libmesh_core_nrf51422_xxAC.a(flash_manager_internal.c.obj)
 .text          0x00000000        0x0 mesh/core/libmesh_core_nrf51422_xxAC.a(core_tx.c.obj)
 .data          0x00000000        0x0 mesh/core/libmesh_core_nrf51422_xxAC.a(core_tx.c.obj)
 .bss           0x00000000        0x0 mesh/core/libmesh_core_nrf51422_xxAC.a(core_tx.c.obj)
 .text.core_tx_adv_count_set
                0x00000000       0x40 mesh/core/libmesh_core_nrf51422_xxAC.a(core_tx.c.obj)
 .text.core_tx_adv_count_get
                0x00000000       0x2c mesh/core/libmesh_core_nrf51422_xxAC.a(core_tx.c.obj)
 .text.core_tx_adv_interval_set
                0x00000000       0x34 mesh/core/libmesh_core_nrf51422_xxAC.a(core_tx.c.obj)
 .text.core_tx_adv_interval_get
                0x00000000       0x34 mesh/core/libmesh_core_nrf51422_xxAC.a(core_tx.c.obj)
 .text.core_tx_adv_address_set
                0x00000000       0x34 mesh/core/libmesh_core_nrf51422_xxAC.a(core_tx.c.obj)
 .text          0x00000000        0x0 mesh/core/libmesh_core_nrf51422_xxAC.a(net_beacon.c.obj)
 .data          0x00000000        0x0 mesh/core/libmesh_core_nrf51422_xxAC.a(net_beacon.c.obj)
 .bss           0x00000000        0x0 mesh/core/libmesh_core_nrf51422_xxAC.a(net_beacon.c.obj)
 .text.net_beacon_state_set
                0x00000000       0x38 mesh/core/libmesh_core_nrf51422_xxAC.a(net_beacon.c.obj)
 .text.net_beacon_state_get
                0x00000000        0xc mesh/core/libmesh_core_nrf51422_xxAC.a(net_beacon.c.obj)
 .text          0x00000000        0x0 mesh/core/libmesh_core_nrf51422_xxAC.a(advertiser.c.obj)
 .data          0x00000000        0x0 mesh/core/libmesh_core_nrf51422_xxAC.a(advertiser.c.obj)
 .bss           0x00000000        0x0 mesh/core/libmesh_core_nrf51422_xxAC.a(advertiser.c.obj)
 .text.advertiser_address_set
                0x00000000       0x58 mesh/core/libmesh_core_nrf51422_xxAC.a(advertiser.c.obj)
 .text.advertiser_config_set
                0x00000000       0x48 mesh/core/libmesh_core_nrf51422_xxAC.a(advertiser.c.obj)
 .text.advertiser_config_get
                0x00000000       0x30 mesh/core/libmesh_core_nrf51422_xxAC.a(advertiser.c.obj)
 .text          0x00000000        0x0 mesh/core/libmesh_core_nrf51422_xxAC.a(bearer_handler.c.obj)
 .data          0x00000000        0x0 mesh/core/libmesh_core_nrf51422_xxAC.a(bearer_handler.c.obj)
 .bss           0x00000000        0x0 mesh/core/libmesh_core_nrf51422_xxAC.a(bearer_handler.c.obj)
 .text.bearer_handler_action_fire
                0x00000000       0xc0 mesh/core/libmesh_core_nrf51422_xxAC.a(bearer_handler.c.obj)
 .text          0x00000000        0x0 mesh/core/libmesh_core_nrf51422_xxAC.a(broadcast.c.obj)
 .data          0x00000000        0x0 mesh/core/libmesh_core_nrf51422_xxAC.a(broadcast.c.obj)
 .bss           0x00000000        0x0 mesh/core/libmesh_core_nrf51422_xxAC.a(broadcast.c.obj)
 .text          0x00000000        0x0 mesh/core/libmesh_core_nrf51422_xxAC.a(radio_config.c.obj)
 .data          0x00000000        0x0 mesh/core/libmesh_core_nrf51422_xxAC.a(radio_config.c.obj)
 .bss           0x00000000        0x0 mesh/core/libmesh_core_nrf51422_xxAC.a(radio_config.c.obj)
 .text.radio_config_access_addr_get
                0x00000000       0x78 mesh/core/libmesh_core_nrf51422_xxAC.a(radio_config.c.obj)
 .text          0x00000000        0x0 mesh/core/libmesh_core_nrf51422_xxAC.a(scanner.c.obj)
 .data          0x00000000        0x0 mesh/core/libmesh_core_nrf51422_xxAC.a(scanner.c.obj)
 .bss           0x00000000        0x0 mesh/core/libmesh_core_nrf51422_xxAC.a(scanner.c.obj)
 .text.scanner_is_enabled
                0x00000000       0x14 mesh/core/libmesh_core_nrf51422_xxAC.a(scanner.c.obj)
 .text.scanner_stats_get
                0x00000000        0xc mesh/core/libmesh_core_nrf51422_xxAC.a(scanner.c.obj)
 .text.scanner_config_radio_mode_set
                0x00000000       0x10 mesh/core/libmesh_core_nrf51422_xxAC.a(scanner.c.obj)
 .text          0x00000000        0x0 mesh/core/libmesh_core_nrf51422_xxAC.a(aes.c.obj)
 .data          0x00000000        0x0 mesh/core/libmesh_core_nrf51422_xxAC.a(aes.c.obj)
 .bss           0x00000000        0x0 mesh/core/libmesh_core_nrf51422_xxAC.a(aes.c.obj)
 .text          0x00000000        0x0 mesh/core/libmesh_core_nrf51422_xxAC.a(msg_cache.c.obj)
 .data          0x00000000        0x0 mesh/core/libmesh_core_nrf51422_xxAC.a(msg_cache.c.obj)
 .bss           0x00000000        0x0 mesh/core/libmesh_core_nrf51422_xxAC.a(msg_cache.c.obj)
 .text.msg_cache_clear
                0x00000000       0x18 mesh/core/libmesh_core_nrf51422_xxAC.a(msg_cache.c.obj)
 .text          0x00000000        0x0 mesh/core/libmesh_core_nrf51422_xxAC.a(transport.c.obj)
 .data          0x00000000        0x0 mesh/core/libmesh_core_nrf51422_xxAC.a(transport.c.obj)
 .bss           0x00000000        0x0 mesh/core/libmesh_core_nrf51422_xxAC.a(transport.c.obj)
 .text.transport_sar_mem_funcs_set
                0x00000000       0x3c mesh/core/libmesh_core_nrf51422_xxAC.a(transport.c.obj)
 .text.transport_opt_set
                0x00000000       0xcc mesh/core/libmesh_core_nrf51422_xxAC.a(transport.c.obj)
 .text.transport_opt_get
                0x00000000       0x58 mesh/core/libmesh_core_nrf51422_xxAC.a(transport.c.obj)
 .text          0x00000000        0x0 mesh/core/libmesh_core_nrf51422_xxAC.a(flash_manager_defrag.c.obj)
 .data          0x00000000        0x0 mesh/core/libmesh_core_nrf51422_xxAC.a(flash_manager_defrag.c.obj)
 .bss           0x00000000        0x0 mesh/core/libmesh_core_nrf51422_xxAC.a(flash_manager_defrag.c.obj)
 .text.flash_manager_defragging
                0x00000000       0x44 mesh/core/libmesh_core_nrf51422_xxAC.a(flash_manager_defrag.c.obj)
 .text          0x00000000        0x0 mesh/core/libmesh_core_nrf51422_xxAC.a(nrf_flash.c.obj)
 .data          0x00000000        0x0 mesh/core/libmesh_core_nrf51422_xxAC.a(nrf_flash.c.obj)
 .bss           0x00000000        0x0 mesh/core/libmesh_core_nrf51422_xxAC.a(nrf_flash.c.obj)
 .text          0x00000000        0x0 mesh/core/libmesh_core_nrf51422_xxAC.a(packet_mgr.c.obj)
 .data          0x00000000        0x0 mesh/core/libmesh_core_nrf51422_xxAC.a(packet_mgr.c.obj)
 .bss           0x00000000        0x0 mesh/core/libmesh_core_nrf51422_xxAC.a(packet_mgr.c.obj)
 .text.packet_mgr_alloc
                0x00000000      0x18c mesh/core/libmesh_core_nrf51422_xxAC.a(packet_mgr.c.obj)
 .text.packet_mgr_free
                0x00000000       0x6c mesh/core/libmesh_core_nrf51422_xxAC.a(packet_mgr.c.obj)
 .text.packet_mgr_get_free_space
                0x00000000       0x1c mesh/core/libmesh_core_nrf51422_xxAC.a(packet_mgr.c.obj)
 .text.packet_mgr_refcount_get
                0x00000000        0x6 mesh/core/libmesh_core_nrf51422_xxAC.a(packet_mgr.c.obj)
 .text.packet_mgr_size_get
                0x00000000        0x6 mesh/core/libmesh_core_nrf51422_xxAC.a(packet_mgr.c.obj)
 .text          0x00000000        0x0 mesh/core/libmesh_core_nrf51422_xxAC.a(queue.c.obj)
 .data          0x00000000        0x0 mesh/core/libmesh_core_nrf51422_xxAC.a(queue.c.obj)
 .bss           0x00000000        0x0 mesh/core/libmesh_core_nrf51422_xxAC.a(queue.c.obj)
 .text          0x00000000        0x0 mesh/core/libmesh_core_nrf51422_xxAC.a(aes_cmac.c.obj)
 .data          0x00000000        0x0 mesh/core/libmesh_core_nrf51422_xxAC.a(aes_cmac.c.obj)
 .bss           0x00000000        0x0 mesh/core/libmesh_core_nrf51422_xxAC.a(aes_cmac.c.obj)
 .text          0x00000000        0x0 mesh/core/libmesh_core_nrf51422_xxAC.a(replay_cache.c.obj)
 .data          0x00000000        0x0 mesh/core/libmesh_core_nrf51422_xxAC.a(replay_cache.c.obj)
 .bss           0x00000000        0x0 mesh/core/libmesh_core_nrf51422_xxAC.a(replay_cache.c.obj)
 .text.replay_cache_on_iv_update
                0x00000000       0x28 mesh/core/libmesh_core_nrf51422_xxAC.a(replay_cache.c.obj)
 .text          0x00000000        0x0 mesh/core/libmesh_core_nrf51422_xxAC.a(filter_engine.c.obj)
 .data          0x00000000        0x0 mesh/core/libmesh_core_nrf51422_xxAC.a(filter_engine.c.obj)
 .bss           0x00000000        0x0 mesh/core/libmesh_core_nrf51422_xxAC.a(filter_engine.c.obj)
 .text.fen_filter_start
                0x00000000       0x74 mesh/core/libmesh_core_nrf51422_xxAC.a(filter_engine.c.obj)
 .text.fen_filter_stop
                0x00000000       0x58 mesh/core/libmesh_core_nrf51422_xxAC.a(filter_engine.c.obj)
 .text.fen_accepted_amount_get
                0x00000000        0xc mesh/core/libmesh_core_nrf51422_xxAC.a(filter_engine.c.obj)
 .text          0x00000000        0x0 external/rtt/librtt_nrf51422_xxAC.a(SEGGER_RTT.c.obj)
 .data          0x00000000        0x0 external/rtt/librtt_nrf51422_xxAC.a(SEGGER_RTT.c.obj)
 .bss           0x00000000        0x0 external/rtt/librtt_nrf51422_xxAC.a(SEGGER_RTT.c.obj)
 .text._PostTerminalSwitch.constprop.0
                0x00000000       0x20 external/rtt/librtt_nrf51422_xxAC.a(SEGGER_RTT.c.obj)
 .text.SEGGER_RTT_ReadNoLock
                0x00000000       0xa4 external/rtt/librtt_nrf51422_xxAC.a(SEGGER_RTT.c.obj)
 .text.SEGGER_RTT_Read
                0x00000000       0x1a external/rtt/librtt_nrf51422_xxAC.a(SEGGER_RTT.c.obj)
 .text.SEGGER_RTT_WriteSkipNoLock
                0x00000000       0xb0 external/rtt/librtt_nrf51422_xxAC.a(SEGGER_RTT.c.obj)
 .text.SEGGER_RTT_WriteString
                0x00000000       0x18 external/rtt/librtt_nrf51422_xxAC.a(SEGGER_RTT.c.obj)
 .text.SEGGER_RTT_GetKey
                0x00000000       0x1e external/rtt/librtt_nrf51422_xxAC.a(SEGGER_RTT.c.obj)
 .text.SEGGER_RTT_WaitKey
                0x00000000        0xc external/rtt/librtt_nrf51422_xxAC.a(SEGGER_RTT.c.obj)
 .text.SEGGER_RTT_HasKey
                0x00000000       0x20 external/rtt/librtt_nrf51422_xxAC.a(SEGGER_RTT.c.obj)
 .text.SEGGER_RTT_HasData
                0x00000000       0x14 external/rtt/librtt_nrf51422_xxAC.a(SEGGER_RTT.c.obj)
 .text.SEGGER_RTT_AllocDownBuffer
                0x00000000       0x64 external/rtt/librtt_nrf51422_xxAC.a(SEGGER_RTT.c.obj)
 .text.SEGGER_RTT_AllocUpBuffer
                0x00000000       0x68 external/rtt/librtt_nrf51422_xxAC.a(SEGGER_RTT.c.obj)
 .text.SEGGER_RTT_ConfigUpBuffer
                0x00000000       0x60 external/rtt/librtt_nrf51422_xxAC.a(SEGGER_RTT.c.obj)
 .text.SEGGER_RTT_ConfigDownBuffer
                0x00000000       0x5c external/rtt/librtt_nrf51422_xxAC.a(SEGGER_RTT.c.obj)
 .text.SEGGER_RTT_SetNameUpBuffer
                0x00000000       0x3c external/rtt/librtt_nrf51422_xxAC.a(SEGGER_RTT.c.obj)
 .text.SEGGER_RTT_SetNameDownBuffer
                0x00000000       0x3c external/rtt/librtt_nrf51422_xxAC.a(SEGGER_RTT.c.obj)
 .text.SEGGER_RTT_Init
                0x00000000       0x14 external/rtt/librtt_nrf51422_xxAC.a(SEGGER_RTT.c.obj)
 .text.SEGGER_RTT_SetTerminal
                0x00000000       0x80 external/rtt/librtt_nrf51422_xxAC.a(SEGGER_RTT.c.obj)
 .text.SEGGER_RTT_TerminalOut
                0x00000000       0xa0 external/rtt/librtt_nrf51422_xxAC.a(SEGGER_RTT.c.obj)
 .bss._ActiveTerminal
                0x00000000        0x1 external/rtt/librtt_nrf51422_xxAC.a(SEGGER_RTT.c.obj)
 .rodata._aTerminalId
                0x00000000       0x10 external/rtt/librtt_nrf51422_xxAC.a(SEGGER_RTT.c.obj)
 .text          0x00000000        0x0 external/rtt/librtt_nrf51422_xxAC.a(SEGGER_RTT_printf.c.obj)
 .data          0x00000000        0x0 external/rtt/librtt_nrf51422_xxAC.a(SEGGER_RTT_printf.c.obj)
 .bss           0x00000000        0x0 external/rtt/librtt_nrf51422_xxAC.a(SEGGER_RTT_printf.c.obj)
 .text          0x00000000        0x0 external/micro-ecc/libuECC_nrf51422_xxAC.a(uECC.c.obj)
 .data          0x00000000        0x0 external/micro-ecc/libuECC_nrf51422_xxAC.a(uECC.c.obj)
 .bss           0x00000000        0x0 external/micro-ecc/libuECC_nrf51422_xxAC.a(uECC.c.obj)
 .text.uECC_vli_modMult
                0x00000000      0x128 external/micro-ecc/libuECC_nrf51422_xxAC.a(uECC.c.obj)
 .text.HMAC_init
                0x00000000       0x40 external/micro-ecc/libuECC_nrf51422_xxAC.a(uECC.c.obj)
 .text.HMAC_update
                0x00000000        0x8 external/micro-ecc/libuECC_nrf51422_xxAC.a(uECC.c.obj)
 .text.HMAC_finish
                0x00000000       0x5c external/micro-ecc/libuECC_nrf51422_xxAC.a(uECC.c.obj)
 .text.update_V
                0x00000000       0x22 external/micro-ecc/libuECC_nrf51422_xxAC.a(uECC.c.obj)
 .text.bits2int
                0x00000000       0x8c external/micro-ecc/libuECC_nrf51422_xxAC.a(uECC.c.obj)
 .text.uECC_sign_with_k
                0x00000000      0x184 external/micro-ecc/libuECC_nrf51422_xxAC.a(uECC.c.obj)
 .text.uECC_set_rng
                0x00000000        0xc external/micro-ecc/libuECC_nrf51422_xxAC.a(uECC.c.obj)
 .text.uECC_get_rng
                0x00000000        0xc external/micro-ecc/libuECC_nrf51422_xxAC.a(uECC.c.obj)
 .text.uECC_curve_private_key_size
                0x00000000       0x12 external/micro-ecc/libuECC_nrf51422_xxAC.a(uECC.c.obj)
 .text.uECC_curve_public_key_size
                0x00000000        0x8 external/micro-ecc/libuECC_nrf51422_xxAC.a(uECC.c.obj)
 .text.uECC_compute_public_key
                0x00000000       0x88 external/micro-ecc/libuECC_nrf51422_xxAC.a(uECC.c.obj)
 .text.uECC_sign
                0x00000000       0x5a external/micro-ecc/libuECC_nrf51422_xxAC.a(uECC.c.obj)
 .text.uECC_sign_deterministic
                0x00000000      0x19c external/micro-ecc/libuECC_nrf51422_xxAC.a(uECC.c.obj)
 .text.uECC_verify
                0x00000000      0x2e4 external/micro-ecc/libuECC_nrf51422_xxAC.a(uECC.c.obj)
 .data          0x00000000        0x0 c:/a/gcc_arm/6/bin/../lib/gcc/arm-none-eabi/6.3.1/thumb/v6-m\libgcc.a(_thumb1_case_uqi.o)
 .bss           0x00000000        0x0 c:/a/gcc_arm/6/bin/../lib/gcc/arm-none-eabi/6.3.1/thumb/v6-m\libgcc.a(_thumb1_case_uqi.o)
 .data          0x00000000        0x0 c:/a/gcc_arm/6/bin/../lib/gcc/arm-none-eabi/6.3.1/thumb/v6-m\libgcc.a(_thumb1_case_shi.o)
 .bss           0x00000000        0x0 c:/a/gcc_arm/6/bin/../lib/gcc/arm-none-eabi/6.3.1/thumb/v6-m\libgcc.a(_thumb1_case_shi.o)
 .data          0x00000000        0x0 c:/a/gcc_arm/6/bin/../lib/gcc/arm-none-eabi/6.3.1/thumb/v6-m\libgcc.a(_thumb1_case_uhi.o)
 .bss           0x00000000        0x0 c:/a/gcc_arm/6/bin/../lib/gcc/arm-none-eabi/6.3.1/thumb/v6-m\libgcc.a(_thumb1_case_uhi.o)
 .data          0x00000000        0x0 c:/a/gcc_arm/6/bin/../lib/gcc/arm-none-eabi/6.3.1/thumb/v6-m\libgcc.a(_udivsi3.o)
 .bss           0x00000000        0x0 c:/a/gcc_arm/6/bin/../lib/gcc/arm-none-eabi/6.3.1/thumb/v6-m\libgcc.a(_udivsi3.o)
 .data          0x00000000        0x0 c:/a/gcc_arm/6/bin/../lib/gcc/arm-none-eabi/6.3.1/thumb/v6-m\libgcc.a(_divsi3.o)
 .bss           0x00000000        0x0 c:/a/gcc_arm/6/bin/../lib/gcc/arm-none-eabi/6.3.1/thumb/v6-m\libgcc.a(_divsi3.o)
 .data          0x00000000        0x0 c:/a/gcc_arm/6/bin/../lib/gcc/arm-none-eabi/6.3.1/thumb/v6-m\libgcc.a(_dvmd_tls.o)
 .bss           0x00000000        0x0 c:/a/gcc_arm/6/bin/../lib/gcc/arm-none-eabi/6.3.1/thumb/v6-m\libgcc.a(_dvmd_tls.o)
 .data          0x00000000        0x0 c:/a/gcc_arm/6/bin/../lib/gcc/arm-none-eabi/6.3.1/thumb/v6-m\libgcc.a(_muldi3.o)
 .bss           0x00000000        0x0 c:/a/gcc_arm/6/bin/../lib/gcc/arm-none-eabi/6.3.1/thumb/v6-m\libgcc.a(_muldi3.o)
 .text          0x00000000        0x0 c:/a/gcc_arm/6/bin/../lib/gcc/arm-none-eabi/6.3.1/../../../../arm-none-eabi/lib/thumb/v6-m\libc_nano.a(lib_a-exit.o)
 .data          0x00000000        0x0 c:/a/gcc_arm/6/bin/../lib/gcc/arm-none-eabi/6.3.1/../../../../arm-none-eabi/lib/thumb/v6-m\libc_nano.a(lib_a-exit.o)
 .bss           0x00000000        0x0 c:/a/gcc_arm/6/bin/../lib/gcc/arm-none-eabi/6.3.1/../../../../arm-none-eabi/lib/thumb/v6-m\libc_nano.a(lib_a-exit.o)
 .text          0x00000000        0x0 c:/a/gcc_arm/6/bin/../lib/gcc/arm-none-eabi/6.3.1/../../../../arm-none-eabi/lib/thumb/v6-m\libc_nano.a(lib_a-impure.o)
 .data          0x00000000        0x0 c:/a/gcc_arm/6/bin/../lib/gcc/arm-none-eabi/6.3.1/../../../../arm-none-eabi/lib/thumb/v6-m\libc_nano.a(lib_a-impure.o)
 .bss           0x00000000        0x0 c:/a/gcc_arm/6/bin/../lib/gcc/arm-none-eabi/6.3.1/../../../../arm-none-eabi/lib/thumb/v6-m\libc_nano.a(lib_a-impure.o)
 .text          0x00000000        0x0 c:/a/gcc_arm/6/bin/../lib/gcc/arm-none-eabi/6.3.1/../../../../arm-none-eabi/lib/thumb/v6-m\libc_nano.a(lib_a-init.o)
 .data          0x00000000        0x0 c:/a/gcc_arm/6/bin/../lib/gcc/arm-none-eabi/6.3.1/../../../../arm-none-eabi/lib/thumb/v6-m\libc_nano.a(lib_a-init.o)
 .bss           0x00000000        0x0 c:/a/gcc_arm/6/bin/../lib/gcc/arm-none-eabi/6.3.1/../../../../arm-none-eabi/lib/thumb/v6-m\libc_nano.a(lib_a-init.o)
 .text          0x00000000        0x0 c:/a/gcc_arm/6/bin/../lib/gcc/arm-none-eabi/6.3.1/../../../../arm-none-eabi/lib/thumb/v6-m\libc_nano.a(lib_a-malloc.o)
 .data          0x00000000        0x0 c:/a/gcc_arm/6/bin/../lib/gcc/arm-none-eabi/6.3.1/../../../../arm-none-eabi/lib/thumb/v6-m\libc_nano.a(lib_a-malloc.o)
 .bss           0x00000000        0x0 c:/a/gcc_arm/6/bin/../lib/gcc/arm-none-eabi/6.3.1/../../../../arm-none-eabi/lib/thumb/v6-m\libc_nano.a(lib_a-malloc.o)
 .text          0x00000000        0x0 c:/a/gcc_arm/6/bin/../lib/gcc/arm-none-eabi/6.3.1/../../../../arm-none-eabi/lib/thumb/v6-m\libc_nano.a(lib_a-memcmp.o)
 .data          0x00000000        0x0 c:/a/gcc_arm/6/bin/../lib/gcc/arm-none-eabi/6.3.1/../../../../arm-none-eabi/lib/thumb/v6-m\libc_nano.a(lib_a-memcmp.o)
 .bss           0x00000000        0x0 c:/a/gcc_arm/6/bin/../lib/gcc/arm-none-eabi/6.3.1/../../../../arm-none-eabi/lib/thumb/v6-m\libc_nano.a(lib_a-memcmp.o)
 .text          0x00000000        0x0 c:/a/gcc_arm/6/bin/../lib/gcc/arm-none-eabi/6.3.1/../../../../arm-none-eabi/lib/thumb/v6-m\libc_nano.a(lib_a-memcpy-stub.o)
 .data          0x00000000        0x0 c:/a/gcc_arm/6/bin/../lib/gcc/arm-none-eabi/6.3.1/../../../../arm-none-eabi/lib/thumb/v6-m\libc_nano.a(lib_a-memcpy-stub.o)
 .bss           0x00000000        0x0 c:/a/gcc_arm/6/bin/../lib/gcc/arm-none-eabi/6.3.1/../../../../arm-none-eabi/lib/thumb/v6-m\libc_nano.a(lib_a-memcpy-stub.o)
 .text          0x00000000        0x0 c:/a/gcc_arm/6/bin/../lib/gcc/arm-none-eabi/6.3.1/../../../../arm-none-eabi/lib/thumb/v6-m\libc_nano.a(lib_a-memset.o)
 .data          0x00000000        0x0 c:/a/gcc_arm/6/bin/../lib/gcc/arm-none-eabi/6.3.1/../../../../arm-none-eabi/lib/thumb/v6-m\libc_nano.a(lib_a-memset.o)
 .bss           0x00000000        0x0 c:/a/gcc_arm/6/bin/../lib/gcc/arm-none-eabi/6.3.1/../../../../arm-none-eabi/lib/thumb/v6-m\libc_nano.a(lib_a-memset.o)
 .text          0x00000000        0x0 c:/a/gcc_arm/6/bin/../lib/gcc/arm-none-eabi/6.3.1/../../../../arm-none-eabi/lib/thumb/v6-m\libc_nano.a(lib_a-nano-freer.o)
 .data          0x00000000        0x0 c:/a/gcc_arm/6/bin/../lib/gcc/arm-none-eabi/6.3.1/../../../../arm-none-eabi/lib/thumb/v6-m\libc_nano.a(lib_a-nano-freer.o)
 .bss           0x00000000        0x0 c:/a/gcc_arm/6/bin/../lib/gcc/arm-none-eabi/6.3.1/../../../../arm-none-eabi/lib/thumb/v6-m\libc_nano.a(lib_a-nano-freer.o)
 .text          0x00000000        0x0 c:/a/gcc_arm/6/bin/../lib/gcc/arm-none-eabi/6.3.1/../../../../arm-none-eabi/lib/thumb/v6-m\libc_nano.a(lib_a-nano-mallocr.o)
 .data          0x00000000        0x0 c:/a/gcc_arm/6/bin/../lib/gcc/arm-none-eabi/6.3.1/../../../../arm-none-eabi/lib/thumb/v6-m\libc_nano.a(lib_a-nano-mallocr.o)
 .bss           0x00000000        0x0 c:/a/gcc_arm/6/bin/../lib/gcc/arm-none-eabi/6.3.1/../../../../arm-none-eabi/lib/thumb/v6-m\libc_nano.a(lib_a-nano-mallocr.o)
 .text          0x00000000        0x0 c:/a/gcc_arm/6/bin/../lib/gcc/arm-none-eabi/6.3.1/../../../../arm-none-eabi/lib/thumb/v6-m\libc_nano.a(lib_a-sbrkr.o)
 .data          0x00000000        0x0 c:/a/gcc_arm/6/bin/../lib/gcc/arm-none-eabi/6.3.1/../../../../arm-none-eabi/lib/thumb/v6-m\libc_nano.a(lib_a-sbrkr.o)
 .bss           0x00000000        0x0 c:/a/gcc_arm/6/bin/../lib/gcc/arm-none-eabi/6.3.1/../../../../arm-none-eabi/lib/thumb/v6-m\libc_nano.a(lib_a-sbrkr.o)
 .text          0x00000000        0x0 c:/a/gcc_arm/6/bin/../lib/gcc/arm-none-eabi/6.3.1/../../../../arm-none-eabi/lib/thumb/v6-m\libc_nano.a(lib_a-strcpy.o)
 .data          0x00000000        0x0 c:/a/gcc_arm/6/bin/../lib/gcc/arm-none-eabi/6.3.1/../../../../arm-none-eabi/lib/thumb/v6-m\libc_nano.a(lib_a-strcpy.o)
 .bss           0x00000000        0x0 c:/a/gcc_arm/6/bin/../lib/gcc/arm-none-eabi/6.3.1/../../../../arm-none-eabi/lib/thumb/v6-m\libc_nano.a(lib_a-strcpy.o)
 .data          0x00000000        0x0 c:/a/gcc_arm/6/bin/../lib/gcc/arm-none-eabi/6.3.1/../../../../arm-none-eabi/lib/thumb/v6-m\libc_nano.a(lib_a-strlen.o)
 .bss           0x00000000        0x0 c:/a/gcc_arm/6/bin/../lib/gcc/arm-none-eabi/6.3.1/../../../../arm-none-eabi/lib/thumb/v6-m\libc_nano.a(lib_a-strlen.o)
 .text          0x00000000        0x0 c:/a/gcc_arm/6/bin/../lib/gcc/arm-none-eabi/6.3.1/../../../../arm-none-eabi/lib/thumb/v6-m\libc_nano.a(lib_a-strrchr.o)
 .data          0x00000000        0x0 c:/a/gcc_arm/6/bin/../lib/gcc/arm-none-eabi/6.3.1/../../../../arm-none-eabi/lib/thumb/v6-m\libc_nano.a(lib_a-strrchr.o)
 .bss           0x00000000        0x0 c:/a/gcc_arm/6/bin/../lib/gcc/arm-none-eabi/6.3.1/../../../../arm-none-eabi/lib/thumb/v6-m\libc_nano.a(lib_a-strrchr.o)
 .text          0x00000000        0x0 c:/a/gcc_arm/6/bin/../lib/gcc/arm-none-eabi/6.3.1/../../../../arm-none-eabi/lib/thumb/v6-m\libc_nano.a(lib_a-mlock.o)
 .data          0x00000000        0x0 c:/a/gcc_arm/6/bin/../lib/gcc/arm-none-eabi/6.3.1/../../../../arm-none-eabi/lib/thumb/v6-m\libc_nano.a(lib_a-mlock.o)
 .bss           0x00000000        0x0 c:/a/gcc_arm/6/bin/../lib/gcc/arm-none-eabi/6.3.1/../../../../arm-none-eabi/lib/thumb/v6-m\libc_nano.a(lib_a-mlock.o)
 .text          0x00000000        0x0 c:/a/gcc_arm/6/bin/../lib/gcc/arm-none-eabi/6.3.1/../../../../arm-none-eabi/lib/thumb/v6-m\libc_nano.a(lib_a-reent.o)
 .data          0x00000000        0x0 c:/a/gcc_arm/6/bin/../lib/gcc/arm-none-eabi/6.3.1/../../../../arm-none-eabi/lib/thumb/v6-m\libc_nano.a(lib_a-reent.o)
 .bss           0x00000000        0x0 c:/a/gcc_arm/6/bin/../lib/gcc/arm-none-eabi/6.3.1/../../../../arm-none-eabi/lib/thumb/v6-m\libc_nano.a(lib_a-reent.o)
 .text.cleanup_glue
                0x00000000       0x1a c:/a/gcc_arm/6/bin/../lib/gcc/arm-none-eabi/6.3.1/../../../../arm-none-eabi/lib/thumb/v6-m\libc_nano.a(lib_a-reent.o)
 .text._reclaim_reent
                0x00000000       0xcc c:/a/gcc_arm/6/bin/../lib/gcc/arm-none-eabi/6.3.1/../../../../arm-none-eabi/lib/thumb/v6-m\libc_nano.a(lib_a-reent.o)
 .text          0x00000000        0x0 c:/a/gcc_arm/6/bin/../lib/gcc/arm-none-eabi/6.3.1/../../../../arm-none-eabi/lib/thumb/v6-m\libc_nano.a(lib_a-strchr.o)
 .data          0x00000000        0x0 c:/a/gcc_arm/6/bin/../lib/gcc/arm-none-eabi/6.3.1/../../../../arm-none-eabi/lib/thumb/v6-m\libc_nano.a(lib_a-strchr.o)
 .bss           0x00000000        0x0 c:/a/gcc_arm/6/bin/../lib/gcc/arm-none-eabi/6.3.1/../../../../arm-none-eabi/lib/thumb/v6-m\libc_nano.a(lib_a-strchr.o)
 .text          0x00000000        0x0 c:/a/gcc_arm/6/bin/../lib/gcc/arm-none-eabi/6.3.1/thumb/v6-m/crtend.o
 .data          0x00000000        0x0 c:/a/gcc_arm/6/bin/../lib/gcc/arm-none-eabi/6.3.1/thumb/v6-m/crtend.o
 .bss           0x00000000        0x0 c:/a/gcc_arm/6/bin/../lib/gcc/arm-none-eabi/6.3.1/thumb/v6-m/crtend.o
 .text          0x00000000        0x0 c:/a/gcc_arm/6/bin/../lib/gcc/arm-none-eabi/6.3.1/thumb/v6-m/crtn.o
 .data          0x00000000        0x0 c:/a/gcc_arm/6/bin/../lib/gcc/arm-none-eabi/6.3.1/thumb/v6-m/crtn.o
 .bss           0x00000000        0x0 c:/a/gcc_arm/6/bin/../lib/gcc/arm-none-eabi/6.3.1/thumb/v6-m/crtn.o
 .text          0x00000000        0x0 c:/a/gcc_arm/6/bin/../lib/gcc/arm-none-eabi/6.3.1/../../../../arm-none-eabi/lib/thumb/v6-m\libnosys.a(sbrk.o)
 .data          0x00000000        0x0 c:/a/gcc_arm/6/bin/../lib/gcc/arm-none-eabi/6.3.1/../../../../arm-none-eabi/lib/thumb/v6-m\libnosys.a(sbrk.o)
 .bss           0x00000000        0x0 c:/a/gcc_arm/6/bin/../lib/gcc/arm-none-eabi/6.3.1/../../../../arm-none-eabi/lib/thumb/v6-m\libnosys.a(sbrk.o)
 .text          0x00000000        0x0 c:/a/gcc_arm/6/bin/../lib/gcc/arm-none-eabi/6.3.1/../../../../arm-none-eabi/lib/thumb/v6-m\libnosys.a(_exit.o)
 .data          0x00000000        0x0 c:/a/gcc_arm/6/bin/../lib/gcc/arm-none-eabi/6.3.1/../../../../arm-none-eabi/lib/thumb/v6-m\libnosys.a(_exit.o)
 .bss           0x00000000        0x0 c:/a/gcc_arm/6/bin/../lib/gcc/arm-none-eabi/6.3.1/../../../../arm-none-eabi/lib/thumb/v6-m\libnosys.a(_exit.o)

Memory Configuration

Name             Origin             Length             Attributes
FLASH            0x0001b000         0x0001f000         xr
RAM              0x200022d8         0x00005a28         xrw
*default*        0x00000000         0xffffffff

Linker script and memory map

LOAD c:/a/gcc_arm/6/bin/../lib/gcc/arm-none-eabi/6.3.1/thumb/v6-m/crti.o
LOAD c:/a/gcc_arm/6/bin/../lib/gcc/arm-none-eabi/6.3.1/thumb/v6-m/crtbegin.o
LOAD c:/a/gcc_arm/6/bin/../lib/gcc/arm-none-eabi/6.3.1/../../../../arm-none-eabi/lib/thumb/v6-m/crt0.o
LOAD examples/dfu/CMakeFiles/dfu_nrf51422_xxAC_s130_2.0.1.dir/src/main.c.obj
LOAD examples/dfu/CMakeFiles/dfu_nrf51422_xxAC_s130_2.0.1.dir/__/nrf_mesh_sdk.c.obj
LOAD examples/dfu/CMakeFiles/dfu_nrf51422_xxAC_s130_2.0.1.dir/__/__/mesh/access/src/access_publish.c.obj
LOAD examples/dfu/CMakeFiles/dfu_nrf51422_xxAC_s130_2.0.1.dir/__/__/mesh/access/src/access.c.obj
LOAD examples/dfu/CMakeFiles/dfu_nrf51422_xxAC_s130_2.0.1.dir/__/__/mesh/access/src/access_reliable.c.obj
LOAD examples/dfu/CMakeFiles/dfu_nrf51422_xxAC_s130_2.0.1.dir/__/__/mesh/access/src/device_state_manager.c.obj
LOAD examples/dfu/CMakeFiles/dfu_nrf51422_xxAC_s130_2.0.1.dir/__/__/mesh/serial/src/serial_uart.c.obj
LOAD examples/dfu/CMakeFiles/dfu_nrf51422_xxAC_s130_2.0.1.dir/__/__/mesh/serial/src/serial_bearer.c.obj
LOAD examples/dfu/CMakeFiles/dfu_nrf51422_xxAC_s130_2.0.1.dir/__/__/mesh/serial/src/serial_handler_common.c.obj
LOAD examples/dfu/CMakeFiles/dfu_nrf51422_xxAC_s130_2.0.1.dir/__/__/mesh/serial/src/serial_handler_access.c.obj
LOAD examples/dfu/CMakeFiles/dfu_nrf51422_xxAC_s130_2.0.1.dir/__/__/mesh/serial/src/serial_handler_config.c.obj
LOAD examples/dfu/CMakeFiles/dfu_nrf51422_xxAC_s130_2.0.1.dir/__/__/mesh/serial/src/serial_handler_openmesh.c.obj
LOAD examples/dfu/CMakeFiles/dfu_nrf51422_xxAC_s130_2.0.1.dir/__/__/mesh/serial/src/serial.c.obj
LOAD examples/dfu/CMakeFiles/dfu_nrf51422_xxAC_s130_2.0.1.dir/__/__/mesh/serial/src/serial_handler_prov.c.obj
LOAD examples/dfu/CMakeFiles/dfu_nrf51422_xxAC_s130_2.0.1.dir/__/__/mesh/serial/src/serial_handler_dfu.c.obj
LOAD examples/dfu/CMakeFiles/dfu_nrf51422_xxAC_s130_2.0.1.dir/__/__/mesh/serial/src/serial_handler_mesh.c.obj
LOAD examples/dfu/CMakeFiles/dfu_nrf51422_xxAC_s130_2.0.1.dir/__/__/mesh/serial/src/serial_handler_models.c.obj
LOAD examples/dfu/CMakeFiles/dfu_nrf51422_xxAC_s130_2.0.1.dir/__/__/mesh/serial/src/serial_handler_device.c.obj
LOAD examples/dfu/CMakeFiles/dfu_nrf51422_xxAC_s130_2.0.1.dir/__/__/mesh/serial/src/nrf_mesh_serial.c.obj
LOAD examples/dfu/CMakeFiles/dfu_nrf51422_xxAC_s130_2.0.1.dir/__/__/mesh/serial/src/serial_handler_app.c.obj
LOAD examples/dfu/CMakeFiles/dfu_nrf51422_xxAC_s130_2.0.1.dir/__/__/mesh/prov/src/prov_provisioner.c.obj
LOAD examples/dfu/CMakeFiles/dfu_nrf51422_xxAC_s130_2.0.1.dir/__/__/mesh/prov/src/prov_provisionee.c.obj
LOAD examples/dfu/CMakeFiles/dfu_nrf51422_xxAC_s130_2.0.1.dir/__/__/mesh/prov/src/nrf_mesh_prov.c.obj
LOAD examples/dfu/CMakeFiles/dfu_nrf51422_xxAC_s130_2.0.1.dir/__/__/mesh/prov/src/provisioning.c.obj
LOAD examples/dfu/CMakeFiles/dfu_nrf51422_xxAC_s130_2.0.1.dir/__/__/mesh/prov/src/prov_beacon.c.obj
LOAD examples/dfu/CMakeFiles/dfu_nrf51422_xxAC_s130_2.0.1.dir/__/__/mesh/prov/src/prov_utils.c.obj
LOAD examples/dfu/CMakeFiles/dfu_nrf51422_xxAC_s130_2.0.1.dir/__/__/mesh/prov/src/prov_bearer_adv.c.obj
LOAD examples/dfu/CMakeFiles/dfu_nrf51422_xxAC_s130_2.0.1.dir/__/__/mesh/dfu/src/nrf_mesh_dfu.c.obj
LOAD examples/dfu/CMakeFiles/dfu_nrf51422_xxAC_s130_2.0.1.dir/__/nrf_mesh_weak.c.obj
LOAD examples/dfu/CMakeFiles/dfu_nrf51422_xxAC_s130_2.0.1.dir/__/__/external/nRF5_SDK_14.0.0_3bcc1f7/components/toolchain/system_nrf51.c.obj
LOAD examples/dfu/CMakeFiles/dfu_nrf51422_xxAC_s130_2.0.1.dir/__/__/external/nRF5_SDK_14.0.0_3bcc1f7/components/toolchain/gcc/gcc_startup_nrf51.S.obj
LOAD mesh/core/libmesh_core_nrf51422_xxAC.a
LOAD external/rtt/librtt_nrf51422_xxAC.a
LOAD external/micro-ecc/libuECC_nrf51422_xxAC.a
START GROUP
LOAD c:/a/gcc_arm/6/bin/../lib/gcc/arm-none-eabi/6.3.1/thumb/v6-m\libgcc.a
LOAD c:/a/gcc_arm/6/bin/../lib/gcc/arm-none-eabi/6.3.1/../../../../arm-none-eabi/lib/thumb/v6-m\libc_nano.a
END GROUP
START GROUP
LOAD c:/a/gcc_arm/6/bin/../lib/gcc/arm-none-eabi/6.3.1/thumb/v6-m\libgcc.a
LOAD c:/a/gcc_arm/6/bin/../lib/gcc/arm-none-eabi/6.3.1/../../../../arm-none-eabi/lib/thumb/v6-m\libc_nano.a
END GROUP
LOAD c:/a/gcc_arm/6/bin/../lib/gcc/arm-none-eabi/6.3.1/thumb/v6-m/crtend.o
LOAD c:/a/gcc_arm/6/bin/../lib/gcc/arm-none-eabi/6.3.1/thumb/v6-m/crtn.o
START GROUP
LOAD c:/a/gcc_arm/6/bin/../lib/gcc/arm-none-eabi/6.3.1/thumb/v6-m\libgcc.a
LOAD c:/a/gcc_arm/6/bin/../lib/gcc/arm-none-eabi/6.3.1/../../../../arm-none-eabi/lib/thumb/v6-m\libc.a
LOAD c:/a/gcc_arm/6/bin/../lib/gcc/arm-none-eabi/6.3.1/../../../../arm-none-eabi/lib/thumb/v6-m\libnosys.a
END GROUP

.text           0x0001b000    0x12d74
 *(.isr_vector)
 .isr_vector    0x0001b000       0xc0 examples/dfu/CMakeFiles/dfu_nrf51422_xxAC_s130_2.0.1.dir/__/__/external/nRF5_SDK_14.0.0_3bcc1f7/components/toolchain/gcc/gcc_startup_nrf51.S.obj
                0x0001b000                __isr_vector
 *(.text*)
 .text          0x0001b0c0       0x60 c:/a/gcc_arm/6/bin/../lib/gcc/arm-none-eabi/6.3.1/thumb/v6-m/crtbegin.o
 .text          0x0001b120       0x78 c:/a/gcc_arm/6/bin/../lib/gcc/arm-none-eabi/6.3.1/../../../../arm-none-eabi/lib/thumb/v6-m/crt0.o
                0x0001b120                _start
                0x0001b120                _mainCRTStartup
 .text.mesh_evt_handler
                0x0001b198       0xfc examples/dfu/CMakeFiles/dfu_nrf51422_xxAC_s130_2.0.1.dir/src/main.c.obj
 .text.startup.main
                0x0001b294      0x30c examples/dfu/CMakeFiles/dfu_nrf51422_xxAC_s130_2.0.1.dir/src/main.c.obj
                0x0001b294                main
 .text.sd_evt_get
                0x0001b5a0        0x4 examples/dfu/CMakeFiles/dfu_nrf51422_xxAC_s130_2.0.1.dir/__/nrf_mesh_sdk.c.obj
 .text.sd_softdevice_enable
                0x0001b5a4        0x4 examples/dfu/CMakeFiles/dfu_nrf51422_xxAC_s130_2.0.1.dir/__/nrf_mesh_sdk.c.obj
 .text.sd_ble_enable
                0x0001b5a8        0x4 examples/dfu/CMakeFiles/dfu_nrf51422_xxAC_s130_2.0.1.dir/__/nrf_mesh_sdk.c.obj
 .text.sd_ble_evt_get
                0x0001b5ac        0x4 examples/dfu/CMakeFiles/dfu_nrf51422_xxAC_s130_2.0.1.dir/__/nrf_mesh_sdk.c.obj
 .text.sleep_forever
                0x0001b5b0       0x24 examples/dfu/CMakeFiles/dfu_nrf51422_xxAC_s130_2.0.1.dir/__/nrf_mesh_sdk.c.obj
 .text.mesh_assert_handler
                0x0001b5d4       0x64 examples/dfu/CMakeFiles/dfu_nrf51422_xxAC_s130_2.0.1.dir/__/nrf_mesh_sdk.c.obj
                0x0001b5d4                mesh_assert_handler
 .text.softdevice_assert_handler
                0x0001b638       0x7c examples/dfu/CMakeFiles/dfu_nrf51422_xxAC_s130_2.0.1.dir/__/nrf_mesh_sdk.c.obj
                0x0001b638                softdevice_assert_handler
 .text.app_error_handler
                0x0001b6b4       0x7c examples/dfu/CMakeFiles/dfu_nrf51422_xxAC_s130_2.0.1.dir/__/nrf_mesh_sdk.c.obj
                0x0001b6b4                app_error_handler
 .text.HardFault_Handler
                0x0001b730       0x60 examples/dfu/CMakeFiles/dfu_nrf51422_xxAC_s130_2.0.1.dir/__/nrf_mesh_sdk.c.obj
                0x0001b730                HardFault_Handler
 .text.SWI2_IRQHandler
                0x0001b790       0x38 examples/dfu/CMakeFiles/dfu_nrf51422_xxAC_s130_2.0.1.dir/__/nrf_mesh_sdk.c.obj
                0x0001b790                SWI2_IRQHandler
 .text.mesh_softdevice_enable
                0x0001b7c8      0x12c examples/dfu/CMakeFiles/dfu_nrf51422_xxAC_s130_2.0.1.dir/__/nrf_mesh_sdk.c.obj
                0x0001b7c8                mesh_softdevice_enable
 .text.mesh_softdevice_setup
                0x0001b8f4       0x80 examples/dfu/CMakeFiles/dfu_nrf51422_xxAC_s130_2.0.1.dir/__/nrf_mesh_sdk.c.obj
                0x0001b8f4                mesh_softdevice_setup
 .text.mesh_core_setup
                0x0001b974      0x158 examples/dfu/CMakeFiles/dfu_nrf51422_xxAC_s130_2.0.1.dir/__/nrf_mesh_sdk.c.obj
                0x0001b974                mesh_core_setup
 .text.add_to_publication_list
                0x0001bacc       0x60 examples/dfu/CMakeFiles/dfu_nrf51422_xxAC_s130_2.0.1.dir/__/__/mesh/access/src/access_publish.c.obj
 .text.step_resolution_to_us
                0x0001bb2c       0x48 examples/dfu/CMakeFiles/dfu_nrf51422_xxAC_s130_2.0.1.dir/__/__/mesh/access/src/access_publish.c.obj
 .text.schedule_publication_timer
                0x0001bb74      0x16c examples/dfu/CMakeFiles/dfu_nrf51422_xxAC_s130_2.0.1.dir/__/__/mesh/access/src/access_publish.c.obj
 .text.access_publish_period_set
                0x0001bce0       0x84 examples/dfu/CMakeFiles/dfu_nrf51422_xxAC_s130_2.0.1.dir/__/__/mesh/access/src/access_publish.c.obj
                0x0001bce0                access_publish_period_set
 .text.access_publish_period_get
                0x0001bd64       0x30 examples/dfu/CMakeFiles/dfu_nrf51422_xxAC_s130_2.0.1.dir/__/__/mesh/access/src/access_publish.c.obj
                0x0001bd64                access_publish_period_get
 .text.bitfield_get
                0x0001bd94       0x18 examples/dfu/CMakeFiles/dfu_nrf51422_xxAC_s130_2.0.1.dir/__/__/mesh/access/src/access.c.obj
 .text.model_handle_valid_and_allocated
                0x0001bdac       0x20 examples/dfu/CMakeFiles/dfu_nrf51422_xxAC_s130_2.0.1.dir/__/__/mesh/access/src/access.c.obj
 .text.flash_manager_mem_available
                0x0001bdcc        0x6 examples/dfu/CMakeFiles/dfu_nrf51422_xxAC_s130_2.0.1.dir/__/__/mesh/access/src/access.c.obj
 *fill*         0x0001bdd2        0x2 
 .text.access_flash_config_clear
                0x0001bdd4       0x28 examples/dfu/CMakeFiles/dfu_nrf51422_xxAC_s130_2.0.1.dir/__/__/mesh/access/src/access.c.obj
 .text.access_flash_config_store
                0x0001bdfc      0x144 examples/dfu/CMakeFiles/dfu_nrf51422_xxAC_s130_2.0.1.dir/__/__/mesh/access/src/access.c.obj
                0x0001bdfc                access_flash_config_store
 .text.access_state_clear
                0x0001bf40       0x4c examples/dfu/CMakeFiles/dfu_nrf51422_xxAC_s130_2.0.1.dir/__/__/mesh/access/src/access.c.obj
 .text.access_clear
                0x0001bf8c       0x10 examples/dfu/CMakeFiles/dfu_nrf51422_xxAC_s130_2.0.1.dir/__/__/mesh/access/src/access.c.obj
                0x0001bf8c                access_clear
 .text.access_model_publish_address_set
                0x0001bf9c       0x3c examples/dfu/CMakeFiles/dfu_nrf51422_xxAC_s130_2.0.1.dir/__/__/mesh/access/src/access.c.obj
                0x0001bf9c                access_model_publish_address_set
 .text.access_model_publish_address_get
                0x0001bfd8       0x2c examples/dfu/CMakeFiles/dfu_nrf51422_xxAC_s130_2.0.1.dir/__/__/mesh/access/src/access.c.obj
                0x0001bfd8                access_model_publish_address_get
 .text.access_model_publish_period_set
                0x0001c004       0x80 examples/dfu/CMakeFiles/dfu_nrf51422_xxAC_s130_2.0.1.dir/__/__/mesh/access/src/access.c.obj
                0x0001c004                access_model_publish_period_set
 .text.access_model_publish_period_get
                0x0001c084       0x44 examples/dfu/CMakeFiles/dfu_nrf51422_xxAC_s130_2.0.1.dir/__/__/mesh/access/src/access.c.obj
                0x0001c084                access_model_publish_period_get
 .text.access_model_subscription_add
                0x0001c0c8       0x5c examples/dfu/CMakeFiles/dfu_nrf51422_xxAC_s130_2.0.1.dir/__/__/mesh/access/src/access.c.obj
                0x0001c0c8                access_model_subscription_add
 .text.access_model_subscription_remove
                0x0001c124       0x5c examples/dfu/CMakeFiles/dfu_nrf51422_xxAC_s130_2.0.1.dir/__/__/mesh/access/src/access.c.obj
                0x0001c124                access_model_subscription_remove
 .text.access_model_subscriptions_get
                0x0001c180       0x7c examples/dfu/CMakeFiles/dfu_nrf51422_xxAC_s130_2.0.1.dir/__/__/mesh/access/src/access.c.obj
                0x0001c180                access_model_subscriptions_get
 .text.access_model_application_bind
                0x0001c1fc       0x50 examples/dfu/CMakeFiles/dfu_nrf51422_xxAC_s130_2.0.1.dir/__/__/mesh/access/src/access.c.obj
                0x0001c1fc                access_model_application_bind
 .text.access_model_application_unbind
                0x0001c24c       0x50 examples/dfu/CMakeFiles/dfu_nrf51422_xxAC_s130_2.0.1.dir/__/__/mesh/access/src/access.c.obj
                0x0001c24c                access_model_application_unbind
 .text.access_model_applications_get
                0x0001c29c       0x60 examples/dfu/CMakeFiles/dfu_nrf51422_xxAC_s130_2.0.1.dir/__/__/mesh/access/src/access.c.obj
                0x0001c29c                access_model_applications_get
 .text.access_model_publish_application_set
                0x0001c2fc       0x3c examples/dfu/CMakeFiles/dfu_nrf51422_xxAC_s130_2.0.1.dir/__/__/mesh/access/src/access.c.obj
                0x0001c2fc                access_model_publish_application_set
 .text.access_model_publish_application_get
                0x0001c338       0x2c examples/dfu/CMakeFiles/dfu_nrf51422_xxAC_s130_2.0.1.dir/__/__/mesh/access/src/access.c.obj
                0x0001c338                access_model_publish_application_get
 .text.access_model_publish_ttl_set
                0x0001c364       0x44 examples/dfu/CMakeFiles/dfu_nrf51422_xxAC_s130_2.0.1.dir/__/__/mesh/access/src/access.c.obj
                0x0001c364                access_model_publish_ttl_set
 .text.access_model_publish_ttl_get
                0x0001c3a8       0x2c examples/dfu/CMakeFiles/dfu_nrf51422_xxAC_s130_2.0.1.dir/__/__/mesh/access/src/access.c.obj
                0x0001c3a8                access_model_publish_ttl_get
 .text.access_element_location_set
                0x0001c3d4       0x28 examples/dfu/CMakeFiles/dfu_nrf51422_xxAC_s130_2.0.1.dir/__/__/mesh/access/src/access.c.obj
                0x0001c3d4                access_element_location_set
 .text.access_element_location_get
                0x0001c3fc       0x1c examples/dfu/CMakeFiles/dfu_nrf51422_xxAC_s130_2.0.1.dir/__/__/mesh/access/src/access.c.obj
                0x0001c3fc                access_element_location_get
 .text.access_element_sig_model_count_get
                0x0001c418       0x1c examples/dfu/CMakeFiles/dfu_nrf51422_xxAC_s130_2.0.1.dir/__/__/mesh/access/src/access.c.obj
                0x0001c418                access_element_sig_model_count_get
 .text.access_element_vendor_model_count_get
                0x0001c434       0x1c examples/dfu/CMakeFiles/dfu_nrf51422_xxAC_s130_2.0.1.dir/__/__/mesh/access/src/access.c.obj
                0x0001c434                access_element_vendor_model_count_get
 .text.access_model_id_get
                0x0001c450       0x38 examples/dfu/CMakeFiles/dfu_nrf51422_xxAC_s130_2.0.1.dir/__/__/mesh/access/src/access.c.obj
                0x0001c450                access_model_id_get
 .text.access_handle_get
                0x0001c488       0x54 examples/dfu/CMakeFiles/dfu_nrf51422_xxAC_s130_2.0.1.dir/__/__/mesh/access/src/access.c.obj
                0x0001c488                access_handle_get
 .text.access_element_models_get
                0x0001c4dc       0x60 examples/dfu/CMakeFiles/dfu_nrf51422_xxAC_s130_2.0.1.dir/__/__/mesh/access/src/access.c.obj
                0x0001c4dc                access_element_models_get
 .text.access_reliable_cancel_all
                0x0001c53c       0x34 examples/dfu/CMakeFiles/dfu_nrf51422_xxAC_s130_2.0.1.dir/__/__/mesh/access/src/access_reliable.c.obj
                0x0001c53c                access_reliable_cancel_all
 .text.bitfield_get
                0x0001c570       0x18 examples/dfu/CMakeFiles/dfu_nrf51422_xxAC_s130_2.0.1.dir/__/__/mesh/access/src/device_state_manager.c.obj
 .text.bitfield_set
                0x0001c588       0x16 examples/dfu/CMakeFiles/dfu_nrf51422_xxAC_s130_2.0.1.dir/__/__/mesh/access/src/device_state_manager.c.obj
 .text.bitfield_clear
                0x0001c59e       0x16 examples/dfu/CMakeFiles/dfu_nrf51422_xxAC_s130_2.0.1.dir/__/__/mesh/access/src/device_state_manager.c.obj
 .text.address_handle_virtual_valid
                0x0001c5b4       0x1c examples/dfu/CMakeFiles/dfu_nrf51422_xxAC_s130_2.0.1.dir/__/__/mesh/access/src/device_state_manager.c.obj
 .text.net_key_handle_get
                0x0001c5d0       0x4c examples/dfu/CMakeFiles/dfu_nrf51422_xxAC_s130_2.0.1.dir/__/__/mesh/access/src/device_state_manager.c.obj
 .text.dev_key_handle_get
                0x0001c61c       0x34 examples/dfu/CMakeFiles/dfu_nrf51422_xxAC_s130_2.0.1.dir/__/__/mesh/access/src/device_state_manager.c.obj
 .text.app_key_handle_get
                0x0001c650       0x4c examples/dfu/CMakeFiles/dfu_nrf51422_xxAC_s130_2.0.1.dir/__/__/mesh/access/src/device_state_manager.c.obj
 .text.addr_nonvirtual_to_flash_entry
                0x0001c69c       0x10 examples/dfu/CMakeFiles/dfu_nrf51422_xxAC_s130_2.0.1.dir/__/__/mesh/access/src/device_state_manager.c.obj
 .text.flash_mem_listener_callback
                0x0001c6ac       0x20 examples/dfu/CMakeFiles/dfu_nrf51422_xxAC_s130_2.0.1.dir/__/__/mesh/access/src/device_state_manager.c.obj
 .text.devkey_set
                0x0001c6cc       0x4c examples/dfu/CMakeFiles/dfu_nrf51422_xxAC_s130_2.0.1.dir/__/__/mesh/access/src/device_state_manager.c.obj
 .text.devkey_to_dsm_entry
                0x0001c718       0x14 examples/dfu/CMakeFiles/dfu_nrf51422_xxAC_s130_2.0.1.dir/__/__/mesh/access/src/device_state_manager.c.obj
 .text.devkey_to_flash_entry
                0x0001c72c       0x28 examples/dfu/CMakeFiles/dfu_nrf51422_xxAC_s130_2.0.1.dir/__/__/mesh/access/src/device_state_manager.c.obj
 .text.appkey_to_flash_entry
                0x0001c754       0x28 examples/dfu/CMakeFiles/dfu_nrf51422_xxAC_s130_2.0.1.dir/__/__/mesh/access/src/device_state_manager.c.obj
 .text.subnet_to_flash_entry
                0x0001c77c       0x20 examples/dfu/CMakeFiles/dfu_nrf51422_xxAC_s130_2.0.1.dir/__/__/mesh/access/src/device_state_manager.c.obj
 .text.addr_virtual_to_flash_entry
                0x0001c79c       0x1c examples/dfu/CMakeFiles/dfu_nrf51422_xxAC_s130_2.0.1.dir/__/__/mesh/access/src/device_state_manager.c.obj
 .text.addr_unicast_to_dsm_entry
                0x0001c7b8       0x10 examples/dfu/CMakeFiles/dfu_nrf51422_xxAC_s130_2.0.1.dir/__/__/mesh/access/src/device_state_manager.c.obj
 .text.addr_unicast_to_flash_entry
                0x0001c7c8       0x14 examples/dfu/CMakeFiles/dfu_nrf51422_xxAC_s130_2.0.1.dir/__/__/mesh/access/src/device_state_manager.c.obj
 .text.appkey_set
                0x0001c7dc       0x74 examples/dfu/CMakeFiles/dfu_nrf51422_xxAC_s130_2.0.1.dir/__/__/mesh/access/src/device_state_manager.c.obj
 .text.appkey_to_dsm_entry
                0x0001c850       0x12 examples/dfu/CMakeFiles/dfu_nrf51422_xxAC_s130_2.0.1.dir/__/__/mesh/access/src/device_state_manager.c.obj
 *fill*         0x0001c862        0x2 
 .text.subnet_set
                0x0001c864       0xa0 examples/dfu/CMakeFiles/dfu_nrf51422_xxAC_s130_2.0.1.dir/__/__/mesh/access/src/device_state_manager.c.obj
 .text.subnet_to_dsm_entry
                0x0001c904       0x10 examples/dfu/CMakeFiles/dfu_nrf51422_xxAC_s130_2.0.1.dir/__/__/mesh/access/src/device_state_manager.c.obj
 .text.virtual_address_set
                0x0001c914       0x58 examples/dfu/CMakeFiles/dfu_nrf51422_xxAC_s130_2.0.1.dir/__/__/mesh/access/src/device_state_manager.c.obj
 .text.addr_virtual_to_dsm_entry
                0x0001c96c       0x10 examples/dfu/CMakeFiles/dfu_nrf51422_xxAC_s130_2.0.1.dir/__/__/mesh/access/src/device_state_manager.c.obj
 .text.flash_save
                0x0001c97c       0x88 examples/dfu/CMakeFiles/dfu_nrf51422_xxAC_s130_2.0.1.dir/__/__/mesh/access/src/device_state_manager.c.obj
 .text.flash_invalidate
                0x0001ca04       0x6c examples/dfu/CMakeFiles/dfu_nrf51422_xxAC_s130_2.0.1.dir/__/__/mesh/access/src/device_state_manager.c.obj
 .text.reset_flash_area
                0x0001ca70       0x28 examples/dfu/CMakeFiles/dfu_nrf51422_xxAC_s130_2.0.1.dir/__/__/mesh/access/src/device_state_manager.c.obj
 .text.virtual_address_uuid_index_get
                0x0001ca98       0x58 examples/dfu/CMakeFiles/dfu_nrf51422_xxAC_s130_2.0.1.dir/__/__/mesh/access/src/device_state_manager.c.obj
 .text.add_address_virtual
                0x0001caf0       0x80 examples/dfu/CMakeFiles/dfu_nrf51422_xxAC_s130_2.0.1.dir/__/__/mesh/access/src/device_state_manager.c.obj
 .text.get_subnet_handle
                0x0001cb70       0x44 examples/dfu/CMakeFiles/dfu_nrf51422_xxAC_s130_2.0.1.dir/__/__/mesh/access/src/device_state_manager.c.obj
 .text.get_app_handle
                0x0001cbb4       0x50 examples/dfu/CMakeFiles/dfu_nrf51422_xxAC_s130_2.0.1.dir/__/__/mesh/access/src/device_state_manager.c.obj
 .text.add_address.part.5
                0x0001cc04      0x150 examples/dfu/CMakeFiles/dfu_nrf51422_xxAC_s130_2.0.1.dir/__/__/mesh/access/src/device_state_manager.c.obj
 .text.address_handle_valid
                0x0001cd54       0x28 examples/dfu/CMakeFiles/dfu_nrf51422_xxAC_s130_2.0.1.dir/__/__/mesh/access/src/device_state_manager.c.obj
 .text.address_handle_nonvirtual_valid
                0x0001cd7c       0x18 examples/dfu/CMakeFiles/dfu_nrf51422_xxAC_s130_2.0.1.dir/__/__/mesh/access/src/device_state_manager.c.obj
 .text.address_delete_if_unused
                0x0001cd94       0x7c examples/dfu/CMakeFiles/dfu_nrf51422_xxAC_s130_2.0.1.dir/__/__/mesh/access/src/device_state_manager.c.obj
 .text.addr_nonvirtual_to_dsm_entry
                0x0001ce10       0x34 examples/dfu/CMakeFiles/dfu_nrf51422_xxAC_s130_2.0.1.dir/__/__/mesh/access/src/device_state_manager.c.obj
 .text.dsm_clear
                0x0001ce44       0x74 examples/dfu/CMakeFiles/dfu_nrf51422_xxAC_s130_2.0.1.dir/__/__/mesh/access/src/device_state_manager.c.obj
                0x0001ce44                dsm_clear
 .text.dsm_local_unicast_addresses_set
                0x0001ceb8       0x74 examples/dfu/CMakeFiles/dfu_nrf51422_xxAC_s130_2.0.1.dir/__/__/mesh/access/src/device_state_manager.c.obj
                0x0001ceb8                dsm_local_unicast_addresses_set
 .text.dsm_local_unicast_addresses_get
                0x0001cf2c       0x2c examples/dfu/CMakeFiles/dfu_nrf51422_xxAC_s130_2.0.1.dir/__/__/mesh/access/src/device_state_manager.c.obj
                0x0001cf2c                dsm_local_unicast_addresses_get
 .text.dsm_address_publish_add
                0x0001cf58       0x14 examples/dfu/CMakeFiles/dfu_nrf51422_xxAC_s130_2.0.1.dir/__/__/mesh/access/src/device_state_manager.c.obj
                0x0001cf58                dsm_address_publish_add
 .text.dsm_address_publish_virtual_add
                0x0001cf6c        0xa examples/dfu/CMakeFiles/dfu_nrf51422_xxAC_s130_2.0.1.dir/__/__/mesh/access/src/device_state_manager.c.obj
                0x0001cf6c                dsm_address_publish_virtual_add
 *fill*         0x0001cf76        0x2 
 .text.dsm_address_publish_remove
                0x0001cf78       0x44 examples/dfu/CMakeFiles/dfu_nrf51422_xxAC_s130_2.0.1.dir/__/__/mesh/access/src/device_state_manager.c.obj
                0x0001cf78                dsm_address_publish_remove
 .text.dsm_address_subscription_add
                0x0001cfbc       0x14 examples/dfu/CMakeFiles/dfu_nrf51422_xxAC_s130_2.0.1.dir/__/__/mesh/access/src/device_state_manager.c.obj
                0x0001cfbc                dsm_address_subscription_add
 .text.dsm_address_subscription_virtual_add
                0x0001cfd0        0xa examples/dfu/CMakeFiles/dfu_nrf51422_xxAC_s130_2.0.1.dir/__/__/mesh/access/src/device_state_manager.c.obj
                0x0001cfd0                dsm_address_subscription_virtual_add
 *fill*         0x0001cfda        0x2 
 .text.dsm_address_subscription_get
                0x0001cfdc       0x34 examples/dfu/CMakeFiles/dfu_nrf51422_xxAC_s130_2.0.1.dir/__/__/mesh/access/src/device_state_manager.c.obj
                0x0001cfdc                dsm_address_subscription_get
 .text.dsm_address_get
                0x0001d010       0x60 examples/dfu/CMakeFiles/dfu_nrf51422_xxAC_s130_2.0.1.dir/__/__/mesh/access/src/device_state_manager.c.obj
                0x0001d010                dsm_address_get
 .text.dsm_address_subscription_remove
                0x0001d070       0x64 examples/dfu/CMakeFiles/dfu_nrf51422_xxAC_s130_2.0.1.dir/__/__/mesh/access/src/device_state_manager.c.obj
                0x0001d070                dsm_address_subscription_remove
 .text.dsm_address_get_all
                0x0001d0d4       0x68 examples/dfu/CMakeFiles/dfu_nrf51422_xxAC_s130_2.0.1.dir/__/__/mesh/access/src/device_state_manager.c.obj
                0x0001d0d4                dsm_address_get_all
 .text.dsm_address_handle_get
                0x0001d13c       0x98 examples/dfu/CMakeFiles/dfu_nrf51422_xxAC_s130_2.0.1.dir/__/__/mesh/access/src/device_state_manager.c.obj
                0x0001d13c                dsm_address_handle_get
 .text.dsm_subnet_handle_get
                0x0001d1d4       0x14 examples/dfu/CMakeFiles/dfu_nrf51422_xxAC_s130_2.0.1.dir/__/__/mesh/access/src/device_state_manager.c.obj
                0x0001d1d4                dsm_subnet_handle_get
 .text.dsm_appkey_handle_get
                0x0001d1e8       0x14 examples/dfu/CMakeFiles/dfu_nrf51422_xxAC_s130_2.0.1.dir/__/__/mesh/access/src/device_state_manager.c.obj
                0x0001d1e8                dsm_appkey_handle_get
 .text.dsm_subnet_add
                0x0001d1fc       0x60 examples/dfu/CMakeFiles/dfu_nrf51422_xxAC_s130_2.0.1.dir/__/__/mesh/access/src/device_state_manager.c.obj
                0x0001d1fc                dsm_subnet_add
 .text.dsm_subnet_update
                0x0001d25c       0x44 examples/dfu/CMakeFiles/dfu_nrf51422_xxAC_s130_2.0.1.dir/__/__/mesh/access/src/device_state_manager.c.obj
                0x0001d25c                dsm_subnet_update
 .text.dsm_subnet_get_all
                0x0001d2a0       0x58 examples/dfu/CMakeFiles/dfu_nrf51422_xxAC_s130_2.0.1.dir/__/__/mesh/access/src/device_state_manager.c.obj
                0x0001d2a0                dsm_subnet_get_all
 .text.dsm_devkey_add
                0x0001d2f8       0x7c examples/dfu/CMakeFiles/dfu_nrf51422_xxAC_s130_2.0.1.dir/__/__/mesh/access/src/device_state_manager.c.obj
                0x0001d2f8                dsm_devkey_add
 .text.dsm_devkey_delete
                0x0001d374       0x3c examples/dfu/CMakeFiles/dfu_nrf51422_xxAC_s130_2.0.1.dir/__/__/mesh/access/src/device_state_manager.c.obj
                0x0001d374                dsm_devkey_delete
 .text.dsm_appkey_add
                0x0001d3b0       0x7c examples/dfu/CMakeFiles/dfu_nrf51422_xxAC_s130_2.0.1.dir/__/__/mesh/access/src/device_state_manager.c.obj
                0x0001d3b0                dsm_appkey_add
 .text.dsm_appkey_update
                0x0001d42c       0x48 examples/dfu/CMakeFiles/dfu_nrf51422_xxAC_s130_2.0.1.dir/__/__/mesh/access/src/device_state_manager.c.obj
                0x0001d42c                dsm_appkey_update
 .text.dsm_appkey_delete
                0x0001d474       0x34 examples/dfu/CMakeFiles/dfu_nrf51422_xxAC_s130_2.0.1.dir/__/__/mesh/access/src/device_state_manager.c.obj
                0x0001d474                dsm_appkey_delete
 .text.dsm_subnet_delete
                0x0001d4a8       0xa8 examples/dfu/CMakeFiles/dfu_nrf51422_xxAC_s130_2.0.1.dir/__/__/mesh/access/src/device_state_manager.c.obj
                0x0001d4a8                dsm_subnet_delete
 .text.dsm_appkey_get_all
                0x0001d550       0x78 examples/dfu/CMakeFiles/dfu_nrf51422_xxAC_s130_2.0.1.dir/__/__/mesh/access/src/device_state_manager.c.obj
                0x0001d550                dsm_appkey_get_all
 .text.dsm_tx_secmat_get
                0x0001d5c8       0xf8 examples/dfu/CMakeFiles/dfu_nrf51422_xxAC_s130_2.0.1.dir/__/__/mesh/access/src/device_state_manager.c.obj
                0x0001d5c8                dsm_tx_secmat_get
 .text.nrf_mesh_net_secmat_next_get
                0x0001d6c0       0x70 examples/dfu/CMakeFiles/dfu_nrf51422_xxAC_s130_2.0.1.dir/__/__/mesh/access/src/device_state_manager.c.obj
                0x0001d6c0                nrf_mesh_net_secmat_next_get
 .text.nrf_mesh_app_secmat_next_get
                0x0001d730       0xa0 examples/dfu/CMakeFiles/dfu_nrf51422_xxAC_s130_2.0.1.dir/__/__/mesh/access/src/device_state_manager.c.obj
                0x0001d730                nrf_mesh_app_secmat_next_get
 .text.nrf_mesh_devkey_secmat_get
                0x0001d7d0       0x34 examples/dfu/CMakeFiles/dfu_nrf51422_xxAC_s130_2.0.1.dir/__/__/mesh/access/src/device_state_manager.c.obj
                0x0001d7d0                nrf_mesh_devkey_secmat_get
 .text.nrf_mesh_beacon_info_next_get
                0x0001d804       0xc0 examples/dfu/CMakeFiles/dfu_nrf51422_xxAC_s130_2.0.1.dir/__/__/mesh/access/src/device_state_manager.c.obj
                0x0001d804                nrf_mesh_beacon_info_next_get
 .text.nrf_mesh_rx_address_get
                0x0001d8c4      0x108 examples/dfu/CMakeFiles/dfu_nrf51422_xxAC_s130_2.0.1.dir/__/__/mesh/access/src/device_state_manager.c.obj
                0x0001d8c4                nrf_mesh_rx_address_get
 .text.serial_uart_init
                0x0001d9cc       0xd0 examples/dfu/CMakeFiles/dfu_nrf51422_xxAC_s130_2.0.1.dir/__/__/mesh/serial/src/serial_uart.c.obj
                0x0001d9cc                serial_uart_init
 .text.serial_uart_process
                0x0001da9c       0x5c examples/dfu/CMakeFiles/dfu_nrf51422_xxAC_s130_2.0.1.dir/__/__/mesh/serial/src/serial_uart.c.obj
                0x0001da9c                serial_uart_process
 .text.UART0_IRQHandler
                0x0001daf8        0x8 examples/dfu/CMakeFiles/dfu_nrf51422_xxAC_s130_2.0.1.dir/__/__/mesh/serial/src/serial_uart.c.obj
                0x0001daf8                UART0_IRQHandler
 .text.serial_uart_receive_set
                0x0001db00        0xc examples/dfu/CMakeFiles/dfu_nrf51422_xxAC_s130_2.0.1.dir/__/__/mesh/serial/src/serial_uart.c.obj
                0x0001db00                serial_uart_receive_set
 .text.do_transmit
                0x0001db0c       0x50 examples/dfu/CMakeFiles/dfu_nrf51422_xxAC_s130_2.0.1.dir/__/__/mesh/serial/src/serial_bearer.c.obj
 .text.char_tx  0x0001db5c       0x8c examples/dfu/CMakeFiles/dfu_nrf51422_xxAC_s130_2.0.1.dir/__/__/mesh/serial/src/serial_bearer.c.obj
 .text.serial_bearer_init
                0x0001dbe8       0x84 examples/dfu/CMakeFiles/dfu_nrf51422_xxAC_s130_2.0.1.dir/__/__/mesh/serial/src/serial_bearer.c.obj
                0x0001dbe8                serial_bearer_init
 .text.serial_bearer_packet_buffer_get
                0x0001dc6c       0x24 examples/dfu/CMakeFiles/dfu_nrf51422_xxAC_s130_2.0.1.dir/__/__/mesh/serial/src/serial_bearer.c.obj
                0x0001dc6c                serial_bearer_packet_buffer_get
 .text.serial_bearer_blocking_buffer_get
                0x0001dc90       0x3c examples/dfu/CMakeFiles/dfu_nrf51422_xxAC_s130_2.0.1.dir/__/__/mesh/serial/src/serial_bearer.c.obj
                0x0001dc90                serial_bearer_blocking_buffer_get
 .text.serial_bearer_tx
                0x0001dccc       0x70 examples/dfu/CMakeFiles/dfu_nrf51422_xxAC_s130_2.0.1.dir/__/__/mesh/serial/src/serial_bearer.c.obj
                0x0001dccc                serial_bearer_tx
 .text.send_cmd_response.constprop.5
                0x0001dd3c       0x26 examples/dfu/CMakeFiles/dfu_nrf51422_xxAC_s130_2.0.1.dir/__/__/mesh/serial/src/serial_bearer.c.obj
 *fill*         0x0001dd62        0x2 
 .text.char_rx  0x0001dd64       0xa0 examples/dfu/CMakeFiles/dfu_nrf51422_xxAC_s130_2.0.1.dir/__/__/mesh/serial/src/serial_bearer.c.obj
 .text.serial_bearer_rx_get
                0x0001de04       0x38 examples/dfu/CMakeFiles/dfu_nrf51422_xxAC_s130_2.0.1.dir/__/__/mesh/serial/src/serial_bearer.c.obj
                0x0001de04                serial_bearer_rx_get
 .text.serial_handler_common_cmd_rsp_nodata_on_error
                0x0001de3c       0x2c examples/dfu/CMakeFiles/dfu_nrf51422_xxAC_s130_2.0.1.dir/__/__/mesh/serial/src/serial_handler_common.c.obj
                0x0001de3c                serial_handler_common_cmd_rsp_nodata_on_error
 .text.serial_handler_common_rx
                0x0001de68       0x4c examples/dfu/CMakeFiles/dfu_nrf51422_xxAC_s130_2.0.1.dir/__/__/mesh/serial/src/serial_handler_common.c.obj
                0x0001de68                serial_handler_common_rx
 .text.access_flash_store
                0x0001deb4       0x16 examples/dfu/CMakeFiles/dfu_nrf51422_xxAC_s130_2.0.1.dir/__/__/mesh/serial/src/serial_handler_access.c.obj
 .text.elem_models_get
                0x0001deca       0x44 examples/dfu/CMakeFiles/dfu_nrf51422_xxAC_s130_2.0.1.dir/__/__/mesh/serial/src/serial_handler_access.c.obj
 .text.handle_get
                0x0001df0e       0x36 examples/dfu/CMakeFiles/dfu_nrf51422_xxAC_s130_2.0.1.dir/__/__/mesh/serial/src/serial_handler_access.c.obj
 .text.model_id_get
                0x0001df44       0x20 examples/dfu/CMakeFiles/dfu_nrf51422_xxAC_s130_2.0.1.dir/__/__/mesh/serial/src/serial_handler_access.c.obj
 .text.elem_vendor_model_cnt_get
                0x0001df64       0x20 examples/dfu/CMakeFiles/dfu_nrf51422_xxAC_s130_2.0.1.dir/__/__/mesh/serial/src/serial_handler_access.c.obj
 .text.elem_sig_model_cnt_get
                0x0001df84       0x20 examples/dfu/CMakeFiles/dfu_nrf51422_xxAC_s130_2.0.1.dir/__/__/mesh/serial/src/serial_handler_access.c.obj
 .text.elem_loc_get
                0x0001dfa4       0x20 examples/dfu/CMakeFiles/dfu_nrf51422_xxAC_s130_2.0.1.dir/__/__/mesh/serial/src/serial_handler_access.c.obj
 .text.elem_loc_set
                0x0001dfc4       0x2c examples/dfu/CMakeFiles/dfu_nrf51422_xxAC_s130_2.0.1.dir/__/__/mesh/serial/src/serial_handler_access.c.obj
 .text.model_pub_ttl_get
                0x0001dff0       0x20 examples/dfu/CMakeFiles/dfu_nrf51422_xxAC_s130_2.0.1.dir/__/__/mesh/serial/src/serial_handler_access.c.obj
 .text.model_pub_ttl_set
                0x0001e010       0x26 examples/dfu/CMakeFiles/dfu_nrf51422_xxAC_s130_2.0.1.dir/__/__/mesh/serial/src/serial_handler_access.c.obj
 .text.model_pub_app_get
                0x0001e036       0x20 examples/dfu/CMakeFiles/dfu_nrf51422_xxAC_s130_2.0.1.dir/__/__/mesh/serial/src/serial_handler_access.c.obj
 .text.model_pub_app_set
                0x0001e056       0x2c examples/dfu/CMakeFiles/dfu_nrf51422_xxAC_s130_2.0.1.dir/__/__/mesh/serial/src/serial_handler_access.c.obj
 .text.model_app_get
                0x0001e082       0x44 examples/dfu/CMakeFiles/dfu_nrf51422_xxAC_s130_2.0.1.dir/__/__/mesh/serial/src/serial_handler_access.c.obj
 .text.model_app_unbind
                0x0001e0c6       0x2c examples/dfu/CMakeFiles/dfu_nrf51422_xxAC_s130_2.0.1.dir/__/__/mesh/serial/src/serial_handler_access.c.obj
 .text.model_app_bind
                0x0001e0f2       0x2c examples/dfu/CMakeFiles/dfu_nrf51422_xxAC_s130_2.0.1.dir/__/__/mesh/serial/src/serial_handler_access.c.obj
 .text.model_subs_get
                0x0001e11e       0x44 examples/dfu/CMakeFiles/dfu_nrf51422_xxAC_s130_2.0.1.dir/__/__/mesh/serial/src/serial_handler_access.c.obj
 .text.model_subs_remove
                0x0001e162       0x2c examples/dfu/CMakeFiles/dfu_nrf51422_xxAC_s130_2.0.1.dir/__/__/mesh/serial/src/serial_handler_access.c.obj
 .text.model_subs_add
                0x0001e18e       0x2c examples/dfu/CMakeFiles/dfu_nrf51422_xxAC_s130_2.0.1.dir/__/__/mesh/serial/src/serial_handler_access.c.obj
 .text.model_pub_period_get
                0x0001e1ba       0x24 examples/dfu/CMakeFiles/dfu_nrf51422_xxAC_s130_2.0.1.dir/__/__/mesh/serial/src/serial_handler_access.c.obj
 .text.model_pub_period_set
                0x0001e1de       0x28 examples/dfu/CMakeFiles/dfu_nrf51422_xxAC_s130_2.0.1.dir/__/__/mesh/serial/src/serial_handler_access.c.obj
 .text.model_pub_addr_get
                0x0001e206       0x20 examples/dfu/CMakeFiles/dfu_nrf51422_xxAC_s130_2.0.1.dir/__/__/mesh/serial/src/serial_handler_access.c.obj
 .text.model_pub_addr_set
                0x0001e226       0x2c examples/dfu/CMakeFiles/dfu_nrf51422_xxAC_s130_2.0.1.dir/__/__/mesh/serial/src/serial_handler_access.c.obj
 *fill*         0x0001e252        0x2 
 .text.serial_handler_access_rx
                0x0001e254       0x30 examples/dfu/CMakeFiles/dfu_nrf51422_xxAC_s130_2.0.1.dir/__/__/mesh/serial/src/serial_handler_access.c.obj
                0x0001e254                serial_handler_access_rx
 .text.serial_handler_config_rx
                0x0001e284       0xb0 examples/dfu/CMakeFiles/dfu_nrf51422_xxAC_s130_2.0.1.dir/__/__/mesh/serial/src/serial_handler_config.c.obj
                0x0001e284                serial_handler_config_rx
 .text.serial_handler_openmesh_rx
                0x0001e334       0x32 examples/dfu/CMakeFiles/dfu_nrf51422_xxAC_s130_2.0.1.dir/__/__/mesh/serial/src/serial_handler_openmesh.c.obj
                0x0001e334                serial_handler_openmesh_rx
 *fill*         0x0001e366        0x2 
 .text.serial_init
                0x0001e368       0x1c examples/dfu/CMakeFiles/dfu_nrf51422_xxAC_s130_2.0.1.dir/__/__/mesh/serial/src/serial.c.obj
                0x0001e368                serial_init
 .text.serial_packet_buffer_get
                0x0001e384       0x1c examples/dfu/CMakeFiles/dfu_nrf51422_xxAC_s130_2.0.1.dir/__/__/mesh/serial/src/serial.c.obj
                0x0001e384                serial_packet_buffer_get
 .text.serial_tx
                0x0001e3a0       0x2c examples/dfu/CMakeFiles/dfu_nrf51422_xxAC_s130_2.0.1.dir/__/__/mesh/serial/src/serial.c.obj
                0x0001e3a0                serial_tx
 .text.serial_start
                0x0001e3cc      0x10c examples/dfu/CMakeFiles/dfu_nrf51422_xxAC_s130_2.0.1.dir/__/__/mesh/serial/src/serial.c.obj
                0x0001e3cc                serial_start
 .text.serial_process_cmd
                0x0001e4d8      0x128 examples/dfu/CMakeFiles/dfu_nrf51422_xxAC_s130_2.0.1.dir/__/__/mesh/serial/src/serial.c.obj
 .text.serial_process
                0x0001e600       0x34 examples/dfu/CMakeFiles/dfu_nrf51422_xxAC_s130_2.0.1.dir/__/__/mesh/serial/src/serial.c.obj
                0x0001e600                serial_process
 .text.serial_translate_error
                0x0001e634       0x74 examples/dfu/CMakeFiles/dfu_nrf51422_xxAC_s130_2.0.1.dir/__/__/mesh/serial/src/serial.c.obj
                0x0001e634                serial_translate_error
 .text.serial_state_get
                0x0001e6a8        0xc examples/dfu/CMakeFiles/dfu_nrf51422_xxAC_s130_2.0.1.dir/__/__/mesh/serial/src/serial.c.obj
                0x0001e6a8                serial_state_get
 .text.serial_cmd_rsp_send
                0x0001e6b4       0x6c examples/dfu/CMakeFiles/dfu_nrf51422_xxAC_s130_2.0.1.dir/__/__/mesh/serial/src/serial.c.obj
                0x0001e6b4                serial_cmd_rsp_send
 .text.find_context_id
                0x0001e720       0x24 examples/dfu/CMakeFiles/dfu_nrf51422_xxAC_s130_2.0.1.dir/__/__/mesh/serial/src/serial_handler_prov.c.obj
 .text.serial_handler_prov_evt_in
                0x0001e744      0x2c0 examples/dfu/CMakeFiles/dfu_nrf51422_xxAC_s130_2.0.1.dir/__/__/mesh/serial/src/serial_handler_prov.c.obj
 .text.serial_handler_prov_init
                0x0001ea04       0x90 examples/dfu/CMakeFiles/dfu_nrf51422_xxAC_s130_2.0.1.dir/__/__/mesh/serial/src/serial_handler_prov.c.obj
                0x0001ea04                serial_handler_prov_init
 .text.serial_handler_prov_pkt_in
                0x0001ea94      0x220 examples/dfu/CMakeFiles/dfu_nrf51422_xxAC_s130_2.0.1.dir/__/__/mesh/serial/src/serial_handler_prov.c.obj
                0x0001ea94                serial_handler_prov_pkt_in
 .text.serial_handler_mesh_evt_handle
                0x0001ecb4      0x1b8 examples/dfu/CMakeFiles/dfu_nrf51422_xxAC_s130_2.0.1.dir/__/__/mesh/serial/src/serial_handler_dfu.c.obj
 .text.serial_handler_dfu_init
                0x0001ee6c       0x18 examples/dfu/CMakeFiles/dfu_nrf51422_xxAC_s130_2.0.1.dir/__/__/mesh/serial/src/serial_handler_dfu.c.obj
                0x0001ee6c                serial_handler_dfu_init
 .text.serial_handler_dfu_rx
                0x0001ee84      0x158 examples/dfu/CMakeFiles/dfu_nrf51422_xxAC_s130_2.0.1.dir/__/__/mesh/serial/src/serial_handler_dfu.c.obj
                0x0001ee84                serial_handler_dfu_rx
 .text.serial_handler_mesh_evt_handle
                0x0001efdc      0x178 examples/dfu/CMakeFiles/dfu_nrf51422_xxAC_s130_2.0.1.dir/__/__/mesh/serial/src/serial_handler_mesh.c.obj
 .text.handle_cmd_clear
                0x0001f154       0x1e examples/dfu/CMakeFiles/dfu_nrf51422_xxAC_s130_2.0.1.dir/__/__/mesh/serial/src/serial_handler_mesh.c.obj
 .text.handle_cmd_packet_send
                0x0001f172       0x92 examples/dfu/CMakeFiles/dfu_nrf51422_xxAC_s130_2.0.1.dir/__/__/mesh/serial/src/serial_handler_mesh.c.obj
 .text.handle_cmd_addr_virtual_count_max_get
                0x0001f204       0x14 examples/dfu/CMakeFiles/dfu_nrf51422_xxAC_s130_2.0.1.dir/__/__/mesh/serial/src/serial_handler_mesh.c.obj
 .text.handle_cmd_appkey_count_max_get
                0x0001f218        0x8 examples/dfu/CMakeFiles/dfu_nrf51422_xxAC_s130_2.0.1.dir/__/__/mesh/serial/src/serial_handler_mesh.c.obj
 .text.handle_cmd_addr_nonvirtual_count_max_get
                0x0001f220       0x14 examples/dfu/CMakeFiles/dfu_nrf51422_xxAC_s130_2.0.1.dir/__/__/mesh/serial/src/serial_handler_mesh.c.obj
 .text.handle_cmd_addr_local_unicast_get
                0x0001f234       0x24 examples/dfu/CMakeFiles/dfu_nrf51422_xxAC_s130_2.0.1.dir/__/__/mesh/serial/src/serial_handler_mesh.c.obj
 .text.handle_cmd_devkey_count_max_get
                0x0001f258       0x14 examples/dfu/CMakeFiles/dfu_nrf51422_xxAC_s130_2.0.1.dir/__/__/mesh/serial/src/serial_handler_mesh.c.obj
 .text.handle_cmd_subnet_count_max_get
                0x0001f26c       0x14 examples/dfu/CMakeFiles/dfu_nrf51422_xxAC_s130_2.0.1.dir/__/__/mesh/serial/src/serial_handler_mesh.c.obj
 .text.handle_cmd_addr_get_all
                0x0001f280       0x26 examples/dfu/CMakeFiles/dfu_nrf51422_xxAC_s130_2.0.1.dir/__/__/mesh/serial/src/serial_handler_mesh.c.obj
 .text.handle_cmd_addr_get
                0x0001f2a6       0x68 examples/dfu/CMakeFiles/dfu_nrf51422_xxAC_s130_2.0.1.dir/__/__/mesh/serial/src/serial_handler_mesh.c.obj
 .text.handle_cmd_addr_publication_remove
                0x0001f30e       0x28 examples/dfu/CMakeFiles/dfu_nrf51422_xxAC_s130_2.0.1.dir/__/__/mesh/serial/src/serial_handler_mesh.c.obj
 .text.handle_cmd_addr_publication_add_virtual
                0x0001f336       0x22 examples/dfu/CMakeFiles/dfu_nrf51422_xxAC_s130_2.0.1.dir/__/__/mesh/serial/src/serial_handler_mesh.c.obj
 .text.handle_cmd_addr_publication_add
                0x0001f358       0x28 examples/dfu/CMakeFiles/dfu_nrf51422_xxAC_s130_2.0.1.dir/__/__/mesh/serial/src/serial_handler_mesh.c.obj
 .text.handle_cmd_addr_subscription_remove
                0x0001f380       0x28 examples/dfu/CMakeFiles/dfu_nrf51422_xxAC_s130_2.0.1.dir/__/__/mesh/serial/src/serial_handler_mesh.c.obj
 .text.handle_cmd_addr_subscription_add_virtual
                0x0001f3a8       0x22 examples/dfu/CMakeFiles/dfu_nrf51422_xxAC_s130_2.0.1.dir/__/__/mesh/serial/src/serial_handler_mesh.c.obj
 .text.handle_cmd_addr_subscription_add
                0x0001f3ca       0x28 examples/dfu/CMakeFiles/dfu_nrf51422_xxAC_s130_2.0.1.dir/__/__/mesh/serial/src/serial_handler_mesh.c.obj
 .text.handle_cmd_addr_local_unicast_set
                0x0001f3f2       0x2c examples/dfu/CMakeFiles/dfu_nrf51422_xxAC_s130_2.0.1.dir/__/__/mesh/serial/src/serial_handler_mesh.c.obj
 .text.handle_cmd_devkey_delete
                0x0001f41e       0x28 examples/dfu/CMakeFiles/dfu_nrf51422_xxAC_s130_2.0.1.dir/__/__/mesh/serial/src/serial_handler_mesh.c.obj
 .text.handle_cmd_devkey_add
                0x0001f446       0x2a examples/dfu/CMakeFiles/dfu_nrf51422_xxAC_s130_2.0.1.dir/__/__/mesh/serial/src/serial_handler_mesh.c.obj
 .text.handle_cmd_appkey_get_all
                0x0001f470       0x3c examples/dfu/CMakeFiles/dfu_nrf51422_xxAC_s130_2.0.1.dir/__/__/mesh/serial/src/serial_handler_mesh.c.obj
 .text.handle_cmd_appkey_delete
                0x0001f4ac       0x28 examples/dfu/CMakeFiles/dfu_nrf51422_xxAC_s130_2.0.1.dir/__/__/mesh/serial/src/serial_handler_mesh.c.obj
 .text.handle_cmd_appkey_update
                0x0001f4d4       0x2a examples/dfu/CMakeFiles/dfu_nrf51422_xxAC_s130_2.0.1.dir/__/__/mesh/serial/src/serial_handler_mesh.c.obj
 .text.handle_cmd_appkey_add
                0x0001f4fe       0x32 examples/dfu/CMakeFiles/dfu_nrf51422_xxAC_s130_2.0.1.dir/__/__/mesh/serial/src/serial_handler_mesh.c.obj
 .text.handle_cmd_subnet_get_all
                0x0001f530       0x2c examples/dfu/CMakeFiles/dfu_nrf51422_xxAC_s130_2.0.1.dir/__/__/mesh/serial/src/serial_handler_mesh.c.obj
 .text.handle_cmd_subnet_delete
                0x0001f55c       0x28 examples/dfu/CMakeFiles/dfu_nrf51422_xxAC_s130_2.0.1.dir/__/__/mesh/serial/src/serial_handler_mesh.c.obj
 .text.handle_cmd_subnet_update
                0x0001f584       0x2a examples/dfu/CMakeFiles/dfu_nrf51422_xxAC_s130_2.0.1.dir/__/__/mesh/serial/src/serial_handler_mesh.c.obj
 .text.handle_cmd_subnet_add
                0x0001f5ae       0x2a examples/dfu/CMakeFiles/dfu_nrf51422_xxAC_s130_2.0.1.dir/__/__/mesh/serial/src/serial_handler_mesh.c.obj
 .text.handle_cmd_disable
                0x0001f5d8       0x16 examples/dfu/CMakeFiles/dfu_nrf51422_xxAC_s130_2.0.1.dir/__/__/mesh/serial/src/serial_handler_mesh.c.obj
 .text.handle_cmd_enable
                0x0001f5ee       0x16 examples/dfu/CMakeFiles/dfu_nrf51422_xxAC_s130_2.0.1.dir/__/__/mesh/serial/src/serial_handler_mesh.c.obj
 .text.serial_handler_mesh_init
                0x0001f604       0x18 examples/dfu/CMakeFiles/dfu_nrf51422_xxAC_s130_2.0.1.dir/__/__/mesh/serial/src/serial_handler_mesh.c.obj
                0x0001f604                serial_handler_mesh_init
 .text.serial_handler_mesh_rx
                0x0001f61c       0x7c examples/dfu/CMakeFiles/dfu_nrf51422_xxAC_s130_2.0.1.dir/__/__/mesh/serial/src/serial_handler_mesh.c.obj
                0x0001f61c                serial_handler_mesh_rx
 .text.registered_model_get
                0x0001f698       0x3c examples/dfu/CMakeFiles/dfu_nrf51422_xxAC_s130_2.0.1.dir/__/__/mesh/serial/src/serial_handler_models.c.obj
 .text.model_command
                0x0001f6d4       0x64 examples/dfu/CMakeFiles/dfu_nrf51422_xxAC_s130_2.0.1.dir/__/__/mesh/serial/src/serial_handler_models.c.obj
 .text.model_init
                0x0001f738       0x36 examples/dfu/CMakeFiles/dfu_nrf51422_xxAC_s130_2.0.1.dir/__/__/mesh/serial/src/serial_handler_models.c.obj
 *fill*         0x0001f76e        0x2 
 .text.models_get
                0x0001f770       0x80 examples/dfu/CMakeFiles/dfu_nrf51422_xxAC_s130_2.0.1.dir/__/__/mesh/serial/src/serial_handler_models.c.obj
 .text.serial_handler_models_rx
                0x0001f7f0       0x30 examples/dfu/CMakeFiles/dfu_nrf51422_xxAC_s130_2.0.1.dir/__/__/mesh/serial/src/serial_handler_models.c.obj
                0x0001f7f0                serial_handler_models_rx
 .text.handle_cmd_device_beacon_params_get
                0x0001f820       0x94 examples/dfu/CMakeFiles/dfu_nrf51422_xxAC_s130_2.0.1.dir/__/__/mesh/serial/src/serial_handler_device.c.obj
 .text.handle_cmd_device_fw_info_get
                0x0001f8b4       0x10 examples/dfu/CMakeFiles/dfu_nrf51422_xxAC_s130_2.0.1.dir/__/__/mesh/serial/src/serial_handler_device.c.obj
 .text.handle_cmd_device_serial_version_get
                0x0001f8c4       0x14 examples/dfu/CMakeFiles/dfu_nrf51422_xxAC_s130_2.0.1.dir/__/__/mesh/serial/src/serial_handler_device.c.obj
 .text.handle_cmd_device_beacon_params_set
                0x0001f8d8       0x88 examples/dfu/CMakeFiles/dfu_nrf51422_xxAC_s130_2.0.1.dir/__/__/mesh/serial/src/serial_handler_device.c.obj
 .text.handle_cmd_device_beacon_stop
                0x0001f960       0x40 examples/dfu/CMakeFiles/dfu_nrf51422_xxAC_s130_2.0.1.dir/__/__/mesh/serial/src/serial_handler_device.c.obj
 .text.handle_cmd_device_beacon_start
                0x0001f9a0       0x68 examples/dfu/CMakeFiles/dfu_nrf51422_xxAC_s130_2.0.1.dir/__/__/mesh/serial/src/serial_handler_device.c.obj
 .text.handle_cmd_device_radio_reset
                0x0001fa08       0x18 examples/dfu/CMakeFiles/dfu_nrf51422_xxAC_s130_2.0.1.dir/__/__/mesh/serial/src/serial_handler_device.c.obj
 .text.handle_cmd_device_internal_events_report
                0x0001fa20       0x1c examples/dfu/CMakeFiles/dfu_nrf51422_xxAC_s130_2.0.1.dir/__/__/mesh/serial/src/serial_handler_device.c.obj
 .text.event_report_cb
                0x0001fa3c       0x5c examples/dfu/CMakeFiles/dfu_nrf51422_xxAC_s130_2.0.1.dir/__/__/mesh/serial/src/serial_handler_device.c.obj
 .text.handle_cmd_device_echo
                0x0001fa98       0x40 examples/dfu/CMakeFiles/dfu_nrf51422_xxAC_s130_2.0.1.dir/__/__/mesh/serial/src/serial_handler_device.c.obj
 .text.serial_handler_device_init
                0x0001fad8       0x18 examples/dfu/CMakeFiles/dfu_nrf51422_xxAC_s130_2.0.1.dir/__/__/mesh/serial/src/serial_handler_device.c.obj
                0x0001fad8                serial_handler_device_init
 .text.serial_handler_device_rx
                0x0001faf0       0x30 examples/dfu/CMakeFiles/dfu_nrf51422_xxAC_s130_2.0.1.dir/__/__/mesh/serial/src/serial_handler_device.c.obj
                0x0001faf0                serial_handler_device_rx
 .text.nrf_mesh_serial_init
                0x0001fb20       0x38 examples/dfu/CMakeFiles/dfu_nrf51422_xxAC_s130_2.0.1.dir/__/__/mesh/serial/src/nrf_mesh_serial.c.obj
                0x0001fb20                nrf_mesh_serial_init
 .text.nrf_mesh_serial_enable
                0x0001fb58        0x8 examples/dfu/CMakeFiles/dfu_nrf51422_xxAC_s130_2.0.1.dir/__/__/mesh/serial/src/nrf_mesh_serial.c.obj
                0x0001fb58                nrf_mesh_serial_enable
 .text.serial_handler_app_cb_set
                0x0001fb60        0xc examples/dfu/CMakeFiles/dfu_nrf51422_xxAC_s130_2.0.1.dir/__/__/mesh/serial/src/serial_handler_app.c.obj
                0x0001fb60                serial_handler_app_cb_set
 .text.serial_handler_app_rx
                0x0001fb6c       0x30 examples/dfu/CMakeFiles/dfu_nrf51422_xxAC_s130_2.0.1.dir/__/__/mesh/serial/src/serial_handler_app.c.obj
                0x0001fb6c                serial_handler_app_rx
 .text.send_confirmation
                0x0001fb9c       0x34 examples/dfu/CMakeFiles/dfu_nrf51422_xxAC_s130_2.0.1.dir/__/__/mesh/prov/src/prov_provisioner.c.obj
 .text.prov_provisioner_cb_link_closed
                0x0001fbd0       0x28 examples/dfu/CMakeFiles/dfu_nrf51422_xxAC_s130_2.0.1.dir/__/__/mesh/prov/src/prov_provisioner.c.obj
 .text.prov_provisioner_cb_link_established
                0x0001fbf8       0x44 examples/dfu/CMakeFiles/dfu_nrf51422_xxAC_s130_2.0.1.dir/__/__/mesh/prov/src/prov_provisioner.c.obj
 .text.prov_provisioner_cb_ack_received
                0x0001fc3c       0x50 examples/dfu/CMakeFiles/dfu_nrf51422_xxAC_s130_2.0.1.dir/__/__/mesh/prov/src/prov_provisioner.c.obj
 .text.request_authentication
                0x0001fc8c       0x98 examples/dfu/CMakeFiles/dfu_nrf51422_xxAC_s130_2.0.1.dir/__/__/mesh/prov/src/prov_provisioner.c.obj
 .text.prov_provisioner_pkt_in
                0x0001fd24      0x2ec examples/dfu/CMakeFiles/dfu_nrf51422_xxAC_s130_2.0.1.dir/__/__/mesh/prov/src/prov_provisioner.c.obj
 .text.prov_provisioner_provision
                0x00020010       0x54 examples/dfu/CMakeFiles/dfu_nrf51422_xxAC_s130_2.0.1.dir/__/__/mesh/prov/src/prov_provisioner.c.obj
                0x00020010                prov_provisioner_provision
 .text.prov_provisioner_oob_use
                0x00020064       0x8c examples/dfu/CMakeFiles/dfu_nrf51422_xxAC_s130_2.0.1.dir/__/__/mesh/prov/src/prov_provisioner.c.obj
                0x00020064                prov_provisioner_oob_use
 .text.prov_provisioner_auth_data
                0x000200f0       0x4c examples/dfu/CMakeFiles/dfu_nrf51422_xxAC_s130_2.0.1.dir/__/__/mesh/prov/src/prov_provisioner.c.obj
                0x000200f0                prov_provisioner_auth_data
 .text.prov_provisioner_shared_secret
                0x0002013c       0x2c examples/dfu/CMakeFiles/dfu_nrf51422_xxAC_s130_2.0.1.dir/__/__/mesh/prov/src/prov_provisioner.c.obj
                0x0002013c                prov_provisioner_shared_secret
 .text.complete_provisioning
                0x00020168       0x6c examples/dfu/CMakeFiles/dfu_nrf51422_xxAC_s130_2.0.1.dir/__/__/mesh/prov/src/prov_provisionee.c.obj
 .text.prov_provisionee_cb_link_closed
                0x000201d4       0x34 examples/dfu/CMakeFiles/dfu_nrf51422_xxAC_s130_2.0.1.dir/__/__/mesh/prov/src/prov_provisionee.c.obj
 .text.prov_provisionee_cb_link_established
                0x00020208       0x20 examples/dfu/CMakeFiles/dfu_nrf51422_xxAC_s130_2.0.1.dir/__/__/mesh/prov/src/prov_provisionee.c.obj
 .text.send_failed
                0x00020228       0x40 examples/dfu/CMakeFiles/dfu_nrf51422_xxAC_s130_2.0.1.dir/__/__/mesh/prov/src/prov_provisionee.c.obj
 .text.request_authentication
                0x00020268       0x94 examples/dfu/CMakeFiles/dfu_nrf51422_xxAC_s130_2.0.1.dir/__/__/mesh/prov/src/prov_provisionee.c.obj
 .text.start_authentication
                0x000202fc       0x60 examples/dfu/CMakeFiles/dfu_nrf51422_xxAC_s130_2.0.1.dir/__/__/mesh/prov/src/prov_provisionee.c.obj
 .text.prov_provisionee_pkt_in
                0x0002035c      0x314 examples/dfu/CMakeFiles/dfu_nrf51422_xxAC_s130_2.0.1.dir/__/__/mesh/prov/src/prov_provisionee.c.obj
 .text.prov_provisionee_cb_ack_received
                0x00020670       0xb8 examples/dfu/CMakeFiles/dfu_nrf51422_xxAC_s130_2.0.1.dir/__/__/mesh/prov/src/prov_provisionee.c.obj
 .text.prov_provisionee_init
                0x00020728       0x48 examples/dfu/CMakeFiles/dfu_nrf51422_xxAC_s130_2.0.1.dir/__/__/mesh/prov/src/prov_provisionee.c.obj
                0x00020728                prov_provisionee_init
 .text.prov_provisionee_auth_data
                0x00020770       0x88 examples/dfu/CMakeFiles/dfu_nrf51422_xxAC_s130_2.0.1.dir/__/__/mesh/prov/src/prov_provisionee.c.obj
                0x00020770                prov_provisionee_auth_data
 .text.prov_provisionee_shared_secret
                0x000207f8       0x2c examples/dfu/CMakeFiles/dfu_nrf51422_xxAC_s130_2.0.1.dir/__/__/mesh/prov/src/prov_provisionee.c.obj
                0x000207f8                prov_provisionee_shared_secret
 .text.nrf_mesh_prov_init
                0x00020824       0x34 examples/dfu/CMakeFiles/dfu_nrf51422_xxAC_s130_2.0.1.dir/__/__/mesh/prov/src/nrf_mesh_prov.c.obj
                0x00020824                nrf_mesh_prov_init
 .text.nrf_mesh_prov_generate_keys
                0x00020858        0x8 examples/dfu/CMakeFiles/dfu_nrf51422_xxAC_s130_2.0.1.dir/__/__/mesh/prov/src/nrf_mesh_prov.c.obj
                0x00020858                nrf_mesh_prov_generate_keys
 .text.nrf_mesh_prov_listen
                0x00020860       0x26 examples/dfu/CMakeFiles/dfu_nrf51422_xxAC_s130_2.0.1.dir/__/__/mesh/prov/src/nrf_mesh_prov.c.obj
                0x00020860                nrf_mesh_prov_listen
 *fill*         0x00020886        0x2 
 .text.nrf_mesh_prov_provision
                0x00020888       0x5c examples/dfu/CMakeFiles/dfu_nrf51422_xxAC_s130_2.0.1.dir/__/__/mesh/prov/src/nrf_mesh_prov.c.obj
                0x00020888                nrf_mesh_prov_provision
 .text.nrf_mesh_prov_oob_use
                0x000208e4       0x1c examples/dfu/CMakeFiles/dfu_nrf51422_xxAC_s130_2.0.1.dir/__/__/mesh/prov/src/nrf_mesh_prov.c.obj
                0x000208e4                nrf_mesh_prov_oob_use
 .text.nrf_mesh_prov_auth_data_provide
                0x00020900       0x1c examples/dfu/CMakeFiles/dfu_nrf51422_xxAC_s130_2.0.1.dir/__/__/mesh/prov/src/nrf_mesh_prov.c.obj
                0x00020900                nrf_mesh_prov_auth_data_provide
 .text.nrf_mesh_prov_shared_secret_provide
                0x0002091c       0x1c examples/dfu/CMakeFiles/dfu_nrf51422_xxAC_s130_2.0.1.dir/__/__/mesh/prov/src/nrf_mesh_prov.c.obj
                0x0002091c                nrf_mesh_prov_shared_secret_provide
 .text.send_data
                0x00020938       0x48 examples/dfu/CMakeFiles/dfu_nrf51422_xxAC_s130_2.0.1.dir/__/__/mesh/prov/src/provisioning.c.obj
 .text.prov_packet_length_valid
                0x00020980       0x20 examples/dfu/CMakeFiles/dfu_nrf51422_xxAC_s130_2.0.1.dir/__/__/mesh/prov/src/provisioning.c.obj
                0x00020980                prov_packet_length_valid
 .text.prov_init
                0x000209a0       0x34 examples/dfu/CMakeFiles/dfu_nrf51422_xxAC_s130_2.0.1.dir/__/__/mesh/prov/src/provisioning.c.obj
                0x000209a0                prov_init
 .text.prov_listen_start
                0x000209d4       0x14 examples/dfu/CMakeFiles/dfu_nrf51422_xxAC_s130_2.0.1.dir/__/__/mesh/prov/src/provisioning.c.obj
                0x000209d4                prov_listen_start
 .text.prov_link_open
                0x000209e8       0x14 examples/dfu/CMakeFiles/dfu_nrf51422_xxAC_s130_2.0.1.dir/__/__/mesh/prov/src/provisioning.c.obj
                0x000209e8                prov_link_open
 .text.prov_link_close
                0x000209fc        0xe examples/dfu/CMakeFiles/dfu_nrf51422_xxAC_s130_2.0.1.dir/__/__/mesh/prov/src/provisioning.c.obj
                0x000209fc                prov_link_close
 .text.prov_tx_invite
                0x00020a0a       0x24 examples/dfu/CMakeFiles/dfu_nrf51422_xxAC_s130_2.0.1.dir/__/__/mesh/prov/src/provisioning.c.obj
                0x00020a0a                prov_tx_invite
 .text.prov_tx_capabilities
                0x00020a2e       0x1c examples/dfu/CMakeFiles/dfu_nrf51422_xxAC_s130_2.0.1.dir/__/__/mesh/prov/src/provisioning.c.obj
                0x00020a2e                prov_tx_capabilities
 .text.prov_tx_start
                0x00020a4a       0x1e examples/dfu/CMakeFiles/dfu_nrf51422_xxAC_s130_2.0.1.dir/__/__/mesh/prov/src/provisioning.c.obj
                0x00020a4a                prov_tx_start
 .text.prov_tx_public_key
                0x00020a68       0x24 examples/dfu/CMakeFiles/dfu_nrf51422_xxAC_s130_2.0.1.dir/__/__/mesh/prov/src/provisioning.c.obj
                0x00020a68                prov_tx_public_key
 .text.prov_tx_input_complete
                0x00020a8c       0x10 examples/dfu/CMakeFiles/dfu_nrf51422_xxAC_s130_2.0.1.dir/__/__/mesh/prov/src/provisioning.c.obj
                0x00020a8c                prov_tx_input_complete
 .text.prov_tx_confirmation
                0x00020a9c       0x24 examples/dfu/CMakeFiles/dfu_nrf51422_xxAC_s130_2.0.1.dir/__/__/mesh/prov/src/provisioning.c.obj
                0x00020a9c                prov_tx_confirmation
 .text.prov_tx_random
                0x00020ac0       0x24 examples/dfu/CMakeFiles/dfu_nrf51422_xxAC_s130_2.0.1.dir/__/__/mesh/prov/src/provisioning.c.obj
                0x00020ac0                prov_tx_random
 .text.prov_tx_complete
                0x00020ae4       0x10 examples/dfu/CMakeFiles/dfu_nrf51422_xxAC_s130_2.0.1.dir/__/__/mesh/prov/src/provisioning.c.obj
                0x00020ae4                prov_tx_complete
 .text.prov_tx_failed
                0x00020af4       0x14 examples/dfu/CMakeFiles/dfu_nrf51422_xxAC_s130_2.0.1.dir/__/__/mesh/prov/src/provisioning.c.obj
                0x00020af4                prov_tx_failed
 .text.prov_tx_data
                0x00020b08        0xa examples/dfu/CMakeFiles/dfu_nrf51422_xxAC_s130_2.0.1.dir/__/__/mesh/prov/src/provisioning.c.obj
                0x00020b08                prov_tx_data
 .text.prov_cb_link_opened
                0x00020b12        0xe examples/dfu/CMakeFiles/dfu_nrf51422_xxAC_s130_2.0.1.dir/__/__/mesh/prov/src/provisioning.c.obj
                0x00020b12                prov_cb_link_opened
 .text.prov_cb_link_closed
                0x00020b20        0xe examples/dfu/CMakeFiles/dfu_nrf51422_xxAC_s130_2.0.1.dir/__/__/mesh/prov/src/provisioning.c.obj
                0x00020b20                prov_cb_link_closed
 *fill*         0x00020b2e        0x2 
 .text.prov_cb_pkt_in
                0x00020b30       0x80 examples/dfu/CMakeFiles/dfu_nrf51422_xxAC_s130_2.0.1.dir/__/__/mesh/prov/src/provisioning.c.obj
                0x00020b30                prov_cb_pkt_in
 .text.prov_cb_ack_in
                0x00020bb0        0xe examples/dfu/CMakeFiles/dfu_nrf51422_xxAC_s130_2.0.1.dir/__/__/mesh/prov/src/provisioning.c.obj
                0x00020bb0                prov_cb_ack_in
 .text.prov_beacon_unprov_build
                0x00020bbe       0x52 examples/dfu/CMakeFiles/dfu_nrf51422_xxAC_s130_2.0.1.dir/__/__/mesh/prov/src/prov_beacon.c.obj
                0x00020bbe                prov_beacon_unprov_build
 .text.prov_beacon_unprov_packet_in
                0x00020c10       0xb8 examples/dfu/CMakeFiles/dfu_nrf51422_xxAC_s130_2.0.1.dir/__/__/mesh/prov/src/prov_beacon.c.obj
                0x00020c10                prov_beacon_unprov_packet_in
 .text.oob_gen_alphanumeric
                0x00020cc8       0x34 examples/dfu/CMakeFiles/dfu_nrf51422_xxAC_s130_2.0.1.dir/__/__/mesh/prov/src/prov_utils.c.obj
 .text.oob_gen_numeric
                0x00020cfc       0x30 examples/dfu/CMakeFiles/dfu_nrf51422_xxAC_s130_2.0.1.dir/__/__/mesh/prov/src/prov_utils.c.obj
 .text.prov_utils_use_ecdh_offloading
                0x00020d2c        0xc examples/dfu/CMakeFiles/dfu_nrf51422_xxAC_s130_2.0.1.dir/__/__/mesh/prov/src/prov_utils.c.obj
                0x00020d2c                prov_utils_use_ecdh_offloading
 .text.prov_utils_authentication_values_derive
                0x00020d38       0xc0 examples/dfu/CMakeFiles/dfu_nrf51422_xxAC_s130_2.0.1.dir/__/__/mesh/prov/src/prov_utils.c.obj
                0x00020d38                prov_utils_authentication_values_derive
 .text.prov_utils_keys_generate
                0x00020df8       0x20 examples/dfu/CMakeFiles/dfu_nrf51422_xxAC_s130_2.0.1.dir/__/__/mesh/prov/src/prov_utils.c.obj
                0x00020df8                prov_utils_keys_generate
 .text.prov_utils_derive_keys
                0x00020e18       0xc0 examples/dfu/CMakeFiles/dfu_nrf51422_xxAC_s130_2.0.1.dir/__/__/mesh/prov/src/prov_utils.c.obj
                0x00020e18                prov_utils_derive_keys
 .text.prov_utils_calculate_shared_secret
                0x00020ed8       0x3e examples/dfu/CMakeFiles/dfu_nrf51422_xxAC_s130_2.0.1.dir/__/__/mesh/prov/src/prov_utils.c.obj
                0x00020ed8                prov_utils_calculate_shared_secret
 *fill*         0x00020f16        0x2 
 .text.prov_utils_generate_oob_data
                0x00020f18       0x9c examples/dfu/CMakeFiles/dfu_nrf51422_xxAC_s130_2.0.1.dir/__/__/mesh/prov/src/prov_utils.c.obj
                0x00020f18                prov_utils_generate_oob_data
 .text.prov_utils_confirmation_check
                0x00020fb4       0x70 examples/dfu/CMakeFiles/dfu_nrf51422_xxAC_s130_2.0.1.dir/__/__/mesh/prov/src/prov_utils.c.obj
                0x00020fb4                prov_utils_confirmation_check
 .text.remove_active_bearer
                0x00021024       0x68 examples/dfu/CMakeFiles/dfu_nrf51422_xxAC_s130_2.0.1.dir/__/__/mesh/prov/src/prov_bearer_adv.c.obj
 .text.prov_bearer_adv_listen_stop
                0x0002108c       0x38 examples/dfu/CMakeFiles/dfu_nrf51422_xxAC_s130_2.0.1.dir/__/__/mesh/prov/src/prov_bearer_adv.c.obj
 .text.close_link
                0x000210c4       0x6c examples/dfu/CMakeFiles/dfu_nrf51422_xxAC_s130_2.0.1.dir/__/__/mesh/prov/src/prov_bearer_adv.c.obj
 .text.send_packet
                0x00021130       0x70 examples/dfu/CMakeFiles/dfu_nrf51422_xxAC_s130_2.0.1.dir/__/__/mesh/prov/src/prov_bearer_adv.c.obj
 .text.prov_buffer_tx
                0x000211a0      0x168 examples/dfu/CMakeFiles/dfu_nrf51422_xxAC_s130_2.0.1.dir/__/__/mesh/prov/src/prov_bearer_adv.c.obj
 .text.send_link_close
                0x00021308       0x28 examples/dfu/CMakeFiles/dfu_nrf51422_xxAC_s130_2.0.1.dir/__/__/mesh/prov/src/prov_bearer_adv.c.obj
 .text.prov_bearer_adv_link_close
                0x00021330       0x78 examples/dfu/CMakeFiles/dfu_nrf51422_xxAC_s130_2.0.1.dir/__/__/mesh/prov/src/prov_bearer_adv.c.obj
 .text.send_transaction_ack
                0x000213a8       0x24 examples/dfu/CMakeFiles/dfu_nrf51422_xxAC_s130_2.0.1.dir/__/__/mesh/prov/src/prov_bearer_adv.c.obj
 .text.send_link_ack
                0x000213cc       0x26 examples/dfu/CMakeFiles/dfu_nrf51422_xxAC_s130_2.0.1.dir/__/__/mesh/prov/src/prov_bearer_adv.c.obj
 .text.link_timeout_cb
                0x000213f2        0xc examples/dfu/CMakeFiles/dfu_nrf51422_xxAC_s130_2.0.1.dir/__/__/mesh/prov/src/prov_bearer_adv.c.obj
 .text.reset_timeout_timer
                0x000213fe       0x1a examples/dfu/CMakeFiles/dfu_nrf51422_xxAC_s130_2.0.1.dir/__/__/mesh/prov/src/prov_bearer_adv.c.obj
 .text.tx_complete_cb
                0x00021418       0x24 examples/dfu/CMakeFiles/dfu_nrf51422_xxAC_s130_2.0.1.dir/__/__/mesh/prov/src/prov_bearer_adv.c.obj
 .text.tx_retry_cb
                0x0002143c       0xd4 examples/dfu/CMakeFiles/dfu_nrf51422_xxAC_s130_2.0.1.dir/__/__/mesh/prov/src/prov_bearer_adv.c.obj
 .text.add_active_bearer
                0x00021510       0x88 examples/dfu/CMakeFiles/dfu_nrf51422_xxAC_s130_2.0.1.dir/__/__/mesh/prov/src/prov_bearer_adv.c.obj
 .text.prov_bearer_adv_link_open
                0x00021598       0xf0 examples/dfu/CMakeFiles/dfu_nrf51422_xxAC_s130_2.0.1.dir/__/__/mesh/prov/src/prov_bearer_adv.c.obj
 .text.async_process
                0x00021688       0x58 examples/dfu/CMakeFiles/dfu_nrf51422_xxAC_s130_2.0.1.dir/__/__/mesh/prov/src/prov_bearer_adv.c.obj
 .text.prov_bearer_adv_listen
                0x000216e0       0xf4 examples/dfu/CMakeFiles/dfu_nrf51422_xxAC_s130_2.0.1.dir/__/__/mesh/prov/src/prov_bearer_adv.c.obj
 .text.calculate_3GPP_CRC
                0x000217d4       0x24 examples/dfu/CMakeFiles/dfu_nrf51422_xxAC_s130_2.0.1.dir/__/__/mesh/prov/src/prov_bearer_adv.c.obj
                0x000217d4                calculate_3GPP_CRC
 .text.prov_bearer_adv_tx
                0x000217f8       0xac examples/dfu/CMakeFiles/dfu_nrf51422_xxAC_s130_2.0.1.dir/__/__/mesh/prov/src/prov_bearer_adv.c.obj
 .text.prov_buffer_rx
                0x000218a4       0x74 examples/dfu/CMakeFiles/dfu_nrf51422_xxAC_s130_2.0.1.dir/__/__/mesh/prov/src/prov_bearer_adv.c.obj
 .text.prov_bearer_adv_interface_get
                0x00021918       0x24 examples/dfu/CMakeFiles/dfu_nrf51422_xxAC_s130_2.0.1.dir/__/__/mesh/prov/src/prov_bearer_adv.c.obj
                0x00021918                prov_bearer_adv_interface_get
 .text.prov_bearer_adv_packet_in
                0x0002193c      0x898 examples/dfu/CMakeFiles/dfu_nrf51422_xxAC_s130_2.0.1.dir/__/__/mesh/prov/src/prov_bearer_adv.c.obj
                0x0002193c                prov_bearer_adv_packet_in
 .text.tx_complete_cb
                0x000221d4        0x2 examples/dfu/CMakeFiles/dfu_nrf51422_xxAC_s130_2.0.1.dir/__/__/mesh/dfu/src/nrf_mesh_dfu.c.obj
 *fill*         0x000221d6        0x2 
 .text.reset_transfer_state
                0x000221d8       0x24 examples/dfu/CMakeFiles/dfu_nrf51422_xxAC_s130_2.0.1.dir/__/__/mesh/dfu/src/nrf_mesh_dfu.c.obj
 .text.end_transfer
                0x000221fc       0x38 examples/dfu/CMakeFiles/dfu_nrf51422_xxAC_s130_2.0.1.dir/__/__/mesh/dfu/src/nrf_mesh_dfu.c.obj
 .text.dfu_evt_handler
                0x00022234      0x808 examples/dfu/CMakeFiles/dfu_nrf51422_xxAC_s130_2.0.1.dir/__/__/mesh/dfu/src/nrf_mesh_dfu.c.obj
 .text.next_tx_timeout
                0x00022a3c       0x68 examples/dfu/CMakeFiles/dfu_nrf51422_xxAC_s130_2.0.1.dir/__/__/mesh/dfu/src/nrf_mesh_dfu.c.obj
 .text.tx_timeout
                0x00022aa4      0x118 examples/dfu/CMakeFiles/dfu_nrf51422_xxAC_s130_2.0.1.dir/__/__/mesh/dfu/src/nrf_mesh_dfu.c.obj
 .text.nrf_mesh_dfu_jump_to_bootloader
                0x00022bbc       0x40 examples/dfu/CMakeFiles/dfu_nrf51422_xxAC_s130_2.0.1.dir/__/__/mesh/dfu/src/nrf_mesh_dfu.c.obj
                0x00022bbc                nrf_mesh_dfu_jump_to_bootloader
 .text.nrf_mesh_dfu_state_get
                0x00022bfc       0x40 examples/dfu/CMakeFiles/dfu_nrf51422_xxAC_s130_2.0.1.dir/__/__/mesh/dfu/src/nrf_mesh_dfu.c.obj
                0x00022bfc                nrf_mesh_dfu_state_get
 .text.nrf_mesh_dfu_cmd_send
                0x00022c3c       0x9c examples/dfu/CMakeFiles/dfu_nrf51422_xxAC_s130_2.0.1.dir/__/__/mesh/dfu/src/nrf_mesh_dfu.c.obj
                0x00022c3c                nrf_mesh_dfu_cmd_send
 .text.nrf_mesh_dfu_init
                0x00022cd8      0x164 examples/dfu/CMakeFiles/dfu_nrf51422_xxAC_s130_2.0.1.dir/__/__/mesh/dfu/src/nrf_mesh_dfu.c.obj
                0x00022cd8                nrf_mesh_dfu_init
 .text.flash_op_complete
                0x00022e3c      0x16c examples/dfu/CMakeFiles/dfu_nrf51422_xxAC_s130_2.0.1.dir/__/__/mesh/dfu/src/nrf_mesh_dfu.c.obj
 .text.abort_timeout
                0x00022fa8       0x84 examples/dfu/CMakeFiles/dfu_nrf51422_xxAC_s130_2.0.1.dir/__/__/mesh/dfu/src/nrf_mesh_dfu.c.obj
 .text.timer_timeout
                0x0002302c       0x80 examples/dfu/CMakeFiles/dfu_nrf51422_xxAC_s130_2.0.1.dir/__/__/mesh/dfu/src/nrf_mesh_dfu.c.obj
 .text.nrf_mesh_dfu_rx
                0x000230ac       0xec examples/dfu/CMakeFiles/dfu_nrf51422_xxAC_s130_2.0.1.dir/__/__/mesh/dfu/src/nrf_mesh_dfu.c.obj
                0x000230ac                nrf_mesh_dfu_rx
 .text.nrf_mesh_dfu_request
                0x00023198       0x90 examples/dfu/CMakeFiles/dfu_nrf51422_xxAC_s130_2.0.1.dir/__/__/mesh/dfu/src/nrf_mesh_dfu.c.obj
                0x00023198                nrf_mesh_dfu_request
 .text.nrf_mesh_dfu_relay
                0x00023228       0x5c examples/dfu/CMakeFiles/dfu_nrf51422_xxAC_s130_2.0.1.dir/__/__/mesh/dfu/src/nrf_mesh_dfu.c.obj
                0x00023228                nrf_mesh_dfu_relay
 .text.nrf_mesh_dfu_abort
                0x00023284       0x2c examples/dfu/CMakeFiles/dfu_nrf51422_xxAC_s130_2.0.1.dir/__/__/mesh/dfu/src/nrf_mesh_dfu.c.obj
                0x00023284                nrf_mesh_dfu_abort
 .text.nrf_mesh_dfu_bank_info_get
                0x000232b0       0x2c examples/dfu/CMakeFiles/dfu_nrf51422_xxAC_s130_2.0.1.dir/__/__/mesh/dfu/src/nrf_mesh_dfu.c.obj
                0x000232b0                nrf_mesh_dfu_bank_info_get
 .text.nrf_mesh_dfu_bank_flash
                0x000232dc       0x24 examples/dfu/CMakeFiles/dfu_nrf51422_xxAC_s130_2.0.1.dir/__/__/mesh/dfu/src/nrf_mesh_dfu.c.obj
                0x000232dc                nrf_mesh_dfu_bank_flash
 .text.SystemInit
                0x00023300       0xe0 examples/dfu/CMakeFiles/dfu_nrf51422_xxAC_s130_2.0.1.dir/__/__/external/nRF5_SDK_14.0.0_3bcc1f7/components/toolchain/system_nrf51.c.obj
                0x00023300                SystemInit
 .text          0x000233e0       0x4c examples/dfu/CMakeFiles/dfu_nrf51422_xxAC_s130_2.0.1.dir/__/__/external/nRF5_SDK_14.0.0_3bcc1f7/components/toolchain/gcc/gcc_startup_nrf51.S.obj
                0x000233e0                Reset_Handler
                0x00023420                NMI_Handler
                0x00023424                SVC_Handler
                0x00023426                PendSV_Handler
                0x00023428                SysTick_Handler
                0x0002342a                GPIOTE_IRQHandler
                0x0002342a                RTC0_IRQHandler
                0x0002342a                POWER_CLOCK_IRQHandler
                0x0002342a                RADIO_IRQHandler
                0x0002342a                LPCOMP_IRQHandler
                0x0002342a                SWI4_IRQHandler
                0x0002342a                TEMP_IRQHandler
                0x0002342a                SPI0_TWI0_IRQHandler
                0x0002342a                TIMER0_IRQHandler
                0x0002342a                TIMER2_IRQHandler
                0x0002342a                SWI0_IRQHandler
                0x0002342a                TIMER1_IRQHandler
                0x0002342a                ECB_IRQHandler
                0x0002342a                Default_Handler
                0x0002342a                ADC_IRQHandler
                0x0002342a                SWI3_IRQHandler
                0x0002342a                CCM_AAR_IRQHandler
                0x0002342a                WDT_IRQHandler
                0x0002342a                SWI5_IRQHandler
                0x0002342a                RNG_IRQHandler
                0x0002342a                SPI1_TWI1_IRQHandler
                0x0002342a                RTC1_IRQHandler
                0x0002342a                SWI1_IRQHandler
 .text.internal_event_init
                0x0002342c       0x40 mesh/core/libmesh_core_nrf51422_xxAC.a(internal_event.c.obj)
                0x0002342c                internal_event_init
 .text.internal_event_push
                0x0002346c       0x30 mesh/core/libmesh_core_nrf51422_xxAC.a(internal_event.c.obj)
                0x0002346c                internal_event_push
 .text.nrf_mesh_configure_device_uuid_set
                0x0002349c       0x14 mesh/core/libmesh_core_nrf51422_xxAC.a(nrf_mesh_configure.c.obj)
                0x0002349c                nrf_mesh_configure_device_uuid_set
 .text.nrf_mesh_configure_device_uuid_reset
                0x000234b0       0x28 mesh/core/libmesh_core_nrf51422_xxAC.a(nrf_mesh_configure.c.obj)
                0x000234b0                nrf_mesh_configure_device_uuid_reset
 .text.nrf_mesh_configure_device_uuid_get
                0x000234d8        0x8 mesh/core/libmesh_core_nrf51422_xxAC.a(nrf_mesh_configure.c.obj)
                0x000234d8                nrf_mesh_configure_device_uuid_get
 .text.event_handle
                0x000234e0       0x34 mesh/core/libmesh_core_nrf51422_xxAC.a(event.c.obj)
                0x000234e0                event_handle
 .text.event_handler_add
                0x00023514       0x7c mesh/core/libmesh_core_nrf51422_xxAC.a(event.c.obj)
                0x00023514                event_handler_add
 .text.m_adjust_desired_packet_length
                0x00023590       0x34 mesh/core/libmesh_core_nrf51422_xxAC.a(packet_buffer.c.obj)
 .text.m_index_increment.part.0
                0x000235c4       0x18 mesh/core/libmesh_core_nrf51422_xxAC.a(packet_buffer.c.obj)
 .text.m_free_popped_packet
                0x000235dc       0x64 mesh/core/libmesh_core_nrf51422_xxAC.a(packet_buffer.c.obj)
 .text.free_skipped_packets
                0x00023640       0x1c mesh/core/libmesh_core_nrf51422_xxAC.a(packet_buffer.c.obj)
 .text.packet_buffer_max_packet_len_get
                0x0002365c       0x38 mesh/core/libmesh_core_nrf51422_xxAC.a(packet_buffer.c.obj)
                0x0002365c                packet_buffer_max_packet_len_get
 .text.packet_buffer_init
                0x00023694       0xe0 mesh/core/libmesh_core_nrf51422_xxAC.a(packet_buffer.c.obj)
                0x00023694                packet_buffer_init
 .text.packet_buffer_flush
                0x00023774       0x60 mesh/core/libmesh_core_nrf51422_xxAC.a(packet_buffer.c.obj)
                0x00023774                packet_buffer_flush
 .text.packet_buffer_reserve
                0x000237d4      0x11c mesh/core/libmesh_core_nrf51422_xxAC.a(packet_buffer.c.obj)
                0x000237d4                packet_buffer_reserve
 .text.packet_buffer_commit
                0x000238f0      0x10c mesh/core/libmesh_core_nrf51422_xxAC.a(packet_buffer.c.obj)
                0x000238f0                packet_buffer_commit
 .text.packet_buffer_pop
                0x000239fc       0x64 mesh/core/libmesh_core_nrf51422_xxAC.a(packet_buffer.c.obj)
                0x000239fc                packet_buffer_pop
 .text.packet_buffer_can_pop
                0x00023a60       0x2c mesh/core/libmesh_core_nrf51422_xxAC.a(packet_buffer.c.obj)
                0x00023a60                packet_buffer_can_pop
 .text.packet_buffer_packets_ready_to_pop
                0x00023a8c       0x58 mesh/core/libmesh_core_nrf51422_xxAC.a(packet_buffer.c.obj)
                0x00023a8c                packet_buffer_packets_ready_to_pop
 .text.packet_buffer_free
                0x00023ae4       0x94 mesh/core/libmesh_core_nrf51422_xxAC.a(packet_buffer.c.obj)
                0x00023ae4                packet_buffer_free
 .text.fifo_init
                0x00023b78       0x5c mesh/core/libmesh_core_nrf51422_xxAC.a(fifo.c.obj)
                0x00023b78                fifo_init
 .text.fifo_push
                0x00023bd4       0x5c mesh/core/libmesh_core_nrf51422_xxAC.a(fifo.c.obj)
                0x00023bd4                fifo_push
 .text.fifo_pop
                0x00023c30       0x5c mesh/core/libmesh_core_nrf51422_xxAC.a(fifo.c.obj)
                0x00023c30                fifo_pop
 .text.flash_mem_available
                0x00023c8c       0x20 mesh/core/libmesh_core_nrf51422_xxAC.a(net_state.c.obj)
 .text.flash_store_iv_index
                0x00023cac       0x34 mesh/core/libmesh_core_nrf51422_xxAC.a(net_state.c.obj)
 .text.seqnum_block_allocate
                0x00023ce0       0x50 mesh/core/libmesh_core_nrf51422_xxAC.a(net_state.c.obj)
 .text.net_state_reset
                0x00023d30       0x3c mesh/core/libmesh_core_nrf51422_xxAC.a(net_state.c.obj)
                0x00023d30                net_state_reset
 .text.flash_write_complete
                0x00023d6c       0x80 mesh/core/libmesh_core_nrf51422_xxAC.a(net_state.c.obj)
 .text.net_state_recover_from_flash
                0x00023dec       0x8c mesh/core/libmesh_core_nrf51422_xxAC.a(net_state.c.obj)
                0x00023dec                net_state_recover_from_flash
 .text.net_state_flash_area_get
                0x00023e78       0x10 mesh/core/libmesh_core_nrf51422_xxAC.a(net_state.c.obj)
                0x00023e78                net_state_flash_area_get
 .text.init_flash_storage
                0x00023e88       0x40 mesh/core/libmesh_core_nrf51422_xxAC.a(net_state.c.obj)
 .text.net_state_init
                0x00023ec8       0x48 mesh/core/libmesh_core_nrf51422_xxAC.a(net_state.c.obj)
                0x00023ec8                net_state_init
 .text.net_state_iv_update_start
                0x00023f10       0x64 mesh/core/libmesh_core_nrf51422_xxAC.a(net_state.c.obj)
                0x00023f10                net_state_iv_update_start
 .text.iv_update_trigger_if_pending
                0x00023f74       0x94 mesh/core/libmesh_core_nrf51422_xxAC.a(net_state.c.obj)
 .text.iv_update_timer_handler
                0x00024008       0x80 mesh/core/libmesh_core_nrf51422_xxAC.a(net_state.c.obj)
 .text.net_state_seqnum_alloc
                0x00024088       0x68 mesh/core/libmesh_core_nrf51422_xxAC.a(net_state.c.obj)
                0x00024088                net_state_seqnum_alloc
 .text.net_state_iv_index_lock
                0x000240f0       0x4c mesh/core/libmesh_core_nrf51422_xxAC.a(net_state.c.obj)
                0x000240f0                net_state_iv_index_lock
 .text.net_state_beacon_received
                0x0002413c       0x98 mesh/core/libmesh_core_nrf51422_xxAC.a(net_state.c.obj)
                0x0002413c                net_state_beacon_received
 .text.net_state_beacon_iv_index_get
                0x000241d4        0xc mesh/core/libmesh_core_nrf51422_xxAC.a(net_state.c.obj)
                0x000241d4                net_state_beacon_iv_index_get
 .text.net_state_tx_iv_index_get
                0x000241e0       0x14 mesh/core/libmesh_core_nrf51422_xxAC.a(net_state.c.obj)
                0x000241e0                net_state_tx_iv_index_get
 .text.net_state_rx_iv_index_get
                0x000241f4       0x14 mesh/core/libmesh_core_nrf51422_xxAC.a(net_state.c.obj)
                0x000241f4                net_state_rx_iv_index_get
 .text.net_state_iv_update_get
                0x00024208        0xc mesh/core/libmesh_core_nrf51422_xxAC.a(net_state.c.obj)
                0x00024208                net_state_iv_update_get
 .text.send_end_events
                0x00024214       0x80 mesh/core/libmesh_core_nrf51422_xxAC.a(mesh_flash.c.obj)
 .text.flash_op_schedule
                0x00024294       0xa0 mesh/core/libmesh_core_nrf51422_xxAC.a(mesh_flash.c.obj)
 .text.flash_op_start
                0x00024334      0x178 mesh/core/libmesh_core_nrf51422_xxAC.a(mesh_flash.c.obj)
 .text.mesh_flash_init
                0x000244ac       0x94 mesh/core/libmesh_core_nrf51422_xxAC.a(mesh_flash.c.obj)
                0x000244ac                mesh_flash_init
 .text.mesh_flash_user_callback_set
                0x00024540       0x30 mesh/core/libmesh_core_nrf51422_xxAC.a(mesh_flash.c.obj)
                0x00024540                mesh_flash_user_callback_set
 .text.mesh_flash_op_push
                0x00024570      0x140 mesh/core/libmesh_core_nrf51422_xxAC.a(mesh_flash.c.obj)
                0x00024570                mesh_flash_op_push
 .text.mesh_flash_in_progress
                0x000246b0       0x38 mesh/core/libmesh_core_nrf51422_xxAC.a(mesh_flash.c.obj)
                0x000246b0                mesh_flash_in_progress
 .text.mesh_flash_set_suspended
                0x000246e8       0x90 mesh/core/libmesh_core_nrf51422_xxAC.a(mesh_flash.c.obj)
                0x000246e8                mesh_flash_set_suspended
 .text.nrf_mesh_address_type_get
                0x00024778       0x14 mesh/core/libmesh_core_nrf51422_xxAC.a(nrf_mesh_utils.c.obj)
                0x00024778                nrf_mesh_address_type_get
 .text.sd_softdevice_is_enabled
                0x0002478c        0x4 mesh/core/libmesh_core_nrf51422_xxAC.a(nrf_mesh.c.obj)
 .text.nrf_mesh_init
                0x00024790       0xb8 mesh/core/libmesh_core_nrf51422_xxAC.a(nrf_mesh.c.obj)
                0x00024790                nrf_mesh_init
 .text.nrf_mesh_enable
                0x00024848       0x4c mesh/core/libmesh_core_nrf51422_xxAC.a(nrf_mesh.c.obj)
                0x00024848                nrf_mesh_enable
 .text.nrf_mesh_disable
                0x00024894       0x28 mesh/core/libmesh_core_nrf51422_xxAC.a(nrf_mesh.c.obj)
                0x00024894                nrf_mesh_disable
 .text.nrf_mesh_packet_send
                0x000248bc        0x8 mesh/core/libmesh_core_nrf51422_xxAC.a(nrf_mesh.c.obj)
                0x000248bc                nrf_mesh_packet_send
 .text.nrf_mesh_process
                0x000248c4      0x1c4 mesh/core/libmesh_core_nrf51422_xxAC.a(nrf_mesh.c.obj)
                0x000248c4                nrf_mesh_process
 .text.nrf_mesh_on_ble_evt
                0x00024a88        0x4 mesh/core/libmesh_core_nrf51422_xxAC.a(nrf_mesh.c.obj)
                0x00024a88                nrf_mesh_on_ble_evt
 .text.nrf_mesh_on_sd_evt
                0x00024a8c        0xa mesh/core/libmesh_core_nrf51422_xxAC.a(nrf_mesh.c.obj)
                0x00024a8c                nrf_mesh_on_sd_evt
 .text.nrf_mesh_evt_handler_add
                0x00024a96        0x8 mesh/core/libmesh_core_nrf51422_xxAC.a(nrf_mesh.c.obj)
                0x00024a96                nrf_mesh_evt_handler_add
 .text.sd_power_reset_reason_clr
                0x00024a9e        0x4 mesh/core/libmesh_core_nrf51422_xxAC.a(hal.c.obj)
 .text.sd_power_gpregret_set
                0x00024aa2        0x4 mesh/core/libmesh_core_nrf51422_xxAC.a(hal.c.obj)
 *fill*         0x00024aa6        0x2 
 .text.hal_device_reset
                0x00024aa8       0x2c mesh/core/libmesh_core_nrf51422_xxAC.a(hal.c.obj)
                0x00024aa8                hal_device_reset
 .text.hal_lfclk_ppm_get
                0x00024ad4       0x14 mesh/core/libmesh_core_nrf51422_xxAC.a(hal.c.obj)
                0x00024ad4                hal_lfclk_ppm_get
 .text.add_to_add_list
                0x00024ae8       0x4c mesh/core/libmesh_core_nrf51422_xxAC.a(timer_scheduler.c.obj)
 .text.process_dirty_events
                0x00024b34       0x64 mesh/core/libmesh_core_nrf51422_xxAC.a(timer_scheduler.c.obj)
 .text.timer_cb
                0x00024b98       0x10 mesh/core/libmesh_core_nrf51422_xxAC.a(timer_scheduler.c.obj)
 .text.add_evt.constprop.0
                0x00024ba8       0x70 mesh/core/libmesh_core_nrf51422_xxAC.a(timer_scheduler.c.obj)
 .text.process_add_list
                0x00024c18       0x4c mesh/core/libmesh_core_nrf51422_xxAC.a(timer_scheduler.c.obj)
 .text.flag_event_cb
                0x00024c64      0x104 mesh/core/libmesh_core_nrf51422_xxAC.a(timer_scheduler.c.obj)
 .text.timer_sch_init
                0x00024d68       0x24 mesh/core/libmesh_core_nrf51422_xxAC.a(timer_scheduler.c.obj)
                0x00024d68                timer_sch_init
 .text.timer_sch_schedule
                0x00024d8c       0x54 mesh/core/libmesh_core_nrf51422_xxAC.a(timer_scheduler.c.obj)
                0x00024d8c                timer_sch_schedule
 .text.timer_sch_abort
                0x00024de0       0x68 mesh/core/libmesh_core_nrf51422_xxAC.a(timer_scheduler.c.obj)
                0x00024de0                timer_sch_abort
 .text.timer_sch_reschedule
                0x00024e48       0x78 mesh/core/libmesh_core_nrf51422_xxAC.a(timer_scheduler.c.obj)
                0x00024e48                timer_sch_reschedule
 .text.timer_mut_unlock
                0x00024ec0       0x10 mesh/core/libmesh_core_nrf51422_xxAC.a(timer.c.obj)
 .text.timer_order_cb
                0x00024ed0       0x90 mesh/core/libmesh_core_nrf51422_xxAC.a(timer.c.obj)
                0x00024ed0                timer_order_cb
 .text.timer_now
                0x00024f60       0x54 mesh/core/libmesh_core_nrf51422_xxAC.a(timer.c.obj)
                0x00024f60                timer_now
 .text.timer_event_handler
                0x00024fb4       0x94 mesh/core/libmesh_core_nrf51422_xxAC.a(timer.c.obj)
                0x00024fb4                timer_event_handler
 .text.timer_on_ts_begin
                0x00025048      0x104 mesh/core/libmesh_core_nrf51422_xxAC.a(timer.c.obj)
                0x00025048                timer_on_ts_begin
 .text.timer_on_ts_end
                0x0002514c       0x64 mesh/core/libmesh_core_nrf51422_xxAC.a(timer.c.obj)
                0x0002514c                timer_on_ts_end
 .text.timer_cb
                0x000251b0       0x10 mesh/core/libmesh_core_nrf51422_xxAC.a(ticker.c.obj)
 .text.ticker_init
                0x000251c0       0x38 mesh/core/libmesh_core_nrf51422_xxAC.a(ticker.c.obj)
                0x000251c0                ticker_init
 .text.sd_rand_application_bytes_available_get
                0x000251f8        0x4 mesh/core/libmesh_core_nrf51422_xxAC.a(rand.c.obj)
 .text.sd_rand_application_vector_get
                0x000251fc        0x4 mesh/core/libmesh_core_nrf51422_xxAC.a(rand.c.obj)
 .text.rand_prng_get
                0x00025200       0x2e mesh/core/libmesh_core_nrf51422_xxAC.a(rand.c.obj)
                0x00025200                rand_prng_get
 *fill*         0x0002522e        0x2 
 .text.rand_hw_rng_get
                0x00025230       0x4c mesh/core/libmesh_core_nrf51422_xxAC.a(rand.c.obj)
                0x00025230                rand_hw_rng_get
 .text.rand_prng_seed
                0x0002527c       0x30 mesh/core/libmesh_core_nrf51422_xxAC.a(rand.c.obj)
                0x0002527c                rand_prng_seed
 .text.sd_radio_session_open
                0x000252ac        0x4 mesh/core/libmesh_core_nrf51422_xxAC.a(timeslot.c.obj)
 .text.sd_radio_session_close
                0x000252b0        0x4 mesh/core/libmesh_core_nrf51422_xxAC.a(timeslot.c.obj)
 .text.sd_radio_request
                0x000252b4        0x4 mesh/core/libmesh_core_nrf51422_xxAC.a(timeslot.c.obj)
 .text.end_timer_handler
                0x000252b8       0x2c mesh/core/libmesh_core_nrf51422_xxAC.a(timeslot.c.obj)
 .text.get_end_time.constprop.10
                0x000252e4       0x28 mesh/core/libmesh_core_nrf51422_xxAC.a(timeslot.c.obj)
 .text.handle_extend_end.constprop.3
                0x0002530c       0xc4 mesh/core/libmesh_core_nrf51422_xxAC.a(timeslot.c.obj)
 .text.radio_signal_callback
                0x000253d0      0x160 mesh/core/libmesh_core_nrf51422_xxAC.a(timeslot.c.obj)
 .text.timeslot_sd_event_handler
                0x00025530       0x48 mesh/core/libmesh_core_nrf51422_xxAC.a(timeslot.c.obj)
                0x00025530                timeslot_sd_event_handler
 .text.timeslot_init
                0x00025578       0x4c mesh/core/libmesh_core_nrf51422_xxAC.a(timeslot.c.obj)
                0x00025578                timeslot_init
 .text.timeslot_start
                0x000255c4       0x1c mesh/core/libmesh_core_nrf51422_xxAC.a(timeslot.c.obj)
                0x000255c4                timeslot_start
 .text.timeslot_end_is_pending
                0x000255e0       0x2c mesh/core/libmesh_core_nrf51422_xxAC.a(timeslot.c.obj)
                0x000255e0                timeslot_end_is_pending
 .text.timeslot_start_time_get
                0x0002560c        0xc mesh/core/libmesh_core_nrf51422_xxAC.a(timeslot.c.obj)
                0x0002560c                timeslot_start_time_get
 .text.timeslot_remaining_time_get
                0x00025618       0x24 mesh/core/libmesh_core_nrf51422_xxAC.a(timeslot.c.obj)
                0x00025618                timeslot_remaining_time_get
 .text.timeslot_is_in_cb
                0x0002563c        0xc mesh/core/libmesh_core_nrf51422_xxAC.a(timeslot.c.obj)
                0x0002563c                timeslot_is_in_cb
 .text.timeslot_trigger
                0x00025648       0x28 mesh/core/libmesh_core_nrf51422_xxAC.a(timeslot.c.obj)
                0x00025648                timeslot_trigger
 .text.timeslot_stop
                0x00025670       0x14 mesh/core/libmesh_core_nrf51422_xxAC.a(timeslot.c.obj)
                0x00025670                timeslot_stop
 .text.timeslot_state_lock
                0x00025684       0x2c mesh/core/libmesh_core_nrf51422_xxAC.a(timeslot.c.obj)
                0x00025684                timeslot_state_lock
 .text.evt_push
                0x000256b0       0x24 mesh/core/libmesh_core_nrf51422_xxAC.a(bearer_event.c.obj)
 .text.QDEC_IRQHandler
                0x000256d4       0xc4 mesh/core/libmesh_core_nrf51422_xxAC.a(bearer_event.c.obj)
                0x000256d4                QDEC_IRQHandler
 .text.bearer_event_init
                0x00025798       0x48 mesh/core/libmesh_core_nrf51422_xxAC.a(bearer_event.c.obj)
                0x00025798                bearer_event_init
 .text.bearer_event_generic_post
                0x000257e0       0x34 mesh/core/libmesh_core_nrf51422_xxAC.a(bearer_event.c.obj)
                0x000257e0                bearer_event_generic_post
 .text.bearer_event_timer_post
                0x00025814       0x34 mesh/core/libmesh_core_nrf51422_xxAC.a(bearer_event.c.obj)
                0x00025814                bearer_event_timer_post
 .text.bearer_event_critical_section_begin
                0x00025848       0x48 mesh/core/libmesh_core_nrf51422_xxAC.a(bearer_event.c.obj)
                0x00025848                bearer_event_critical_section_begin
 .text.bearer_event_critical_section_end
                0x00025890       0x48 mesh/core/libmesh_core_nrf51422_xxAC.a(bearer_event.c.obj)
                0x00025890                bearer_event_critical_section_end
 .text.bearer_event_flag_add
                0x000258d8       0x54 mesh/core/libmesh_core_nrf51422_xxAC.a(bearer_event.c.obj)
                0x000258d8                bearer_event_flag_add
 .text.bearer_event_flag_set
                0x0002592c       0x58 mesh/core/libmesh_core_nrf51422_xxAC.a(bearer_event.c.obj)
                0x0002592c                bearer_event_flag_set
 .text.bearer_event_sequential_add
                0x00025984       0x4c mesh/core/libmesh_core_nrf51422_xxAC.a(bearer_event.c.obj)
                0x00025984                bearer_event_sequential_add
 .text.bearer_event_sequential_post
                0x000259d0       0x68 mesh/core/libmesh_core_nrf51422_xxAC.a(bearer_event.c.obj)
                0x000259d0                bearer_event_sequential_post
 .text.bearer_event_sequential_pending
                0x00025a38       0x20 mesh/core/libmesh_core_nrf51422_xxAC.a(bearer_event.c.obj)
                0x00025a38                bearer_event_sequential_pending
 .text.enc_aes_encrypt
                0x00025a58        0x8 mesh/core/libmesh_core_nrf51422_xxAC.a(enc.c.obj)
                0x00025a58                enc_aes_encrypt
 .text.enc_aes_cmac
                0x00025a60        0x8 mesh/core/libmesh_core_nrf51422_xxAC.a(enc.c.obj)
                0x00025a60                enc_aes_cmac
 .text.enc_aes_ccm_encrypt
                0x00025a68        0x8 mesh/core/libmesh_core_nrf51422_xxAC.a(enc.c.obj)
                0x00025a68                enc_aes_ccm_encrypt
 .text.enc_aes_ccm_decrypt
                0x00025a70        0x8 mesh/core/libmesh_core_nrf51422_xxAC.a(enc.c.obj)
                0x00025a70                enc_aes_ccm_decrypt
 .text.enc_nonce_generate
                0x00025a78       0xd8 mesh/core/libmesh_core_nrf51422_xxAC.a(enc.c.obj)
                0x00025a78                enc_nonce_generate
 .text.enc_s1   0x00025b50       0x3c mesh/core/libmesh_core_nrf51422_xxAC.a(enc.c.obj)
                0x00025b50                enc_s1
 .text.enc_k1   0x00025b8c       0x58 mesh/core/libmesh_core_nrf51422_xxAC.a(enc.c.obj)
                0x00025b8c                enc_k1
 .text.enc_k2   0x00025be4      0x110 mesh/core/libmesh_core_nrf51422_xxAC.a(enc.c.obj)
                0x00025be4                enc_k2
 .text.enc_k3   0x00025cf4       0x70 mesh/core/libmesh_core_nrf51422_xxAC.a(enc.c.obj)
                0x00025cf4                enc_k3
 .text.enc_k4   0x00025d64       0x74 mesh/core/libmesh_core_nrf51422_xxAC.a(enc.c.obj)
                0x00025d64                enc_k4
 .text.header_transfuscate
                0x00025dd8       0x58 mesh/core/libmesh_core_nrf51422_xxAC.a(network.c.obj)
 .text.allocate_packet
                0x00025e30      0x140 mesh/core/libmesh_core_nrf51422_xxAC.a(network.c.obj)
 .text.network_init
                0x00025f70       0x2c mesh/core/libmesh_core_nrf51422_xxAC.a(network.c.obj)
                0x00025f70                network_init
 .text.network_packet_alloc
                0x00025f9c       0x58 mesh/core/libmesh_core_nrf51422_xxAC.a(network.c.obj)
                0x00025f9c                network_packet_alloc
 .text.network_packet_send
                0x00025ff4      0x154 mesh/core/libmesh_core_nrf51422_xxAC.a(network.c.obj)
                0x00025ff4                network_packet_send
 .text.network_packet_in
                0x00026148      0x484 mesh/core/libmesh_core_nrf51422_xxAC.a(network.c.obj)
                0x00026148                network_packet_in
 .text.stage_get_available
                0x000265cc       0x26 mesh/core/libmesh_core_nrf51422_xxAC.a(msqueue.c.obj)
 *fill*         0x000265f2        0x2 
 .text.msq_get  0x000265f4       0x54 mesh/core/libmesh_core_nrf51422_xxAC.a(msqueue.c.obj)
                0x000265f4                msq_get
 .text.msq_move
                0x00026648       0x4c mesh/core/libmesh_core_nrf51422_xxAC.a(msqueue.c.obj)
                0x00026648                msq_move
 .text.msq_reset
                0x00026694       0x30 mesh/core/libmesh_core_nrf51422_xxAC.a(msqueue.c.obj)
                0x00026694                msq_reset
 .text.msq_init
                0x000266c4       0x88 mesh/core/libmesh_core_nrf51422_xxAC.a(msqueue.c.obj)
                0x000266c4                msq_init
 .text.msq_available
                0x0002674c       0x40 mesh/core/libmesh_core_nrf51422_xxAC.a(msqueue.c.obj)
                0x0002674c                msq_available
 .text.nrf_mesh_keygen_aid
                0x0002678c       0x16 mesh/core/libmesh_core_nrf51422_xxAC.a(nrf_mesh_keygen.c.obj)
                0x0002678c                nrf_mesh_keygen_aid
 .text.nrf_mesh_keygen_network_secmat
                0x000267a2       0x20 mesh/core/libmesh_core_nrf51422_xxAC.a(nrf_mesh_keygen.c.obj)
                0x000267a2                nrf_mesh_keygen_network_secmat
 *fill*         0x000267c2        0x2 
 .text.nrf_mesh_keygen_beacon_secmat
                0x000267c4       0x54 mesh/core/libmesh_core_nrf51422_xxAC.a(nrf_mesh_keygen.c.obj)
                0x000267c4                nrf_mesh_keygen_beacon_secmat
 .text.nrf_mesh_keygen_virtual_address
                0x00026818       0x50 mesh/core/libmesh_core_nrf51422_xxAC.a(nrf_mesh_keygen.c.obj)
                0x00026818                nrf_mesh_keygen_virtual_address
 .text.log_callback_rtt
                0x00026868       0x28 mesh/core/libmesh_core_nrf51422_xxAC.a(log.c.obj)
                0x00026868                log_callback_rtt
 .text.log_init
                0x00026890       0x1c mesh/core/libmesh_core_nrf51422_xxAC.a(log.c.obj)
                0x00026890                log_init
 .text.log_vprintf
                0x000268ac       0x1c mesh/core/libmesh_core_nrf51422_xxAC.a(log.c.obj)
                0x000268ac                log_vprintf
 .text.log_printf
                0x000268c8       0x16 mesh/core/libmesh_core_nrf51422_xxAC.a(log.c.obj)
                0x000268c8                log_printf
 .text.get_area_end
                0x000268de        0xc mesh/core/libmesh_core_nrf51422_xxAC.a(flash_manager.c.obj)
 *fill*         0x000268ea        0x2 
 .text.handle_matches_filter
                0x000268ec       0x28 mesh/core/libmesh_core_nrf51422_xxAC.a(flash_manager.c.obj)
 .text.get_packet_buffer
                0x00026914       0x30 mesh/core/libmesh_core_nrf51422_xxAC.a(flash_manager.c.obj)
 .text.get_entry_action
                0x00026944       0x30 mesh/core/libmesh_core_nrf51422_xxAC.a(flash_manager.c.obj)
 .text.flash_area_is_blank
                0x00026974       0x50 mesh/core/libmesh_core_nrf51422_xxAC.a(flash_manager.c.obj)
 .text.flash    0x000269c4       0x1e mesh/core/libmesh_core_nrf51422_xxAC.a(flash_manager.c.obj)
 *fill*         0x000269e2        0x2 
 .text.free_packet_buffer
                0x000269e4       0x4c mesh/core/libmesh_core_nrf51422_xxAC.a(flash_manager.c.obj)
 .text.reserve_action_buffer
                0x00026a30       0x20 mesh/core/libmesh_core_nrf51422_xxAC.a(flash_manager.c.obj)
 .text.commit_action_buffer
                0x00026a50       0x18 mesh/core/libmesh_core_nrf51422_xxAC.a(flash_manager.c.obj)
 .text.schedule_processing
                0x00026a68       0x10 mesh/core/libmesh_core_nrf51422_xxAC.a(flash_manager.c.obj)
 .text.get_next_entry
                0x00026a78       0x44 mesh/core/libmesh_core_nrf51422_xxAC.a(flash_manager.c.obj)
 .text.get_last_entry.isra.1
                0x00026abc       0x34 mesh/core/libmesh_core_nrf51422_xxAC.a(flash_manager.c.obj)
 .text.process_action_queue
                0x00026af0      0x49c mesh/core/libmesh_core_nrf51422_xxAC.a(flash_manager.c.obj)
 .text.flash_op_ended_callback
                0x00026f8c       0x24 mesh/core/libmesh_core_nrf51422_xxAC.a(flash_manager.c.obj)
 .text.flash_manager_init
                0x00026fb0       0x68 mesh/core/libmesh_core_nrf51422_xxAC.a(flash_manager.c.obj)
                0x00026fb0                flash_manager_init
 .text.flash_manager_remove
                0x00027018       0x24 mesh/core/libmesh_core_nrf51422_xxAC.a(flash_manager.c.obj)
                0x00027018                flash_manager_remove
 .text.flash_manager_entry_next_get
                0x0002703c       0x74 mesh/core/libmesh_core_nrf51422_xxAC.a(flash_manager.c.obj)
                0x0002703c                flash_manager_entry_next_get
 .text.flash_manager_entry_alloc
                0x000270b0       0x88 mesh/core/libmesh_core_nrf51422_xxAC.a(flash_manager.c.obj)
                0x000270b0                flash_manager_entry_alloc
 .text.flash_manager_entry_commit
                0x00027138       0x10 mesh/core/libmesh_core_nrf51422_xxAC.a(flash_manager.c.obj)
                0x00027138                flash_manager_entry_commit
 .text.flash_manager_entry_invalidate
                0x00027148       0x70 mesh/core/libmesh_core_nrf51422_xxAC.a(flash_manager.c.obj)
                0x00027148                flash_manager_entry_invalidate
 .text.flash_manager_add
                0x000271b8      0x250 mesh/core/libmesh_core_nrf51422_xxAC.a(flash_manager.c.obj)
                0x000271b8                flash_manager_add
 .text.flash_manager_mem_listener_register
                0x00027408       0x48 mesh/core/libmesh_core_nrf51422_xxAC.a(flash_manager.c.obj)
                0x00027408                flash_manager_mem_listener_register
 .text.flash_manager_is_stable
                0x00027450       0x24 mesh/core/libmesh_core_nrf51422_xxAC.a(flash_manager.c.obj)
                0x00027450                flash_manager_is_stable
 .text.flash_manager_on_defrag_end
                0x00027474       0x5c mesh/core/libmesh_core_nrf51422_xxAC.a(flash_manager.c.obj)
                0x00027474                flash_manager_on_defrag_end
 .text.flash_manager_recovery_page_get
                0x000274d0        0x8 mesh/core/libmesh_core_nrf51422_xxAC.a(flash_manager.c.obj)
                0x000274d0                flash_manager_recovery_page_get
 .text.utils_xor
                0x000274d8       0x16 mesh/core/libmesh_core_nrf51422_xxAC.a(ccm_soft.c.obj)
 .text.ccm_soft_authenticate_blocks
                0x000274ee       0x66 mesh/core/libmesh_core_nrf51422_xxAC.a(ccm_soft.c.obj)
 .text.utils_reverse_memcpy.constprop.0
                0x00027554        0xa mesh/core/libmesh_core_nrf51422_xxAC.a(ccm_soft.c.obj)
 .text.ccm_soft_authenticate
                0x0002755e       0x94 mesh/core/libmesh_core_nrf51422_xxAC.a(ccm_soft.c.obj)
 .text.ccm_soft_crypt
                0x000275f2       0x58 mesh/core/libmesh_core_nrf51422_xxAC.a(ccm_soft.c.obj)
 .text.ccm_soft_encrypt
                0x0002764a       0x6e mesh/core/libmesh_core_nrf51422_xxAC.a(ccm_soft.c.obj)
                0x0002764a                ccm_soft_encrypt
 .text.ccm_soft_decrypt
                0x000276b8      0x10c mesh/core/libmesh_core_nrf51422_xxAC.a(ccm_soft.c.obj)
                0x000276b8                ccm_soft_decrypt
 .text.beacon_init
                0x000277c4       0x4c mesh/core/libmesh_core_nrf51422_xxAC.a(beacon.c.obj)
                0x000277c4                beacon_init
 .text.beacon_create
                0x00027810       0x46 mesh/core/libmesh_core_nrf51422_xxAC.a(beacon.c.obj)
                0x00027810                beacon_create
 *fill*         0x00027856        0x2 
 .text.beacon_tx
                0x00027858       0x40 mesh/core/libmesh_core_nrf51422_xxAC.a(beacon.c.obj)
                0x00027858                beacon_tx
 .text.beacon_packet_in
                0x00027898      0x164 mesh/core/libmesh_core_nrf51422_xxAC.a(beacon.c.obj)
                0x00027898                beacon_packet_in
 .text.entry_get
                0x000279fc       0x80 mesh/core/libmesh_core_nrf51422_xxAC.a(flash_manager_internal.c.obj)
                0x000279fc                entry_get
 .text.adv_tx_complete_callback
                0x00027a7c       0x50 mesh/core/libmesh_core_nrf51422_xxAC.a(core_tx.c.obj)
 .text.core_tx_init
                0x00027acc       0x4c mesh/core/libmesh_core_nrf51422_xxAC.a(core_tx.c.obj)
                0x00027acc                core_tx_init
 .text.core_tx_complete_cb_set
                0x00027b18        0xc mesh/core/libmesh_core_nrf51422_xxAC.a(core_tx.c.obj)
                0x00027b18                core_tx_complete_cb_set
 .text.core_tx_packet_alloc
                0x00027b24       0xa4 mesh/core/libmesh_core_nrf51422_xxAC.a(core_tx.c.obj)
                0x00027b24                core_tx_packet_alloc
 .text.core_tx_packet_send
                0x00027bc8       0x78 mesh/core/libmesh_core_nrf51422_xxAC.a(core_tx.c.obj)
                0x00027bc8                core_tx_packet_send
 .text.core_tx_packet_discard
                0x00027c40       0x78 mesh/core/libmesh_core_nrf51422_xxAC.a(core_tx.c.obj)
                0x00027c40                core_tx_packet_discard
 .text.network_beacon_tx_cb
                0x00027cb8       0xf0 mesh/core/libmesh_core_nrf51422_xxAC.a(net_beacon.c.obj)
 .text.net_beacon_init
                0x00027da8       0x5c mesh/core/libmesh_core_nrf51422_xxAC.a(net_beacon.c.obj)
                0x00027da8                net_beacon_init
 .text.net_beacon_packet_in
                0x00027e04       0xd8 mesh/core/libmesh_core_nrf51422_xxAC.a(net_beacon.c.obj)
                0x00027e04                net_beacon_packet_in
 .text.set_gap_addr_type
                0x00027edc       0x30 mesh/core/libmesh_core_nrf51422_xxAC.a(advertiser.c.obj)
 .text.tx_complete_event_callback
                0x00027f0c       0x44 mesh/core/libmesh_core_nrf51422_xxAC.a(advertiser.c.obj)
 .text.broadcast_complete_cb
                0x00027f50       0x68 mesh/core/libmesh_core_nrf51422_xxAC.a(advertiser.c.obj)
 .text.schedule_first_time
                0x00027fb8       0x28 mesh/core/libmesh_core_nrf51422_xxAC.a(advertiser.c.obj)
 .text.timeout_event
                0x00027fe0      0x12c mesh/core/libmesh_core_nrf51422_xxAC.a(advertiser.c.obj)
 .text.advertiser_init
                0x0002810c       0x10 mesh/core/libmesh_core_nrf51422_xxAC.a(advertiser.c.obj)
                0x0002810c                advertiser_init
 .text.advertiser_enable
                0x0002811c       0x2c mesh/core/libmesh_core_nrf51422_xxAC.a(advertiser.c.obj)
                0x0002811c                advertiser_enable
 .text.advertiser_disable
                0x00028148        0xe mesh/core/libmesh_core_nrf51422_xxAC.a(advertiser.c.obj)
                0x00028148                advertiser_disable
 *fill*         0x00028156        0x2 
 .text.advertiser_packet_alloc
                0x00028158       0xac mesh/core/libmesh_core_nrf51422_xxAC.a(advertiser.c.obj)
                0x00028158                advertiser_packet_alloc
 .text.advertiser_packet_send
                0x00028204       0x74 mesh/core/libmesh_core_nrf51422_xxAC.a(advertiser.c.obj)
                0x00028204                advertiser_packet_send
 .text.advertiser_packet_discard
                0x00028278       0x2c mesh/core/libmesh_core_nrf51422_xxAC.a(advertiser.c.obj)
                0x00028278                advertiser_packet_discard
 .text.advertiser_channels_set
                0x000282a4       0x94 mesh/core/libmesh_core_nrf51422_xxAC.a(advertiser.c.obj)
                0x000282a4                advertiser_channels_set
 .text.advertiser_interval_set
                0x00028338       0x68 mesh/core/libmesh_core_nrf51422_xxAC.a(advertiser.c.obj)
                0x00028338                advertiser_interval_set
 .text.advertiser_flush
                0x000283a0       0x22 mesh/core/libmesh_core_nrf51422_xxAC.a(advertiser.c.obj)
                0x000283a0                advertiser_flush
 *fill*         0x000283c2        0x2 
 .text.advertiser_address_default_get
                0x000283c4       0x30 mesh/core/libmesh_core_nrf51422_xxAC.a(advertiser.c.obj)
                0x000283c4                advertiser_address_default_get
 .text.advertiser_instance_init
                0x000283f4       0xb4 mesh/core/libmesh_core_nrf51422_xxAC.a(advertiser.c.obj)
                0x000283f4                advertiser_instance_init
 .text.action_switch
                0x000284a8       0xc4 mesh/core/libmesh_core_nrf51422_xxAC.a(bearer_handler.c.obj)
 .text.bearer_handler_init
                0x0002856c       0x2c mesh/core/libmesh_core_nrf51422_xxAC.a(bearer_handler.c.obj)
                0x0002856c                bearer_handler_init
 .text.bearer_handler_start
                0x00028598       0x1c mesh/core/libmesh_core_nrf51422_xxAC.a(bearer_handler.c.obj)
                0x00028598                bearer_handler_start
 .text.bearer_handler_stop
                0x000285b4       0x20 mesh/core/libmesh_core_nrf51422_xxAC.a(bearer_handler.c.obj)
                0x000285b4                bearer_handler_stop
 .text.bearer_handler_action_enqueue
                0x000285d4       0x9c mesh/core/libmesh_core_nrf51422_xxAC.a(bearer_handler.c.obj)
                0x000285d4                bearer_handler_action_enqueue
 .text.bearer_handler_action_end
                0x00028670       0x7c mesh/core/libmesh_core_nrf51422_xxAC.a(bearer_handler.c.obj)
                0x00028670                bearer_handler_action_end
 .text.bearer_handler_radio_irq_handler
                0x000286ec       0x6c mesh/core/libmesh_core_nrf51422_xxAC.a(bearer_handler.c.obj)
                0x000286ec                bearer_handler_radio_irq_handler
 .text.bearer_handler_timer_irq_handler
                0x00028758       0x30 mesh/core/libmesh_core_nrf51422_xxAC.a(bearer_handler.c.obj)
                0x00028758                bearer_handler_timer_irq_handler
 .text.bearer_handler_on_ts_begin
                0x00028788       0x4c mesh/core/libmesh_core_nrf51422_xxAC.a(bearer_handler.c.obj)
                0x00028788                bearer_handler_on_ts_begin
 .text.bearer_handler_on_ts_end
                0x000287d4       0x50 mesh/core/libmesh_core_nrf51422_xxAC.a(bearer_handler.c.obj)
                0x000287d4                bearer_handler_on_ts_end
 .text.radio_irq_handler
                0x00028824       0xbc mesh/core/libmesh_core_nrf51422_xxAC.a(broadcast.c.obj)
 .text.broadcast_start
                0x000288e0       0x98 mesh/core/libmesh_core_nrf51422_xxAC.a(broadcast.c.obj)
 .text.broadcast_send
                0x00028978       0x80 mesh/core/libmesh_core_nrf51422_xxAC.a(broadcast.c.obj)
                0x00028978                broadcast_send
 .text.radio_config_reset
                0x000289f8       0x48 mesh/core/libmesh_core_nrf51422_xxAC.a(radio_config.c.obj)
                0x000289f8                radio_config_reset
 .text.radio_config_channel_set
                0x00028a40       0x3c mesh/core/libmesh_core_nrf51422_xxAC.a(radio_config.c.obj)
                0x00028a40                radio_config_channel_set
 .text.radio_config_config
                0x00028a7c       0xb0 mesh/core/libmesh_core_nrf51422_xxAC.a(radio_config.c.obj)
                0x00028a7c                radio_config_config
 .text.radio_config_access_addr_set
                0x00028b2c       0x74 mesh/core/libmesh_core_nrf51422_xxAC.a(radio_config.c.obj)
                0x00028b2c                radio_config_access_addr_set
 .text.radio_trigger
                0x00028ba0       0x24 mesh/core/libmesh_core_nrf51422_xxAC.a(scanner.c.obj)
 .text.scan_window_end
                0x00028bc4       0x14 mesh/core/libmesh_core_nrf51422_xxAC.a(scanner.c.obj)
 .text.scan_window_start
                0x00028bd8       0x28 mesh/core/libmesh_core_nrf51422_xxAC.a(scanner.c.obj)
 .text.radio_configure
                0x00028c00       0x88 mesh/core/libmesh_core_nrf51422_xxAC.a(scanner.c.obj)
 .text.radio_set_packet
                0x00028c88       0x58 mesh/core/libmesh_core_nrf51422_xxAC.a(scanner.c.obj)
 .text.radio_start
                0x00028ce0       0x54 mesh/core/libmesh_core_nrf51422_xxAC.a(scanner.c.obj)
 .text.radio_stop
                0x00028d34       0x38 mesh/core/libmesh_core_nrf51422_xxAC.a(scanner.c.obj)
 .text.schedule_timers
                0x00028d6c       0x34 mesh/core/libmesh_core_nrf51422_xxAC.a(scanner.c.obj)
 .text.scanner_radio_start
                0x00028da0       0x28 mesh/core/libmesh_core_nrf51422_xxAC.a(scanner.c.obj)
                0x00028da0                scanner_radio_start
 .text.scanner_radio_stop
                0x00028dc8       0x14 mesh/core/libmesh_core_nrf51422_xxAC.a(scanner.c.obj)
                0x00028dc8                scanner_radio_stop
 .text.scanner_radio_irq_handler
                0x00028ddc      0x124 mesh/core/libmesh_core_nrf51422_xxAC.a(scanner.c.obj)
                0x00028ddc                scanner_radio_irq_handler
 .text.scanner_enable
                0x00028f00       0x34 mesh/core/libmesh_core_nrf51422_xxAC.a(scanner.c.obj)
                0x00028f00                scanner_enable
 .text.scanner_disable
                0x00028f34       0x44 mesh/core/libmesh_core_nrf51422_xxAC.a(scanner.c.obj)
                0x00028f34                scanner_disable
 .text.scanner_packet_release
                0x00028f78       0x38 mesh/core/libmesh_core_nrf51422_xxAC.a(scanner.c.obj)
                0x00028f78                scanner_packet_release
 .text.scanner_rx
                0x00028fb0       0x34 mesh/core/libmesh_core_nrf51422_xxAC.a(scanner.c.obj)
                0x00028fb0                scanner_rx
 .text.scanner_config_scan_time_set
                0x00028fe4       0x6c mesh/core/libmesh_core_nrf51422_xxAC.a(scanner.c.obj)
                0x00028fe4                scanner_config_scan_time_set
 .text.scanner_config_channels_set
                0x00029050       0x68 mesh/core/libmesh_core_nrf51422_xxAC.a(scanner.c.obj)
                0x00029050                scanner_config_channels_set
 .text.scanner_config_access_addresses_set
                0x000290b8       0x44 mesh/core/libmesh_core_nrf51422_xxAC.a(scanner.c.obj)
                0x000290b8                scanner_config_access_addresses_set
 .text.scanner_config_reset
                0x000290fc       0x44 mesh/core/libmesh_core_nrf51422_xxAC.a(scanner.c.obj)
                0x000290fc                scanner_config_reset
 .text.scanner_init
                0x00029140       0x48 mesh/core/libmesh_core_nrf51422_xxAC.a(scanner.c.obj)
                0x00029140                scanner_init
 .text.sd_ecb_block_encrypt
                0x00029188        0x4 mesh/core/libmesh_core_nrf51422_xxAC.a(aes.c.obj)
 .text.aes_encrypt
                0x0002918c       0x30 mesh/core/libmesh_core_nrf51422_xxAC.a(aes.c.obj)
                0x0002918c                aes_encrypt
 .text.msg_cache_init
                0x000291bc       0x28 mesh/core/libmesh_core_nrf51422_xxAC.a(msg_cache.c.obj)
                0x000291bc                msg_cache_init
 .text.msg_cache_entry_exists
                0x000291e4       0x40 mesh/core/libmesh_core_nrf51422_xxAC.a(msg_cache.c.obj)
                0x000291e4                msg_cache_entry_exists
 .text.msg_cache_entry_add
                0x00029224       0x2c mesh/core/libmesh_core_nrf51422_xxAC.a(msg_cache.c.obj)
                0x00029224                msg_cache_entry_add
 .text.block_ack_full
                0x00029250       0x2c mesh/core/libmesh_core_nrf51422_xxAC.a(transport.c.obj)
 .text.seqauth_sequence_number_get
                0x0002927c       0x18 mesh/core/libmesh_core_nrf51422_xxAC.a(transport.c.obj)
 .text.sar_rx_session_mark_as_handled
                0x00029294       0x54 mesh/core/libmesh_core_nrf51422_xxAC.a(transport.c.obj)
 .text.sar_ctx_find
                0x000292e8       0x40 mesh/core/libmesh_core_nrf51422_xxAC.a(transport.c.obj)
 .text.m_send_sar_cancel_event
                0x00029328       0x26 mesh/core/libmesh_core_nrf51422_xxAC.a(transport.c.obj)
 *fill*         0x0002934e        0x2 
 .text.tx_complete
                0x00029350       0x30 mesh/core/libmesh_core_nrf51422_xxAC.a(transport.c.obj)
 .text.upper_trs_packet_alloc
                0x00029380       0x30 mesh/core/libmesh_core_nrf51422_xxAC.a(transport.c.obj)
 .text.upper_trs_packet_encrypt
                0x000293b0       0xc4 mesh/core/libmesh_core_nrf51422_xxAC.a(transport.c.obj)
 .text.sar_ctx_free
                0x00029474       0x38 mesh/core/libmesh_core_nrf51422_xxAC.a(transport.c.obj)
 .text.sar_ctx_tx_complete
                0x000294ac       0x3c mesh/core/libmesh_core_nrf51422_xxAC.a(transport.c.obj)
 .text.sar_ctx_cancel
                0x000294e8      0x110 mesh/core/libmesh_core_nrf51422_xxAC.a(transport.c.obj)
 .text.abort_timeout
                0x000295f8        0xc mesh/core/libmesh_core_nrf51422_xxAC.a(transport.c.obj)
 .text.sar_ctx_alloc
                0x00029604       0xc4 mesh/core/libmesh_core_nrf51422_xxAC.a(transport.c.obj)
 .text.test_transport_decrypt
                0x000296c8       0x90 mesh/core/libmesh_core_nrf51422_xxAC.a(transport.c.obj)
 .text.upper_transport_access_packet_in
                0x00029758      0x290 mesh/core/libmesh_core_nrf51422_xxAC.a(transport.c.obj)
 .text.trs_packet_header_build
                0x000299e8       0x96 mesh/core/libmesh_core_nrf51422_xxAC.a(transport.c.obj)
 *fill*         0x00029a7e        0x2 
 .text.trs_sar_packet_out
                0x00029a80       0xc4 mesh/core/libmesh_core_nrf51422_xxAC.a(transport.c.obj)
 .text.retry_timeout
                0x00029b44       0x54 mesh/core/libmesh_core_nrf51422_xxAC.a(transport.c.obj)
 .text.sar_ack_send
                0x00029b98      0x11c mesh/core/libmesh_core_nrf51422_xxAC.a(transport.c.obj)
 .text.ack_timeout
                0x00029cb4       0x3c mesh/core/libmesh_core_nrf51422_xxAC.a(transport.c.obj)
 .text.tx_retry_timer_reset
                0x00029cf0       0x50 mesh/core/libmesh_core_nrf51422_xxAC.a(transport.c.obj)
 .text.upper_transport_packet_in
                0x00029d40      0x174 mesh/core/libmesh_core_nrf51422_xxAC.a(transport.c.obj)
 .text.transport_sar_process
                0x00029eb4       0x78 mesh/core/libmesh_core_nrf51422_xxAC.a(transport.c.obj)
 .text.transport_sar_mem_funcs_reset
                0x00029f2c       0x2c mesh/core/libmesh_core_nrf51422_xxAC.a(transport.c.obj)
                0x00029f2c                transport_sar_mem_funcs_reset
 .text.transport_init
                0x00029f58       0x74 mesh/core/libmesh_core_nrf51422_xxAC.a(transport.c.obj)
                0x00029f58                transport_init
 .text.transport_packet_in
                0x00029fcc      0x4f0 mesh/core/libmesh_core_nrf51422_xxAC.a(transport.c.obj)
                0x00029fcc                transport_packet_in
 .text.transport_tx
                0x0002a4bc      0x2b8 mesh/core/libmesh_core_nrf51422_xxAC.a(transport.c.obj)
                0x0002a4bc                transport_tx
 .text.get_last_page
                0x0002a774       0x14 mesh/core/libmesh_core_nrf51422_xxAC.a(flash_manager_defrag.c.obj)
 .text.defrag_on_end
                0x0002a788       0x1c mesh/core/libmesh_core_nrf51422_xxAC.a(flash_manager_defrag.c.obj)
 .text.execute_procedure_step
                0x0002a7a4       0xac mesh/core/libmesh_core_nrf51422_xxAC.a(flash_manager_defrag.c.obj)
 .text.get_next_entry
                0x0002a850       0x44 mesh/core/libmesh_core_nrf51422_xxAC.a(flash_manager_defrag.c.obj)
 .text.get_next_data_entry
                0x0002a894       0x24 mesh/core/libmesh_core_nrf51422_xxAC.a(flash_manager_defrag.c.obj)
 .text.on_flash_op_end
                0x0002a8b8       0x34 mesh/core/libmesh_core_nrf51422_xxAC.a(flash_manager_defrag.c.obj)
 .text.check_for_invalid_entries
                0x0002a8ec       0x3c mesh/core/libmesh_core_nrf51422_xxAC.a(flash_manager_defrag.c.obj)
 .text.erase_recovery_area
                0x0002a928       0x30 mesh/core/libmesh_core_nrf51422_xxAC.a(flash_manager_defrag.c.obj)
 .text.flash.constprop.6
                0x0002a958       0x20 mesh/core/libmesh_core_nrf51422_xxAC.a(flash_manager_defrag.c.obj)
 .text.seal_storage_page
                0x0002a978       0x58 mesh/core/libmesh_core_nrf51422_xxAC.a(flash_manager_defrag.c.obj)
 .text.invalidate_duplicate_entries
                0x0002a9d0       0x88 mesh/core/libmesh_core_nrf51422_xxAC.a(flash_manager_defrag.c.obj)
 .text.copy_metadata
                0x0002aa58       0x40 mesh/core/libmesh_core_nrf51422_xxAC.a(flash_manager_defrag.c.obj)
 .text.write_defrag_start_pointer
                0x0002aa98       0x20 mesh/core/libmesh_core_nrf51422_xxAC.a(flash_manager_defrag.c.obj)
 .text.write_back
                0x0002aab8       0x2c mesh/core/libmesh_core_nrf51422_xxAC.a(flash_manager_defrag.c.obj)
 .text.post_process
                0x0002aae4       0x44 mesh/core/libmesh_core_nrf51422_xxAC.a(flash_manager_defrag.c.obj)
 .text.backup_entries
                0x0002ab28      0x128 mesh/core/libmesh_core_nrf51422_xxAC.a(flash_manager_defrag.c.obj)
 .text.erase_source
                0x0002ac50       0x30 mesh/core/libmesh_core_nrf51422_xxAC.a(flash_manager_defrag.c.obj)
 .text.flash_manager_defrag_init
                0x0002ac80       0xa0 mesh/core/libmesh_core_nrf51422_xxAC.a(flash_manager_defrag.c.obj)
                0x0002ac80                flash_manager_defrag_init
 .text.flash_manager_defrag_is_running
                0x0002ad20       0x10 mesh/core/libmesh_core_nrf51422_xxAC.a(flash_manager_defrag.c.obj)
                0x0002ad20                flash_manager_defrag_is_running
 .text.flash_manager_defrag
                0x0002ad30       0xdc mesh/core/libmesh_core_nrf51422_xxAC.a(flash_manager_defrag.c.obj)
                0x0002ad30                flash_manager_defrag
 .text.flash_manager_defrag_recovery_page_get
                0x0002ae0c        0xc mesh/core/libmesh_core_nrf51422_xxAC.a(flash_manager_defrag.c.obj)
                0x0002ae0c                flash_manager_defrag_recovery_page_get
 .text.wait_for_ready
                0x0002ae18       0x14 mesh/core/libmesh_core_nrf51422_xxAC.a(nrf_flash.c.obj)
 .text.nrf_flash_erase
                0x0002ae2c       0x58 mesh/core/libmesh_core_nrf51422_xxAC.a(nrf_flash.c.obj)
                0x0002ae2c                nrf_flash_erase
 .text.nrf_flash_write
                0x0002ae84       0x5c mesh/core/libmesh_core_nrf51422_xxAC.a(nrf_flash.c.obj)
                0x0002ae84                nrf_flash_write
 .text.packet_mgr_init
                0x0002aee0       0x54 mesh/core/libmesh_core_nrf51422_xxAC.a(packet_mgr.c.obj)
                0x0002aee0                packet_mgr_init
 .text.queue_init
                0x0002af34       0x24 mesh/core/libmesh_core_nrf51422_xxAC.a(queue.c.obj)
                0x0002af34                queue_init
 .text.queue_push
                0x0002af58       0x54 mesh/core/libmesh_core_nrf51422_xxAC.a(queue.c.obj)
                0x0002af58                queue_push
 .text.queue_pop
                0x0002afac       0x3c mesh/core/libmesh_core_nrf51422_xxAC.a(queue.c.obj)
                0x0002afac                queue_pop
 .text.queue_peek
                0x0002afe8       0x20 mesh/core/libmesh_core_nrf51422_xxAC.a(queue.c.obj)
                0x0002afe8                queue_peek
 .text.my_xor.constprop.1
                0x0002b008       0x12 mesh/core/libmesh_core_nrf51422_xxAC.a(aes_cmac.c.obj)
 .text.utils_lshift.constprop.2
                0x0002b01a       0x18 mesh/core/libmesh_core_nrf51422_xxAC.a(aes_cmac.c.obj)
 *fill*         0x0002b032        0x2 
 .text.aes_cmac_subkey_generate
                0x0002b034       0x64 mesh/core/libmesh_core_nrf51422_xxAC.a(aes_cmac.c.obj)
                0x0002b034                aes_cmac_subkey_generate
 .text.aes_cmac
                0x0002b098       0xc0 mesh/core/libmesh_core_nrf51422_xxAC.a(aes_cmac.c.obj)
                0x0002b098                aes_cmac
 .text.replay_cache_add
                0x0002b158       0x68 mesh/core/libmesh_core_nrf51422_xxAC.a(replay_cache.c.obj)
                0x0002b158                replay_cache_add
 .text.replay_cache_has_room
                0x0002b1c0       0x38 mesh/core/libmesh_core_nrf51422_xxAC.a(replay_cache.c.obj)
                0x0002b1c0                replay_cache_has_room
 .text.replay_cache_has_elem
                0x0002b1f8       0x38 mesh/core/libmesh_core_nrf51422_xxAC.a(replay_cache.c.obj)
                0x0002b1f8                replay_cache_has_elem
 .text.replay_cache_clear
                0x0002b230       0x28 mesh/core/libmesh_core_nrf51422_xxAC.a(replay_cache.c.obj)
                0x0002b230                replay_cache_clear
 .text.replay_cache_init
                0x0002b258        0x8 mesh/core/libmesh_core_nrf51422_xxAC.a(replay_cache.c.obj)
                0x0002b258                replay_cache_init
 .text.fen_filters_apply
                0x0002b260       0x34 mesh/core/libmesh_core_nrf51422_xxAC.a(filter_engine.c.obj)
                0x0002b260                fen_filters_apply
 .text._GetAvailWriteSpace
                0x0002b294       0x12 external/rtt/librtt_nrf51422_xxAC.a(SEGGER_RTT.c.obj)
 .text._WriteNoCheck
                0x0002b2a6       0x38 external/rtt/librtt_nrf51422_xxAC.a(SEGGER_RTT.c.obj)
 .text._WriteBlocking
                0x0002b2de       0x5a external/rtt/librtt_nrf51422_xxAC.a(SEGGER_RTT.c.obj)
 .text._DoInit  0x0002b338       0x64 external/rtt/librtt_nrf51422_xxAC.a(SEGGER_RTT.c.obj)
 .text.SEGGER_RTT_WriteNoLock
                0x0002b39c       0x6c external/rtt/librtt_nrf51422_xxAC.a(SEGGER_RTT.c.obj)
                0x0002b39c                SEGGER_RTT_WriteNoLock
 .text.SEGGER_RTT_Write
                0x0002b408       0x34 external/rtt/librtt_nrf51422_xxAC.a(SEGGER_RTT.c.obj)
                0x0002b408                SEGGER_RTT_Write
 .text._StoreChar
                0x0002b43c       0x3e external/rtt/librtt_nrf51422_xxAC.a(SEGGER_RTT_printf.c.obj)
 *fill*         0x0002b47a        0x2 
 .text._PrintUnsigned
                0x0002b47c       0xe0 external/rtt/librtt_nrf51422_xxAC.a(SEGGER_RTT_printf.c.obj)
 .text.SEGGER_RTT_vprintf
                0x0002b55c      0x25c external/rtt/librtt_nrf51422_xxAC.a(SEGGER_RTT_printf.c.obj)
                0x0002b55c                SEGGER_RTT_vprintf
 .text.SEGGER_RTT_printf
                0x0002b7b8       0x18 external/rtt/librtt_nrf51422_xxAC.a(SEGGER_RTT_printf.c.obj)
                0x0002b7b8                SEGGER_RTT_printf
 .text.uECC_vli_mult
                0x0002b7d0       0x90 external/micro-ecc/libuECC_nrf51422_xxAC.a(uECC.c.obj)
 .text.uECC_vli_clear
                0x0002b860       0x16 external/micro-ecc/libuECC_nrf51422_xxAC.a(uECC.c.obj)
 .text.uECC_vli_isZero
                0x0002b876       0x1c external/micro-ecc/libuECC_nrf51422_xxAC.a(uECC.c.obj)
 .text.uECC_vli_testBit
                0x0002b892       0x12 external/micro-ecc/libuECC_nrf51422_xxAC.a(uECC.c.obj)
 .text.uECC_vli_numBits
                0x0002b8a4       0x40 external/micro-ecc/libuECC_nrf51422_xxAC.a(uECC.c.obj)
 .text.uECC_vli_set
                0x0002b8e4       0x16 external/micro-ecc/libuECC_nrf51422_xxAC.a(uECC.c.obj)
 .text.uECC_vli_cmp_unsafe
                0x0002b8fa       0x24 external/micro-ecc/libuECC_nrf51422_xxAC.a(uECC.c.obj)
 .text.uECC_vli_rshift1
                0x0002b91e       0x1e external/micro-ecc/libuECC_nrf51422_xxAC.a(uECC.c.obj)
 .text.uECC_vli_modMult_fast
                0x0002b93c       0x20 external/micro-ecc/libuECC_nrf51422_xxAC.a(uECC.c.obj)
 .text.uECC_vli_modSquare_fast
                0x0002b95c        0xc external/micro-ecc/libuECC_nrf51422_xxAC.a(uECC.c.obj)
 .text.apply_z  0x0002b968       0x3e external/micro-ecc/libuECC_nrf51422_xxAC.a(uECC.c.obj)
 .text.uECC_vli_nativeToBytes
                0x0002b9a6       0x24 external/micro-ecc/libuECC_nrf51422_xxAC.a(uECC.c.obj)
 .text.uECC_vli_bytesToNative
                0x0002b9ca       0x44 external/micro-ecc/libuECC_nrf51422_xxAC.a(uECC.c.obj)
 .text.default_RNG
                0x0002ba0e        0xc external/micro-ecc/libuECC_nrf51422_xxAC.a(uECC.c.obj)
 .text.uECC_vli_add.isra.0
                0x0002ba1a       0x4a external/micro-ecc/libuECC_nrf51422_xxAC.a(uECC.c.obj)
 .text.regularize_k
                0x0002ba64       0x52 external/micro-ecc/libuECC_nrf51422_xxAC.a(uECC.c.obj)
 .text.uECC_vli_sub.isra.1
                0x0002bab6       0x4c external/micro-ecc/libuECC_nrf51422_xxAC.a(uECC.c.obj)
 .text.uECC_vli_cmp
                0x0002bb02       0x2a external/micro-ecc/libuECC_nrf51422_xxAC.a(uECC.c.obj)
 .text.uECC_generate_random_int
                0x0002bb2c       0x78 external/micro-ecc/libuECC_nrf51422_xxAC.a(uECC.c.obj)
 .text.uECC_vli_modAdd
                0x0002bba4       0x2e external/micro-ecc/libuECC_nrf51422_xxAC.a(uECC.c.obj)
 *fill*         0x0002bbd2        0x2 
 .text.vli_mmod_fast_secp256r1
                0x0002bbd4      0x19c external/micro-ecc/libuECC_nrf51422_xxAC.a(uECC.c.obj)
 .text.uECC_vli_modSub.isra.2
                0x0002bd70       0x1a external/micro-ecc/libuECC_nrf51422_xxAC.a(uECC.c.obj)
 *fill*         0x0002bd8a        0x2 
 .text.double_jacobian_default
                0x0002bd8c      0x14c external/micro-ecc/libuECC_nrf51422_xxAC.a(uECC.c.obj)
 .text.x_side_default
                0x0002bed8       0x58 external/micro-ecc/libuECC_nrf51422_xxAC.a(uECC.c.obj)
 .text.XYcZ_add
                0x0002bf30       0xbe external/micro-ecc/libuECC_nrf51422_xxAC.a(uECC.c.obj)
 .text.XYcZ_addC
                0x0002bfee      0x10c external/micro-ecc/libuECC_nrf51422_xxAC.a(uECC.c.obj)
 *fill*         0x0002c0fa        0x2 
 .text.vli_modInv_update
                0x0002c0fc       0x3c external/micro-ecc/libuECC_nrf51422_xxAC.a(uECC.c.obj)
 .text.uECC_vli_modInv
                0x0002c138      0x10a external/micro-ecc/libuECC_nrf51422_xxAC.a(uECC.c.obj)
 .text.EccPoint_mult
                0x0002c242      0x19c external/micro-ecc/libuECC_nrf51422_xxAC.a(uECC.c.obj)
 .text.EccPoint_compute_public_key
                0x0002c3de       0x4c external/micro-ecc/libuECC_nrf51422_xxAC.a(uECC.c.obj)
 *fill*         0x0002c42a        0x2 
 .text.uECC_secp256r1
                0x0002c42c        0x8 external/micro-ecc/libuECC_nrf51422_xxAC.a(uECC.c.obj)
                0x0002c42c                uECC_secp256r1
 .text.uECC_make_key
                0x0002c434       0x84 external/micro-ecc/libuECC_nrf51422_xxAC.a(uECC.c.obj)
                0x0002c434                uECC_make_key
 .text.uECC_shared_secret
                0x0002c4b8       0xc0 external/micro-ecc/libuECC_nrf51422_xxAC.a(uECC.c.obj)
                0x0002c4b8                uECC_shared_secret
 .text.uECC_valid_point
                0x0002c578       0x86 external/micro-ecc/libuECC_nrf51422_xxAC.a(uECC.c.obj)
                0x0002c578                uECC_valid_point
 .text.uECC_valid_public_key
                0x0002c5fe       0x32 external/micro-ecc/libuECC_nrf51422_xxAC.a(uECC.c.obj)
                0x0002c5fe                uECC_valid_public_key
 .text          0x0002c630       0x14 c:/a/gcc_arm/6/bin/../lib/gcc/arm-none-eabi/6.3.1/thumb/v6-m\libgcc.a(_thumb1_case_uqi.o)
                0x0002c630                __gnu_thumb1_case_uqi
 .text          0x0002c644       0x14 c:/a/gcc_arm/6/bin/../lib/gcc/arm-none-eabi/6.3.1/thumb/v6-m\libgcc.a(_thumb1_case_shi.o)
                0x0002c644                __gnu_thumb1_case_shi
 .text          0x0002c658       0x14 c:/a/gcc_arm/6/bin/../lib/gcc/arm-none-eabi/6.3.1/thumb/v6-m\libgcc.a(_thumb1_case_uhi.o)
                0x0002c658                __gnu_thumb1_case_uhi
 .text          0x0002c66c      0x114 c:/a/gcc_arm/6/bin/../lib/gcc/arm-none-eabi/6.3.1/thumb/v6-m\libgcc.a(_udivsi3.o)
                0x0002c66c                __aeabi_uidiv
                0x0002c66c                __udivsi3
                0x0002c778                __aeabi_uidivmod
 .text          0x0002c780      0x1d4 c:/a/gcc_arm/6/bin/../lib/gcc/arm-none-eabi/6.3.1/thumb/v6-m\libgcc.a(_divsi3.o)
                0x0002c780                __divsi3
                0x0002c780                __aeabi_idiv
                0x0002c94c                __aeabi_idivmod
 .text          0x0002c954        0x4 c:/a/gcc_arm/6/bin/../lib/gcc/arm-none-eabi/6.3.1/thumb/v6-m\libgcc.a(_dvmd_tls.o)
                0x0002c954                __aeabi_idiv0
                0x0002c954                __aeabi_ldiv0
 .text          0x0002c958       0x54 c:/a/gcc_arm/6/bin/../lib/gcc/arm-none-eabi/6.3.1/thumb/v6-m\libgcc.a(_muldi3.o)
                0x0002c958                __muldi3
                0x0002c958                __aeabi_lmul
 .text.exit     0x0002c9ac       0x2c c:/a/gcc_arm/6/bin/../lib/gcc/arm-none-eabi/6.3.1/../../../../arm-none-eabi/lib/thumb/v6-m\libc_nano.a(lib_a-exit.o)
                0x0002c9ac                exit
 .text.__libc_init_array
                0x0002c9d8       0x48 c:/a/gcc_arm/6/bin/../lib/gcc/arm-none-eabi/6.3.1/../../../../arm-none-eabi/lib/thumb/v6-m\libc_nano.a(lib_a-init.o)
                0x0002c9d8                __libc_init_array
 .text.malloc   0x0002ca20       0x14 c:/a/gcc_arm/6/bin/../lib/gcc/arm-none-eabi/6.3.1/../../../../arm-none-eabi/lib/thumb/v6-m\libc_nano.a(lib_a-malloc.o)
                0x0002ca20                malloc
 .text.free     0x0002ca34       0x14 c:/a/gcc_arm/6/bin/../lib/gcc/arm-none-eabi/6.3.1/../../../../arm-none-eabi/lib/thumb/v6-m\libc_nano.a(lib_a-malloc.o)
                0x0002ca34                free
 .text.memcmp   0x0002ca48       0x1e c:/a/gcc_arm/6/bin/../lib/gcc/arm-none-eabi/6.3.1/../../../../arm-none-eabi/lib/thumb/v6-m\libc_nano.a(lib_a-memcmp.o)
                0x0002ca48                memcmp
 .text.memcpy   0x0002ca66       0x12 c:/a/gcc_arm/6/bin/../lib/gcc/arm-none-eabi/6.3.1/../../../../arm-none-eabi/lib/thumb/v6-m\libc_nano.a(lib_a-memcpy-stub.o)
                0x0002ca66                memcpy
 .text.memset   0x0002ca78       0x10 c:/a/gcc_arm/6/bin/../lib/gcc/arm-none-eabi/6.3.1/../../../../arm-none-eabi/lib/thumb/v6-m\libc_nano.a(lib_a-memset.o)
                0x0002ca78                memset
 .text._free_r  0x0002ca88       0x94 c:/a/gcc_arm/6/bin/../lib/gcc/arm-none-eabi/6.3.1/../../../../arm-none-eabi/lib/thumb/v6-m\libc_nano.a(lib_a-nano-freer.o)
                0x0002ca88                _free_r
 .text._malloc_r
                0x0002cb1c       0xbc c:/a/gcc_arm/6/bin/../lib/gcc/arm-none-eabi/6.3.1/../../../../arm-none-eabi/lib/thumb/v6-m\libc_nano.a(lib_a-nano-mallocr.o)
                0x0002cb1c                _malloc_r
 .text._sbrk_r  0x0002cbd8       0x24 c:/a/gcc_arm/6/bin/../lib/gcc/arm-none-eabi/6.3.1/../../../../arm-none-eabi/lib/thumb/v6-m\libc_nano.a(lib_a-sbrkr.o)
                0x0002cbd8                _sbrk_r
 .text.strcpy   0x0002cbfc       0x10 c:/a/gcc_arm/6/bin/../lib/gcc/arm-none-eabi/6.3.1/../../../../arm-none-eabi/lib/thumb/v6-m\libc_nano.a(lib_a-strcpy.o)
                0x0002cbfc                strcpy
 .text          0x0002cc0c        0xe c:/a/gcc_arm/6/bin/../lib/gcc/arm-none-eabi/6.3.1/../../../../arm-none-eabi/lib/thumb/v6-m\libc_nano.a(lib_a-strlen.o)
                0x0002cc0c                strlen
 .text.strrchr  0x0002cc1a       0x24 c:/a/gcc_arm/6/bin/../lib/gcc/arm-none-eabi/6.3.1/../../../../arm-none-eabi/lib/thumb/v6-m\libc_nano.a(lib_a-strrchr.o)
                0x0002cc1a                strrchr
 .text.__malloc_lock
                0x0002cc3e        0x2 c:/a/gcc_arm/6/bin/../lib/gcc/arm-none-eabi/6.3.1/../../../../arm-none-eabi/lib/thumb/v6-m\libc_nano.a(lib_a-mlock.o)
                0x0002cc3e                __malloc_lock
 .text.__malloc_unlock
                0x0002cc40        0x2 c:/a/gcc_arm/6/bin/../lib/gcc/arm-none-eabi/6.3.1/../../../../arm-none-eabi/lib/thumb/v6-m\libc_nano.a(lib_a-mlock.o)
                0x0002cc40                __malloc_unlock
 .text.strchr   0x0002cc42       0x1c c:/a/gcc_arm/6/bin/../lib/gcc/arm-none-eabi/6.3.1/../../../../arm-none-eabi/lib/thumb/v6-m\libc_nano.a(lib_a-strchr.o)
                0x0002cc42                strchr
 *fill*         0x0002cc5e        0x2 
 .text._sbrk    0x0002cc60       0x1c c:/a/gcc_arm/6/bin/../lib/gcc/arm-none-eabi/6.3.1/../../../../arm-none-eabi/lib/thumb/v6-m\libnosys.a(sbrk.o)
                0x0002cc60                _sbrk
 .text._exit    0x0002cc7c        0x4 c:/a/gcc_arm/6/bin/../lib/gcc/arm-none-eabi/6.3.1/../../../../arm-none-eabi/lib/thumb/v6-m\libnosys.a(_exit.o)
                0x0002cc7c                _exit
 *(.init)
 .init          0x0002cc80        0x4 c:/a/gcc_arm/6/bin/../lib/gcc/arm-none-eabi/6.3.1/thumb/v6-m/crti.o
                0x0002cc80                _init
 .init          0x0002cc84        0x8 c:/a/gcc_arm/6/bin/../lib/gcc/arm-none-eabi/6.3.1/thumb/v6-m/crtn.o
 *(.fini)
 .fini          0x0002cc8c        0x4 c:/a/gcc_arm/6/bin/../lib/gcc/arm-none-eabi/6.3.1/thumb/v6-m/crti.o
                0x0002cc8c                _fini
 .fini          0x0002cc90        0x8 c:/a/gcc_arm/6/bin/../lib/gcc/arm-none-eabi/6.3.1/thumb/v6-m/crtn.o
 *crtbegin.o(.ctors)
 *crtbegin?.o(.ctors)
 *(EXCLUDE_FILE(*crtend.o *crtend?.o) .ctors)
 *(SORT(.ctors.*))
 *(.ctors)
 *crtbegin.o(.dtors)
 *crtbegin?.o(.dtors)
 *(EXCLUDE_FILE(*crtend.o *crtend?.o) .dtors)
 *(SORT(.dtors.*))
 *(.dtors)
 *(.rodata*)
 .rodata.main.str1.1
                0x0002cc98       0x9d examples/dfu/CMakeFiles/dfu_nrf51422_xxAC_s130_2.0.1.dir/src/main.c.obj
 .rodata.mesh_evt_handler.str1.1
                0x0002cd35       0x1b examples/dfu/CMakeFiles/dfu_nrf51422_xxAC_s130_2.0.1.dir/src/main.c.obj
 .rodata.HardFault_Handler.str1.1
                0x0002cd50        0xe examples/dfu/CMakeFiles/dfu_nrf51422_xxAC_s130_2.0.1.dir/__/nrf_mesh_sdk.c.obj
 .rodata.app_error_handler.str1.1
                0x0002cd5e       0x1d examples/dfu/CMakeFiles/dfu_nrf51422_xxAC_s130_2.0.1.dir/__/nrf_mesh_sdk.c.obj
 .rodata.mesh_assert_handler.str1.1
                0x0002cd7b       0x34 examples/dfu/CMakeFiles/dfu_nrf51422_xxAC_s130_2.0.1.dir/__/nrf_mesh_sdk.c.obj
 .rodata.mesh_core_setup.str1.1
                0x0002cdaf       0x47 examples/dfu/CMakeFiles/dfu_nrf51422_xxAC_s130_2.0.1.dir/__/nrf_mesh_sdk.c.obj
 .rodata.mesh_softdevice_enable.str1.1
                0x0002cdf6       0x65 examples/dfu/CMakeFiles/dfu_nrf51422_xxAC_s130_2.0.1.dir/__/nrf_mesh_sdk.c.obj
 .rodata.softdevice_assert_handler.str1.1
                0x0002ce5b       0x1d examples/dfu/CMakeFiles/dfu_nrf51422_xxAC_s130_2.0.1.dir/__/nrf_mesh_sdk.c.obj
 .rodata.m_flash_groups
                0x0002ce78       0xc0 examples/dfu/CMakeFiles/dfu_nrf51422_xxAC_s130_2.0.1.dir/__/__/mesh/access/src/device_state_manager.c.obj
 .rodata.m_cmd_handlers
                0x0002cf38       0xb0 examples/dfu/CMakeFiles/dfu_nrf51422_xxAC_s130_2.0.1.dir/__/__/mesh/serial/src/serial_handler_access.c.obj
 .rodata.m_cmd_handlers
                0x0002cfe8       0x48 examples/dfu/CMakeFiles/dfu_nrf51422_xxAC_s130_2.0.1.dir/__/__/mesh/serial/src/serial.c.obj
 .rodata.serial_process_cmd.str1.1
                0x0002d030       0x17 examples/dfu/CMakeFiles/dfu_nrf51422_xxAC_s130_2.0.1.dir/__/__/mesh/serial/src/serial.c.obj
 .rodata.serial_start.str1.1
                0x0002d047       0x63 examples/dfu/CMakeFiles/dfu_nrf51422_xxAC_s130_2.0.1.dir/__/__/mesh/serial/src/serial.c.obj
 .rodata.serial_handler_prov_init.str1.1
                0x0002d0aa       0x4b examples/dfu/CMakeFiles/dfu_nrf51422_xxAC_s130_2.0.1.dir/__/__/mesh/serial/src/serial_handler_prov.c.obj
 .rodata.lengths.8408
                0x0002d0f5        0x7 examples/dfu/CMakeFiles/dfu_nrf51422_xxAC_s130_2.0.1.dir/__/__/mesh/serial/src/serial_handler_dfu.c.obj
 .rodata.m_handlers
                0x0002d0fc       0xe8 examples/dfu/CMakeFiles/dfu_nrf51422_xxAC_s130_2.0.1.dir/__/__/mesh/serial/src/serial_handler_mesh.c.obj
 .rodata.m_cmd_handlers
                0x0002d1e4       0x18 examples/dfu/CMakeFiles/dfu_nrf51422_xxAC_s130_2.0.1.dir/__/__/mesh/serial/src/serial_handler_models.c.obj
 .rodata.m_cmd_handlers
                0x0002d1fc       0x48 examples/dfu/CMakeFiles/dfu_nrf51422_xxAC_s130_2.0.1.dir/__/__/mesh/serial/src/serial_handler_device.c.obj
 .rodata.m_prov_callbacks
                0x0002d244       0x10 examples/dfu/CMakeFiles/dfu_nrf51422_xxAC_s130_2.0.1.dir/__/__/mesh/prov/src/prov_provisioner.c.obj
 .rodata.m_prov_callbacks
                0x0002d254       0x10 examples/dfu/CMakeFiles/dfu_nrf51422_xxAC_s130_2.0.1.dir/__/__/mesh/prov/src/prov_provisionee.c.obj
 .rodata.prov_provisionee_cb_ack_received.str1.1
                0x0002d264       0x53 examples/dfu/CMakeFiles/dfu_nrf51422_xxAC_s130_2.0.1.dir/__/__/mesh/prov/src/prov_provisionee.c.obj
 .rodata.pdu_sizes.8283
                0x0002d2b7        0xa examples/dfu/CMakeFiles/dfu_nrf51422_xxAC_s130_2.0.1.dir/__/__/mesh/prov/src/provisioning.c.obj
 .rodata.prov_cb_pkt_in.str1.1
                0x0002d2c1       0x34 examples/dfu/CMakeFiles/dfu_nrf51422_xxAC_s130_2.0.1.dir/__/__/mesh/prov/src/provisioning.c.obj
 .rodata.alphanumeric.8387
                0x0002d2f5       0x25 examples/dfu/CMakeFiles/dfu_nrf51422_xxAC_s130_2.0.1.dir/__/__/mesh/prov/src/prov_utils.c.obj
 *fill*         0x0002d31a        0x2 
 .rodata.numeric_max.8381
                0x0002d31c       0x24 examples/dfu/CMakeFiles/dfu_nrf51422_xxAC_s130_2.0.1.dir/__/__/mesh/prov/src/prov_utils.c.obj
 .rodata.prov_utils_authentication_values_derive.str1.1
                0x0002d340        0x5 examples/dfu/CMakeFiles/dfu_nrf51422_xxAC_s130_2.0.1.dir/__/__/mesh/prov/src/prov_utils.c.obj
 .rodata.prov_utils_derive_keys.str1.1
                0x0002d345        0xf examples/dfu/CMakeFiles/dfu_nrf51422_xxAC_s130_2.0.1.dir/__/__/mesh/prov/src/prov_utils.c.obj
 .rodata.add_active_bearer.str1.1
                0x0002d354       0x2c examples/dfu/CMakeFiles/dfu_nrf51422_xxAC_s130_2.0.1.dir/__/__/mesh/prov/src/prov_bearer_adv.c.obj
 .rodata.crctable.8145
                0x0002d380      0x100 examples/dfu/CMakeFiles/dfu_nrf51422_xxAC_s130_2.0.1.dir/__/__/mesh/prov/src/prov_bearer_adv.c.obj
 .rodata.interface.8374
                0x0002d480       0x14 examples/dfu/CMakeFiles/dfu_nrf51422_xxAC_s130_2.0.1.dir/__/__/mesh/prov/src/prov_bearer_adv.c.obj
 .rodata.prov_bearer_adv_packet_in.str1.1
                0x0002d494      0x26e examples/dfu/CMakeFiles/dfu_nrf51422_xxAC_s130_2.0.1.dir/__/__/mesh/prov/src/prov_bearer_adv.c.obj
 .rodata.tx_retry_cb.str1.1
                0x0002d702       0x37 examples/dfu/CMakeFiles/dfu_nrf51422_xxAC_s130_2.0.1.dir/__/__/mesh/prov/src/prov_bearer_adv.c.obj
 .rodata.abort_timeout.str1.1
                0x0002d739       0x19 examples/dfu/CMakeFiles/dfu_nrf51422_xxAC_s130_2.0.1.dir/__/__/mesh/dfu/src/nrf_mesh_dfu.c.obj
 .rodata.dfu_evt_handler.str1.1
                0x0002d752      0x182 examples/dfu/CMakeFiles/dfu_nrf51422_xxAC_s130_2.0.1.dir/__/__/mesh/dfu/src/nrf_mesh_dfu.c.obj
 .rodata.flash_op_complete.str1.1
                0x0002d8d4       0x3b examples/dfu/CMakeFiles/dfu_nrf51422_xxAC_s130_2.0.1.dir/__/__/mesh/dfu/src/nrf_mesh_dfu.c.obj
 .rodata.m_adv_channels
                0x0002d90f        0x3 examples/dfu/CMakeFiles/dfu_nrf51422_xxAC_s130_2.0.1.dir/__/__/mesh/dfu/src/nrf_mesh_dfu.c.obj
 .rodata.nrf_mesh_dfu_cmd_send.str1.1
                0x0002d912       0x18 examples/dfu/CMakeFiles/dfu_nrf51422_xxAC_s130_2.0.1.dir/__/__/mesh/dfu/src/nrf_mesh_dfu.c.obj
 .rodata.timer_timeout.str1.1
                0x0002d92a       0x18 examples/dfu/CMakeFiles/dfu_nrf51422_xxAC_s130_2.0.1.dir/__/__/mesh/dfu/src/nrf_mesh_dfu.c.obj
                                 0x13 (size before relaxing)
 *fill*         0x0002d92a        0x2 
 .rodata.m_all_operations
                0x0002d92c       0x10 mesh/core/libmesh_core_nrf51422_xxAC.a(mesh_flash.c.obj)
 .rodata.types_lookup.6415
                0x0002d93c        0x4 mesh/core/libmesh_core_nrf51422_xxAC.a(nrf_mesh_utils.c.obj)
 .rodata.nrf_mesh_process.str1.1
                0x0002d940       0x70 mesh/core/libmesh_core_nrf51422_xxAC.a(nrf_mesh.c.obj)
 .rodata.CSWTCH.9
                0x0002d9b0       0x10 mesh/core/libmesh_core_nrf51422_xxAC.a(hal.c.obj)
 .rodata        0x0002d9c0       0x15 mesh/core/libmesh_core_nrf51422_xxAC.a(enc.c.obj)
 .rodata.network_packet_in.str1.1
                0x0002d9d5       0x48 mesh/core/libmesh_core_nrf51422_xxAC.a(network.c.obj)
 .rodata.network_packet_send.str1.1
                0x0002da1d       0x49 mesh/core/libmesh_core_nrf51422_xxAC.a(network.c.obj)
 .rodata        0x0002da66        0x7 mesh/core/libmesh_core_nrf51422_xxAC.a(nrf_mesh_keygen.c.obj)
 .rodata.log_callback_rtt.str1.1
                0x0002da6d       0x15 mesh/core/libmesh_core_nrf51422_xxAC.a(log.c.obj)
 .rodata.str1.1
                0x0002da82       0x11 mesh/core/libmesh_core_nrf51422_xxAC.a(log.c.obj)
 *fill*         0x0002da93        0x1 
 .rodata.INVALID_HEADER
                0x0002da94        0x4 mesh/core/libmesh_core_nrf51422_xxAC.a(flash_manager.c.obj)
                0x0002da94                INVALID_HEADER
 .rodata.PADDING_HEADER
                0x0002da98        0x4 mesh/core/libmesh_core_nrf51422_xxAC.a(flash_manager.c.obj)
                0x0002da98                PADDING_HEADER
 .rodata.SEAL_HEADER
                0x0002da9c        0x4 mesh/core/libmesh_core_nrf51422_xxAC.a(flash_manager.c.obj)
                0x0002da9c                SEAL_HEADER
 .rodata.process_action_queue.str1.1
                0x0002daa0       0x21 mesh/core/libmesh_core_nrf51422_xxAC.a(flash_manager.c.obj)
                                 0x4f (size before relaxing)
 .rodata.beacon_packet_in.str1.1
                0x0002dac1       0x51 mesh/core/libmesh_core_nrf51422_xxAC.a(beacon.c.obj)
                                 0x59 (size before relaxing)
 .rodata.net_beacon_init.str1.1
                0x0002db12        0x5 mesh/core/libmesh_core_nrf51422_xxAC.a(net_beacon.c.obj)
 .rodata.radio_mode_to_us_per_byte.6787
                0x0002db17        0x4 mesh/core/libmesh_core_nrf51422_xxAC.a(broadcast.c.obj)
 .rodata.channel_rf_offsets.6049
                0x0002db1b       0x28 mesh/core/libmesh_core_nrf51422_xxAC.a(radio_config.c.obj)
 .rodata        0x0002db43        0x3 mesh/core/libmesh_core_nrf51422_xxAC.a(scanner.c.obj)
 .rodata.sar_ctx_cancel.str1.1
                0x0002db46       0x35 mesh/core/libmesh_core_nrf51422_xxAC.a(transport.c.obj)
                                 0x63 (size before relaxing)
 .rodata.test_transport_decrypt.str1.1
                0x0002db7b       0x13 mesh/core/libmesh_core_nrf51422_xxAC.a(transport.c.obj)
 .rodata.transport_packet_in.str1.1
                0x0002db8e       0x24 mesh/core/libmesh_core_nrf51422_xxAC.a(transport.c.obj)
 .rodata.transport_tx.str1.1
                0x0002dbb2       0x2c mesh/core/libmesh_core_nrf51422_xxAC.a(transport.c.obj)
                                 0x34 (size before relaxing)
 .rodata.upper_transport_access_packet_in.str1.1
                0x0002dbde       0x29 mesh/core/libmesh_core_nrf51422_xxAC.a(transport.c.obj)
 .rodata.upper_transport_packet_in.str1.1
                0x0002dc07       0x2e mesh/core/libmesh_core_nrf51422_xxAC.a(transport.c.obj)
 .rodata.flash_manager_defrag.str1.1
                0x0002dc35       0x28 mesh/core/libmesh_core_nrf51422_xxAC.a(flash_manager_defrag.c.obj)
                                 0x56 (size before relaxing)
 *fill*         0x0002dc5d        0x3 
 .rodata.m_procedure_steps
                0x0002dc60       0x28 mesh/core/libmesh_core_nrf51422_xxAC.a(flash_manager_defrag.c.obj)
 .rodata.Rb.5039
                0x0002dc88       0x10 mesh/core/libmesh_core_nrf51422_xxAC.a(aes_cmac.c.obj)
 .rodata._DoInit.str1.1
                0x0002dc98       0x14 external/rtt/librtt_nrf51422_xxAC.a(SEGGER_RTT.c.obj)
 .rodata._aV2C.4374
                0x0002dcac       0x10 external/rtt/librtt_nrf51422_xxAC.a(SEGGER_RTT_printf.c.obj)
 .rodata.curve_secp256r1
                0x0002dcbc       0xb0 external/micro-ecc/libuECC_nrf51422_xxAC.a(uECC.c.obj)
 .rodata._global_impure_ptr
                0x0002dd6c        0x4 c:/a/gcc_arm/6/bin/../lib/gcc/arm-none-eabi/6.3.1/../../../../arm-none-eabi/lib/thumb/v6-m\libc_nano.a(lib_a-impure.o)
                0x0002dd6c                _global_impure_ptr
 *(.eh_frame*)
 .eh_frame      0x0002dd70        0x0 c:/a/gcc_arm/6/bin/../lib/gcc/arm-none-eabi/6.3.1/thumb/v6-m/crtbegin.o
 .eh_frame      0x0002dd70        0x4 c:/a/gcc_arm/6/bin/../lib/gcc/arm-none-eabi/6.3.1/thumb/v6-m/crtend.o

.glue_7         0x0002dd74        0x0
 .glue_7        0x0002dd74        0x0 linker stubs

.glue_7t        0x0002dd74        0x0
 .glue_7t       0x0002dd74        0x0 linker stubs

.vfp11_veneer   0x0002dd74        0x0
 .vfp11_veneer  0x0002dd74        0x0 linker stubs

.v4_bx          0x0002dd74        0x0
 .v4_bx         0x0002dd74        0x0 linker stubs

.iplt           0x0002dd74        0x0
 .iplt          0x0002dd74        0x0 c:/a/gcc_arm/6/bin/../lib/gcc/arm-none-eabi/6.3.1/thumb/v6-m/crtbegin.o

.ARM.extab
 *(.ARM.extab* .gnu.linkonce.armextab.*)
                0x0002dd74                __exidx_start = .

.ARM.exidx      0x0002dd74        0x8
 *(.ARM.exidx* .gnu.linkonce.armexidx.*)
 .ARM.exidx     0x0002dd74        0x8 c:/a/gcc_arm/6/bin/../lib/gcc/arm-none-eabi/6.3.1/../../../../arm-none-eabi/lib/thumb/v6-m/crt0.o
                0x0002dd7c                __exidx_end = .
                0x0002dd7c                __etext = .

.rel.dyn        0x0002dd7c        0x0
 .rel.iplt      0x0002dd7c        0x0 c:/a/gcc_arm/6/bin/../lib/gcc/arm-none-eabi/6.3.1/thumb/v6-m/crtbegin.o

.data           0x200022d8      0x104 load address 0x0002dd7c
                0x200022d8                __data_start__ = .
 *(vtable)
 *(.data*)
 .data.rom_base
                0x200022d8        0x4 examples/dfu/CMakeFiles/dfu_nrf51422_xxAC_s130_2.0.1.dir/src/main.c.obj
                0x200022d8                rom_base
 .data.rom_end  0x200022dc        0x4 examples/dfu/CMakeFiles/dfu_nrf51422_xxAC_s130_2.0.1.dir/src/main.c.obj
                0x200022dc                rom_end
 .data.flash_clear_mem_available_struct.7932
                0x200022e0       0x10 examples/dfu/CMakeFiles/dfu_nrf51422_xxAC_s130_2.0.1.dir/__/__/mesh/access/src/access.c.obj
 .data.flash_store_mem_available_struct.7956
                0x200022f0       0x10 examples/dfu/CMakeFiles/dfu_nrf51422_xxAC_s130_2.0.1.dir/__/__/mesh/access/src/access.c.obj
 .data.mem_listener.8095
                0x20002300       0x10 examples/dfu/CMakeFiles/dfu_nrf51422_xxAC_s130_2.0.1.dir/__/__/mesh/access/src/device_state_manager.c.obj
 .data.m_unprov_report
                0x20002310        0x1 examples/dfu/CMakeFiles/dfu_nrf51422_xxAC_s130_2.0.1.dir/__/__/mesh/prov/src/prov_beacon.c.obj
 *fill*         0x20002311        0x3 
 .data.m_async_process_flag
                0x20002314        0x4 examples/dfu/CMakeFiles/dfu_nrf51422_xxAC_s130_2.0.1.dir/__/__/mesh/prov/src/prov_bearer_adv.c.obj
 .data.mem_listener.7315
                0x20002318       0x10 mesh/core/libmesh_core_nrf51422_xxAC.a(net_state.c.obj)
 .data.mem_listener.7320
                0x20002328       0x10 mesh/core/libmesh_core_nrf51422_xxAC.a(net_state.c.obj)
 .data.mem_listener.7334
                0x20002338       0x10 mesh/core/libmesh_core_nrf51422_xxAC.a(net_state.c.obj)
 .data.mem_listener.7351
                0x20002348       0x10 mesh/core/libmesh_core_nrf51422_xxAC.a(net_state.c.obj)
 .data.g_log_debug_level
                0x20002358        0x4 mesh/core/libmesh_core_nrf51422_xxAC.a(log.c.obj)
                0x20002358                g_log_debug_level
 .data.g_log_debug_msk
                0x2000235c        0x4 mesh/core/libmesh_core_nrf51422_xxAC.a(log.c.obj)
                0x2000235c                g_log_debug_msk
 .data.g_log_hex_digits
                0x20002360        0x4 mesh/core/libmesh_core_nrf51422_xxAC.a(log.c.obj)
                0x20002360                g_log_hex_digits
 .data.m_log_callback
                0x20002364        0x4 mesh/core/libmesh_core_nrf51422_xxAC.a(log.c.obj)
                0x20002364                m_log_callback
 .data.g_rng_function
                0x20002368        0x4 external/micro-ecc/libuECC_nrf51422_xxAC.a(uECC.c.obj)
 .data._impure_ptr
                0x2000236c        0x4 c:/a/gcc_arm/6/bin/../lib/gcc/arm-none-eabi/6.3.1/../../../../arm-none-eabi/lib/thumb/v6-m\libc_nano.a(lib_a-impure.o)
                0x2000236c                _impure_ptr
 .data.impure_data
                0x20002370       0x60 c:/a/gcc_arm/6/bin/../lib/gcc/arm-none-eabi/6.3.1/../../../../arm-none-eabi/lib/thumb/v6-m\libc_nano.a(lib_a-impure.o)
                0x200023d0                . = ALIGN (0x4)
                0x200023d0                PROVIDE (__preinit_array_start, .)
 *(.preinit_array)
                0x200023d0                PROVIDE (__preinit_array_end, .)
                0x200023d0                . = ALIGN (0x4)
                0x200023d0                PROVIDE (__init_array_start, .)
 *(SORT(.init_array.*))
 *(.init_array)
 .init_array    0x200023d0        0x4 c:/a/gcc_arm/6/bin/../lib/gcc/arm-none-eabi/6.3.1/thumb/v6-m/crtbegin.o
                0x200023d4                PROVIDE (__init_array_end, .)
                0x200023d4                . = ALIGN (0x4)
                [!provide]                PROVIDE (__fini_array_start, .)
 *(SORT(.fini_array.*))
 *(.fini_array)
 .fini_array    0x200023d4        0x4 c:/a/gcc_arm/6/bin/../lib/gcc/arm-none-eabi/6.3.1/thumb/v6-m/crtbegin.o
                [!provide]                PROVIDE (__fini_array_end, .)
 *(.jcr*)
 .jcr           0x200023d8        0x0 c:/a/gcc_arm/6/bin/../lib/gcc/arm-none-eabi/6.3.1/thumb/v6-m/crtbegin.o
 .jcr           0x200023d8        0x4 c:/a/gcc_arm/6/bin/../lib/gcc/arm-none-eabi/6.3.1/thumb/v6-m/crtend.o
                0x200023dc                . = ALIGN (0x4)
                0x200023dc                __data_end__ = .

.igot.plt       0x200023dc        0x0 load address 0x0002de80
 .igot.plt      0x200023dc        0x0 c:/a/gcc_arm/6/bin/../lib/gcc/arm-none-eabi/6.3.1/thumb/v6-m/crtbegin.o

.bss            0x200023e0     0x38b8 load address 0x0002de88
                0x200023e0                . = ALIGN (0x4)
                0x200023e0                __bss_start__ = .
 *(.bss*)
 .bss           0x200023e0       0x1c c:/a/gcc_arm/6/bin/../lib/gcc/arm-none-eabi/6.3.1/thumb/v6-m/crtbegin.o
 .bss.m_evt_handler
                0x200023fc        0x8 examples/dfu/CMakeFiles/dfu_nrf51422_xxAC_s130_2.0.1.dir/src/main.c.obj
 .bss.m_ble_evt_buffer
                0x20002404       0x47 examples/dfu/CMakeFiles/dfu_nrf51422_xxAC_s130_2.0.1.dir/__/nrf_mesh_sdk.c.obj
 *fill*         0x2000244b        0x1 
 .bss.m_publish_timer
                0x2000244c       0x18 examples/dfu/CMakeFiles/dfu_nrf51422_xxAC_s130_2.0.1.dir/__/__/mesh/access/src/access_publish.c.obj
 .bss.m_publish_timer_counter
                0x20002464        0x4 examples/dfu/CMakeFiles/dfu_nrf51422_xxAC_s130_2.0.1.dir/__/__/mesh/access/src/access_publish.c.obj
 .bss.m_publish_timer_running
                0x20002468        0x1 examples/dfu/CMakeFiles/dfu_nrf51422_xxAC_s130_2.0.1.dir/__/__/mesh/access/src/access_publish.c.obj
 .bss.m_timer_resolution
                0x20002469        0x1 examples/dfu/CMakeFiles/dfu_nrf51422_xxAC_s130_2.0.1.dir/__/__/mesh/access/src/access_publish.c.obj
 *fill*         0x2000246a        0x2 
 .bss.mp_publication_list
                0x2000246c        0x4 examples/dfu/CMakeFiles/dfu_nrf51422_xxAC_s130_2.0.1.dir/__/__/mesh/access/src/access_publish.c.obj
 .bss.m_element_pool
                0x20002470        0x6 examples/dfu/CMakeFiles/dfu_nrf51422_xxAC_s130_2.0.1.dir/__/__/mesh/access/src/access.c.obj
 *fill*         0x20002476        0x2 
 .bss.m_flash_manager
                0x20002478       0x24 examples/dfu/CMakeFiles/dfu_nrf51422_xxAC_s130_2.0.1.dir/__/__/mesh/access/src/access.c.obj
 .bss.m_flash_not_ready
                0x2000249c        0x1 examples/dfu/CMakeFiles/dfu_nrf51422_xxAC_s130_2.0.1.dir/__/__/mesh/access/src/access.c.obj
 .bss.m_metadata_stored
                0x2000249d        0x1 examples/dfu/CMakeFiles/dfu_nrf51422_xxAC_s130_2.0.1.dir/__/__/mesh/access/src/access.c.obj
 *fill*         0x2000249e        0x2 
 .bss.m_model_pool
                0x200024a0       0x68 examples/dfu/CMakeFiles/dfu_nrf51422_xxAC_s130_2.0.1.dir/__/__/mesh/access/src/access.c.obj
 .bss.m_subscription_list_pool
                0x20002508       0x10 examples/dfu/CMakeFiles/dfu_nrf51422_xxAC_s130_2.0.1.dir/__/__/mesh/access/src/access.c.obj
 .bss.m_reliable
                0x20002518       0x6c examples/dfu/CMakeFiles/dfu_nrf51422_xxAC_s130_2.0.1.dir/__/__/mesh/access/src/access_reliable.c.obj
 .bss.m_addr_nonvirtual_allocated
                0x20002584        0x4 examples/dfu/CMakeFiles/dfu_nrf51422_xxAC_s130_2.0.1.dir/__/__/mesh/access/src/device_state_manager.c.obj
 .bss.m_addr_nonvirtual_needs_flashing
                0x20002588        0x4 examples/dfu/CMakeFiles/dfu_nrf51422_xxAC_s130_2.0.1.dir/__/__/mesh/access/src/device_state_manager.c.obj
 .bss.m_addr_unicast_allocated
                0x2000258c        0x4 examples/dfu/CMakeFiles/dfu_nrf51422_xxAC_s130_2.0.1.dir/__/__/mesh/access/src/device_state_manager.c.obj
 .bss.m_addr_unicast_needs_flashing
                0x20002590        0x4 examples/dfu/CMakeFiles/dfu_nrf51422_xxAC_s130_2.0.1.dir/__/__/mesh/access/src/device_state_manager.c.obj
 .bss.m_addr_virtual_allocated
                0x20002594        0x4 examples/dfu/CMakeFiles/dfu_nrf51422_xxAC_s130_2.0.1.dir/__/__/mesh/access/src/device_state_manager.c.obj
 .bss.m_addr_virtual_needs_flashing
                0x20002598        0x4 examples/dfu/CMakeFiles/dfu_nrf51422_xxAC_s130_2.0.1.dir/__/__/mesh/access/src/device_state_manager.c.obj
 .bss.m_addresses
                0x2000259c       0x40 examples/dfu/CMakeFiles/dfu_nrf51422_xxAC_s130_2.0.1.dir/__/__/mesh/access/src/device_state_manager.c.obj
 .bss.m_appkey_allocated
                0x200025dc        0x4 examples/dfu/CMakeFiles/dfu_nrf51422_xxAC_s130_2.0.1.dir/__/__/mesh/access/src/device_state_manager.c.obj
 .bss.m_appkey_needs_flashing
                0x200025e0        0x4 examples/dfu/CMakeFiles/dfu_nrf51422_xxAC_s130_2.0.1.dir/__/__/mesh/access/src/device_state_manager.c.obj
 .bss.m_appkeys
                0x200025e4       0xb0 examples/dfu/CMakeFiles/dfu_nrf51422_xxAC_s130_2.0.1.dir/__/__/mesh/access/src/device_state_manager.c.obj
 .bss.m_devkey_allocated
                0x20002694        0x4 examples/dfu/CMakeFiles/dfu_nrf51422_xxAC_s130_2.0.1.dir/__/__/mesh/access/src/device_state_manager.c.obj
 .bss.m_devkey_needs_flashing
                0x20002698        0x4 examples/dfu/CMakeFiles/dfu_nrf51422_xxAC_s130_2.0.1.dir/__/__/mesh/access/src/device_state_manager.c.obj
 .bss.m_devkeys
                0x2000269c       0x16 examples/dfu/CMakeFiles/dfu_nrf51422_xxAC_s130_2.0.1.dir/__/__/mesh/access/src/device_state_manager.c.obj
 .bss.m_flash_is_available
                0x200026b2        0x1 examples/dfu/CMakeFiles/dfu_nrf51422_xxAC_s130_2.0.1.dir/__/__/mesh/access/src/device_state_manager.c.obj
 *fill*         0x200026b3        0x1 
 .bss.m_flash_manager
                0x200026b4       0x24 examples/dfu/CMakeFiles/dfu_nrf51422_xxAC_s130_2.0.1.dir/__/__/mesh/access/src/device_state_manager.c.obj
 .bss.m_flash_mem_listener_update_all
                0x200026d8       0x10 examples/dfu/CMakeFiles/dfu_nrf51422_xxAC_s130_2.0.1.dir/__/__/mesh/access/src/device_state_manager.c.obj
 .bss.m_has_primary_subnet
                0x200026e8        0x1 examples/dfu/CMakeFiles/dfu_nrf51422_xxAC_s130_2.0.1.dir/__/__/mesh/access/src/device_state_manager.c.obj
 *fill*         0x200026e9        0x1 
 .bss.m_local_unicast_addr
                0x200026ea        0x4 examples/dfu/CMakeFiles/dfu_nrf51422_xxAC_s130_2.0.1.dir/__/__/mesh/access/src/device_state_manager.c.obj
 *fill*         0x200026ee        0x2 
 .bss.m_subnet_allocated
                0x200026f0        0x4 examples/dfu/CMakeFiles/dfu_nrf51422_xxAC_s130_2.0.1.dir/__/__/mesh/access/src/device_state_manager.c.obj
 .bss.m_subnet_needs_flashing
                0x200026f4        0x4 examples/dfu/CMakeFiles/dfu_nrf51422_xxAC_s130_2.0.1.dir/__/__/mesh/access/src/device_state_manager.c.obj
 .bss.m_subnets
                0x200026f8      0x170 examples/dfu/CMakeFiles/dfu_nrf51422_xxAC_s130_2.0.1.dir/__/__/mesh/access/src/device_state_manager.c.obj
 .bss.m_virtual_addresses
                0x20002868       0xa0 examples/dfu/CMakeFiles/dfu_nrf51422_xxAC_s130_2.0.1.dir/__/__/mesh/access/src/device_state_manager.c.obj
 .bss.m_can_receive
                0x20002908        0x1 examples/dfu/CMakeFiles/dfu_nrf51422_xxAC_s130_2.0.1.dir/__/__/mesh/serial/src/serial_uart.c.obj
 *fill*         0x20002909        0x3 
 .bss.m_char_rx_cb
                0x2000290c        0x4 examples/dfu/CMakeFiles/dfu_nrf51422_xxAC_s130_2.0.1.dir/__/__/mesh/serial/src/serial_uart.c.obj
 .bss.m_char_tx_cb
                0x20002910        0x4 examples/dfu/CMakeFiles/dfu_nrf51422_xxAC_s130_2.0.1.dir/__/__/mesh/serial/src/serial_uart.c.obj
 .bss.m_cur_tx_packet_index
                0x20002914        0x2 examples/dfu/CMakeFiles/dfu_nrf51422_xxAC_s130_2.0.1.dir/__/__/mesh/serial/src/serial_bearer.c.obj
 *fill*         0x20002916        0x2 
 .bss.m_event_flag
                0x20002918        0x4 examples/dfu/CMakeFiles/dfu_nrf51422_xxAC_s130_2.0.1.dir/__/__/mesh/serial/src/serial_bearer.c.obj
 .bss.m_rx_buffer
                0x2000291c       0xd0 examples/dfu/CMakeFiles/dfu_nrf51422_xxAC_s130_2.0.1.dir/__/__/mesh/serial/src/serial_bearer.c.obj
 .bss.m_rx_packet_buf
                0x200029ec        0xc examples/dfu/CMakeFiles/dfu_nrf51422_xxAC_s130_2.0.1.dir/__/__/mesh/serial/src/serial_bearer.c.obj
 .bss.m_serial_state
                0x200029f8        0x1 examples/dfu/CMakeFiles/dfu_nrf51422_xxAC_s130_2.0.1.dir/__/__/mesh/serial/src/serial_bearer.c.obj
 *fill*         0x200029f9        0x1 
 .bss.m_stored_pac_len
                0x200029fa        0x2 examples/dfu/CMakeFiles/dfu_nrf51422_xxAC_s130_2.0.1.dir/__/__/mesh/serial/src/serial_bearer.c.obj
 .bss.m_tx_buffer
                0x200029fc       0xd0 examples/dfu/CMakeFiles/dfu_nrf51422_xxAC_s130_2.0.1.dir/__/__/mesh/serial/src/serial_bearer.c.obj
 .bss.m_tx_packet_buf
                0x20002acc        0xc examples/dfu/CMakeFiles/dfu_nrf51422_xxAC_s130_2.0.1.dir/__/__/mesh/serial/src/serial_bearer.c.obj
 .bss.mp_current_rx_packet
                0x20002ad8        0x4 examples/dfu/CMakeFiles/dfu_nrf51422_xxAC_s130_2.0.1.dir/__/__/mesh/serial/src/serial_bearer.c.obj
 .bss.mp_current_tx_packet
                0x20002adc        0x4 examples/dfu/CMakeFiles/dfu_nrf51422_xxAC_s130_2.0.1.dir/__/__/mesh/serial/src/serial_bearer.c.obj
 .bss.rx_index.8362
                0x20002ae0        0x2 examples/dfu/CMakeFiles/dfu_nrf51422_xxAC_s130_2.0.1.dir/__/__/mesh/serial/src/serial_bearer.c.obj
 .bss.m_cmd_handler_scheduled
                0x20002ae2        0x1 examples/dfu/CMakeFiles/dfu_nrf51422_xxAC_s130_2.0.1.dir/__/__/mesh/serial/src/serial.c.obj
 .bss.m_state   0x20002ae3        0x1 examples/dfu/CMakeFiles/dfu_nrf51422_xxAC_s130_2.0.1.dir/__/__/mesh/serial/src/serial.c.obj
 .bss.m_mesh_evt_handler
                0x20002ae4        0x8 examples/dfu/CMakeFiles/dfu_nrf51422_xxAC_s130_2.0.1.dir/__/__/mesh/serial/src/serial_handler_prov.c.obj
 .bss.m_private_key
                0x20002aec       0x20 examples/dfu/CMakeFiles/dfu_nrf51422_xxAC_s130_2.0.1.dir/__/__/mesh/serial/src/serial_handler_prov.c.obj
 .bss.m_prov_contexts
                0x20002b0c      0x5f8 examples/dfu/CMakeFiles/dfu_nrf51422_xxAC_s130_2.0.1.dir/__/__/mesh/serial/src/serial_handler_prov.c.obj
 .bss.m_provisioning_caps
                0x20003104        0xb examples/dfu/CMakeFiles/dfu_nrf51422_xxAC_s130_2.0.1.dir/__/__/mesh/serial/src/serial_handler_prov.c.obj
 .bss.m_public_key
                0x2000310f       0x40 examples/dfu/CMakeFiles/dfu_nrf51422_xxAC_s130_2.0.1.dir/__/__/mesh/serial/src/serial_handler_prov.c.obj
 .bss.m_scanning_running
                0x2000314f        0x1 examples/dfu/CMakeFiles/dfu_nrf51422_xxAC_s130_2.0.1.dir/__/__/mesh/serial/src/serial_handler_prov.c.obj
 .bss.m_evt_handler
                0x20003150        0x8 examples/dfu/CMakeFiles/dfu_nrf51422_xxAC_s130_2.0.1.dir/__/__/mesh/serial/src/serial_handler_dfu.c.obj
 .bss.m_evt_handler
                0x20003158        0x8 examples/dfu/CMakeFiles/dfu_nrf51422_xxAC_s130_2.0.1.dir/__/__/mesh/serial/src/serial_handler_mesh.c.obj
 .bss.p_serial_evt.8594
                0x20003160        0x4 examples/dfu/CMakeFiles/dfu_nrf51422_xxAC_s130_2.0.1.dir/__/__/mesh/serial/src/serial_handler_mesh.c.obj
 .bss.m_models_list
                0x20003164       0x18 examples/dfu/CMakeFiles/dfu_nrf51422_xxAC_s130_2.0.1.dir/__/__/mesh/serial/src/serial_handler_models.c.obj
 .bss.m_beacons
                0x2000317c      0x134 examples/dfu/CMakeFiles/dfu_nrf51422_xxAC_s130_2.0.1.dir/__/__/mesh/serial/src/serial_handler_device.c.obj
 .bss.m_app_rx_cb
                0x200032b0        0x4 examples/dfu/CMakeFiles/dfu_nrf51422_xxAC_s130_2.0.1.dir/__/__/mesh/serial/src/serial_handler_app.c.obj
 .bss.m_offload_ecdh
                0x200032b4        0x1 examples/dfu/CMakeFiles/dfu_nrf51422_xxAC_s130_2.0.1.dir/__/__/mesh/prov/src/prov_utils.c.obj
 *fill*         0x200032b5        0x3 
 .bss.mp_bearer_head
                0x200032b8        0x4 examples/dfu/CMakeFiles/dfu_nrf51422_xxAC_s130_2.0.1.dir/__/__/mesh/prov/src/prov_bearer_adv.c.obj
 .bss.m_adv_packet
                0x200032bc       0x28 examples/dfu/CMakeFiles/dfu_nrf51422_xxAC_s130_2.0.1.dir/__/__/mesh/dfu/src/nrf_mesh_dfu.c.obj
 .bss.m_broadcast
                0x200032e4       0x34 examples/dfu/CMakeFiles/dfu_nrf51422_xxAC_s130_2.0.1.dir/__/__/mesh/dfu/src/nrf_mesh_dfu.c.obj
 .bss.m_prng    0x20003318       0x10 examples/dfu/CMakeFiles/dfu_nrf51422_xxAC_s130_2.0.1.dir/__/__/mesh/dfu/src/nrf_mesh_dfu.c.obj
 .bss.m_timer_evt
                0x20003328       0x18 examples/dfu/CMakeFiles/dfu_nrf51422_xxAC_s130_2.0.1.dir/__/__/mesh/dfu/src/nrf_mesh_dfu.c.obj
 .bss.m_transfer_state
                0x20003340       0x12 examples/dfu/CMakeFiles/dfu_nrf51422_xxAC_s130_2.0.1.dir/__/__/mesh/dfu/src/nrf_mesh_dfu.c.obj
 *fill*         0x20003352        0x2 
 .bss.m_tx_slots
                0x20003354      0x120 examples/dfu/CMakeFiles/dfu_nrf51422_xxAC_s130_2.0.1.dir/__/__/mesh/dfu/src/nrf_mesh_dfu.c.obj
 .bss.m_tx_timer_evt
                0x20003474       0x18 examples/dfu/CMakeFiles/dfu_nrf51422_xxAC_s130_2.0.1.dir/__/__/mesh/dfu/src/nrf_mesh_dfu.c.obj
 .bss.mp_curr_fwid
                0x2000348c        0x4 examples/dfu/CMakeFiles/dfu_nrf51422_xxAC_s130_2.0.1.dir/__/__/mesh/dfu/src/nrf_mesh_dfu.c.obj
 .bss.m_internal_event_fifo
                0x20003490       0x14 mesh/core/libmesh_core_nrf51422_xxAC.a(internal_event.c.obj)
 .bss.m_internal_event_fifo_buffer
                0x200034a4      0x100 mesh/core/libmesh_core_nrf51422_xxAC.a(internal_event.c.obj)
 .bss.m_internal_event_initialized
                0x200035a4        0x1 mesh/core/libmesh_core_nrf51422_xxAC.a(internal_event.c.obj)
 *fill*         0x200035a5        0x3 
 .bss.m_report_cb
                0x200035a8        0x4 mesh/core/libmesh_core_nrf51422_xxAC.a(internal_event.c.obj)
 .bss.m_uuid    0x200035ac       0x10 mesh/core/libmesh_core_nrf51422_xxAC.a(nrf_mesh_configure.c.obj)
 .bss.mp_evt_handlers_head
                0x200035bc        0x4 mesh/core/libmesh_core_nrf51422_xxAC.a(event.c.obj)
 .bss.lock_count.7374
                0x200035c0        0x4 mesh/core/libmesh_core_nrf51422_xxAC.a(net_state.c.obj)
 .bss.m_flash_manager
                0x200035c4       0x24 mesh/core/libmesh_core_nrf51422_xxAC.a(net_state.c.obj)
 .bss.m_iv_update_timer
                0x200035e8       0x18 mesh/core/libmesh_core_nrf51422_xxAC.a(net_state.c.obj)
 .bss.m_net_state
                0x20003600       0x14 mesh/core/libmesh_core_nrf51422_xxAC.a(net_state.c.obj)
 .bss.m_seqnum_allocation_in_progress
                0x20003614        0x1 mesh/core/libmesh_core_nrf51422_xxAC.a(net_state.c.obj)
 .bss.m_test_mode
                0x20003615        0x1 mesh/core/libmesh_core_nrf51422_xxAC.a(net_state.c.obj)
 *fill*         0x20003616        0x2 
 .bss.m_event_flag
                0x20003618        0x4 mesh/core/libmesh_core_nrf51422_xxAC.a(mesh_flash.c.obj)
 .bss.m_suspended
                0x2000361c        0x1 mesh/core/libmesh_core_nrf51422_xxAC.a(mesh_flash.c.obj)
 *fill*         0x2000361d        0x3 
 .bss.m_users   0x20003620      0x228 mesh/core/libmesh_core_nrf51422_xxAC.a(mesh_flash.c.obj)
 .bss.suspend_count.7471
                0x20003848        0x4 mesh/core/libmesh_core_nrf51422_xxAC.a(mesh_flash.c.obj)
 .bss.m_is_enabled
                0x2000384c        0x1 mesh/core/libmesh_core_nrf51422_xxAC.a(nrf_mesh.c.obj)
 .bss.m_is_initialized
                0x2000384d        0x1 mesh/core/libmesh_core_nrf51422_xxAC.a(nrf_mesh.c.obj)
 *fill*         0x2000384e        0x2 
 .bss.m_rx_cb   0x20003850        0x4 mesh/core/libmesh_core_nrf51422_xxAC.a(nrf_mesh.c.obj)
 .bss.m_event_flag
                0x20003854        0x4 mesh/core/libmesh_core_nrf51422_xxAC.a(timer_scheduler.c.obj)
 .bss.m_scheduler
                0x20003858       0x10 mesh/core/libmesh_core_nrf51422_xxAC.a(timer_scheduler.c.obj)
 .bss.m_attributes
                0x20003868        0x3 mesh/core/libmesh_core_nrf51422_xxAC.a(timer.c.obj)
 *fill*         0x2000386b        0x1 
 .bss.m_callbacks
                0x2000386c        0xc mesh/core/libmesh_core_nrf51422_xxAC.a(timer.c.obj)
 .bss.m_is_in_ts
                0x20003878        0x1 mesh/core/libmesh_core_nrf51422_xxAC.a(timer.c.obj)
 *fill*         0x20003879        0x3 
 .bss.m_reference_time
                0x2000387c        0x4 mesh/core/libmesh_core_nrf51422_xxAC.a(timer.c.obj)
 .bss.m_timeouts
                0x20003880        0xc mesh/core/libmesh_core_nrf51422_xxAC.a(timer.c.obj)
 .bss.m_timer_mut
                0x2000388c        0x4 mesh/core/libmesh_core_nrf51422_xxAC.a(timer.c.obj)
 .bss.m_ts_end_time
                0x20003890        0x4 mesh/core/libmesh_core_nrf51422_xxAC.a(timer.c.obj)
 .bss.mp_ppi_tasks
                0x20003894        0xc mesh/core/libmesh_core_nrf51422_xxAC.a(timer.c.obj)
 .bss.m_current_time
                0x200038a0        0x4 mesh/core/libmesh_core_nrf51422_xxAC.a(ticker.c.obj)
 .bss.m_timer   0x200038a4       0x18 mesh/core/libmesh_core_nrf51422_xxAC.a(ticker.c.obj)
 .bss.m_current_timeslot
                0x200038bc       0x1c mesh/core/libmesh_core_nrf51422_xxAC.a(timeslot.c.obj)
 .bss.m_lfclk_ppm
                0x200038d8        0x4 mesh/core/libmesh_core_nrf51422_xxAC.a(timeslot.c.obj)
 .bss.m_radio_request_earliest
                0x200038dc       0x10 mesh/core/libmesh_core_nrf51422_xxAC.a(timeslot.c.obj)
 .bss.m_state_lock
                0x200038ec        0x1 mesh/core/libmesh_core_nrf51422_xxAC.a(timeslot.c.obj)
 .bss.m_timeslot_forced_command
                0x200038ed        0x1 mesh/core/libmesh_core_nrf51422_xxAC.a(timeslot.c.obj)
 *fill*         0x200038ee        0x2 
 .bss.s_last_rtc_value.6639
                0x200038f0        0x8 mesh/core/libmesh_core_nrf51422_xxAC.a(timeslot.c.obj)
 .bss.m_bearer_event_fifo
                0x200038f8       0x14 mesh/core/libmesh_core_nrf51422_xxAC.a(bearer_event.c.obj)
 .bss.m_bearer_event_fifo_buffer
                0x2000390c      0x100 mesh/core/libmesh_core_nrf51422_xxAC.a(bearer_event.c.obj)
 .bss.m_critical
                0x20003a0c        0x4 mesh/core/libmesh_core_nrf51422_xxAC.a(bearer_event.c.obj)
 .bss.m_flag_count
                0x20003a10        0x4 mesh/core/libmesh_core_nrf51422_xxAC.a(bearer_event.c.obj)
 .bss.m_flag_event_callbacks
                0x20003a14       0x18 mesh/core/libmesh_core_nrf51422_xxAC.a(bearer_event.c.obj)
 .bss.m_flags   0x20003a2c        0x4 mesh/core/libmesh_core_nrf51422_xxAC.a(bearer_event.c.obj)
 .bss.m_sequential_event_queue
                0x20003a30        0x8 mesh/core/libmesh_core_nrf51422_xxAC.a(bearer_event.c.obj)
 .bss.m_relay_check_cb
                0x20003a38        0x4 mesh/core/libmesh_core_nrf51422_xxAC.a(network.c.obj)
 .bss.m_relay_enable
                0x20003a3c        0x1 mesh/core/libmesh_core_nrf51422_xxAC.a(network.c.obj)
 *fill*         0x20003a3d        0x3 
 .bss.m_action_queue
                0x20003a40        0xc mesh/core/libmesh_core_nrf51422_xxAC.a(flash_manager.c.obj)
 .bss.m_action_queue_buffer
                0x20003a4c      0x104 mesh/core/libmesh_core_nrf51422_xxAC.a(flash_manager.c.obj)
 .bss.m_action_state
                0x20003b50        0x1 mesh/core/libmesh_core_nrf51422_xxAC.a(flash_manager.c.obj)
 *fill*         0x20003b51        0x3 
 .bss.m_memory_listener_queue
                0x20003b54        0x8 mesh/core/libmesh_core_nrf51422_xxAC.a(flash_manager.c.obj)
 .bss.m_processing_flag
                0x20003b5c        0x4 mesh/core/libmesh_core_nrf51422_xxAC.a(flash_manager.c.obj)
 .bss.m_state   0x20003b60        0x1 mesh/core/libmesh_core_nrf51422_xxAC.a(flash_manager.c.obj)
 *fill*         0x20003b61        0x1 
 .bss.m_token   0x20003b62        0x2 mesh/core/libmesh_core_nrf51422_xxAC.a(flash_manager.c.obj)
 .bss.p_current.8491
                0x20003b64        0x4 mesh/core/libmesh_core_nrf51422_xxAC.a(flash_manager.c.obj)
 .bss.result.8492
                0x20003b68        0x1 mesh/core/libmesh_core_nrf51422_xxAC.a(flash_manager.c.obj)
 *fill*         0x20003b69        0x3 
 .bss.m_adv_buffer
                0x20003b6c       0x68 mesh/core/libmesh_core_nrf51422_xxAC.a(beacon.c.obj)
 .bss.m_advertiser
                0x20003bd4       0x94 mesh/core/libmesh_core_nrf51422_xxAC.a(beacon.c.obj)
 .bss.m_adv_tx_count
                0x20003c68        0x8 mesh/core/libmesh_core_nrf51422_xxAC.a(core_tx.c.obj)
 .bss.m_advertisers
                0x20003c70      0x128 mesh/core/libmesh_core_nrf51422_xxAC.a(core_tx.c.obj)
 .bss.m_originator_adv_packet_buffer
                0x20003d98      0x100 mesh/core/libmesh_core_nrf51422_xxAC.a(core_tx.c.obj)
 .bss.m_relay_adv_packet_buffer
                0x20003e98       0x80 mesh/core/libmesh_core_nrf51422_xxAC.a(core_tx.c.obj)
 .bss.m_tx_complete_callback
                0x20003f18        0x4 mesh/core/libmesh_core_nrf51422_xxAC.a(core_tx.c.obj)
 .bss.m_beacon_salt
                0x20003f1c       0x10 mesh/core/libmesh_core_nrf51422_xxAC.a(net_beacon.c.obj)
 .bss.m_enabled
                0x20003f2c        0x1 mesh/core/libmesh_core_nrf51422_xxAC.a(net_beacon.c.obj)
 *fill*         0x20003f2d        0x3 
 .bss.m_tx_event
                0x20003f30       0x18 mesh/core/libmesh_core_nrf51422_xxAC.a(net_beacon.c.obj)
 .bss.m_adv_prng
                0x20003f48       0x10 mesh/core/libmesh_core_nrf51422_xxAC.a(advertiser.c.obj)
 .bss.m_action_queue
                0x20003f58        0x8 mesh/core/libmesh_core_nrf51422_xxAC.a(bearer_handler.c.obj)
 .bss.m_end_time
                0x20003f60        0x4 mesh/core/libmesh_core_nrf51422_xxAC.a(bearer_handler.c.obj)
 .bss.m_scanner_is_active
                0x20003f64        0x1 mesh/core/libmesh_core_nrf51422_xxAC.a(bearer_handler.c.obj)
 .bss.m_stopped
                0x20003f65        0x1 mesh/core/libmesh_core_nrf51422_xxAC.a(bearer_handler.c.obj)
 *fill*         0x20003f66        0x2 
 .bss.mp_action
                0x20003f68        0x4 mesh/core/libmesh_core_nrf51422_xxAC.a(bearer_handler.c.obj)
 .bss.m_next_channel_index
                0x20003f6c        0x1 mesh/core/libmesh_core_nrf51422_xxAC.a(broadcast.c.obj)
 *fill*         0x20003f6d        0x3 
 .bss.m_scanner
                0x20003f70      0x284 mesh/core/libmesh_core_nrf51422_xxAC.a(scanner.c.obj)
 .bss.m_msg_cache
                0x200041f4      0x100 mesh/core/libmesh_core_nrf51422_xxAC.a(msg_cache.c.obj)
 .bss.m_msg_cache_head
                0x200042f4        0x4 mesh/core/libmesh_core_nrf51422_xxAC.a(msg_cache.c.obj)
 .bss.m_sar_alloc
                0x200042f8        0x4 mesh/core/libmesh_core_nrf51422_xxAC.a(transport.c.obj)
 .bss.m_sar_process_flag
                0x200042fc        0x4 mesh/core/libmesh_core_nrf51422_xxAC.a(transport.c.obj)
 .bss.m_sar_release
                0x20004300        0x4 mesh/core/libmesh_core_nrf51422_xxAC.a(transport.c.obj)
 .bss.m_sar_session_cache
                0x20004304       0x40 mesh/core/libmesh_core_nrf51422_xxAC.a(transport.c.obj)
 .bss.m_sar_session_cache_head
                0x20004344        0x4 mesh/core/libmesh_core_nrf51422_xxAC.a(transport.c.obj)
 .bss.m_trs_config
                0x20004348       0x18 mesh/core/libmesh_core_nrf51422_xxAC.a(transport.c.obj)
 .bss.m_trs_sar_sessions
                0x20004360      0x1b0 mesh/core/libmesh_core_nrf51422_xxAC.a(transport.c.obj)
 .bss.m_defrag  0x20004510       0x1c mesh/core/libmesh_core_nrf51422_xxAC.a(flash_manager_defrag.c.obj)
 .bss.m_token   0x2000452c        0x2 mesh/core/libmesh_core_nrf51422_xxAC.a(flash_manager_defrag.c.obj)
 *fill*         0x2000452e        0x2 
 .bss.mp_recovery_area
                0x20004530        0x4 mesh/core/libmesh_core_nrf51422_xxAC.a(flash_manager_defrag.c.obj)
 .bss.p_null_ptr.7544
                0x20004534        0x4 mesh/core/libmesh_core_nrf51422_xxAC.a(flash_manager_defrag.c.obj)
 .bss.m_pool    0x20004538     0x1000 mesh/core/libmesh_core_nrf51422_xxAC.a(packet_mgr.c.obj)
 .bss.mp_free_head
                0x20005538        0x4 mesh/core/libmesh_core_nrf51422_xxAC.a(packet_mgr.c.obj)
 .bss.m_128buf  0x2000553c       0x10 mesh/core/libmesh_core_nrf51422_xxAC.a(aes_cmac.c.obj)
 .bss.m_subkey1
                0x2000554c       0x10 mesh/core/libmesh_core_nrf51422_xxAC.a(aes_cmac.c.obj)
 .bss.m_subkey2
                0x2000555c       0x10 mesh/core/libmesh_core_nrf51422_xxAC.a(aes_cmac.c.obj)
 .bss.m_cache_full
                0x2000556c        0x1 mesh/core/libmesh_core_nrf51422_xxAC.a(replay_cache.c.obj)
 .bss.m_cache_index
                0x2000556d        0x1 mesh/core/libmesh_core_nrf51422_xxAC.a(replay_cache.c.obj)
 *fill*         0x2000556e        0x2 
 .bss.m_replay_cache
                0x20005570      0x200 mesh/core/libmesh_core_nrf51422_xxAC.a(replay_cache.c.obj)
 .bss.m_accepted_amount
                0x20005770        0x4 mesh/core/libmesh_core_nrf51422_xxAC.a(filter_engine.c.obj)
 .bss.m_filter_list_head
                0x20005774        0x4 mesh/core/libmesh_core_nrf51422_xxAC.a(filter_engine.c.obj)
 .bss._acDownBuffer
                0x20005778       0x80 external/rtt/librtt_nrf51422_xxAC.a(SEGGER_RTT.c.obj)
 .bss._acUpBuffer
                0x200057f8      0x400 external/rtt/librtt_nrf51422_xxAC.a(SEGGER_RTT.c.obj)
 .bss.__malloc_free_list
                0x20005bf8        0x4 c:/a/gcc_arm/6/bin/../lib/gcc/arm-none-eabi/6.3.1/../../../../arm-none-eabi/lib/thumb/v6-m\libc_nano.a(lib_a-nano-mallocr.o)
                0x20005bf8                __malloc_free_list
 .bss.__malloc_sbrk_start
                0x20005bfc        0x4 c:/a/gcc_arm/6/bin/../lib/gcc/arm-none-eabi/6.3.1/../../../../arm-none-eabi/lib/thumb/v6-m\libc_nano.a(lib_a-nano-mallocr.o)
                0x20005bfc                __malloc_sbrk_start
 .bss.heap_end.4116
                0x20005c00        0x4 c:/a/gcc_arm/6/bin/../lib/gcc/arm-none-eabi/6.3.1/../../../../arm-none-eabi/lib/thumb/v6-m\libnosys.a(sbrk.o)
 *(COMMON)
 COMMON         0x20005c04        0x8 examples/dfu/CMakeFiles/dfu_nrf51422_xxAC_s130_2.0.1.dir/src/main.c.obj
                0x20005c04                bank_addr
                0x20005c08                rom_length
 COMMON         0x20005c0c        0x8 examples/dfu/CMakeFiles/dfu_nrf51422_xxAC_s130_2.0.1.dir/__/nrf_mesh_sdk.c.obj
                0x20005c0c                nrf_nvic_state
 COMMON         0x20005c14        0x4 examples/dfu/CMakeFiles/dfu_nrf51422_xxAC_s130_2.0.1.dir/__/__/mesh/dfu/src/nrf_mesh_dfu.c.obj
                0x20005c14                m_cmd_handler
 COMMON         0x20005c18        0x4 mesh/core/libmesh_core_nrf51422_xxAC.a(nrf_mesh.c.obj)
                0x20005c18                m_assertion_handler
 COMMON         0x20005c1c       0x78 external/rtt/librtt_nrf51422_xxAC.a(SEGGER_RTT.c.obj)
                0x20005c1c                _SEGGER_RTT
 COMMON         0x20005c94        0x4 c:/a/gcc_arm/6/bin/../lib/gcc/arm-none-eabi/6.3.1/../../../../arm-none-eabi/lib/thumb/v6-m\libc_nano.a(lib_a-reent.o)
                0x20005c94                errno
                0x20005c98                . = ALIGN (0x4)
                0x20005c98                __bss_end__ = .

.heap           0x20005c98      0x800
                0x20005c98                __HeapBase = .
                0x20005c98                __end__ = .
                0x20005c98                PROVIDE (end, .)
 *(.heap*)
 .heap          0x20005c98      0x800 examples/dfu/CMakeFiles/dfu_nrf51422_xxAC_s130_2.0.1.dir/__/__/external/nRF5_SDK_14.0.0_3bcc1f7/components/toolchain/gcc/gcc_startup_nrf51.S.obj
                0x20006498                __HeapLimit = .

.stack_dummy    0x20005c98      0x800
 *(.stack*)
 .stack         0x20005c98      0x800 examples/dfu/CMakeFiles/dfu_nrf51422_xxAC_s130_2.0.1.dir/__/__/external/nRF5_SDK_14.0.0_3bcc1f7/components/toolchain/gcc/gcc_startup_nrf51.S.obj
                0x20007d00                __StackTop = (ORIGIN (RAM) + LENGTH (RAM))
                0x20007500                __StackLimit = (__StackTop - SIZEOF (.stack_dummy))
                0x20007d00                PROVIDE (__stack, __StackTop)
                0x00000001                ASSERT ((__StackLimit >= __HeapLimit), region RAM overflowed with stack)
OUTPUT(examples\dfu\dfu_nrf51422_xxAC_s130_2.0.1.elf elf32-littlearm)

.ARM.attributes
                0x00000000       0x28
 .ARM.attributes
                0x00000000       0x1e c:/a/gcc_arm/6/bin/../lib/gcc/arm-none-eabi/6.3.1/thumb/v6-m/crti.o
 .ARM.attributes
                0x0000001e       0x2c c:/a/gcc_arm/6/bin/../lib/gcc/arm-none-eabi/6.3.1/thumb/v6-m/crtbegin.o
 .ARM.attributes
                0x0000004a       0x1b c:/a/gcc_arm/6/bin/../lib/gcc/arm-none-eabi/6.3.1/../../../../arm-none-eabi/lib/thumb/v6-m/crt0.o
 .ARM.attributes
                0x00000065       0x31 examples/dfu/CMakeFiles/dfu_nrf51422_xxAC_s130_2.0.1.dir/src/main.c.obj
 .ARM.attributes
                0x00000096       0x31 examples/dfu/CMakeFiles/dfu_nrf51422_xxAC_s130_2.0.1.dir/__/nrf_mesh_sdk.c.obj
 .ARM.attributes
                0x000000c7       0x31 examples/dfu/CMakeFiles/dfu_nrf51422_xxAC_s130_2.0.1.dir/__/__/mesh/access/src/access_publish.c.obj
 .ARM.attributes
                0x000000f8       0x31 examples/dfu/CMakeFiles/dfu_nrf51422_xxAC_s130_2.0.1.dir/__/__/mesh/access/src/access.c.obj
 .ARM.attributes
                0x00000129       0x31 examples/dfu/CMakeFiles/dfu_nrf51422_xxAC_s130_2.0.1.dir/__/__/mesh/access/src/access_reliable.c.obj
 .ARM.attributes
                0x0000015a       0x31 examples/dfu/CMakeFiles/dfu_nrf51422_xxAC_s130_2.0.1.dir/__/__/mesh/access/src/device_state_manager.c.obj
 .ARM.attributes
                0x0000018b       0x31 examples/dfu/CMakeFiles/dfu_nrf51422_xxAC_s130_2.0.1.dir/__/__/mesh/serial/src/serial_uart.c.obj
 .ARM.attributes
                0x000001bc       0x31 examples/dfu/CMakeFiles/dfu_nrf51422_xxAC_s130_2.0.1.dir/__/__/mesh/serial/src/serial_bearer.c.obj
 .ARM.attributes
                0x000001ed       0x31 examples/dfu/CMakeFiles/dfu_nrf51422_xxAC_s130_2.0.1.dir/__/__/mesh/serial/src/serial_handler_common.c.obj
 .ARM.attributes
                0x0000021e       0x31 examples/dfu/CMakeFiles/dfu_nrf51422_xxAC_s130_2.0.1.dir/__/__/mesh/serial/src/serial_handler_access.c.obj
 .ARM.attributes
                0x0000024f       0x31 examples/dfu/CMakeFiles/dfu_nrf51422_xxAC_s130_2.0.1.dir/__/__/mesh/serial/src/serial_handler_config.c.obj
 .ARM.attributes
                0x00000280       0x31 examples/dfu/CMakeFiles/dfu_nrf51422_xxAC_s130_2.0.1.dir/__/__/mesh/serial/src/serial_handler_openmesh.c.obj
 .ARM.attributes
                0x000002b1       0x31 examples/dfu/CMakeFiles/dfu_nrf51422_xxAC_s130_2.0.1.dir/__/__/mesh/serial/src/serial.c.obj
 .ARM.attributes
                0x000002e2       0x31 examples/dfu/CMakeFiles/dfu_nrf51422_xxAC_s130_2.0.1.dir/__/__/mesh/serial/src/serial_handler_prov.c.obj
 .ARM.attributes
                0x00000313       0x31 examples/dfu/CMakeFiles/dfu_nrf51422_xxAC_s130_2.0.1.dir/__/__/mesh/serial/src/serial_handler_dfu.c.obj
 .ARM.attributes
                0x00000344       0x31 examples/dfu/CMakeFiles/dfu_nrf51422_xxAC_s130_2.0.1.dir/__/__/mesh/serial/src/serial_handler_mesh.c.obj
 .ARM.attributes
                0x00000375       0x31 examples/dfu/CMakeFiles/dfu_nrf51422_xxAC_s130_2.0.1.dir/__/__/mesh/serial/src/serial_handler_models.c.obj
 .ARM.attributes
                0x000003a6       0x31 examples/dfu/CMakeFiles/dfu_nrf51422_xxAC_s130_2.0.1.dir/__/__/mesh/serial/src/serial_handler_device.c.obj
 .ARM.attributes
                0x000003d7       0x31 examples/dfu/CMakeFiles/dfu_nrf51422_xxAC_s130_2.0.1.dir/__/__/mesh/serial/src/nrf_mesh_serial.c.obj
 .ARM.attributes
                0x00000408       0x31 examples/dfu/CMakeFiles/dfu_nrf51422_xxAC_s130_2.0.1.dir/__/__/mesh/serial/src/serial_handler_app.c.obj
 .ARM.attributes
                0x00000439       0x31 examples/dfu/CMakeFiles/dfu_nrf51422_xxAC_s130_2.0.1.dir/__/__/mesh/prov/src/prov_provisioner.c.obj
 .ARM.attributes
                0x0000046a       0x31 examples/dfu/CMakeFiles/dfu_nrf51422_xxAC_s130_2.0.1.dir/__/__/mesh/prov/src/prov_provisionee.c.obj
 .ARM.attributes
                0x0000049b       0x31 examples/dfu/CMakeFiles/dfu_nrf51422_xxAC_s130_2.0.1.dir/__/__/mesh/prov/src/nrf_mesh_prov.c.obj
 .ARM.attributes
                0x000004cc       0x31 examples/dfu/CMakeFiles/dfu_nrf51422_xxAC_s130_2.0.1.dir/__/__/mesh/prov/src/provisioning.c.obj
 .ARM.attributes
                0x000004fd       0x31 examples/dfu/CMakeFiles/dfu_nrf51422_xxAC_s130_2.0.1.dir/__/__/mesh/prov/src/prov_beacon.c.obj
 .ARM.attributes
                0x0000052e       0x31 examples/dfu/CMakeFiles/dfu_nrf51422_xxAC_s130_2.0.1.dir/__/__/mesh/prov/src/prov_utils.c.obj
 .ARM.attributes
                0x0000055f       0x31 examples/dfu/CMakeFiles/dfu_nrf51422_xxAC_s130_2.0.1.dir/__/__/mesh/prov/src/prov_bearer_adv.c.obj
 .ARM.attributes
                0x00000590       0x31 examples/dfu/CMakeFiles/dfu_nrf51422_xxAC_s130_2.0.1.dir/__/__/mesh/dfu/src/nrf_mesh_dfu.c.obj
 .ARM.attributes
                0x000005c1       0x31 examples/dfu/CMakeFiles/dfu_nrf51422_xxAC_s130_2.0.1.dir/__/__/external/nRF5_SDK_14.0.0_3bcc1f7/components/toolchain/system_nrf51.c.obj
 .ARM.attributes
                0x000005f2       0x1b examples/dfu/CMakeFiles/dfu_nrf51422_xxAC_s130_2.0.1.dir/__/__/external/nRF5_SDK_14.0.0_3bcc1f7/components/toolchain/gcc/gcc_startup_nrf51.S.obj
 .ARM.attributes
                0x0000060d       0x31 mesh/core/libmesh_core_nrf51422_xxAC.a(internal_event.c.obj)
 .ARM.attributes
                0x0000063e       0x31 mesh/core/libmesh_core_nrf51422_xxAC.a(nrf_mesh_configure.c.obj)
 .ARM.attributes
                0x0000066f       0x31 mesh/core/libmesh_core_nrf51422_xxAC.a(event.c.obj)
 .ARM.attributes
                0x000006a0       0x31 mesh/core/libmesh_core_nrf51422_xxAC.a(packet_buffer.c.obj)
 .ARM.attributes
                0x000006d1       0x31 mesh/core/libmesh_core_nrf51422_xxAC.a(fifo.c.obj)
 .ARM.attributes
                0x00000702       0x31 mesh/core/libmesh_core_nrf51422_xxAC.a(net_state.c.obj)
 .ARM.attributes
                0x00000733       0x31 mesh/core/libmesh_core_nrf51422_xxAC.a(mesh_flash.c.obj)
 .ARM.attributes
                0x00000764       0x31 mesh/core/libmesh_core_nrf51422_xxAC.a(nrf_mesh_utils.c.obj)
 .ARM.attributes
                0x00000795       0x31 mesh/core/libmesh_core_nrf51422_xxAC.a(nrf_mesh.c.obj)
 .ARM.attributes
                0x000007c6       0x31 mesh/core/libmesh_core_nrf51422_xxAC.a(hal.c.obj)
 .ARM.attributes
                0x000007f7       0x31 mesh/core/libmesh_core_nrf51422_xxAC.a(timer_scheduler.c.obj)
 .ARM.attributes
                0x00000828       0x31 mesh/core/libmesh_core_nrf51422_xxAC.a(timer.c.obj)
 .ARM.attributes
                0x00000859       0x31 mesh/core/libmesh_core_nrf51422_xxAC.a(ticker.c.obj)
 .ARM.attributes
                0x0000088a       0x31 mesh/core/libmesh_core_nrf51422_xxAC.a(rand.c.obj)
 .ARM.attributes
                0x000008bb       0x31 mesh/core/libmesh_core_nrf51422_xxAC.a(timeslot.c.obj)
 .ARM.attributes
                0x000008ec       0x31 mesh/core/libmesh_core_nrf51422_xxAC.a(bearer_event.c.obj)
 .ARM.attributes
                0x0000091d       0x31 mesh/core/libmesh_core_nrf51422_xxAC.a(enc.c.obj)
 .ARM.attributes
                0x0000094e       0x31 mesh/core/libmesh_core_nrf51422_xxAC.a(network.c.obj)
 .ARM.attributes
                0x0000097f       0x31 mesh/core/libmesh_core_nrf51422_xxAC.a(msqueue.c.obj)
 .ARM.attributes
                0x000009b0       0x31 mesh/core/libmesh_core_nrf51422_xxAC.a(nrf_mesh_keygen.c.obj)
 .ARM.attributes
                0x000009e1       0x31 mesh/core/libmesh_core_nrf51422_xxAC.a(log.c.obj)
 .ARM.attributes
                0x00000a12       0x31 mesh/core/libmesh_core_nrf51422_xxAC.a(flash_manager.c.obj)
 .ARM.attributes
                0x00000a43       0x31 mesh/core/libmesh_core_nrf51422_xxAC.a(ccm_soft.c.obj)
 .ARM.attributes
                0x00000a74       0x31 mesh/core/libmesh_core_nrf51422_xxAC.a(beacon.c.obj)
 .ARM.attributes
                0x00000aa5       0x31 mesh/core/libmesh_core_nrf51422_xxAC.a(flash_manager_internal.c.obj)
 .ARM.attributes
                0x00000ad6       0x31 mesh/core/libmesh_core_nrf51422_xxAC.a(core_tx.c.obj)
 .ARM.attributes
                0x00000b07       0x31 mesh/core/libmesh_core_nrf51422_xxAC.a(net_beacon.c.obj)
 .ARM.attributes
                0x00000b38       0x31 mesh/core/libmesh_core_nrf51422_xxAC.a(advertiser.c.obj)
 .ARM.attributes
                0x00000b69       0x31 mesh/core/libmesh_core_nrf51422_xxAC.a(bearer_handler.c.obj)
 .ARM.attributes
                0x00000b9a       0x31 mesh/core/libmesh_core_nrf51422_xxAC.a(broadcast.c.obj)
 .ARM.attributes
                0x00000bcb       0x31 mesh/core/libmesh_core_nrf51422_xxAC.a(radio_config.c.obj)
 .ARM.attributes
                0x00000bfc       0x31 mesh/core/libmesh_core_nrf51422_xxAC.a(scanner.c.obj)
 .ARM.attributes
                0x00000c2d       0x31 mesh/core/libmesh_core_nrf51422_xxAC.a(aes.c.obj)
 .ARM.attributes
                0x00000c5e       0x31 mesh/core/libmesh_core_nrf51422_xxAC.a(msg_cache.c.obj)
 .ARM.attributes
                0x00000c8f       0x31 mesh/core/libmesh_core_nrf51422_xxAC.a(transport.c.obj)
 .ARM.attributes
                0x00000cc0       0x31 mesh/core/libmesh_core_nrf51422_xxAC.a(flash_manager_defrag.c.obj)
 .ARM.attributes
                0x00000cf1       0x31 mesh/core/libmesh_core_nrf51422_xxAC.a(nrf_flash.c.obj)
 .ARM.attributes
                0x00000d22       0x31 mesh/core/libmesh_core_nrf51422_xxAC.a(packet_mgr.c.obj)
 .ARM.attributes
                0x00000d53       0x31 mesh/core/libmesh_core_nrf51422_xxAC.a(queue.c.obj)
 .ARM.attributes
                0x00000d84       0x31 mesh/core/libmesh_core_nrf51422_xxAC.a(aes_cmac.c.obj)
 .ARM.attributes
                0x00000db5       0x31 mesh/core/libmesh_core_nrf51422_xxAC.a(replay_cache.c.obj)
 .ARM.attributes
                0x00000de6       0x31 mesh/core/libmesh_core_nrf51422_xxAC.a(filter_engine.c.obj)
 .ARM.attributes
                0x00000e17       0x31 external/rtt/librtt_nrf51422_xxAC.a(SEGGER_RTT.c.obj)
 .ARM.attributes
                0x00000e48       0x31 external/rtt/librtt_nrf51422_xxAC.a(SEGGER_RTT_printf.c.obj)
 .ARM.attributes
                0x00000e79       0x31 external/micro-ecc/libuECC_nrf51422_xxAC.a(uECC.c.obj)
 .ARM.attributes
                0x00000eaa       0x1e c:/a/gcc_arm/6/bin/../lib/gcc/arm-none-eabi/6.3.1/thumb/v6-m\libgcc.a(_thumb1_case_uqi.o)
 .ARM.attributes
                0x00000ec8       0x1e c:/a/gcc_arm/6/bin/../lib/gcc/arm-none-eabi/6.3.1/thumb/v6-m\libgcc.a(_thumb1_case_shi.o)
 .ARM.attributes
                0x00000ee6       0x1e c:/a/gcc_arm/6/bin/../lib/gcc/arm-none-eabi/6.3.1/thumb/v6-m\libgcc.a(_thumb1_case_uhi.o)
 .ARM.attributes
                0x00000f04       0x1e c:/a/gcc_arm/6/bin/../lib/gcc/arm-none-eabi/6.3.1/thumb/v6-m\libgcc.a(_udivsi3.o)
 .ARM.attributes
                0x00000f22       0x1e c:/a/gcc_arm/6/bin/../lib/gcc/arm-none-eabi/6.3.1/thumb/v6-m\libgcc.a(_divsi3.o)
 .ARM.attributes
                0x00000f40       0x1e c:/a/gcc_arm/6/bin/../lib/gcc/arm-none-eabi/6.3.1/thumb/v6-m\libgcc.a(_dvmd_tls.o)
 .ARM.attributes
                0x00000f5e       0x2c c:/a/gcc_arm/6/bin/../lib/gcc/arm-none-eabi/6.3.1/thumb/v6-m\libgcc.a(_muldi3.o)
 .ARM.attributes
                0x00000f8a       0x2c c:/a/gcc_arm/6/bin/../lib/gcc/arm-none-eabi/6.3.1/../../../../arm-none-eabi/lib/thumb/v6-m\libc_nano.a(lib_a-exit.o)
 .ARM.attributes
                0x00000fb6       0x2c c:/a/gcc_arm/6/bin/../lib/gcc/arm-none-eabi/6.3.1/../../../../arm-none-eabi/lib/thumb/v6-m\libc_nano.a(lib_a-impure.o)
 .ARM.attributes
                0x00000fe2       0x2c c:/a/gcc_arm/6/bin/../lib/gcc/arm-none-eabi/6.3.1/../../../../arm-none-eabi/lib/thumb/v6-m\libc_nano.a(lib_a-init.o)
 .ARM.attributes
                0x0000100e       0x2c c:/a/gcc_arm/6/bin/../lib/gcc/arm-none-eabi/6.3.1/../../../../arm-none-eabi/lib/thumb/v6-m\libc_nano.a(lib_a-malloc.o)
 .ARM.attributes
                0x0000103a       0x2c c:/a/gcc_arm/6/bin/../lib/gcc/arm-none-eabi/6.3.1/../../../../arm-none-eabi/lib/thumb/v6-m\libc_nano.a(lib_a-memcmp.o)
 .ARM.attributes
                0x00001066       0x2c c:/a/gcc_arm/6/bin/../lib/gcc/arm-none-eabi/6.3.1/../../../../arm-none-eabi/lib/thumb/v6-m\libc_nano.a(lib_a-memcpy-stub.o)
 .ARM.attributes
                0x00001092       0x2c c:/a/gcc_arm/6/bin/../lib/gcc/arm-none-eabi/6.3.1/../../../../arm-none-eabi/lib/thumb/v6-m\libc_nano.a(lib_a-memset.o)
 .ARM.attributes
                0x000010be       0x2c c:/a/gcc_arm/6/bin/../lib/gcc/arm-none-eabi/6.3.1/../../../../arm-none-eabi/lib/thumb/v6-m\libc_nano.a(lib_a-nano-freer.o)
 .ARM.attributes
                0x000010ea       0x2c c:/a/gcc_arm/6/bin/../lib/gcc/arm-none-eabi/6.3.1/../../../../arm-none-eabi/lib/thumb/v6-m\libc_nano.a(lib_a-nano-mallocr.o)
 .ARM.attributes
                0x00001116       0x2c c:/a/gcc_arm/6/bin/../lib/gcc/arm-none-eabi/6.3.1/../../../../arm-none-eabi/lib/thumb/v6-m\libc_nano.a(lib_a-sbrkr.o)
 .ARM.attributes
                0x00001142       0x2c c:/a/gcc_arm/6/bin/../lib/gcc/arm-none-eabi/6.3.1/../../../../arm-none-eabi/lib/thumb/v6-m\libc_nano.a(lib_a-strcpy.o)
 .ARM.attributes
                0x0000116e       0x1c c:/a/gcc_arm/6/bin/../lib/gcc/arm-none-eabi/6.3.1/../../../../arm-none-eabi/lib/thumb/v6-m\libc_nano.a(lib_a-strlen.o)
 .ARM.attributes
                0x0000118a       0x2c c:/a/gcc_arm/6/bin/../lib/gcc/arm-none-eabi/6.3.1/../../../../arm-none-eabi/lib/thumb/v6-m\libc_nano.a(lib_a-strrchr.o)
 .ARM.attributes
                0x000011b6       0x2c c:/a/gcc_arm/6/bin/../lib/gcc/arm-none-eabi/6.3.1/../../../../arm-none-eabi/lib/thumb/v6-m\libc_nano.a(lib_a-mlock.o)
 .ARM.attributes
                0x000011e2       0x2c c:/a/gcc_arm/6/bin/../lib/gcc/arm-none-eabi/6.3.1/../../../../arm-none-eabi/lib/thumb/v6-m\libc_nano.a(lib_a-reent.o)
 .ARM.attributes
                0x0000120e       0x2c c:/a/gcc_arm/6/bin/../lib/gcc/arm-none-eabi/6.3.1/../../../../arm-none-eabi/lib/thumb/v6-m\libc_nano.a(lib_a-strchr.o)
 .ARM.attributes
                0x0000123a       0x2c c:/a/gcc_arm/6/bin/../lib/gcc/arm-none-eabi/6.3.1/thumb/v6-m/crtend.o
 .ARM.attributes
                0x00001266       0x1e c:/a/gcc_arm/6/bin/../lib/gcc/arm-none-eabi/6.3.1/thumb/v6-m/crtn.o
 .ARM.attributes
                0x00001284       0x2c c:/a/gcc_arm/6/bin/../lib/gcc/arm-none-eabi/6.3.1/../../../../arm-none-eabi/lib/thumb/v6-m\libnosys.a(sbrk.o)
 .ARM.attributes
                0x000012b0       0x2c c:/a/gcc_arm/6/bin/../lib/gcc/arm-none-eabi/6.3.1/../../../../arm-none-eabi/lib/thumb/v6-m\libnosys.a(_exit.o)

.comment        0x00000000       0x7f
 .comment       0x00000000       0x7f examples/dfu/CMakeFiles/dfu_nrf51422_xxAC_s130_2.0.1.dir/src/main.c.obj
                                 0x80 (size before relaxing)
 .comment       0x0000007f       0x80 examples/dfu/CMakeFiles/dfu_nrf51422_xxAC_s130_2.0.1.dir/__/nrf_mesh_sdk.c.obj
 .comment       0x0000007f       0x80 examples/dfu/CMakeFiles/dfu_nrf51422_xxAC_s130_2.0.1.dir/__/__/mesh/access/src/access_publish.c.obj
 .comment       0x0000007f       0x80 examples/dfu/CMakeFiles/dfu_nrf51422_xxAC_s130_2.0.1.dir/__/__/mesh/access/src/access.c.obj
 .comment       0x0000007f       0x80 examples/dfu/CMakeFiles/dfu_nrf51422_xxAC_s130_2.0.1.dir/__/__/mesh/access/src/access_reliable.c.obj
 .comment       0x0000007f       0x80 examples/dfu/CMakeFiles/dfu_nrf51422_xxAC_s130_2.0.1.dir/__/__/mesh/access/src/device_state_manager.c.obj
 .comment       0x0000007f       0x80 examples/dfu/CMakeFiles/dfu_nrf51422_xxAC_s130_2.0.1.dir/__/__/mesh/serial/src/serial_uart.c.obj
 .comment       0x0000007f       0x80 examples/dfu/CMakeFiles/dfu_nrf51422_xxAC_s130_2.0.1.dir/__/__/mesh/serial/src/serial_bearer.c.obj
 .comment       0x0000007f       0x80 examples/dfu/CMakeFiles/dfu_nrf51422_xxAC_s130_2.0.1.dir/__/__/mesh/serial/src/serial_handler_common.c.obj
 .comment       0x0000007f       0x80 examples/dfu/CMakeFiles/dfu_nrf51422_xxAC_s130_2.0.1.dir/__/__/mesh/serial/src/serial_handler_access.c.obj
 .comment       0x0000007f       0x80 examples/dfu/CMakeFiles/dfu_nrf51422_xxAC_s130_2.0.1.dir/__/__/mesh/serial/src/serial_handler_config.c.obj
 .comment       0x0000007f       0x80 examples/dfu/CMakeFiles/dfu_nrf51422_xxAC_s130_2.0.1.dir/__/__/mesh/serial/src/serial_handler_openmesh.c.obj
 .comment       0x0000007f       0x80 examples/dfu/CMakeFiles/dfu_nrf51422_xxAC_s130_2.0.1.dir/__/__/mesh/serial/src/serial.c.obj
 .comment       0x0000007f       0x80 examples/dfu/CMakeFiles/dfu_nrf51422_xxAC_s130_2.0.1.dir/__/__/mesh/serial/src/serial_handler_prov.c.obj
 .comment       0x0000007f       0x80 examples/dfu/CMakeFiles/dfu_nrf51422_xxAC_s130_2.0.1.dir/__/__/mesh/serial/src/serial_handler_dfu.c.obj
 .comment       0x0000007f       0x80 examples/dfu/CMakeFiles/dfu_nrf51422_xxAC_s130_2.0.1.dir/__/__/mesh/serial/src/serial_handler_mesh.c.obj
 .comment       0x0000007f       0x80 examples/dfu/CMakeFiles/dfu_nrf51422_xxAC_s130_2.0.1.dir/__/__/mesh/serial/src/serial_handler_models.c.obj
 .comment       0x0000007f       0x80 examples/dfu/CMakeFiles/dfu_nrf51422_xxAC_s130_2.0.1.dir/__/__/mesh/serial/src/serial_handler_device.c.obj
 .comment       0x0000007f       0x80 examples/dfu/CMakeFiles/dfu_nrf51422_xxAC_s130_2.0.1.dir/__/__/mesh/serial/src/nrf_mesh_serial.c.obj
 .comment       0x0000007f       0x80 examples/dfu/CMakeFiles/dfu_nrf51422_xxAC_s130_2.0.1.dir/__/__/mesh/serial/src/serial_handler_app.c.obj
 .comment       0x0000007f       0x80 examples/dfu/CMakeFiles/dfu_nrf51422_xxAC_s130_2.0.1.dir/__/__/mesh/prov/src/prov_provisioner.c.obj
 .comment       0x0000007f       0x80 examples/dfu/CMakeFiles/dfu_nrf51422_xxAC_s130_2.0.1.dir/__/__/mesh/prov/src/prov_provisionee.c.obj
 .comment       0x0000007f       0x80 examples/dfu/CMakeFiles/dfu_nrf51422_xxAC_s130_2.0.1.dir/__/__/mesh/prov/src/nrf_mesh_prov.c.obj
 .comment       0x0000007f       0x80 examples/dfu/CMakeFiles/dfu_nrf51422_xxAC_s130_2.0.1.dir/__/__/mesh/prov/src/provisioning.c.obj
 .comment       0x0000007f       0x80 examples/dfu/CMakeFiles/dfu_nrf51422_xxAC_s130_2.0.1.dir/__/__/mesh/prov/src/prov_beacon.c.obj
 .comment       0x0000007f       0x80 examples/dfu/CMakeFiles/dfu_nrf51422_xxAC_s130_2.0.1.dir/__/__/mesh/prov/src/prov_utils.c.obj
 .comment       0x0000007f       0x80 examples/dfu/CMakeFiles/dfu_nrf51422_xxAC_s130_2.0.1.dir/__/__/mesh/prov/src/prov_bearer_adv.c.obj
 .comment       0x0000007f       0x80 examples/dfu/CMakeFiles/dfu_nrf51422_xxAC_s130_2.0.1.dir/__/__/mesh/dfu/src/nrf_mesh_dfu.c.obj
 .comment       0x0000007f       0x80 examples/dfu/CMakeFiles/dfu_nrf51422_xxAC_s130_2.0.1.dir/__/__/external/nRF5_SDK_14.0.0_3bcc1f7/components/toolchain/system_nrf51.c.obj
 .comment       0x0000007f       0x80 mesh/core/libmesh_core_nrf51422_xxAC.a(internal_event.c.obj)
 .comment       0x0000007f       0x80 mesh/core/libmesh_core_nrf51422_xxAC.a(nrf_mesh_configure.c.obj)
 .comment       0x0000007f       0x80 mesh/core/libmesh_core_nrf51422_xxAC.a(event.c.obj)
 .comment       0x0000007f       0x80 mesh/core/libmesh_core_nrf51422_xxAC.a(packet_buffer.c.obj)
 .comment       0x0000007f       0x80 mesh/core/libmesh_core_nrf51422_xxAC.a(fifo.c.obj)
 .comment       0x0000007f       0x80 mesh/core/libmesh_core_nrf51422_xxAC.a(net_state.c.obj)
 .comment       0x0000007f       0x80 mesh/core/libmesh_core_nrf51422_xxAC.a(mesh_flash.c.obj)
 .comment       0x0000007f       0x80 mesh/core/libmesh_core_nrf51422_xxAC.a(nrf_mesh_utils.c.obj)
 .comment       0x0000007f       0x80 mesh/core/libmesh_core_nrf51422_xxAC.a(nrf_mesh.c.obj)
 .comment       0x0000007f       0x80 mesh/core/libmesh_core_nrf51422_xxAC.a(hal.c.obj)
 .comment       0x0000007f       0x80 mesh/core/libmesh_core_nrf51422_xxAC.a(timer_scheduler.c.obj)
 .comment       0x0000007f       0x80 mesh/core/libmesh_core_nrf51422_xxAC.a(timer.c.obj)
 .comment       0x0000007f       0x80 mesh/core/libmesh_core_nrf51422_xxAC.a(ticker.c.obj)
 .comment       0x0000007f       0x80 mesh/core/libmesh_core_nrf51422_xxAC.a(rand.c.obj)
 .comment       0x0000007f       0x80 mesh/core/libmesh_core_nrf51422_xxAC.a(timeslot.c.obj)
 .comment       0x0000007f       0x80 mesh/core/libmesh_core_nrf51422_xxAC.a(bearer_event.c.obj)
 .comment       0x0000007f       0x80 mesh/core/libmesh_core_nrf51422_xxAC.a(enc.c.obj)
 .comment       0x0000007f       0x80 mesh/core/libmesh_core_nrf51422_xxAC.a(network.c.obj)
 .comment       0x0000007f       0x80 mesh/core/libmesh_core_nrf51422_xxAC.a(msqueue.c.obj)
 .comment       0x0000007f       0x80 mesh/core/libmesh_core_nrf51422_xxAC.a(nrf_mesh_keygen.c.obj)
 .comment       0x0000007f       0x80 mesh/core/libmesh_core_nrf51422_xxAC.a(log.c.obj)
 .comment       0x0000007f       0x80 mesh/core/libmesh_core_nrf51422_xxAC.a(flash_manager.c.obj)
 .comment       0x0000007f       0x80 mesh/core/libmesh_core_nrf51422_xxAC.a(ccm_soft.c.obj)
 .comment       0x0000007f       0x80 mesh/core/libmesh_core_nrf51422_xxAC.a(beacon.c.obj)
 .comment       0x0000007f       0x80 mesh/core/libmesh_core_nrf51422_xxAC.a(flash_manager_internal.c.obj)
 .comment       0x0000007f       0x80 mesh/core/libmesh_core_nrf51422_xxAC.a(core_tx.c.obj)
 .comment       0x0000007f       0x80 mesh/core/libmesh_core_nrf51422_xxAC.a(net_beacon.c.obj)
 .comment       0x0000007f       0x80 mesh/core/libmesh_core_nrf51422_xxAC.a(advertiser.c.obj)
 .comment       0x0000007f       0x80 mesh/core/libmesh_core_nrf51422_xxAC.a(bearer_handler.c.obj)
 .comment       0x0000007f       0x80 mesh/core/libmesh_core_nrf51422_xxAC.a(broadcast.c.obj)
 .comment       0x0000007f       0x80 mesh/core/libmesh_core_nrf51422_xxAC.a(radio_config.c.obj)
 .comment       0x0000007f       0x80 mesh/core/libmesh_core_nrf51422_xxAC.a(scanner.c.obj)
 .comment       0x0000007f       0x80 mesh/core/libmesh_core_nrf51422_xxAC.a(aes.c.obj)
 .comment       0x0000007f       0x80 mesh/core/libmesh_core_nrf51422_xxAC.a(msg_cache.c.obj)
 .comment       0x0000007f       0x80 mesh/core/libmesh_core_nrf51422_xxAC.a(transport.c.obj)
 .comment       0x0000007f       0x80 mesh/core/libmesh_core_nrf51422_xxAC.a(flash_manager_defrag.c.obj)
 .comment       0x0000007f       0x80 mesh/core/libmesh_core_nrf51422_xxAC.a(nrf_flash.c.obj)
 .comment       0x0000007f       0x80 mesh/core/libmesh_core_nrf51422_xxAC.a(packet_mgr.c.obj)
 .comment       0x0000007f       0x80 mesh/core/libmesh_core_nrf51422_xxAC.a(queue.c.obj)
 .comment       0x0000007f       0x80 mesh/core/libmesh_core_nrf51422_xxAC.a(aes_cmac.c.obj)
 .comment       0x0000007f       0x80 mesh/core/libmesh_core_nrf51422_xxAC.a(replay_cache.c.obj)
 .comment       0x0000007f       0x80 mesh/core/libmesh_core_nrf51422_xxAC.a(filter_engine.c.obj)
 .comment       0x0000007f       0x80 external/rtt/librtt_nrf51422_xxAC.a(SEGGER_RTT.c.obj)
 .comment       0x0000007f       0x80 external/rtt/librtt_nrf51422_xxAC.a(SEGGER_RTT_printf.c.obj)
 .comment       0x0000007f       0x80 external/micro-ecc/libuECC_nrf51422_xxAC.a(uECC.c.obj)

.debug_frame    0x00000000      0x324
 .debug_frame   0x00000000       0x20 c:/a/gcc_arm/6/bin/../lib/gcc/arm-none-eabi/6.3.1/thumb/v6-m\libgcc.a(_udivsi3.o)
 .debug_frame   0x00000020       0x20 c:/a/gcc_arm/6/bin/../lib/gcc/arm-none-eabi/6.3.1/thumb/v6-m\libgcc.a(_divsi3.o)
 .debug_frame   0x00000040       0x34 c:/a/gcc_arm/6/bin/../lib/gcc/arm-none-eabi/6.3.1/thumb/v6-m\libgcc.a(_muldi3.o)
 .debug_frame   0x00000074       0x28 c:/a/gcc_arm/6/bin/../lib/gcc/arm-none-eabi/6.3.1/../../../../arm-none-eabi/lib/thumb/v6-m\libc_nano.a(lib_a-exit.o)
 .debug_frame   0x0000009c       0x2c c:/a/gcc_arm/6/bin/../lib/gcc/arm-none-eabi/6.3.1/../../../../arm-none-eabi/lib/thumb/v6-m\libc_nano.a(lib_a-init.o)
 .debug_frame   0x000000c8       0x40 c:/a/gcc_arm/6/bin/../lib/gcc/arm-none-eabi/6.3.1/../../../../arm-none-eabi/lib/thumb/v6-m\libc_nano.a(lib_a-malloc.o)
 .debug_frame   0x00000108       0x2c c:/a/gcc_arm/6/bin/../lib/gcc/arm-none-eabi/6.3.1/../../../../arm-none-eabi/lib/thumb/v6-m\libc_nano.a(lib_a-memcmp.o)
 .debug_frame   0x00000134       0x28 c:/a/gcc_arm/6/bin/../lib/gcc/arm-none-eabi/6.3.1/../../../../arm-none-eabi/lib/thumb/v6-m\libc_nano.a(lib_a-memcpy-stub.o)
 .debug_frame   0x0000015c       0x20 c:/a/gcc_arm/6/bin/../lib/gcc/arm-none-eabi/6.3.1/../../../../arm-none-eabi/lib/thumb/v6-m\libc_nano.a(lib_a-memset.o)
 .debug_frame   0x0000017c       0x2c c:/a/gcc_arm/6/bin/../lib/gcc/arm-none-eabi/6.3.1/../../../../arm-none-eabi/lib/thumb/v6-m\libc_nano.a(lib_a-nano-freer.o)
 .debug_frame   0x000001a8       0x2c c:/a/gcc_arm/6/bin/../lib/gcc/arm-none-eabi/6.3.1/../../../../arm-none-eabi/lib/thumb/v6-m\libc_nano.a(lib_a-nano-mallocr.o)
 .debug_frame   0x000001d4       0x2c c:/a/gcc_arm/6/bin/../lib/gcc/arm-none-eabi/6.3.1/../../../../arm-none-eabi/lib/thumb/v6-m\libc_nano.a(lib_a-sbrkr.o)
 .debug_frame   0x00000200       0x20 c:/a/gcc_arm/6/bin/../lib/gcc/arm-none-eabi/6.3.1/../../../../arm-none-eabi/lib/thumb/v6-m\libc_nano.a(lib_a-strcpy.o)
 .debug_frame   0x00000220       0x2c c:/a/gcc_arm/6/bin/../lib/gcc/arm-none-eabi/6.3.1/../../../../arm-none-eabi/lib/thumb/v6-m\libc_nano.a(lib_a-strrchr.o)
 .debug_frame   0x0000024c       0x30 c:/a/gcc_arm/6/bin/../lib/gcc/arm-none-eabi/6.3.1/../../../../arm-none-eabi/lib/thumb/v6-m\libc_nano.a(lib_a-mlock.o)
 .debug_frame   0x0000027c       0x48 c:/a/gcc_arm/6/bin/../lib/gcc/arm-none-eabi/6.3.1/../../../../arm-none-eabi/lib/thumb/v6-m\libc_nano.a(lib_a-reent.o)
 .debug_frame   0x000002c4       0x20 c:/a/gcc_arm/6/bin/../lib/gcc/arm-none-eabi/6.3.1/../../../../arm-none-eabi/lib/thumb/v6-m\libc_nano.a(lib_a-strchr.o)
 .debug_frame   0x000002e4       0x20 c:/a/gcc_arm/6/bin/../lib/gcc/arm-none-eabi/6.3.1/../../../../arm-none-eabi/lib/thumb/v6-m\libnosys.a(sbrk.o)
 .debug_frame   0x00000304       0x20 c:/a/gcc_arm/6/bin/../lib/gcc/arm-none-eabi/6.3.1/../../../../arm-none-eabi/lib/thumb/v6-m\libnosys.a(_exit.o)
