Archive member included to satisfy reference by file (symbol)

mesh/core/libmesh_core_nrf52832_xxAA.a(nrf_mesh_configure.c.obj)
                              examples/dfu/CMakeFiles/dfu_no_serial_nrf52832_xxAA_s132_3.1.0.dir/__/__/mesh/prov/src/prov_beacon.c.obj (nrf_mesh_configure_device_uuid_get)
mesh/core/libmesh_core_nrf52832_xxAA.a(event.c.obj)
                              examples/dfu/CMakeFiles/dfu_no_serial_nrf52832_xxAA_s132_3.1.0.dir/__/__/mesh/access/src/access.c.obj (event_handle)
mesh/core/libmesh_core_nrf52832_xxAA.a(net_state.c.obj)
                              examples/dfu/CMakeFiles/dfu_no_serial_nrf52832_xxAA_s132_3.1.0.dir/__/__/mesh/access/src/device_state_manager.c.obj (net_state_flash_area_get)
mesh/core/libmesh_core_nrf52832_xxAA.a(mesh_flash.c.obj)
                              examples/dfu/CMakeFiles/dfu_no_serial_nrf52832_xxAA_s132_3.1.0.dir/__/__/mesh/dfu/src/nrf_mesh_dfu.c.obj (mesh_flash_user_callback_set)
mesh/core/libmesh_core_nrf52832_xxAA.a(nrf_mesh_utils.c.obj)
                              examples/dfu/CMakeFiles/dfu_no_serial_nrf52832_xxAA_s132_3.1.0.dir/__/__/mesh/access/src/device_state_manager.c.obj (nrf_mesh_address_type_get)
mesh/core/libmesh_core_nrf52832_xxAA.a(nrf_mesh.c.obj)
                              examples/dfu/CMakeFiles/dfu_no_serial_nrf52832_xxAA_s132_3.1.0.dir/__/nrf_mesh_sdk.c.obj (nrf_mesh_init)
mesh/core/libmesh_core_nrf52832_xxAA.a(hal.c.obj)
                              examples/dfu/CMakeFiles/dfu_no_serial_nrf52832_xxAA_s132_3.1.0.dir/__/__/mesh/dfu/src/nrf_mesh_dfu.c.obj (hal_device_reset)
mesh/core/libmesh_core_nrf52832_xxAA.a(timer_scheduler.c.obj)
                              mesh/core/libmesh_core_nrf52832_xxAA.a(nrf_mesh.c.obj) (timer_sch_init)
mesh/core/libmesh_core_nrf52832_xxAA.a(timer.c.obj)
                              mesh/core/libmesh_core_nrf52832_xxAA.a(timer_scheduler.c.obj) (timer_order_cb)
mesh/core/libmesh_core_nrf52832_xxAA.a(ticker.c.obj)
                              mesh/core/libmesh_core_nrf52832_xxAA.a(nrf_mesh.c.obj) (ticker_init)
mesh/core/libmesh_core_nrf52832_xxAA.a(rand.c.obj)
                              examples/dfu/CMakeFiles/dfu_no_serial_nrf52832_xxAA_s132_3.1.0.dir/__/__/mesh/dfu/src/nrf_mesh_dfu.c.obj (rand_prng_get)
mesh/core/libmesh_core_nrf52832_xxAA.a(timeslot.c.obj)
                              mesh/core/libmesh_core_nrf52832_xxAA.a(nrf_mesh.c.obj) (timeslot_sd_event_handler)
mesh/core/libmesh_core_nrf52832_xxAA.a(bearer_event.c.obj)
                              mesh/core/libmesh_core_nrf52832_xxAA.a(nrf_mesh.c.obj) (bearer_event_init)
mesh/core/libmesh_core_nrf52832_xxAA.a(enc.c.obj)
                              examples/dfu/CMakeFiles/dfu_no_serial_nrf52832_xxAA_s132_3.1.0.dir/__/__/mesh/prov/src/prov_utils.c.obj (enc_aes_cmac)
mesh/core/libmesh_core_nrf52832_xxAA.a(network.c.obj)
                              mesh/core/libmesh_core_nrf52832_xxAA.a(nrf_mesh.c.obj) (network_init)
mesh/core/libmesh_core_nrf52832_xxAA.a(msqueue.c.obj)
                              mesh/core/libmesh_core_nrf52832_xxAA.a(mesh_flash.c.obj) (msq_get)
mesh/core/libmesh_core_nrf52832_xxAA.a(nrf_mesh_keygen.c.obj)
                              examples/dfu/CMakeFiles/dfu_no_serial_nrf52832_xxAA_s132_3.1.0.dir/__/__/mesh/access/src/device_state_manager.c.obj (nrf_mesh_keygen_aid)
mesh/core/libmesh_core_nrf52832_xxAA.a(log.c.obj)
                              examples/dfu/CMakeFiles/dfu_no_serial_nrf52832_xxAA_s132_3.1.0.dir/src/main.c.obj (log_callback_rtt)
mesh/core/libmesh_core_nrf52832_xxAA.a(flash_manager.c.obj)
                              mesh/core/libmesh_core_nrf52832_xxAA.a(nrf_mesh.c.obj) (flash_manager_init)
mesh/core/libmesh_core_nrf52832_xxAA.a(ccm_soft.c.obj)
                              mesh/core/libmesh_core_nrf52832_xxAA.a(enc.c.obj) (ccm_soft_encrypt)
mesh/core/libmesh_core_nrf52832_xxAA.a(beacon.c.obj)
                              mesh/core/libmesh_core_nrf52832_xxAA.a(nrf_mesh.c.obj) (beacon_init)
mesh/core/libmesh_core_nrf52832_xxAA.a(flash_manager_internal.c.obj)
                              mesh/core/libmesh_core_nrf52832_xxAA.a(flash_manager.c.obj) (entry_get)
mesh/core/libmesh_core_nrf52832_xxAA.a(core_tx.c.obj)
                              mesh/core/libmesh_core_nrf52832_xxAA.a(nrf_mesh.c.obj) (core_tx_init)
mesh/core/libmesh_core_nrf52832_xxAA.a(net_beacon.c.obj)
                              mesh/core/libmesh_core_nrf52832_xxAA.a(network.c.obj) (net_beacon_init)
mesh/core/libmesh_core_nrf52832_xxAA.a(advertiser.c.obj)
                              mesh/core/libmesh_core_nrf52832_xxAA.a(nrf_mesh.c.obj) (advertiser_init)
mesh/core/libmesh_core_nrf52832_xxAA.a(bearer_handler.c.obj)
                              mesh/core/libmesh_core_nrf52832_xxAA.a(nrf_mesh.c.obj) (bearer_handler_init)
mesh/core/libmesh_core_nrf52832_xxAA.a(broadcast.c.obj)
                              examples/dfu/CMakeFiles/dfu_no_serial_nrf52832_xxAA_s132_3.1.0.dir/__/__/mesh/dfu/src/nrf_mesh_dfu.c.obj (broadcast_send)
mesh/core/libmesh_core_nrf52832_xxAA.a(radio_config.c.obj)
                              mesh/core/libmesh_core_nrf52832_xxAA.a(broadcast.c.obj) (radio_config_reset)
mesh/core/libmesh_core_nrf52832_xxAA.a(scanner.c.obj)
                              mesh/core/libmesh_core_nrf52832_xxAA.a(bearer_handler.c.obj) (scanner_radio_start)
mesh/core/libmesh_core_nrf52832_xxAA.a(internal_event.c.obj)
                              mesh/core/libmesh_core_nrf52832_xxAA.a(network.c.obj) (internal_event_push)
mesh/core/libmesh_core_nrf52832_xxAA.a(aes.c.obj)
                              mesh/core/libmesh_core_nrf52832_xxAA.a(enc.c.obj) (aes_encrypt)
mesh/core/libmesh_core_nrf52832_xxAA.a(msg_cache.c.obj)
                              mesh/core/libmesh_core_nrf52832_xxAA.a(nrf_mesh.c.obj) (msg_cache_init)
mesh/core/libmesh_core_nrf52832_xxAA.a(transport.c.obj)
                              mesh/core/libmesh_core_nrf52832_xxAA.a(nrf_mesh.c.obj) (transport_init)
mesh/core/libmesh_core_nrf52832_xxAA.a(packet_buffer.c.obj)
                              mesh/core/libmesh_core_nrf52832_xxAA.a(flash_manager.c.obj) (packet_buffer_init)
mesh/core/libmesh_core_nrf52832_xxAA.a(flash_manager_defrag.c.obj)
                              mesh/core/libmesh_core_nrf52832_xxAA.a(flash_manager.c.obj) (flash_manager_defrag_init)
mesh/core/libmesh_core_nrf52832_xxAA.a(fifo.c.obj)
                              mesh/core/libmesh_core_nrf52832_xxAA.a(bearer_event.c.obj) (fifo_init)
mesh/core/libmesh_core_nrf52832_xxAA.a(nrf_flash.c.obj)
                              mesh/core/libmesh_core_nrf52832_xxAA.a(mesh_flash.c.obj) (nrf_flash_erase)
mesh/core/libmesh_core_nrf52832_xxAA.a(packet_mgr.c.obj)
                              mesh/core/libmesh_core_nrf52832_xxAA.a(nrf_mesh.c.obj) (packet_mgr_init)
mesh/core/libmesh_core_nrf52832_xxAA.a(queue.c.obj)
                              mesh/core/libmesh_core_nrf52832_xxAA.a(bearer_event.c.obj) (queue_init)
mesh/core/libmesh_core_nrf52832_xxAA.a(aes_cmac.c.obj)
                              mesh/core/libmesh_core_nrf52832_xxAA.a(enc.c.obj) (aes_cmac)
mesh/core/libmesh_core_nrf52832_xxAA.a(replay_cache.c.obj)
                              mesh/core/libmesh_core_nrf52832_xxAA.a(transport.c.obj) (replay_cache_add)
mesh/core/libmesh_core_nrf52832_xxAA.a(filter_engine.c.obj)
                              mesh/core/libmesh_core_nrf52832_xxAA.a(scanner.c.obj) (fen_filters_apply)
external/rtt/librtt_nrf52832_xxAA.a(SEGGER_RTT.c.obj)
                              mesh/core/libmesh_core_nrf52832_xxAA.a(log.c.obj) (SEGGER_RTT_Write)
external/rtt/librtt_nrf52832_xxAA.a(SEGGER_RTT_printf.c.obj)
                              mesh/core/libmesh_core_nrf52832_xxAA.a(log.c.obj) (SEGGER_RTT_vprintf)
external/micro-ecc/libuECC_nrf52832_xxAA.a(uECC.c.obj)
                              examples/dfu/CMakeFiles/dfu_no_serial_nrf52832_xxAA_s132_3.1.0.dir/__/__/mesh/prov/src/prov_utils.c.obj (uECC_secp256r1)
c:/a/gcc_arm/6/bin/../lib/gcc/arm-none-eabi/6.3.1/../../../../arm-none-eabi/lib/thumb/v7e-m/fpv4-sp/hard\libc_nano.a(lib_a-exit.o)
                              c:/a/gcc_arm/6/bin/../lib/gcc/arm-none-eabi/6.3.1/../../../../arm-none-eabi/lib/thumb/v7e-m/fpv4-sp/hard/crt0.o (exit)
c:/a/gcc_arm/6/bin/../lib/gcc/arm-none-eabi/6.3.1/../../../../arm-none-eabi/lib/thumb/v7e-m/fpv4-sp/hard\libc_nano.a(lib_a-impure.o)
                              c:/a/gcc_arm/6/bin/../lib/gcc/arm-none-eabi/6.3.1/../../../../arm-none-eabi/lib/thumb/v7e-m/fpv4-sp/hard\libc_nano.a(lib_a-exit.o) (_global_impure_ptr)
c:/a/gcc_arm/6/bin/../lib/gcc/arm-none-eabi/6.3.1/../../../../arm-none-eabi/lib/thumb/v7e-m/fpv4-sp/hard\libc_nano.a(lib_a-init.o)
                              c:/a/gcc_arm/6/bin/../lib/gcc/arm-none-eabi/6.3.1/../../../../arm-none-eabi/lib/thumb/v7e-m/fpv4-sp/hard/crt0.o (__libc_init_array)
c:/a/gcc_arm/6/bin/../lib/gcc/arm-none-eabi/6.3.1/../../../../arm-none-eabi/lib/thumb/v7e-m/fpv4-sp/hard\libc_nano.a(lib_a-malloc.o)
                              mesh/core/libmesh_core_nrf52832_xxAA.a(transport.c.obj) (malloc)
c:/a/gcc_arm/6/bin/../lib/gcc/arm-none-eabi/6.3.1/../../../../arm-none-eabi/lib/thumb/v7e-m/fpv4-sp/hard\libc_nano.a(lib_a-memcmp.o)
                              examples/dfu/CMakeFiles/dfu_no_serial_nrf52832_xxAA_s132_3.1.0.dir/__/__/mesh/access/src/device_state_manager.c.obj (memcmp)
c:/a/gcc_arm/6/bin/../lib/gcc/arm-none-eabi/6.3.1/../../../../arm-none-eabi/lib/thumb/v7e-m/fpv4-sp/hard\libc_nano.a(lib_a-memcpy-stub.o)
                              examples/dfu/CMakeFiles/dfu_no_serial_nrf52832_xxAA_s132_3.1.0.dir/__/__/mesh/access/src/access.c.obj (memcpy)
c:/a/gcc_arm/6/bin/../lib/gcc/arm-none-eabi/6.3.1/../../../../arm-none-eabi/lib/thumb/v7e-m/fpv4-sp/hard\libc_nano.a(lib_a-memset.o)
                              c:/a/gcc_arm/6/bin/../lib/gcc/arm-none-eabi/6.3.1/../../../../arm-none-eabi/lib/thumb/v7e-m/fpv4-sp/hard/crt0.o (memset)
c:/a/gcc_arm/6/bin/../lib/gcc/arm-none-eabi/6.3.1/../../../../arm-none-eabi/lib/thumb/v7e-m/fpv4-sp/hard\libc_nano.a(lib_a-nano-freer.o)
                              c:/a/gcc_arm/6/bin/../lib/gcc/arm-none-eabi/6.3.1/../../../../arm-none-eabi/lib/thumb/v7e-m/fpv4-sp/hard\libc_nano.a(lib_a-malloc.o) (_free_r)
c:/a/gcc_arm/6/bin/../lib/gcc/arm-none-eabi/6.3.1/../../../../arm-none-eabi/lib/thumb/v7e-m/fpv4-sp/hard\libc_nano.a(lib_a-nano-mallocr.o)
                              c:/a/gcc_arm/6/bin/../lib/gcc/arm-none-eabi/6.3.1/../../../../arm-none-eabi/lib/thumb/v7e-m/fpv4-sp/hard\libc_nano.a(lib_a-malloc.o) (_malloc_r)
c:/a/gcc_arm/6/bin/../lib/gcc/arm-none-eabi/6.3.1/../../../../arm-none-eabi/lib/thumb/v7e-m/fpv4-sp/hard\libc_nano.a(lib_a-sbrkr.o)
                              c:/a/gcc_arm/6/bin/../lib/gcc/arm-none-eabi/6.3.1/../../../../arm-none-eabi/lib/thumb/v7e-m/fpv4-sp/hard\libc_nano.a(lib_a-nano-mallocr.o) (_sbrk_r)
c:/a/gcc_arm/6/bin/../lib/gcc/arm-none-eabi/6.3.1/../../../../arm-none-eabi/lib/thumb/v7e-m/fpv4-sp/hard\libc_nano.a(lib_a-strcpy.o)
                              external/rtt/librtt_nrf52832_xxAA.a(SEGGER_RTT.c.obj) (strcpy)
c:/a/gcc_arm/6/bin/../lib/gcc/arm-none-eabi/6.3.1/../../../../arm-none-eabi/lib/thumb/v7e-m/fpv4-sp/hard\libc_nano.a(lib_a-strlen.o)
                              examples/dfu/CMakeFiles/dfu_no_serial_nrf52832_xxAA_s132_3.1.0.dir/__/__/mesh/prov/src/prov_beacon.c.obj (strlen)
c:/a/gcc_arm/6/bin/../lib/gcc/arm-none-eabi/6.3.1/../../../../arm-none-eabi/lib/thumb/v7e-m/fpv4-sp/hard\libc_nano.a(lib_a-strrchr.o)
                              examples/dfu/CMakeFiles/dfu_no_serial_nrf52832_xxAA_s132_3.1.0.dir/src/main.c.obj (strrchr)
c:/a/gcc_arm/6/bin/../lib/gcc/arm-none-eabi/6.3.1/../../../../arm-none-eabi/lib/thumb/v7e-m/fpv4-sp/hard\libc_nano.a(lib_a-mlock.o)
                              c:/a/gcc_arm/6/bin/../lib/gcc/arm-none-eabi/6.3.1/../../../../arm-none-eabi/lib/thumb/v7e-m/fpv4-sp/hard\libc_nano.a(lib_a-nano-freer.o) (__malloc_lock)
c:/a/gcc_arm/6/bin/../lib/gcc/arm-none-eabi/6.3.1/../../../../arm-none-eabi/lib/thumb/v7e-m/fpv4-sp/hard\libc_nano.a(lib_a-reent.o)
                              c:/a/gcc_arm/6/bin/../lib/gcc/arm-none-eabi/6.3.1/../../../../arm-none-eabi/lib/thumb/v7e-m/fpv4-sp/hard\libc_nano.a(lib_a-sbrkr.o) (errno)
c:/a/gcc_arm/6/bin/../lib/gcc/arm-none-eabi/6.3.1/../../../../arm-none-eabi/lib/thumb/v7e-m/fpv4-sp/hard\libc_nano.a(lib_a-strchr.o)
                              c:/a/gcc_arm/6/bin/../lib/gcc/arm-none-eabi/6.3.1/../../../../arm-none-eabi/lib/thumb/v7e-m/fpv4-sp/hard\libc_nano.a(lib_a-strrchr.o) (strchr)
c:/a/gcc_arm/6/bin/../lib/gcc/arm-none-eabi/6.3.1/../../../../arm-none-eabi/lib/thumb/v7e-m/fpv4-sp/hard\libnosys.a(sbrk.o)
                              c:/a/gcc_arm/6/bin/../lib/gcc/arm-none-eabi/6.3.1/../../../../arm-none-eabi/lib/thumb/v7e-m/fpv4-sp/hard\libc_nano.a(lib_a-sbrkr.o) (_sbrk)
c:/a/gcc_arm/6/bin/../lib/gcc/arm-none-eabi/6.3.1/../../../../arm-none-eabi/lib/thumb/v7e-m/fpv4-sp/hard\libnosys.a(_exit.o)
                              c:/a/gcc_arm/6/bin/../lib/gcc/arm-none-eabi/6.3.1/../../../../arm-none-eabi/lib/thumb/v7e-m/fpv4-sp/hard\libc_nano.a(lib_a-exit.o) (_exit)

Allocating common symbols
Common symbol       size              file

nrf_nvic_state      0xc               examples/dfu/CMakeFiles/dfu_no_serial_nrf52832_xxAA_s132_3.1.0.dir/__/nrf_mesh_sdk.c.obj
bank_addr           0x4               examples/dfu/CMakeFiles/dfu_no_serial_nrf52832_xxAA_s132_3.1.0.dir/src/main.c.obj
rom_length          0x4               examples/dfu/CMakeFiles/dfu_no_serial_nrf52832_xxAA_s132_3.1.0.dir/src/main.c.obj
m_cmd_handler       0x4               examples/dfu/CMakeFiles/dfu_no_serial_nrf52832_xxAA_s132_3.1.0.dir/__/__/mesh/dfu/src/nrf_mesh_dfu.c.obj
errno               0x4               c:/a/gcc_arm/6/bin/../lib/gcc/arm-none-eabi/6.3.1/../../../../arm-none-eabi/lib/thumb/v7e-m/fpv4-sp/hard\libc_nano.a(lib_a-reent.o)
m_assertion_handler
                    0x4               mesh/core/libmesh_core_nrf52832_xxAA.a(nrf_mesh.c.obj)
_SEGGER_RTT         0x78              external/rtt/librtt_nrf52832_xxAA.a(SEGGER_RTT.c.obj)

Discarded input sections

 .text          0x00000000        0x0 c:/a/gcc_arm/6/bin/../lib/gcc/arm-none-eabi/6.3.1/thumb/v7e-m/fpv4-sp/hard/crti.o
 .data          0x00000000        0x0 c:/a/gcc_arm/6/bin/../lib/gcc/arm-none-eabi/6.3.1/thumb/v7e-m/fpv4-sp/hard/crti.o
 .bss           0x00000000        0x0 c:/a/gcc_arm/6/bin/../lib/gcc/arm-none-eabi/6.3.1/thumb/v7e-m/fpv4-sp/hard/crti.o
 .data          0x00000000        0x4 c:/a/gcc_arm/6/bin/../lib/gcc/arm-none-eabi/6.3.1/thumb/v7e-m/fpv4-sp/hard/crtbegin.o
 .data          0x00000000        0x0 c:/a/gcc_arm/6/bin/../lib/gcc/arm-none-eabi/6.3.1/../../../../arm-none-eabi/lib/thumb/v7e-m/fpv4-sp/hard/crt0.o
 .bss           0x00000000        0x0 c:/a/gcc_arm/6/bin/../lib/gcc/arm-none-eabi/6.3.1/../../../../arm-none-eabi/lib/thumb/v7e-m/fpv4-sp/hard/crt0.o
 .ARM.extab     0x00000000        0x0 c:/a/gcc_arm/6/bin/../lib/gcc/arm-none-eabi/6.3.1/../../../../arm-none-eabi/lib/thumb/v7e-m/fpv4-sp/hard/crt0.o
 .text          0x00000000        0x0 examples/dfu/CMakeFiles/dfu_no_serial_nrf52832_xxAA_s132_3.1.0.dir/src/main.c.obj
 .data          0x00000000        0x0 examples/dfu/CMakeFiles/dfu_no_serial_nrf52832_xxAA_s132_3.1.0.dir/src/main.c.obj
 .bss           0x00000000        0x0 examples/dfu/CMakeFiles/dfu_no_serial_nrf52832_xxAA_s132_3.1.0.dir/src/main.c.obj
 .text          0x00000000        0x0 examples/dfu/CMakeFiles/dfu_no_serial_nrf52832_xxAA_s132_3.1.0.dir/__/nrf_mesh_sdk.c.obj
 .data          0x00000000        0x0 examples/dfu/CMakeFiles/dfu_no_serial_nrf52832_xxAA_s132_3.1.0.dir/__/nrf_mesh_sdk.c.obj
 .bss           0x00000000        0x0 examples/dfu/CMakeFiles/dfu_no_serial_nrf52832_xxAA_s132_3.1.0.dir/__/nrf_mesh_sdk.c.obj
 .text          0x00000000        0x0 examples/dfu/CMakeFiles/dfu_no_serial_nrf52832_xxAA_s132_3.1.0.dir/__/__/mesh/access/src/access_publish.c.obj
 .data          0x00000000        0x0 examples/dfu/CMakeFiles/dfu_no_serial_nrf52832_xxAA_s132_3.1.0.dir/__/__/mesh/access/src/access_publish.c.obj
 .bss           0x00000000        0x0 examples/dfu/CMakeFiles/dfu_no_serial_nrf52832_xxAA_s132_3.1.0.dir/__/__/mesh/access/src/access_publish.c.obj
 .text.add_to_publication_list
                0x00000000       0x84 examples/dfu/CMakeFiles/dfu_no_serial_nrf52832_xxAA_s132_3.1.0.dir/__/__/mesh/access/src/access_publish.c.obj
 .text.step_resolution_to_us
                0x00000000       0x44 examples/dfu/CMakeFiles/dfu_no_serial_nrf52832_xxAA_s132_3.1.0.dir/__/__/mesh/access/src/access_publish.c.obj
 .text.schedule_publication_timer
                0x00000000      0x184 examples/dfu/CMakeFiles/dfu_no_serial_nrf52832_xxAA_s132_3.1.0.dir/__/__/mesh/access/src/access_publish.c.obj
 .text.publish_timer_tick
                0x00000000       0xbc examples/dfu/CMakeFiles/dfu_no_serial_nrf52832_xxAA_s132_3.1.0.dir/__/__/mesh/access/src/access_publish.c.obj
 .text.access_publish_init
                0x00000000       0x38 examples/dfu/CMakeFiles/dfu_no_serial_nrf52832_xxAA_s132_3.1.0.dir/__/__/mesh/access/src/access_publish.c.obj
 .text.access_publish_period_set
                0x00000000       0x6c examples/dfu/CMakeFiles/dfu_no_serial_nrf52832_xxAA_s132_3.1.0.dir/__/__/mesh/access/src/access_publish.c.obj
 .text.access_publish_period_get
                0x00000000       0x30 examples/dfu/CMakeFiles/dfu_no_serial_nrf52832_xxAA_s132_3.1.0.dir/__/__/mesh/access/src/access_publish.c.obj
 .bss.m_publish_timer
                0x00000000       0x18 examples/dfu/CMakeFiles/dfu_no_serial_nrf52832_xxAA_s132_3.1.0.dir/__/__/mesh/access/src/access_publish.c.obj
 .bss.m_publish_timer_counter
                0x00000000        0x4 examples/dfu/CMakeFiles/dfu_no_serial_nrf52832_xxAA_s132_3.1.0.dir/__/__/mesh/access/src/access_publish.c.obj
 .bss.m_publish_timer_running
                0x00000000        0x1 examples/dfu/CMakeFiles/dfu_no_serial_nrf52832_xxAA_s132_3.1.0.dir/__/__/mesh/access/src/access_publish.c.obj
 .bss.m_timer_resolution
                0x00000000        0x1 examples/dfu/CMakeFiles/dfu_no_serial_nrf52832_xxAA_s132_3.1.0.dir/__/__/mesh/access/src/access_publish.c.obj
 .bss.mp_publication_list
                0x00000000        0x4 examples/dfu/CMakeFiles/dfu_no_serial_nrf52832_xxAA_s132_3.1.0.dir/__/__/mesh/access/src/access_publish.c.obj
 .comment       0x00000000       0x80 examples/dfu/CMakeFiles/dfu_no_serial_nrf52832_xxAA_s132_3.1.0.dir/__/__/mesh/access/src/access_publish.c.obj
 .ARM.attributes
                0x00000000       0x39 examples/dfu/CMakeFiles/dfu_no_serial_nrf52832_xxAA_s132_3.1.0.dir/__/__/mesh/access/src/access_publish.c.obj
 .text          0x00000000        0x0 examples/dfu/CMakeFiles/dfu_no_serial_nrf52832_xxAA_s132_3.1.0.dir/__/__/mesh/access/src/access.c.obj
 .data          0x00000000        0x0 examples/dfu/CMakeFiles/dfu_no_serial_nrf52832_xxAA_s132_3.1.0.dir/__/__/mesh/access/src/access.c.obj
 .bss           0x00000000        0x0 examples/dfu/CMakeFiles/dfu_no_serial_nrf52832_xxAA_s132_3.1.0.dir/__/__/mesh/access/src/access.c.obj
 .text.bitfield_get
                0x00000000       0x1a examples/dfu/CMakeFiles/dfu_no_serial_nrf52832_xxAA_s132_3.1.0.dir/__/__/mesh/access/src/access.c.obj
 .text.is_valid_opcode
                0x00000000       0x42 examples/dfu/CMakeFiles/dfu_no_serial_nrf52832_xxAA_s132_3.1.0.dir/__/__/mesh/access/src/access.c.obj
 .text.model_handle_valid_and_allocated
                0x00000000       0x20 examples/dfu/CMakeFiles/dfu_no_serial_nrf52832_xxAA_s132_3.1.0.dir/__/__/mesh/access/src/access.c.obj
 .text.flash_invalidate_complete
                0x00000000       0x14 examples/dfu/CMakeFiles/dfu_no_serial_nrf52832_xxAA_s132_3.1.0.dir/__/__/mesh/access/src/access.c.obj
 .text.flash_manager_mem_available
                0x00000000        0x2 examples/dfu/CMakeFiles/dfu_no_serial_nrf52832_xxAA_s132_3.1.0.dir/__/__/mesh/access/src/access.c.obj
 .text.restore_acquired_subscription
                0x00000000       0x30 examples/dfu/CMakeFiles/dfu_no_serial_nrf52832_xxAA_s132_3.1.0.dir/__/__/mesh/access/src/access.c.obj
 .text.restore_acquired_element
                0x00000000       0x1c examples/dfu/CMakeFiles/dfu_no_serial_nrf52832_xxAA_s132_3.1.0.dir/__/__/mesh/access/src/access.c.obj
 .text.restore_flash_data
                0x00000000       0x5c examples/dfu/CMakeFiles/dfu_no_serial_nrf52832_xxAA_s132_3.1.0.dir/__/__/mesh/access/src/access.c.obj
 .text.access_flash_config_clear
                0x00000000       0x28 examples/dfu/CMakeFiles/dfu_no_serial_nrf52832_xxAA_s132_3.1.0.dir/__/__/mesh/access/src/access.c.obj
 .text.access_flash_config_store
                0x00000000      0x14c examples/dfu/CMakeFiles/dfu_no_serial_nrf52832_xxAA_s132_3.1.0.dir/__/__/mesh/access/src/access.c.obj
 .text.access_state_clear
                0x00000000       0x4c examples/dfu/CMakeFiles/dfu_no_serial_nrf52832_xxAA_s132_3.1.0.dir/__/__/mesh/access/src/access.c.obj
 .text.add_flash_manager
                0x00000000       0x58 examples/dfu/CMakeFiles/dfu_no_serial_nrf52832_xxAA_s132_3.1.0.dir/__/__/mesh/access/src/access.c.obj
 .text.flash_remove_complete
                0x00000000       0x5c examples/dfu/CMakeFiles/dfu_no_serial_nrf52832_xxAA_s132_3.1.0.dir/__/__/mesh/access/src/access.c.obj
 .text.flash_write_complete
                0x00000000       0x54 examples/dfu/CMakeFiles/dfu_no_serial_nrf52832_xxAA_s132_3.1.0.dir/__/__/mesh/access/src/access.c.obj
 .text.unlikely.bitfield_next_get.part.0.constprop.3
                0x00000000       0x34 examples/dfu/CMakeFiles/dfu_no_serial_nrf52832_xxAA_s132_3.1.0.dir/__/__/mesh/access/src/access.c.obj
 .text.restore_acquired_model
                0x00000000       0x94 examples/dfu/CMakeFiles/dfu_no_serial_nrf52832_xxAA_s132_3.1.0.dir/__/__/mesh/access/src/access.c.obj
 .text.handle_incoming
                0x00000000      0x158 examples/dfu/CMakeFiles/dfu_no_serial_nrf52832_xxAA_s132_3.1.0.dir/__/__/mesh/access/src/access.c.obj
 .text.mesh_evt_cb
                0x00000000      0x134 examples/dfu/CMakeFiles/dfu_no_serial_nrf52832_xxAA_s132_3.1.0.dir/__/__/mesh/access/src/access.c.obj
 .text.packet_tx
                0x00000000      0x2c0 examples/dfu/CMakeFiles/dfu_no_serial_nrf52832_xxAA_s132_3.1.0.dir/__/__/mesh/access/src/access.c.obj
 .text.access_flash_config_load
                0x00000000      0x128 examples/dfu/CMakeFiles/dfu_no_serial_nrf52832_xxAA_s132_3.1.0.dir/__/__/mesh/access/src/access.c.obj
 .text.access_clear
                0x00000000       0x12 examples/dfu/CMakeFiles/dfu_no_serial_nrf52832_xxAA_s132_3.1.0.dir/__/__/mesh/access/src/access.c.obj
 .text.access_init
                0x00000000       0x28 examples/dfu/CMakeFiles/dfu_no_serial_nrf52832_xxAA_s132_3.1.0.dir/__/__/mesh/access/src/access.c.obj
 .text.access_model_add
                0x00000000      0x1b4 examples/dfu/CMakeFiles/dfu_no_serial_nrf52832_xxAA_s132_3.1.0.dir/__/__/mesh/access/src/access.c.obj
 .text.access_model_publish
                0x00000000        0xc examples/dfu/CMakeFiles/dfu_no_serial_nrf52832_xxAA_s132_3.1.0.dir/__/__/mesh/access/src/access.c.obj
 .text.access_model_reply
                0x00000000       0x12 examples/dfu/CMakeFiles/dfu_no_serial_nrf52832_xxAA_s132_3.1.0.dir/__/__/mesh/access/src/access.c.obj
 .text.access_model_publish_address_set
                0x00000000       0x3c examples/dfu/CMakeFiles/dfu_no_serial_nrf52832_xxAA_s132_3.1.0.dir/__/__/mesh/access/src/access.c.obj
 .text.access_model_publish_address_get
                0x00000000       0x28 examples/dfu/CMakeFiles/dfu_no_serial_nrf52832_xxAA_s132_3.1.0.dir/__/__/mesh/access/src/access.c.obj
 .text.access_model_publish_period_set
                0x00000000       0x6c examples/dfu/CMakeFiles/dfu_no_serial_nrf52832_xxAA_s132_3.1.0.dir/__/__/mesh/access/src/access.c.obj
 .text.access_model_publish_period_get
                0x00000000       0x3c examples/dfu/CMakeFiles/dfu_no_serial_nrf52832_xxAA_s132_3.1.0.dir/__/__/mesh/access/src/access.c.obj
 .text.access_model_subscription_list_alloc
                0x00000000       0x50 examples/dfu/CMakeFiles/dfu_no_serial_nrf52832_xxAA_s132_3.1.0.dir/__/__/mesh/access/src/access.c.obj
 .text.access_model_subscription_lists_share
                0x00000000       0x4c examples/dfu/CMakeFiles/dfu_no_serial_nrf52832_xxAA_s132_3.1.0.dir/__/__/mesh/access/src/access.c.obj
 .text.access_model_subscription_add
                0x00000000       0x60 examples/dfu/CMakeFiles/dfu_no_serial_nrf52832_xxAA_s132_3.1.0.dir/__/__/mesh/access/src/access.c.obj
 .text.access_model_subscription_remove
                0x00000000       0x60 examples/dfu/CMakeFiles/dfu_no_serial_nrf52832_xxAA_s132_3.1.0.dir/__/__/mesh/access/src/access.c.obj
 .text.access_model_subscriptions_get
                0x00000000       0x80 examples/dfu/CMakeFiles/dfu_no_serial_nrf52832_xxAA_s132_3.1.0.dir/__/__/mesh/access/src/access.c.obj
 .text.access_model_application_bind
                0x00000000       0x50 examples/dfu/CMakeFiles/dfu_no_serial_nrf52832_xxAA_s132_3.1.0.dir/__/__/mesh/access/src/access.c.obj
 .text.access_model_application_unbind
                0x00000000       0x50 examples/dfu/CMakeFiles/dfu_no_serial_nrf52832_xxAA_s132_3.1.0.dir/__/__/mesh/access/src/access.c.obj
 .text.access_model_applications_get
                0x00000000       0x64 examples/dfu/CMakeFiles/dfu_no_serial_nrf52832_xxAA_s132_3.1.0.dir/__/__/mesh/access/src/access.c.obj
 .text.access_model_publish_application_set
                0x00000000       0x3c examples/dfu/CMakeFiles/dfu_no_serial_nrf52832_xxAA_s132_3.1.0.dir/__/__/mesh/access/src/access.c.obj
 .text.access_model_publish_application_get
                0x00000000       0x28 examples/dfu/CMakeFiles/dfu_no_serial_nrf52832_xxAA_s132_3.1.0.dir/__/__/mesh/access/src/access.c.obj
 .text.access_default_ttl_set
                0x00000000       0x10 examples/dfu/CMakeFiles/dfu_no_serial_nrf52832_xxAA_s132_3.1.0.dir/__/__/mesh/access/src/access.c.obj
 .text.access_default_ttl_get
                0x00000000        0xc examples/dfu/CMakeFiles/dfu_no_serial_nrf52832_xxAA_s132_3.1.0.dir/__/__/mesh/access/src/access.c.obj
 .text.access_model_publish_ttl_set
                0x00000000       0x40 examples/dfu/CMakeFiles/dfu_no_serial_nrf52832_xxAA_s132_3.1.0.dir/__/__/mesh/access/src/access.c.obj
 .text.access_model_publish_ttl_get
                0x00000000       0x28 examples/dfu/CMakeFiles/dfu_no_serial_nrf52832_xxAA_s132_3.1.0.dir/__/__/mesh/access/src/access.c.obj
 .text.access_element_location_set
                0x00000000       0x20 examples/dfu/CMakeFiles/dfu_no_serial_nrf52832_xxAA_s132_3.1.0.dir/__/__/mesh/access/src/access.c.obj
 .text.access_element_location_get
                0x00000000       0x18 examples/dfu/CMakeFiles/dfu_no_serial_nrf52832_xxAA_s132_3.1.0.dir/__/__/mesh/access/src/access.c.obj
 .text.access_element_sig_model_count_get
                0x00000000       0x18 examples/dfu/CMakeFiles/dfu_no_serial_nrf52832_xxAA_s132_3.1.0.dir/__/__/mesh/access/src/access.c.obj
 .text.access_element_vendor_model_count_get
                0x00000000       0x18 examples/dfu/CMakeFiles/dfu_no_serial_nrf52832_xxAA_s132_3.1.0.dir/__/__/mesh/access/src/access.c.obj
 .text.access_model_id_get
                0x00000000       0x2c examples/dfu/CMakeFiles/dfu_no_serial_nrf52832_xxAA_s132_3.1.0.dir/__/__/mesh/access/src/access.c.obj
 .text.access_handle_get
                0x00000000       0x54 examples/dfu/CMakeFiles/dfu_no_serial_nrf52832_xxAA_s132_3.1.0.dir/__/__/mesh/access/src/access.c.obj
 .text.access_element_models_get
                0x00000000       0x48 examples/dfu/CMakeFiles/dfu_no_serial_nrf52832_xxAA_s132_3.1.0.dir/__/__/mesh/access/src/access.c.obj
 .text.access_model_p_args_get
                0x00000000       0x28 examples/dfu/CMakeFiles/dfu_no_serial_nrf52832_xxAA_s132_3.1.0.dir/__/__/mesh/access/src/access.c.obj
 .bss.m_element_pool
                0x00000000        0x6 examples/dfu/CMakeFiles/dfu_no_serial_nrf52832_xxAA_s132_3.1.0.dir/__/__/mesh/access/src/access.c.obj
 .bss.m_evt_handler
                0x00000000        0x8 examples/dfu/CMakeFiles/dfu_no_serial_nrf52832_xxAA_s132_3.1.0.dir/__/__/mesh/access/src/access.c.obj
 .bss.m_flash_manager
                0x00000000       0x24 examples/dfu/CMakeFiles/dfu_no_serial_nrf52832_xxAA_s132_3.1.0.dir/__/__/mesh/access/src/access.c.obj
 .bss.m_flash_not_ready
                0x00000000        0x1 examples/dfu/CMakeFiles/dfu_no_serial_nrf52832_xxAA_s132_3.1.0.dir/__/__/mesh/access/src/access.c.obj
 .bss.m_metadata_stored
                0x00000000        0x1 examples/dfu/CMakeFiles/dfu_no_serial_nrf52832_xxAA_s132_3.1.0.dir/__/__/mesh/access/src/access.c.obj
 .bss.m_model_pool
                0x00000000       0x68 examples/dfu/CMakeFiles/dfu_no_serial_nrf52832_xxAA_s132_3.1.0.dir/__/__/mesh/access/src/access.c.obj
 .bss.m_subscription_list_pool
                0x00000000       0x10 examples/dfu/CMakeFiles/dfu_no_serial_nrf52832_xxAA_s132_3.1.0.dir/__/__/mesh/access/src/access.c.obj
 .data.flash_add_mem_available_struct.10233
                0x00000000       0x10 examples/dfu/CMakeFiles/dfu_no_serial_nrf52832_xxAA_s132_3.1.0.dir/__/__/mesh/access/src/access.c.obj
 .data.flash_clear_mem_available_struct.10322
                0x00000000       0x10 examples/dfu/CMakeFiles/dfu_no_serial_nrf52832_xxAA_s132_3.1.0.dir/__/__/mesh/access/src/access.c.obj
 .data.flash_store_mem_available_struct.10346
                0x00000000       0x10 examples/dfu/CMakeFiles/dfu_no_serial_nrf52832_xxAA_s132_3.1.0.dir/__/__/mesh/access/src/access.c.obj
 .data.m_default_ttl
                0x00000000        0x1 examples/dfu/CMakeFiles/dfu_no_serial_nrf52832_xxAA_s132_3.1.0.dir/__/__/mesh/access/src/access.c.obj
 .rodata.mesh_evt_cb.str1.1
                0x00000000       0x2f examples/dfu/CMakeFiles/dfu_no_serial_nrf52832_xxAA_s132_3.1.0.dir/__/__/mesh/access/src/access.c.obj
 .rodata.multiply_de_bruijn_bit_position.8982
                0x00000000       0x20 examples/dfu/CMakeFiles/dfu_no_serial_nrf52832_xxAA_s132_3.1.0.dir/__/__/mesh/access/src/access.c.obj
 .rodata.packet_tx.str1.1
                0x00000000       0x13 examples/dfu/CMakeFiles/dfu_no_serial_nrf52832_xxAA_s132_3.1.0.dir/__/__/mesh/access/src/access.c.obj
 .comment       0x00000000       0x80 examples/dfu/CMakeFiles/dfu_no_serial_nrf52832_xxAA_s132_3.1.0.dir/__/__/mesh/access/src/access.c.obj
 .ARM.attributes
                0x00000000       0x39 examples/dfu/CMakeFiles/dfu_no_serial_nrf52832_xxAA_s132_3.1.0.dir/__/__/mesh/access/src/access.c.obj
 .text          0x00000000        0x0 examples/dfu/CMakeFiles/dfu_no_serial_nrf52832_xxAA_s132_3.1.0.dir/__/__/mesh/access/src/access_reliable.c.obj
 .data          0x00000000        0x0 examples/dfu/CMakeFiles/dfu_no_serial_nrf52832_xxAA_s132_3.1.0.dir/__/__/mesh/access/src/access_reliable.c.obj
 .bss           0x00000000        0x0 examples/dfu/CMakeFiles/dfu_no_serial_nrf52832_xxAA_s132_3.1.0.dir/__/__/mesh/access/src/access_reliable.c.obj
 .text.remove_and_reschedule
                0x00000000       0xd8 examples/dfu/CMakeFiles/dfu_no_serial_nrf52832_xxAA_s132_3.1.0.dir/__/__/mesh/access/src/access_reliable.c.obj
 .text.reliable_timer_cb
                0x00000000      0x148 examples/dfu/CMakeFiles/dfu_no_serial_nrf52832_xxAA_s132_3.1.0.dir/__/__/mesh/access/src/access_reliable.c.obj
 .text.access_reliable_message_rx_cb
                0x00000000       0x84 examples/dfu/CMakeFiles/dfu_no_serial_nrf52832_xxAA_s132_3.1.0.dir/__/__/mesh/access/src/access_reliable.c.obj
 .text.access_reliable_init
                0x00000000       0x1c examples/dfu/CMakeFiles/dfu_no_serial_nrf52832_xxAA_s132_3.1.0.dir/__/__/mesh/access/src/access_reliable.c.obj
 .text.access_reliable_cancel_all
                0x00000000       0x34 examples/dfu/CMakeFiles/dfu_no_serial_nrf52832_xxAA_s132_3.1.0.dir/__/__/mesh/access/src/access_reliable.c.obj
 .text.access_model_reliable_cancel
                0x00000000       0x4c examples/dfu/CMakeFiles/dfu_no_serial_nrf52832_xxAA_s132_3.1.0.dir/__/__/mesh/access/src/access_reliable.c.obj
 .text.access_model_reliable_publish
                0x00000000      0x1b8 examples/dfu/CMakeFiles/dfu_no_serial_nrf52832_xxAA_s132_3.1.0.dir/__/__/mesh/access/src/access_reliable.c.obj
 .bss.m_reliable
                0x00000000       0x6c examples/dfu/CMakeFiles/dfu_no_serial_nrf52832_xxAA_s132_3.1.0.dir/__/__/mesh/access/src/access_reliable.c.obj
 .comment       0x00000000       0x80 examples/dfu/CMakeFiles/dfu_no_serial_nrf52832_xxAA_s132_3.1.0.dir/__/__/mesh/access/src/access_reliable.c.obj
 .ARM.attributes
                0x00000000       0x39 examples/dfu/CMakeFiles/dfu_no_serial_nrf52832_xxAA_s132_3.1.0.dir/__/__/mesh/access/src/access_reliable.c.obj
 .text          0x00000000        0x0 examples/dfu/CMakeFiles/dfu_no_serial_nrf52832_xxAA_s132_3.1.0.dir/__/__/mesh/access/src/device_state_manager.c.obj
 .data          0x00000000        0x0 examples/dfu/CMakeFiles/dfu_no_serial_nrf52832_xxAA_s132_3.1.0.dir/__/__/mesh/access/src/device_state_manager.c.obj
 .bss           0x00000000        0x0 examples/dfu/CMakeFiles/dfu_no_serial_nrf52832_xxAA_s132_3.1.0.dir/__/__/mesh/access/src/device_state_manager.c.obj
 .text.bitfield_set
                0x00000000       0x18 examples/dfu/CMakeFiles/dfu_no_serial_nrf52832_xxAA_s132_3.1.0.dir/__/__/mesh/access/src/device_state_manager.c.obj
 .text.bitfield_clear
                0x00000000       0x1a examples/dfu/CMakeFiles/dfu_no_serial_nrf52832_xxAA_s132_3.1.0.dir/__/__/mesh/access/src/device_state_manager.c.obj
 .text.bitfield_is_all_clear
                0x00000000       0x3c examples/dfu/CMakeFiles/dfu_no_serial_nrf52832_xxAA_s132_3.1.0.dir/__/__/mesh/access/src/device_state_manager.c.obj
 .text.address_handle_virtual_valid
                0x00000000       0x18 examples/dfu/CMakeFiles/dfu_no_serial_nrf52832_xxAA_s132_3.1.0.dir/__/__/mesh/access/src/device_state_manager.c.obj
 .text.net_key_handle_get
                0x00000000       0x58 examples/dfu/CMakeFiles/dfu_no_serial_nrf52832_xxAA_s132_3.1.0.dir/__/__/mesh/access/src/device_state_manager.c.obj
 .text.dev_key_handle_get
                0x00000000       0x30 examples/dfu/CMakeFiles/dfu_no_serial_nrf52832_xxAA_s132_3.1.0.dir/__/__/mesh/access/src/device_state_manager.c.obj
 .text.app_key_handle_get
                0x00000000       0x58 examples/dfu/CMakeFiles/dfu_no_serial_nrf52832_xxAA_s132_3.1.0.dir/__/__/mesh/access/src/device_state_manager.c.obj
 .text.addr_nonvirtual_to_flash_entry
                0x00000000       0x10 examples/dfu/CMakeFiles/dfu_no_serial_nrf52832_xxAA_s132_3.1.0.dir/__/__/mesh/access/src/device_state_manager.c.obj
 .text.flash_mem_listener_callback
                0x00000000       0x20 examples/dfu/CMakeFiles/dfu_no_serial_nrf52832_xxAA_s132_3.1.0.dir/__/__/mesh/access/src/device_state_manager.c.obj
 .text.devkey_set
                0x00000000       0x50 examples/dfu/CMakeFiles/dfu_no_serial_nrf52832_xxAA_s132_3.1.0.dir/__/__/mesh/access/src/device_state_manager.c.obj
 .text.devkey_to_dsm_entry
                0x00000000       0x18 examples/dfu/CMakeFiles/dfu_no_serial_nrf52832_xxAA_s132_3.1.0.dir/__/__/mesh/access/src/device_state_manager.c.obj
 .text.devkey_to_flash_entry
                0x00000000       0x28 examples/dfu/CMakeFiles/dfu_no_serial_nrf52832_xxAA_s132_3.1.0.dir/__/__/mesh/access/src/device_state_manager.c.obj
 .text.appkey_to_flash_entry
                0x00000000       0x28 examples/dfu/CMakeFiles/dfu_no_serial_nrf52832_xxAA_s132_3.1.0.dir/__/__/mesh/access/src/device_state_manager.c.obj
 .text.subnet_to_flash_entry
                0x00000000       0x20 examples/dfu/CMakeFiles/dfu_no_serial_nrf52832_xxAA_s132_3.1.0.dir/__/__/mesh/access/src/device_state_manager.c.obj
 .text.addr_virtual_to_flash_entry
                0x00000000       0x18 examples/dfu/CMakeFiles/dfu_no_serial_nrf52832_xxAA_s132_3.1.0.dir/__/__/mesh/access/src/device_state_manager.c.obj
 .text.addr_unicast_to_dsm_entry
                0x00000000        0xc examples/dfu/CMakeFiles/dfu_no_serial_nrf52832_xxAA_s132_3.1.0.dir/__/__/mesh/access/src/device_state_manager.c.obj
 .text.addr_unicast_to_flash_entry
                0x00000000       0x10 examples/dfu/CMakeFiles/dfu_no_serial_nrf52832_xxAA_s132_3.1.0.dir/__/__/mesh/access/src/device_state_manager.c.obj
 .text.appkey_set
                0x00000000       0x6c examples/dfu/CMakeFiles/dfu_no_serial_nrf52832_xxAA_s132_3.1.0.dir/__/__/mesh/access/src/device_state_manager.c.obj
 .text.appkey_to_dsm_entry
                0x00000000       0x14 examples/dfu/CMakeFiles/dfu_no_serial_nrf52832_xxAA_s132_3.1.0.dir/__/__/mesh/access/src/device_state_manager.c.obj
 .text.subnet_set
                0x00000000       0x94 examples/dfu/CMakeFiles/dfu_no_serial_nrf52832_xxAA_s132_3.1.0.dir/__/__/mesh/access/src/device_state_manager.c.obj
 .text.subnet_to_dsm_entry
                0x00000000        0xc examples/dfu/CMakeFiles/dfu_no_serial_nrf52832_xxAA_s132_3.1.0.dir/__/__/mesh/access/src/device_state_manager.c.obj
 .text.virtual_address_set
                0x00000000       0x58 examples/dfu/CMakeFiles/dfu_no_serial_nrf52832_xxAA_s132_3.1.0.dir/__/__/mesh/access/src/device_state_manager.c.obj
 .text.addr_virtual_to_dsm_entry
                0x00000000        0xe examples/dfu/CMakeFiles/dfu_no_serial_nrf52832_xxAA_s132_3.1.0.dir/__/__/mesh/access/src/device_state_manager.c.obj
 .text.flash_save
                0x00000000       0x84 examples/dfu/CMakeFiles/dfu_no_serial_nrf52832_xxAA_s132_3.1.0.dir/__/__/mesh/access/src/device_state_manager.c.obj
 .text.flash_invalidate
                0x00000000       0x68 examples/dfu/CMakeFiles/dfu_no_serial_nrf52832_xxAA_s132_3.1.0.dir/__/__/mesh/access/src/device_state_manager.c.obj
 .text.flash_update_all
                0x00000000       0x6c examples/dfu/CMakeFiles/dfu_no_serial_nrf52832_xxAA_s132_3.1.0.dir/__/__/mesh/access/src/device_state_manager.c.obj
 .text.reset_flash_area
                0x00000000       0x28 examples/dfu/CMakeFiles/dfu_no_serial_nrf52832_xxAA_s132_3.1.0.dir/__/__/mesh/access/src/device_state_manager.c.obj
 .text.add_address_virtual
                0x00000000       0x74 examples/dfu/CMakeFiles/dfu_no_serial_nrf52832_xxAA_s132_3.1.0.dir/__/__/mesh/access/src/device_state_manager.c.obj
 .text.flash_operation_complete
                0x00000000       0x58 examples/dfu/CMakeFiles/dfu_no_serial_nrf52832_xxAA_s132_3.1.0.dir/__/__/mesh/access/src/device_state_manager.c.obj
 .text.flash_invalidate_complete
                0x00000000        0x8 examples/dfu/CMakeFiles/dfu_no_serial_nrf52832_xxAA_s132_3.1.0.dir/__/__/mesh/access/src/device_state_manager.c.obj
 .text.flash_write_complete
                0x00000000        0x8 examples/dfu/CMakeFiles/dfu_no_serial_nrf52832_xxAA_s132_3.1.0.dir/__/__/mesh/access/src/device_state_manager.c.obj
 .text.add_address.part.5
                0x00000000      0x164 examples/dfu/CMakeFiles/dfu_no_serial_nrf52832_xxAA_s132_3.1.0.dir/__/__/mesh/access/src/device_state_manager.c.obj
 .text.address_handle_valid
                0x00000000       0x28 examples/dfu/CMakeFiles/dfu_no_serial_nrf52832_xxAA_s132_3.1.0.dir/__/__/mesh/access/src/device_state_manager.c.obj
 .text.address_handle_nonvirtual_valid
                0x00000000       0x14 examples/dfu/CMakeFiles/dfu_no_serial_nrf52832_xxAA_s132_3.1.0.dir/__/__/mesh/access/src/device_state_manager.c.obj
 .text.address_delete_if_unused
                0x00000000       0x78 examples/dfu/CMakeFiles/dfu_no_serial_nrf52832_xxAA_s132_3.1.0.dir/__/__/mesh/access/src/device_state_manager.c.obj
 .text.addr_nonvirtual_to_dsm_entry
                0x00000000       0x38 examples/dfu/CMakeFiles/dfu_no_serial_nrf52832_xxAA_s132_3.1.0.dir/__/__/mesh/access/src/device_state_manager.c.obj
 .text.dsm_flash_config_load
                0x00000000      0x114 examples/dfu/CMakeFiles/dfu_no_serial_nrf52832_xxAA_s132_3.1.0.dir/__/__/mesh/access/src/device_state_manager.c.obj
 .text.dsm_has_unflashed_data
                0x00000000       0x24 examples/dfu/CMakeFiles/dfu_no_serial_nrf52832_xxAA_s132_3.1.0.dir/__/__/mesh/access/src/device_state_manager.c.obj
 .text.dsm_flash_area_get
                0x00000000        0xc examples/dfu/CMakeFiles/dfu_no_serial_nrf52832_xxAA_s132_3.1.0.dir/__/__/mesh/access/src/device_state_manager.c.obj
 .text.build_flash_area
                0x00000000       0x8c examples/dfu/CMakeFiles/dfu_no_serial_nrf52832_xxAA_s132_3.1.0.dir/__/__/mesh/access/src/device_state_manager.c.obj
 .text.dsm_init
                0x00000000       0x24 examples/dfu/CMakeFiles/dfu_no_serial_nrf52832_xxAA_s132_3.1.0.dir/__/__/mesh/access/src/device_state_manager.c.obj
 .text.flash_remove_complete
                0x00000000        0x4 examples/dfu/CMakeFiles/dfu_no_serial_nrf52832_xxAA_s132_3.1.0.dir/__/__/mesh/access/src/device_state_manager.c.obj
 .text.dsm_clear
                0x00000000       0x74 examples/dfu/CMakeFiles/dfu_no_serial_nrf52832_xxAA_s132_3.1.0.dir/__/__/mesh/access/src/device_state_manager.c.obj
 .text.dsm_local_unicast_addresses_set
                0x00000000       0x74 examples/dfu/CMakeFiles/dfu_no_serial_nrf52832_xxAA_s132_3.1.0.dir/__/__/mesh/access/src/device_state_manager.c.obj
 .text.dsm_local_unicast_addresses_get
                0x00000000       0x2c examples/dfu/CMakeFiles/dfu_no_serial_nrf52832_xxAA_s132_3.1.0.dir/__/__/mesh/access/src/device_state_manager.c.obj
 .text.dsm_address_publish_add
                0x00000000        0xc examples/dfu/CMakeFiles/dfu_no_serial_nrf52832_xxAA_s132_3.1.0.dir/__/__/mesh/access/src/device_state_manager.c.obj
 .text.dsm_address_publish_add_handle
                0x00000000       0x38 examples/dfu/CMakeFiles/dfu_no_serial_nrf52832_xxAA_s132_3.1.0.dir/__/__/mesh/access/src/device_state_manager.c.obj
 .text.dsm_address_publish_virtual_add
                0x00000000        0x6 examples/dfu/CMakeFiles/dfu_no_serial_nrf52832_xxAA_s132_3.1.0.dir/__/__/mesh/access/src/device_state_manager.c.obj
 .text.dsm_address_publish_remove
                0x00000000       0x44 examples/dfu/CMakeFiles/dfu_no_serial_nrf52832_xxAA_s132_3.1.0.dir/__/__/mesh/access/src/device_state_manager.c.obj
 .text.dsm_address_subscription_add
                0x00000000        0xc examples/dfu/CMakeFiles/dfu_no_serial_nrf52832_xxAA_s132_3.1.0.dir/__/__/mesh/access/src/device_state_manager.c.obj
 .text.dsm_address_subscription_virtual_add
                0x00000000        0x6 examples/dfu/CMakeFiles/dfu_no_serial_nrf52832_xxAA_s132_3.1.0.dir/__/__/mesh/access/src/device_state_manager.c.obj
 .text.dsm_address_subscription_add_handle
                0x00000000       0x38 examples/dfu/CMakeFiles/dfu_no_serial_nrf52832_xxAA_s132_3.1.0.dir/__/__/mesh/access/src/device_state_manager.c.obj
 .text.dsm_address_subscription_get
                0x00000000       0x34 examples/dfu/CMakeFiles/dfu_no_serial_nrf52832_xxAA_s132_3.1.0.dir/__/__/mesh/access/src/device_state_manager.c.obj
 .text.dsm_address_get
                0x00000000       0x5c examples/dfu/CMakeFiles/dfu_no_serial_nrf52832_xxAA_s132_3.1.0.dir/__/__/mesh/access/src/device_state_manager.c.obj
 .text.dsm_address_subscription_count_get
                0x00000000       0x58 examples/dfu/CMakeFiles/dfu_no_serial_nrf52832_xxAA_s132_3.1.0.dir/__/__/mesh/access/src/device_state_manager.c.obj
 .text.dsm_address_subscription_remove
                0x00000000       0x5c examples/dfu/CMakeFiles/dfu_no_serial_nrf52832_xxAA_s132_3.1.0.dir/__/__/mesh/access/src/device_state_manager.c.obj
 .text.dsm_address_get_all
                0x00000000       0x74 examples/dfu/CMakeFiles/dfu_no_serial_nrf52832_xxAA_s132_3.1.0.dir/__/__/mesh/access/src/device_state_manager.c.obj
 .text.dsm_address_handle_get
                0x00000000       0x98 examples/dfu/CMakeFiles/dfu_no_serial_nrf52832_xxAA_s132_3.1.0.dir/__/__/mesh/access/src/device_state_manager.c.obj
 .text.dsm_net_key_index_to_subnet_handle
                0x00000000       0x1c examples/dfu/CMakeFiles/dfu_no_serial_nrf52832_xxAA_s132_3.1.0.dir/__/__/mesh/access/src/device_state_manager.c.obj
 .text.dsm_subnet_handle_get
                0x00000000        0xc examples/dfu/CMakeFiles/dfu_no_serial_nrf52832_xxAA_s132_3.1.0.dir/__/__/mesh/access/src/device_state_manager.c.obj
 .text.dsm_subnet_handle_to_netkey_index
                0x00000000       0x34 examples/dfu/CMakeFiles/dfu_no_serial_nrf52832_xxAA_s132_3.1.0.dir/__/__/mesh/access/src/device_state_manager.c.obj
 .text.dsm_app_key_index_to_appkey_handle
                0x00000000       0x1c examples/dfu/CMakeFiles/dfu_no_serial_nrf52832_xxAA_s132_3.1.0.dir/__/__/mesh/access/src/device_state_manager.c.obj
 .text.dsm_appkey_handle_get
                0x00000000        0xc examples/dfu/CMakeFiles/dfu_no_serial_nrf52832_xxAA_s132_3.1.0.dir/__/__/mesh/access/src/device_state_manager.c.obj
 .text.dsm_appkey_handle_to_appkey_index
                0x00000000       0x34 examples/dfu/CMakeFiles/dfu_no_serial_nrf52832_xxAA_s132_3.1.0.dir/__/__/mesh/access/src/device_state_manager.c.obj
 .text.dsm_subnet_add
                0x00000000       0x58 examples/dfu/CMakeFiles/dfu_no_serial_nrf52832_xxAA_s132_3.1.0.dir/__/__/mesh/access/src/device_state_manager.c.obj
 .text.dsm_subnet_update
                0x00000000       0x44 examples/dfu/CMakeFiles/dfu_no_serial_nrf52832_xxAA_s132_3.1.0.dir/__/__/mesh/access/src/device_state_manager.c.obj
 .text.dsm_subnet_get_all
                0x00000000       0x60 examples/dfu/CMakeFiles/dfu_no_serial_nrf52832_xxAA_s132_3.1.0.dir/__/__/mesh/access/src/device_state_manager.c.obj
 .text.dsm_devkey_add
                0x00000000       0x7c examples/dfu/CMakeFiles/dfu_no_serial_nrf52832_xxAA_s132_3.1.0.dir/__/__/mesh/access/src/device_state_manager.c.obj
 .text.dsm_devkey_delete
                0x00000000       0x38 examples/dfu/CMakeFiles/dfu_no_serial_nrf52832_xxAA_s132_3.1.0.dir/__/__/mesh/access/src/device_state_manager.c.obj
 .text.dsm_devkey_handle_get
                0x00000000       0x34 examples/dfu/CMakeFiles/dfu_no_serial_nrf52832_xxAA_s132_3.1.0.dir/__/__/mesh/access/src/device_state_manager.c.obj
 .text.dsm_appkey_add
                0x00000000       0x78 examples/dfu/CMakeFiles/dfu_no_serial_nrf52832_xxAA_s132_3.1.0.dir/__/__/mesh/access/src/device_state_manager.c.obj
 .text.dsm_appkey_update
                0x00000000       0x48 examples/dfu/CMakeFiles/dfu_no_serial_nrf52832_xxAA_s132_3.1.0.dir/__/__/mesh/access/src/device_state_manager.c.obj
 .text.dsm_appkey_delete
                0x00000000       0x30 examples/dfu/CMakeFiles/dfu_no_serial_nrf52832_xxAA_s132_3.1.0.dir/__/__/mesh/access/src/device_state_manager.c.obj
 .text.dsm_subnet_delete
                0x00000000       0xa4 examples/dfu/CMakeFiles/dfu_no_serial_nrf52832_xxAA_s132_3.1.0.dir/__/__/mesh/access/src/device_state_manager.c.obj
 .text.dsm_appkey_get_all
                0x00000000       0x88 examples/dfu/CMakeFiles/dfu_no_serial_nrf52832_xxAA_s132_3.1.0.dir/__/__/mesh/access/src/device_state_manager.c.obj
 .text.dsm_tx_secmat_get
                0x00000000       0xec examples/dfu/CMakeFiles/dfu_no_serial_nrf52832_xxAA_s132_3.1.0.dir/__/__/mesh/access/src/device_state_manager.c.obj
 .text.dsm_beacon_secmat_get
                0x00000000       0x38 examples/dfu/CMakeFiles/dfu_no_serial_nrf52832_xxAA_s132_3.1.0.dir/__/__/mesh/access/src/device_state_manager.c.obj
 .text.dsm_proxy_identity_get
                0x00000000        0x4 examples/dfu/CMakeFiles/dfu_no_serial_nrf52832_xxAA_s132_3.1.0.dir/__/__/mesh/access/src/device_state_manager.c.obj
 .bss.m_addr_nonvirtual_needs_flashing
                0x00000000        0x4 examples/dfu/CMakeFiles/dfu_no_serial_nrf52832_xxAA_s132_3.1.0.dir/__/__/mesh/access/src/device_state_manager.c.obj
 .bss.m_addr_unicast_needs_flashing
                0x00000000        0x4 examples/dfu/CMakeFiles/dfu_no_serial_nrf52832_xxAA_s132_3.1.0.dir/__/__/mesh/access/src/device_state_manager.c.obj
 .bss.m_addr_virtual_needs_flashing
                0x00000000        0x4 examples/dfu/CMakeFiles/dfu_no_serial_nrf52832_xxAA_s132_3.1.0.dir/__/__/mesh/access/src/device_state_manager.c.obj
 .bss.m_appkey_needs_flashing
                0x00000000        0x4 examples/dfu/CMakeFiles/dfu_no_serial_nrf52832_xxAA_s132_3.1.0.dir/__/__/mesh/access/src/device_state_manager.c.obj
 .bss.m_devkey_allocated
                0x00000000        0x4 examples/dfu/CMakeFiles/dfu_no_serial_nrf52832_xxAA_s132_3.1.0.dir/__/__/mesh/access/src/device_state_manager.c.obj
 .bss.m_devkey_needs_flashing
                0x00000000        0x4 examples/dfu/CMakeFiles/dfu_no_serial_nrf52832_xxAA_s132_3.1.0.dir/__/__/mesh/access/src/device_state_manager.c.obj
 .bss.m_flash_is_available
                0x00000000        0x1 examples/dfu/CMakeFiles/dfu_no_serial_nrf52832_xxAA_s132_3.1.0.dir/__/__/mesh/access/src/device_state_manager.c.obj
 .bss.m_flash_manager
                0x00000000       0x24 examples/dfu/CMakeFiles/dfu_no_serial_nrf52832_xxAA_s132_3.1.0.dir/__/__/mesh/access/src/device_state_manager.c.obj
 .bss.m_flash_mem_listener_update_all
                0x00000000       0x10 examples/dfu/CMakeFiles/dfu_no_serial_nrf52832_xxAA_s132_3.1.0.dir/__/__/mesh/access/src/device_state_manager.c.obj
 .bss.m_subnet_needs_flashing
                0x00000000        0x4 examples/dfu/CMakeFiles/dfu_no_serial_nrf52832_xxAA_s132_3.1.0.dir/__/__/mesh/access/src/device_state_manager.c.obj
 .data.mem_listener.10485
                0x00000000       0x10 examples/dfu/CMakeFiles/dfu_no_serial_nrf52832_xxAA_s132_3.1.0.dir/__/__/mesh/access/src/device_state_manager.c.obj
 .data.mem_listener.10511
                0x00000000       0x10 examples/dfu/CMakeFiles/dfu_no_serial_nrf52832_xxAA_s132_3.1.0.dir/__/__/mesh/access/src/device_state_manager.c.obj
 .rodata.m_flash_groups
                0x00000000       0xc0 examples/dfu/CMakeFiles/dfu_no_serial_nrf52832_xxAA_s132_3.1.0.dir/__/__/mesh/access/src/device_state_manager.c.obj
 .text          0x00000000        0x0 examples/dfu/CMakeFiles/dfu_no_serial_nrf52832_xxAA_s132_3.1.0.dir/__/__/mesh/prov/src/prov_provisioner.c.obj
 .data          0x00000000        0x0 examples/dfu/CMakeFiles/dfu_no_serial_nrf52832_xxAA_s132_3.1.0.dir/__/__/mesh/prov/src/prov_provisioner.c.obj
 .bss           0x00000000        0x0 examples/dfu/CMakeFiles/dfu_no_serial_nrf52832_xxAA_s132_3.1.0.dir/__/__/mesh/prov/src/prov_provisioner.c.obj
 .text.send_confirmation
                0x00000000       0x26 examples/dfu/CMakeFiles/dfu_no_serial_nrf52832_xxAA_s132_3.1.0.dir/__/__/mesh/prov/src/prov_provisioner.c.obj
 .text.prov_provisioner_cb_link_closed
                0x00000000       0x28 examples/dfu/CMakeFiles/dfu_no_serial_nrf52832_xxAA_s132_3.1.0.dir/__/__/mesh/prov/src/prov_provisioner.c.obj
 .text.prov_provisioner_cb_link_established
                0x00000000       0x3e examples/dfu/CMakeFiles/dfu_no_serial_nrf52832_xxAA_s132_3.1.0.dir/__/__/mesh/prov/src/prov_provisioner.c.obj
 .text.prov_provisioner_cb_ack_received
                0x00000000       0x48 examples/dfu/CMakeFiles/dfu_no_serial_nrf52832_xxAA_s132_3.1.0.dir/__/__/mesh/prov/src/prov_provisioner.c.obj
 .text.request_authentication
                0x00000000       0x8c examples/dfu/CMakeFiles/dfu_no_serial_nrf52832_xxAA_s132_3.1.0.dir/__/__/mesh/prov/src/prov_provisioner.c.obj
 .text.prov_provisioner_pkt_in
                0x00000000      0x28c examples/dfu/CMakeFiles/dfu_no_serial_nrf52832_xxAA_s132_3.1.0.dir/__/__/mesh/prov/src/prov_provisioner.c.obj
 .text.prov_provisioner_provision
                0x00000000       0x48 examples/dfu/CMakeFiles/dfu_no_serial_nrf52832_xxAA_s132_3.1.0.dir/__/__/mesh/prov/src/prov_provisioner.c.obj
 .text.prov_provisioner_oob_use
                0x00000000       0x7a examples/dfu/CMakeFiles/dfu_no_serial_nrf52832_xxAA_s132_3.1.0.dir/__/__/mesh/prov/src/prov_provisioner.c.obj
 .text.prov_provisioner_auth_data
                0x00000000       0x44 examples/dfu/CMakeFiles/dfu_no_serial_nrf52832_xxAA_s132_3.1.0.dir/__/__/mesh/prov/src/prov_provisioner.c.obj
 .text.prov_provisioner_shared_secret
                0x00000000       0x2a examples/dfu/CMakeFiles/dfu_no_serial_nrf52832_xxAA_s132_3.1.0.dir/__/__/mesh/prov/src/prov_provisioner.c.obj
 .text.prov_provisioner_oob_pubkey
                0x00000000       0x34 examples/dfu/CMakeFiles/dfu_no_serial_nrf52832_xxAA_s132_3.1.0.dir/__/__/mesh/prov/src/prov_provisioner.c.obj
 .rodata.m_prov_callbacks
                0x00000000       0x10 examples/dfu/CMakeFiles/dfu_no_serial_nrf52832_xxAA_s132_3.1.0.dir/__/__/mesh/prov/src/prov_provisioner.c.obj
 .comment       0x00000000       0x80 examples/dfu/CMakeFiles/dfu_no_serial_nrf52832_xxAA_s132_3.1.0.dir/__/__/mesh/prov/src/prov_provisioner.c.obj
 .ARM.attributes
                0x00000000       0x39 examples/dfu/CMakeFiles/dfu_no_serial_nrf52832_xxAA_s132_3.1.0.dir/__/__/mesh/prov/src/prov_provisioner.c.obj
 .text          0x00000000        0x0 examples/dfu/CMakeFiles/dfu_no_serial_nrf52832_xxAA_s132_3.1.0.dir/__/__/mesh/prov/src/prov_provisionee.c.obj
 .data          0x00000000        0x0 examples/dfu/CMakeFiles/dfu_no_serial_nrf52832_xxAA_s132_3.1.0.dir/__/__/mesh/prov/src/prov_provisionee.c.obj
 .bss           0x00000000        0x0 examples/dfu/CMakeFiles/dfu_no_serial_nrf52832_xxAA_s132_3.1.0.dir/__/__/mesh/prov/src/prov_provisionee.c.obj
 .text.complete_provisioning
                0x00000000       0x52 examples/dfu/CMakeFiles/dfu_no_serial_nrf52832_xxAA_s132_3.1.0.dir/__/__/mesh/prov/src/prov_provisionee.c.obj
 .text.prov_provisionee_cb_link_closed
                0x00000000       0x32 examples/dfu/CMakeFiles/dfu_no_serial_nrf52832_xxAA_s132_3.1.0.dir/__/__/mesh/prov/src/prov_provisionee.c.obj
 .text.prov_provisionee_cb_link_established
                0x00000000       0x20 examples/dfu/CMakeFiles/dfu_no_serial_nrf52832_xxAA_s132_3.1.0.dir/__/__/mesh/prov/src/prov_provisionee.c.obj
 .text.send_failed
                0x00000000       0x36 examples/dfu/CMakeFiles/dfu_no_serial_nrf52832_xxAA_s132_3.1.0.dir/__/__/mesh/prov/src/prov_provisionee.c.obj
 .text.request_authentication
                0x00000000       0x8c examples/dfu/CMakeFiles/dfu_no_serial_nrf52832_xxAA_s132_3.1.0.dir/__/__/mesh/prov/src/prov_provisionee.c.obj
 .text.start_authentication
                0x00000000       0x54 examples/dfu/CMakeFiles/dfu_no_serial_nrf52832_xxAA_s132_3.1.0.dir/__/__/mesh/prov/src/prov_provisionee.c.obj
 .text.prov_provisionee_pkt_in
                0x00000000      0x2a4 examples/dfu/CMakeFiles/dfu_no_serial_nrf52832_xxAA_s132_3.1.0.dir/__/__/mesh/prov/src/prov_provisionee.c.obj
 .text.prov_provisionee_cb_ack_received
                0x00000000       0xb4 examples/dfu/CMakeFiles/dfu_no_serial_nrf52832_xxAA_s132_3.1.0.dir/__/__/mesh/prov/src/prov_provisionee.c.obj
 .text.prov_provisionee_init
                0x00000000       0x40 examples/dfu/CMakeFiles/dfu_no_serial_nrf52832_xxAA_s132_3.1.0.dir/__/__/mesh/prov/src/prov_provisionee.c.obj
 .text.prov_provisionee_auth_data
                0x00000000       0x7a examples/dfu/CMakeFiles/dfu_no_serial_nrf52832_xxAA_s132_3.1.0.dir/__/__/mesh/prov/src/prov_provisionee.c.obj
 .text.prov_provisionee_shared_secret
                0x00000000       0x2a examples/dfu/CMakeFiles/dfu_no_serial_nrf52832_xxAA_s132_3.1.0.dir/__/__/mesh/prov/src/prov_provisionee.c.obj
 .rodata.m_prov_callbacks
                0x00000000       0x10 examples/dfu/CMakeFiles/dfu_no_serial_nrf52832_xxAA_s132_3.1.0.dir/__/__/mesh/prov/src/prov_provisionee.c.obj
 .rodata.prov_provisionee_cb_ack_received.str1.1
                0x00000000       0x53 examples/dfu/CMakeFiles/dfu_no_serial_nrf52832_xxAA_s132_3.1.0.dir/__/__/mesh/prov/src/prov_provisionee.c.obj
 .comment       0x00000000       0x80 examples/dfu/CMakeFiles/dfu_no_serial_nrf52832_xxAA_s132_3.1.0.dir/__/__/mesh/prov/src/prov_provisionee.c.obj
 .ARM.attributes
                0x00000000       0x39 examples/dfu/CMakeFiles/dfu_no_serial_nrf52832_xxAA_s132_3.1.0.dir/__/__/mesh/prov/src/prov_provisionee.c.obj
 .text          0x00000000        0x0 examples/dfu/CMakeFiles/dfu_no_serial_nrf52832_xxAA_s132_3.1.0.dir/__/__/mesh/prov/src/nrf_mesh_prov.c.obj
 .data          0x00000000        0x0 examples/dfu/CMakeFiles/dfu_no_serial_nrf52832_xxAA_s132_3.1.0.dir/__/__/mesh/prov/src/nrf_mesh_prov.c.obj
 .bss           0x00000000        0x0 examples/dfu/CMakeFiles/dfu_no_serial_nrf52832_xxAA_s132_3.1.0.dir/__/__/mesh/prov/src/nrf_mesh_prov.c.obj
 .text.nrf_mesh_prov_init
                0x00000000       0x24 examples/dfu/CMakeFiles/dfu_no_serial_nrf52832_xxAA_s132_3.1.0.dir/__/__/mesh/prov/src/nrf_mesh_prov.c.obj
 .text.nrf_mesh_prov_generate_keys
                0x00000000        0x4 examples/dfu/CMakeFiles/dfu_no_serial_nrf52832_xxAA_s132_3.1.0.dir/__/__/mesh/prov/src/nrf_mesh_prov.c.obj
 .text.nrf_mesh_prov_listen
                0x00000000       0x24 examples/dfu/CMakeFiles/dfu_no_serial_nrf52832_xxAA_s132_3.1.0.dir/__/__/mesh/prov/src/nrf_mesh_prov.c.obj
 .text.nrf_mesh_prov_provision
                0x00000000       0x4e examples/dfu/CMakeFiles/dfu_no_serial_nrf52832_xxAA_s132_3.1.0.dir/__/__/mesh/prov/src/nrf_mesh_prov.c.obj
 .text.nrf_mesh_prov_oob_use
                0x00000000        0xe examples/dfu/CMakeFiles/dfu_no_serial_nrf52832_xxAA_s132_3.1.0.dir/__/__/mesh/prov/src/nrf_mesh_prov.c.obj
 .text.nrf_mesh_prov_auth_data_provide
                0x00000000        0xe examples/dfu/CMakeFiles/dfu_no_serial_nrf52832_xxAA_s132_3.1.0.dir/__/__/mesh/prov/src/nrf_mesh_prov.c.obj
 .text.nrf_mesh_prov_shared_secret_provide
                0x00000000        0xe examples/dfu/CMakeFiles/dfu_no_serial_nrf52832_xxAA_s132_3.1.0.dir/__/__/mesh/prov/src/nrf_mesh_prov.c.obj
 .text.nrf_mesh_prov_pubkey_provide
                0x00000000       0x10 examples/dfu/CMakeFiles/dfu_no_serial_nrf52832_xxAA_s132_3.1.0.dir/__/__/mesh/prov/src/nrf_mesh_prov.c.obj
 .comment       0x00000000       0x80 examples/dfu/CMakeFiles/dfu_no_serial_nrf52832_xxAA_s132_3.1.0.dir/__/__/mesh/prov/src/nrf_mesh_prov.c.obj
 .ARM.attributes
                0x00000000       0x39 examples/dfu/CMakeFiles/dfu_no_serial_nrf52832_xxAA_s132_3.1.0.dir/__/__/mesh/prov/src/nrf_mesh_prov.c.obj
 .text          0x00000000        0x0 examples/dfu/CMakeFiles/dfu_no_serial_nrf52832_xxAA_s132_3.1.0.dir/__/__/mesh/prov/src/provisioning.c.obj
 .data          0x00000000        0x0 examples/dfu/CMakeFiles/dfu_no_serial_nrf52832_xxAA_s132_3.1.0.dir/__/__/mesh/prov/src/provisioning.c.obj
 .bss           0x00000000        0x0 examples/dfu/CMakeFiles/dfu_no_serial_nrf52832_xxAA_s132_3.1.0.dir/__/__/mesh/prov/src/provisioning.c.obj
 .text.send_data
                0x00000000       0x40 examples/dfu/CMakeFiles/dfu_no_serial_nrf52832_xxAA_s132_3.1.0.dir/__/__/mesh/prov/src/provisioning.c.obj
 .text.prov_packet_length_valid
                0x00000000       0x1c examples/dfu/CMakeFiles/dfu_no_serial_nrf52832_xxAA_s132_3.1.0.dir/__/__/mesh/prov/src/provisioning.c.obj
 .text.prov_init
                0x00000000       0x2c examples/dfu/CMakeFiles/dfu_no_serial_nrf52832_xxAA_s132_3.1.0.dir/__/__/mesh/prov/src/provisioning.c.obj
 .text.prov_listen_start
                0x00000000       0x14 examples/dfu/CMakeFiles/dfu_no_serial_nrf52832_xxAA_s132_3.1.0.dir/__/__/mesh/prov/src/provisioning.c.obj
 .text.prov_listen_stop
                0x00000000        0x8 examples/dfu/CMakeFiles/dfu_no_serial_nrf52832_xxAA_s132_3.1.0.dir/__/__/mesh/prov/src/provisioning.c.obj
 .text.prov_link_open
                0x00000000       0x14 examples/dfu/CMakeFiles/dfu_no_serial_nrf52832_xxAA_s132_3.1.0.dir/__/__/mesh/prov/src/provisioning.c.obj
 .text.prov_link_close
                0x00000000        0x8 examples/dfu/CMakeFiles/dfu_no_serial_nrf52832_xxAA_s132_3.1.0.dir/__/__/mesh/prov/src/provisioning.c.obj
 .text.prov_tx_invite
                0x00000000       0x28 examples/dfu/CMakeFiles/dfu_no_serial_nrf52832_xxAA_s132_3.1.0.dir/__/__/mesh/prov/src/provisioning.c.obj
 .text.prov_tx_capabilities
                0x00000000       0x1e examples/dfu/CMakeFiles/dfu_no_serial_nrf52832_xxAA_s132_3.1.0.dir/__/__/mesh/prov/src/provisioning.c.obj
 .text.prov_tx_start
                0x00000000       0x20 examples/dfu/CMakeFiles/dfu_no_serial_nrf52832_xxAA_s132_3.1.0.dir/__/__/mesh/prov/src/provisioning.c.obj
 .text.prov_tx_public_key
                0x00000000       0x26 examples/dfu/CMakeFiles/dfu_no_serial_nrf52832_xxAA_s132_3.1.0.dir/__/__/mesh/prov/src/provisioning.c.obj
 .text.prov_tx_input_complete
                0x00000000       0x16 examples/dfu/CMakeFiles/dfu_no_serial_nrf52832_xxAA_s132_3.1.0.dir/__/__/mesh/prov/src/provisioning.c.obj
 .text.prov_tx_confirmation
                0x00000000       0x26 examples/dfu/CMakeFiles/dfu_no_serial_nrf52832_xxAA_s132_3.1.0.dir/__/__/mesh/prov/src/provisioning.c.obj
 .text.prov_tx_random
                0x00000000       0x26 examples/dfu/CMakeFiles/dfu_no_serial_nrf52832_xxAA_s132_3.1.0.dir/__/__/mesh/prov/src/provisioning.c.obj
 .text.prov_tx_complete
                0x00000000       0x16 examples/dfu/CMakeFiles/dfu_no_serial_nrf52832_xxAA_s132_3.1.0.dir/__/__/mesh/prov/src/provisioning.c.obj
 .text.prov_tx_failed
                0x00000000       0x1a examples/dfu/CMakeFiles/dfu_no_serial_nrf52832_xxAA_s132_3.1.0.dir/__/__/mesh/prov/src/provisioning.c.obj
 .text.prov_tx_data
                0x00000000        0x6 examples/dfu/CMakeFiles/dfu_no_serial_nrf52832_xxAA_s132_3.1.0.dir/__/__/mesh/prov/src/provisioning.c.obj
 .text.prov_tx  0x00000000        0x4 examples/dfu/CMakeFiles/dfu_no_serial_nrf52832_xxAA_s132_3.1.0.dir/__/__/mesh/prov/src/provisioning.c.obj
 .rodata.pdu_sizes.10677
                0x00000000        0xa examples/dfu/CMakeFiles/dfu_no_serial_nrf52832_xxAA_s132_3.1.0.dir/__/__/mesh/prov/src/provisioning.c.obj
 .text          0x00000000        0x0 examples/dfu/CMakeFiles/dfu_no_serial_nrf52832_xxAA_s132_3.1.0.dir/__/__/mesh/prov/src/prov_beacon.c.obj
 .data          0x00000000        0x0 examples/dfu/CMakeFiles/dfu_no_serial_nrf52832_xxAA_s132_3.1.0.dir/__/__/mesh/prov/src/prov_beacon.c.obj
 .bss           0x00000000        0x0 examples/dfu/CMakeFiles/dfu_no_serial_nrf52832_xxAA_s132_3.1.0.dir/__/__/mesh/prov/src/prov_beacon.c.obj
 .text.prov_beacon_unprov_build
                0x00000000       0x54 examples/dfu/CMakeFiles/dfu_no_serial_nrf52832_xxAA_s132_3.1.0.dir/__/__/mesh/prov/src/prov_beacon.c.obj
 .text.prov_beacon_unprov_report
                0x00000000        0xc examples/dfu/CMakeFiles/dfu_no_serial_nrf52832_xxAA_s132_3.1.0.dir/__/__/mesh/prov/src/prov_beacon.c.obj
 .text          0x00000000        0x0 examples/dfu/CMakeFiles/dfu_no_serial_nrf52832_xxAA_s132_3.1.0.dir/__/__/mesh/prov/src/prov_utils.c.obj
 .data          0x00000000        0x0 examples/dfu/CMakeFiles/dfu_no_serial_nrf52832_xxAA_s132_3.1.0.dir/__/__/mesh/prov/src/prov_utils.c.obj
 .bss           0x00000000        0x0 examples/dfu/CMakeFiles/dfu_no_serial_nrf52832_xxAA_s132_3.1.0.dir/__/__/mesh/prov/src/prov_utils.c.obj
 .text.oob_gen_alphanumeric
                0x00000000       0x34 examples/dfu/CMakeFiles/dfu_no_serial_nrf52832_xxAA_s132_3.1.0.dir/__/__/mesh/prov/src/prov_utils.c.obj
 .text.oob_gen_numeric
                0x00000000       0x3c examples/dfu/CMakeFiles/dfu_no_serial_nrf52832_xxAA_s132_3.1.0.dir/__/__/mesh/prov/src/prov_utils.c.obj
 .text.prov_utils_opt_set
                0x00000000       0x20 examples/dfu/CMakeFiles/dfu_no_serial_nrf52832_xxAA_s132_3.1.0.dir/__/__/mesh/prov/src/prov_utils.c.obj
 .text.prov_utils_opt_get
                0x00000000       0x1c examples/dfu/CMakeFiles/dfu_no_serial_nrf52832_xxAA_s132_3.1.0.dir/__/__/mesh/prov/src/prov_utils.c.obj
 .text.prov_utils_use_ecdh_offloading
                0x00000000        0xc examples/dfu/CMakeFiles/dfu_no_serial_nrf52832_xxAA_s132_3.1.0.dir/__/__/mesh/prov/src/prov_utils.c.obj
 .text.prov_utils_authentication_values_derive
                0x00000000       0xa4 examples/dfu/CMakeFiles/dfu_no_serial_nrf52832_xxAA_s132_3.1.0.dir/__/__/mesh/prov/src/prov_utils.c.obj
 .text.prov_utils_keys_generate
                0x00000000       0x1e examples/dfu/CMakeFiles/dfu_no_serial_nrf52832_xxAA_s132_3.1.0.dir/__/__/mesh/prov/src/prov_utils.c.obj
 .text.prov_utils_derive_keys
                0x00000000       0xb0 examples/dfu/CMakeFiles/dfu_no_serial_nrf52832_xxAA_s132_3.1.0.dir/__/__/mesh/prov/src/prov_utils.c.obj
 .text.prov_utils_calculate_shared_secret
                0x00000000       0x38 examples/dfu/CMakeFiles/dfu_no_serial_nrf52832_xxAA_s132_3.1.0.dir/__/__/mesh/prov/src/prov_utils.c.obj
 .text.prov_utils_generate_oob_data
                0x00000000       0x9c examples/dfu/CMakeFiles/dfu_no_serial_nrf52832_xxAA_s132_3.1.0.dir/__/__/mesh/prov/src/prov_utils.c.obj
 .text.prov_utils_confirmation_check
                0x00000000       0x5c examples/dfu/CMakeFiles/dfu_no_serial_nrf52832_xxAA_s132_3.1.0.dir/__/__/mesh/prov/src/prov_utils.c.obj
 .bss.m_offload_ecdh
                0x00000000        0x1 examples/dfu/CMakeFiles/dfu_no_serial_nrf52832_xxAA_s132_3.1.0.dir/__/__/mesh/prov/src/prov_utils.c.obj
 .rodata.alphanumeric.10781
                0x00000000       0x25 examples/dfu/CMakeFiles/dfu_no_serial_nrf52832_xxAA_s132_3.1.0.dir/__/__/mesh/prov/src/prov_utils.c.obj
 .rodata.numeric_max.10775
                0x00000000       0x24 examples/dfu/CMakeFiles/dfu_no_serial_nrf52832_xxAA_s132_3.1.0.dir/__/__/mesh/prov/src/prov_utils.c.obj
 .rodata.prov_utils_authentication_values_derive.str1.1
                0x00000000        0x5 examples/dfu/CMakeFiles/dfu_no_serial_nrf52832_xxAA_s132_3.1.0.dir/__/__/mesh/prov/src/prov_utils.c.obj
 .rodata.prov_utils_derive_keys.str1.1
                0x00000000        0xf examples/dfu/CMakeFiles/dfu_no_serial_nrf52832_xxAA_s132_3.1.0.dir/__/__/mesh/prov/src/prov_utils.c.obj
 .comment       0x00000000       0x80 examples/dfu/CMakeFiles/dfu_no_serial_nrf52832_xxAA_s132_3.1.0.dir/__/__/mesh/prov/src/prov_utils.c.obj
 .ARM.attributes
                0x00000000       0x39 examples/dfu/CMakeFiles/dfu_no_serial_nrf52832_xxAA_s132_3.1.0.dir/__/__/mesh/prov/src/prov_utils.c.obj
 .text          0x00000000        0x0 examples/dfu/CMakeFiles/dfu_no_serial_nrf52832_xxAA_s132_3.1.0.dir/__/__/mesh/prov/src/prov_bearer_adv.c.obj
 .data          0x00000000        0x0 examples/dfu/CMakeFiles/dfu_no_serial_nrf52832_xxAA_s132_3.1.0.dir/__/__/mesh/prov/src/prov_bearer_adv.c.obj
 .bss           0x00000000        0x0 examples/dfu/CMakeFiles/dfu_no_serial_nrf52832_xxAA_s132_3.1.0.dir/__/__/mesh/prov/src/prov_bearer_adv.c.obj
 .text.prov_bearer_adv_listen_stop
                0x00000000       0x38 examples/dfu/CMakeFiles/dfu_no_serial_nrf52832_xxAA_s132_3.1.0.dir/__/__/mesh/prov/src/prov_bearer_adv.c.obj
 .text.prov_buffer_tx
                0x00000000      0x158 examples/dfu/CMakeFiles/dfu_no_serial_nrf52832_xxAA_s132_3.1.0.dir/__/__/mesh/prov/src/prov_bearer_adv.c.obj
 .text.link_timeout_cb
                0x00000000        0x8 examples/dfu/CMakeFiles/dfu_no_serial_nrf52832_xxAA_s132_3.1.0.dir/__/__/mesh/prov/src/prov_bearer_adv.c.obj
 .text.tx_complete_cb
                0x00000000       0x1c examples/dfu/CMakeFiles/dfu_no_serial_nrf52832_xxAA_s132_3.1.0.dir/__/__/mesh/prov/src/prov_bearer_adv.c.obj
 .text.tx_retry_cb
                0x00000000       0xcc examples/dfu/CMakeFiles/dfu_no_serial_nrf52832_xxAA_s132_3.1.0.dir/__/__/mesh/prov/src/prov_bearer_adv.c.obj
 .text.add_active_bearer
                0x00000000       0x80 examples/dfu/CMakeFiles/dfu_no_serial_nrf52832_xxAA_s132_3.1.0.dir/__/__/mesh/prov/src/prov_bearer_adv.c.obj
 .text.prov_bearer_adv_link_open
                0x00000000       0xf0 examples/dfu/CMakeFiles/dfu_no_serial_nrf52832_xxAA_s132_3.1.0.dir/__/__/mesh/prov/src/prov_bearer_adv.c.obj
 .text.async_process
                0x00000000       0x50 examples/dfu/CMakeFiles/dfu_no_serial_nrf52832_xxAA_s132_3.1.0.dir/__/__/mesh/prov/src/prov_bearer_adv.c.obj
 .text.prov_bearer_adv_listen
                0x00000000       0xe8 examples/dfu/CMakeFiles/dfu_no_serial_nrf52832_xxAA_s132_3.1.0.dir/__/__/mesh/prov/src/prov_bearer_adv.c.obj
 .text.prov_bearer_adv_tx
                0x00000000       0xac examples/dfu/CMakeFiles/dfu_no_serial_nrf52832_xxAA_s132_3.1.0.dir/__/__/mesh/prov/src/prov_bearer_adv.c.obj
 .text.prov_bearer_adv_interface_get
                0x00000000       0x24 examples/dfu/CMakeFiles/dfu_no_serial_nrf52832_xxAA_s132_3.1.0.dir/__/__/mesh/prov/src/prov_bearer_adv.c.obj
 .data.m_async_process_flag
                0x00000000        0x4 examples/dfu/CMakeFiles/dfu_no_serial_nrf52832_xxAA_s132_3.1.0.dir/__/__/mesh/prov/src/prov_bearer_adv.c.obj
 .rodata.add_active_bearer.str1.1
                0x00000000       0x2c examples/dfu/CMakeFiles/dfu_no_serial_nrf52832_xxAA_s132_3.1.0.dir/__/__/mesh/prov/src/prov_bearer_adv.c.obj
 .rodata.interface.10768
                0x00000000       0x14 examples/dfu/CMakeFiles/dfu_no_serial_nrf52832_xxAA_s132_3.1.0.dir/__/__/mesh/prov/src/prov_bearer_adv.c.obj
 .text          0x00000000        0x0 examples/dfu/CMakeFiles/dfu_no_serial_nrf52832_xxAA_s132_3.1.0.dir/__/__/mesh/dfu/src/nrf_mesh_dfu.c.obj
 .data          0x00000000        0x0 examples/dfu/CMakeFiles/dfu_no_serial_nrf52832_xxAA_s132_3.1.0.dir/__/__/mesh/dfu/src/nrf_mesh_dfu.c.obj
 .bss           0x00000000        0x0 examples/dfu/CMakeFiles/dfu_no_serial_nrf52832_xxAA_s132_3.1.0.dir/__/__/mesh/dfu/src/nrf_mesh_dfu.c.obj
 .text.nrf_mesh_dfu_jump_to_bootloader
                0x00000000       0x40 examples/dfu/CMakeFiles/dfu_no_serial_nrf52832_xxAA_s132_3.1.0.dir/__/__/mesh/dfu/src/nrf_mesh_dfu.c.obj
 .text.nrf_mesh_dfu_state_get
                0x00000000       0x48 examples/dfu/CMakeFiles/dfu_no_serial_nrf52832_xxAA_s132_3.1.0.dir/__/__/mesh/dfu/src/nrf_mesh_dfu.c.obj
 .text.nrf_mesh_dfu_abort
                0x00000000       0x2c examples/dfu/CMakeFiles/dfu_no_serial_nrf52832_xxAA_s132_3.1.0.dir/__/__/mesh/dfu/src/nrf_mesh_dfu.c.obj
 .text.nrf_mesh_dfu_bank_info_get
                0x00000000       0x30 examples/dfu/CMakeFiles/dfu_no_serial_nrf52832_xxAA_s132_3.1.0.dir/__/__/mesh/dfu/src/nrf_mesh_dfu.c.obj
 .text          0x00000000        0x0 examples/dfu/CMakeFiles/dfu_no_serial_nrf52832_xxAA_s132_3.1.0.dir/__/nrf_mesh_weak.c.obj
 .data          0x00000000        0x0 examples/dfu/CMakeFiles/dfu_no_serial_nrf52832_xxAA_s132_3.1.0.dir/__/nrf_mesh_weak.c.obj
 .bss           0x00000000        0x0 examples/dfu/CMakeFiles/dfu_no_serial_nrf52832_xxAA_s132_3.1.0.dir/__/nrf_mesh_weak.c.obj
 .text._weak_handler
                0x00000000        0x4 examples/dfu/CMakeFiles/dfu_no_serial_nrf52832_xxAA_s132_3.1.0.dir/__/nrf_mesh_weak.c.obj
 .text._weak_handler_ptr
                0x00000000        0x4 examples/dfu/CMakeFiles/dfu_no_serial_nrf52832_xxAA_s132_3.1.0.dir/__/nrf_mesh_weak.c.obj
 .comment       0x00000000       0x80 examples/dfu/CMakeFiles/dfu_no_serial_nrf52832_xxAA_s132_3.1.0.dir/__/nrf_mesh_weak.c.obj
 .ARM.attributes
                0x00000000       0x39 examples/dfu/CMakeFiles/dfu_no_serial_nrf52832_xxAA_s132_3.1.0.dir/__/nrf_mesh_weak.c.obj
 .text          0x00000000        0x0 examples/dfu/CMakeFiles/dfu_no_serial_nrf52832_xxAA_s132_3.1.0.dir/__/__/external/nRF5_SDK_14.0.0_3bcc1f7/components/toolchain/system_nrf52.c.obj
 .data          0x00000000        0x0 examples/dfu/CMakeFiles/dfu_no_serial_nrf52832_xxAA_s132_3.1.0.dir/__/__/external/nRF5_SDK_14.0.0_3bcc1f7/components/toolchain/system_nrf52.c.obj
 .bss           0x00000000        0x0 examples/dfu/CMakeFiles/dfu_no_serial_nrf52832_xxAA_s132_3.1.0.dir/__/__/external/nRF5_SDK_14.0.0_3bcc1f7/components/toolchain/system_nrf52.c.obj
 .text.SystemCoreClockUpdate
                0x00000000       0x10 examples/dfu/CMakeFiles/dfu_no_serial_nrf52832_xxAA_s132_3.1.0.dir/__/__/external/nRF5_SDK_14.0.0_3bcc1f7/components/toolchain/system_nrf52.c.obj
 .data          0x00000000        0x0 examples/dfu/CMakeFiles/dfu_no_serial_nrf52832_xxAA_s132_3.1.0.dir/__/__/external/nRF5_SDK_14.0.0_3bcc1f7/components/toolchain/gcc/gcc_startup_nrf52.S.obj
 .bss           0x00000000        0x0 examples/dfu/CMakeFiles/dfu_no_serial_nrf52832_xxAA_s132_3.1.0.dir/__/__/external/nRF5_SDK_14.0.0_3bcc1f7/components/toolchain/gcc/gcc_startup_nrf52.S.obj
 .text          0x00000000        0x0 mesh/core/libmesh_core_nrf52832_xxAA.a(nrf_mesh_configure.c.obj)
 .data          0x00000000        0x0 mesh/core/libmesh_core_nrf52832_xxAA.a(nrf_mesh_configure.c.obj)
 .bss           0x00000000        0x0 mesh/core/libmesh_core_nrf52832_xxAA.a(nrf_mesh_configure.c.obj)
 .text.nrf_mesh_configure_device_uuid_set
                0x00000000       0x10 mesh/core/libmesh_core_nrf52832_xxAA.a(nrf_mesh_configure.c.obj)
 .text          0x00000000        0x0 mesh/core/libmesh_core_nrf52832_xxAA.a(event.c.obj)
 .data          0x00000000        0x0 mesh/core/libmesh_core_nrf52832_xxAA.a(event.c.obj)
 .bss           0x00000000        0x0 mesh/core/libmesh_core_nrf52832_xxAA.a(event.c.obj)
 .text.event_handler_remove
                0x00000000       0x58 mesh/core/libmesh_core_nrf52832_xxAA.a(event.c.obj)
 .text          0x00000000        0x0 mesh/core/libmesh_core_nrf52832_xxAA.a(net_state.c.obj)
 .data          0x00000000        0x0 mesh/core/libmesh_core_nrf52832_xxAA.a(net_state.c.obj)
 .bss           0x00000000        0x0 mesh/core/libmesh_core_nrf52832_xxAA.a(net_state.c.obj)
 .text.net_state_reset
                0x00000000       0x3c mesh/core/libmesh_core_nrf52832_xxAA.a(net_state.c.obj)
 .text.net_state_iv_update_test_mode_set
                0x00000000        0xc mesh/core/libmesh_core_nrf52832_xxAA.a(net_state.c.obj)
 .data.mem_listener.9741
                0x00000000       0x10 mesh/core/libmesh_core_nrf52832_xxAA.a(net_state.c.obj)
 .text          0x00000000        0x0 mesh/core/libmesh_core_nrf52832_xxAA.a(mesh_flash.c.obj)
 .data          0x00000000        0x0 mesh/core/libmesh_core_nrf52832_xxAA.a(mesh_flash.c.obj)
 .bss           0x00000000        0x0 mesh/core/libmesh_core_nrf52832_xxAA.a(mesh_flash.c.obj)
 .text.mesh_flash_op_available_slots
                0x00000000       0x2c mesh/core/libmesh_core_nrf52832_xxAA.a(mesh_flash.c.obj)
 .text          0x00000000        0x0 mesh/core/libmesh_core_nrf52832_xxAA.a(nrf_mesh_utils.c.obj)
 .data          0x00000000        0x0 mesh/core/libmesh_core_nrf52832_xxAA.a(nrf_mesh_utils.c.obj)
 .bss           0x00000000        0x0 mesh/core/libmesh_core_nrf52832_xxAA.a(nrf_mesh_utils.c.obj)
 .text.nrf_mesh_rand_get
                0x00000000       0x10 mesh/core/libmesh_core_nrf52832_xxAA.a(nrf_mesh_utils.c.obj)
 .text.nrf_mesh_gap_address_type_get
                0x00000000       0x3c mesh/core/libmesh_core_nrf52832_xxAA.a(nrf_mesh_utils.c.obj)
 .text          0x00000000        0x0 mesh/core/libmesh_core_nrf52832_xxAA.a(nrf_mesh.c.obj)
 .data          0x00000000        0x0 mesh/core/libmesh_core_nrf52832_xxAA.a(nrf_mesh.c.obj)
 .bss           0x00000000        0x0 mesh/core/libmesh_core_nrf52832_xxAA.a(nrf_mesh.c.obj)
 .text.nrf_mesh_disable
                0x00000000       0x28 mesh/core/libmesh_core_nrf52832_xxAA.a(nrf_mesh.c.obj)
 .text.nrf_mesh_packet_send
                0x00000000        0x4 mesh/core/libmesh_core_nrf52832_xxAA.a(nrf_mesh.c.obj)
 .text.nrf_mesh_evt_handler_remove
                0x00000000        0x4 mesh/core/libmesh_core_nrf52832_xxAA.a(nrf_mesh.c.obj)
 .text.nrf_mesh_rx_cb_set
                0x00000000        0xc mesh/core/libmesh_core_nrf52832_xxAA.a(nrf_mesh.c.obj)
 .text.nrf_mesh_rx_cb_clear
                0x00000000        0xc mesh/core/libmesh_core_nrf52832_xxAA.a(nrf_mesh.c.obj)
 .text          0x00000000        0x0 mesh/core/libmesh_core_nrf52832_xxAA.a(hal.c.obj)
 .data          0x00000000        0x0 mesh/core/libmesh_core_nrf52832_xxAA.a(hal.c.obj)
 .bss           0x00000000        0x0 mesh/core/libmesh_core_nrf52832_xxAA.a(hal.c.obj)
 .text.sd_power_reset_reason_clr
                0x00000000        0x4 mesh/core/libmesh_core_nrf52832_xxAA.a(hal.c.obj)
 .text.sd_power_gpregret_set
                0x00000000        0x4 mesh/core/libmesh_core_nrf52832_xxAA.a(hal.c.obj)
 .text.hal_device_reset
                0x00000000       0x38 mesh/core/libmesh_core_nrf52832_xxAA.a(hal.c.obj)
 .text          0x00000000        0x0 mesh/core/libmesh_core_nrf52832_xxAA.a(timer_scheduler.c.obj)
 .data          0x00000000        0x0 mesh/core/libmesh_core_nrf52832_xxAA.a(timer_scheduler.c.obj)
 .bss           0x00000000        0x0 mesh/core/libmesh_core_nrf52832_xxAA.a(timer_scheduler.c.obj)
 .text          0x00000000        0x0 mesh/core/libmesh_core_nrf52832_xxAA.a(timer.c.obj)
 .data          0x00000000        0x0 mesh/core/libmesh_core_nrf52832_xxAA.a(timer.c.obj)
 .bss           0x00000000        0x0 mesh/core/libmesh_core_nrf52832_xxAA.a(timer.c.obj)
 .text.timer_order_cb_ppi
                0x00000000       0xc4 mesh/core/libmesh_core_nrf52832_xxAA.a(timer.c.obj)
 .text.timer_order_ppi
                0x00000000       0x84 mesh/core/libmesh_core_nrf52832_xxAA.a(timer.c.obj)
 .text.timer_abort
                0x00000000       0x78 mesh/core/libmesh_core_nrf52832_xxAA.a(timer.c.obj)
 .text          0x00000000        0x0 mesh/core/libmesh_core_nrf52832_xxAA.a(ticker.c.obj)
 .data          0x00000000        0x0 mesh/core/libmesh_core_nrf52832_xxAA.a(ticker.c.obj)
 .bss           0x00000000        0x0 mesh/core/libmesh_core_nrf52832_xxAA.a(ticker.c.obj)
 .text.ticker_get
                0x00000000        0xc mesh/core/libmesh_core_nrf52832_xxAA.a(ticker.c.obj)
 .text          0x00000000        0x0 mesh/core/libmesh_core_nrf52832_xxAA.a(rand.c.obj)
 .data          0x00000000        0x0 mesh/core/libmesh_core_nrf52832_xxAA.a(rand.c.obj)
 .bss           0x00000000        0x0 mesh/core/libmesh_core_nrf52832_xxAA.a(rand.c.obj)
 .text          0x00000000        0x0 mesh/core/libmesh_core_nrf52832_xxAA.a(timeslot.c.obj)
 .data          0x00000000        0x0 mesh/core/libmesh_core_nrf52832_xxAA.a(timeslot.c.obj)
 .bss           0x00000000        0x0 mesh/core/libmesh_core_nrf52832_xxAA.a(timeslot.c.obj)
 .text.timeslot_end_time_get
                0x00000000       0x10 mesh/core/libmesh_core_nrf52832_xxAA.a(timeslot.c.obj)
 .text.timeslot_is_in_ts
                0x00000000        0xc mesh/core/libmesh_core_nrf52832_xxAA.a(timeslot.c.obj)
 .text.timeslot_restart
                0x00000000       0x10 mesh/core/libmesh_core_nrf52832_xxAA.a(timeslot.c.obj)
 .text          0x00000000        0x0 mesh/core/libmesh_core_nrf52832_xxAA.a(bearer_event.c.obj)
 .data          0x00000000        0x0 mesh/core/libmesh_core_nrf52832_xxAA.a(bearer_event.c.obj)
 .bss           0x00000000        0x0 mesh/core/libmesh_core_nrf52832_xxAA.a(bearer_event.c.obj)
 .text.bearer_event_generic_post
                0x00000000       0x30 mesh/core/libmesh_core_nrf52832_xxAA.a(bearer_event.c.obj)
 .text.bearer_event_timer_sch_post
                0x00000000       0x34 mesh/core/libmesh_core_nrf52832_xxAA.a(bearer_event.c.obj)
 .text          0x00000000        0x0 mesh/core/libmesh_core_nrf52832_xxAA.a(enc.c.obj)
 .data          0x00000000        0x0 mesh/core/libmesh_core_nrf52832_xxAA.a(enc.c.obj)
 .bss           0x00000000        0x0 mesh/core/libmesh_core_nrf52832_xxAA.a(enc.c.obj)
 .text.enc_key_generate
                0x00000000        0x6 mesh/core/libmesh_core_nrf52832_xxAA.a(enc.c.obj)
 .text.enc_k1   0x00000000       0x48 mesh/core/libmesh_core_nrf52832_xxAA.a(enc.c.obj)
 .text.enc_k2   0x00000000       0xd8 mesh/core/libmesh_core_nrf52832_xxAA.a(enc.c.obj)
 .text.enc_k3   0x00000000       0x68 mesh/core/libmesh_core_nrf52832_xxAA.a(enc.c.obj)
 .text.enc_k4   0x00000000       0x60 mesh/core/libmesh_core_nrf52832_xxAA.a(enc.c.obj)
 .rodata        0x00000000       0x15 mesh/core/libmesh_core_nrf52832_xxAA.a(enc.c.obj)
 .text          0x00000000        0x0 mesh/core/libmesh_core_nrf52832_xxAA.a(network.c.obj)
 .data          0x00000000        0x0 mesh/core/libmesh_core_nrf52832_xxAA.a(network.c.obj)
 .bss           0x00000000        0x0 mesh/core/libmesh_core_nrf52832_xxAA.a(network.c.obj)
 .text.network_opt_set
                0x00000000       0x54 mesh/core/libmesh_core_nrf52832_xxAA.a(network.c.obj)
 .text.network_opt_get
                0x00000000       0x48 mesh/core/libmesh_core_nrf52832_xxAA.a(network.c.obj)
 .text.network_packet_discard
                0x00000000       0x3c mesh/core/libmesh_core_nrf52832_xxAA.a(network.c.obj)
 .text          0x00000000        0x0 mesh/core/libmesh_core_nrf52832_xxAA.a(msqueue.c.obj)
 .data          0x00000000        0x0 mesh/core/libmesh_core_nrf52832_xxAA.a(msqueue.c.obj)
 .bss           0x00000000        0x0 mesh/core/libmesh_core_nrf52832_xxAA.a(msqueue.c.obj)
 .text          0x00000000        0x0 mesh/core/libmesh_core_nrf52832_xxAA.a(nrf_mesh_keygen.c.obj)
 .data          0x00000000        0x0 mesh/core/libmesh_core_nrf52832_xxAA.a(nrf_mesh_keygen.c.obj)
 .bss           0x00000000        0x0 mesh/core/libmesh_core_nrf52832_xxAA.a(nrf_mesh_keygen.c.obj)
 .text.nrf_mesh_keygen_aid
                0x00000000       0x12 mesh/core/libmesh_core_nrf52832_xxAA.a(nrf_mesh_keygen.c.obj)
 .text.nrf_mesh_keygen_network_secmat
                0x00000000       0x20 mesh/core/libmesh_core_nrf52832_xxAA.a(nrf_mesh_keygen.c.obj)
 .text.nrf_mesh_keygen_beacon_secmat
                0x00000000       0x50 mesh/core/libmesh_core_nrf52832_xxAA.a(nrf_mesh_keygen.c.obj)
 .text.nrf_mesh_keygen_identitykey
                0x00000000       0x4c mesh/core/libmesh_core_nrf52832_xxAA.a(nrf_mesh_keygen.c.obj)
 .text.nrf_mesh_keygen_virtual_address
                0x00000000       0x50 mesh/core/libmesh_core_nrf52832_xxAA.a(nrf_mesh_keygen.c.obj)
 .rodata        0x00000000        0x7 mesh/core/libmesh_core_nrf52832_xxAA.a(nrf_mesh_keygen.c.obj)
 .comment       0x00000000       0x80 mesh/core/libmesh_core_nrf52832_xxAA.a(nrf_mesh_keygen.c.obj)
 .ARM.attributes
                0x00000000       0x39 mesh/core/libmesh_core_nrf52832_xxAA.a(nrf_mesh_keygen.c.obj)
 .text          0x00000000        0x0 mesh/core/libmesh_core_nrf52832_xxAA.a(log.c.obj)
 .data          0x00000000        0x0 mesh/core/libmesh_core_nrf52832_xxAA.a(log.c.obj)
 .bss           0x00000000        0x0 mesh/core/libmesh_core_nrf52832_xxAA.a(log.c.obj)
 .text.log_callback_logview
                0x00000000       0x38 mesh/core/libmesh_core_nrf52832_xxAA.a(log.c.obj)
 .text.log_set_callback
                0x00000000        0xc mesh/core/libmesh_core_nrf52832_xxAA.a(log.c.obj)
 .rodata.log_callback_logview.str1.1
                0x00000000        0xf mesh/core/libmesh_core_nrf52832_xxAA.a(log.c.obj)
 .text          0x00000000        0x0 mesh/core/libmesh_core_nrf52832_xxAA.a(flash_manager.c.obj)
 .data          0x00000000        0x0 mesh/core/libmesh_core_nrf52832_xxAA.a(flash_manager.c.obj)
 .bss           0x00000000        0x0 mesh/core/libmesh_core_nrf52832_xxAA.a(flash_manager.c.obj)
 .text.flash_manager_remove
                0x00000000       0x24 mesh/core/libmesh_core_nrf52832_xxAA.a(flash_manager.c.obj)
 .text.flash_manager_entry_get
                0x00000000       0x48 mesh/core/libmesh_core_nrf52832_xxAA.a(flash_manager.c.obj)
 .text.flash_manager_entry_count_get
                0x00000000       0x5c mesh/core/libmesh_core_nrf52832_xxAA.a(flash_manager.c.obj)
 .text.flash_manager_entry_release
                0x00000000       0x12 mesh/core/libmesh_core_nrf52832_xxAA.a(flash_manager.c.obj)
 .text          0x00000000        0x0 mesh/core/libmesh_core_nrf52832_xxAA.a(ccm_soft.c.obj)
 .data          0x00000000        0x0 mesh/core/libmesh_core_nrf52832_xxAA.a(ccm_soft.c.obj)
 .bss           0x00000000        0x0 mesh/core/libmesh_core_nrf52832_xxAA.a(ccm_soft.c.obj)
 .text          0x00000000        0x0 mesh/core/libmesh_core_nrf52832_xxAA.a(beacon.c.obj)
 .data          0x00000000        0x0 mesh/core/libmesh_core_nrf52832_xxAA.a(beacon.c.obj)
 .bss           0x00000000        0x0 mesh/core/libmesh_core_nrf52832_xxAA.a(beacon.c.obj)
 .text          0x00000000        0x0 mesh/core/libmesh_core_nrf52832_xxAA.a(flash_manager_internal.c.obj)
 .data          0x00000000        0x0 mesh/core/libmesh_core_nrf52832_xxAA.a(flash_manager_internal.c.obj)
 .bss           0x00000000        0x0 mesh/core/libmesh_core_nrf52832_xxAA.a(flash_manager_internal.c.obj)
 .text          0x00000000        0x0 mesh/core/libmesh_core_nrf52832_xxAA.a(core_tx.c.obj)
 .data          0x00000000        0x0 mesh/core/libmesh_core_nrf52832_xxAA.a(core_tx.c.obj)
 .bss           0x00000000        0x0 mesh/core/libmesh_core_nrf52832_xxAA.a(core_tx.c.obj)
 .text.core_tx_adv_count_set
                0x00000000       0x38 mesh/core/libmesh_core_nrf52832_xxAA.a(core_tx.c.obj)
 .text.core_tx_adv_count_get
                0x00000000       0x28 mesh/core/libmesh_core_nrf52832_xxAA.a(core_tx.c.obj)
 .text.core_tx_adv_interval_set
                0x00000000       0x34 mesh/core/libmesh_core_nrf52832_xxAA.a(core_tx.c.obj)
 .text.core_tx_adv_interval_get
                0x00000000       0x34 mesh/core/libmesh_core_nrf52832_xxAA.a(core_tx.c.obj)
 .text.core_tx_adv_address_set
                0x00000000       0x34 mesh/core/libmesh_core_nrf52832_xxAA.a(core_tx.c.obj)
 .text          0x00000000        0x0 mesh/core/libmesh_core_nrf52832_xxAA.a(net_beacon.c.obj)
 .data          0x00000000        0x0 mesh/core/libmesh_core_nrf52832_xxAA.a(net_beacon.c.obj)
 .bss           0x00000000        0x0 mesh/core/libmesh_core_nrf52832_xxAA.a(net_beacon.c.obj)
 .text.net_beacon_state_set
                0x00000000       0x34 mesh/core/libmesh_core_nrf52832_xxAA.a(net_beacon.c.obj)
 .text.net_beacon_state_get
                0x00000000        0xc mesh/core/libmesh_core_nrf52832_xxAA.a(net_beacon.c.obj)
 .text          0x00000000        0x0 mesh/core/libmesh_core_nrf52832_xxAA.a(advertiser.c.obj)
 .data          0x00000000        0x0 mesh/core/libmesh_core_nrf52832_xxAA.a(advertiser.c.obj)
 .bss           0x00000000        0x0 mesh/core/libmesh_core_nrf52832_xxAA.a(advertiser.c.obj)
 .text.advertiser_disable
                0x00000000        0xa mesh/core/libmesh_core_nrf52832_xxAA.a(advertiser.c.obj)
 .text.advertiser_channels_set
                0x00000000       0x84 mesh/core/libmesh_core_nrf52832_xxAA.a(advertiser.c.obj)
 .text.advertiser_address_set
                0x00000000       0x50 mesh/core/libmesh_core_nrf52832_xxAA.a(advertiser.c.obj)
 .text.advertiser_config_set
                0x00000000       0x44 mesh/core/libmesh_core_nrf52832_xxAA.a(advertiser.c.obj)
 .text.advertiser_config_get
                0x00000000       0x2c mesh/core/libmesh_core_nrf52832_xxAA.a(advertiser.c.obj)
 .text          0x00000000        0x0 mesh/core/libmesh_core_nrf52832_xxAA.a(bearer_handler.c.obj)
 .data          0x00000000        0x0 mesh/core/libmesh_core_nrf52832_xxAA.a(bearer_handler.c.obj)
 .bss           0x00000000        0x0 mesh/core/libmesh_core_nrf52832_xxAA.a(bearer_handler.c.obj)
 .text.bearer_handler_stop
                0x00000000       0x20 mesh/core/libmesh_core_nrf52832_xxAA.a(bearer_handler.c.obj)
 .text.bearer_handler_action_fire
                0x00000000       0xb0 mesh/core/libmesh_core_nrf52832_xxAA.a(bearer_handler.c.obj)
 .text          0x00000000        0x0 mesh/core/libmesh_core_nrf52832_xxAA.a(broadcast.c.obj)
 .data          0x00000000        0x0 mesh/core/libmesh_core_nrf52832_xxAA.a(broadcast.c.obj)
 .bss           0x00000000        0x0 mesh/core/libmesh_core_nrf52832_xxAA.a(broadcast.c.obj)
 .text          0x00000000        0x0 mesh/core/libmesh_core_nrf52832_xxAA.a(radio_config.c.obj)
 .data          0x00000000        0x0 mesh/core/libmesh_core_nrf52832_xxAA.a(radio_config.c.obj)
 .bss           0x00000000        0x0 mesh/core/libmesh_core_nrf52832_xxAA.a(radio_config.c.obj)
 .text.radio_config_access_addr_get
                0x00000000       0x64 mesh/core/libmesh_core_nrf52832_xxAA.a(radio_config.c.obj)
 .text          0x00000000        0x0 mesh/core/libmesh_core_nrf52832_xxAA.a(scanner.c.obj)
 .data          0x00000000        0x0 mesh/core/libmesh_core_nrf52832_xxAA.a(scanner.c.obj)
 .bss           0x00000000        0x0 mesh/core/libmesh_core_nrf52832_xxAA.a(scanner.c.obj)
 .text.scanner_disable
                0x00000000       0x48 mesh/core/libmesh_core_nrf52832_xxAA.a(scanner.c.obj)
 .text.scanner_is_enabled
                0x00000000       0x10 mesh/core/libmesh_core_nrf52832_xxAA.a(scanner.c.obj)
 .text.scanner_stats_get
                0x00000000        0x8 mesh/core/libmesh_core_nrf52832_xxAA.a(scanner.c.obj)
 .text.scanner_config_radio_mode_set
                0x00000000       0x10 mesh/core/libmesh_core_nrf52832_xxAA.a(scanner.c.obj)
 .text          0x00000000        0x0 mesh/core/libmesh_core_nrf52832_xxAA.a(internal_event.c.obj)
 .data          0x00000000        0x0 mesh/core/libmesh_core_nrf52832_xxAA.a(internal_event.c.obj)
 .bss           0x00000000        0x0 mesh/core/libmesh_core_nrf52832_xxAA.a(internal_event.c.obj)
 .text.internal_event_init
                0x00000000       0x40 mesh/core/libmesh_core_nrf52832_xxAA.a(internal_event.c.obj)
 .text.internal_event_pop
                0x00000000       0x1c mesh/core/libmesh_core_nrf52832_xxAA.a(internal_event.c.obj)
 .bss.m_internal_event_fifo_buffer
                0x00000000      0x100 mesh/core/libmesh_core_nrf52832_xxAA.a(internal_event.c.obj)
 .text          0x00000000        0x0 mesh/core/libmesh_core_nrf52832_xxAA.a(aes.c.obj)
 .data          0x00000000        0x0 mesh/core/libmesh_core_nrf52832_xxAA.a(aes.c.obj)
 .bss           0x00000000        0x0 mesh/core/libmesh_core_nrf52832_xxAA.a(aes.c.obj)
 .text          0x00000000        0x0 mesh/core/libmesh_core_nrf52832_xxAA.a(msg_cache.c.obj)
 .data          0x00000000        0x0 mesh/core/libmesh_core_nrf52832_xxAA.a(msg_cache.c.obj)
 .bss           0x00000000        0x0 mesh/core/libmesh_core_nrf52832_xxAA.a(msg_cache.c.obj)
 .text.msg_cache_clear
                0x00000000       0x18 mesh/core/libmesh_core_nrf52832_xxAA.a(msg_cache.c.obj)
 .text          0x00000000        0x0 mesh/core/libmesh_core_nrf52832_xxAA.a(transport.c.obj)
 .data          0x00000000        0x0 mesh/core/libmesh_core_nrf52832_xxAA.a(transport.c.obj)
 .bss           0x00000000        0x0 mesh/core/libmesh_core_nrf52832_xxAA.a(transport.c.obj)
 .text.transport_sar_mem_funcs_set
                0x00000000       0x44 mesh/core/libmesh_core_nrf52832_xxAA.a(transport.c.obj)
 .text.transport_tx
                0x00000000      0x2ac mesh/core/libmesh_core_nrf52832_xxAA.a(transport.c.obj)
 .text.transport_opt_set
                0x00000000       0xd0 mesh/core/libmesh_core_nrf52832_xxAA.a(transport.c.obj)
 .text.transport_opt_get
                0x00000000       0x68 mesh/core/libmesh_core_nrf52832_xxAA.a(transport.c.obj)
 .rodata.transport_tx.str1.1
                0x00000000       0x34 mesh/core/libmesh_core_nrf52832_xxAA.a(transport.c.obj)
 .text          0x00000000        0x0 mesh/core/libmesh_core_nrf52832_xxAA.a(packet_buffer.c.obj)
 .data          0x00000000        0x0 mesh/core/libmesh_core_nrf52832_xxAA.a(packet_buffer.c.obj)
 .bss           0x00000000        0x0 mesh/core/libmesh_core_nrf52832_xxAA.a(packet_buffer.c.obj)
 .text.packet_buffer_max_packet_len_get
                0x00000000       0x34 mesh/core/libmesh_core_nrf52832_xxAA.a(packet_buffer.c.obj)
 .text          0x00000000        0x0 mesh/core/libmesh_core_nrf52832_xxAA.a(flash_manager_defrag.c.obj)
 .data          0x00000000        0x0 mesh/core/libmesh_core_nrf52832_xxAA.a(flash_manager_defrag.c.obj)
 .bss           0x00000000        0x0 mesh/core/libmesh_core_nrf52832_xxAA.a(flash_manager_defrag.c.obj)
 .text.flash_manager_defragging
                0x00000000       0x44 mesh/core/libmesh_core_nrf52832_xxAA.a(flash_manager_defrag.c.obj)
 .text          0x00000000        0x0 mesh/core/libmesh_core_nrf52832_xxAA.a(fifo.c.obj)
 .data          0x00000000        0x0 mesh/core/libmesh_core_nrf52832_xxAA.a(fifo.c.obj)
 .bss           0x00000000        0x0 mesh/core/libmesh_core_nrf52832_xxAA.a(fifo.c.obj)
 .text.fifo_peek_at
                0x00000000       0x50 mesh/core/libmesh_core_nrf52832_xxAA.a(fifo.c.obj)
 .text.fifo_peek
                0x00000000        0x6 mesh/core/libmesh_core_nrf52832_xxAA.a(fifo.c.obj)
 .text.fifo_flush
                0x00000000        0x6 mesh/core/libmesh_core_nrf52832_xxAA.a(fifo.c.obj)
 .text.fifo_get_len
                0x00000000        0x8 mesh/core/libmesh_core_nrf52832_xxAA.a(fifo.c.obj)
 .text.fifo_is_full
                0x00000000       0x10 mesh/core/libmesh_core_nrf52832_xxAA.a(fifo.c.obj)
 .text.fifo_is_empty
                0x00000000        0xc mesh/core/libmesh_core_nrf52832_xxAA.a(fifo.c.obj)
 .text          0x00000000        0x0 mesh/core/libmesh_core_nrf52832_xxAA.a(nrf_flash.c.obj)
 .data          0x00000000        0x0 mesh/core/libmesh_core_nrf52832_xxAA.a(nrf_flash.c.obj)
 .bss           0x00000000        0x0 mesh/core/libmesh_core_nrf52832_xxAA.a(nrf_flash.c.obj)
 .text          0x00000000        0x0 mesh/core/libmesh_core_nrf52832_xxAA.a(packet_mgr.c.obj)
 .data          0x00000000        0x0 mesh/core/libmesh_core_nrf52832_xxAA.a(packet_mgr.c.obj)
 .bss           0x00000000        0x0 mesh/core/libmesh_core_nrf52832_xxAA.a(packet_mgr.c.obj)
 .text.packet_mgr_alloc
                0x00000000      0x19c mesh/core/libmesh_core_nrf52832_xxAA.a(packet_mgr.c.obj)
 .text.packet_mgr_free
                0x00000000       0x6c mesh/core/libmesh_core_nrf52832_xxAA.a(packet_mgr.c.obj)
 .text.packet_mgr_get_free_space
                0x00000000       0x1c mesh/core/libmesh_core_nrf52832_xxAA.a(packet_mgr.c.obj)
 .text.packet_mgr_refcount_get
                0x00000000        0x6 mesh/core/libmesh_core_nrf52832_xxAA.a(packet_mgr.c.obj)
 .text.packet_mgr_size_get
                0x00000000        0x6 mesh/core/libmesh_core_nrf52832_xxAA.a(packet_mgr.c.obj)
 .text          0x00000000        0x0 mesh/core/libmesh_core_nrf52832_xxAA.a(queue.c.obj)
 .data          0x00000000        0x0 mesh/core/libmesh_core_nrf52832_xxAA.a(queue.c.obj)
 .bss           0x00000000        0x0 mesh/core/libmesh_core_nrf52832_xxAA.a(queue.c.obj)
 .text          0x00000000        0x0 mesh/core/libmesh_core_nrf52832_xxAA.a(aes_cmac.c.obj)
 .data          0x00000000        0x0 mesh/core/libmesh_core_nrf52832_xxAA.a(aes_cmac.c.obj)
 .bss           0x00000000        0x0 mesh/core/libmesh_core_nrf52832_xxAA.a(aes_cmac.c.obj)
 .text          0x00000000        0x0 mesh/core/libmesh_core_nrf52832_xxAA.a(replay_cache.c.obj)
 .data          0x00000000        0x0 mesh/core/libmesh_core_nrf52832_xxAA.a(replay_cache.c.obj)
 .bss           0x00000000        0x0 mesh/core/libmesh_core_nrf52832_xxAA.a(replay_cache.c.obj)
 .text.replay_cache_on_iv_update
                0x00000000       0x24 mesh/core/libmesh_core_nrf52832_xxAA.a(replay_cache.c.obj)
 .text          0x00000000        0x0 mesh/core/libmesh_core_nrf52832_xxAA.a(filter_engine.c.obj)
 .data          0x00000000        0x0 mesh/core/libmesh_core_nrf52832_xxAA.a(filter_engine.c.obj)
 .bss           0x00000000        0x0 mesh/core/libmesh_core_nrf52832_xxAA.a(filter_engine.c.obj)
 .text.fen_filter_start
                0x00000000       0x68 mesh/core/libmesh_core_nrf52832_xxAA.a(filter_engine.c.obj)
 .text.fen_filter_stop
                0x00000000       0x5c mesh/core/libmesh_core_nrf52832_xxAA.a(filter_engine.c.obj)
 .text.fen_accepted_amount_get
                0x00000000        0xc mesh/core/libmesh_core_nrf52832_xxAA.a(filter_engine.c.obj)
 .text          0x00000000        0x0 external/rtt/librtt_nrf52832_xxAA.a(SEGGER_RTT.c.obj)
 .data          0x00000000        0x0 external/rtt/librtt_nrf52832_xxAA.a(SEGGER_RTT.c.obj)
 .bss           0x00000000        0x0 external/rtt/librtt_nrf52832_xxAA.a(SEGGER_RTT.c.obj)
 .text._PostTerminalSwitch.constprop.0
                0x00000000       0x28 external/rtt/librtt_nrf52832_xxAA.a(SEGGER_RTT.c.obj)
 .text.SEGGER_RTT_ReadNoLock
                0x00000000       0x88 external/rtt/librtt_nrf52832_xxAA.a(SEGGER_RTT.c.obj)
 .text.SEGGER_RTT_Read
                0x00000000       0x1c external/rtt/librtt_nrf52832_xxAA.a(SEGGER_RTT.c.obj)
 .text.SEGGER_RTT_WriteSkipNoLock
                0x00000000       0xb4 external/rtt/librtt_nrf52832_xxAA.a(SEGGER_RTT.c.obj)
 .text.SEGGER_RTT_WriteString
                0x00000000       0x1a external/rtt/librtt_nrf52832_xxAA.a(SEGGER_RTT.c.obj)
 .text.SEGGER_RTT_GetKey
                0x00000000       0x20 external/rtt/librtt_nrf52832_xxAA.a(SEGGER_RTT.c.obj)
 .text.SEGGER_RTT_WaitKey
                0x00000000        0xc external/rtt/librtt_nrf52832_xxAA.a(SEGGER_RTT.c.obj)
 .text.SEGGER_RTT_HasKey
                0x00000000       0x1c external/rtt/librtt_nrf52832_xxAA.a(SEGGER_RTT.c.obj)
 .text.SEGGER_RTT_HasData
                0x00000000       0x14 external/rtt/librtt_nrf52832_xxAA.a(SEGGER_RTT.c.obj)
 .text.SEGGER_RTT_AllocDownBuffer
                0x00000000       0x68 external/rtt/librtt_nrf52832_xxAA.a(SEGGER_RTT.c.obj)
 .text.SEGGER_RTT_AllocUpBuffer
                0x00000000       0x70 external/rtt/librtt_nrf52832_xxAA.a(SEGGER_RTT.c.obj)
 .text.SEGGER_RTT_ConfigUpBuffer
                0x00000000       0x68 external/rtt/librtt_nrf52832_xxAA.a(SEGGER_RTT.c.obj)
 .text.SEGGER_RTT_ConfigDownBuffer
                0x00000000       0x60 external/rtt/librtt_nrf52832_xxAA.a(SEGGER_RTT.c.obj)
 .text.SEGGER_RTT_SetNameUpBuffer
                0x00000000       0x3c external/rtt/librtt_nrf52832_xxAA.a(SEGGER_RTT.c.obj)
 .text.SEGGER_RTT_SetNameDownBuffer
                0x00000000       0x3c external/rtt/librtt_nrf52832_xxAA.a(SEGGER_RTT.c.obj)
 .text.SEGGER_RTT_Init
                0x00000000       0x10 external/rtt/librtt_nrf52832_xxAA.a(SEGGER_RTT.c.obj)
 .text.SEGGER_RTT_SetTerminal
                0x00000000       0x84 external/rtt/librtt_nrf52832_xxAA.a(SEGGER_RTT.c.obj)
 .text.SEGGER_RTT_TerminalOut
                0x00000000       0xa0 external/rtt/librtt_nrf52832_xxAA.a(SEGGER_RTT.c.obj)
 .bss._ActiveTerminal
                0x00000000        0x1 external/rtt/librtt_nrf52832_xxAA.a(SEGGER_RTT.c.obj)
 .rodata._aTerminalId
                0x00000000       0x10 external/rtt/librtt_nrf52832_xxAA.a(SEGGER_RTT.c.obj)
 .text          0x00000000        0x0 external/rtt/librtt_nrf52832_xxAA.a(SEGGER_RTT_printf.c.obj)
 .data          0x00000000        0x0 external/rtt/librtt_nrf52832_xxAA.a(SEGGER_RTT_printf.c.obj)
 .bss           0x00000000        0x0 external/rtt/librtt_nrf52832_xxAA.a(SEGGER_RTT_printf.c.obj)
 .text          0x00000000        0x0 external/micro-ecc/libuECC_nrf52832_xxAA.a(uECC.c.obj)
 .data          0x00000000        0x0 external/micro-ecc/libuECC_nrf52832_xxAA.a(uECC.c.obj)
 .bss           0x00000000        0x0 external/micro-ecc/libuECC_nrf52832_xxAA.a(uECC.c.obj)
 .text.uECC_vli_mult
                0x00000000       0x64 external/micro-ecc/libuECC_nrf52832_xxAA.a(uECC.c.obj)
 .text.uECC_vli_clear
                0x00000000       0x16 external/micro-ecc/libuECC_nrf52832_xxAA.a(uECC.c.obj)
 .text.uECC_vli_isZero
                0x00000000       0x1e external/micro-ecc/libuECC_nrf52832_xxAA.a(uECC.c.obj)
 .text.uECC_vli_testBit
                0x00000000       0x14 external/micro-ecc/libuECC_nrf52832_xxAA.a(uECC.c.obj)
 .text.uECC_vli_numBits
                0x00000000       0x3a external/micro-ecc/libuECC_nrf52832_xxAA.a(uECC.c.obj)
 .text.uECC_vli_set
                0x00000000       0x18 external/micro-ecc/libuECC_nrf52832_xxAA.a(uECC.c.obj)
 .text.uECC_vli_cmp_unsafe
                0x00000000       0x28 external/micro-ecc/libuECC_nrf52832_xxAA.a(uECC.c.obj)
 .text.uECC_vli_rshift1
                0x00000000       0x1c external/micro-ecc/libuECC_nrf52832_xxAA.a(uECC.c.obj)
 .text.uECC_vli_modMult
                0x00000000      0x148 external/micro-ecc/libuECC_nrf52832_xxAA.a(uECC.c.obj)
 .text.uECC_vli_modMult_fast
                0x00000000       0x20 external/micro-ecc/libuECC_nrf52832_xxAA.a(uECC.c.obj)
 .text.uECC_vli_modSquare_fast
                0x00000000        0x8 external/micro-ecc/libuECC_nrf52832_xxAA.a(uECC.c.obj)
 .text.apply_z  0x00000000       0x3e external/micro-ecc/libuECC_nrf52832_xxAA.a(uECC.c.obj)
 .text.uECC_vli_nativeToBytes
                0x00000000       0x28 external/micro-ecc/libuECC_nrf52832_xxAA.a(uECC.c.obj)
 .text.uECC_vli_bytesToNative
                0x00000000       0x40 external/micro-ecc/libuECC_nrf52832_xxAA.a(uECC.c.obj)
 .text.HMAC_init
                0x00000000       0x46 external/micro-ecc/libuECC_nrf52832_xxAA.a(uECC.c.obj)
 .text.HMAC_update
                0x00000000        0x4 external/micro-ecc/libuECC_nrf52832_xxAA.a(uECC.c.obj)
 .text.HMAC_finish
                0x00000000       0x62 external/micro-ecc/libuECC_nrf52832_xxAA.a(uECC.c.obj)
 .text.update_V
                0x00000000       0x24 external/micro-ecc/libuECC_nrf52832_xxAA.a(uECC.c.obj)
 .text.default_RNG
                0x00000000        0xc external/micro-ecc/libuECC_nrf52832_xxAA.a(uECC.c.obj)
 .text.uECC_vli_add.isra.0
                0x00000000       0x4a external/micro-ecc/libuECC_nrf52832_xxAA.a(uECC.c.obj)
 .text.regularize_k
                0x00000000       0x50 external/micro-ecc/libuECC_nrf52832_xxAA.a(uECC.c.obj)
 .text.uECC_vli_sub.isra.1
                0x00000000       0x4e external/micro-ecc/libuECC_nrf52832_xxAA.a(uECC.c.obj)
 .text.uECC_vli_cmp
                0x00000000       0x30 external/micro-ecc/libuECC_nrf52832_xxAA.a(uECC.c.obj)
 .text.uECC_generate_random_int
                0x00000000       0x78 external/micro-ecc/libuECC_nrf52832_xxAA.a(uECC.c.obj)
 .text.uECC_vli_modAdd
                0x00000000       0x2e external/micro-ecc/libuECC_nrf52832_xxAA.a(uECC.c.obj)
 .text.vli_mmod_fast_secp256r1
                0x00000000      0x194 external/micro-ecc/libuECC_nrf52832_xxAA.a(uECC.c.obj)
 .text.bits2int
                0x00000000       0x88 external/micro-ecc/libuECC_nrf52832_xxAA.a(uECC.c.obj)
 .text.uECC_vli_modSub.isra.2
                0x00000000       0x1c external/micro-ecc/libuECC_nrf52832_xxAA.a(uECC.c.obj)
 .text.double_jacobian_default
                0x00000000      0x14a external/micro-ecc/libuECC_nrf52832_xxAA.a(uECC.c.obj)
 .text.x_side_default
                0x00000000       0x5a external/micro-ecc/libuECC_nrf52832_xxAA.a(uECC.c.obj)
 .text.XYcZ_add
                0x00000000       0xbc external/micro-ecc/libuECC_nrf52832_xxAA.a(uECC.c.obj)
 .text.XYcZ_addC
                0x00000000      0x10a external/micro-ecc/libuECC_nrf52832_xxAA.a(uECC.c.obj)
 .text.vli_modInv_update
                0x00000000       0x36 external/micro-ecc/libuECC_nrf52832_xxAA.a(uECC.c.obj)
 .text.uECC_vli_modInv
                0x00000000      0x102 external/micro-ecc/libuECC_nrf52832_xxAA.a(uECC.c.obj)
 .text.EccPoint_mult
                0x00000000      0x19e external/micro-ecc/libuECC_nrf52832_xxAA.a(uECC.c.obj)
 .text.EccPoint_compute_public_key
                0x00000000       0x54 external/micro-ecc/libuECC_nrf52832_xxAA.a(uECC.c.obj)
 .text.uECC_sign_with_k
                0x00000000      0x17c external/micro-ecc/libuECC_nrf52832_xxAA.a(uECC.c.obj)
 .text.uECC_set_rng
                0x00000000        0xc external/micro-ecc/libuECC_nrf52832_xxAA.a(uECC.c.obj)
 .text.uECC_get_rng
                0x00000000        0xc external/micro-ecc/libuECC_nrf52832_xxAA.a(uECC.c.obj)
 .text.uECC_curve_private_key_size
                0x00000000        0xe external/micro-ecc/libuECC_nrf52832_xxAA.a(uECC.c.obj)
 .text.uECC_curve_public_key_size
                0x00000000        0x8 external/micro-ecc/libuECC_nrf52832_xxAA.a(uECC.c.obj)
 .text.uECC_secp256r1
                0x00000000        0x8 external/micro-ecc/libuECC_nrf52832_xxAA.a(uECC.c.obj)
 .text.uECC_make_key
                0x00000000       0x7e external/micro-ecc/libuECC_nrf52832_xxAA.a(uECC.c.obj)
 .text.uECC_shared_secret
                0x00000000       0xbc external/micro-ecc/libuECC_nrf52832_xxAA.a(uECC.c.obj)
 .text.uECC_valid_point
                0x00000000       0x86 external/micro-ecc/libuECC_nrf52832_xxAA.a(uECC.c.obj)
 .text.uECC_valid_public_key
                0x00000000       0x32 external/micro-ecc/libuECC_nrf52832_xxAA.a(uECC.c.obj)
 .text.uECC_compute_public_key
                0x00000000       0x7e external/micro-ecc/libuECC_nrf52832_xxAA.a(uECC.c.obj)
 .text.uECC_sign
                0x00000000       0x56 external/micro-ecc/libuECC_nrf52832_xxAA.a(uECC.c.obj)
 .text.uECC_sign_deterministic
                0x00000000      0x192 external/micro-ecc/libuECC_nrf52832_xxAA.a(uECC.c.obj)
 .text.uECC_verify
                0x00000000      0x2f0 external/micro-ecc/libuECC_nrf52832_xxAA.a(uECC.c.obj)
 .data.g_rng_function
                0x00000000        0x4 external/micro-ecc/libuECC_nrf52832_xxAA.a(uECC.c.obj)
 .rodata.curve_secp256r1
                0x00000000       0xb0 external/micro-ecc/libuECC_nrf52832_xxAA.a(uECC.c.obj)
 .comment       0x00000000       0x80 external/micro-ecc/libuECC_nrf52832_xxAA.a(uECC.c.obj)
 .ARM.attributes
                0x00000000       0x39 external/micro-ecc/libuECC_nrf52832_xxAA.a(uECC.c.obj)
 .text          0x00000000        0x0 c:/a/gcc_arm/6/bin/../lib/gcc/arm-none-eabi/6.3.1/../../../../arm-none-eabi/lib/thumb/v7e-m/fpv4-sp/hard\libc_nano.a(lib_a-exit.o)
 .data          0x00000000        0x0 c:/a/gcc_arm/6/bin/../lib/gcc/arm-none-eabi/6.3.1/../../../../arm-none-eabi/lib/thumb/v7e-m/fpv4-sp/hard\libc_nano.a(lib_a-exit.o)
 .bss           0x00000000        0x0 c:/a/gcc_arm/6/bin/../lib/gcc/arm-none-eabi/6.3.1/../../../../arm-none-eabi/lib/thumb/v7e-m/fpv4-sp/hard\libc_nano.a(lib_a-exit.o)
 .text          0x00000000        0x0 c:/a/gcc_arm/6/bin/../lib/gcc/arm-none-eabi/6.3.1/../../../../arm-none-eabi/lib/thumb/v7e-m/fpv4-sp/hard\libc_nano.a(lib_a-impure.o)
 .data          0x00000000        0x0 c:/a/gcc_arm/6/bin/../lib/gcc/arm-none-eabi/6.3.1/../../../../arm-none-eabi/lib/thumb/v7e-m/fpv4-sp/hard\libc_nano.a(lib_a-impure.o)
 .bss           0x00000000        0x0 c:/a/gcc_arm/6/bin/../lib/gcc/arm-none-eabi/6.3.1/../../../../arm-none-eabi/lib/thumb/v7e-m/fpv4-sp/hard\libc_nano.a(lib_a-impure.o)
 .text          0x00000000        0x0 c:/a/gcc_arm/6/bin/../lib/gcc/arm-none-eabi/6.3.1/../../../../arm-none-eabi/lib/thumb/v7e-m/fpv4-sp/hard\libc_nano.a(lib_a-init.o)
 .data          0x00000000        0x0 c:/a/gcc_arm/6/bin/../lib/gcc/arm-none-eabi/6.3.1/../../../../arm-none-eabi/lib/thumb/v7e-m/fpv4-sp/hard\libc_nano.a(lib_a-init.o)
 .bss           0x00000000        0x0 c:/a/gcc_arm/6/bin/../lib/gcc/arm-none-eabi/6.3.1/../../../../arm-none-eabi/lib/thumb/v7e-m/fpv4-sp/hard\libc_nano.a(lib_a-init.o)
 .text          0x00000000        0x0 c:/a/gcc_arm/6/bin/../lib/gcc/arm-none-eabi/6.3.1/../../../../arm-none-eabi/lib/thumb/v7e-m/fpv4-sp/hard\libc_nano.a(lib_a-malloc.o)
 .data          0x00000000        0x0 c:/a/gcc_arm/6/bin/../lib/gcc/arm-none-eabi/6.3.1/../../../../arm-none-eabi/lib/thumb/v7e-m/fpv4-sp/hard\libc_nano.a(lib_a-malloc.o)
 .bss           0x00000000        0x0 c:/a/gcc_arm/6/bin/../lib/gcc/arm-none-eabi/6.3.1/../../../../arm-none-eabi/lib/thumb/v7e-m/fpv4-sp/hard\libc_nano.a(lib_a-malloc.o)
 .text          0x00000000        0x0 c:/a/gcc_arm/6/bin/../lib/gcc/arm-none-eabi/6.3.1/../../../../arm-none-eabi/lib/thumb/v7e-m/fpv4-sp/hard\libc_nano.a(lib_a-memcmp.o)
 .data          0x00000000        0x0 c:/a/gcc_arm/6/bin/../lib/gcc/arm-none-eabi/6.3.1/../../../../arm-none-eabi/lib/thumb/v7e-m/fpv4-sp/hard\libc_nano.a(lib_a-memcmp.o)
 .bss           0x00000000        0x0 c:/a/gcc_arm/6/bin/../lib/gcc/arm-none-eabi/6.3.1/../../../../arm-none-eabi/lib/thumb/v7e-m/fpv4-sp/hard\libc_nano.a(lib_a-memcmp.o)
 .text          0x00000000        0x0 c:/a/gcc_arm/6/bin/../lib/gcc/arm-none-eabi/6.3.1/../../../../arm-none-eabi/lib/thumb/v7e-m/fpv4-sp/hard\libc_nano.a(lib_a-memcpy-stub.o)
 .data          0x00000000        0x0 c:/a/gcc_arm/6/bin/../lib/gcc/arm-none-eabi/6.3.1/../../../../arm-none-eabi/lib/thumb/v7e-m/fpv4-sp/hard\libc_nano.a(lib_a-memcpy-stub.o)
 .bss           0x00000000        0x0 c:/a/gcc_arm/6/bin/../lib/gcc/arm-none-eabi/6.3.1/../../../../arm-none-eabi/lib/thumb/v7e-m/fpv4-sp/hard\libc_nano.a(lib_a-memcpy-stub.o)
 .text          0x00000000        0x0 c:/a/gcc_arm/6/bin/../lib/gcc/arm-none-eabi/6.3.1/../../../../arm-none-eabi/lib/thumb/v7e-m/fpv4-sp/hard\libc_nano.a(lib_a-memset.o)
 .data          0x00000000        0x0 c:/a/gcc_arm/6/bin/../lib/gcc/arm-none-eabi/6.3.1/../../../../arm-none-eabi/lib/thumb/v7e-m/fpv4-sp/hard\libc_nano.a(lib_a-memset.o)
 .bss           0x00000000        0x0 c:/a/gcc_arm/6/bin/../lib/gcc/arm-none-eabi/6.3.1/../../../../arm-none-eabi/lib/thumb/v7e-m/fpv4-sp/hard\libc_nano.a(lib_a-memset.o)
 .text          0x00000000        0x0 c:/a/gcc_arm/6/bin/../lib/gcc/arm-none-eabi/6.3.1/../../../../arm-none-eabi/lib/thumb/v7e-m/fpv4-sp/hard\libc_nano.a(lib_a-nano-freer.o)
 .data          0x00000000        0x0 c:/a/gcc_arm/6/bin/../lib/gcc/arm-none-eabi/6.3.1/../../../../arm-none-eabi/lib/thumb/v7e-m/fpv4-sp/hard\libc_nano.a(lib_a-nano-freer.o)
 .bss           0x00000000        0x0 c:/a/gcc_arm/6/bin/../lib/gcc/arm-none-eabi/6.3.1/../../../../arm-none-eabi/lib/thumb/v7e-m/fpv4-sp/hard\libc_nano.a(lib_a-nano-freer.o)
 .text          0x00000000        0x0 c:/a/gcc_arm/6/bin/../lib/gcc/arm-none-eabi/6.3.1/../../../../arm-none-eabi/lib/thumb/v7e-m/fpv4-sp/hard\libc_nano.a(lib_a-nano-mallocr.o)
 .data          0x00000000        0x0 c:/a/gcc_arm/6/bin/../lib/gcc/arm-none-eabi/6.3.1/../../../../arm-none-eabi/lib/thumb/v7e-m/fpv4-sp/hard\libc_nano.a(lib_a-nano-mallocr.o)
 .bss           0x00000000        0x0 c:/a/gcc_arm/6/bin/../lib/gcc/arm-none-eabi/6.3.1/../../../../arm-none-eabi/lib/thumb/v7e-m/fpv4-sp/hard\libc_nano.a(lib_a-nano-mallocr.o)
 .text          0x00000000        0x0 c:/a/gcc_arm/6/bin/../lib/gcc/arm-none-eabi/6.3.1/../../../../arm-none-eabi/lib/thumb/v7e-m/fpv4-sp/hard\libc_nano.a(lib_a-sbrkr.o)
 .data          0x00000000        0x0 c:/a/gcc_arm/6/bin/../lib/gcc/arm-none-eabi/6.3.1/../../../../arm-none-eabi/lib/thumb/v7e-m/fpv4-sp/hard\libc_nano.a(lib_a-sbrkr.o)
 .bss           0x00000000        0x0 c:/a/gcc_arm/6/bin/../lib/gcc/arm-none-eabi/6.3.1/../../../../arm-none-eabi/lib/thumb/v7e-m/fpv4-sp/hard\libc_nano.a(lib_a-sbrkr.o)
 .text          0x00000000        0x0 c:/a/gcc_arm/6/bin/../lib/gcc/arm-none-eabi/6.3.1/../../../../arm-none-eabi/lib/thumb/v7e-m/fpv4-sp/hard\libc_nano.a(lib_a-strcpy.o)
 .data          0x00000000        0x0 c:/a/gcc_arm/6/bin/../lib/gcc/arm-none-eabi/6.3.1/../../../../arm-none-eabi/lib/thumb/v7e-m/fpv4-sp/hard\libc_nano.a(lib_a-strcpy.o)
 .bss           0x00000000        0x0 c:/a/gcc_arm/6/bin/../lib/gcc/arm-none-eabi/6.3.1/../../../../arm-none-eabi/lib/thumb/v7e-m/fpv4-sp/hard\libc_nano.a(lib_a-strcpy.o)
 .text          0x00000000       0x10 c:/a/gcc_arm/6/bin/../lib/gcc/arm-none-eabi/6.3.1/../../../../arm-none-eabi/lib/thumb/v7e-m/fpv4-sp/hard\libc_nano.a(lib_a-strlen.o)
 .data          0x00000000        0x0 c:/a/gcc_arm/6/bin/../lib/gcc/arm-none-eabi/6.3.1/../../../../arm-none-eabi/lib/thumb/v7e-m/fpv4-sp/hard\libc_nano.a(lib_a-strlen.o)
 .bss           0x00000000        0x0 c:/a/gcc_arm/6/bin/../lib/gcc/arm-none-eabi/6.3.1/../../../../arm-none-eabi/lib/thumb/v7e-m/fpv4-sp/hard\libc_nano.a(lib_a-strlen.o)
 .ARM.attributes
                0x00000000       0x1b c:/a/gcc_arm/6/bin/../lib/gcc/arm-none-eabi/6.3.1/../../../../arm-none-eabi/lib/thumb/v7e-m/fpv4-sp/hard\libc_nano.a(lib_a-strlen.o)
 .text          0x00000000        0x0 c:/a/gcc_arm/6/bin/../lib/gcc/arm-none-eabi/6.3.1/../../../../arm-none-eabi/lib/thumb/v7e-m/fpv4-sp/hard\libc_nano.a(lib_a-strrchr.o)
 .data          0x00000000        0x0 c:/a/gcc_arm/6/bin/../lib/gcc/arm-none-eabi/6.3.1/../../../../arm-none-eabi/lib/thumb/v7e-m/fpv4-sp/hard\libc_nano.a(lib_a-strrchr.o)
 .bss           0x00000000        0x0 c:/a/gcc_arm/6/bin/../lib/gcc/arm-none-eabi/6.3.1/../../../../arm-none-eabi/lib/thumb/v7e-m/fpv4-sp/hard\libc_nano.a(lib_a-strrchr.o)
 .text          0x00000000        0x0 c:/a/gcc_arm/6/bin/../lib/gcc/arm-none-eabi/6.3.1/../../../../arm-none-eabi/lib/thumb/v7e-m/fpv4-sp/hard\libc_nano.a(lib_a-mlock.o)
 .data          0x00000000        0x0 c:/a/gcc_arm/6/bin/../lib/gcc/arm-none-eabi/6.3.1/../../../../arm-none-eabi/lib/thumb/v7e-m/fpv4-sp/hard\libc_nano.a(lib_a-mlock.o)
 .bss           0x00000000        0x0 c:/a/gcc_arm/6/bin/../lib/gcc/arm-none-eabi/6.3.1/../../../../arm-none-eabi/lib/thumb/v7e-m/fpv4-sp/hard\libc_nano.a(lib_a-mlock.o)
 .text          0x00000000        0x0 c:/a/gcc_arm/6/bin/../lib/gcc/arm-none-eabi/6.3.1/../../../../arm-none-eabi/lib/thumb/v7e-m/fpv4-sp/hard\libc_nano.a(lib_a-reent.o)
 .data          0x00000000        0x0 c:/a/gcc_arm/6/bin/../lib/gcc/arm-none-eabi/6.3.1/../../../../arm-none-eabi/lib/thumb/v7e-m/fpv4-sp/hard\libc_nano.a(lib_a-reent.o)
 .bss           0x00000000        0x0 c:/a/gcc_arm/6/bin/../lib/gcc/arm-none-eabi/6.3.1/../../../../arm-none-eabi/lib/thumb/v7e-m/fpv4-sp/hard\libc_nano.a(lib_a-reent.o)
 .text.cleanup_glue
                0x00000000       0x1a c:/a/gcc_arm/6/bin/../lib/gcc/arm-none-eabi/6.3.1/../../../../arm-none-eabi/lib/thumb/v7e-m/fpv4-sp/hard\libc_nano.a(lib_a-reent.o)
 .text._reclaim_reent
                0x00000000       0xb8 c:/a/gcc_arm/6/bin/../lib/gcc/arm-none-eabi/6.3.1/../../../../arm-none-eabi/lib/thumb/v7e-m/fpv4-sp/hard\libc_nano.a(lib_a-reent.o)
 .text          0x00000000        0x0 c:/a/gcc_arm/6/bin/../lib/gcc/arm-none-eabi/6.3.1/../../../../arm-none-eabi/lib/thumb/v7e-m/fpv4-sp/hard\libc_nano.a(lib_a-strchr.o)
 .data          0x00000000        0x0 c:/a/gcc_arm/6/bin/../lib/gcc/arm-none-eabi/6.3.1/../../../../arm-none-eabi/lib/thumb/v7e-m/fpv4-sp/hard\libc_nano.a(lib_a-strchr.o)
 .bss           0x00000000        0x0 c:/a/gcc_arm/6/bin/../lib/gcc/arm-none-eabi/6.3.1/../../../../arm-none-eabi/lib/thumb/v7e-m/fpv4-sp/hard\libc_nano.a(lib_a-strchr.o)
 .text          0x00000000        0x0 c:/a/gcc_arm/6/bin/../lib/gcc/arm-none-eabi/6.3.1/thumb/v7e-m/fpv4-sp/hard/crtend.o
 .data          0x00000000        0x0 c:/a/gcc_arm/6/bin/../lib/gcc/arm-none-eabi/6.3.1/thumb/v7e-m/fpv4-sp/hard/crtend.o
 .bss           0x00000000        0x0 c:/a/gcc_arm/6/bin/../lib/gcc/arm-none-eabi/6.3.1/thumb/v7e-m/fpv4-sp/hard/crtend.o
 .text          0x00000000        0x0 c:/a/gcc_arm/6/bin/../lib/gcc/arm-none-eabi/6.3.1/thumb/v7e-m/fpv4-sp/hard/crtn.o
 .data          0x00000000        0x0 c:/a/gcc_arm/6/bin/../lib/gcc/arm-none-eabi/6.3.1/thumb/v7e-m/fpv4-sp/hard/crtn.o
 .bss           0x00000000        0x0 c:/a/gcc_arm/6/bin/../lib/gcc/arm-none-eabi/6.3.1/thumb/v7e-m/fpv4-sp/hard/crtn.o
 .text          0x00000000        0x0 c:/a/gcc_arm/6/bin/../lib/gcc/arm-none-eabi/6.3.1/../../../../arm-none-eabi/lib/thumb/v7e-m/fpv4-sp/hard\libnosys.a(sbrk.o)
 .data          0x00000000        0x0 c:/a/gcc_arm/6/bin/../lib/gcc/arm-none-eabi/6.3.1/../../../../arm-none-eabi/lib/thumb/v7e-m/fpv4-sp/hard\libnosys.a(sbrk.o)
 .bss           0x00000000        0x0 c:/a/gcc_arm/6/bin/../lib/gcc/arm-none-eabi/6.3.1/../../../../arm-none-eabi/lib/thumb/v7e-m/fpv4-sp/hard\libnosys.a(sbrk.o)
 .text          0x00000000        0x0 c:/a/gcc_arm/6/bin/../lib/gcc/arm-none-eabi/6.3.1/../../../../arm-none-eabi/lib/thumb/v7e-m/fpv4-sp/hard\libnosys.a(_exit.o)
 .data          0x00000000        0x0 c:/a/gcc_arm/6/bin/../lib/gcc/arm-none-eabi/6.3.1/../../../../arm-none-eabi/lib/thumb/v7e-m/fpv4-sp/hard\libnosys.a(_exit.o)
 .bss           0x00000000        0x0 c:/a/gcc_arm/6/bin/../lib/gcc/arm-none-eabi/6.3.1/../../../../arm-none-eabi/lib/thumb/v7e-m/fpv4-sp/hard\libnosys.a(_exit.o)

Memory Configuration

Name             Origin             Length             Attributes
FLASH            0x0001f000         0x00059000         xr
RAM              0x200019c0         0x0000d640         xrw
*default*        0x00000000         0xffffffff

Linker script and memory map

LOAD c:/a/gcc_arm/6/bin/../lib/gcc/arm-none-eabi/6.3.1/thumb/v7e-m/fpv4-sp/hard/crti.o
LOAD c:/a/gcc_arm/6/bin/../lib/gcc/arm-none-eabi/6.3.1/thumb/v7e-m/fpv4-sp/hard/crtbegin.o
LOAD c:/a/gcc_arm/6/bin/../lib/gcc/arm-none-eabi/6.3.1/../../../../arm-none-eabi/lib/thumb/v7e-m/fpv4-sp/hard/crt0.o
LOAD examples/dfu/CMakeFiles/dfu_no_serial_nrf52832_xxAA_s132_3.1.0.dir/src/main.c.obj
LOAD examples/dfu/CMakeFiles/dfu_no_serial_nrf52832_xxAA_s132_3.1.0.dir/__/nrf_mesh_sdk.c.obj
LOAD examples/dfu/CMakeFiles/dfu_no_serial_nrf52832_xxAA_s132_3.1.0.dir/__/__/mesh/access/src/access_publish.c.obj
LOAD examples/dfu/CMakeFiles/dfu_no_serial_nrf52832_xxAA_s132_3.1.0.dir/__/__/mesh/access/src/access.c.obj
LOAD examples/dfu/CMakeFiles/dfu_no_serial_nrf52832_xxAA_s132_3.1.0.dir/__/__/mesh/access/src/access_reliable.c.obj
LOAD examples/dfu/CMakeFiles/dfu_no_serial_nrf52832_xxAA_s132_3.1.0.dir/__/__/mesh/access/src/device_state_manager.c.obj
LOAD examples/dfu/CMakeFiles/dfu_no_serial_nrf52832_xxAA_s132_3.1.0.dir/__/__/mesh/prov/src/prov_provisioner.c.obj
LOAD examples/dfu/CMakeFiles/dfu_no_serial_nrf52832_xxAA_s132_3.1.0.dir/__/__/mesh/prov/src/prov_provisionee.c.obj
LOAD examples/dfu/CMakeFiles/dfu_no_serial_nrf52832_xxAA_s132_3.1.0.dir/__/__/mesh/prov/src/nrf_mesh_prov.c.obj
LOAD examples/dfu/CMakeFiles/dfu_no_serial_nrf52832_xxAA_s132_3.1.0.dir/__/__/mesh/prov/src/provisioning.c.obj
LOAD examples/dfu/CMakeFiles/dfu_no_serial_nrf52832_xxAA_s132_3.1.0.dir/__/__/mesh/prov/src/prov_beacon.c.obj
LOAD examples/dfu/CMakeFiles/dfu_no_serial_nrf52832_xxAA_s132_3.1.0.dir/__/__/mesh/prov/src/prov_utils.c.obj
LOAD examples/dfu/CMakeFiles/dfu_no_serial_nrf52832_xxAA_s132_3.1.0.dir/__/__/mesh/prov/src/prov_bearer_adv.c.obj
LOAD examples/dfu/CMakeFiles/dfu_no_serial_nrf52832_xxAA_s132_3.1.0.dir/__/__/mesh/dfu/src/nrf_mesh_dfu.c.obj
LOAD examples/dfu/CMakeFiles/dfu_no_serial_nrf52832_xxAA_s132_3.1.0.dir/__/nrf_mesh_weak.c.obj
LOAD examples/dfu/CMakeFiles/dfu_no_serial_nrf52832_xxAA_s132_3.1.0.dir/__/__/external/nRF5_SDK_14.0.0_3bcc1f7/components/toolchain/system_nrf52.c.obj
LOAD examples/dfu/CMakeFiles/dfu_no_serial_nrf52832_xxAA_s132_3.1.0.dir/__/__/external/nRF5_SDK_14.0.0_3bcc1f7/components/toolchain/gcc/gcc_startup_nrf52.S.obj
LOAD mesh/core/libmesh_core_nrf52832_xxAA.a
LOAD external/rtt/librtt_nrf52832_xxAA.a
LOAD external/micro-ecc/libuECC_nrf52832_xxAA.a
START GROUP
LOAD c:/a/gcc_arm/6/bin/../lib/gcc/arm-none-eabi/6.3.1/thumb/v7e-m/fpv4-sp/hard\libgcc.a
LOAD c:/a/gcc_arm/6/bin/../lib/gcc/arm-none-eabi/6.3.1/../../../../arm-none-eabi/lib/thumb/v7e-m/fpv4-sp/hard\libc_nano.a
END GROUP
START GROUP
LOAD c:/a/gcc_arm/6/bin/../lib/gcc/arm-none-eabi/6.3.1/thumb/v7e-m/fpv4-sp/hard\libgcc.a
LOAD c:/a/gcc_arm/6/bin/../lib/gcc/arm-none-eabi/6.3.1/../../../../arm-none-eabi/lib/thumb/v7e-m/fpv4-sp/hard\libc_nano.a
END GROUP
LOAD c:/a/gcc_arm/6/bin/../lib/gcc/arm-none-eabi/6.3.1/thumb/v7e-m/fpv4-sp/hard/crtend.o
LOAD c:/a/gcc_arm/6/bin/../lib/gcc/arm-none-eabi/6.3.1/thumb/v7e-m/fpv4-sp/hard/crtn.o
START GROUP
LOAD c:/a/gcc_arm/6/bin/../lib/gcc/arm-none-eabi/6.3.1/thumb/v7e-m/fpv4-sp/hard\libgcc.a
LOAD c:/a/gcc_arm/6/bin/../lib/gcc/arm-none-eabi/6.3.1/../../../../arm-none-eabi/lib/thumb/v7e-m/fpv4-sp/hard\libc.a
LOAD c:/a/gcc_arm/6/bin/../lib/gcc/arm-none-eabi/6.3.1/../../../../arm-none-eabi/lib/thumb/v7e-m/fpv4-sp/hard\libnosys.a
END GROUP

.text           0x0001f000     0xb3b8
 *(.isr_vector)
 .isr_vector    0x0001f000      0x200 examples/dfu/CMakeFiles/dfu_no_serial_nrf52832_xxAA_s132_3.1.0.dir/__/__/external/nRF5_SDK_14.0.0_3bcc1f7/components/toolchain/gcc/gcc_startup_nrf52.S.obj
                0x0001f000                __isr_vector
 *(.text*)
 .text          0x0001f200       0x6c c:/a/gcc_arm/6/bin/../lib/gcc/arm-none-eabi/6.3.1/thumb/v7e-m/fpv4-sp/hard/crtbegin.o
 .text          0x0001f26c       0x74 c:/a/gcc_arm/6/bin/../lib/gcc/arm-none-eabi/6.3.1/../../../../arm-none-eabi/lib/thumb/v7e-m/fpv4-sp/hard/crt0.o
                0x0001f26c                _start
                0x0001f26c                _mainCRTStartup
 .text.mesh_evt_handler
                0x0001f2e0       0xd8 examples/dfu/CMakeFiles/dfu_no_serial_nrf52832_xxAA_s132_3.1.0.dir/src/main.c.obj
 .text.startup.main
                0x0001f3b8      0x2a0 examples/dfu/CMakeFiles/dfu_no_serial_nrf52832_xxAA_s132_3.1.0.dir/src/main.c.obj
                0x0001f3b8                main
 .text.sd_evt_get
                0x0001f658        0x4 examples/dfu/CMakeFiles/dfu_no_serial_nrf52832_xxAA_s132_3.1.0.dir/__/nrf_mesh_sdk.c.obj
 .text.sd_softdevice_enable
                0x0001f65c        0x4 examples/dfu/CMakeFiles/dfu_no_serial_nrf52832_xxAA_s132_3.1.0.dir/__/nrf_mesh_sdk.c.obj
 .text.sd_ble_enable
                0x0001f660        0x4 examples/dfu/CMakeFiles/dfu_no_serial_nrf52832_xxAA_s132_3.1.0.dir/__/nrf_mesh_sdk.c.obj
 .text.sd_ble_evt_get
                0x0001f664        0x4 examples/dfu/CMakeFiles/dfu_no_serial_nrf52832_xxAA_s132_3.1.0.dir/__/nrf_mesh_sdk.c.obj
 .text.sleep_forever
                0x0001f668       0x1c examples/dfu/CMakeFiles/dfu_no_serial_nrf52832_xxAA_s132_3.1.0.dir/__/nrf_mesh_sdk.c.obj
 .text.mesh_assert_handler
                0x0001f684       0x64 examples/dfu/CMakeFiles/dfu_no_serial_nrf52832_xxAA_s132_3.1.0.dir/__/nrf_mesh_sdk.c.obj
                0x0001f684                mesh_assert_handler
 .text.softdevice_assert_handler
                0x0001f6e8       0x74 examples/dfu/CMakeFiles/dfu_no_serial_nrf52832_xxAA_s132_3.1.0.dir/__/nrf_mesh_sdk.c.obj
                0x0001f6e8                softdevice_assert_handler
 .text.app_error_handler
                0x0001f75c       0x74 examples/dfu/CMakeFiles/dfu_no_serial_nrf52832_xxAA_s132_3.1.0.dir/__/nrf_mesh_sdk.c.obj
                0x0001f75c                app_error_handler
 .text.HardFault_Handler
                0x0001f7d0       0x60 examples/dfu/CMakeFiles/dfu_no_serial_nrf52832_xxAA_s132_3.1.0.dir/__/nrf_mesh_sdk.c.obj
                0x0001f7d0                HardFault_Handler
 .text.SWI2_EGU2_IRQHandler
                0x0001f830       0x3c examples/dfu/CMakeFiles/dfu_no_serial_nrf52832_xxAA_s132_3.1.0.dir/__/nrf_mesh_sdk.c.obj
                0x0001f830                SWI2_EGU2_IRQHandler
 .text.mesh_softdevice_enable
                0x0001f86c      0x128 examples/dfu/CMakeFiles/dfu_no_serial_nrf52832_xxAA_s132_3.1.0.dir/__/nrf_mesh_sdk.c.obj
                0x0001f86c                mesh_softdevice_enable
 .text.mesh_softdevice_setup
                0x0001f994       0x80 examples/dfu/CMakeFiles/dfu_no_serial_nrf52832_xxAA_s132_3.1.0.dir/__/nrf_mesh_sdk.c.obj
                0x0001f994                mesh_softdevice_setup
 .text.mesh_core_setup
                0x0001fa14      0x150 examples/dfu/CMakeFiles/dfu_no_serial_nrf52832_xxAA_s132_3.1.0.dir/__/nrf_mesh_sdk.c.obj
                0x0001fa14                mesh_core_setup
 .text.bitfield_get
                0x0001fb64       0x1a examples/dfu/CMakeFiles/dfu_no_serial_nrf52832_xxAA_s132_3.1.0.dir/__/__/mesh/access/src/device_state_manager.c.obj
 *fill*         0x0001fb7e        0x2 
 .text.virtual_address_uuid_index_get
                0x0001fb80       0x60 examples/dfu/CMakeFiles/dfu_no_serial_nrf52832_xxAA_s132_3.1.0.dir/__/__/mesh/access/src/device_state_manager.c.obj
 .text.get_subnet_handle
                0x0001fbe0       0x3c examples/dfu/CMakeFiles/dfu_no_serial_nrf52832_xxAA_s132_3.1.0.dir/__/__/mesh/access/src/device_state_manager.c.obj
 .text.get_app_handle
                0x0001fc1c       0x48 examples/dfu/CMakeFiles/dfu_no_serial_nrf52832_xxAA_s132_3.1.0.dir/__/__/mesh/access/src/device_state_manager.c.obj
 .text.nrf_mesh_net_secmat_next_get
                0x0001fc64       0x74 examples/dfu/CMakeFiles/dfu_no_serial_nrf52832_xxAA_s132_3.1.0.dir/__/__/mesh/access/src/device_state_manager.c.obj
                0x0001fc64                nrf_mesh_net_secmat_next_get
 .text.nrf_mesh_app_secmat_next_get
                0x0001fcd8       0x9c examples/dfu/CMakeFiles/dfu_no_serial_nrf52832_xxAA_s132_3.1.0.dir/__/__/mesh/access/src/device_state_manager.c.obj
                0x0001fcd8                nrf_mesh_app_secmat_next_get
 .text.nrf_mesh_devkey_secmat_get
                0x0001fd74       0x34 examples/dfu/CMakeFiles/dfu_no_serial_nrf52832_xxAA_s132_3.1.0.dir/__/__/mesh/access/src/device_state_manager.c.obj
                0x0001fd74                nrf_mesh_devkey_secmat_get
 .text.nrf_mesh_beacon_info_next_get
                0x0001fda8       0xbc examples/dfu/CMakeFiles/dfu_no_serial_nrf52832_xxAA_s132_3.1.0.dir/__/__/mesh/access/src/device_state_manager.c.obj
                0x0001fda8                nrf_mesh_beacon_info_next_get
 .text.nrf_mesh_rx_address_get
                0x0001fe64      0x118 examples/dfu/CMakeFiles/dfu_no_serial_nrf52832_xxAA_s132_3.1.0.dir/__/__/mesh/access/src/device_state_manager.c.obj
                0x0001fe64                nrf_mesh_rx_address_get
 .text.prov_cb_link_opened
                0x0001ff7c        0x8 examples/dfu/CMakeFiles/dfu_no_serial_nrf52832_xxAA_s132_3.1.0.dir/__/__/mesh/prov/src/provisioning.c.obj
                0x0001ff7c                prov_cb_link_opened
 .text.prov_cb_link_closed
                0x0001ff84        0x8 examples/dfu/CMakeFiles/dfu_no_serial_nrf52832_xxAA_s132_3.1.0.dir/__/__/mesh/prov/src/provisioning.c.obj
                0x0001ff84                prov_cb_link_closed
 .text.prov_cb_pkt_in
                0x0001ff8c       0x7c examples/dfu/CMakeFiles/dfu_no_serial_nrf52832_xxAA_s132_3.1.0.dir/__/__/mesh/prov/src/provisioning.c.obj
                0x0001ff8c                prov_cb_pkt_in
 .text.prov_cb_ack_in
                0x00020008        0x8 examples/dfu/CMakeFiles/dfu_no_serial_nrf52832_xxAA_s132_3.1.0.dir/__/__/mesh/prov/src/provisioning.c.obj
                0x00020008                prov_cb_ack_in
 .text.prov_beacon_unprov_packet_in
                0x00020010       0xb0 examples/dfu/CMakeFiles/dfu_no_serial_nrf52832_xxAA_s132_3.1.0.dir/__/__/mesh/prov/src/prov_beacon.c.obj
                0x00020010                prov_beacon_unprov_packet_in
 .text.remove_active_bearer
                0x000200c0       0x60 examples/dfu/CMakeFiles/dfu_no_serial_nrf52832_xxAA_s132_3.1.0.dir/__/__/mesh/prov/src/prov_bearer_adv.c.obj
 .text.close_link
                0x00020120       0x68 examples/dfu/CMakeFiles/dfu_no_serial_nrf52832_xxAA_s132_3.1.0.dir/__/__/mesh/prov/src/prov_bearer_adv.c.obj
 .text.send_packet
                0x00020188       0x6c examples/dfu/CMakeFiles/dfu_no_serial_nrf52832_xxAA_s132_3.1.0.dir/__/__/mesh/prov/src/prov_bearer_adv.c.obj
 .text.send_link_close
                0x000201f4       0x38 examples/dfu/CMakeFiles/dfu_no_serial_nrf52832_xxAA_s132_3.1.0.dir/__/__/mesh/prov/src/prov_bearer_adv.c.obj
 .text.prov_bearer_adv_link_close
                0x0002022c       0x70 examples/dfu/CMakeFiles/dfu_no_serial_nrf52832_xxAA_s132_3.1.0.dir/__/__/mesh/prov/src/prov_bearer_adv.c.obj
 .text.send_transaction_ack
                0x0002029c       0x24 examples/dfu/CMakeFiles/dfu_no_serial_nrf52832_xxAA_s132_3.1.0.dir/__/__/mesh/prov/src/prov_bearer_adv.c.obj
 .text.send_link_ack
                0x000202c0       0x32 examples/dfu/CMakeFiles/dfu_no_serial_nrf52832_xxAA_s132_3.1.0.dir/__/__/mesh/prov/src/prov_bearer_adv.c.obj
 .text.reset_timeout_timer
                0x000202f2       0x1a examples/dfu/CMakeFiles/dfu_no_serial_nrf52832_xxAA_s132_3.1.0.dir/__/__/mesh/prov/src/prov_bearer_adv.c.obj
 .text.calculate_3GPP_CRC
                0x0002030c       0x24 examples/dfu/CMakeFiles/dfu_no_serial_nrf52832_xxAA_s132_3.1.0.dir/__/__/mesh/prov/src/prov_bearer_adv.c.obj
                0x0002030c                calculate_3GPP_CRC
 .text.prov_buffer_rx
                0x00020330       0x74 examples/dfu/CMakeFiles/dfu_no_serial_nrf52832_xxAA_s132_3.1.0.dir/__/__/mesh/prov/src/prov_bearer_adv.c.obj
 .text.prov_bearer_adv_packet_in
                0x000203a4      0x80c examples/dfu/CMakeFiles/dfu_no_serial_nrf52832_xxAA_s132_3.1.0.dir/__/__/mesh/prov/src/prov_bearer_adv.c.obj
                0x000203a4                prov_bearer_adv_packet_in
 .text.tx_complete_cb
                0x00020bb0        0x2 examples/dfu/CMakeFiles/dfu_no_serial_nrf52832_xxAA_s132_3.1.0.dir/__/__/mesh/dfu/src/nrf_mesh_dfu.c.obj
 *fill*         0x00020bb2        0x2 
 .text.reset_transfer_state
                0x00020bb4       0x24 examples/dfu/CMakeFiles/dfu_no_serial_nrf52832_xxAA_s132_3.1.0.dir/__/__/mesh/dfu/src/nrf_mesh_dfu.c.obj
 .text.end_transfer
                0x00020bd8       0x48 examples/dfu/CMakeFiles/dfu_no_serial_nrf52832_xxAA_s132_3.1.0.dir/__/__/mesh/dfu/src/nrf_mesh_dfu.c.obj
 .text.dfu_evt_handler
                0x00020c20      0x820 examples/dfu/CMakeFiles/dfu_no_serial_nrf52832_xxAA_s132_3.1.0.dir/__/__/mesh/dfu/src/nrf_mesh_dfu.c.obj
 .text.next_tx_timeout
                0x00021440       0x64 examples/dfu/CMakeFiles/dfu_no_serial_nrf52832_xxAA_s132_3.1.0.dir/__/__/mesh/dfu/src/nrf_mesh_dfu.c.obj
 .text.tx_timeout
                0x000214a4      0x108 examples/dfu/CMakeFiles/dfu_no_serial_nrf52832_xxAA_s132_3.1.0.dir/__/__/mesh/dfu/src/nrf_mesh_dfu.c.obj
 .text.nrf_mesh_dfu_cmd_send
                0x000215ac       0x90 examples/dfu/CMakeFiles/dfu_no_serial_nrf52832_xxAA_s132_3.1.0.dir/__/__/mesh/dfu/src/nrf_mesh_dfu.c.obj
                0x000215ac                nrf_mesh_dfu_cmd_send
 .text.nrf_mesh_dfu_init
                0x0002163c      0x158 examples/dfu/CMakeFiles/dfu_no_serial_nrf52832_xxAA_s132_3.1.0.dir/__/__/mesh/dfu/src/nrf_mesh_dfu.c.obj
                0x0002163c                nrf_mesh_dfu_init
 .text.flash_op_complete
                0x00021794      0x160 examples/dfu/CMakeFiles/dfu_no_serial_nrf52832_xxAA_s132_3.1.0.dir/__/__/mesh/dfu/src/nrf_mesh_dfu.c.obj
 .text.abort_timeout
                0x000218f4       0x80 examples/dfu/CMakeFiles/dfu_no_serial_nrf52832_xxAA_s132_3.1.0.dir/__/__/mesh/dfu/src/nrf_mesh_dfu.c.obj
 .text.timer_timeout
                0x00021974       0x7c examples/dfu/CMakeFiles/dfu_no_serial_nrf52832_xxAA_s132_3.1.0.dir/__/__/mesh/dfu/src/nrf_mesh_dfu.c.obj
 .text.nrf_mesh_dfu_rx
                0x000219f0       0xc8 examples/dfu/CMakeFiles/dfu_no_serial_nrf52832_xxAA_s132_3.1.0.dir/__/__/mesh/dfu/src/nrf_mesh_dfu.c.obj
                0x000219f0                nrf_mesh_dfu_rx
 .text.nrf_mesh_dfu_request
                0x00021ab8       0x98 examples/dfu/CMakeFiles/dfu_no_serial_nrf52832_xxAA_s132_3.1.0.dir/__/__/mesh/dfu/src/nrf_mesh_dfu.c.obj
                0x00021ab8                nrf_mesh_dfu_request
 .text.nrf_mesh_dfu_relay
                0x00021b50       0x68 examples/dfu/CMakeFiles/dfu_no_serial_nrf52832_xxAA_s132_3.1.0.dir/__/__/mesh/dfu/src/nrf_mesh_dfu.c.obj
                0x00021b50                nrf_mesh_dfu_relay
 .text.nrf_mesh_dfu_bank_flash
                0x00021bb8       0x28 examples/dfu/CMakeFiles/dfu_no_serial_nrf52832_xxAA_s132_3.1.0.dir/__/__/mesh/dfu/src/nrf_mesh_dfu.c.obj
                0x00021bb8                nrf_mesh_dfu_bank_flash
 .text.errata_57
                0x00021be0       0x34 examples/dfu/CMakeFiles/dfu_no_serial_nrf52832_xxAA_s132_3.1.0.dir/__/__/external/nRF5_SDK_14.0.0_3bcc1f7/components/toolchain/system_nrf52.c.obj
 .text.errata_136
                0x00021c14       0x40 examples/dfu/CMakeFiles/dfu_no_serial_nrf52832_xxAA_s132_3.1.0.dir/__/__/external/nRF5_SDK_14.0.0_3bcc1f7/components/toolchain/system_nrf52.c.obj
 .text.SystemInit
                0x00021c54      0x238 examples/dfu/CMakeFiles/dfu_no_serial_nrf52832_xxAA_s132_3.1.0.dir/__/__/external/nRF5_SDK_14.0.0_3bcc1f7/components/toolchain/system_nrf52.c.obj
                0x00021c54                SystemInit
 .text          0x00021e8c       0x3c examples/dfu/CMakeFiles/dfu_no_serial_nrf52832_xxAA_s132_3.1.0.dir/__/__/external/nRF5_SDK_14.0.0_3bcc1f7/components/toolchain/gcc/gcc_startup_nrf52.S.obj
                0x00021e8c                Reset_Handler
                0x00021eb4                NMI_Handler
                0x00021eb8                MemoryManagement_Handler
                0x00021eba                BusFault_Handler
                0x00021ebc                UsageFault_Handler
                0x00021ebe                SVC_Handler
                0x00021ec0                DebugMon_Handler
                0x00021ec2                PendSV_Handler
                0x00021ec4                SysTick_Handler
                0x00021ec6                POWER_CLOCK_IRQHandler
                0x00021ec6                RADIO_IRQHandler
                0x00021ec6                PDM_IRQHandler
                0x00021ec6                TEMP_IRQHandler
                0x00021ec6                TIMER3_IRQHandler
                0x00021ec6                FPU_IRQHandler
                0x00021ec6                SPIM0_SPIS0_TWIM0_TWIS0_SPI0_TWI0_IRQHandler
                0x00021ec6                PWM1_IRQHandler
                0x00021ec6                UARTE0_UART0_IRQHandler
                0x00021ec6                TIMER4_IRQHandler
                0x00021ec6                RTC0_IRQHandler
                0x00021ec6                SWI4_EGU4_IRQHandler
                0x00021ec6                TIMER0_IRQHandler
                0x00021ec6                GPIOTE_IRQHandler
                0x00021ec6                TIMER1_IRQHandler
                0x00021ec6                PWM2_IRQHandler
                0x00021ec6                ECB_IRQHandler
                0x00021ec6                SPIM1_SPIS1_TWIM1_TWIS1_SPI1_TWI1_IRQHandler
                0x00021ec6                Default_Handler
                0x00021ec6                SAADC_IRQHandler
                0x00021ec6                CCM_AAR_IRQHandler
                0x00021ec6                WDT_IRQHandler
                0x00021ec6                I2S_IRQHandler
                0x00021ec6                SWI5_EGU5_IRQHandler
                0x00021ec6                RNG_IRQHandler
                0x00021ec6                RTC2_IRQHandler
                0x00021ec6                PWM0_IRQHandler
                0x00021ec6                SWI3_EGU3_IRQHandler
                0x00021ec6                RTC1_IRQHandler
                0x00021ec6                SWI1_EGU1_IRQHandler
                0x00021ec6                SPIM2_SPIS2_SPI2_IRQHandler
                0x00021ec6                NFCT_IRQHandler
                0x00021ec6                SWI0_EGU0_IRQHandler
                0x00021ec6                MWU_IRQHandler
                0x00021ec6                TIMER2_IRQHandler
                0x00021ec6                COMP_LPCOMP_IRQHandler
 .text.nrf_mesh_configure_device_uuid_reset
                0x00021ec8       0x28 mesh/core/libmesh_core_nrf52832_xxAA.a(nrf_mesh_configure.c.obj)
                0x00021ec8                nrf_mesh_configure_device_uuid_reset
 .text.nrf_mesh_configure_device_uuid_get
                0x00021ef0        0x8 mesh/core/libmesh_core_nrf52832_xxAA.a(nrf_mesh_configure.c.obj)
                0x00021ef0                nrf_mesh_configure_device_uuid_get
 .text.event_handle
                0x00021ef8       0x30 mesh/core/libmesh_core_nrf52832_xxAA.a(event.c.obj)
                0x00021ef8                event_handle
 .text.event_handler_add
                0x00021f28       0x78 mesh/core/libmesh_core_nrf52832_xxAA.a(event.c.obj)
                0x00021f28                event_handler_add
 .text.flash_mem_available
                0x00021fa0       0x20 mesh/core/libmesh_core_nrf52832_xxAA.a(net_state.c.obj)
 .text.flash_store_iv_index
                0x00021fc0       0x38 mesh/core/libmesh_core_nrf52832_xxAA.a(net_state.c.obj)
 .text.seqnum_block_allocate
                0x00021ff8       0x48 mesh/core/libmesh_core_nrf52832_xxAA.a(net_state.c.obj)
 .text.flash_write_complete
                0x00022040       0x78 mesh/core/libmesh_core_nrf52832_xxAA.a(net_state.c.obj)
 .text.net_state_recover_from_flash
                0x000220b8       0x84 mesh/core/libmesh_core_nrf52832_xxAA.a(net_state.c.obj)
                0x000220b8                net_state_recover_from_flash
 .text.net_state_flash_area_get
                0x0002213c        0xc mesh/core/libmesh_core_nrf52832_xxAA.a(net_state.c.obj)
                0x0002213c                net_state_flash_area_get
 .text.init_flash_storage
                0x00022148       0x40 mesh/core/libmesh_core_nrf52832_xxAA.a(net_state.c.obj)
 .text.net_state_init
                0x00022188       0x48 mesh/core/libmesh_core_nrf52832_xxAA.a(net_state.c.obj)
                0x00022188                net_state_init
 .text.net_state_iv_update_start
                0x000221d0       0x64 mesh/core/libmesh_core_nrf52832_xxAA.a(net_state.c.obj)
                0x000221d0                net_state_iv_update_start
 .text.iv_update_trigger_if_pending
                0x00022234       0x8c mesh/core/libmesh_core_nrf52832_xxAA.a(net_state.c.obj)
 .text.iv_update_timer_handler
                0x000222c0       0x74 mesh/core/libmesh_core_nrf52832_xxAA.a(net_state.c.obj)
 .text.net_state_seqnum_alloc
                0x00022334       0x68 mesh/core/libmesh_core_nrf52832_xxAA.a(net_state.c.obj)
                0x00022334                net_state_seqnum_alloc
 .text.net_state_iv_index_lock
                0x0002239c       0x48 mesh/core/libmesh_core_nrf52832_xxAA.a(net_state.c.obj)
                0x0002239c                net_state_iv_index_lock
 .text.net_state_beacon_received
                0x000223e4       0x94 mesh/core/libmesh_core_nrf52832_xxAA.a(net_state.c.obj)
                0x000223e4                net_state_beacon_received
 .text.net_state_beacon_iv_index_get
                0x00022478        0xc mesh/core/libmesh_core_nrf52832_xxAA.a(net_state.c.obj)
                0x00022478                net_state_beacon_iv_index_get
 .text.net_state_tx_iv_index_get
                0x00022484       0x14 mesh/core/libmesh_core_nrf52832_xxAA.a(net_state.c.obj)
                0x00022484                net_state_tx_iv_index_get
 .text.net_state_rx_iv_index_get
                0x00022498       0x18 mesh/core/libmesh_core_nrf52832_xxAA.a(net_state.c.obj)
                0x00022498                net_state_rx_iv_index_get
 .text.net_state_iv_update_get
                0x000224b0        0xc mesh/core/libmesh_core_nrf52832_xxAA.a(net_state.c.obj)
                0x000224b0                net_state_iv_update_get
 .text.send_end_events
                0x000224bc       0x80 mesh/core/libmesh_core_nrf52832_xxAA.a(mesh_flash.c.obj)
 .text.flash_op_schedule
                0x0002253c       0x9c mesh/core/libmesh_core_nrf52832_xxAA.a(mesh_flash.c.obj)
 .text.flash_op_start
                0x000225d8      0x170 mesh/core/libmesh_core_nrf52832_xxAA.a(mesh_flash.c.obj)
 .text.mesh_flash_init
                0x00022748       0x88 mesh/core/libmesh_core_nrf52832_xxAA.a(mesh_flash.c.obj)
                0x00022748                mesh_flash_init
 .text.mesh_flash_user_callback_set
                0x000227d0       0x2c mesh/core/libmesh_core_nrf52832_xxAA.a(mesh_flash.c.obj)
                0x000227d0                mesh_flash_user_callback_set
 .text.mesh_flash_op_push
                0x000227fc      0x128 mesh/core/libmesh_core_nrf52832_xxAA.a(mesh_flash.c.obj)
                0x000227fc                mesh_flash_op_push
 .text.mesh_flash_in_progress
                0x00022924       0x34 mesh/core/libmesh_core_nrf52832_xxAA.a(mesh_flash.c.obj)
                0x00022924                mesh_flash_in_progress
 .text.mesh_flash_set_suspended
                0x00022958       0x80 mesh/core/libmesh_core_nrf52832_xxAA.a(mesh_flash.c.obj)
                0x00022958                mesh_flash_set_suspended
 .text.nrf_mesh_address_type_get
                0x000229d8       0x10 mesh/core/libmesh_core_nrf52832_xxAA.a(nrf_mesh_utils.c.obj)
                0x000229d8                nrf_mesh_address_type_get
 .text.sd_softdevice_is_enabled
                0x000229e8        0x4 mesh/core/libmesh_core_nrf52832_xxAA.a(nrf_mesh.c.obj)
 .text.nrf_mesh_init
                0x000229ec       0xbc mesh/core/libmesh_core_nrf52832_xxAA.a(nrf_mesh.c.obj)
                0x000229ec                nrf_mesh_init
 .text.nrf_mesh_enable
                0x00022aa8       0x48 mesh/core/libmesh_core_nrf52832_xxAA.a(nrf_mesh.c.obj)
                0x00022aa8                nrf_mesh_enable
 .text.nrf_mesh_process
                0x00022af0      0x1c0 mesh/core/libmesh_core_nrf52832_xxAA.a(nrf_mesh.c.obj)
                0x00022af0                nrf_mesh_process
 .text.nrf_mesh_on_ble_evt
                0x00022cb0        0x4 mesh/core/libmesh_core_nrf52832_xxAA.a(nrf_mesh.c.obj)
                0x00022cb0                nrf_mesh_on_ble_evt
 .text.nrf_mesh_on_sd_evt
                0x00022cb4        0xa mesh/core/libmesh_core_nrf52832_xxAA.a(nrf_mesh.c.obj)
                0x00022cb4                nrf_mesh_on_sd_evt
 .text.nrf_mesh_evt_handler_add
                0x00022cbe        0x4 mesh/core/libmesh_core_nrf52832_xxAA.a(nrf_mesh.c.obj)
                0x00022cbe                nrf_mesh_evt_handler_add
 *fill*         0x00022cc2        0x2 
 .text.hal_lfclk_ppm_get
                0x00022cc4       0x14 mesh/core/libmesh_core_nrf52832_xxAA.a(hal.c.obj)
                0x00022cc4                hal_lfclk_ppm_get
 .text.add_to_add_list
                0x00022cd8       0x44 mesh/core/libmesh_core_nrf52832_xxAA.a(timer_scheduler.c.obj)
 .text.process_dirty_events
                0x00022d1c       0x6c mesh/core/libmesh_core_nrf52832_xxAA.a(timer_scheduler.c.obj)
 .text.timer_cb
                0x00022d88        0xc mesh/core/libmesh_core_nrf52832_xxAA.a(timer_scheduler.c.obj)
 .text.add_evt.constprop.0
                0x00022d94       0x68 mesh/core/libmesh_core_nrf52832_xxAA.a(timer_scheduler.c.obj)
 .text.process_add_list
                0x00022dfc       0x48 mesh/core/libmesh_core_nrf52832_xxAA.a(timer_scheduler.c.obj)
 .text.flag_event_cb
                0x00022e44      0x104 mesh/core/libmesh_core_nrf52832_xxAA.a(timer_scheduler.c.obj)
 .text.timer_sch_init
                0x00022f48       0x24 mesh/core/libmesh_core_nrf52832_xxAA.a(timer_scheduler.c.obj)
                0x00022f48                timer_sch_init
 .text.timer_sch_schedule
                0x00022f6c       0x50 mesh/core/libmesh_core_nrf52832_xxAA.a(timer_scheduler.c.obj)
                0x00022f6c                timer_sch_schedule
 .text.timer_sch_abort
                0x00022fbc       0x64 mesh/core/libmesh_core_nrf52832_xxAA.a(timer_scheduler.c.obj)
                0x00022fbc                timer_sch_abort
 .text.timer_sch_reschedule
                0x00023020       0x70 mesh/core/libmesh_core_nrf52832_xxAA.a(timer_scheduler.c.obj)
                0x00023020                timer_sch_reschedule
 .text.timer_mut_unlock
                0x00023090       0x10 mesh/core/libmesh_core_nrf52832_xxAA.a(timer.c.obj)
 .text.timer_order_cb
                0x000230a0       0x94 mesh/core/libmesh_core_nrf52832_xxAA.a(timer.c.obj)
                0x000230a0                timer_order_cb
 .text.timer_now
                0x00023134       0x48 mesh/core/libmesh_core_nrf52832_xxAA.a(timer.c.obj)
                0x00023134                timer_now
 .text.timer_event_handler
                0x0002317c       0x90 mesh/core/libmesh_core_nrf52832_xxAA.a(timer.c.obj)
                0x0002317c                timer_event_handler
 .text.timer_on_ts_begin
                0x0002320c       0xfc mesh/core/libmesh_core_nrf52832_xxAA.a(timer.c.obj)
                0x0002320c                timer_on_ts_begin
 .text.timer_on_ts_end
                0x00023308       0x60 mesh/core/libmesh_core_nrf52832_xxAA.a(timer.c.obj)
                0x00023308                timer_on_ts_end
 .text.timer_cb
                0x00023368       0x10 mesh/core/libmesh_core_nrf52832_xxAA.a(ticker.c.obj)
 .text.ticker_init
                0x00023378       0x3c mesh/core/libmesh_core_nrf52832_xxAA.a(ticker.c.obj)
                0x00023378                ticker_init
 .text.sd_rand_application_bytes_available_get
                0x000233b4        0x4 mesh/core/libmesh_core_nrf52832_xxAA.a(rand.c.obj)
 .text.sd_rand_application_vector_get
                0x000233b8        0x4 mesh/core/libmesh_core_nrf52832_xxAA.a(rand.c.obj)
 .text.rand_prng_get
                0x000233bc       0x22 mesh/core/libmesh_core_nrf52832_xxAA.a(rand.c.obj)
                0x000233bc                rand_prng_get
 *fill*         0x000233de        0x2 
 .text.rand_hw_rng_get
                0x000233e0       0x50 mesh/core/libmesh_core_nrf52832_xxAA.a(rand.c.obj)
                0x000233e0                rand_hw_rng_get
 .text.rand_prng_seed
                0x00023430       0x34 mesh/core/libmesh_core_nrf52832_xxAA.a(rand.c.obj)
                0x00023430                rand_prng_seed
 .text.sd_radio_session_open
                0x00023464        0x4 mesh/core/libmesh_core_nrf52832_xxAA.a(timeslot.c.obj)
 .text.sd_radio_session_close
                0x00023468        0x4 mesh/core/libmesh_core_nrf52832_xxAA.a(timeslot.c.obj)
 .text.sd_radio_request
                0x0002346c        0x4 mesh/core/libmesh_core_nrf52832_xxAA.a(timeslot.c.obj)
 .text.end_timer_handler
                0x00023470       0x24 mesh/core/libmesh_core_nrf52832_xxAA.a(timeslot.c.obj)
 .text.get_end_time.constprop.10
                0x00023494       0x28 mesh/core/libmesh_core_nrf52832_xxAA.a(timeslot.c.obj)
 .text.handle_extend_end.constprop.3
                0x000234bc       0xc0 mesh/core/libmesh_core_nrf52832_xxAA.a(timeslot.c.obj)
 .text.radio_signal_callback
                0x0002357c      0x14c mesh/core/libmesh_core_nrf52832_xxAA.a(timeslot.c.obj)
 .text.timeslot_sd_event_handler
                0x000236c8       0x44 mesh/core/libmesh_core_nrf52832_xxAA.a(timeslot.c.obj)
                0x000236c8                timeslot_sd_event_handler
 .text.timeslot_init
                0x0002370c       0x48 mesh/core/libmesh_core_nrf52832_xxAA.a(timeslot.c.obj)
                0x0002370c                timeslot_init
 .text.timeslot_start
                0x00023754       0x20 mesh/core/libmesh_core_nrf52832_xxAA.a(timeslot.c.obj)
                0x00023754                timeslot_start
 .text.timeslot_end_is_pending
                0x00023774       0x24 mesh/core/libmesh_core_nrf52832_xxAA.a(timeslot.c.obj)
                0x00023774                timeslot_end_is_pending
 .text.timeslot_start_time_get
                0x00023798        0xc mesh/core/libmesh_core_nrf52832_xxAA.a(timeslot.c.obj)
                0x00023798                timeslot_start_time_get
 .text.timeslot_remaining_time_get
                0x000237a4       0x20 mesh/core/libmesh_core_nrf52832_xxAA.a(timeslot.c.obj)
                0x000237a4                timeslot_remaining_time_get
 .text.timeslot_is_in_cb
                0x000237c4        0xc mesh/core/libmesh_core_nrf52832_xxAA.a(timeslot.c.obj)
                0x000237c4                timeslot_is_in_cb
 .text.timeslot_trigger
                0x000237d0       0x24 mesh/core/libmesh_core_nrf52832_xxAA.a(timeslot.c.obj)
                0x000237d0                timeslot_trigger
 .text.timeslot_stop
                0x000237f4       0x10 mesh/core/libmesh_core_nrf52832_xxAA.a(timeslot.c.obj)
                0x000237f4                timeslot_stop
 .text.timeslot_state_lock
                0x00023804       0x28 mesh/core/libmesh_core_nrf52832_xxAA.a(timeslot.c.obj)
                0x00023804                timeslot_state_lock
 .text.evt_push
                0x0002382c       0x24 mesh/core/libmesh_core_nrf52832_xxAA.a(bearer_event.c.obj)
 .text.QDEC_IRQHandler
                0x00023850       0xc4 mesh/core/libmesh_core_nrf52832_xxAA.a(bearer_event.c.obj)
                0x00023850                QDEC_IRQHandler
 .text.bearer_event_init
                0x00023914       0x38 mesh/core/libmesh_core_nrf52832_xxAA.a(bearer_event.c.obj)
                0x00023914                bearer_event_init
 .text.bearer_event_timer_post
                0x0002394c       0x30 mesh/core/libmesh_core_nrf52832_xxAA.a(bearer_event.c.obj)
                0x0002394c                bearer_event_timer_post
 .text.bearer_event_critical_section_begin
                0x0002397c       0x44 mesh/core/libmesh_core_nrf52832_xxAA.a(bearer_event.c.obj)
                0x0002397c                bearer_event_critical_section_begin
 .text.bearer_event_critical_section_end
                0x000239c0       0x40 mesh/core/libmesh_core_nrf52832_xxAA.a(bearer_event.c.obj)
                0x000239c0                bearer_event_critical_section_end
 .text.bearer_event_flag_add
                0x00023a00       0x50 mesh/core/libmesh_core_nrf52832_xxAA.a(bearer_event.c.obj)
                0x00023a00                bearer_event_flag_add
 .text.bearer_event_flag_set
                0x00023a50       0x58 mesh/core/libmesh_core_nrf52832_xxAA.a(bearer_event.c.obj)
                0x00023a50                bearer_event_flag_set
 .text.bearer_event_sequential_add
                0x00023aa8       0x44 mesh/core/libmesh_core_nrf52832_xxAA.a(bearer_event.c.obj)
                0x00023aa8                bearer_event_sequential_add
 .text.bearer_event_sequential_post
                0x00023aec       0x64 mesh/core/libmesh_core_nrf52832_xxAA.a(bearer_event.c.obj)
                0x00023aec                bearer_event_sequential_post
 .text.bearer_event_sequential_pending
                0x00023b50       0x1c mesh/core/libmesh_core_nrf52832_xxAA.a(bearer_event.c.obj)
                0x00023b50                bearer_event_sequential_pending
 .text.enc_aes_encrypt
                0x00023b6c        0x4 mesh/core/libmesh_core_nrf52832_xxAA.a(enc.c.obj)
                0x00023b6c                enc_aes_encrypt
 .text.enc_aes_cmac
                0x00023b70        0x4 mesh/core/libmesh_core_nrf52832_xxAA.a(enc.c.obj)
                0x00023b70                enc_aes_cmac
 .text.enc_aes_ccm_encrypt
                0x00023b74        0x4 mesh/core/libmesh_core_nrf52832_xxAA.a(enc.c.obj)
                0x00023b74                enc_aes_ccm_encrypt
 .text.enc_aes_ccm_decrypt
                0x00023b78        0x4 mesh/core/libmesh_core_nrf52832_xxAA.a(enc.c.obj)
                0x00023b78                enc_aes_ccm_decrypt
 .text.enc_nonce_generate
                0x00023b7c       0xb8 mesh/core/libmesh_core_nrf52832_xxAA.a(enc.c.obj)
                0x00023b7c                enc_nonce_generate
 .text.enc_s1   0x00023c34       0x38 mesh/core/libmesh_core_nrf52832_xxAA.a(enc.c.obj)
                0x00023c34                enc_s1
 .text.header_transfuscate
                0x00023c6c       0x54 mesh/core/libmesh_core_nrf52832_xxAA.a(network.c.obj)
 .text.allocate_packet
                0x00023cc0      0x14c mesh/core/libmesh_core_nrf52832_xxAA.a(network.c.obj)
 .text.network_init
                0x00023e0c       0x2c mesh/core/libmesh_core_nrf52832_xxAA.a(network.c.obj)
                0x00023e0c                network_init
 .text.network_packet_alloc
                0x00023e38       0x50 mesh/core/libmesh_core_nrf52832_xxAA.a(network.c.obj)
                0x00023e38                network_packet_alloc
 .text.network_packet_send
                0x00023e88      0x140 mesh/core/libmesh_core_nrf52832_xxAA.a(network.c.obj)
                0x00023e88                network_packet_send
 .text.network_packet_in
                0x00023fc8      0x450 mesh/core/libmesh_core_nrf52832_xxAA.a(network.c.obj)
                0x00023fc8                network_packet_in
 .text.stage_get_available
                0x00024418       0x24 mesh/core/libmesh_core_nrf52832_xxAA.a(msqueue.c.obj)
 .text.msq_get  0x0002443c       0x4c mesh/core/libmesh_core_nrf52832_xxAA.a(msqueue.c.obj)
                0x0002443c                msq_get
 .text.msq_move
                0x00024488       0x44 mesh/core/libmesh_core_nrf52832_xxAA.a(msqueue.c.obj)
                0x00024488                msq_move
 .text.msq_reset
                0x000244cc       0x2c mesh/core/libmesh_core_nrf52832_xxAA.a(msqueue.c.obj)
                0x000244cc                msq_reset
 .text.msq_init
                0x000244f8       0x78 mesh/core/libmesh_core_nrf52832_xxAA.a(msqueue.c.obj)
                0x000244f8                msq_init
 .text.msq_available
                0x00024570       0x3c mesh/core/libmesh_core_nrf52832_xxAA.a(msqueue.c.obj)
                0x00024570                msq_available
 .text.log_callback_rtt
                0x000245ac       0x2c mesh/core/libmesh_core_nrf52832_xxAA.a(log.c.obj)
                0x000245ac                log_callback_rtt
 .text.log_init
                0x000245d8       0x1c mesh/core/libmesh_core_nrf52832_xxAA.a(log.c.obj)
                0x000245d8                log_init
 .text.log_vprintf
                0x000245f4       0x18 mesh/core/libmesh_core_nrf52832_xxAA.a(log.c.obj)
                0x000245f4                log_vprintf
 .text.log_printf
                0x0002460c       0x18 mesh/core/libmesh_core_nrf52832_xxAA.a(log.c.obj)
                0x0002460c                log_printf
 .text.get_area_end
                0x00024624        0xc mesh/core/libmesh_core_nrf52832_xxAA.a(flash_manager.c.obj)
 .text.handle_matches_filter
                0x00024630       0x26 mesh/core/libmesh_core_nrf52832_xxAA.a(flash_manager.c.obj)
 *fill*         0x00024656        0x2 
 .text.get_packet_buffer
                0x00024658       0x2c mesh/core/libmesh_core_nrf52832_xxAA.a(flash_manager.c.obj)
 .text.get_entry_action
                0x00024684       0x30 mesh/core/libmesh_core_nrf52832_xxAA.a(flash_manager.c.obj)
 .text.flash_area_is_blank
                0x000246b4       0x48 mesh/core/libmesh_core_nrf52832_xxAA.a(flash_manager.c.obj)
 .text.flash    0x000246fc       0x1c mesh/core/libmesh_core_nrf52832_xxAA.a(flash_manager.c.obj)
 .text.free_packet_buffer
                0x00024718       0x54 mesh/core/libmesh_core_nrf52832_xxAA.a(flash_manager.c.obj)
 .text.reserve_action_buffer
                0x0002476c       0x24 mesh/core/libmesh_core_nrf52832_xxAA.a(flash_manager.c.obj)
 .text.commit_action_buffer
                0x00024790       0x18 mesh/core/libmesh_core_nrf52832_xxAA.a(flash_manager.c.obj)
 .text.schedule_processing
                0x000247a8        0xc mesh/core/libmesh_core_nrf52832_xxAA.a(flash_manager.c.obj)
 .text.get_next_entry
                0x000247b4       0x40 mesh/core/libmesh_core_nrf52832_xxAA.a(flash_manager.c.obj)
 .text.get_last_entry.isra.1
                0x000247f4       0x30 mesh/core/libmesh_core_nrf52832_xxAA.a(flash_manager.c.obj)
 .text.process_action_queue
                0x00024824      0x4e0 mesh/core/libmesh_core_nrf52832_xxAA.a(flash_manager.c.obj)
 .text.flash_op_ended_callback
                0x00024d04       0x24 mesh/core/libmesh_core_nrf52832_xxAA.a(flash_manager.c.obj)
 .text.flash_manager_init
                0x00024d28       0x68 mesh/core/libmesh_core_nrf52832_xxAA.a(flash_manager.c.obj)
                0x00024d28                flash_manager_init
 .text.flash_manager_entry_next_get
                0x00024d90       0x6c mesh/core/libmesh_core_nrf52832_xxAA.a(flash_manager.c.obj)
                0x00024d90                flash_manager_entry_next_get
 .text.flash_manager_entry_alloc
                0x00024dfc       0x78 mesh/core/libmesh_core_nrf52832_xxAA.a(flash_manager.c.obj)
                0x00024dfc                flash_manager_entry_alloc
 .text.flash_manager_entry_commit
                0x00024e74       0x12 mesh/core/libmesh_core_nrf52832_xxAA.a(flash_manager.c.obj)
                0x00024e74                flash_manager_entry_commit
 *fill*         0x00024e86        0x2 
 .text.flash_manager_entry_invalidate
                0x00024e88       0x64 mesh/core/libmesh_core_nrf52832_xxAA.a(flash_manager.c.obj)
                0x00024e88                flash_manager_entry_invalidate
 .text.flash_manager_add
                0x00024eec      0x248 mesh/core/libmesh_core_nrf52832_xxAA.a(flash_manager.c.obj)
                0x00024eec                flash_manager_add
 .text.flash_manager_mem_listener_register
                0x00025134       0x44 mesh/core/libmesh_core_nrf52832_xxAA.a(flash_manager.c.obj)
                0x00025134                flash_manager_mem_listener_register
 .text.flash_manager_is_stable
                0x00025178       0x24 mesh/core/libmesh_core_nrf52832_xxAA.a(flash_manager.c.obj)
                0x00025178                flash_manager_is_stable
 .text.flash_manager_on_defrag_end
                0x0002519c       0x58 mesh/core/libmesh_core_nrf52832_xxAA.a(flash_manager.c.obj)
                0x0002519c                flash_manager_on_defrag_end
 .text.flash_manager_recovery_page_get
                0x000251f4        0x4 mesh/core/libmesh_core_nrf52832_xxAA.a(flash_manager.c.obj)
                0x000251f4                flash_manager_recovery_page_get
 .text.utils_xor
                0x000251f8       0x14 mesh/core/libmesh_core_nrf52832_xxAA.a(ccm_soft.c.obj)
 .text.ccm_soft_authenticate_blocks
                0x0002520c       0x68 mesh/core/libmesh_core_nrf52832_xxAA.a(ccm_soft.c.obj)
 .text.utils_reverse_memcpy.constprop.0
                0x00025274        0xa mesh/core/libmesh_core_nrf52832_xxAA.a(ccm_soft.c.obj)
 .text.ccm_soft_authenticate
                0x0002527e       0xa0 mesh/core/libmesh_core_nrf52832_xxAA.a(ccm_soft.c.obj)
 .text.ccm_soft_crypt
                0x0002531e       0x6c mesh/core/libmesh_core_nrf52832_xxAA.a(ccm_soft.c.obj)
 .text.ccm_soft_encrypt
                0x0002538a       0x70 mesh/core/libmesh_core_nrf52832_xxAA.a(ccm_soft.c.obj)
                0x0002538a                ccm_soft_encrypt
 .text.ccm_soft_decrypt
                0x000253fa       0xfe mesh/core/libmesh_core_nrf52832_xxAA.a(ccm_soft.c.obj)
                0x000253fa                ccm_soft_decrypt
 .text.beacon_init
                0x000254f8       0x48 mesh/core/libmesh_core_nrf52832_xxAA.a(beacon.c.obj)
                0x000254f8                beacon_init
 .text.beacon_create
                0x00025540       0x46 mesh/core/libmesh_core_nrf52832_xxAA.a(beacon.c.obj)
                0x00025540                beacon_create
 *fill*         0x00025586        0x2 
 .text.beacon_tx
                0x00025588       0x3c mesh/core/libmesh_core_nrf52832_xxAA.a(beacon.c.obj)
                0x00025588                beacon_tx
 .text.beacon_packet_in
                0x000255c4      0x160 mesh/core/libmesh_core_nrf52832_xxAA.a(beacon.c.obj)
                0x000255c4                beacon_packet_in
 .text.entry_get
                0x00025724       0x88 mesh/core/libmesh_core_nrf52832_xxAA.a(flash_manager_internal.c.obj)
                0x00025724                entry_get
 .text.adv_tx_complete_callback
                0x000257ac       0x50 mesh/core/libmesh_core_nrf52832_xxAA.a(core_tx.c.obj)
 .text.core_tx_init
                0x000257fc       0x4c mesh/core/libmesh_core_nrf52832_xxAA.a(core_tx.c.obj)
                0x000257fc                core_tx_init
 .text.core_tx_complete_cb_set
                0x00025848        0xc mesh/core/libmesh_core_nrf52832_xxAA.a(core_tx.c.obj)
                0x00025848                core_tx_complete_cb_set
 .text.core_tx_packet_alloc
                0x00025854       0x98 mesh/core/libmesh_core_nrf52832_xxAA.a(core_tx.c.obj)
                0x00025854                core_tx_packet_alloc
 .text.core_tx_packet_send
                0x000258ec       0x6c mesh/core/libmesh_core_nrf52832_xxAA.a(core_tx.c.obj)
                0x000258ec                core_tx_packet_send
 .text.core_tx_packet_discard
                0x00025958       0x6c mesh/core/libmesh_core_nrf52832_xxAA.a(core_tx.c.obj)
                0x00025958                core_tx_packet_discard
 .text.network_beacon_tx_cb
                0x000259c4       0xe0 mesh/core/libmesh_core_nrf52832_xxAA.a(net_beacon.c.obj)
 .text.net_beacon_init
                0x00025aa4       0x60 mesh/core/libmesh_core_nrf52832_xxAA.a(net_beacon.c.obj)
                0x00025aa4                net_beacon_init
 .text.net_beacon_packet_in
                0x00025b04       0xb8 mesh/core/libmesh_core_nrf52832_xxAA.a(net_beacon.c.obj)
                0x00025b04                net_beacon_packet_in
 .text.set_gap_addr_type
                0x00025bbc       0x34 mesh/core/libmesh_core_nrf52832_xxAA.a(advertiser.c.obj)
 .text.tx_complete_event_callback
                0x00025bf0       0x3c mesh/core/libmesh_core_nrf52832_xxAA.a(advertiser.c.obj)
 .text.broadcast_complete_cb
                0x00025c2c       0x64 mesh/core/libmesh_core_nrf52832_xxAA.a(advertiser.c.obj)
 .text.schedule_first_time
                0x00025c90       0x28 mesh/core/libmesh_core_nrf52832_xxAA.a(advertiser.c.obj)
 .text.timeout_event
                0x00025cb8      0x130 mesh/core/libmesh_core_nrf52832_xxAA.a(advertiser.c.obj)
 .text.advertiser_init
                0x00025de8        0xc mesh/core/libmesh_core_nrf52832_xxAA.a(advertiser.c.obj)
                0x00025de8                advertiser_init
 .text.advertiser_enable
                0x00025df4       0x2a mesh/core/libmesh_core_nrf52832_xxAA.a(advertiser.c.obj)
                0x00025df4                advertiser_enable
 *fill*         0x00025e1e        0x2 
 .text.advertiser_packet_alloc
                0x00025e20       0x94 mesh/core/libmesh_core_nrf52832_xxAA.a(advertiser.c.obj)
                0x00025e20                advertiser_packet_alloc
 .text.advertiser_packet_send
                0x00025eb4       0x78 mesh/core/libmesh_core_nrf52832_xxAA.a(advertiser.c.obj)
                0x00025eb4                advertiser_packet_send
 .text.advertiser_packet_discard
                0x00025f2c       0x2c mesh/core/libmesh_core_nrf52832_xxAA.a(advertiser.c.obj)
                0x00025f2c                advertiser_packet_discard
 .text.advertiser_interval_set
                0x00025f58       0x68 mesh/core/libmesh_core_nrf52832_xxAA.a(advertiser.c.obj)
                0x00025f58                advertiser_interval_set
 .text.advertiser_flush
                0x00025fc0       0x1e mesh/core/libmesh_core_nrf52832_xxAA.a(advertiser.c.obj)
                0x00025fc0                advertiser_flush
 *fill*         0x00025fde        0x2 
 .text.advertiser_address_default_get
                0x00025fe0       0x38 mesh/core/libmesh_core_nrf52832_xxAA.a(advertiser.c.obj)
                0x00025fe0                advertiser_address_default_get
 .text.advertiser_instance_init
                0x00026018       0xbc mesh/core/libmesh_core_nrf52832_xxAA.a(advertiser.c.obj)
                0x00026018                advertiser_instance_init
 .text.action_switch
                0x000260d4       0xc0 mesh/core/libmesh_core_nrf52832_xxAA.a(bearer_handler.c.obj)
 .text.bearer_handler_init
                0x00026194       0x2c mesh/core/libmesh_core_nrf52832_xxAA.a(bearer_handler.c.obj)
                0x00026194                bearer_handler_init
 .text.bearer_handler_start
                0x000261c0       0x1c mesh/core/libmesh_core_nrf52832_xxAA.a(bearer_handler.c.obj)
                0x000261c0                bearer_handler_start
 .text.bearer_handler_action_enqueue
                0x000261dc       0x94 mesh/core/libmesh_core_nrf52832_xxAA.a(bearer_handler.c.obj)
                0x000261dc                bearer_handler_action_enqueue
 .text.bearer_handler_action_end
                0x00026270       0x78 mesh/core/libmesh_core_nrf52832_xxAA.a(bearer_handler.c.obj)
                0x00026270                bearer_handler_action_end
 .text.bearer_handler_radio_irq_handler
                0x000262e8       0x64 mesh/core/libmesh_core_nrf52832_xxAA.a(bearer_handler.c.obj)
                0x000262e8                bearer_handler_radio_irq_handler
 .text.bearer_handler_timer_irq_handler
                0x0002634c       0x30 mesh/core/libmesh_core_nrf52832_xxAA.a(bearer_handler.c.obj)
                0x0002634c                bearer_handler_timer_irq_handler
 .text.bearer_handler_on_ts_begin
                0x0002637c       0x44 mesh/core/libmesh_core_nrf52832_xxAA.a(bearer_handler.c.obj)
                0x0002637c                bearer_handler_on_ts_begin
 .text.bearer_handler_on_ts_end
                0x000263c0       0x48 mesh/core/libmesh_core_nrf52832_xxAA.a(bearer_handler.c.obj)
                0x000263c0                bearer_handler_on_ts_end
 .text.radio_irq_handler
                0x00026408       0xb0 mesh/core/libmesh_core_nrf52832_xxAA.a(broadcast.c.obj)
 .text.broadcast_start
                0x000264b8       0x8c mesh/core/libmesh_core_nrf52832_xxAA.a(broadcast.c.obj)
 .text.broadcast_send
                0x00026544       0x80 mesh/core/libmesh_core_nrf52832_xxAA.a(broadcast.c.obj)
                0x00026544                broadcast_send
 .text.radio_config_reset
                0x000265c4       0x34 mesh/core/libmesh_core_nrf52832_xxAA.a(radio_config.c.obj)
                0x000265c4                radio_config_reset
 .text.radio_config_channel_set
                0x000265f8       0x34 mesh/core/libmesh_core_nrf52832_xxAA.a(radio_config.c.obj)
                0x000265f8                radio_config_channel_set
 .text.radio_config_config
                0x0002662c       0x80 mesh/core/libmesh_core_nrf52832_xxAA.a(radio_config.c.obj)
                0x0002662c                radio_config_config
 .text.radio_config_access_addr_set
                0x000266ac       0x68 mesh/core/libmesh_core_nrf52832_xxAA.a(radio_config.c.obj)
                0x000266ac                radio_config_access_addr_set
 .text.radio_trigger
                0x00026714       0x24 mesh/core/libmesh_core_nrf52832_xxAA.a(scanner.c.obj)
 .text.scan_window_end
                0x00026738       0x10 mesh/core/libmesh_core_nrf52832_xxAA.a(scanner.c.obj)
 .text.scan_window_start
                0x00026748       0x24 mesh/core/libmesh_core_nrf52832_xxAA.a(scanner.c.obj)
 .text.radio_configure
                0x0002676c       0x78 mesh/core/libmesh_core_nrf52832_xxAA.a(scanner.c.obj)
 .text.radio_set_packet
                0x000267e4       0x50 mesh/core/libmesh_core_nrf52832_xxAA.a(scanner.c.obj)
 .text.radio_start
                0x00026834       0x4c mesh/core/libmesh_core_nrf52832_xxAA.a(scanner.c.obj)
 .text.radio_stop
                0x00026880       0x30 mesh/core/libmesh_core_nrf52832_xxAA.a(scanner.c.obj)
 .text.schedule_timers
                0x000268b0       0x38 mesh/core/libmesh_core_nrf52832_xxAA.a(scanner.c.obj)
 .text.scanner_radio_start
                0x000268e8       0x28 mesh/core/libmesh_core_nrf52832_xxAA.a(scanner.c.obj)
                0x000268e8                scanner_radio_start
 .text.scanner_radio_stop
                0x00026910       0x10 mesh/core/libmesh_core_nrf52832_xxAA.a(scanner.c.obj)
                0x00026910                scanner_radio_stop
 .text.scanner_radio_irq_handler
                0x00026920      0x124 mesh/core/libmesh_core_nrf52832_xxAA.a(scanner.c.obj)
                0x00026920                scanner_radio_irq_handler
 .text.scanner_enable
                0x00026a44       0x30 mesh/core/libmesh_core_nrf52832_xxAA.a(scanner.c.obj)
                0x00026a44                scanner_enable
 .text.scanner_packet_release
                0x00026a74       0x38 mesh/core/libmesh_core_nrf52832_xxAA.a(scanner.c.obj)
                0x00026a74                scanner_packet_release
 .text.scanner_rx
                0x00026aac       0x30 mesh/core/libmesh_core_nrf52832_xxAA.a(scanner.c.obj)
                0x00026aac                scanner_rx
 .text.scanner_config_scan_time_set
                0x00026adc       0x68 mesh/core/libmesh_core_nrf52832_xxAA.a(scanner.c.obj)
                0x00026adc                scanner_config_scan_time_set
 .text.scanner_config_channels_set
                0x00026b44       0x64 mesh/core/libmesh_core_nrf52832_xxAA.a(scanner.c.obj)
                0x00026b44                scanner_config_channels_set
 .text.scanner_config_access_addresses_set
                0x00026ba8       0x44 mesh/core/libmesh_core_nrf52832_xxAA.a(scanner.c.obj)
                0x00026ba8                scanner_config_access_addresses_set
 .text.scanner_config_reset
                0x00026bec       0x50 mesh/core/libmesh_core_nrf52832_xxAA.a(scanner.c.obj)
                0x00026bec                scanner_config_reset
 .text.scanner_init
                0x00026c3c       0x48 mesh/core/libmesh_core_nrf52832_xxAA.a(scanner.c.obj)
                0x00026c3c                scanner_init
 .text.internal_event_push
                0x00026c84       0x28 mesh/core/libmesh_core_nrf52832_xxAA.a(internal_event.c.obj)
                0x00026c84                internal_event_push
 .text.sd_ecb_block_encrypt
                0x00026cac        0x4 mesh/core/libmesh_core_nrf52832_xxAA.a(aes.c.obj)
 .text.aes_encrypt
                0x00026cb0       0x32 mesh/core/libmesh_core_nrf52832_xxAA.a(aes.c.obj)
                0x00026cb0                aes_encrypt
 *fill*         0x00026ce2        0x2 
 .text.msg_cache_init
                0x00026ce4       0x24 mesh/core/libmesh_core_nrf52832_xxAA.a(msg_cache.c.obj)
                0x00026ce4                msg_cache_init
 .text.msg_cache_entry_exists
                0x00026d08       0x3c mesh/core/libmesh_core_nrf52832_xxAA.a(msg_cache.c.obj)
                0x00026d08                msg_cache_entry_exists
 .text.msg_cache_entry_add
                0x00026d44       0x2c mesh/core/libmesh_core_nrf52832_xxAA.a(msg_cache.c.obj)
                0x00026d44                msg_cache_entry_add
 .text.block_ack_full
                0x00026d70       0x28 mesh/core/libmesh_core_nrf52832_xxAA.a(transport.c.obj)
 .text.seqauth_sequence_number_get
                0x00026d98       0x12 mesh/core/libmesh_core_nrf52832_xxAA.a(transport.c.obj)
 *fill*         0x00026daa        0x2 
 .text.sar_rx_session_mark_as_handled
                0x00026dac       0x54 mesh/core/libmesh_core_nrf52832_xxAA.a(transport.c.obj)
 .text.sar_ctx_find
                0x00026e00       0x3c mesh/core/libmesh_core_nrf52832_xxAA.a(transport.c.obj)
 .text.m_send_sar_cancel_event
                0x00026e3c       0x28 mesh/core/libmesh_core_nrf52832_xxAA.a(transport.c.obj)
 .text.tx_complete
                0x00026e64       0x34 mesh/core/libmesh_core_nrf52832_xxAA.a(transport.c.obj)
 .text.upper_trs_packet_alloc
                0x00026e98       0x2e mesh/core/libmesh_core_nrf52832_xxAA.a(transport.c.obj)
 *fill*         0x00026ec6        0x2 
 .text.upper_trs_packet_encrypt
                0x00026ec8       0xbc mesh/core/libmesh_core_nrf52832_xxAA.a(transport.c.obj)
 .text.sar_ctx_free
                0x00026f84       0x3c mesh/core/libmesh_core_nrf52832_xxAA.a(transport.c.obj)
 .text.sar_ctx_tx_complete
                0x00026fc0       0x3c mesh/core/libmesh_core_nrf52832_xxAA.a(transport.c.obj)
 .text.sar_ctx_cancel
                0x00026ffc      0x108 mesh/core/libmesh_core_nrf52832_xxAA.a(transport.c.obj)
 .text.abort_timeout
                0x00027104        0x8 mesh/core/libmesh_core_nrf52832_xxAA.a(transport.c.obj)
 .text.sar_ctx_alloc
                0x0002710c       0xb8 mesh/core/libmesh_core_nrf52832_xxAA.a(transport.c.obj)
 .text.test_transport_decrypt
                0x000271c4       0x88 mesh/core/libmesh_core_nrf52832_xxAA.a(transport.c.obj)
 .text.upper_transport_access_packet_in
                0x0002724c      0x28c mesh/core/libmesh_core_nrf52832_xxAA.a(transport.c.obj)
 .text.trs_packet_header_build
                0x000274d8       0xa6 mesh/core/libmesh_core_nrf52832_xxAA.a(transport.c.obj)
 *fill*         0x0002757e        0x2 
 .text.trs_sar_packet_out
                0x00027580       0xbc mesh/core/libmesh_core_nrf52832_xxAA.a(transport.c.obj)
 .text.retry_timeout
                0x0002763c       0x54 mesh/core/libmesh_core_nrf52832_xxAA.a(transport.c.obj)
 .text.sar_ack_send
                0x00027690      0x128 mesh/core/libmesh_core_nrf52832_xxAA.a(transport.c.obj)
 .text.ack_timeout
                0x000277b8       0x34 mesh/core/libmesh_core_nrf52832_xxAA.a(transport.c.obj)
 .text.tx_retry_timer_reset
                0x000277ec       0x50 mesh/core/libmesh_core_nrf52832_xxAA.a(transport.c.obj)
 .text.upper_transport_packet_in
                0x0002783c      0x164 mesh/core/libmesh_core_nrf52832_xxAA.a(transport.c.obj)
 .text.transport_sar_process
                0x000279a0       0x70 mesh/core/libmesh_core_nrf52832_xxAA.a(transport.c.obj)
 .text.transport_sar_mem_funcs_reset
                0x00027a10       0x28 mesh/core/libmesh_core_nrf52832_xxAA.a(transport.c.obj)
                0x00027a10                transport_sar_mem_funcs_reset
 .text.transport_init
                0x00027a38       0x78 mesh/core/libmesh_core_nrf52832_xxAA.a(transport.c.obj)
                0x00027a38                transport_init
 .text.transport_packet_in
                0x00027ab0      0x4f4 mesh/core/libmesh_core_nrf52832_xxAA.a(transport.c.obj)
                0x00027ab0                transport_packet_in
 .text.m_adjust_desired_packet_length
                0x00027fa4       0x34 mesh/core/libmesh_core_nrf52832_xxAA.a(packet_buffer.c.obj)
 .text.m_index_increment.part.0
                0x00027fd8       0x14 mesh/core/libmesh_core_nrf52832_xxAA.a(packet_buffer.c.obj)
 .text.m_free_popped_packet
                0x00027fec       0x60 mesh/core/libmesh_core_nrf52832_xxAA.a(packet_buffer.c.obj)
 .text.free_skipped_packets
                0x0002804c       0x1c mesh/core/libmesh_core_nrf52832_xxAA.a(packet_buffer.c.obj)
 .text.packet_buffer_init
                0x00028068       0xe0 mesh/core/libmesh_core_nrf52832_xxAA.a(packet_buffer.c.obj)
                0x00028068                packet_buffer_init
 .text.packet_buffer_flush
                0x00028148       0x5e mesh/core/libmesh_core_nrf52832_xxAA.a(packet_buffer.c.obj)
                0x00028148                packet_buffer_flush
 *fill*         0x000281a6        0x2 
 .text.packet_buffer_reserve
                0x000281a8      0x11c mesh/core/libmesh_core_nrf52832_xxAA.a(packet_buffer.c.obj)
                0x000281a8                packet_buffer_reserve
 .text.packet_buffer_commit
                0x000282c4      0x104 mesh/core/libmesh_core_nrf52832_xxAA.a(packet_buffer.c.obj)
                0x000282c4                packet_buffer_commit
 .text.packet_buffer_pop
                0x000283c8       0x58 mesh/core/libmesh_core_nrf52832_xxAA.a(packet_buffer.c.obj)
                0x000283c8                packet_buffer_pop
 .text.packet_buffer_can_pop
                0x00028420       0x28 mesh/core/libmesh_core_nrf52832_xxAA.a(packet_buffer.c.obj)
                0x00028420                packet_buffer_can_pop
 .text.packet_buffer_packets_ready_to_pop
                0x00028448       0x58 mesh/core/libmesh_core_nrf52832_xxAA.a(packet_buffer.c.obj)
                0x00028448                packet_buffer_packets_ready_to_pop
 .text.packet_buffer_free
                0x000284a0       0x8c mesh/core/libmesh_core_nrf52832_xxAA.a(packet_buffer.c.obj)
                0x000284a0                packet_buffer_free
 .text.get_last_page
                0x0002852c       0x14 mesh/core/libmesh_core_nrf52832_xxAA.a(flash_manager_defrag.c.obj)
 .text.defrag_on_end
                0x00028540       0x1c mesh/core/libmesh_core_nrf52832_xxAA.a(flash_manager_defrag.c.obj)
 .text.execute_procedure_step
                0x0002855c       0xa0 mesh/core/libmesh_core_nrf52832_xxAA.a(flash_manager_defrag.c.obj)
 .text.get_next_entry
                0x000285fc       0x40 mesh/core/libmesh_core_nrf52832_xxAA.a(flash_manager_defrag.c.obj)
 .text.get_next_data_entry
                0x0002863c       0x20 mesh/core/libmesh_core_nrf52832_xxAA.a(flash_manager_defrag.c.obj)
 .text.on_flash_op_end
                0x0002865c       0x30 mesh/core/libmesh_core_nrf52832_xxAA.a(flash_manager_defrag.c.obj)
 .text.check_for_invalid_entries
                0x0002868c       0x38 mesh/core/libmesh_core_nrf52832_xxAA.a(flash_manager_defrag.c.obj)
 .text.erase_recovery_area
                0x000286c4       0x34 mesh/core/libmesh_core_nrf52832_xxAA.a(flash_manager_defrag.c.obj)
 .text.flash.constprop.6
                0x000286f8       0x24 mesh/core/libmesh_core_nrf52832_xxAA.a(flash_manager_defrag.c.obj)
 .text.seal_storage_page
                0x0002871c       0x50 mesh/core/libmesh_core_nrf52832_xxAA.a(flash_manager_defrag.c.obj)
 .text.invalidate_duplicate_entries
                0x0002876c       0x9c mesh/core/libmesh_core_nrf52832_xxAA.a(flash_manager_defrag.c.obj)
 .text.copy_metadata
                0x00028808       0x3c mesh/core/libmesh_core_nrf52832_xxAA.a(flash_manager_defrag.c.obj)
 .text.write_defrag_start_pointer
                0x00028844       0x20 mesh/core/libmesh_core_nrf52832_xxAA.a(flash_manager_defrag.c.obj)
 .text.write_back
                0x00028864       0x28 mesh/core/libmesh_core_nrf52832_xxAA.a(flash_manager_defrag.c.obj)
 .text.post_process
                0x0002888c       0x40 mesh/core/libmesh_core_nrf52832_xxAA.a(flash_manager_defrag.c.obj)
 .text.backup_entries
                0x000288cc      0x118 mesh/core/libmesh_core_nrf52832_xxAA.a(flash_manager_defrag.c.obj)
 .text.erase_source
                0x000289e4       0x34 mesh/core/libmesh_core_nrf52832_xxAA.a(flash_manager_defrag.c.obj)
 .text.flash_manager_defrag_init
                0x00028a18       0x94 mesh/core/libmesh_core_nrf52832_xxAA.a(flash_manager_defrag.c.obj)
                0x00028a18                flash_manager_defrag_init
 .text.flash_manager_defrag_is_running
                0x00028aac       0x10 mesh/core/libmesh_core_nrf52832_xxAA.a(flash_manager_defrag.c.obj)
                0x00028aac                flash_manager_defrag_is_running
 .text.flash_manager_defrag
                0x00028abc       0xd8 mesh/core/libmesh_core_nrf52832_xxAA.a(flash_manager_defrag.c.obj)
                0x00028abc                flash_manager_defrag
 .text.flash_manager_defrag_recovery_page_get
                0x00028b94        0xc mesh/core/libmesh_core_nrf52832_xxAA.a(flash_manager_defrag.c.obj)
                0x00028b94                flash_manager_defrag_recovery_page_get
 .text.fifo_init
                0x00028ba0       0x50 mesh/core/libmesh_core_nrf52832_xxAA.a(fifo.c.obj)
                0x00028ba0                fifo_init
 .text.fifo_push
                0x00028bf0       0x50 mesh/core/libmesh_core_nrf52832_xxAA.a(fifo.c.obj)
                0x00028bf0                fifo_push
 .text.fifo_pop
                0x00028c40       0x52 mesh/core/libmesh_core_nrf52832_xxAA.a(fifo.c.obj)
                0x00028c40                fifo_pop
 *fill*         0x00028c92        0x2 
 .text.wait_for_ready
                0x00028c94       0x10 mesh/core/libmesh_core_nrf52832_xxAA.a(nrf_flash.c.obj)
 .text.nrf_flash_erase
                0x00028ca4       0x50 mesh/core/libmesh_core_nrf52832_xxAA.a(nrf_flash.c.obj)
                0x00028ca4                nrf_flash_erase
 .text.nrf_flash_write
                0x00028cf4       0x50 mesh/core/libmesh_core_nrf52832_xxAA.a(nrf_flash.c.obj)
                0x00028cf4                nrf_flash_write
 .text.packet_mgr_init
                0x00028d44       0x4c mesh/core/libmesh_core_nrf52832_xxAA.a(packet_mgr.c.obj)
                0x00028d44                packet_mgr_init
 .text.queue_init
                0x00028d90       0x20 mesh/core/libmesh_core_nrf52832_xxAA.a(queue.c.obj)
                0x00028d90                queue_init
 .text.queue_push
                0x00028db0       0x48 mesh/core/libmesh_core_nrf52832_xxAA.a(queue.c.obj)
                0x00028db0                queue_push
 .text.queue_pop
                0x00028df8       0x34 mesh/core/libmesh_core_nrf52832_xxAA.a(queue.c.obj)
                0x00028df8                queue_pop
 .text.queue_peek
                0x00028e2c       0x1c mesh/core/libmesh_core_nrf52832_xxAA.a(queue.c.obj)
                0x00028e2c                queue_peek
 .text.my_xor.constprop.1
                0x00028e48       0x20 mesh/core/libmesh_core_nrf52832_xxAA.a(aes_cmac.c.obj)
 .text.utils_lshift.constprop.2
                0x00028e68       0x24 mesh/core/libmesh_core_nrf52832_xxAA.a(aes_cmac.c.obj)
 .text.aes_cmac_subkey_generate
                0x00028e8c       0x6c mesh/core/libmesh_core_nrf52832_xxAA.a(aes_cmac.c.obj)
                0x00028e8c                aes_cmac_subkey_generate
 .text.aes_cmac
                0x00028ef8       0xbc mesh/core/libmesh_core_nrf52832_xxAA.a(aes_cmac.c.obj)
                0x00028ef8                aes_cmac
 .text.replay_cache_add
                0x00028fb4       0x60 mesh/core/libmesh_core_nrf52832_xxAA.a(replay_cache.c.obj)
                0x00028fb4                replay_cache_add
 .text.replay_cache_has_room
                0x00029014       0x38 mesh/core/libmesh_core_nrf52832_xxAA.a(replay_cache.c.obj)
                0x00029014                replay_cache_has_room
 .text.replay_cache_has_elem
                0x0002904c       0x38 mesh/core/libmesh_core_nrf52832_xxAA.a(replay_cache.c.obj)
                0x0002904c                replay_cache_has_elem
 .text.replay_cache_clear
                0x00029084       0x28 mesh/core/libmesh_core_nrf52832_xxAA.a(replay_cache.c.obj)
                0x00029084                replay_cache_clear
 .text.replay_cache_init
                0x000290ac        0x4 mesh/core/libmesh_core_nrf52832_xxAA.a(replay_cache.c.obj)
                0x000290ac                replay_cache_init
 .text.fen_filters_apply
                0x000290b0       0x34 mesh/core/libmesh_core_nrf52832_xxAA.a(filter_engine.c.obj)
                0x000290b0                fen_filters_apply
 .text._GetAvailWriteSpace
                0x000290e4       0x1c external/rtt/librtt_nrf52832_xxAA.a(SEGGER_RTT.c.obj)
 .text._WriteNoCheck
                0x00029100       0x3c external/rtt/librtt_nrf52832_xxAA.a(SEGGER_RTT.c.obj)
 .text._WriteBlocking
                0x0002913c       0x52 external/rtt/librtt_nrf52832_xxAA.a(SEGGER_RTT.c.obj)
 *fill*         0x0002918e        0x2 
 .text._DoInit  0x00029190       0x60 external/rtt/librtt_nrf52832_xxAA.a(SEGGER_RTT.c.obj)
 .text.SEGGER_RTT_WriteNoLock
                0x000291f0       0x68 external/rtt/librtt_nrf52832_xxAA.a(SEGGER_RTT.c.obj)
                0x000291f0                SEGGER_RTT_WriteNoLock
 .text.SEGGER_RTT_Write
                0x00029258       0x34 external/rtt/librtt_nrf52832_xxAA.a(SEGGER_RTT.c.obj)
                0x00029258                SEGGER_RTT_Write
 .text._StoreChar
                0x0002928c       0x3e external/rtt/librtt_nrf52832_xxAA.a(SEGGER_RTT_printf.c.obj)
 *fill*         0x000292ca        0x2 
 .text._PrintUnsigned
                0x000292cc       0xd0 external/rtt/librtt_nrf52832_xxAA.a(SEGGER_RTT_printf.c.obj)
 .text.SEGGER_RTT_vprintf
                0x0002939c      0x246 external/rtt/librtt_nrf52832_xxAA.a(SEGGER_RTT_printf.c.obj)
                0x0002939c                SEGGER_RTT_vprintf
 .text.SEGGER_RTT_printf
                0x000295e2       0x1e external/rtt/librtt_nrf52832_xxAA.a(SEGGER_RTT_printf.c.obj)
                0x000295e2                SEGGER_RTT_printf
 .text.exit     0x00029600       0x28 c:/a/gcc_arm/6/bin/../lib/gcc/arm-none-eabi/6.3.1/../../../../arm-none-eabi/lib/thumb/v7e-m/fpv4-sp/hard\libc_nano.a(lib_a-exit.o)
                0x00029600                exit
 .text.__libc_init_array
                0x00029628       0x48 c:/a/gcc_arm/6/bin/../lib/gcc/arm-none-eabi/6.3.1/../../../../arm-none-eabi/lib/thumb/v7e-m/fpv4-sp/hard\libc_nano.a(lib_a-init.o)
                0x00029628                __libc_init_array
 .text.malloc   0x00029670       0x10 c:/a/gcc_arm/6/bin/../lib/gcc/arm-none-eabi/6.3.1/../../../../arm-none-eabi/lib/thumb/v7e-m/fpv4-sp/hard\libc_nano.a(lib_a-malloc.o)
                0x00029670                malloc
 .text.free     0x00029680       0x10 c:/a/gcc_arm/6/bin/../lib/gcc/arm-none-eabi/6.3.1/../../../../arm-none-eabi/lib/thumb/v7e-m/fpv4-sp/hard\libc_nano.a(lib_a-malloc.o)
                0x00029680                free
 .text.memcmp   0x00029690       0x1e c:/a/gcc_arm/6/bin/../lib/gcc/arm-none-eabi/6.3.1/../../../../arm-none-eabi/lib/thumb/v7e-m/fpv4-sp/hard\libc_nano.a(lib_a-memcmp.o)
                0x00029690                memcmp
 .text.memcpy   0x000296ae       0x16 c:/a/gcc_arm/6/bin/../lib/gcc/arm-none-eabi/6.3.1/../../../../arm-none-eabi/lib/thumb/v7e-m/fpv4-sp/hard\libc_nano.a(lib_a-memcpy-stub.o)
                0x000296ae                memcpy
 .text.memset   0x000296c4       0x10 c:/a/gcc_arm/6/bin/../lib/gcc/arm-none-eabi/6.3.1/../../../../arm-none-eabi/lib/thumb/v7e-m/fpv4-sp/hard\libc_nano.a(lib_a-memset.o)
                0x000296c4                memset
 .text._free_r  0x000296d4       0x9c c:/a/gcc_arm/6/bin/../lib/gcc/arm-none-eabi/6.3.1/../../../../arm-none-eabi/lib/thumb/v7e-m/fpv4-sp/hard\libc_nano.a(lib_a-nano-freer.o)
                0x000296d4                _free_r
 .text._malloc_r
                0x00029770       0xbc c:/a/gcc_arm/6/bin/../lib/gcc/arm-none-eabi/6.3.1/../../../../arm-none-eabi/lib/thumb/v7e-m/fpv4-sp/hard\libc_nano.a(lib_a-nano-mallocr.o)
                0x00029770                _malloc_r
 .text._sbrk_r  0x0002982c       0x20 c:/a/gcc_arm/6/bin/../lib/gcc/arm-none-eabi/6.3.1/../../../../arm-none-eabi/lib/thumb/v7e-m/fpv4-sp/hard\libc_nano.a(lib_a-sbrkr.o)
                0x0002982c                _sbrk_r
 .text.strcpy   0x0002984c       0x10 c:/a/gcc_arm/6/bin/../lib/gcc/arm-none-eabi/6.3.1/../../../../arm-none-eabi/lib/thumb/v7e-m/fpv4-sp/hard\libc_nano.a(lib_a-strcpy.o)
                0x0002984c                strcpy
 .text.strrchr  0x0002985c       0x26 c:/a/gcc_arm/6/bin/../lib/gcc/arm-none-eabi/6.3.1/../../../../arm-none-eabi/lib/thumb/v7e-m/fpv4-sp/hard\libc_nano.a(lib_a-strrchr.o)
                0x0002985c                strrchr
 .text.__malloc_lock
                0x00029882        0x2 c:/a/gcc_arm/6/bin/../lib/gcc/arm-none-eabi/6.3.1/../../../../arm-none-eabi/lib/thumb/v7e-m/fpv4-sp/hard\libc_nano.a(lib_a-mlock.o)
                0x00029882                __malloc_lock
 .text.__malloc_unlock
                0x00029884        0x2 c:/a/gcc_arm/6/bin/../lib/gcc/arm-none-eabi/6.3.1/../../../../arm-none-eabi/lib/thumb/v7e-m/fpv4-sp/hard\libc_nano.a(lib_a-mlock.o)
                0x00029884                __malloc_unlock
 .text.strchr   0x00029886       0x1c c:/a/gcc_arm/6/bin/../lib/gcc/arm-none-eabi/6.3.1/../../../../arm-none-eabi/lib/thumb/v7e-m/fpv4-sp/hard\libc_nano.a(lib_a-strchr.o)
                0x00029886                strchr
 *fill*         0x000298a2        0x2 
 .text._sbrk    0x000298a4       0x1c c:/a/gcc_arm/6/bin/../lib/gcc/arm-none-eabi/6.3.1/../../../../arm-none-eabi/lib/thumb/v7e-m/fpv4-sp/hard\libnosys.a(sbrk.o)
                0x000298a4                _sbrk
 .text._exit    0x000298c0        0x4 c:/a/gcc_arm/6/bin/../lib/gcc/arm-none-eabi/6.3.1/../../../../arm-none-eabi/lib/thumb/v7e-m/fpv4-sp/hard\libnosys.a(_exit.o)
                0x000298c0                _exit
 *(.init)
 .init          0x000298c4        0x4 c:/a/gcc_arm/6/bin/../lib/gcc/arm-none-eabi/6.3.1/thumb/v7e-m/fpv4-sp/hard/crti.o
                0x000298c4                _init
 .init          0x000298c8        0x8 c:/a/gcc_arm/6/bin/../lib/gcc/arm-none-eabi/6.3.1/thumb/v7e-m/fpv4-sp/hard/crtn.o
 *(.fini)
 .fini          0x000298d0        0x4 c:/a/gcc_arm/6/bin/../lib/gcc/arm-none-eabi/6.3.1/thumb/v7e-m/fpv4-sp/hard/crti.o
                0x000298d0                _fini
 .fini          0x000298d4        0x8 c:/a/gcc_arm/6/bin/../lib/gcc/arm-none-eabi/6.3.1/thumb/v7e-m/fpv4-sp/hard/crtn.o
 *crtbegin.o(.ctors)
 *crtbegin?.o(.ctors)
 *(EXCLUDE_FILE(*crtend.o *crtend?.o) .ctors)
 *(SORT(.ctors.*))
 *(.ctors)
 *crtbegin.o(.dtors)
 *crtbegin?.o(.dtors)
 *(EXCLUDE_FILE(*crtend.o *crtend?.o) .dtors)
 *(SORT(.dtors.*))
 *(.dtors)
 *(.rodata*)
 .rodata.main.str1.1
                0x000298dc       0x7f examples/dfu/CMakeFiles/dfu_no_serial_nrf52832_xxAA_s132_3.1.0.dir/src/main.c.obj
 .rodata.mesh_evt_handler.str1.1
                0x0002995b       0x1b examples/dfu/CMakeFiles/dfu_no_serial_nrf52832_xxAA_s132_3.1.0.dir/src/main.c.obj
 .rodata.HardFault_Handler.str1.1
                0x00029976        0xe examples/dfu/CMakeFiles/dfu_no_serial_nrf52832_xxAA_s132_3.1.0.dir/__/nrf_mesh_sdk.c.obj
 .rodata.app_error_handler.str1.1
                0x00029984       0x1d examples/dfu/CMakeFiles/dfu_no_serial_nrf52832_xxAA_s132_3.1.0.dir/__/nrf_mesh_sdk.c.obj
 .rodata.mesh_assert_handler.str1.1
                0x000299a1       0x34 examples/dfu/CMakeFiles/dfu_no_serial_nrf52832_xxAA_s132_3.1.0.dir/__/nrf_mesh_sdk.c.obj
 .rodata.mesh_core_setup.str1.1
                0x000299d5       0x47 examples/dfu/CMakeFiles/dfu_no_serial_nrf52832_xxAA_s132_3.1.0.dir/__/nrf_mesh_sdk.c.obj
 .rodata.mesh_softdevice_enable.str1.1
                0x00029a1c       0x65 examples/dfu/CMakeFiles/dfu_no_serial_nrf52832_xxAA_s132_3.1.0.dir/__/nrf_mesh_sdk.c.obj
 .rodata.softdevice_assert_handler.str1.1
                0x00029a81       0x1d examples/dfu/CMakeFiles/dfu_no_serial_nrf52832_xxAA_s132_3.1.0.dir/__/nrf_mesh_sdk.c.obj
 .rodata.prov_cb_pkt_in.str1.1
                0x00029a9e       0x34 examples/dfu/CMakeFiles/dfu_no_serial_nrf52832_xxAA_s132_3.1.0.dir/__/__/mesh/prov/src/provisioning.c.obj
 .rodata.crctable.10539
                0x00029ad2      0x100 examples/dfu/CMakeFiles/dfu_no_serial_nrf52832_xxAA_s132_3.1.0.dir/__/__/mesh/prov/src/prov_bearer_adv.c.obj
 .rodata.prov_bearer_adv_packet_in.str1.1
                0x00029bd2      0x26e examples/dfu/CMakeFiles/dfu_no_serial_nrf52832_xxAA_s132_3.1.0.dir/__/__/mesh/prov/src/prov_bearer_adv.c.obj
 .rodata.tx_retry_cb.str1.1
                0x00029e40       0x37 examples/dfu/CMakeFiles/dfu_no_serial_nrf52832_xxAA_s132_3.1.0.dir/__/__/mesh/prov/src/prov_bearer_adv.c.obj
 .rodata.abort_timeout.str1.1
                0x00029e77       0x19 examples/dfu/CMakeFiles/dfu_no_serial_nrf52832_xxAA_s132_3.1.0.dir/__/__/mesh/dfu/src/nrf_mesh_dfu.c.obj
 .rodata.dfu_evt_handler.str1.1
                0x00029e90      0x182 examples/dfu/CMakeFiles/dfu_no_serial_nrf52832_xxAA_s132_3.1.0.dir/__/__/mesh/dfu/src/nrf_mesh_dfu.c.obj
 .rodata.flash_op_complete.str1.1
                0x0002a012       0x3b examples/dfu/CMakeFiles/dfu_no_serial_nrf52832_xxAA_s132_3.1.0.dir/__/__/mesh/dfu/src/nrf_mesh_dfu.c.obj
 .rodata.m_adv_channels
                0x0002a04d        0x3 examples/dfu/CMakeFiles/dfu_no_serial_nrf52832_xxAA_s132_3.1.0.dir/__/__/mesh/dfu/src/nrf_mesh_dfu.c.obj
 .rodata.nrf_mesh_dfu_cmd_send.str1.1
                0x0002a050       0x18 examples/dfu/CMakeFiles/dfu_no_serial_nrf52832_xxAA_s132_3.1.0.dir/__/__/mesh/dfu/src/nrf_mesh_dfu.c.obj
 .rodata.timer_timeout.str1.1
                0x0002a068       0x18 examples/dfu/CMakeFiles/dfu_no_serial_nrf52832_xxAA_s132_3.1.0.dir/__/__/mesh/dfu/src/nrf_mesh_dfu.c.obj
                                 0x13 (size before relaxing)
 .rodata.m_all_operations
                0x0002a068       0x10 mesh/core/libmesh_core_nrf52832_xxAA.a(mesh_flash.c.obj)
 .rodata.types_lookup.8805
                0x0002a078        0x4 mesh/core/libmesh_core_nrf52832_xxAA.a(nrf_mesh_utils.c.obj)
 .rodata.nrf_mesh_process.str1.1
                0x0002a07c       0x70 mesh/core/libmesh_core_nrf52832_xxAA.a(nrf_mesh.c.obj)
 .rodata.CSWTCH.9
                0x0002a0ec       0x10 mesh/core/libmesh_core_nrf52832_xxAA.a(hal.c.obj)
 .rodata.network_packet_in.str1.1
                0x0002a0fc       0x48 mesh/core/libmesh_core_nrf52832_xxAA.a(network.c.obj)
 .rodata.network_packet_send.str1.1
                0x0002a144       0x49 mesh/core/libmesh_core_nrf52832_xxAA.a(network.c.obj)
 .rodata.log_callback_rtt.str1.1
                0x0002a18d       0x15 mesh/core/libmesh_core_nrf52832_xxAA.a(log.c.obj)
 .rodata.str1.1
                0x0002a1a2       0x11 mesh/core/libmesh_core_nrf52832_xxAA.a(log.c.obj)
 *fill*         0x0002a1b3        0x1 
 .rodata.INVALID_HEADER
                0x0002a1b4        0x4 mesh/core/libmesh_core_nrf52832_xxAA.a(flash_manager.c.obj)
                0x0002a1b4                INVALID_HEADER
 .rodata.PADDING_HEADER
                0x0002a1b8        0x4 mesh/core/libmesh_core_nrf52832_xxAA.a(flash_manager.c.obj)
                0x0002a1b8                PADDING_HEADER
 .rodata.SEAL_HEADER
                0x0002a1bc        0x4 mesh/core/libmesh_core_nrf52832_xxAA.a(flash_manager.c.obj)
                0x0002a1bc                SEAL_HEADER
 .rodata.process_action_queue.str1.1
                0x0002a1c0       0x21 mesh/core/libmesh_core_nrf52832_xxAA.a(flash_manager.c.obj)
                                 0x4f (size before relaxing)
 .rodata.beacon_packet_in.str1.1
                0x0002a1e1       0x51 mesh/core/libmesh_core_nrf52832_xxAA.a(beacon.c.obj)
                                 0x59 (size before relaxing)
 .rodata.net_beacon_init.str1.1
                0x0002a232        0x5 mesh/core/libmesh_core_nrf52832_xxAA.a(net_beacon.c.obj)
 .rodata.radio_mode_to_us_per_byte.9181
                0x0002a237        0x6 mesh/core/libmesh_core_nrf52832_xxAA.a(broadcast.c.obj)
 .rodata.channel_rf_offsets.8443
                0x0002a23d       0x28 mesh/core/libmesh_core_nrf52832_xxAA.a(radio_config.c.obj)
 .rodata        0x0002a265        0x3 mesh/core/libmesh_core_nrf52832_xxAA.a(scanner.c.obj)
 .rodata.sar_ctx_cancel.str1.1
                0x0002a268       0x35 mesh/core/libmesh_core_nrf52832_xxAA.a(transport.c.obj)
                                 0x63 (size before relaxing)
 .rodata.test_transport_decrypt.str1.1
                0x0002a29d       0x13 mesh/core/libmesh_core_nrf52832_xxAA.a(transport.c.obj)
 .rodata.transport_packet_in.str1.1
                0x0002a2b0       0x24 mesh/core/libmesh_core_nrf52832_xxAA.a(transport.c.obj)
 .rodata.upper_transport_access_packet_in.str1.1
                0x0002a2d4       0x29 mesh/core/libmesh_core_nrf52832_xxAA.a(transport.c.obj)
 .rodata.upper_transport_packet_in.str1.1
                0x0002a2fd       0x2e mesh/core/libmesh_core_nrf52832_xxAA.a(transport.c.obj)
 .rodata.flash_manager_defrag.str1.1
                0x0002a32b       0x28 mesh/core/libmesh_core_nrf52832_xxAA.a(flash_manager_defrag.c.obj)
                                 0x56 (size before relaxing)
 *fill*         0x0002a353        0x1 
 .rodata.m_procedure_steps
                0x0002a354       0x28 mesh/core/libmesh_core_nrf52832_xxAA.a(flash_manager_defrag.c.obj)
 .rodata.Rb.7341
                0x0002a37c       0x10 mesh/core/libmesh_core_nrf52832_xxAA.a(aes_cmac.c.obj)
 .rodata._DoInit.str1.1
                0x0002a38c       0x14 external/rtt/librtt_nrf52832_xxAA.a(SEGGER_RTT.c.obj)
 .rodata._aV2C.5497
                0x0002a3a0       0x10 external/rtt/librtt_nrf52832_xxAA.a(SEGGER_RTT_printf.c.obj)
 .rodata._global_impure_ptr
                0x0002a3b0        0x4 c:/a/gcc_arm/6/bin/../lib/gcc/arm-none-eabi/6.3.1/../../../../arm-none-eabi/lib/thumb/v7e-m/fpv4-sp/hard\libc_nano.a(lib_a-impure.o)
                0x0002a3b0                _global_impure_ptr
 *(.eh_frame*)
 .eh_frame      0x0002a3b4        0x0 c:/a/gcc_arm/6/bin/../lib/gcc/arm-none-eabi/6.3.1/thumb/v7e-m/fpv4-sp/hard/crtbegin.o
 .eh_frame      0x0002a3b4        0x4 c:/a/gcc_arm/6/bin/../lib/gcc/arm-none-eabi/6.3.1/thumb/v7e-m/fpv4-sp/hard/crtend.o

.glue_7         0x0002a3b8        0x0
 .glue_7        0x0002a3b8        0x0 linker stubs

.glue_7t        0x0002a3b8        0x0
 .glue_7t       0x0002a3b8        0x0 linker stubs

.vfp11_veneer   0x0002a3b8        0x0
 .vfp11_veneer  0x0002a3b8        0x0 linker stubs

.v4_bx          0x0002a3b8        0x0
 .v4_bx         0x0002a3b8        0x0 linker stubs

.iplt           0x0002a3b8        0x0
 .iplt          0x0002a3b8        0x0 c:/a/gcc_arm/6/bin/../lib/gcc/arm-none-eabi/6.3.1/thumb/v7e-m/fpv4-sp/hard/crtbegin.o

.ARM.extab
 *(.ARM.extab* .gnu.linkonce.armextab.*)
                0x0002a3b8                __exidx_start = .

.ARM.exidx      0x0002a3b8        0x8
 *(.ARM.exidx* .gnu.linkonce.armexidx.*)
 .ARM.exidx     0x0002a3b8        0x8 c:/a/gcc_arm/6/bin/../lib/gcc/arm-none-eabi/6.3.1/../../../../arm-none-eabi/lib/thumb/v7e-m/fpv4-sp/hard/crt0.o
                0x0002a3c0                __exidx_end = .
                0x0002a3c0                __etext = .

.rel.dyn        0x0002a3c0        0x0
 .rel.iplt      0x0002a3c0        0x0 c:/a/gcc_arm/6/bin/../lib/gcc/arm-none-eabi/6.3.1/thumb/v7e-m/fpv4-sp/hard/crtbegin.o

.data           0x200019c0       0xc0 load address 0x0002a3c0
                0x200019c0                __data_start__ = .
 *(vtable)
 *(.data*)
 .data.rom_base
                0x200019c0        0x4 examples/dfu/CMakeFiles/dfu_no_serial_nrf52832_xxAA_s132_3.1.0.dir/src/main.c.obj
                0x200019c0                rom_base
 .data.rom_end  0x200019c4        0x4 examples/dfu/CMakeFiles/dfu_no_serial_nrf52832_xxAA_s132_3.1.0.dir/src/main.c.obj
                0x200019c4                rom_end
 .data.m_unprov_report
                0x200019c8        0x1 examples/dfu/CMakeFiles/dfu_no_serial_nrf52832_xxAA_s132_3.1.0.dir/__/__/mesh/prov/src/prov_beacon.c.obj
 *fill*         0x200019c9        0x3 
 .data.SystemCoreClock
                0x200019cc        0x4 examples/dfu/CMakeFiles/dfu_no_serial_nrf52832_xxAA_s132_3.1.0.dir/__/__/external/nRF5_SDK_14.0.0_3bcc1f7/components/toolchain/system_nrf52.c.obj
                0x200019cc                SystemCoreClock
 .data.mem_listener.9705
                0x200019d0       0x10 mesh/core/libmesh_core_nrf52832_xxAA.a(net_state.c.obj)
 .data.mem_listener.9710
                0x200019e0       0x10 mesh/core/libmesh_core_nrf52832_xxAA.a(net_state.c.obj)
 .data.mem_listener.9724
                0x200019f0       0x10 mesh/core/libmesh_core_nrf52832_xxAA.a(net_state.c.obj)
 .data.g_log_debug_level
                0x20001a00        0x4 mesh/core/libmesh_core_nrf52832_xxAA.a(log.c.obj)
                0x20001a00                g_log_debug_level
 .data.g_log_debug_msk
                0x20001a04        0x4 mesh/core/libmesh_core_nrf52832_xxAA.a(log.c.obj)
                0x20001a04                g_log_debug_msk
 .data.g_log_hex_digits
                0x20001a08        0x4 mesh/core/libmesh_core_nrf52832_xxAA.a(log.c.obj)
                0x20001a08                g_log_hex_digits
 .data.m_log_callback
                0x20001a0c        0x4 mesh/core/libmesh_core_nrf52832_xxAA.a(log.c.obj)
                0x20001a0c                m_log_callback
 .data._impure_ptr
                0x20001a10        0x4 c:/a/gcc_arm/6/bin/../lib/gcc/arm-none-eabi/6.3.1/../../../../arm-none-eabi/lib/thumb/v7e-m/fpv4-sp/hard\libc_nano.a(lib_a-impure.o)
                0x20001a10                _impure_ptr
 .data.impure_data
                0x20001a14       0x60 c:/a/gcc_arm/6/bin/../lib/gcc/arm-none-eabi/6.3.1/../../../../arm-none-eabi/lib/thumb/v7e-m/fpv4-sp/hard\libc_nano.a(lib_a-impure.o)
                0x20001a74                . = ALIGN (0x4)
                0x20001a74                PROVIDE (__preinit_array_start, .)
 *(.preinit_array)
                0x20001a74                PROVIDE (__preinit_array_end, .)
                0x20001a74                . = ALIGN (0x4)
                0x20001a74                PROVIDE (__init_array_start, .)
 *(SORT(.init_array.*))
 *(.init_array)
 .init_array    0x20001a74        0x4 c:/a/gcc_arm/6/bin/../lib/gcc/arm-none-eabi/6.3.1/thumb/v7e-m/fpv4-sp/hard/crtbegin.o
                0x20001a78                PROVIDE (__init_array_end, .)
                0x20001a78                . = ALIGN (0x4)
                [!provide]                PROVIDE (__fini_array_start, .)
 *(SORT(.fini_array.*))
 *(.fini_array)
 .fini_array    0x20001a78        0x4 c:/a/gcc_arm/6/bin/../lib/gcc/arm-none-eabi/6.3.1/thumb/v7e-m/fpv4-sp/hard/crtbegin.o
                [!provide]                PROVIDE (__fini_array_end, .)
 *(.jcr*)
 .jcr           0x20001a7c        0x0 c:/a/gcc_arm/6/bin/../lib/gcc/arm-none-eabi/6.3.1/thumb/v7e-m/fpv4-sp/hard/crtbegin.o
 .jcr           0x20001a7c        0x4 c:/a/gcc_arm/6/bin/../lib/gcc/arm-none-eabi/6.3.1/thumb/v7e-m/fpv4-sp/hard/crtend.o
                0x20001a80                . = ALIGN (0x4)
                0x20001a80                __data_end__ = .

.igot.plt       0x20001a80        0x0 load address 0x0002a480
 .igot.plt      0x20001a80        0x0 c:/a/gcc_arm/6/bin/../lib/gcc/arm-none-eabi/6.3.1/thumb/v7e-m/fpv4-sp/hard/crtbegin.o

.bss            0x20001a80     0x2c88 load address 0x0002a480
                0x20001a80                . = ALIGN (0x4)
                0x20001a80                __bss_start__ = .
 *(.bss*)
 .bss           0x20001a80       0x1c c:/a/gcc_arm/6/bin/../lib/gcc/arm-none-eabi/6.3.1/thumb/v7e-m/fpv4-sp/hard/crtbegin.o
 .bss.m_evt_handler
                0x20001a9c        0x8 examples/dfu/CMakeFiles/dfu_no_serial_nrf52832_xxAA_s132_3.1.0.dir/src/main.c.obj
 .bss.m_ble_evt_buffer
                0x20001aa4       0x4f examples/dfu/CMakeFiles/dfu_no_serial_nrf52832_xxAA_s132_3.1.0.dir/__/nrf_mesh_sdk.c.obj
 *fill*         0x20001af3        0x1 
 .bss.m_addr_nonvirtual_allocated
                0x20001af4        0x4 examples/dfu/CMakeFiles/dfu_no_serial_nrf52832_xxAA_s132_3.1.0.dir/__/__/mesh/access/src/device_state_manager.c.obj
 .bss.m_addr_unicast_allocated
                0x20001af8        0x4 examples/dfu/CMakeFiles/dfu_no_serial_nrf52832_xxAA_s132_3.1.0.dir/__/__/mesh/access/src/device_state_manager.c.obj
 .bss.m_addr_virtual_allocated
                0x20001afc        0x4 examples/dfu/CMakeFiles/dfu_no_serial_nrf52832_xxAA_s132_3.1.0.dir/__/__/mesh/access/src/device_state_manager.c.obj
 .bss.m_addresses
                0x20001b00       0x40 examples/dfu/CMakeFiles/dfu_no_serial_nrf52832_xxAA_s132_3.1.0.dir/__/__/mesh/access/src/device_state_manager.c.obj
 .bss.m_appkey_allocated
                0x20001b40        0x4 examples/dfu/CMakeFiles/dfu_no_serial_nrf52832_xxAA_s132_3.1.0.dir/__/__/mesh/access/src/device_state_manager.c.obj
 .bss.m_appkeys
                0x20001b44       0xb0 examples/dfu/CMakeFiles/dfu_no_serial_nrf52832_xxAA_s132_3.1.0.dir/__/__/mesh/access/src/device_state_manager.c.obj
 .bss.m_devkeys
                0x20001bf4       0x16 examples/dfu/CMakeFiles/dfu_no_serial_nrf52832_xxAA_s132_3.1.0.dir/__/__/mesh/access/src/device_state_manager.c.obj
 .bss.m_has_primary_subnet
                0x20001c0a        0x1 examples/dfu/CMakeFiles/dfu_no_serial_nrf52832_xxAA_s132_3.1.0.dir/__/__/mesh/access/src/device_state_manager.c.obj
 *fill*         0x20001c0b        0x1 
 .bss.m_local_unicast_addr
                0x20001c0c        0x4 examples/dfu/CMakeFiles/dfu_no_serial_nrf52832_xxAA_s132_3.1.0.dir/__/__/mesh/access/src/device_state_manager.c.obj
 .bss.m_subnet_allocated
                0x20001c10        0x4 examples/dfu/CMakeFiles/dfu_no_serial_nrf52832_xxAA_s132_3.1.0.dir/__/__/mesh/access/src/device_state_manager.c.obj
 .bss.m_subnets
                0x20001c14      0x170 examples/dfu/CMakeFiles/dfu_no_serial_nrf52832_xxAA_s132_3.1.0.dir/__/__/mesh/access/src/device_state_manager.c.obj
 .bss.m_virtual_addresses
                0x20001d84       0xa0 examples/dfu/CMakeFiles/dfu_no_serial_nrf52832_xxAA_s132_3.1.0.dir/__/__/mesh/access/src/device_state_manager.c.obj
 .bss.mp_bearer_head
                0x20001e24        0x4 examples/dfu/CMakeFiles/dfu_no_serial_nrf52832_xxAA_s132_3.1.0.dir/__/__/mesh/prov/src/prov_bearer_adv.c.obj
 .bss.m_adv_packet
                0x20001e28       0x28 examples/dfu/CMakeFiles/dfu_no_serial_nrf52832_xxAA_s132_3.1.0.dir/__/__/mesh/dfu/src/nrf_mesh_dfu.c.obj
 .bss.m_broadcast
                0x20001e50       0x34 examples/dfu/CMakeFiles/dfu_no_serial_nrf52832_xxAA_s132_3.1.0.dir/__/__/mesh/dfu/src/nrf_mesh_dfu.c.obj
 .bss.m_prng    0x20001e84       0x10 examples/dfu/CMakeFiles/dfu_no_serial_nrf52832_xxAA_s132_3.1.0.dir/__/__/mesh/dfu/src/nrf_mesh_dfu.c.obj
 .bss.m_timer_evt
                0x20001e94       0x18 examples/dfu/CMakeFiles/dfu_no_serial_nrf52832_xxAA_s132_3.1.0.dir/__/__/mesh/dfu/src/nrf_mesh_dfu.c.obj
 .bss.m_transfer_state
                0x20001eac       0x12 examples/dfu/CMakeFiles/dfu_no_serial_nrf52832_xxAA_s132_3.1.0.dir/__/__/mesh/dfu/src/nrf_mesh_dfu.c.obj
 *fill*         0x20001ebe        0x2 
 .bss.m_tx_slots
                0x20001ec0      0x120 examples/dfu/CMakeFiles/dfu_no_serial_nrf52832_xxAA_s132_3.1.0.dir/__/__/mesh/dfu/src/nrf_mesh_dfu.c.obj
 .bss.m_tx_timer_evt
                0x20001fe0       0x18 examples/dfu/CMakeFiles/dfu_no_serial_nrf52832_xxAA_s132_3.1.0.dir/__/__/mesh/dfu/src/nrf_mesh_dfu.c.obj
 .bss.mp_curr_fwid
                0x20001ff8        0x4 examples/dfu/CMakeFiles/dfu_no_serial_nrf52832_xxAA_s132_3.1.0.dir/__/__/mesh/dfu/src/nrf_mesh_dfu.c.obj
 .bss.m_uuid    0x20001ffc       0x10 mesh/core/libmesh_core_nrf52832_xxAA.a(nrf_mesh_configure.c.obj)
 .bss.mp_evt_handlers_head
                0x2000200c        0x4 mesh/core/libmesh_core_nrf52832_xxAA.a(event.c.obj)
 .bss.lock_count.9764
                0x20002010        0x4 mesh/core/libmesh_core_nrf52832_xxAA.a(net_state.c.obj)
 .bss.m_flash_manager
                0x20002014       0x24 mesh/core/libmesh_core_nrf52832_xxAA.a(net_state.c.obj)
 .bss.m_iv_update_timer
                0x20002038       0x18 mesh/core/libmesh_core_nrf52832_xxAA.a(net_state.c.obj)
 .bss.m_net_state
                0x20002050       0x14 mesh/core/libmesh_core_nrf52832_xxAA.a(net_state.c.obj)
 .bss.m_seqnum_allocation_in_progress
                0x20002064        0x1 mesh/core/libmesh_core_nrf52832_xxAA.a(net_state.c.obj)
 .bss.m_test_mode
                0x20002065        0x1 mesh/core/libmesh_core_nrf52832_xxAA.a(net_state.c.obj)
 *fill*         0x20002066        0x2 
 .bss.m_event_flag
                0x20002068        0x4 mesh/core/libmesh_core_nrf52832_xxAA.a(mesh_flash.c.obj)
 .bss.m_suspended
                0x2000206c        0x1 mesh/core/libmesh_core_nrf52832_xxAA.a(mesh_flash.c.obj)
 *fill*         0x2000206d        0x3 
 .bss.m_users   0x20002070      0x228 mesh/core/libmesh_core_nrf52832_xxAA.a(mesh_flash.c.obj)
 .bss.suspend_count.9861
                0x20002298        0x4 mesh/core/libmesh_core_nrf52832_xxAA.a(mesh_flash.c.obj)
 .bss.m_is_enabled
                0x2000229c        0x1 mesh/core/libmesh_core_nrf52832_xxAA.a(nrf_mesh.c.obj)
 .bss.m_is_initialized
                0x2000229d        0x1 mesh/core/libmesh_core_nrf52832_xxAA.a(nrf_mesh.c.obj)
 *fill*         0x2000229e        0x2 
 .bss.m_rx_cb   0x200022a0        0x4 mesh/core/libmesh_core_nrf52832_xxAA.a(nrf_mesh.c.obj)
 .bss.m_event_flag
                0x200022a4        0x4 mesh/core/libmesh_core_nrf52832_xxAA.a(timer_scheduler.c.obj)
 .bss.m_scheduler
                0x200022a8       0x10 mesh/core/libmesh_core_nrf52832_xxAA.a(timer_scheduler.c.obj)
 .bss.m_attributes
                0x200022b8        0x3 mesh/core/libmesh_core_nrf52832_xxAA.a(timer.c.obj)
 *fill*         0x200022bb        0x1 
 .bss.m_callbacks
                0x200022bc        0xc mesh/core/libmesh_core_nrf52832_xxAA.a(timer.c.obj)
 .bss.m_is_in_ts
                0x200022c8        0x1 mesh/core/libmesh_core_nrf52832_xxAA.a(timer.c.obj)
 *fill*         0x200022c9        0x3 
 .bss.m_reference_time
                0x200022cc        0x4 mesh/core/libmesh_core_nrf52832_xxAA.a(timer.c.obj)
 .bss.m_timeouts
                0x200022d0        0xc mesh/core/libmesh_core_nrf52832_xxAA.a(timer.c.obj)
 .bss.m_timer_mut
                0x200022dc        0x4 mesh/core/libmesh_core_nrf52832_xxAA.a(timer.c.obj)
 .bss.m_ts_end_time
                0x200022e0        0x4 mesh/core/libmesh_core_nrf52832_xxAA.a(timer.c.obj)
 .bss.mp_ppi_tasks
                0x200022e4        0xc mesh/core/libmesh_core_nrf52832_xxAA.a(timer.c.obj)
 .bss.m_current_time
                0x200022f0        0x4 mesh/core/libmesh_core_nrf52832_xxAA.a(ticker.c.obj)
 .bss.m_timer   0x200022f4       0x18 mesh/core/libmesh_core_nrf52832_xxAA.a(ticker.c.obj)
 .bss.m_current_timeslot
                0x2000230c       0x1c mesh/core/libmesh_core_nrf52832_xxAA.a(timeslot.c.obj)
 .bss.m_lfclk_ppm
                0x20002328        0x4 mesh/core/libmesh_core_nrf52832_xxAA.a(timeslot.c.obj)
 .bss.m_radio_request_earliest
                0x2000232c       0x10 mesh/core/libmesh_core_nrf52832_xxAA.a(timeslot.c.obj)
 .bss.m_state_lock
                0x2000233c        0x1 mesh/core/libmesh_core_nrf52832_xxAA.a(timeslot.c.obj)
 .bss.m_timeslot_forced_command
                0x2000233d        0x1 mesh/core/libmesh_core_nrf52832_xxAA.a(timeslot.c.obj)
 *fill*         0x2000233e        0x2 
 .bss.s_last_rtc_value.9029
                0x20002340        0x8 mesh/core/libmesh_core_nrf52832_xxAA.a(timeslot.c.obj)
 .bss.m_bearer_event_fifo
                0x20002348       0x14 mesh/core/libmesh_core_nrf52832_xxAA.a(bearer_event.c.obj)
 .bss.m_bearer_event_fifo_buffer
                0x2000235c      0x100 mesh/core/libmesh_core_nrf52832_xxAA.a(bearer_event.c.obj)
 .bss.m_critical
                0x2000245c        0x4 mesh/core/libmesh_core_nrf52832_xxAA.a(bearer_event.c.obj)
 .bss.m_flag_count
                0x20002460        0x4 mesh/core/libmesh_core_nrf52832_xxAA.a(bearer_event.c.obj)
 .bss.m_flag_event_callbacks
                0x20002464       0x18 mesh/core/libmesh_core_nrf52832_xxAA.a(bearer_event.c.obj)
 .bss.m_flags   0x2000247c        0x4 mesh/core/libmesh_core_nrf52832_xxAA.a(bearer_event.c.obj)
 .bss.m_sequential_event_queue
                0x20002480        0x8 mesh/core/libmesh_core_nrf52832_xxAA.a(bearer_event.c.obj)
 .bss.m_relay_check_cb
                0x20002488        0x4 mesh/core/libmesh_core_nrf52832_xxAA.a(network.c.obj)
 .bss.m_relay_enable
                0x2000248c        0x1 mesh/core/libmesh_core_nrf52832_xxAA.a(network.c.obj)
 *fill*         0x2000248d        0x3 
 .bss.m_action_queue
                0x20002490        0xc mesh/core/libmesh_core_nrf52832_xxAA.a(flash_manager.c.obj)
 .bss.m_action_queue_buffer
                0x2000249c      0x104 mesh/core/libmesh_core_nrf52832_xxAA.a(flash_manager.c.obj)
 .bss.m_action_state
                0x200025a0        0x1 mesh/core/libmesh_core_nrf52832_xxAA.a(flash_manager.c.obj)
 *fill*         0x200025a1        0x3 
 .bss.m_memory_listener_queue
                0x200025a4        0x8 mesh/core/libmesh_core_nrf52832_xxAA.a(flash_manager.c.obj)
 .bss.m_processing_flag
                0x200025ac        0x4 mesh/core/libmesh_core_nrf52832_xxAA.a(flash_manager.c.obj)
 .bss.m_state   0x200025b0        0x1 mesh/core/libmesh_core_nrf52832_xxAA.a(flash_manager.c.obj)
 *fill*         0x200025b1        0x1 
 .bss.m_token   0x200025b2        0x2 mesh/core/libmesh_core_nrf52832_xxAA.a(flash_manager.c.obj)
 .bss.p_current.10881
                0x200025b4        0x4 mesh/core/libmesh_core_nrf52832_xxAA.a(flash_manager.c.obj)
 .bss.result.10882
                0x200025b8        0x1 mesh/core/libmesh_core_nrf52832_xxAA.a(flash_manager.c.obj)
 *fill*         0x200025b9        0x3 
 .bss.m_adv_buffer
                0x200025bc       0x68 mesh/core/libmesh_core_nrf52832_xxAA.a(beacon.c.obj)
 .bss.m_advertiser
                0x20002624       0x94 mesh/core/libmesh_core_nrf52832_xxAA.a(beacon.c.obj)
 .bss.m_adv_tx_count
                0x200026b8        0x8 mesh/core/libmesh_core_nrf52832_xxAA.a(core_tx.c.obj)
 .bss.m_advertisers
                0x200026c0      0x128 mesh/core/libmesh_core_nrf52832_xxAA.a(core_tx.c.obj)
 .bss.m_originator_adv_packet_buffer
                0x200027e8      0x100 mesh/core/libmesh_core_nrf52832_xxAA.a(core_tx.c.obj)
 .bss.m_relay_adv_packet_buffer
                0x200028e8       0x80 mesh/core/libmesh_core_nrf52832_xxAA.a(core_tx.c.obj)
 .bss.m_tx_complete_callback
                0x20002968        0x4 mesh/core/libmesh_core_nrf52832_xxAA.a(core_tx.c.obj)
 .bss.m_beacon_salt
                0x2000296c       0x10 mesh/core/libmesh_core_nrf52832_xxAA.a(net_beacon.c.obj)
 .bss.m_enabled
                0x2000297c        0x1 mesh/core/libmesh_core_nrf52832_xxAA.a(net_beacon.c.obj)
 *fill*         0x2000297d        0x3 
 .bss.m_tx_event
                0x20002980       0x18 mesh/core/libmesh_core_nrf52832_xxAA.a(net_beacon.c.obj)
 .bss.m_adv_prng
                0x20002998       0x10 mesh/core/libmesh_core_nrf52832_xxAA.a(advertiser.c.obj)
 .bss.m_action_queue
                0x200029a8        0x8 mesh/core/libmesh_core_nrf52832_xxAA.a(bearer_handler.c.obj)
 .bss.m_end_time
                0x200029b0        0x4 mesh/core/libmesh_core_nrf52832_xxAA.a(bearer_handler.c.obj)
 .bss.m_scanner_is_active
                0x200029b4        0x1 mesh/core/libmesh_core_nrf52832_xxAA.a(bearer_handler.c.obj)
 .bss.m_stopped
                0x200029b5        0x1 mesh/core/libmesh_core_nrf52832_xxAA.a(bearer_handler.c.obj)
 *fill*         0x200029b6        0x2 
 .bss.mp_action
                0x200029b8        0x4 mesh/core/libmesh_core_nrf52832_xxAA.a(bearer_handler.c.obj)
 .bss.m_next_channel_index
                0x200029bc        0x1 mesh/core/libmesh_core_nrf52832_xxAA.a(broadcast.c.obj)
 *fill*         0x200029bd        0x3 
 .bss.m_scanner
                0x200029c0      0x284 mesh/core/libmesh_core_nrf52832_xxAA.a(scanner.c.obj)
 .bss.m_internal_event_fifo
                0x20002c44       0x14 mesh/core/libmesh_core_nrf52832_xxAA.a(internal_event.c.obj)
 .bss.m_internal_event_initialized
                0x20002c58        0x1 mesh/core/libmesh_core_nrf52832_xxAA.a(internal_event.c.obj)
 *fill*         0x20002c59        0x3 
 .bss.m_report_cb
                0x20002c5c        0x4 mesh/core/libmesh_core_nrf52832_xxAA.a(internal_event.c.obj)
 .bss.m_msg_cache
                0x20002c60      0x100 mesh/core/libmesh_core_nrf52832_xxAA.a(msg_cache.c.obj)
 .bss.m_msg_cache_head
                0x20002d60        0x4 mesh/core/libmesh_core_nrf52832_xxAA.a(msg_cache.c.obj)
 .bss.m_sar_alloc
                0x20002d64        0x4 mesh/core/libmesh_core_nrf52832_xxAA.a(transport.c.obj)
 .bss.m_sar_process_flag
                0x20002d68        0x4 mesh/core/libmesh_core_nrf52832_xxAA.a(transport.c.obj)
 .bss.m_sar_release
                0x20002d6c        0x4 mesh/core/libmesh_core_nrf52832_xxAA.a(transport.c.obj)
 .bss.m_sar_session_cache
                0x20002d70       0x40 mesh/core/libmesh_core_nrf52832_xxAA.a(transport.c.obj)
 .bss.m_sar_session_cache_head
                0x20002db0        0x4 mesh/core/libmesh_core_nrf52832_xxAA.a(transport.c.obj)
 .bss.m_trs_config
                0x20002db4       0x18 mesh/core/libmesh_core_nrf52832_xxAA.a(transport.c.obj)
 .bss.m_trs_sar_sessions
                0x20002dcc      0x1b0 mesh/core/libmesh_core_nrf52832_xxAA.a(transport.c.obj)
 .bss.m_defrag  0x20002f7c       0x1c mesh/core/libmesh_core_nrf52832_xxAA.a(flash_manager_defrag.c.obj)
 .bss.m_token   0x20002f98        0x2 mesh/core/libmesh_core_nrf52832_xxAA.a(flash_manager_defrag.c.obj)
 *fill*         0x20002f9a        0x2 
 .bss.mp_recovery_area
                0x20002f9c        0x4 mesh/core/libmesh_core_nrf52832_xxAA.a(flash_manager_defrag.c.obj)
 .bss.p_null_ptr.9934
                0x20002fa0        0x4 mesh/core/libmesh_core_nrf52832_xxAA.a(flash_manager_defrag.c.obj)
 .bss.m_pool    0x20002fa4     0x1000 mesh/core/libmesh_core_nrf52832_xxAA.a(packet_mgr.c.obj)
 .bss.mp_free_head
                0x20003fa4        0x4 mesh/core/libmesh_core_nrf52832_xxAA.a(packet_mgr.c.obj)
 .bss.m_128buf  0x20003fa8       0x10 mesh/core/libmesh_core_nrf52832_xxAA.a(aes_cmac.c.obj)
 .bss.m_subkey1
                0x20003fb8       0x10 mesh/core/libmesh_core_nrf52832_xxAA.a(aes_cmac.c.obj)
 .bss.m_subkey2
                0x20003fc8       0x10 mesh/core/libmesh_core_nrf52832_xxAA.a(aes_cmac.c.obj)
 .bss.m_cache_full
                0x20003fd8        0x1 mesh/core/libmesh_core_nrf52832_xxAA.a(replay_cache.c.obj)
 .bss.m_cache_index
                0x20003fd9        0x1 mesh/core/libmesh_core_nrf52832_xxAA.a(replay_cache.c.obj)
 *fill*         0x20003fda        0x2 
 .bss.m_replay_cache
                0x20003fdc      0x200 mesh/core/libmesh_core_nrf52832_xxAA.a(replay_cache.c.obj)
 .bss.m_accepted_amount
                0x200041dc        0x4 mesh/core/libmesh_core_nrf52832_xxAA.a(filter_engine.c.obj)
 .bss.m_filter_list_head
                0x200041e0        0x4 mesh/core/libmesh_core_nrf52832_xxAA.a(filter_engine.c.obj)
 .bss._acDownBuffer
                0x200041e4       0x80 external/rtt/librtt_nrf52832_xxAA.a(SEGGER_RTT.c.obj)
 .bss._acUpBuffer
                0x20004264      0x400 external/rtt/librtt_nrf52832_xxAA.a(SEGGER_RTT.c.obj)
 .bss.__malloc_free_list
                0x20004664        0x4 c:/a/gcc_arm/6/bin/../lib/gcc/arm-none-eabi/6.3.1/../../../../arm-none-eabi/lib/thumb/v7e-m/fpv4-sp/hard\libc_nano.a(lib_a-nano-mallocr.o)
                0x20004664                __malloc_free_list
 .bss.__malloc_sbrk_start
                0x20004668        0x4 c:/a/gcc_arm/6/bin/../lib/gcc/arm-none-eabi/6.3.1/../../../../arm-none-eabi/lib/thumb/v7e-m/fpv4-sp/hard\libc_nano.a(lib_a-nano-mallocr.o)
                0x20004668                __malloc_sbrk_start
 .bss.heap_end.5239
                0x2000466c        0x4 c:/a/gcc_arm/6/bin/../lib/gcc/arm-none-eabi/6.3.1/../../../../arm-none-eabi/lib/thumb/v7e-m/fpv4-sp/hard\libnosys.a(sbrk.o)
 *(COMMON)
 COMMON         0x20004670        0x8 examples/dfu/CMakeFiles/dfu_no_serial_nrf52832_xxAA_s132_3.1.0.dir/src/main.c.obj
                0x20004670                bank_addr
                0x20004674                rom_length
 COMMON         0x20004678        0xc examples/dfu/CMakeFiles/dfu_no_serial_nrf52832_xxAA_s132_3.1.0.dir/__/nrf_mesh_sdk.c.obj
                0x20004678                nrf_nvic_state
 COMMON         0x20004684        0x4 examples/dfu/CMakeFiles/dfu_no_serial_nrf52832_xxAA_s132_3.1.0.dir/__/__/mesh/dfu/src/nrf_mesh_dfu.c.obj
                0x20004684                m_cmd_handler
 COMMON         0x20004688        0x4 mesh/core/libmesh_core_nrf52832_xxAA.a(nrf_mesh.c.obj)
                0x20004688                m_assertion_handler
 COMMON         0x2000468c       0x78 external/rtt/librtt_nrf52832_xxAA.a(SEGGER_RTT.c.obj)
                0x2000468c                _SEGGER_RTT
 COMMON         0x20004704        0x4 c:/a/gcc_arm/6/bin/../lib/gcc/arm-none-eabi/6.3.1/../../../../arm-none-eabi/lib/thumb/v7e-m/fpv4-sp/hard\libc_nano.a(lib_a-reent.o)
                0x20004704                errno
                0x20004708                . = ALIGN (0x4)
                0x20004708                __bss_end__ = .

.heap           0x20004708     0x2000
                0x20004708                __HeapBase = .
                0x20004708                __end__ = .
                0x20004708                PROVIDE (end, .)
 *(.heap*)
 .heap          0x20004708     0x2000 examples/dfu/CMakeFiles/dfu_no_serial_nrf52832_xxAA_s132_3.1.0.dir/__/__/external/nRF5_SDK_14.0.0_3bcc1f7/components/toolchain/gcc/gcc_startup_nrf52.S.obj
                0x20006708                __HeapLimit = .

.stack_dummy    0x20004708     0x2000
 *(.stack*)
 .stack         0x20004708     0x2000 examples/dfu/CMakeFiles/dfu_no_serial_nrf52832_xxAA_s132_3.1.0.dir/__/__/external/nRF5_SDK_14.0.0_3bcc1f7/components/toolchain/gcc/gcc_startup_nrf52.S.obj
                0x2000f000                __StackTop = (ORIGIN (RAM) + LENGTH (RAM))
                0x2000d000                __StackLimit = (__StackTop - SIZEOF (.stack_dummy))
                0x2000f000                PROVIDE (__stack, __StackTop)
                0x00000001                ASSERT ((__StackLimit >= __HeapLimit), region RAM overflowed with stack)
OUTPUT(examples\dfu\dfu_no_serial_nrf52832_xxAA_s132_3.1.0.elf elf32-littlearm)

.ARM.attributes
                0x00000000       0x30
 .ARM.attributes
                0x00000000       0x22 c:/a/gcc_arm/6/bin/../lib/gcc/arm-none-eabi/6.3.1/thumb/v7e-m/fpv4-sp/hard/crti.o
 .ARM.attributes
                0x00000022       0x34 c:/a/gcc_arm/6/bin/../lib/gcc/arm-none-eabi/6.3.1/thumb/v7e-m/fpv4-sp/hard/crtbegin.o
 .ARM.attributes
                0x00000056       0x20 c:/a/gcc_arm/6/bin/../lib/gcc/arm-none-eabi/6.3.1/../../../../arm-none-eabi/lib/thumb/v7e-m/fpv4-sp/hard/crt0.o
 .ARM.attributes
                0x00000076       0x39 examples/dfu/CMakeFiles/dfu_no_serial_nrf52832_xxAA_s132_3.1.0.dir/src/main.c.obj
 .ARM.attributes
                0x000000af       0x39 examples/dfu/CMakeFiles/dfu_no_serial_nrf52832_xxAA_s132_3.1.0.dir/__/nrf_mesh_sdk.c.obj
 .ARM.attributes
                0x000000e8       0x39 examples/dfu/CMakeFiles/dfu_no_serial_nrf52832_xxAA_s132_3.1.0.dir/__/__/mesh/access/src/device_state_manager.c.obj
 .ARM.attributes
                0x00000121       0x39 examples/dfu/CMakeFiles/dfu_no_serial_nrf52832_xxAA_s132_3.1.0.dir/__/__/mesh/prov/src/provisioning.c.obj
 .ARM.attributes
                0x0000015a       0x39 examples/dfu/CMakeFiles/dfu_no_serial_nrf52832_xxAA_s132_3.1.0.dir/__/__/mesh/prov/src/prov_beacon.c.obj
 .ARM.attributes
                0x00000193       0x39 examples/dfu/CMakeFiles/dfu_no_serial_nrf52832_xxAA_s132_3.1.0.dir/__/__/mesh/prov/src/prov_bearer_adv.c.obj
 .ARM.attributes
                0x000001cc       0x39 examples/dfu/CMakeFiles/dfu_no_serial_nrf52832_xxAA_s132_3.1.0.dir/__/__/mesh/dfu/src/nrf_mesh_dfu.c.obj
 .ARM.attributes
                0x00000205       0x39 examples/dfu/CMakeFiles/dfu_no_serial_nrf52832_xxAA_s132_3.1.0.dir/__/__/external/nRF5_SDK_14.0.0_3bcc1f7/components/toolchain/system_nrf52.c.obj
 .ARM.attributes
                0x0000023e       0x20 examples/dfu/CMakeFiles/dfu_no_serial_nrf52832_xxAA_s132_3.1.0.dir/__/__/external/nRF5_SDK_14.0.0_3bcc1f7/components/toolchain/gcc/gcc_startup_nrf52.S.obj
 .ARM.attributes
                0x0000025e       0x39 mesh/core/libmesh_core_nrf52832_xxAA.a(nrf_mesh_configure.c.obj)
 .ARM.attributes
                0x00000297       0x39 mesh/core/libmesh_core_nrf52832_xxAA.a(event.c.obj)
 .ARM.attributes
                0x000002d0       0x39 mesh/core/libmesh_core_nrf52832_xxAA.a(net_state.c.obj)
 .ARM.attributes
                0x00000309       0x39 mesh/core/libmesh_core_nrf52832_xxAA.a(mesh_flash.c.obj)
 .ARM.attributes
                0x00000342       0x39 mesh/core/libmesh_core_nrf52832_xxAA.a(nrf_mesh_utils.c.obj)
 .ARM.attributes
                0x0000037b       0x39 mesh/core/libmesh_core_nrf52832_xxAA.a(nrf_mesh.c.obj)
 .ARM.attributes
                0x000003b4       0x39 mesh/core/libmesh_core_nrf52832_xxAA.a(hal.c.obj)
 .ARM.attributes
                0x000003ed       0x39 mesh/core/libmesh_core_nrf52832_xxAA.a(timer_scheduler.c.obj)
 .ARM.attributes
                0x00000426       0x39 mesh/core/libmesh_core_nrf52832_xxAA.a(timer.c.obj)
 .ARM.attributes
                0x0000045f       0x39 mesh/core/libmesh_core_nrf52832_xxAA.a(ticker.c.obj)
 .ARM.attributes
                0x00000498       0x39 mesh/core/libmesh_core_nrf52832_xxAA.a(rand.c.obj)
 .ARM.attributes
                0x000004d1       0x39 mesh/core/libmesh_core_nrf52832_xxAA.a(timeslot.c.obj)
 .ARM.attributes
                0x0000050a       0x39 mesh/core/libmesh_core_nrf52832_xxAA.a(bearer_event.c.obj)
 .ARM.attributes
                0x00000543       0x39 mesh/core/libmesh_core_nrf52832_xxAA.a(enc.c.obj)
 .ARM.attributes
                0x0000057c       0x39 mesh/core/libmesh_core_nrf52832_xxAA.a(network.c.obj)
 .ARM.attributes
                0x000005b5       0x39 mesh/core/libmesh_core_nrf52832_xxAA.a(msqueue.c.obj)
 .ARM.attributes
                0x000005ee       0x39 mesh/core/libmesh_core_nrf52832_xxAA.a(log.c.obj)
 .ARM.attributes
                0x00000627       0x39 mesh/core/libmesh_core_nrf52832_xxAA.a(flash_manager.c.obj)
 .ARM.attributes
                0x00000660       0x39 mesh/core/libmesh_core_nrf52832_xxAA.a(ccm_soft.c.obj)
 .ARM.attributes
                0x00000699       0x39 mesh/core/libmesh_core_nrf52832_xxAA.a(beacon.c.obj)
 .ARM.attributes
                0x000006d2       0x39 mesh/core/libmesh_core_nrf52832_xxAA.a(flash_manager_internal.c.obj)
 .ARM.attributes
                0x0000070b       0x39 mesh/core/libmesh_core_nrf52832_xxAA.a(core_tx.c.obj)
 .ARM.attributes
                0x00000744       0x39 mesh/core/libmesh_core_nrf52832_xxAA.a(net_beacon.c.obj)
 .ARM.attributes
                0x0000077d       0x39 mesh/core/libmesh_core_nrf52832_xxAA.a(advertiser.c.obj)
 .ARM.attributes
                0x000007b6       0x39 mesh/core/libmesh_core_nrf52832_xxAA.a(bearer_handler.c.obj)
 .ARM.attributes
                0x000007ef       0x39 mesh/core/libmesh_core_nrf52832_xxAA.a(broadcast.c.obj)
 .ARM.attributes
                0x00000828       0x39 mesh/core/libmesh_core_nrf52832_xxAA.a(radio_config.c.obj)
 .ARM.attributes
                0x00000861       0x39 mesh/core/libmesh_core_nrf52832_xxAA.a(scanner.c.obj)
 .ARM.attributes
                0x0000089a       0x39 mesh/core/libmesh_core_nrf52832_xxAA.a(internal_event.c.obj)
 .ARM.attributes
                0x000008d3       0x39 mesh/core/libmesh_core_nrf52832_xxAA.a(aes.c.obj)
 .ARM.attributes
                0x0000090c       0x39 mesh/core/libmesh_core_nrf52832_xxAA.a(msg_cache.c.obj)
 .ARM.attributes
                0x00000945       0x39 mesh/core/libmesh_core_nrf52832_xxAA.a(transport.c.obj)
 .ARM.attributes
                0x0000097e       0x39 mesh/core/libmesh_core_nrf52832_xxAA.a(packet_buffer.c.obj)
 .ARM.attributes
                0x000009b7       0x39 mesh/core/libmesh_core_nrf52832_xxAA.a(flash_manager_defrag.c.obj)
 .ARM.attributes
                0x000009f0       0x39 mesh/core/libmesh_core_nrf52832_xxAA.a(fifo.c.obj)
 .ARM.attributes
                0x00000a29       0x39 mesh/core/libmesh_core_nrf52832_xxAA.a(nrf_flash.c.obj)
 .ARM.attributes
                0x00000a62       0x39 mesh/core/libmesh_core_nrf52832_xxAA.a(packet_mgr.c.obj)
 .ARM.attributes
                0x00000a9b       0x39 mesh/core/libmesh_core_nrf52832_xxAA.a(queue.c.obj)
 .ARM.attributes
                0x00000ad4       0x39 mesh/core/libmesh_core_nrf52832_xxAA.a(aes_cmac.c.obj)
 .ARM.attributes
                0x00000b0d       0x39 mesh/core/libmesh_core_nrf52832_xxAA.a(replay_cache.c.obj)
 .ARM.attributes
                0x00000b46       0x39 mesh/core/libmesh_core_nrf52832_xxAA.a(filter_engine.c.obj)
 .ARM.attributes
                0x00000b7f       0x39 external/rtt/librtt_nrf52832_xxAA.a(SEGGER_RTT.c.obj)
 .ARM.attributes
                0x00000bb8       0x39 external/rtt/librtt_nrf52832_xxAA.a(SEGGER_RTT_printf.c.obj)
 .ARM.attributes
                0x00000bf1       0x34 c:/a/gcc_arm/6/bin/../lib/gcc/arm-none-eabi/6.3.1/../../../../arm-none-eabi/lib/thumb/v7e-m/fpv4-sp/hard\libc_nano.a(lib_a-exit.o)
 .ARM.attributes
                0x00000c25       0x34 c:/a/gcc_arm/6/bin/../lib/gcc/arm-none-eabi/6.3.1/../../../../arm-none-eabi/lib/thumb/v7e-m/fpv4-sp/hard\libc_nano.a(lib_a-impure.o)
 .ARM.attributes
                0x00000c59       0x34 c:/a/gcc_arm/6/bin/../lib/gcc/arm-none-eabi/6.3.1/../../../../arm-none-eabi/lib/thumb/v7e-m/fpv4-sp/hard\libc_nano.a(lib_a-init.o)
 .ARM.attributes
                0x00000c8d       0x34 c:/a/gcc_arm/6/bin/../lib/gcc/arm-none-eabi/6.3.1/../../../../arm-none-eabi/lib/thumb/v7e-m/fpv4-sp/hard\libc_nano.a(lib_a-malloc.o)
 .ARM.attributes
                0x00000cc1       0x34 c:/a/gcc_arm/6/bin/../lib/gcc/arm-none-eabi/6.3.1/../../../../arm-none-eabi/lib/thumb/v7e-m/fpv4-sp/hard\libc_nano.a(lib_a-memcmp.o)
 .ARM.attributes
                0x00000cf5       0x34 c:/a/gcc_arm/6/bin/../lib/gcc/arm-none-eabi/6.3.1/../../../../arm-none-eabi/lib/thumb/v7e-m/fpv4-sp/hard\libc_nano.a(lib_a-memcpy-stub.o)
 .ARM.attributes
                0x00000d29       0x34 c:/a/gcc_arm/6/bin/../lib/gcc/arm-none-eabi/6.3.1/../../../../arm-none-eabi/lib/thumb/v7e-m/fpv4-sp/hard\libc_nano.a(lib_a-memset.o)
 .ARM.attributes
                0x00000d5d       0x34 c:/a/gcc_arm/6/bin/../lib/gcc/arm-none-eabi/6.3.1/../../../../arm-none-eabi/lib/thumb/v7e-m/fpv4-sp/hard\libc_nano.a(lib_a-nano-freer.o)
 .ARM.attributes
                0x00000d91       0x34 c:/a/gcc_arm/6/bin/../lib/gcc/arm-none-eabi/6.3.1/../../../../arm-none-eabi/lib/thumb/v7e-m/fpv4-sp/hard\libc_nano.a(lib_a-nano-mallocr.o)
 .ARM.attributes
                0x00000dc5       0x34 c:/a/gcc_arm/6/bin/../lib/gcc/arm-none-eabi/6.3.1/../../../../arm-none-eabi/lib/thumb/v7e-m/fpv4-sp/hard\libc_nano.a(lib_a-sbrkr.o)
 .ARM.attributes
                0x00000df9       0x34 c:/a/gcc_arm/6/bin/../lib/gcc/arm-none-eabi/6.3.1/../../../../arm-none-eabi/lib/thumb/v7e-m/fpv4-sp/hard\libc_nano.a(lib_a-strcpy.o)
 .ARM.attributes
                0x00000e2d       0x34 c:/a/gcc_arm/6/bin/../lib/gcc/arm-none-eabi/6.3.1/../../../../arm-none-eabi/lib/thumb/v7e-m/fpv4-sp/hard\libc_nano.a(lib_a-strrchr.o)
 .ARM.attributes
                0x00000e61       0x34 c:/a/gcc_arm/6/bin/../lib/gcc/arm-none-eabi/6.3.1/../../../../arm-none-eabi/lib/thumb/v7e-m/fpv4-sp/hard\libc_nano.a(lib_a-mlock.o)
 .ARM.attributes
                0x00000e95       0x34 c:/a/gcc_arm/6/bin/../lib/gcc/arm-none-eabi/6.3.1/../../../../arm-none-eabi/lib/thumb/v7e-m/fpv4-sp/hard\libc_nano.a(lib_a-reent.o)
 .ARM.attributes
                0x00000ec9       0x34 c:/a/gcc_arm/6/bin/../lib/gcc/arm-none-eabi/6.3.1/../../../../arm-none-eabi/lib/thumb/v7e-m/fpv4-sp/hard\libc_nano.a(lib_a-strchr.o)
 .ARM.attributes
                0x00000efd       0x34 c:/a/gcc_arm/6/bin/../lib/gcc/arm-none-eabi/6.3.1/thumb/v7e-m/fpv4-sp/hard/crtend.o
 .ARM.attributes
                0x00000f31       0x22 c:/a/gcc_arm/6/bin/../lib/gcc/arm-none-eabi/6.3.1/thumb/v7e-m/fpv4-sp/hard/crtn.o
 .ARM.attributes
                0x00000f53       0x34 c:/a/gcc_arm/6/bin/../lib/gcc/arm-none-eabi/6.3.1/../../../../arm-none-eabi/lib/thumb/v7e-m/fpv4-sp/hard\libnosys.a(sbrk.o)
 .ARM.attributes
                0x00000f87       0x34 c:/a/gcc_arm/6/bin/../lib/gcc/arm-none-eabi/6.3.1/../../../../arm-none-eabi/lib/thumb/v7e-m/fpv4-sp/hard\libnosys.a(_exit.o)

.comment        0x00000000       0x7f
 .comment       0x00000000       0x7f examples/dfu/CMakeFiles/dfu_no_serial_nrf52832_xxAA_s132_3.1.0.dir/src/main.c.obj
                                 0x80 (size before relaxing)
 .comment       0x0000007f       0x80 examples/dfu/CMakeFiles/dfu_no_serial_nrf52832_xxAA_s132_3.1.0.dir/__/nrf_mesh_sdk.c.obj
 .comment       0x0000007f       0x80 examples/dfu/CMakeFiles/dfu_no_serial_nrf52832_xxAA_s132_3.1.0.dir/__/__/mesh/access/src/device_state_manager.c.obj
 .comment       0x0000007f       0x80 examples/dfu/CMakeFiles/dfu_no_serial_nrf52832_xxAA_s132_3.1.0.dir/__/__/mesh/prov/src/provisioning.c.obj
 .comment       0x0000007f       0x80 examples/dfu/CMakeFiles/dfu_no_serial_nrf52832_xxAA_s132_3.1.0.dir/__/__/mesh/prov/src/prov_beacon.c.obj
 .comment       0x0000007f       0x80 examples/dfu/CMakeFiles/dfu_no_serial_nrf52832_xxAA_s132_3.1.0.dir/__/__/mesh/prov/src/prov_bearer_adv.c.obj
 .comment       0x0000007f       0x80 examples/dfu/CMakeFiles/dfu_no_serial_nrf52832_xxAA_s132_3.1.0.dir/__/__/mesh/dfu/src/nrf_mesh_dfu.c.obj
 .comment       0x0000007f       0x80 examples/dfu/CMakeFiles/dfu_no_serial_nrf52832_xxAA_s132_3.1.0.dir/__/__/external/nRF5_SDK_14.0.0_3bcc1f7/components/toolchain/system_nrf52.c.obj
 .comment       0x0000007f       0x80 mesh/core/libmesh_core_nrf52832_xxAA.a(nrf_mesh_configure.c.obj)
 .comment       0x0000007f       0x80 mesh/core/libmesh_core_nrf52832_xxAA.a(event.c.obj)
 .comment       0x0000007f       0x80 mesh/core/libmesh_core_nrf52832_xxAA.a(net_state.c.obj)
 .comment       0x0000007f       0x80 mesh/core/libmesh_core_nrf52832_xxAA.a(mesh_flash.c.obj)
 .comment       0x0000007f       0x80 mesh/core/libmesh_core_nrf52832_xxAA.a(nrf_mesh_utils.c.obj)
 .comment       0x0000007f       0x80 mesh/core/libmesh_core_nrf52832_xxAA.a(nrf_mesh.c.obj)
 .comment       0x0000007f       0x80 mesh/core/libmesh_core_nrf52832_xxAA.a(hal.c.obj)
 .comment       0x0000007f       0x80 mesh/core/libmesh_core_nrf52832_xxAA.a(timer_scheduler.c.obj)
 .comment       0x0000007f       0x80 mesh/core/libmesh_core_nrf52832_xxAA.a(timer.c.obj)
 .comment       0x0000007f       0x80 mesh/core/libmesh_core_nrf52832_xxAA.a(ticker.c.obj)
 .comment       0x0000007f       0x80 mesh/core/libmesh_core_nrf52832_xxAA.a(rand.c.obj)
 .comment       0x0000007f       0x80 mesh/core/libmesh_core_nrf52832_xxAA.a(timeslot.c.obj)
 .comment       0x0000007f       0x80 mesh/core/libmesh_core_nrf52832_xxAA.a(bearer_event.c.obj)
 .comment       0x0000007f       0x80 mesh/core/libmesh_core_nrf52832_xxAA.a(enc.c.obj)
 .comment       0x0000007f       0x80 mesh/core/libmesh_core_nrf52832_xxAA.a(network.c.obj)
 .comment       0x0000007f       0x80 mesh/core/libmesh_core_nrf52832_xxAA.a(msqueue.c.obj)
 .comment       0x0000007f       0x80 mesh/core/libmesh_core_nrf52832_xxAA.a(log.c.obj)
 .comment       0x0000007f       0x80 mesh/core/libmesh_core_nrf52832_xxAA.a(flash_manager.c.obj)
 .comment       0x0000007f       0x80 mesh/core/libmesh_core_nrf52832_xxAA.a(ccm_soft.c.obj)
 .comment       0x0000007f       0x80 mesh/core/libmesh_core_nrf52832_xxAA.a(beacon.c.obj)
 .comment       0x0000007f       0x80 mesh/core/libmesh_core_nrf52832_xxAA.a(flash_manager_internal.c.obj)
 .comment       0x0000007f       0x80 mesh/core/libmesh_core_nrf52832_xxAA.a(core_tx.c.obj)
 .comment       0x0000007f       0x80 mesh/core/libmesh_core_nrf52832_xxAA.a(net_beacon.c.obj)
 .comment       0x0000007f       0x80 mesh/core/libmesh_core_nrf52832_xxAA.a(advertiser.c.obj)
 .comment       0x0000007f       0x80 mesh/core/libmesh_core_nrf52832_xxAA.a(bearer_handler.c.obj)
 .comment       0x0000007f       0x80 mesh/core/libmesh_core_nrf52832_xxAA.a(broadcast.c.obj)
 .comment       0x0000007f       0x80 mesh/core/libmesh_core_nrf52832_xxAA.a(radio_config.c.obj)
 .comment       0x0000007f       0x80 mesh/core/libmesh_core_nrf52832_xxAA.a(scanner.c.obj)
 .comment       0x0000007f       0x80 mesh/core/libmesh_core_nrf52832_xxAA.a(internal_event.c.obj)
 .comment       0x0000007f       0x80 mesh/core/libmesh_core_nrf52832_xxAA.a(aes.c.obj)
 .comment       0x0000007f       0x80 mesh/core/libmesh_core_nrf52832_xxAA.a(msg_cache.c.obj)
 .comment       0x0000007f       0x80 mesh/core/libmesh_core_nrf52832_xxAA.a(transport.c.obj)
 .comment       0x0000007f       0x80 mesh/core/libmesh_core_nrf52832_xxAA.a(packet_buffer.c.obj)
 .comment       0x0000007f       0x80 mesh/core/libmesh_core_nrf52832_xxAA.a(flash_manager_defrag.c.obj)
 .comment       0x0000007f       0x80 mesh/core/libmesh_core_nrf52832_xxAA.a(fifo.c.obj)
 .comment       0x0000007f       0x80 mesh/core/libmesh_core_nrf52832_xxAA.a(nrf_flash.c.obj)
 .comment       0x0000007f       0x80 mesh/core/libmesh_core_nrf52832_xxAA.a(packet_mgr.c.obj)
 .comment       0x0000007f       0x80 mesh/core/libmesh_core_nrf52832_xxAA.a(queue.c.obj)
 .comment       0x0000007f       0x80 mesh/core/libmesh_core_nrf52832_xxAA.a(aes_cmac.c.obj)
 .comment       0x0000007f       0x80 mesh/core/libmesh_core_nrf52832_xxAA.a(replay_cache.c.obj)
 .comment       0x0000007f       0x80 mesh/core/libmesh_core_nrf52832_xxAA.a(filter_engine.c.obj)
 .comment       0x0000007f       0x80 external/rtt/librtt_nrf52832_xxAA.a(SEGGER_RTT.c.obj)
 .comment       0x0000007f       0x80 external/rtt/librtt_nrf52832_xxAA.a(SEGGER_RTT_printf.c.obj)

.debug_frame    0x00000000      0x2c4
 .debug_frame   0x00000000       0x28 c:/a/gcc_arm/6/bin/../lib/gcc/arm-none-eabi/6.3.1/../../../../arm-none-eabi/lib/thumb/v7e-m/fpv4-sp/hard\libc_nano.a(lib_a-exit.o)
 .debug_frame   0x00000028       0x2c c:/a/gcc_arm/6/bin/../lib/gcc/arm-none-eabi/6.3.1/../../../../arm-none-eabi/lib/thumb/v7e-m/fpv4-sp/hard\libc_nano.a(lib_a-init.o)
 .debug_frame   0x00000054       0x30 c:/a/gcc_arm/6/bin/../lib/gcc/arm-none-eabi/6.3.1/../../../../arm-none-eabi/lib/thumb/v7e-m/fpv4-sp/hard\libc_nano.a(lib_a-malloc.o)
 .debug_frame   0x00000084       0x28 c:/a/gcc_arm/6/bin/../lib/gcc/arm-none-eabi/6.3.1/../../../../arm-none-eabi/lib/thumb/v7e-m/fpv4-sp/hard\libc_nano.a(lib_a-memcmp.o)
 .debug_frame   0x000000ac       0x28 c:/a/gcc_arm/6/bin/../lib/gcc/arm-none-eabi/6.3.1/../../../../arm-none-eabi/lib/thumb/v7e-m/fpv4-sp/hard\libc_nano.a(lib_a-memcpy-stub.o)
 .debug_frame   0x000000d4       0x20 c:/a/gcc_arm/6/bin/../lib/gcc/arm-none-eabi/6.3.1/../../../../arm-none-eabi/lib/thumb/v7e-m/fpv4-sp/hard\libc_nano.a(lib_a-memset.o)
 .debug_frame   0x000000f4       0x38 c:/a/gcc_arm/6/bin/../lib/gcc/arm-none-eabi/6.3.1/../../../../arm-none-eabi/lib/thumb/v7e-m/fpv4-sp/hard\libc_nano.a(lib_a-nano-freer.o)
 .debug_frame   0x0000012c       0x2c c:/a/gcc_arm/6/bin/../lib/gcc/arm-none-eabi/6.3.1/../../../../arm-none-eabi/lib/thumb/v7e-m/fpv4-sp/hard\libc_nano.a(lib_a-nano-mallocr.o)
 .debug_frame   0x00000158       0x2c c:/a/gcc_arm/6/bin/../lib/gcc/arm-none-eabi/6.3.1/../../../../arm-none-eabi/lib/thumb/v7e-m/fpv4-sp/hard\libc_nano.a(lib_a-sbrkr.o)
 .debug_frame   0x00000184       0x20 c:/a/gcc_arm/6/bin/../lib/gcc/arm-none-eabi/6.3.1/../../../../arm-none-eabi/lib/thumb/v7e-m/fpv4-sp/hard\libc_nano.a(lib_a-strcpy.o)
 .debug_frame   0x000001a4       0x34 c:/a/gcc_arm/6/bin/../lib/gcc/arm-none-eabi/6.3.1/../../../../arm-none-eabi/lib/thumb/v7e-m/fpv4-sp/hard\libc_nano.a(lib_a-strrchr.o)
 .debug_frame   0x000001d8       0x30 c:/a/gcc_arm/6/bin/../lib/gcc/arm-none-eabi/6.3.1/../../../../arm-none-eabi/lib/thumb/v7e-m/fpv4-sp/hard\libc_nano.a(lib_a-mlock.o)
 .debug_frame   0x00000208       0x5c c:/a/gcc_arm/6/bin/../lib/gcc/arm-none-eabi/6.3.1/../../../../arm-none-eabi/lib/thumb/v7e-m/fpv4-sp/hard\libc_nano.a(lib_a-reent.o)
 .debug_frame   0x00000264       0x20 c:/a/gcc_arm/6/bin/../lib/gcc/arm-none-eabi/6.3.1/../../../../arm-none-eabi/lib/thumb/v7e-m/fpv4-sp/hard\libc_nano.a(lib_a-strchr.o)
 .debug_frame   0x00000284       0x20 c:/a/gcc_arm/6/bin/../lib/gcc/arm-none-eabi/6.3.1/../../../../arm-none-eabi/lib/thumb/v7e-m/fpv4-sp/hard\libnosys.a(sbrk.o)
 .debug_frame   0x000002a4       0x20 c:/a/gcc_arm/6/bin/../lib/gcc/arm-none-eabi/6.3.1/../../../../arm-none-eabi/lib/thumb/v7e-m/fpv4-sp/hard\libnosys.a(_exit.o)
