Archive member included to satisfy reference by file (symbol)

mesh/core/libmesh_core_nrf52840_xxAA.a(nrf_mesh_configure.c.obj)
                              examples/light_switch/client/CMakeFiles/light_switch_client_nrf52840_xxAA_s140_5.0.0-3.alpha.dir/__/__/__/mesh/prov/src/prov_beacon.c.obj (nrf_mesh_configure_device_uuid_get)
mesh/core/libmesh_core_nrf52840_xxAA.a(event.c.obj)
                              examples/light_switch/client/CMakeFiles/light_switch_client_nrf52840_xxAA_s140_5.0.0-3.alpha.dir/__/__/__/mesh/access/src/access.c.obj (event_handle)
mesh/core/libmesh_core_nrf52840_xxAA.a(packet_mgr.c.obj)
                              examples/light_switch/client/CMakeFiles/light_switch_client_nrf52840_xxAA_s140_5.0.0-3.alpha.dir/__/__/__/models/config/src/config_client.c.obj (packet_mgr_alloc)
mesh/core/libmesh_core_nrf52840_xxAA.a(net_state.c.obj)
                              examples/light_switch/client/CMakeFiles/light_switch_client_nrf52840_xxAA_s140_5.0.0-3.alpha.dir/__/__/__/mesh/access/src/device_state_manager.c.obj (net_state_flash_area_get)
mesh/core/libmesh_core_nrf52840_xxAA.a(nrf_mesh_utils.c.obj)
                              examples/light_switch/client/CMakeFiles/light_switch_client_nrf52840_xxAA_s140_5.0.0-3.alpha.dir/__/__/__/mesh/access/src/device_state_manager.c.obj (nrf_mesh_address_type_get)
mesh/core/libmesh_core_nrf52840_xxAA.a(nrf_mesh.c.obj)
                              examples/light_switch/client/CMakeFiles/light_switch_client_nrf52840_xxAA_s140_5.0.0-3.alpha.dir/__/__/nrf_mesh_sdk.c.obj (nrf_mesh_init)
mesh/core/libmesh_core_nrf52840_xxAA.a(hal.c.obj)
                              mesh/core/libmesh_core_nrf52840_xxAA.a(nrf_mesh.c.obj) (hal_lfclk_ppm_get)
mesh/core/libmesh_core_nrf52840_xxAA.a(timer_scheduler.c.obj)
                              mesh/core/libmesh_core_nrf52840_xxAA.a(nrf_mesh.c.obj) (timer_sch_init)
mesh/core/libmesh_core_nrf52840_xxAA.a(timer.c.obj)
                              mesh/core/libmesh_core_nrf52840_xxAA.a(timer_scheduler.c.obj) (timer_order_cb)
mesh/core/libmesh_core_nrf52840_xxAA.a(ticker.c.obj)
                              mesh/core/libmesh_core_nrf52840_xxAA.a(nrf_mesh.c.obj) (ticker_init)
mesh/core/libmesh_core_nrf52840_xxAA.a(rand.c.obj)
                              examples/light_switch/client/CMakeFiles/light_switch_client_nrf52840_xxAA_s140_5.0.0-3.alpha.dir/__/__/__/mesh/prov/src/prov_utils.c.obj (rand_hw_rng_get)
mesh/core/libmesh_core_nrf52840_xxAA.a(timeslot.c.obj)
                              mesh/core/libmesh_core_nrf52840_xxAA.a(nrf_mesh.c.obj) (timeslot_sd_event_handler)
mesh/core/libmesh_core_nrf52840_xxAA.a(bearer_event.c.obj)
                              mesh/core/libmesh_core_nrf52840_xxAA.a(nrf_mesh.c.obj) (bearer_event_init)
mesh/core/libmesh_core_nrf52840_xxAA.a(enc.c.obj)
                              examples/light_switch/client/CMakeFiles/light_switch_client_nrf52840_xxAA_s140_5.0.0-3.alpha.dir/__/__/__/mesh/prov/src/prov_utils.c.obj (enc_aes_cmac)
mesh/core/libmesh_core_nrf52840_xxAA.a(network.c.obj)
                              mesh/core/libmesh_core_nrf52840_xxAA.a(nrf_mesh.c.obj) (network_init)
mesh/core/libmesh_core_nrf52840_xxAA.a(nrf_mesh_keygen.c.obj)
                              examples/light_switch/client/CMakeFiles/light_switch_client_nrf52840_xxAA_s140_5.0.0-3.alpha.dir/__/__/__/mesh/access/src/device_state_manager.c.obj (nrf_mesh_keygen_aid)
mesh/core/libmesh_core_nrf52840_xxAA.a(log.c.obj)
                              examples/light_switch/client/CMakeFiles/light_switch_client_nrf52840_xxAA_s140_5.0.0-3.alpha.dir/src/main.c.obj (log_callback_rtt)
mesh/core/libmesh_core_nrf52840_xxAA.a(flash_manager.c.obj)
                              mesh/core/libmesh_core_nrf52840_xxAA.a(nrf_mesh.c.obj) (flash_manager_init)
mesh/core/libmesh_core_nrf52840_xxAA.a(ccm_soft.c.obj)
                              mesh/core/libmesh_core_nrf52840_xxAA.a(enc.c.obj) (ccm_soft_encrypt)
mesh/core/libmesh_core_nrf52840_xxAA.a(beacon.c.obj)
                              mesh/core/libmesh_core_nrf52840_xxAA.a(nrf_mesh.c.obj) (beacon_init)
mesh/core/libmesh_core_nrf52840_xxAA.a(flash_manager_internal.c.obj)
                              mesh/core/libmesh_core_nrf52840_xxAA.a(flash_manager.c.obj) (entry_get)
mesh/core/libmesh_core_nrf52840_xxAA.a(core_tx.c.obj)
                              mesh/core/libmesh_core_nrf52840_xxAA.a(nrf_mesh.c.obj) (core_tx_init)
mesh/core/libmesh_core_nrf52840_xxAA.a(net_beacon.c.obj)
                              mesh/core/libmesh_core_nrf52840_xxAA.a(network.c.obj) (net_beacon_init)
mesh/core/libmesh_core_nrf52840_xxAA.a(advertiser.c.obj)
                              mesh/core/libmesh_core_nrf52840_xxAA.a(nrf_mesh.c.obj) (advertiser_init)
mesh/core/libmesh_core_nrf52840_xxAA.a(bearer_handler.c.obj)
                              mesh/core/libmesh_core_nrf52840_xxAA.a(nrf_mesh.c.obj) (bearer_handler_init)
mesh/core/libmesh_core_nrf52840_xxAA.a(broadcast.c.obj)
                              mesh/core/libmesh_core_nrf52840_xxAA.a(advertiser.c.obj) (broadcast_send)
mesh/core/libmesh_core_nrf52840_xxAA.a(radio_config.c.obj)
                              mesh/core/libmesh_core_nrf52840_xxAA.a(broadcast.c.obj) (radio_config_reset)
mesh/core/libmesh_core_nrf52840_xxAA.a(scanner.c.obj)
                              mesh/core/libmesh_core_nrf52840_xxAA.a(bearer_handler.c.obj) (scanner_radio_start)
mesh/core/libmesh_core_nrf52840_xxAA.a(internal_event.c.obj)
                              mesh/core/libmesh_core_nrf52840_xxAA.a(network.c.obj) (internal_event_push)
mesh/core/libmesh_core_nrf52840_xxAA.a(aes.c.obj)
                              mesh/core/libmesh_core_nrf52840_xxAA.a(enc.c.obj) (aes_encrypt)
mesh/core/libmesh_core_nrf52840_xxAA.a(msg_cache.c.obj)
                              mesh/core/libmesh_core_nrf52840_xxAA.a(nrf_mesh.c.obj) (msg_cache_init)
mesh/core/libmesh_core_nrf52840_xxAA.a(transport.c.obj)
                              mesh/core/libmesh_core_nrf52840_xxAA.a(nrf_mesh.c.obj) (transport_init)
mesh/core/libmesh_core_nrf52840_xxAA.a(packet_buffer.c.obj)
                              mesh/core/libmesh_core_nrf52840_xxAA.a(flash_manager.c.obj) (packet_buffer_init)
mesh/core/libmesh_core_nrf52840_xxAA.a(flash_manager_defrag.c.obj)
                              mesh/core/libmesh_core_nrf52840_xxAA.a(flash_manager.c.obj) (flash_manager_defrag_init)
mesh/core/libmesh_core_nrf52840_xxAA.a(fifo.c.obj)
                              mesh/core/libmesh_core_nrf52840_xxAA.a(bearer_event.c.obj) (fifo_init)
mesh/core/libmesh_core_nrf52840_xxAA.a(mesh_flash.c.obj)
                              mesh/core/libmesh_core_nrf52840_xxAA.a(flash_manager.c.obj) (mesh_flash_user_callback_set)
mesh/core/libmesh_core_nrf52840_xxAA.a(queue.c.obj)
                              mesh/core/libmesh_core_nrf52840_xxAA.a(bearer_event.c.obj) (queue_init)
mesh/core/libmesh_core_nrf52840_xxAA.a(aes_cmac.c.obj)
                              mesh/core/libmesh_core_nrf52840_xxAA.a(enc.c.obj) (aes_cmac)
mesh/core/libmesh_core_nrf52840_xxAA.a(msqueue.c.obj)
                              mesh/core/libmesh_core_nrf52840_xxAA.a(mesh_flash.c.obj) (msq_get)
mesh/core/libmesh_core_nrf52840_xxAA.a(replay_cache.c.obj)
                              mesh/core/libmesh_core_nrf52840_xxAA.a(transport.c.obj) (replay_cache_add)
mesh/core/libmesh_core_nrf52840_xxAA.a(filter_engine.c.obj)
                              mesh/core/libmesh_core_nrf52840_xxAA.a(scanner.c.obj) (fen_filters_apply)
mesh/core/libmesh_core_nrf52840_xxAA.a(nrf_flash.c.obj)
                              mesh/core/libmesh_core_nrf52840_xxAA.a(mesh_flash.c.obj) (nrf_flash_erase)
external/rtt/librtt_nrf52840_xxAA.a(SEGGER_RTT.c.obj)
                              mesh/core/libmesh_core_nrf52840_xxAA.a(log.c.obj) (SEGGER_RTT_Write)
external/rtt/librtt_nrf52840_xxAA.a(SEGGER_RTT_printf.c.obj)
                              mesh/core/libmesh_core_nrf52840_xxAA.a(log.c.obj) (SEGGER_RTT_vprintf)
external/micro-ecc/libuECC_nrf52840_xxAA.a(uECC.c.obj)
                              examples/light_switch/client/CMakeFiles/light_switch_client_nrf52840_xxAA_s140_5.0.0-3.alpha.dir/__/__/__/mesh/prov/src/prov_utils.c.obj (uECC_secp256r1)
c:/a/gcc_arm/6/bin/../lib/gcc/arm-none-eabi/6.3.1/../../../../arm-none-eabi/lib/thumb/v7e-m/fpv4-sp/hard\libc_nano.a(lib_a-exit.o)
                              c:/a/gcc_arm/6/bin/../lib/gcc/arm-none-eabi/6.3.1/../../../../arm-none-eabi/lib/thumb/v7e-m/fpv4-sp/hard/crt0.o (exit)
c:/a/gcc_arm/6/bin/../lib/gcc/arm-none-eabi/6.3.1/../../../../arm-none-eabi/lib/thumb/v7e-m/fpv4-sp/hard\libc_nano.a(lib_a-impure.o)
                              c:/a/gcc_arm/6/bin/../lib/gcc/arm-none-eabi/6.3.1/../../../../arm-none-eabi/lib/thumb/v7e-m/fpv4-sp/hard\libc_nano.a(lib_a-exit.o) (_global_impure_ptr)
c:/a/gcc_arm/6/bin/../lib/gcc/arm-none-eabi/6.3.1/../../../../arm-none-eabi/lib/thumb/v7e-m/fpv4-sp/hard\libc_nano.a(lib_a-init.o)
                              c:/a/gcc_arm/6/bin/../lib/gcc/arm-none-eabi/6.3.1/../../../../arm-none-eabi/lib/thumb/v7e-m/fpv4-sp/hard/crt0.o (__libc_init_array)
c:/a/gcc_arm/6/bin/../lib/gcc/arm-none-eabi/6.3.1/../../../../arm-none-eabi/lib/thumb/v7e-m/fpv4-sp/hard\libc_nano.a(lib_a-malloc.o)
                              mesh/core/libmesh_core_nrf52840_xxAA.a(transport.c.obj) (malloc)
c:/a/gcc_arm/6/bin/../lib/gcc/arm-none-eabi/6.3.1/../../../../arm-none-eabi/lib/thumb/v7e-m/fpv4-sp/hard\libc_nano.a(lib_a-memcmp.o)
                              examples/light_switch/client/CMakeFiles/light_switch_client_nrf52840_xxAA_s140_5.0.0-3.alpha.dir/__/__/__/mesh/access/src/device_state_manager.c.obj (memcmp)
c:/a/gcc_arm/6/bin/../lib/gcc/arm-none-eabi/6.3.1/../../../../arm-none-eabi/lib/thumb/v7e-m/fpv4-sp/hard\libc_nano.a(lib_a-memcpy-stub.o)
                              examples/light_switch/client/CMakeFiles/light_switch_client_nrf52840_xxAA_s140_5.0.0-3.alpha.dir/__/__/__/models/config/src/config_client.c.obj (memcpy)
c:/a/gcc_arm/6/bin/../lib/gcc/arm-none-eabi/6.3.1/../../../../arm-none-eabi/lib/thumb/v7e-m/fpv4-sp/hard\libc_nano.a(lib_a-memset.o)
                              c:/a/gcc_arm/6/bin/../lib/gcc/arm-none-eabi/6.3.1/../../../../arm-none-eabi/lib/thumb/v7e-m/fpv4-sp/hard/crt0.o (memset)
c:/a/gcc_arm/6/bin/../lib/gcc/arm-none-eabi/6.3.1/../../../../arm-none-eabi/lib/thumb/v7e-m/fpv4-sp/hard\libc_nano.a(lib_a-nano-freer.o)
                              c:/a/gcc_arm/6/bin/../lib/gcc/arm-none-eabi/6.3.1/../../../../arm-none-eabi/lib/thumb/v7e-m/fpv4-sp/hard\libc_nano.a(lib_a-malloc.o) (_free_r)
c:/a/gcc_arm/6/bin/../lib/gcc/arm-none-eabi/6.3.1/../../../../arm-none-eabi/lib/thumb/v7e-m/fpv4-sp/hard\libc_nano.a(lib_a-nano-mallocr.o)
                              c:/a/gcc_arm/6/bin/../lib/gcc/arm-none-eabi/6.3.1/../../../../arm-none-eabi/lib/thumb/v7e-m/fpv4-sp/hard\libc_nano.a(lib_a-malloc.o) (_malloc_r)
c:/a/gcc_arm/6/bin/../lib/gcc/arm-none-eabi/6.3.1/../../../../arm-none-eabi/lib/thumb/v7e-m/fpv4-sp/hard\libc_nano.a(lib_a-sbrkr.o)
                              c:/a/gcc_arm/6/bin/../lib/gcc/arm-none-eabi/6.3.1/../../../../arm-none-eabi/lib/thumb/v7e-m/fpv4-sp/hard\libc_nano.a(lib_a-nano-mallocr.o) (_sbrk_r)
c:/a/gcc_arm/6/bin/../lib/gcc/arm-none-eabi/6.3.1/../../../../arm-none-eabi/lib/thumb/v7e-m/fpv4-sp/hard\libc_nano.a(lib_a-strcpy.o)
                              external/rtt/librtt_nrf52840_xxAA.a(SEGGER_RTT.c.obj) (strcpy)
c:/a/gcc_arm/6/bin/../lib/gcc/arm-none-eabi/6.3.1/../../../../arm-none-eabi/lib/thumb/v7e-m/fpv4-sp/hard\libc_nano.a(lib_a-strlen.o)
                              examples/light_switch/client/CMakeFiles/light_switch_client_nrf52840_xxAA_s140_5.0.0-3.alpha.dir/__/__/__/mesh/prov/src/prov_beacon.c.obj (strlen)
c:/a/gcc_arm/6/bin/../lib/gcc/arm-none-eabi/6.3.1/../../../../arm-none-eabi/lib/thumb/v7e-m/fpv4-sp/hard\libc_nano.a(lib_a-strrchr.o)
                              examples/light_switch/client/CMakeFiles/light_switch_client_nrf52840_xxAA_s140_5.0.0-3.alpha.dir/src/main.c.obj (strrchr)
c:/a/gcc_arm/6/bin/../lib/gcc/arm-none-eabi/6.3.1/../../../../arm-none-eabi/lib/thumb/v7e-m/fpv4-sp/hard\libc_nano.a(lib_a-mlock.o)
                              c:/a/gcc_arm/6/bin/../lib/gcc/arm-none-eabi/6.3.1/../../../../arm-none-eabi/lib/thumb/v7e-m/fpv4-sp/hard\libc_nano.a(lib_a-nano-freer.o) (__malloc_lock)
c:/a/gcc_arm/6/bin/../lib/gcc/arm-none-eabi/6.3.1/../../../../arm-none-eabi/lib/thumb/v7e-m/fpv4-sp/hard\libc_nano.a(lib_a-reent.o)
                              c:/a/gcc_arm/6/bin/../lib/gcc/arm-none-eabi/6.3.1/../../../../arm-none-eabi/lib/thumb/v7e-m/fpv4-sp/hard\libc_nano.a(lib_a-sbrkr.o) (errno)
c:/a/gcc_arm/6/bin/../lib/gcc/arm-none-eabi/6.3.1/../../../../arm-none-eabi/lib/thumb/v7e-m/fpv4-sp/hard\libc_nano.a(lib_a-strchr.o)
                              c:/a/gcc_arm/6/bin/../lib/gcc/arm-none-eabi/6.3.1/../../../../arm-none-eabi/lib/thumb/v7e-m/fpv4-sp/hard\libc_nano.a(lib_a-strrchr.o) (strchr)
c:/a/gcc_arm/6/bin/../lib/gcc/arm-none-eabi/6.3.1/../../../../arm-none-eabi/lib/thumb/v7e-m/fpv4-sp/hard\libnosys.a(sbrk.o)
                              c:/a/gcc_arm/6/bin/../lib/gcc/arm-none-eabi/6.3.1/../../../../arm-none-eabi/lib/thumb/v7e-m/fpv4-sp/hard\libc_nano.a(lib_a-sbrkr.o) (_sbrk)
c:/a/gcc_arm/6/bin/../lib/gcc/arm-none-eabi/6.3.1/../../../../arm-none-eabi/lib/thumb/v7e-m/fpv4-sp/hard\libnosys.a(_exit.o)
                              c:/a/gcc_arm/6/bin/../lib/gcc/arm-none-eabi/6.3.1/../../../../arm-none-eabi/lib/thumb/v7e-m/fpv4-sp/hard\libc_nano.a(lib_a-exit.o) (_exit)

Allocating common symbols
Common symbol       size              file

nrf_nvic_state      0xc               examples/light_switch/client/CMakeFiles/light_switch_client_nrf52840_xxAA_s140_5.0.0-3.alpha.dir/__/__/nrf_mesh_sdk.c.obj
errno               0x4               c:/a/gcc_arm/6/bin/../lib/gcc/arm-none-eabi/6.3.1/../../../../arm-none-eabi/lib/thumb/v7e-m/fpv4-sp/hard\libc_nano.a(lib_a-reent.o)
m_assertion_handler
                    0x4               mesh/core/libmesh_core_nrf52840_xxAA.a(nrf_mesh.c.obj)
_SEGGER_RTT         0x78              external/rtt/librtt_nrf52840_xxAA.a(SEGGER_RTT.c.obj)

Discarded input sections

 .text          0x00000000        0x0 c:/a/gcc_arm/6/bin/../lib/gcc/arm-none-eabi/6.3.1/thumb/v7e-m/fpv4-sp/hard/crti.o
 .data          0x00000000        0x0 c:/a/gcc_arm/6/bin/../lib/gcc/arm-none-eabi/6.3.1/thumb/v7e-m/fpv4-sp/hard/crti.o
 .bss           0x00000000        0x0 c:/a/gcc_arm/6/bin/../lib/gcc/arm-none-eabi/6.3.1/thumb/v7e-m/fpv4-sp/hard/crti.o
 .data          0x00000000        0x4 c:/a/gcc_arm/6/bin/../lib/gcc/arm-none-eabi/6.3.1/thumb/v7e-m/fpv4-sp/hard/crtbegin.o
 .data          0x00000000        0x0 c:/a/gcc_arm/6/bin/../lib/gcc/arm-none-eabi/6.3.1/../../../../arm-none-eabi/lib/thumb/v7e-m/fpv4-sp/hard/crt0.o
 .bss           0x00000000        0x0 c:/a/gcc_arm/6/bin/../lib/gcc/arm-none-eabi/6.3.1/../../../../arm-none-eabi/lib/thumb/v7e-m/fpv4-sp/hard/crt0.o
 .ARM.extab     0x00000000        0x0 c:/a/gcc_arm/6/bin/../lib/gcc/arm-none-eabi/6.3.1/../../../../arm-none-eabi/lib/thumb/v7e-m/fpv4-sp/hard/crt0.o
 .text          0x00000000        0x0 examples/light_switch/client/CMakeFiles/light_switch_client_nrf52840_xxAA_s140_5.0.0-3.alpha.dir/src/main.c.obj
 .data          0x00000000        0x0 examples/light_switch/client/CMakeFiles/light_switch_client_nrf52840_xxAA_s140_5.0.0-3.alpha.dir/src/main.c.obj
 .bss           0x00000000        0x0 examples/light_switch/client/CMakeFiles/light_switch_client_nrf52840_xxAA_s140_5.0.0-3.alpha.dir/src/main.c.obj
 .text          0x00000000        0x0 examples/light_switch/client/CMakeFiles/light_switch_client_nrf52840_xxAA_s140_5.0.0-3.alpha.dir/src/provisioner.c.obj
 .data          0x00000000        0x0 examples/light_switch/client/CMakeFiles/light_switch_client_nrf52840_xxAA_s140_5.0.0-3.alpha.dir/src/provisioner.c.obj
 .bss           0x00000000        0x0 examples/light_switch/client/CMakeFiles/light_switch_client_nrf52840_xxAA_s140_5.0.0-3.alpha.dir/src/provisioner.c.obj
 .text          0x00000000        0x0 examples/light_switch/client/CMakeFiles/light_switch_client_nrf52840_xxAA_s140_5.0.0-3.alpha.dir/__/__/nrf_mesh_sdk.c.obj
 .data          0x00000000        0x0 examples/light_switch/client/CMakeFiles/light_switch_client_nrf52840_xxAA_s140_5.0.0-3.alpha.dir/__/__/nrf_mesh_sdk.c.obj
 .bss           0x00000000        0x0 examples/light_switch/client/CMakeFiles/light_switch_client_nrf52840_xxAA_s140_5.0.0-3.alpha.dir/__/__/nrf_mesh_sdk.c.obj
 .text          0x00000000        0x0 examples/light_switch/client/CMakeFiles/light_switch_client_nrf52840_xxAA_s140_5.0.0-3.alpha.dir/__/__/hal/src/simple_hal.c.obj
 .data          0x00000000        0x0 examples/light_switch/client/CMakeFiles/light_switch_client_nrf52840_xxAA_s140_5.0.0-3.alpha.dir/__/__/hal/src/simple_hal.c.obj
 .bss           0x00000000        0x0 examples/light_switch/client/CMakeFiles/light_switch_client_nrf52840_xxAA_s140_5.0.0-3.alpha.dir/__/__/hal/src/simple_hal.c.obj
 .text.hal_led_mask_set
                0x00000000       0x12 examples/light_switch/client/CMakeFiles/light_switch_client_nrf52840_xxAA_s140_5.0.0-3.alpha.dir/__/__/hal/src/simple_hal.c.obj
 .text          0x00000000        0x0 examples/light_switch/client/CMakeFiles/light_switch_client_nrf52840_xxAA_s140_5.0.0-3.alpha.dir/__/__/nrf_mesh_weak.c.obj
 .data          0x00000000        0x0 examples/light_switch/client/CMakeFiles/light_switch_client_nrf52840_xxAA_s140_5.0.0-3.alpha.dir/__/__/nrf_mesh_weak.c.obj
 .bss           0x00000000        0x0 examples/light_switch/client/CMakeFiles/light_switch_client_nrf52840_xxAA_s140_5.0.0-3.alpha.dir/__/__/nrf_mesh_weak.c.obj
 .text._weak_handler_ptr
                0x00000000        0x4 examples/light_switch/client/CMakeFiles/light_switch_client_nrf52840_xxAA_s140_5.0.0-3.alpha.dir/__/__/nrf_mesh_weak.c.obj
 .text          0x00000000        0x0 examples/light_switch/client/CMakeFiles/light_switch_client_nrf52840_xxAA_s140_5.0.0-3.alpha.dir/__/__/__/models/simple_on_off/src/simple_on_off_client.c.obj
 .data          0x00000000        0x0 examples/light_switch/client/CMakeFiles/light_switch_client_nrf52840_xxAA_s140_5.0.0-3.alpha.dir/__/__/__/models/simple_on_off/src/simple_on_off_client.c.obj
 .bss           0x00000000        0x0 examples/light_switch/client/CMakeFiles/light_switch_client_nrf52840_xxAA_s140_5.0.0-3.alpha.dir/__/__/__/models/simple_on_off/src/simple_on_off_client.c.obj
 .text.simple_on_off_client_get
                0x00000000       0x5c examples/light_switch/client/CMakeFiles/light_switch_client_nrf52840_xxAA_s140_5.0.0-3.alpha.dir/__/__/__/models/simple_on_off/src/simple_on_off_client.c.obj
 .text          0x00000000        0x0 examples/light_switch/client/CMakeFiles/light_switch_client_nrf52840_xxAA_s140_5.0.0-3.alpha.dir/__/__/__/models/config/src/config_client.c.obj
 .data          0x00000000        0x0 examples/light_switch/client/CMakeFiles/light_switch_client_nrf52840_xxAA_s140_5.0.0-3.alpha.dir/__/__/__/models/config/src/config_client.c.obj
 .bss           0x00000000        0x0 examples/light_switch/client/CMakeFiles/light_switch_client_nrf52840_xxAA_s140_5.0.0-3.alpha.dir/__/__/__/models/config/src/config_client.c.obj
 .text.config_client_appkey_delete
                0x00000000       0x6c examples/light_switch/client/CMakeFiles/light_switch_client_nrf52840_xxAA_s140_5.0.0-3.alpha.dir/__/__/__/models/config/src/config_client.c.obj
 .text.config_client_appkey_get
                0x00000000       0x5c examples/light_switch/client/CMakeFiles/light_switch_client_nrf52840_xxAA_s140_5.0.0-3.alpha.dir/__/__/__/models/config/src/config_client.c.obj
 .text.config_client_appkey_update
                0x00000000       0x74 examples/light_switch/client/CMakeFiles/light_switch_client_nrf52840_xxAA_s140_5.0.0-3.alpha.dir/__/__/__/models/config/src/config_client.c.obj
 .text.config_client_model_publication_get
                0x00000000       0x70 examples/light_switch/client/CMakeFiles/light_switch_client_nrf52840_xxAA_s140_5.0.0-3.alpha.dir/__/__/__/models/config/src/config_client.c.obj
 .text.config_client_net_beacon_get
                0x00000000       0x28 examples/light_switch/client/CMakeFiles/light_switch_client_nrf52840_xxAA_s140_5.0.0-3.alpha.dir/__/__/__/models/config/src/config_client.c.obj
 .text.config_client_net_beacon_set
                0x00000000       0x58 examples/light_switch/client/CMakeFiles/light_switch_client_nrf52840_xxAA_s140_5.0.0-3.alpha.dir/__/__/__/models/config/src/config_client.c.obj
 .text.config_client_default_ttl_get
                0x00000000        0xe examples/light_switch/client/CMakeFiles/light_switch_client_nrf52840_xxAA_s140_5.0.0-3.alpha.dir/__/__/__/models/config/src/config_client.c.obj
 .text.config_client_default_ttl_set
                0x00000000       0x60 examples/light_switch/client/CMakeFiles/light_switch_client_nrf52840_xxAA_s140_5.0.0-3.alpha.dir/__/__/__/models/config/src/config_client.c.obj
 .text.config_client_model_subscription_delete
                0x00000000       0x4c examples/light_switch/client/CMakeFiles/light_switch_client_nrf52840_xxAA_s140_5.0.0-3.alpha.dir/__/__/__/models/config/src/config_client.c.obj
 .text.config_client_model_subscription_delete_all
                0x00000000       0x70 examples/light_switch/client/CMakeFiles/light_switch_client_nrf52840_xxAA_s140_5.0.0-3.alpha.dir/__/__/__/models/config/src/config_client.c.obj
 .text.config_client_model_subscription_get
                0x00000000       0x7c examples/light_switch/client/CMakeFiles/light_switch_client_nrf52840_xxAA_s140_5.0.0-3.alpha.dir/__/__/__/models/config/src/config_client.c.obj
 .text.config_client_model_subscription_overwrite
                0x00000000       0x4c examples/light_switch/client/CMakeFiles/light_switch_client_nrf52840_xxAA_s140_5.0.0-3.alpha.dir/__/__/__/models/config/src/config_client.c.obj
 .text.config_client_relay_get
                0x00000000        0xe examples/light_switch/client/CMakeFiles/light_switch_client_nrf52840_xxAA_s140_5.0.0-3.alpha.dir/__/__/__/models/config/src/config_client.c.obj
 .text.config_client_relay_set
                0x00000000       0x74 examples/light_switch/client/CMakeFiles/light_switch_client_nrf52840_xxAA_s140_5.0.0-3.alpha.dir/__/__/__/models/config/src/config_client.c.obj
 .text.config_client_model_app_get
                0x00000000       0x7c examples/light_switch/client/CMakeFiles/light_switch_client_nrf52840_xxAA_s140_5.0.0-3.alpha.dir/__/__/__/models/config/src/config_client.c.obj
 .text.config_client_model_app_unbind
                0x00000000        0xe examples/light_switch/client/CMakeFiles/light_switch_client_nrf52840_xxAA_s140_5.0.0-3.alpha.dir/__/__/__/models/config/src/config_client.c.obj
 .text.config_client_netkey_add
                0x00000000       0x68 examples/light_switch/client/CMakeFiles/light_switch_client_nrf52840_xxAA_s140_5.0.0-3.alpha.dir/__/__/__/models/config/src/config_client.c.obj
 .text.config_client_netkey_delete
                0x00000000       0x5c examples/light_switch/client/CMakeFiles/light_switch_client_nrf52840_xxAA_s140_5.0.0-3.alpha.dir/__/__/__/models/config/src/config_client.c.obj
 .text.config_client_netkey_get
                0x00000000       0x28 examples/light_switch/client/CMakeFiles/light_switch_client_nrf52840_xxAA_s140_5.0.0-3.alpha.dir/__/__/__/models/config/src/config_client.c.obj
 .text.config_client_netkey_update
                0x00000000       0x68 examples/light_switch/client/CMakeFiles/light_switch_client_nrf52840_xxAA_s140_5.0.0-3.alpha.dir/__/__/__/models/config/src/config_client.c.obj
 .text.config_client_node_reset
                0x00000000       0x28 examples/light_switch/client/CMakeFiles/light_switch_client_nrf52840_xxAA_s140_5.0.0-3.alpha.dir/__/__/__/models/config/src/config_client.c.obj
 .text.config_client_friend_get
                0x00000000        0x4 examples/light_switch/client/CMakeFiles/light_switch_client_nrf52840_xxAA_s140_5.0.0-3.alpha.dir/__/__/__/models/config/src/config_client.c.obj
 .text.config_client_friend_set
                0x00000000        0x4 examples/light_switch/client/CMakeFiles/light_switch_client_nrf52840_xxAA_s140_5.0.0-3.alpha.dir/__/__/__/models/config/src/config_client.c.obj
 .text.config_client_gatt_proxy_get
                0x00000000        0x4 examples/light_switch/client/CMakeFiles/light_switch_client_nrf52840_xxAA_s140_5.0.0-3.alpha.dir/__/__/__/models/config/src/config_client.c.obj
 .text.config_client_gatt_proxy_set
                0x00000000        0x4 examples/light_switch/client/CMakeFiles/light_switch_client_nrf52840_xxAA_s140_5.0.0-3.alpha.dir/__/__/__/models/config/src/config_client.c.obj
 .text.config_client_node_identity_get
                0x00000000        0x4 examples/light_switch/client/CMakeFiles/light_switch_client_nrf52840_xxAA_s140_5.0.0-3.alpha.dir/__/__/__/models/config/src/config_client.c.obj
 .text.config_client_node_identity_set
                0x00000000        0x4 examples/light_switch/client/CMakeFiles/light_switch_client_nrf52840_xxAA_s140_5.0.0-3.alpha.dir/__/__/__/models/config/src/config_client.c.obj
 .text.config_client_heartbeat_publication_get
                0x00000000        0x4 examples/light_switch/client/CMakeFiles/light_switch_client_nrf52840_xxAA_s140_5.0.0-3.alpha.dir/__/__/__/models/config/src/config_client.c.obj
 .text.config_client_heartbeat_publication_set
                0x00000000        0x4 examples/light_switch/client/CMakeFiles/light_switch_client_nrf52840_xxAA_s140_5.0.0-3.alpha.dir/__/__/__/models/config/src/config_client.c.obj
 .text.config_client_heartbeat_subscription_get
                0x00000000        0x4 examples/light_switch/client/CMakeFiles/light_switch_client_nrf52840_xxAA_s140_5.0.0-3.alpha.dir/__/__/__/models/config/src/config_client.c.obj
 .text.config_client_heartbeat_subscription_set
                0x00000000        0x4 examples/light_switch/client/CMakeFiles/light_switch_client_nrf52840_xxAA_s140_5.0.0-3.alpha.dir/__/__/__/models/config/src/config_client.c.obj
 .text          0x00000000        0x0 examples/light_switch/client/CMakeFiles/light_switch_client_nrf52840_xxAA_s140_5.0.0-3.alpha.dir/__/__/__/models/health/src/health_client.c.obj
 .data          0x00000000        0x0 examples/light_switch/client/CMakeFiles/light_switch_client_nrf52840_xxAA_s140_5.0.0-3.alpha.dir/__/__/__/models/health/src/health_client.c.obj
 .bss           0x00000000        0x0 examples/light_switch/client/CMakeFiles/light_switch_client_nrf52840_xxAA_s140_5.0.0-3.alpha.dir/__/__/__/models/health/src/health_client.c.obj
 .text.reliable_status_cb
                0x00000000       0x2e examples/light_switch/client/CMakeFiles/light_switch_client_nrf52840_xxAA_s140_5.0.0-3.alpha.dir/__/__/__/models/health/src/health_client.c.obj
 .text.reliable_send
                0x00000000       0xbc examples/light_switch/client/CMakeFiles/light_switch_client_nrf52840_xxAA_s140_5.0.0-3.alpha.dir/__/__/__/models/health/src/health_client.c.obj
 .text.health_client_fault_get
                0x00000000       0x1c examples/light_switch/client/CMakeFiles/light_switch_client_nrf52840_xxAA_s140_5.0.0-3.alpha.dir/__/__/__/models/health/src/health_client.c.obj
 .text.health_client_fault_clear
                0x00000000       0x40 examples/light_switch/client/CMakeFiles/light_switch_client_nrf52840_xxAA_s140_5.0.0-3.alpha.dir/__/__/__/models/health/src/health_client.c.obj
 .text.health_client_fault_test
                0x00000000       0x46 examples/light_switch/client/CMakeFiles/light_switch_client_nrf52840_xxAA_s140_5.0.0-3.alpha.dir/__/__/__/models/health/src/health_client.c.obj
 .text.health_client_period_get
                0x00000000       0x18 examples/light_switch/client/CMakeFiles/light_switch_client_nrf52840_xxAA_s140_5.0.0-3.alpha.dir/__/__/__/models/health/src/health_client.c.obj
 .text.health_client_period_set
                0x00000000       0x42 examples/light_switch/client/CMakeFiles/light_switch_client_nrf52840_xxAA_s140_5.0.0-3.alpha.dir/__/__/__/models/health/src/health_client.c.obj
 .text.health_client_attention_get
                0x00000000       0x18 examples/light_switch/client/CMakeFiles/light_switch_client_nrf52840_xxAA_s140_5.0.0-3.alpha.dir/__/__/__/models/health/src/health_client.c.obj
 .text.health_client_attention_set
                0x00000000       0x42 examples/light_switch/client/CMakeFiles/light_switch_client_nrf52840_xxAA_s140_5.0.0-3.alpha.dir/__/__/__/models/health/src/health_client.c.obj
 .text          0x00000000        0x0 examples/light_switch/client/CMakeFiles/light_switch_client_nrf52840_xxAA_s140_5.0.0-3.alpha.dir/__/__/__/mesh/access/src/access_publish.c.obj
 .data          0x00000000        0x0 examples/light_switch/client/CMakeFiles/light_switch_client_nrf52840_xxAA_s140_5.0.0-3.alpha.dir/__/__/__/mesh/access/src/access_publish.c.obj
 .bss           0x00000000        0x0 examples/light_switch/client/CMakeFiles/light_switch_client_nrf52840_xxAA_s140_5.0.0-3.alpha.dir/__/__/__/mesh/access/src/access_publish.c.obj
 .text.access_publish_period_set
                0x00000000       0x6c examples/light_switch/client/CMakeFiles/light_switch_client_nrf52840_xxAA_s140_5.0.0-3.alpha.dir/__/__/__/mesh/access/src/access_publish.c.obj
 .text.access_publish_period_get
                0x00000000       0x30 examples/light_switch/client/CMakeFiles/light_switch_client_nrf52840_xxAA_s140_5.0.0-3.alpha.dir/__/__/__/mesh/access/src/access_publish.c.obj
 .text          0x00000000        0x0 examples/light_switch/client/CMakeFiles/light_switch_client_nrf52840_xxAA_s140_5.0.0-3.alpha.dir/__/__/__/mesh/access/src/access.c.obj
 .data          0x00000000        0x0 examples/light_switch/client/CMakeFiles/light_switch_client_nrf52840_xxAA_s140_5.0.0-3.alpha.dir/__/__/__/mesh/access/src/access.c.obj
 .bss           0x00000000        0x0 examples/light_switch/client/CMakeFiles/light_switch_client_nrf52840_xxAA_s140_5.0.0-3.alpha.dir/__/__/__/mesh/access/src/access.c.obj
 .text.access_clear
                0x00000000       0x12 examples/light_switch/client/CMakeFiles/light_switch_client_nrf52840_xxAA_s140_5.0.0-3.alpha.dir/__/__/__/mesh/access/src/access.c.obj
 .text.access_model_reply
                0x00000000       0x12 examples/light_switch/client/CMakeFiles/light_switch_client_nrf52840_xxAA_s140_5.0.0-3.alpha.dir/__/__/__/mesh/access/src/access.c.obj
 .text.access_model_publish_period_set
                0x00000000       0x6c examples/light_switch/client/CMakeFiles/light_switch_client_nrf52840_xxAA_s140_5.0.0-3.alpha.dir/__/__/__/mesh/access/src/access.c.obj
 .text.access_model_publish_period_get
                0x00000000       0x3c examples/light_switch/client/CMakeFiles/light_switch_client_nrf52840_xxAA_s140_5.0.0-3.alpha.dir/__/__/__/mesh/access/src/access.c.obj
 .text.access_model_subscription_lists_share
                0x00000000       0x4c examples/light_switch/client/CMakeFiles/light_switch_client_nrf52840_xxAA_s140_5.0.0-3.alpha.dir/__/__/__/mesh/access/src/access.c.obj
 .text.access_model_subscription_add
                0x00000000       0x60 examples/light_switch/client/CMakeFiles/light_switch_client_nrf52840_xxAA_s140_5.0.0-3.alpha.dir/__/__/__/mesh/access/src/access.c.obj
 .text.access_model_subscription_remove
                0x00000000       0x60 examples/light_switch/client/CMakeFiles/light_switch_client_nrf52840_xxAA_s140_5.0.0-3.alpha.dir/__/__/__/mesh/access/src/access.c.obj
 .text.access_model_subscriptions_get
                0x00000000       0x7c examples/light_switch/client/CMakeFiles/light_switch_client_nrf52840_xxAA_s140_5.0.0-3.alpha.dir/__/__/__/mesh/access/src/access.c.obj
 .text.access_model_application_unbind
                0x00000000       0x50 examples/light_switch/client/CMakeFiles/light_switch_client_nrf52840_xxAA_s140_5.0.0-3.alpha.dir/__/__/__/mesh/access/src/access.c.obj
 .text.access_model_applications_get
                0x00000000       0x58 examples/light_switch/client/CMakeFiles/light_switch_client_nrf52840_xxAA_s140_5.0.0-3.alpha.dir/__/__/__/mesh/access/src/access.c.obj
 .text.access_model_publish_application_get
                0x00000000       0x28 examples/light_switch/client/CMakeFiles/light_switch_client_nrf52840_xxAA_s140_5.0.0-3.alpha.dir/__/__/__/mesh/access/src/access.c.obj
 .text.access_default_ttl_set
                0x00000000       0x10 examples/light_switch/client/CMakeFiles/light_switch_client_nrf52840_xxAA_s140_5.0.0-3.alpha.dir/__/__/__/mesh/access/src/access.c.obj
 .text.access_default_ttl_get
                0x00000000        0xc examples/light_switch/client/CMakeFiles/light_switch_client_nrf52840_xxAA_s140_5.0.0-3.alpha.dir/__/__/__/mesh/access/src/access.c.obj
 .text.access_model_publish_ttl_set
                0x00000000       0x40 examples/light_switch/client/CMakeFiles/light_switch_client_nrf52840_xxAA_s140_5.0.0-3.alpha.dir/__/__/__/mesh/access/src/access.c.obj
 .text.access_element_location_set
                0x00000000       0x2c examples/light_switch/client/CMakeFiles/light_switch_client_nrf52840_xxAA_s140_5.0.0-3.alpha.dir/__/__/__/mesh/access/src/access.c.obj
 .text.access_element_location_get
                0x00000000       0x20 examples/light_switch/client/CMakeFiles/light_switch_client_nrf52840_xxAA_s140_5.0.0-3.alpha.dir/__/__/__/mesh/access/src/access.c.obj
 .text.access_element_sig_model_count_get
                0x00000000       0x24 examples/light_switch/client/CMakeFiles/light_switch_client_nrf52840_xxAA_s140_5.0.0-3.alpha.dir/__/__/__/mesh/access/src/access.c.obj
 .text.access_element_vendor_model_count_get
                0x00000000       0x24 examples/light_switch/client/CMakeFiles/light_switch_client_nrf52840_xxAA_s140_5.0.0-3.alpha.dir/__/__/__/mesh/access/src/access.c.obj
 .text.access_model_id_get
                0x00000000       0x2c examples/light_switch/client/CMakeFiles/light_switch_client_nrf52840_xxAA_s140_5.0.0-3.alpha.dir/__/__/__/mesh/access/src/access.c.obj
 .text.access_handle_get
                0x00000000       0x50 examples/light_switch/client/CMakeFiles/light_switch_client_nrf52840_xxAA_s140_5.0.0-3.alpha.dir/__/__/__/mesh/access/src/access.c.obj
 .text.access_element_models_get
                0x00000000       0x50 examples/light_switch/client/CMakeFiles/light_switch_client_nrf52840_xxAA_s140_5.0.0-3.alpha.dir/__/__/__/mesh/access/src/access.c.obj
 .text          0x00000000        0x0 examples/light_switch/client/CMakeFiles/light_switch_client_nrf52840_xxAA_s140_5.0.0-3.alpha.dir/__/__/__/mesh/access/src/access_reliable.c.obj
 .data          0x00000000        0x0 examples/light_switch/client/CMakeFiles/light_switch_client_nrf52840_xxAA_s140_5.0.0-3.alpha.dir/__/__/__/mesh/access/src/access_reliable.c.obj
 .bss           0x00000000        0x0 examples/light_switch/client/CMakeFiles/light_switch_client_nrf52840_xxAA_s140_5.0.0-3.alpha.dir/__/__/__/mesh/access/src/access_reliable.c.obj
 .text.access_reliable_cancel_all
                0x00000000       0x34 examples/light_switch/client/CMakeFiles/light_switch_client_nrf52840_xxAA_s140_5.0.0-3.alpha.dir/__/__/__/mesh/access/src/access_reliable.c.obj
 .text.access_model_reliable_cancel
                0x00000000       0x44 examples/light_switch/client/CMakeFiles/light_switch_client_nrf52840_xxAA_s140_5.0.0-3.alpha.dir/__/__/__/mesh/access/src/access_reliable.c.obj
 .text          0x00000000        0x0 examples/light_switch/client/CMakeFiles/light_switch_client_nrf52840_xxAA_s140_5.0.0-3.alpha.dir/__/__/__/mesh/access/src/device_state_manager.c.obj
 .data          0x00000000        0x0 examples/light_switch/client/CMakeFiles/light_switch_client_nrf52840_xxAA_s140_5.0.0-3.alpha.dir/__/__/__/mesh/access/src/device_state_manager.c.obj
 .bss           0x00000000        0x0 examples/light_switch/client/CMakeFiles/light_switch_client_nrf52840_xxAA_s140_5.0.0-3.alpha.dir/__/__/__/mesh/access/src/device_state_manager.c.obj
 .text.add_address_virtual
                0x00000000       0x70 examples/light_switch/client/CMakeFiles/light_switch_client_nrf52840_xxAA_s140_5.0.0-3.alpha.dir/__/__/__/mesh/access/src/device_state_manager.c.obj
 .text.dsm_has_unflashed_data
                0x00000000       0x24 examples/light_switch/client/CMakeFiles/light_switch_client_nrf52840_xxAA_s140_5.0.0-3.alpha.dir/__/__/__/mesh/access/src/device_state_manager.c.obj
 .text.dsm_clear
                0x00000000       0x6c examples/light_switch/client/CMakeFiles/light_switch_client_nrf52840_xxAA_s140_5.0.0-3.alpha.dir/__/__/__/mesh/access/src/device_state_manager.c.obj
 .text.dsm_address_publish_virtual_add
                0x00000000        0x6 examples/light_switch/client/CMakeFiles/light_switch_client_nrf52840_xxAA_s140_5.0.0-3.alpha.dir/__/__/__/mesh/access/src/device_state_manager.c.obj
 .text.dsm_address_subscription_add
                0x00000000        0xc examples/light_switch/client/CMakeFiles/light_switch_client_nrf52840_xxAA_s140_5.0.0-3.alpha.dir/__/__/__/mesh/access/src/device_state_manager.c.obj
 .text.dsm_address_subscription_virtual_add
                0x00000000        0x6 examples/light_switch/client/CMakeFiles/light_switch_client_nrf52840_xxAA_s140_5.0.0-3.alpha.dir/__/__/__/mesh/access/src/device_state_manager.c.obj
 .text.dsm_address_subscription_count_get
                0x00000000       0x58 examples/light_switch/client/CMakeFiles/light_switch_client_nrf52840_xxAA_s140_5.0.0-3.alpha.dir/__/__/__/mesh/access/src/device_state_manager.c.obj
 .text.dsm_address_subscription_remove
                0x00000000       0x58 examples/light_switch/client/CMakeFiles/light_switch_client_nrf52840_xxAA_s140_5.0.0-3.alpha.dir/__/__/__/mesh/access/src/device_state_manager.c.obj
 .text.dsm_net_key_index_to_subnet_handle
                0x00000000       0x1c examples/light_switch/client/CMakeFiles/light_switch_client_nrf52840_xxAA_s140_5.0.0-3.alpha.dir/__/__/__/mesh/access/src/device_state_manager.c.obj
 .text.dsm_subnet_handle_get
                0x00000000        0xc examples/light_switch/client/CMakeFiles/light_switch_client_nrf52840_xxAA_s140_5.0.0-3.alpha.dir/__/__/__/mesh/access/src/device_state_manager.c.obj
 .text.dsm_subnet_handle_to_netkey_index
                0x00000000       0x30 examples/light_switch/client/CMakeFiles/light_switch_client_nrf52840_xxAA_s140_5.0.0-3.alpha.dir/__/__/__/mesh/access/src/device_state_manager.c.obj
 .text.dsm_app_key_index_to_appkey_handle
                0x00000000       0x1c examples/light_switch/client/CMakeFiles/light_switch_client_nrf52840_xxAA_s140_5.0.0-3.alpha.dir/__/__/__/mesh/access/src/device_state_manager.c.obj
 .text.dsm_appkey_handle_to_appkey_index
                0x00000000       0x30 examples/light_switch/client/CMakeFiles/light_switch_client_nrf52840_xxAA_s140_5.0.0-3.alpha.dir/__/__/__/mesh/access/src/device_state_manager.c.obj
 .text.dsm_subnet_update
                0x00000000       0x3c examples/light_switch/client/CMakeFiles/light_switch_client_nrf52840_xxAA_s140_5.0.0-3.alpha.dir/__/__/__/mesh/access/src/device_state_manager.c.obj
 .text.dsm_appkey_update
                0x00000000       0x40 examples/light_switch/client/CMakeFiles/light_switch_client_nrf52840_xxAA_s140_5.0.0-3.alpha.dir/__/__/__/mesh/access/src/device_state_manager.c.obj
 .text.dsm_appkey_delete
                0x00000000       0x2c examples/light_switch/client/CMakeFiles/light_switch_client_nrf52840_xxAA_s140_5.0.0-3.alpha.dir/__/__/__/mesh/access/src/device_state_manager.c.obj
 .text.dsm_subnet_delete
                0x00000000       0x94 examples/light_switch/client/CMakeFiles/light_switch_client_nrf52840_xxAA_s140_5.0.0-3.alpha.dir/__/__/__/mesh/access/src/device_state_manager.c.obj
 .text.dsm_beacon_secmat_get
                0x00000000       0x2c examples/light_switch/client/CMakeFiles/light_switch_client_nrf52840_xxAA_s140_5.0.0-3.alpha.dir/__/__/__/mesh/access/src/device_state_manager.c.obj
 .text.dsm_proxy_identity_get
                0x00000000        0x4 examples/light_switch/client/CMakeFiles/light_switch_client_nrf52840_xxAA_s140_5.0.0-3.alpha.dir/__/__/__/mesh/access/src/device_state_manager.c.obj
 .text          0x00000000        0x0 examples/light_switch/client/CMakeFiles/light_switch_client_nrf52840_xxAA_s140_5.0.0-3.alpha.dir/__/__/__/mesh/prov/src/prov_provisioner.c.obj
 .data          0x00000000        0x0 examples/light_switch/client/CMakeFiles/light_switch_client_nrf52840_xxAA_s140_5.0.0-3.alpha.dir/__/__/__/mesh/prov/src/prov_provisioner.c.obj
 .bss           0x00000000        0x0 examples/light_switch/client/CMakeFiles/light_switch_client_nrf52840_xxAA_s140_5.0.0-3.alpha.dir/__/__/__/mesh/prov/src/prov_provisioner.c.obj
 .text.prov_provisioner_shared_secret
                0x00000000       0x2a examples/light_switch/client/CMakeFiles/light_switch_client_nrf52840_xxAA_s140_5.0.0-3.alpha.dir/__/__/__/mesh/prov/src/prov_provisioner.c.obj
 .text.prov_provisioner_oob_pubkey
                0x00000000       0x34 examples/light_switch/client/CMakeFiles/light_switch_client_nrf52840_xxAA_s140_5.0.0-3.alpha.dir/__/__/__/mesh/prov/src/prov_provisioner.c.obj
 .text          0x00000000        0x0 examples/light_switch/client/CMakeFiles/light_switch_client_nrf52840_xxAA_s140_5.0.0-3.alpha.dir/__/__/__/mesh/prov/src/nrf_mesh_prov.c.obj
 .data          0x00000000        0x0 examples/light_switch/client/CMakeFiles/light_switch_client_nrf52840_xxAA_s140_5.0.0-3.alpha.dir/__/__/__/mesh/prov/src/nrf_mesh_prov.c.obj
 .bss           0x00000000        0x0 examples/light_switch/client/CMakeFiles/light_switch_client_nrf52840_xxAA_s140_5.0.0-3.alpha.dir/__/__/__/mesh/prov/src/nrf_mesh_prov.c.obj
 .text.nrf_mesh_prov_listen
                0x00000000       0x24 examples/light_switch/client/CMakeFiles/light_switch_client_nrf52840_xxAA_s140_5.0.0-3.alpha.dir/__/__/__/mesh/prov/src/nrf_mesh_prov.c.obj
 .text.nrf_mesh_prov_shared_secret_provide
                0x00000000        0xe examples/light_switch/client/CMakeFiles/light_switch_client_nrf52840_xxAA_s140_5.0.0-3.alpha.dir/__/__/__/mesh/prov/src/nrf_mesh_prov.c.obj
 .text.nrf_mesh_prov_pubkey_provide
                0x00000000       0x10 examples/light_switch/client/CMakeFiles/light_switch_client_nrf52840_xxAA_s140_5.0.0-3.alpha.dir/__/__/__/mesh/prov/src/nrf_mesh_prov.c.obj
 .text          0x00000000        0x0 examples/light_switch/client/CMakeFiles/light_switch_client_nrf52840_xxAA_s140_5.0.0-3.alpha.dir/__/__/__/mesh/prov/src/provisioning.c.obj
 .data          0x00000000        0x0 examples/light_switch/client/CMakeFiles/light_switch_client_nrf52840_xxAA_s140_5.0.0-3.alpha.dir/__/__/__/mesh/prov/src/provisioning.c.obj
 .bss           0x00000000        0x0 examples/light_switch/client/CMakeFiles/light_switch_client_nrf52840_xxAA_s140_5.0.0-3.alpha.dir/__/__/__/mesh/prov/src/provisioning.c.obj
 .text.prov_listen_start
                0x00000000       0x14 examples/light_switch/client/CMakeFiles/light_switch_client_nrf52840_xxAA_s140_5.0.0-3.alpha.dir/__/__/__/mesh/prov/src/provisioning.c.obj
 .text.prov_listen_stop
                0x00000000        0x8 examples/light_switch/client/CMakeFiles/light_switch_client_nrf52840_xxAA_s140_5.0.0-3.alpha.dir/__/__/__/mesh/prov/src/provisioning.c.obj
 .text.prov_tx_capabilities
                0x00000000       0x1e examples/light_switch/client/CMakeFiles/light_switch_client_nrf52840_xxAA_s140_5.0.0-3.alpha.dir/__/__/__/mesh/prov/src/provisioning.c.obj
 .text.prov_tx_input_complete
                0x00000000       0x16 examples/light_switch/client/CMakeFiles/light_switch_client_nrf52840_xxAA_s140_5.0.0-3.alpha.dir/__/__/__/mesh/prov/src/provisioning.c.obj
 .text.prov_tx_complete
                0x00000000       0x16 examples/light_switch/client/CMakeFiles/light_switch_client_nrf52840_xxAA_s140_5.0.0-3.alpha.dir/__/__/__/mesh/prov/src/provisioning.c.obj
 .text.prov_tx_failed
                0x00000000       0x1a examples/light_switch/client/CMakeFiles/light_switch_client_nrf52840_xxAA_s140_5.0.0-3.alpha.dir/__/__/__/mesh/prov/src/provisioning.c.obj
 .text.prov_tx  0x00000000        0x4 examples/light_switch/client/CMakeFiles/light_switch_client_nrf52840_xxAA_s140_5.0.0-3.alpha.dir/__/__/__/mesh/prov/src/provisioning.c.obj
 .text          0x00000000        0x0 examples/light_switch/client/CMakeFiles/light_switch_client_nrf52840_xxAA_s140_5.0.0-3.alpha.dir/__/__/__/mesh/prov/src/prov_beacon.c.obj
 .data          0x00000000        0x0 examples/light_switch/client/CMakeFiles/light_switch_client_nrf52840_xxAA_s140_5.0.0-3.alpha.dir/__/__/__/mesh/prov/src/prov_beacon.c.obj
 .bss           0x00000000        0x0 examples/light_switch/client/CMakeFiles/light_switch_client_nrf52840_xxAA_s140_5.0.0-3.alpha.dir/__/__/__/mesh/prov/src/prov_beacon.c.obj
 .text.prov_beacon_unprov_report
                0x00000000        0xc examples/light_switch/client/CMakeFiles/light_switch_client_nrf52840_xxAA_s140_5.0.0-3.alpha.dir/__/__/__/mesh/prov/src/prov_beacon.c.obj
 .text          0x00000000        0x0 examples/light_switch/client/CMakeFiles/light_switch_client_nrf52840_xxAA_s140_5.0.0-3.alpha.dir/__/__/__/mesh/prov/src/prov_utils.c.obj
 .data          0x00000000        0x0 examples/light_switch/client/CMakeFiles/light_switch_client_nrf52840_xxAA_s140_5.0.0-3.alpha.dir/__/__/__/mesh/prov/src/prov_utils.c.obj
 .bss           0x00000000        0x0 examples/light_switch/client/CMakeFiles/light_switch_client_nrf52840_xxAA_s140_5.0.0-3.alpha.dir/__/__/__/mesh/prov/src/prov_utils.c.obj
 .text.prov_utils_opt_set
                0x00000000       0x20 examples/light_switch/client/CMakeFiles/light_switch_client_nrf52840_xxAA_s140_5.0.0-3.alpha.dir/__/__/__/mesh/prov/src/prov_utils.c.obj
 .text.prov_utils_opt_get
                0x00000000       0x1c examples/light_switch/client/CMakeFiles/light_switch_client_nrf52840_xxAA_s140_5.0.0-3.alpha.dir/__/__/__/mesh/prov/src/prov_utils.c.obj
 .text          0x00000000        0x0 examples/light_switch/client/CMakeFiles/light_switch_client_nrf52840_xxAA_s140_5.0.0-3.alpha.dir/__/__/__/mesh/prov/src/prov_bearer_adv.c.obj
 .data          0x00000000        0x0 examples/light_switch/client/CMakeFiles/light_switch_client_nrf52840_xxAA_s140_5.0.0-3.alpha.dir/__/__/__/mesh/prov/src/prov_bearer_adv.c.obj
 .bss           0x00000000        0x0 examples/light_switch/client/CMakeFiles/light_switch_client_nrf52840_xxAA_s140_5.0.0-3.alpha.dir/__/__/__/mesh/prov/src/prov_bearer_adv.c.obj
 .text          0x00000000        0x0 examples/light_switch/client/CMakeFiles/light_switch_client_nrf52840_xxAA_s140_5.0.0-3.alpha.dir/__/__/__/external/nRF5_SDK_14.0.0_3bcc1f7/components/toolchain/system_nrf52840.c.obj
 .data          0x00000000        0x0 examples/light_switch/client/CMakeFiles/light_switch_client_nrf52840_xxAA_s140_5.0.0-3.alpha.dir/__/__/__/external/nRF5_SDK_14.0.0_3bcc1f7/components/toolchain/system_nrf52840.c.obj
 .bss           0x00000000        0x0 examples/light_switch/client/CMakeFiles/light_switch_client_nrf52840_xxAA_s140_5.0.0-3.alpha.dir/__/__/__/external/nRF5_SDK_14.0.0_3bcc1f7/components/toolchain/system_nrf52840.c.obj
 .text.SystemCoreClockUpdate
                0x00000000       0x10 examples/light_switch/client/CMakeFiles/light_switch_client_nrf52840_xxAA_s140_5.0.0-3.alpha.dir/__/__/__/external/nRF5_SDK_14.0.0_3bcc1f7/components/toolchain/system_nrf52840.c.obj
 .data          0x00000000        0x0 examples/light_switch/client/CMakeFiles/light_switch_client_nrf52840_xxAA_s140_5.0.0-3.alpha.dir/__/__/__/external/nRF5_SDK_14.0.0_3bcc1f7/components/toolchain/gcc/gcc_startup_nrf52840.S.obj
 .bss           0x00000000        0x0 examples/light_switch/client/CMakeFiles/light_switch_client_nrf52840_xxAA_s140_5.0.0-3.alpha.dir/__/__/__/external/nRF5_SDK_14.0.0_3bcc1f7/components/toolchain/gcc/gcc_startup_nrf52840.S.obj
 .text          0x00000000        0x0 mesh/core/libmesh_core_nrf52840_xxAA.a(nrf_mesh_configure.c.obj)
 .data          0x00000000        0x0 mesh/core/libmesh_core_nrf52840_xxAA.a(nrf_mesh_configure.c.obj)
 .bss           0x00000000        0x0 mesh/core/libmesh_core_nrf52840_xxAA.a(nrf_mesh_configure.c.obj)
 .text.nrf_mesh_configure_device_uuid_set
                0x00000000       0x10 mesh/core/libmesh_core_nrf52840_xxAA.a(nrf_mesh_configure.c.obj)
 .text          0x00000000        0x0 mesh/core/libmesh_core_nrf52840_xxAA.a(event.c.obj)
 .data          0x00000000        0x0 mesh/core/libmesh_core_nrf52840_xxAA.a(event.c.obj)
 .bss           0x00000000        0x0 mesh/core/libmesh_core_nrf52840_xxAA.a(event.c.obj)
 .text.event_handler_remove
                0x00000000       0x58 mesh/core/libmesh_core_nrf52840_xxAA.a(event.c.obj)
 .text          0x00000000        0x0 mesh/core/libmesh_core_nrf52840_xxAA.a(packet_mgr.c.obj)
 .data          0x00000000        0x0 mesh/core/libmesh_core_nrf52840_xxAA.a(packet_mgr.c.obj)
 .bss           0x00000000        0x0 mesh/core/libmesh_core_nrf52840_xxAA.a(packet_mgr.c.obj)
 .text.packet_mgr_get_free_space
                0x00000000       0x1c mesh/core/libmesh_core_nrf52840_xxAA.a(packet_mgr.c.obj)
 .text.packet_mgr_refcount_get
                0x00000000        0x6 mesh/core/libmesh_core_nrf52840_xxAA.a(packet_mgr.c.obj)
 .text.packet_mgr_size_get
                0x00000000        0x6 mesh/core/libmesh_core_nrf52840_xxAA.a(packet_mgr.c.obj)
 .text          0x00000000        0x0 mesh/core/libmesh_core_nrf52840_xxAA.a(net_state.c.obj)
 .data          0x00000000        0x0 mesh/core/libmesh_core_nrf52840_xxAA.a(net_state.c.obj)
 .bss           0x00000000        0x0 mesh/core/libmesh_core_nrf52840_xxAA.a(net_state.c.obj)
 .text.net_state_reset
                0x00000000       0x3c mesh/core/libmesh_core_nrf52840_xxAA.a(net_state.c.obj)
 .text.net_state_iv_update_test_mode_set
                0x00000000        0xc mesh/core/libmesh_core_nrf52840_xxAA.a(net_state.c.obj)
 .data.mem_listener.10054
                0x00000000       0x10 mesh/core/libmesh_core_nrf52840_xxAA.a(net_state.c.obj)
 .text          0x00000000        0x0 mesh/core/libmesh_core_nrf52840_xxAA.a(nrf_mesh_utils.c.obj)
 .data          0x00000000        0x0 mesh/core/libmesh_core_nrf52840_xxAA.a(nrf_mesh_utils.c.obj)
 .bss           0x00000000        0x0 mesh/core/libmesh_core_nrf52840_xxAA.a(nrf_mesh_utils.c.obj)
 .text.nrf_mesh_rand_get
                0x00000000       0x10 mesh/core/libmesh_core_nrf52840_xxAA.a(nrf_mesh_utils.c.obj)
 .text.nrf_mesh_gap_address_type_get
                0x00000000       0x3c mesh/core/libmesh_core_nrf52840_xxAA.a(nrf_mesh_utils.c.obj)
 .text          0x00000000        0x0 mesh/core/libmesh_core_nrf52840_xxAA.a(nrf_mesh.c.obj)
 .data          0x00000000        0x0 mesh/core/libmesh_core_nrf52840_xxAA.a(nrf_mesh.c.obj)
 .bss           0x00000000        0x0 mesh/core/libmesh_core_nrf52840_xxAA.a(nrf_mesh.c.obj)
 .text.nrf_mesh_disable
                0x00000000       0x28 mesh/core/libmesh_core_nrf52840_xxAA.a(nrf_mesh.c.obj)
 .text.nrf_mesh_evt_handler_remove
                0x00000000        0x4 mesh/core/libmesh_core_nrf52840_xxAA.a(nrf_mesh.c.obj)
 .text.nrf_mesh_rx_cb_set
                0x00000000        0xc mesh/core/libmesh_core_nrf52840_xxAA.a(nrf_mesh.c.obj)
 .text.nrf_mesh_rx_cb_clear
                0x00000000        0xc mesh/core/libmesh_core_nrf52840_xxAA.a(nrf_mesh.c.obj)
 .text          0x00000000        0x0 mesh/core/libmesh_core_nrf52840_xxAA.a(hal.c.obj)
 .data          0x00000000        0x0 mesh/core/libmesh_core_nrf52840_xxAA.a(hal.c.obj)
 .bss           0x00000000        0x0 mesh/core/libmesh_core_nrf52840_xxAA.a(hal.c.obj)
 .text.sd_power_reset_reason_clr
                0x00000000        0x4 mesh/core/libmesh_core_nrf52840_xxAA.a(hal.c.obj)
 .text.hal_device_reset
                0x00000000       0x2c mesh/core/libmesh_core_nrf52840_xxAA.a(hal.c.obj)
 .text          0x00000000        0x0 mesh/core/libmesh_core_nrf52840_xxAA.a(timer_scheduler.c.obj)
 .data          0x00000000        0x0 mesh/core/libmesh_core_nrf52840_xxAA.a(timer_scheduler.c.obj)
 .bss           0x00000000        0x0 mesh/core/libmesh_core_nrf52840_xxAA.a(timer_scheduler.c.obj)
 .text          0x00000000        0x0 mesh/core/libmesh_core_nrf52840_xxAA.a(timer.c.obj)
 .data          0x00000000        0x0 mesh/core/libmesh_core_nrf52840_xxAA.a(timer.c.obj)
 .bss           0x00000000        0x0 mesh/core/libmesh_core_nrf52840_xxAA.a(timer.c.obj)
 .text.timer_order_cb_ppi
                0x00000000       0xc4 mesh/core/libmesh_core_nrf52840_xxAA.a(timer.c.obj)
 .text.timer_order_ppi
                0x00000000       0x84 mesh/core/libmesh_core_nrf52840_xxAA.a(timer.c.obj)
 .text.timer_abort
                0x00000000       0x78 mesh/core/libmesh_core_nrf52840_xxAA.a(timer.c.obj)
 .text          0x00000000        0x0 mesh/core/libmesh_core_nrf52840_xxAA.a(ticker.c.obj)
 .data          0x00000000        0x0 mesh/core/libmesh_core_nrf52840_xxAA.a(ticker.c.obj)
 .bss           0x00000000        0x0 mesh/core/libmesh_core_nrf52840_xxAA.a(ticker.c.obj)
 .text.ticker_get
                0x00000000        0xc mesh/core/libmesh_core_nrf52840_xxAA.a(ticker.c.obj)
 .text          0x00000000        0x0 mesh/core/libmesh_core_nrf52840_xxAA.a(rand.c.obj)
 .data          0x00000000        0x0 mesh/core/libmesh_core_nrf52840_xxAA.a(rand.c.obj)
 .bss           0x00000000        0x0 mesh/core/libmesh_core_nrf52840_xxAA.a(rand.c.obj)
 .text          0x00000000        0x0 mesh/core/libmesh_core_nrf52840_xxAA.a(timeslot.c.obj)
 .data          0x00000000        0x0 mesh/core/libmesh_core_nrf52840_xxAA.a(timeslot.c.obj)
 .bss           0x00000000        0x0 mesh/core/libmesh_core_nrf52840_xxAA.a(timeslot.c.obj)
 .text.timeslot_end_time_get
                0x00000000       0x10 mesh/core/libmesh_core_nrf52840_xxAA.a(timeslot.c.obj)
 .text.timeslot_is_in_ts
                0x00000000        0xc mesh/core/libmesh_core_nrf52840_xxAA.a(timeslot.c.obj)
 .text.timeslot_restart
                0x00000000       0x10 mesh/core/libmesh_core_nrf52840_xxAA.a(timeslot.c.obj)
 .text          0x00000000        0x0 mesh/core/libmesh_core_nrf52840_xxAA.a(bearer_event.c.obj)
 .data          0x00000000        0x0 mesh/core/libmesh_core_nrf52840_xxAA.a(bearer_event.c.obj)
 .bss           0x00000000        0x0 mesh/core/libmesh_core_nrf52840_xxAA.a(bearer_event.c.obj)
 .text.bearer_event_generic_post
                0x00000000       0x30 mesh/core/libmesh_core_nrf52840_xxAA.a(bearer_event.c.obj)
 .text.bearer_event_timer_sch_post
                0x00000000       0x34 mesh/core/libmesh_core_nrf52840_xxAA.a(bearer_event.c.obj)
 .text          0x00000000        0x0 mesh/core/libmesh_core_nrf52840_xxAA.a(enc.c.obj)
 .data          0x00000000        0x0 mesh/core/libmesh_core_nrf52840_xxAA.a(enc.c.obj)
 .bss           0x00000000        0x0 mesh/core/libmesh_core_nrf52840_xxAA.a(enc.c.obj)
 .text.enc_key_generate
                0x00000000        0x6 mesh/core/libmesh_core_nrf52840_xxAA.a(enc.c.obj)
 .text          0x00000000        0x0 mesh/core/libmesh_core_nrf52840_xxAA.a(network.c.obj)
 .data          0x00000000        0x0 mesh/core/libmesh_core_nrf52840_xxAA.a(network.c.obj)
 .bss           0x00000000        0x0 mesh/core/libmesh_core_nrf52840_xxAA.a(network.c.obj)
 .text.network_opt_set
                0x00000000       0x54 mesh/core/libmesh_core_nrf52840_xxAA.a(network.c.obj)
 .text.network_opt_get
                0x00000000       0x48 mesh/core/libmesh_core_nrf52840_xxAA.a(network.c.obj)
 .text.network_packet_discard
                0x00000000       0x3c mesh/core/libmesh_core_nrf52840_xxAA.a(network.c.obj)
 .text          0x00000000        0x0 mesh/core/libmesh_core_nrf52840_xxAA.a(nrf_mesh_keygen.c.obj)
 .data          0x00000000        0x0 mesh/core/libmesh_core_nrf52840_xxAA.a(nrf_mesh_keygen.c.obj)
 .bss           0x00000000        0x0 mesh/core/libmesh_core_nrf52840_xxAA.a(nrf_mesh_keygen.c.obj)
 .text.nrf_mesh_keygen_identitykey
                0x00000000       0x4c mesh/core/libmesh_core_nrf52840_xxAA.a(nrf_mesh_keygen.c.obj)
 .text          0x00000000        0x0 mesh/core/libmesh_core_nrf52840_xxAA.a(log.c.obj)
 .data          0x00000000        0x0 mesh/core/libmesh_core_nrf52840_xxAA.a(log.c.obj)
 .bss           0x00000000        0x0 mesh/core/libmesh_core_nrf52840_xxAA.a(log.c.obj)
 .text.log_callback_logview
                0x00000000       0x38 mesh/core/libmesh_core_nrf52840_xxAA.a(log.c.obj)
 .text.log_set_callback
                0x00000000        0xc mesh/core/libmesh_core_nrf52840_xxAA.a(log.c.obj)
 .rodata.log_callback_logview.str1.1
                0x00000000        0xf mesh/core/libmesh_core_nrf52840_xxAA.a(log.c.obj)
 .text          0x00000000        0x0 mesh/core/libmesh_core_nrf52840_xxAA.a(flash_manager.c.obj)
 .data          0x00000000        0x0 mesh/core/libmesh_core_nrf52840_xxAA.a(flash_manager.c.obj)
 .bss           0x00000000        0x0 mesh/core/libmesh_core_nrf52840_xxAA.a(flash_manager.c.obj)
 .text.flash_manager_entry_count_get
                0x00000000       0x5c mesh/core/libmesh_core_nrf52840_xxAA.a(flash_manager.c.obj)
 .text.flash_manager_entry_release
                0x00000000       0x12 mesh/core/libmesh_core_nrf52840_xxAA.a(flash_manager.c.obj)
 .text          0x00000000        0x0 mesh/core/libmesh_core_nrf52840_xxAA.a(ccm_soft.c.obj)
 .data          0x00000000        0x0 mesh/core/libmesh_core_nrf52840_xxAA.a(ccm_soft.c.obj)
 .bss           0x00000000        0x0 mesh/core/libmesh_core_nrf52840_xxAA.a(ccm_soft.c.obj)
 .text          0x00000000        0x0 mesh/core/libmesh_core_nrf52840_xxAA.a(beacon.c.obj)
 .data          0x00000000        0x0 mesh/core/libmesh_core_nrf52840_xxAA.a(beacon.c.obj)
 .bss           0x00000000        0x0 mesh/core/libmesh_core_nrf52840_xxAA.a(beacon.c.obj)
 .text          0x00000000        0x0 mesh/core/libmesh_core_nrf52840_xxAA.a(flash_manager_internal.c.obj)
 .data          0x00000000        0x0 mesh/core/libmesh_core_nrf52840_xxAA.a(flash_manager_internal.c.obj)
 .bss           0x00000000        0x0 mesh/core/libmesh_core_nrf52840_xxAA.a(flash_manager_internal.c.obj)
 .text          0x00000000        0x0 mesh/core/libmesh_core_nrf52840_xxAA.a(core_tx.c.obj)
 .data          0x00000000        0x0 mesh/core/libmesh_core_nrf52840_xxAA.a(core_tx.c.obj)
 .bss           0x00000000        0x0 mesh/core/libmesh_core_nrf52840_xxAA.a(core_tx.c.obj)
 .text.core_tx_adv_count_set
                0x00000000       0x38 mesh/core/libmesh_core_nrf52840_xxAA.a(core_tx.c.obj)
 .text.core_tx_adv_count_get
                0x00000000       0x28 mesh/core/libmesh_core_nrf52840_xxAA.a(core_tx.c.obj)
 .text.core_tx_adv_interval_set
                0x00000000       0x34 mesh/core/libmesh_core_nrf52840_xxAA.a(core_tx.c.obj)
 .text.core_tx_adv_interval_get
                0x00000000       0x34 mesh/core/libmesh_core_nrf52840_xxAA.a(core_tx.c.obj)
 .text.core_tx_adv_address_set
                0x00000000       0x34 mesh/core/libmesh_core_nrf52840_xxAA.a(core_tx.c.obj)
 .text          0x00000000        0x0 mesh/core/libmesh_core_nrf52840_xxAA.a(net_beacon.c.obj)
 .data          0x00000000        0x0 mesh/core/libmesh_core_nrf52840_xxAA.a(net_beacon.c.obj)
 .bss           0x00000000        0x0 mesh/core/libmesh_core_nrf52840_xxAA.a(net_beacon.c.obj)
 .text.net_beacon_state_set
                0x00000000       0x34 mesh/core/libmesh_core_nrf52840_xxAA.a(net_beacon.c.obj)
 .text.net_beacon_state_get
                0x00000000        0xc mesh/core/libmesh_core_nrf52840_xxAA.a(net_beacon.c.obj)
 .text          0x00000000        0x0 mesh/core/libmesh_core_nrf52840_xxAA.a(advertiser.c.obj)
 .data          0x00000000        0x0 mesh/core/libmesh_core_nrf52840_xxAA.a(advertiser.c.obj)
 .bss           0x00000000        0x0 mesh/core/libmesh_core_nrf52840_xxAA.a(advertiser.c.obj)
 .text.advertiser_disable
                0x00000000        0xa mesh/core/libmesh_core_nrf52840_xxAA.a(advertiser.c.obj)
 .text.advertiser_channels_set
                0x00000000       0x84 mesh/core/libmesh_core_nrf52840_xxAA.a(advertiser.c.obj)
 .text.advertiser_address_set
                0x00000000       0x50 mesh/core/libmesh_core_nrf52840_xxAA.a(advertiser.c.obj)
 .text.advertiser_config_set
                0x00000000       0x44 mesh/core/libmesh_core_nrf52840_xxAA.a(advertiser.c.obj)
 .text.advertiser_config_get
                0x00000000       0x2c mesh/core/libmesh_core_nrf52840_xxAA.a(advertiser.c.obj)
 .text          0x00000000        0x0 mesh/core/libmesh_core_nrf52840_xxAA.a(bearer_handler.c.obj)
 .data          0x00000000        0x0 mesh/core/libmesh_core_nrf52840_xxAA.a(bearer_handler.c.obj)
 .bss           0x00000000        0x0 mesh/core/libmesh_core_nrf52840_xxAA.a(bearer_handler.c.obj)
 .text.bearer_handler_stop
                0x00000000       0x20 mesh/core/libmesh_core_nrf52840_xxAA.a(bearer_handler.c.obj)
 .text.bearer_handler_action_fire
                0x00000000       0xb0 mesh/core/libmesh_core_nrf52840_xxAA.a(bearer_handler.c.obj)
 .text          0x00000000        0x0 mesh/core/libmesh_core_nrf52840_xxAA.a(broadcast.c.obj)
 .data          0x00000000        0x0 mesh/core/libmesh_core_nrf52840_xxAA.a(broadcast.c.obj)
 .bss           0x00000000        0x0 mesh/core/libmesh_core_nrf52840_xxAA.a(broadcast.c.obj)
 .text          0x00000000        0x0 mesh/core/libmesh_core_nrf52840_xxAA.a(radio_config.c.obj)
 .data          0x00000000        0x0 mesh/core/libmesh_core_nrf52840_xxAA.a(radio_config.c.obj)
 .bss           0x00000000        0x0 mesh/core/libmesh_core_nrf52840_xxAA.a(radio_config.c.obj)
 .text.radio_config_access_addr_get
                0x00000000       0x64 mesh/core/libmesh_core_nrf52840_xxAA.a(radio_config.c.obj)
 .text          0x00000000        0x0 mesh/core/libmesh_core_nrf52840_xxAA.a(scanner.c.obj)
 .data          0x00000000        0x0 mesh/core/libmesh_core_nrf52840_xxAA.a(scanner.c.obj)
 .bss           0x00000000        0x0 mesh/core/libmesh_core_nrf52840_xxAA.a(scanner.c.obj)
 .text.scanner_disable
                0x00000000       0x48 mesh/core/libmesh_core_nrf52840_xxAA.a(scanner.c.obj)
 .text.scanner_is_enabled
                0x00000000       0x10 mesh/core/libmesh_core_nrf52840_xxAA.a(scanner.c.obj)
 .text.scanner_stats_get
                0x00000000        0x8 mesh/core/libmesh_core_nrf52840_xxAA.a(scanner.c.obj)
 .text.scanner_config_radio_mode_set
                0x00000000       0x10 mesh/core/libmesh_core_nrf52840_xxAA.a(scanner.c.obj)
 .text          0x00000000        0x0 mesh/core/libmesh_core_nrf52840_xxAA.a(internal_event.c.obj)
 .data          0x00000000        0x0 mesh/core/libmesh_core_nrf52840_xxAA.a(internal_event.c.obj)
 .bss           0x00000000        0x0 mesh/core/libmesh_core_nrf52840_xxAA.a(internal_event.c.obj)
 .text.internal_event_init
                0x00000000       0x40 mesh/core/libmesh_core_nrf52840_xxAA.a(internal_event.c.obj)
 .text.internal_event_pop
                0x00000000       0x1c mesh/core/libmesh_core_nrf52840_xxAA.a(internal_event.c.obj)
 .bss.m_internal_event_fifo_buffer
                0x00000000      0x100 mesh/core/libmesh_core_nrf52840_xxAA.a(internal_event.c.obj)
 .text          0x00000000        0x0 mesh/core/libmesh_core_nrf52840_xxAA.a(aes.c.obj)
 .data          0x00000000        0x0 mesh/core/libmesh_core_nrf52840_xxAA.a(aes.c.obj)
 .bss           0x00000000        0x0 mesh/core/libmesh_core_nrf52840_xxAA.a(aes.c.obj)
 .text          0x00000000        0x0 mesh/core/libmesh_core_nrf52840_xxAA.a(msg_cache.c.obj)
 .data          0x00000000        0x0 mesh/core/libmesh_core_nrf52840_xxAA.a(msg_cache.c.obj)
 .bss           0x00000000        0x0 mesh/core/libmesh_core_nrf52840_xxAA.a(msg_cache.c.obj)
 .text.msg_cache_clear
                0x00000000       0x18 mesh/core/libmesh_core_nrf52840_xxAA.a(msg_cache.c.obj)
 .text          0x00000000        0x0 mesh/core/libmesh_core_nrf52840_xxAA.a(transport.c.obj)
 .data          0x00000000        0x0 mesh/core/libmesh_core_nrf52840_xxAA.a(transport.c.obj)
 .bss           0x00000000        0x0 mesh/core/libmesh_core_nrf52840_xxAA.a(transport.c.obj)
 .text.transport_sar_mem_funcs_set
                0x00000000       0x44 mesh/core/libmesh_core_nrf52840_xxAA.a(transport.c.obj)
 .text.transport_opt_set
                0x00000000       0xd0 mesh/core/libmesh_core_nrf52840_xxAA.a(transport.c.obj)
 .text.transport_opt_get
                0x00000000       0x68 mesh/core/libmesh_core_nrf52840_xxAA.a(transport.c.obj)
 .text          0x00000000        0x0 mesh/core/libmesh_core_nrf52840_xxAA.a(packet_buffer.c.obj)
 .data          0x00000000        0x0 mesh/core/libmesh_core_nrf52840_xxAA.a(packet_buffer.c.obj)
 .bss           0x00000000        0x0 mesh/core/libmesh_core_nrf52840_xxAA.a(packet_buffer.c.obj)
 .text.packet_buffer_max_packet_len_get
                0x00000000       0x34 mesh/core/libmesh_core_nrf52840_xxAA.a(packet_buffer.c.obj)
 .text          0x00000000        0x0 mesh/core/libmesh_core_nrf52840_xxAA.a(flash_manager_defrag.c.obj)
 .data          0x00000000        0x0 mesh/core/libmesh_core_nrf52840_xxAA.a(flash_manager_defrag.c.obj)
 .bss           0x00000000        0x0 mesh/core/libmesh_core_nrf52840_xxAA.a(flash_manager_defrag.c.obj)
 .text.flash_manager_defragging
                0x00000000       0x44 mesh/core/libmesh_core_nrf52840_xxAA.a(flash_manager_defrag.c.obj)
 .text          0x00000000        0x0 mesh/core/libmesh_core_nrf52840_xxAA.a(fifo.c.obj)
 .data          0x00000000        0x0 mesh/core/libmesh_core_nrf52840_xxAA.a(fifo.c.obj)
 .bss           0x00000000        0x0 mesh/core/libmesh_core_nrf52840_xxAA.a(fifo.c.obj)
 .text.fifo_peek_at
                0x00000000       0x50 mesh/core/libmesh_core_nrf52840_xxAA.a(fifo.c.obj)
 .text.fifo_peek
                0x00000000        0x6 mesh/core/libmesh_core_nrf52840_xxAA.a(fifo.c.obj)
 .text.fifo_flush
                0x00000000        0x6 mesh/core/libmesh_core_nrf52840_xxAA.a(fifo.c.obj)
 .text.fifo_get_len
                0x00000000        0x8 mesh/core/libmesh_core_nrf52840_xxAA.a(fifo.c.obj)
 .text.fifo_is_full
                0x00000000       0x10 mesh/core/libmesh_core_nrf52840_xxAA.a(fifo.c.obj)
 .text.fifo_is_empty
                0x00000000        0xc mesh/core/libmesh_core_nrf52840_xxAA.a(fifo.c.obj)
 .text          0x00000000        0x0 mesh/core/libmesh_core_nrf52840_xxAA.a(mesh_flash.c.obj)
 .data          0x00000000        0x0 mesh/core/libmesh_core_nrf52840_xxAA.a(mesh_flash.c.obj)
 .bss           0x00000000        0x0 mesh/core/libmesh_core_nrf52840_xxAA.a(mesh_flash.c.obj)
 .text.mesh_flash_op_available_slots
                0x00000000       0x2c mesh/core/libmesh_core_nrf52840_xxAA.a(mesh_flash.c.obj)
 .text.mesh_flash_in_progress
                0x00000000       0x34 mesh/core/libmesh_core_nrf52840_xxAA.a(mesh_flash.c.obj)
 .text.mesh_flash_set_suspended
                0x00000000       0x80 mesh/core/libmesh_core_nrf52840_xxAA.a(mesh_flash.c.obj)
 .bss.suspend_count.10174
                0x00000000        0x4 mesh/core/libmesh_core_nrf52840_xxAA.a(mesh_flash.c.obj)
 .text          0x00000000        0x0 mesh/core/libmesh_core_nrf52840_xxAA.a(queue.c.obj)
 .data          0x00000000        0x0 mesh/core/libmesh_core_nrf52840_xxAA.a(queue.c.obj)
 .bss           0x00000000        0x0 mesh/core/libmesh_core_nrf52840_xxAA.a(queue.c.obj)
 .text          0x00000000        0x0 mesh/core/libmesh_core_nrf52840_xxAA.a(aes_cmac.c.obj)
 .data          0x00000000        0x0 mesh/core/libmesh_core_nrf52840_xxAA.a(aes_cmac.c.obj)
 .bss           0x00000000        0x0 mesh/core/libmesh_core_nrf52840_xxAA.a(aes_cmac.c.obj)
 .text          0x00000000        0x0 mesh/core/libmesh_core_nrf52840_xxAA.a(msqueue.c.obj)
 .data          0x00000000        0x0 mesh/core/libmesh_core_nrf52840_xxAA.a(msqueue.c.obj)
 .bss           0x00000000        0x0 mesh/core/libmesh_core_nrf52840_xxAA.a(msqueue.c.obj)
 .text          0x00000000        0x0 mesh/core/libmesh_core_nrf52840_xxAA.a(replay_cache.c.obj)
 .data          0x00000000        0x0 mesh/core/libmesh_core_nrf52840_xxAA.a(replay_cache.c.obj)
 .bss           0x00000000        0x0 mesh/core/libmesh_core_nrf52840_xxAA.a(replay_cache.c.obj)
 .text.replay_cache_on_iv_update
                0x00000000       0x24 mesh/core/libmesh_core_nrf52840_xxAA.a(replay_cache.c.obj)
 .text          0x00000000        0x0 mesh/core/libmesh_core_nrf52840_xxAA.a(filter_engine.c.obj)
 .data          0x00000000        0x0 mesh/core/libmesh_core_nrf52840_xxAA.a(filter_engine.c.obj)
 .bss           0x00000000        0x0 mesh/core/libmesh_core_nrf52840_xxAA.a(filter_engine.c.obj)
 .text.fen_filter_start
                0x00000000       0x68 mesh/core/libmesh_core_nrf52840_xxAA.a(filter_engine.c.obj)
 .text.fen_filter_stop
                0x00000000       0x5c mesh/core/libmesh_core_nrf52840_xxAA.a(filter_engine.c.obj)
 .text.fen_accepted_amount_get
                0x00000000        0xc mesh/core/libmesh_core_nrf52840_xxAA.a(filter_engine.c.obj)
 .text          0x00000000        0x0 mesh/core/libmesh_core_nrf52840_xxAA.a(nrf_flash.c.obj)
 .data          0x00000000        0x0 mesh/core/libmesh_core_nrf52840_xxAA.a(nrf_flash.c.obj)
 .bss           0x00000000        0x0 mesh/core/libmesh_core_nrf52840_xxAA.a(nrf_flash.c.obj)
 .text          0x00000000        0x0 external/rtt/librtt_nrf52840_xxAA.a(SEGGER_RTT.c.obj)
 .data          0x00000000        0x0 external/rtt/librtt_nrf52840_xxAA.a(SEGGER_RTT.c.obj)
 .bss           0x00000000        0x0 external/rtt/librtt_nrf52840_xxAA.a(SEGGER_RTT.c.obj)
 .text._PostTerminalSwitch.constprop.0
                0x00000000       0x28 external/rtt/librtt_nrf52840_xxAA.a(SEGGER_RTT.c.obj)
 .text.SEGGER_RTT_WriteSkipNoLock
                0x00000000       0xb4 external/rtt/librtt_nrf52840_xxAA.a(SEGGER_RTT.c.obj)
 .text.SEGGER_RTT_WriteString
                0x00000000       0x1a external/rtt/librtt_nrf52840_xxAA.a(SEGGER_RTT.c.obj)
 .text.SEGGER_RTT_WaitKey
                0x00000000        0xc external/rtt/librtt_nrf52840_xxAA.a(SEGGER_RTT.c.obj)
 .text.SEGGER_RTT_HasKey
                0x00000000       0x1c external/rtt/librtt_nrf52840_xxAA.a(SEGGER_RTT.c.obj)
 .text.SEGGER_RTT_HasData
                0x00000000       0x14 external/rtt/librtt_nrf52840_xxAA.a(SEGGER_RTT.c.obj)
 .text.SEGGER_RTT_AllocDownBuffer
                0x00000000       0x68 external/rtt/librtt_nrf52840_xxAA.a(SEGGER_RTT.c.obj)
 .text.SEGGER_RTT_AllocUpBuffer
                0x00000000       0x70 external/rtt/librtt_nrf52840_xxAA.a(SEGGER_RTT.c.obj)
 .text.SEGGER_RTT_ConfigUpBuffer
                0x00000000       0x68 external/rtt/librtt_nrf52840_xxAA.a(SEGGER_RTT.c.obj)
 .text.SEGGER_RTT_ConfigDownBuffer
                0x00000000       0x60 external/rtt/librtt_nrf52840_xxAA.a(SEGGER_RTT.c.obj)
 .text.SEGGER_RTT_SetNameUpBuffer
                0x00000000       0x3c external/rtt/librtt_nrf52840_xxAA.a(SEGGER_RTT.c.obj)
 .text.SEGGER_RTT_SetNameDownBuffer
                0x00000000       0x3c external/rtt/librtt_nrf52840_xxAA.a(SEGGER_RTT.c.obj)
 .text.SEGGER_RTT_Init
                0x00000000       0x10 external/rtt/librtt_nrf52840_xxAA.a(SEGGER_RTT.c.obj)
 .text.SEGGER_RTT_SetTerminal
                0x00000000       0x84 external/rtt/librtt_nrf52840_xxAA.a(SEGGER_RTT.c.obj)
 .text.SEGGER_RTT_TerminalOut
                0x00000000       0xa0 external/rtt/librtt_nrf52840_xxAA.a(SEGGER_RTT.c.obj)
 .bss._ActiveTerminal
                0x00000000        0x1 external/rtt/librtt_nrf52840_xxAA.a(SEGGER_RTT.c.obj)
 .rodata._aTerminalId
                0x00000000       0x10 external/rtt/librtt_nrf52840_xxAA.a(SEGGER_RTT.c.obj)
 .text          0x00000000        0x0 external/rtt/librtt_nrf52840_xxAA.a(SEGGER_RTT_printf.c.obj)
 .data          0x00000000        0x0 external/rtt/librtt_nrf52840_xxAA.a(SEGGER_RTT_printf.c.obj)
 .bss           0x00000000        0x0 external/rtt/librtt_nrf52840_xxAA.a(SEGGER_RTT_printf.c.obj)
 .text          0x00000000        0x0 external/micro-ecc/libuECC_nrf52840_xxAA.a(uECC.c.obj)
 .data          0x00000000        0x0 external/micro-ecc/libuECC_nrf52840_xxAA.a(uECC.c.obj)
 .bss           0x00000000        0x0 external/micro-ecc/libuECC_nrf52840_xxAA.a(uECC.c.obj)
 .text.uECC_vli_modMult
                0x00000000      0x148 external/micro-ecc/libuECC_nrf52840_xxAA.a(uECC.c.obj)
 .text.HMAC_init
                0x00000000       0x46 external/micro-ecc/libuECC_nrf52840_xxAA.a(uECC.c.obj)
 .text.HMAC_update
                0x00000000        0x4 external/micro-ecc/libuECC_nrf52840_xxAA.a(uECC.c.obj)
 .text.HMAC_finish
                0x00000000       0x62 external/micro-ecc/libuECC_nrf52840_xxAA.a(uECC.c.obj)
 .text.update_V
                0x00000000       0x24 external/micro-ecc/libuECC_nrf52840_xxAA.a(uECC.c.obj)
 .text.bits2int
                0x00000000       0x88 external/micro-ecc/libuECC_nrf52840_xxAA.a(uECC.c.obj)
 .text.uECC_sign_with_k
                0x00000000      0x17c external/micro-ecc/libuECC_nrf52840_xxAA.a(uECC.c.obj)
 .text.uECC_set_rng
                0x00000000        0xc external/micro-ecc/libuECC_nrf52840_xxAA.a(uECC.c.obj)
 .text.uECC_get_rng
                0x00000000        0xc external/micro-ecc/libuECC_nrf52840_xxAA.a(uECC.c.obj)
 .text.uECC_curve_private_key_size
                0x00000000        0xe external/micro-ecc/libuECC_nrf52840_xxAA.a(uECC.c.obj)
 .text.uECC_curve_public_key_size
                0x00000000        0x8 external/micro-ecc/libuECC_nrf52840_xxAA.a(uECC.c.obj)
 .text.uECC_compute_public_key
                0x00000000       0x7e external/micro-ecc/libuECC_nrf52840_xxAA.a(uECC.c.obj)
 .text.uECC_sign
                0x00000000       0x56 external/micro-ecc/libuECC_nrf52840_xxAA.a(uECC.c.obj)
 .text.uECC_sign_deterministic
                0x00000000      0x192 external/micro-ecc/libuECC_nrf52840_xxAA.a(uECC.c.obj)
 .text.uECC_verify
                0x00000000      0x2f0 external/micro-ecc/libuECC_nrf52840_xxAA.a(uECC.c.obj)
 .text          0x00000000        0x0 c:/a/gcc_arm/6/bin/../lib/gcc/arm-none-eabi/6.3.1/../../../../arm-none-eabi/lib/thumb/v7e-m/fpv4-sp/hard\libc_nano.a(lib_a-exit.o)
 .data          0x00000000        0x0 c:/a/gcc_arm/6/bin/../lib/gcc/arm-none-eabi/6.3.1/../../../../arm-none-eabi/lib/thumb/v7e-m/fpv4-sp/hard\libc_nano.a(lib_a-exit.o)
 .bss           0x00000000        0x0 c:/a/gcc_arm/6/bin/../lib/gcc/arm-none-eabi/6.3.1/../../../../arm-none-eabi/lib/thumb/v7e-m/fpv4-sp/hard\libc_nano.a(lib_a-exit.o)
 .text          0x00000000        0x0 c:/a/gcc_arm/6/bin/../lib/gcc/arm-none-eabi/6.3.1/../../../../arm-none-eabi/lib/thumb/v7e-m/fpv4-sp/hard\libc_nano.a(lib_a-impure.o)
 .data          0x00000000        0x0 c:/a/gcc_arm/6/bin/../lib/gcc/arm-none-eabi/6.3.1/../../../../arm-none-eabi/lib/thumb/v7e-m/fpv4-sp/hard\libc_nano.a(lib_a-impure.o)
 .bss           0x00000000        0x0 c:/a/gcc_arm/6/bin/../lib/gcc/arm-none-eabi/6.3.1/../../../../arm-none-eabi/lib/thumb/v7e-m/fpv4-sp/hard\libc_nano.a(lib_a-impure.o)
 .text          0x00000000        0x0 c:/a/gcc_arm/6/bin/../lib/gcc/arm-none-eabi/6.3.1/../../../../arm-none-eabi/lib/thumb/v7e-m/fpv4-sp/hard\libc_nano.a(lib_a-init.o)
 .data          0x00000000        0x0 c:/a/gcc_arm/6/bin/../lib/gcc/arm-none-eabi/6.3.1/../../../../arm-none-eabi/lib/thumb/v7e-m/fpv4-sp/hard\libc_nano.a(lib_a-init.o)
 .bss           0x00000000        0x0 c:/a/gcc_arm/6/bin/../lib/gcc/arm-none-eabi/6.3.1/../../../../arm-none-eabi/lib/thumb/v7e-m/fpv4-sp/hard\libc_nano.a(lib_a-init.o)
 .text          0x00000000        0x0 c:/a/gcc_arm/6/bin/../lib/gcc/arm-none-eabi/6.3.1/../../../../arm-none-eabi/lib/thumb/v7e-m/fpv4-sp/hard\libc_nano.a(lib_a-malloc.o)
 .data          0x00000000        0x0 c:/a/gcc_arm/6/bin/../lib/gcc/arm-none-eabi/6.3.1/../../../../arm-none-eabi/lib/thumb/v7e-m/fpv4-sp/hard\libc_nano.a(lib_a-malloc.o)
 .bss           0x00000000        0x0 c:/a/gcc_arm/6/bin/../lib/gcc/arm-none-eabi/6.3.1/../../../../arm-none-eabi/lib/thumb/v7e-m/fpv4-sp/hard\libc_nano.a(lib_a-malloc.o)
 .text          0x00000000        0x0 c:/a/gcc_arm/6/bin/../lib/gcc/arm-none-eabi/6.3.1/../../../../arm-none-eabi/lib/thumb/v7e-m/fpv4-sp/hard\libc_nano.a(lib_a-memcmp.o)
 .data          0x00000000        0x0 c:/a/gcc_arm/6/bin/../lib/gcc/arm-none-eabi/6.3.1/../../../../arm-none-eabi/lib/thumb/v7e-m/fpv4-sp/hard\libc_nano.a(lib_a-memcmp.o)
 .bss           0x00000000        0x0 c:/a/gcc_arm/6/bin/../lib/gcc/arm-none-eabi/6.3.1/../../../../arm-none-eabi/lib/thumb/v7e-m/fpv4-sp/hard\libc_nano.a(lib_a-memcmp.o)
 .text          0x00000000        0x0 c:/a/gcc_arm/6/bin/../lib/gcc/arm-none-eabi/6.3.1/../../../../arm-none-eabi/lib/thumb/v7e-m/fpv4-sp/hard\libc_nano.a(lib_a-memcpy-stub.o)
 .data          0x00000000        0x0 c:/a/gcc_arm/6/bin/../lib/gcc/arm-none-eabi/6.3.1/../../../../arm-none-eabi/lib/thumb/v7e-m/fpv4-sp/hard\libc_nano.a(lib_a-memcpy-stub.o)
 .bss           0x00000000        0x0 c:/a/gcc_arm/6/bin/../lib/gcc/arm-none-eabi/6.3.1/../../../../arm-none-eabi/lib/thumb/v7e-m/fpv4-sp/hard\libc_nano.a(lib_a-memcpy-stub.o)
 .text          0x00000000        0x0 c:/a/gcc_arm/6/bin/../lib/gcc/arm-none-eabi/6.3.1/../../../../arm-none-eabi/lib/thumb/v7e-m/fpv4-sp/hard\libc_nano.a(lib_a-memset.o)
 .data          0x00000000        0x0 c:/a/gcc_arm/6/bin/../lib/gcc/arm-none-eabi/6.3.1/../../../../arm-none-eabi/lib/thumb/v7e-m/fpv4-sp/hard\libc_nano.a(lib_a-memset.o)
 .bss           0x00000000        0x0 c:/a/gcc_arm/6/bin/../lib/gcc/arm-none-eabi/6.3.1/../../../../arm-none-eabi/lib/thumb/v7e-m/fpv4-sp/hard\libc_nano.a(lib_a-memset.o)
 .text          0x00000000        0x0 c:/a/gcc_arm/6/bin/../lib/gcc/arm-none-eabi/6.3.1/../../../../arm-none-eabi/lib/thumb/v7e-m/fpv4-sp/hard\libc_nano.a(lib_a-nano-freer.o)
 .data          0x00000000        0x0 c:/a/gcc_arm/6/bin/../lib/gcc/arm-none-eabi/6.3.1/../../../../arm-none-eabi/lib/thumb/v7e-m/fpv4-sp/hard\libc_nano.a(lib_a-nano-freer.o)
 .bss           0x00000000        0x0 c:/a/gcc_arm/6/bin/../lib/gcc/arm-none-eabi/6.3.1/../../../../arm-none-eabi/lib/thumb/v7e-m/fpv4-sp/hard\libc_nano.a(lib_a-nano-freer.o)
 .text          0x00000000        0x0 c:/a/gcc_arm/6/bin/../lib/gcc/arm-none-eabi/6.3.1/../../../../arm-none-eabi/lib/thumb/v7e-m/fpv4-sp/hard\libc_nano.a(lib_a-nano-mallocr.o)
 .data          0x00000000        0x0 c:/a/gcc_arm/6/bin/../lib/gcc/arm-none-eabi/6.3.1/../../../../arm-none-eabi/lib/thumb/v7e-m/fpv4-sp/hard\libc_nano.a(lib_a-nano-mallocr.o)
 .bss           0x00000000        0x0 c:/a/gcc_arm/6/bin/../lib/gcc/arm-none-eabi/6.3.1/../../../../arm-none-eabi/lib/thumb/v7e-m/fpv4-sp/hard\libc_nano.a(lib_a-nano-mallocr.o)
 .text          0x00000000        0x0 c:/a/gcc_arm/6/bin/../lib/gcc/arm-none-eabi/6.3.1/../../../../arm-none-eabi/lib/thumb/v7e-m/fpv4-sp/hard\libc_nano.a(lib_a-sbrkr.o)
 .data          0x00000000        0x0 c:/a/gcc_arm/6/bin/../lib/gcc/arm-none-eabi/6.3.1/../../../../arm-none-eabi/lib/thumb/v7e-m/fpv4-sp/hard\libc_nano.a(lib_a-sbrkr.o)
 .bss           0x00000000        0x0 c:/a/gcc_arm/6/bin/../lib/gcc/arm-none-eabi/6.3.1/../../../../arm-none-eabi/lib/thumb/v7e-m/fpv4-sp/hard\libc_nano.a(lib_a-sbrkr.o)
 .text          0x00000000        0x0 c:/a/gcc_arm/6/bin/../lib/gcc/arm-none-eabi/6.3.1/../../../../arm-none-eabi/lib/thumb/v7e-m/fpv4-sp/hard\libc_nano.a(lib_a-strcpy.o)
 .data          0x00000000        0x0 c:/a/gcc_arm/6/bin/../lib/gcc/arm-none-eabi/6.3.1/../../../../arm-none-eabi/lib/thumb/v7e-m/fpv4-sp/hard\libc_nano.a(lib_a-strcpy.o)
 .bss           0x00000000        0x0 c:/a/gcc_arm/6/bin/../lib/gcc/arm-none-eabi/6.3.1/../../../../arm-none-eabi/lib/thumb/v7e-m/fpv4-sp/hard\libc_nano.a(lib_a-strcpy.o)
 .data          0x00000000        0x0 c:/a/gcc_arm/6/bin/../lib/gcc/arm-none-eabi/6.3.1/../../../../arm-none-eabi/lib/thumb/v7e-m/fpv4-sp/hard\libc_nano.a(lib_a-strlen.o)
 .bss           0x00000000        0x0 c:/a/gcc_arm/6/bin/../lib/gcc/arm-none-eabi/6.3.1/../../../../arm-none-eabi/lib/thumb/v7e-m/fpv4-sp/hard\libc_nano.a(lib_a-strlen.o)
 .text          0x00000000        0x0 c:/a/gcc_arm/6/bin/../lib/gcc/arm-none-eabi/6.3.1/../../../../arm-none-eabi/lib/thumb/v7e-m/fpv4-sp/hard\libc_nano.a(lib_a-strrchr.o)
 .data          0x00000000        0x0 c:/a/gcc_arm/6/bin/../lib/gcc/arm-none-eabi/6.3.1/../../../../arm-none-eabi/lib/thumb/v7e-m/fpv4-sp/hard\libc_nano.a(lib_a-strrchr.o)
 .bss           0x00000000        0x0 c:/a/gcc_arm/6/bin/../lib/gcc/arm-none-eabi/6.3.1/../../../../arm-none-eabi/lib/thumb/v7e-m/fpv4-sp/hard\libc_nano.a(lib_a-strrchr.o)
 .text          0x00000000        0x0 c:/a/gcc_arm/6/bin/../lib/gcc/arm-none-eabi/6.3.1/../../../../arm-none-eabi/lib/thumb/v7e-m/fpv4-sp/hard\libc_nano.a(lib_a-mlock.o)
 .data          0x00000000        0x0 c:/a/gcc_arm/6/bin/../lib/gcc/arm-none-eabi/6.3.1/../../../../arm-none-eabi/lib/thumb/v7e-m/fpv4-sp/hard\libc_nano.a(lib_a-mlock.o)
 .bss           0x00000000        0x0 c:/a/gcc_arm/6/bin/../lib/gcc/arm-none-eabi/6.3.1/../../../../arm-none-eabi/lib/thumb/v7e-m/fpv4-sp/hard\libc_nano.a(lib_a-mlock.o)
 .text          0x00000000        0x0 c:/a/gcc_arm/6/bin/../lib/gcc/arm-none-eabi/6.3.1/../../../../arm-none-eabi/lib/thumb/v7e-m/fpv4-sp/hard\libc_nano.a(lib_a-reent.o)
 .data          0x00000000        0x0 c:/a/gcc_arm/6/bin/../lib/gcc/arm-none-eabi/6.3.1/../../../../arm-none-eabi/lib/thumb/v7e-m/fpv4-sp/hard\libc_nano.a(lib_a-reent.o)
 .bss           0x00000000        0x0 c:/a/gcc_arm/6/bin/../lib/gcc/arm-none-eabi/6.3.1/../../../../arm-none-eabi/lib/thumb/v7e-m/fpv4-sp/hard\libc_nano.a(lib_a-reent.o)
 .text.cleanup_glue
                0x00000000       0x1a c:/a/gcc_arm/6/bin/../lib/gcc/arm-none-eabi/6.3.1/../../../../arm-none-eabi/lib/thumb/v7e-m/fpv4-sp/hard\libc_nano.a(lib_a-reent.o)
 .text._reclaim_reent
                0x00000000       0xb8 c:/a/gcc_arm/6/bin/../lib/gcc/arm-none-eabi/6.3.1/../../../../arm-none-eabi/lib/thumb/v7e-m/fpv4-sp/hard\libc_nano.a(lib_a-reent.o)
 .text          0x00000000        0x0 c:/a/gcc_arm/6/bin/../lib/gcc/arm-none-eabi/6.3.1/../../../../arm-none-eabi/lib/thumb/v7e-m/fpv4-sp/hard\libc_nano.a(lib_a-strchr.o)
 .data          0x00000000        0x0 c:/a/gcc_arm/6/bin/../lib/gcc/arm-none-eabi/6.3.1/../../../../arm-none-eabi/lib/thumb/v7e-m/fpv4-sp/hard\libc_nano.a(lib_a-strchr.o)
 .bss           0x00000000        0x0 c:/a/gcc_arm/6/bin/../lib/gcc/arm-none-eabi/6.3.1/../../../../arm-none-eabi/lib/thumb/v7e-m/fpv4-sp/hard\libc_nano.a(lib_a-strchr.o)
 .text          0x00000000        0x0 c:/a/gcc_arm/6/bin/../lib/gcc/arm-none-eabi/6.3.1/thumb/v7e-m/fpv4-sp/hard/crtend.o
 .data          0x00000000        0x0 c:/a/gcc_arm/6/bin/../lib/gcc/arm-none-eabi/6.3.1/thumb/v7e-m/fpv4-sp/hard/crtend.o
 .bss           0x00000000        0x0 c:/a/gcc_arm/6/bin/../lib/gcc/arm-none-eabi/6.3.1/thumb/v7e-m/fpv4-sp/hard/crtend.o
 .text          0x00000000        0x0 c:/a/gcc_arm/6/bin/../lib/gcc/arm-none-eabi/6.3.1/thumb/v7e-m/fpv4-sp/hard/crtn.o
 .data          0x00000000        0x0 c:/a/gcc_arm/6/bin/../lib/gcc/arm-none-eabi/6.3.1/thumb/v7e-m/fpv4-sp/hard/crtn.o
 .bss           0x00000000        0x0 c:/a/gcc_arm/6/bin/../lib/gcc/arm-none-eabi/6.3.1/thumb/v7e-m/fpv4-sp/hard/crtn.o
 .text          0x00000000        0x0 c:/a/gcc_arm/6/bin/../lib/gcc/arm-none-eabi/6.3.1/../../../../arm-none-eabi/lib/thumb/v7e-m/fpv4-sp/hard\libnosys.a(sbrk.o)
 .data          0x00000000        0x0 c:/a/gcc_arm/6/bin/../lib/gcc/arm-none-eabi/6.3.1/../../../../arm-none-eabi/lib/thumb/v7e-m/fpv4-sp/hard\libnosys.a(sbrk.o)
 .bss           0x00000000        0x0 c:/a/gcc_arm/6/bin/../lib/gcc/arm-none-eabi/6.3.1/../../../../arm-none-eabi/lib/thumb/v7e-m/fpv4-sp/hard\libnosys.a(sbrk.o)
 .text          0x00000000        0x0 c:/a/gcc_arm/6/bin/../lib/gcc/arm-none-eabi/6.3.1/../../../../arm-none-eabi/lib/thumb/v7e-m/fpv4-sp/hard\libnosys.a(_exit.o)
 .data          0x00000000        0x0 c:/a/gcc_arm/6/bin/../lib/gcc/arm-none-eabi/6.3.1/../../../../arm-none-eabi/lib/thumb/v7e-m/fpv4-sp/hard\libnosys.a(_exit.o)
 .bss           0x00000000        0x0 c:/a/gcc_arm/6/bin/../lib/gcc/arm-none-eabi/6.3.1/../../../../arm-none-eabi/lib/thumb/v7e-m/fpv4-sp/hard\libnosys.a(_exit.o)

Memory Configuration

Name             Origin             Length             Attributes
FLASH            0x00024000         0x000dc000         xr
RAM              0x200031b8         0x0003be4a         xrw
*default*        0x00000000         0xffffffff

Linker script and memory map

LOAD c:/a/gcc_arm/6/bin/../lib/gcc/arm-none-eabi/6.3.1/thumb/v7e-m/fpv4-sp/hard/crti.o
LOAD c:/a/gcc_arm/6/bin/../lib/gcc/arm-none-eabi/6.3.1/thumb/v7e-m/fpv4-sp/hard/crtbegin.o
LOAD c:/a/gcc_arm/6/bin/../lib/gcc/arm-none-eabi/6.3.1/../../../../arm-none-eabi/lib/thumb/v7e-m/fpv4-sp/hard/crt0.o
LOAD examples/light_switch/client/CMakeFiles/light_switch_client_nrf52840_xxAA_s140_5.0.0-3.alpha.dir/src/main.c.obj
LOAD examples/light_switch/client/CMakeFiles/light_switch_client_nrf52840_xxAA_s140_5.0.0-3.alpha.dir/src/provisioner.c.obj
LOAD examples/light_switch/client/CMakeFiles/light_switch_client_nrf52840_xxAA_s140_5.0.0-3.alpha.dir/__/__/nrf_mesh_sdk.c.obj
LOAD examples/light_switch/client/CMakeFiles/light_switch_client_nrf52840_xxAA_s140_5.0.0-3.alpha.dir/__/__/hal/src/simple_hal.c.obj
LOAD examples/light_switch/client/CMakeFiles/light_switch_client_nrf52840_xxAA_s140_5.0.0-3.alpha.dir/__/__/nrf_mesh_weak.c.obj
LOAD examples/light_switch/client/CMakeFiles/light_switch_client_nrf52840_xxAA_s140_5.0.0-3.alpha.dir/__/__/__/models/simple_on_off/src/simple_on_off_client.c.obj
LOAD examples/light_switch/client/CMakeFiles/light_switch_client_nrf52840_xxAA_s140_5.0.0-3.alpha.dir/__/__/__/models/config/src/config_client.c.obj
LOAD examples/light_switch/client/CMakeFiles/light_switch_client_nrf52840_xxAA_s140_5.0.0-3.alpha.dir/__/__/__/models/health/src/health_client.c.obj
LOAD examples/light_switch/client/CMakeFiles/light_switch_client_nrf52840_xxAA_s140_5.0.0-3.alpha.dir/__/__/__/mesh/access/src/access_publish.c.obj
LOAD examples/light_switch/client/CMakeFiles/light_switch_client_nrf52840_xxAA_s140_5.0.0-3.alpha.dir/__/__/__/mesh/access/src/access.c.obj
LOAD examples/light_switch/client/CMakeFiles/light_switch_client_nrf52840_xxAA_s140_5.0.0-3.alpha.dir/__/__/__/mesh/access/src/access_reliable.c.obj
LOAD examples/light_switch/client/CMakeFiles/light_switch_client_nrf52840_xxAA_s140_5.0.0-3.alpha.dir/__/__/__/mesh/access/src/device_state_manager.c.obj
LOAD examples/light_switch/client/CMakeFiles/light_switch_client_nrf52840_xxAA_s140_5.0.0-3.alpha.dir/__/__/__/mesh/prov/src/prov_provisioner.c.obj
LOAD examples/light_switch/client/CMakeFiles/light_switch_client_nrf52840_xxAA_s140_5.0.0-3.alpha.dir/__/__/__/mesh/prov/src/nrf_mesh_prov.c.obj
LOAD examples/light_switch/client/CMakeFiles/light_switch_client_nrf52840_xxAA_s140_5.0.0-3.alpha.dir/__/__/__/mesh/prov/src/provisioning.c.obj
LOAD examples/light_switch/client/CMakeFiles/light_switch_client_nrf52840_xxAA_s140_5.0.0-3.alpha.dir/__/__/__/mesh/prov/src/prov_beacon.c.obj
LOAD examples/light_switch/client/CMakeFiles/light_switch_client_nrf52840_xxAA_s140_5.0.0-3.alpha.dir/__/__/__/mesh/prov/src/prov_utils.c.obj
LOAD examples/light_switch/client/CMakeFiles/light_switch_client_nrf52840_xxAA_s140_5.0.0-3.alpha.dir/__/__/__/mesh/prov/src/prov_bearer_adv.c.obj
LOAD examples/light_switch/client/CMakeFiles/light_switch_client_nrf52840_xxAA_s140_5.0.0-3.alpha.dir/__/__/__/external/nRF5_SDK_14.0.0_3bcc1f7/components/toolchain/system_nrf52840.c.obj
LOAD examples/light_switch/client/CMakeFiles/light_switch_client_nrf52840_xxAA_s140_5.0.0-3.alpha.dir/__/__/__/external/nRF5_SDK_14.0.0_3bcc1f7/components/toolchain/gcc/gcc_startup_nrf52840.S.obj
LOAD mesh/core/libmesh_core_nrf52840_xxAA.a
LOAD external/rtt/librtt_nrf52840_xxAA.a
LOAD external/micro-ecc/libuECC_nrf52840_xxAA.a
START GROUP
LOAD c:/a/gcc_arm/6/bin/../lib/gcc/arm-none-eabi/6.3.1/thumb/v7e-m/fpv4-sp/hard\libgcc.a
LOAD c:/a/gcc_arm/6/bin/../lib/gcc/arm-none-eabi/6.3.1/../../../../arm-none-eabi/lib/thumb/v7e-m/fpv4-sp/hard\libc_nano.a
END GROUP
START GROUP
LOAD c:/a/gcc_arm/6/bin/../lib/gcc/arm-none-eabi/6.3.1/thumb/v7e-m/fpv4-sp/hard\libgcc.a
LOAD c:/a/gcc_arm/6/bin/../lib/gcc/arm-none-eabi/6.3.1/../../../../arm-none-eabi/lib/thumb/v7e-m/fpv4-sp/hard\libc_nano.a
END GROUP
LOAD c:/a/gcc_arm/6/bin/../lib/gcc/arm-none-eabi/6.3.1/thumb/v7e-m/fpv4-sp/hard/crtend.o
LOAD c:/a/gcc_arm/6/bin/../lib/gcc/arm-none-eabi/6.3.1/thumb/v7e-m/fpv4-sp/hard/crtn.o
START GROUP
LOAD c:/a/gcc_arm/6/bin/../lib/gcc/arm-none-eabi/6.3.1/thumb/v7e-m/fpv4-sp/hard\libgcc.a
LOAD c:/a/gcc_arm/6/bin/../lib/gcc/arm-none-eabi/6.3.1/../../../../arm-none-eabi/lib/thumb/v7e-m/fpv4-sp/hard\libc.a
LOAD c:/a/gcc_arm/6/bin/../lib/gcc/arm-none-eabi/6.3.1/../../../../arm-none-eabi/lib/thumb/v7e-m/fpv4-sp/hard\libnosys.a
END GROUP

.text           0x00024000    0x10f64
 *(.isr_vector)
 .isr_vector    0x00024000      0x200 examples/light_switch/client/CMakeFiles/light_switch_client_nrf52840_xxAA_s140_5.0.0-3.alpha.dir/__/__/__/external/nRF5_SDK_14.0.0_3bcc1f7/components/toolchain/gcc/gcc_startup_nrf52840.S.obj
                0x00024000                __isr_vector
 *(.text*)
 .text          0x00024200       0x6c c:/a/gcc_arm/6/bin/../lib/gcc/arm-none-eabi/6.3.1/thumb/v7e-m/fpv4-sp/hard/crtbegin.o
 .text          0x0002426c       0x74 c:/a/gcc_arm/6/bin/../lib/gcc/arm-none-eabi/6.3.1/../../../../arm-none-eabi/lib/thumb/v7e-m/fpv4-sp/hard/crt0.o
                0x0002426c                _start
                0x0002426c                _mainCRTStartup
 .text.client_status_cb
                0x000242e0       0x8c examples/light_switch/client/CMakeFiles/light_switch_client_nrf52840_xxAA_s140_5.0.0-3.alpha.dir/src/main.c.obj
 .text.button_event_handler
                0x0002436c      0x1dc examples/light_switch/client/CMakeFiles/light_switch_client_nrf52840_xxAA_s140_5.0.0-3.alpha.dir/src/main.c.obj
 .text.health_event_cb
                0x00024548       0x7c examples/light_switch/client/CMakeFiles/light_switch_client_nrf52840_xxAA_s140_5.0.0-3.alpha.dir/src/main.c.obj
 .text.provisioner_config_successful_cb
                0x000245c4      0x130 examples/light_switch/client/CMakeFiles/light_switch_client_nrf52840_xxAA_s140_5.0.0-3.alpha.dir/src/main.c.obj
                0x000245c4                provisioner_config_successful_cb
 .text.provisioner_config_failed_cb
                0x000246f4       0xc0 examples/light_switch/client/CMakeFiles/light_switch_client_nrf52840_xxAA_s140_5.0.0-3.alpha.dir/src/main.c.obj
                0x000246f4                provisioner_config_failed_cb
 .text.provisioner_prov_complete_cb
                0x000247b4      0x128 examples/light_switch/client/CMakeFiles/light_switch_client_nrf52840_xxAA_s140_5.0.0-3.alpha.dir/src/main.c.obj
                0x000247b4                provisioner_prov_complete_cb
 .text.startup.main
                0x000248dc      0x420 examples/light_switch/client/CMakeFiles/light_switch_client_nrf52840_xxAA_s140_5.0.0-3.alpha.dir/src/main.c.obj
                0x000248dc                main
 .text.do_config_step
                0x00024cfc      0x3e8 examples/light_switch/client/CMakeFiles/light_switch_client_nrf52840_xxAA_s140_5.0.0-3.alpha.dir/src/provisioner.c.obj
 .text.mesh_evt_handler
                0x000250e4      0x364 examples/light_switch/client/CMakeFiles/light_switch_client_nrf52840_xxAA_s140_5.0.0-3.alpha.dir/src/provisioner.c.obj
 .text.provisioner_configure
                0x00025448       0x20 examples/light_switch/client/CMakeFiles/light_switch_client_nrf52840_xxAA_s140_5.0.0-3.alpha.dir/src/provisioner.c.obj
                0x00025448                provisioner_configure
 .text.provisioner_wait_for_unprov
                0x00025468       0x14 examples/light_switch/client/CMakeFiles/light_switch_client_nrf52840_xxAA_s140_5.0.0-3.alpha.dir/src/provisioner.c.obj
                0x00025468                provisioner_wait_for_unprov
 .text.config_client_event_cb
                0x0002547c      0x1f0 examples/light_switch/client/CMakeFiles/light_switch_client_nrf52840_xxAA_s140_5.0.0-3.alpha.dir/src/provisioner.c.obj
                0x0002547c                config_client_event_cb
 .text.provisioner_init
                0x0002566c       0x48 examples/light_switch/client/CMakeFiles/light_switch_client_nrf52840_xxAA_s140_5.0.0-3.alpha.dir/src/provisioner.c.obj
                0x0002566c                provisioner_init
 .text.sd_evt_get
                0x000256b4        0x4 examples/light_switch/client/CMakeFiles/light_switch_client_nrf52840_xxAA_s140_5.0.0-3.alpha.dir/__/__/nrf_mesh_sdk.c.obj
 .text.sd_softdevice_enable
                0x000256b8        0x4 examples/light_switch/client/CMakeFiles/light_switch_client_nrf52840_xxAA_s140_5.0.0-3.alpha.dir/__/__/nrf_mesh_sdk.c.obj
 .text.sd_ble_enable
                0x000256bc        0x4 examples/light_switch/client/CMakeFiles/light_switch_client_nrf52840_xxAA_s140_5.0.0-3.alpha.dir/__/__/nrf_mesh_sdk.c.obj
 .text.sd_ble_evt_get
                0x000256c0        0x4 examples/light_switch/client/CMakeFiles/light_switch_client_nrf52840_xxAA_s140_5.0.0-3.alpha.dir/__/__/nrf_mesh_sdk.c.obj
 .text.sleep_forever
                0x000256c4       0x1c examples/light_switch/client/CMakeFiles/light_switch_client_nrf52840_xxAA_s140_5.0.0-3.alpha.dir/__/__/nrf_mesh_sdk.c.obj
 .text.mesh_assert_handler
                0x000256e0       0x64 examples/light_switch/client/CMakeFiles/light_switch_client_nrf52840_xxAA_s140_5.0.0-3.alpha.dir/__/__/nrf_mesh_sdk.c.obj
                0x000256e0                mesh_assert_handler
 .text.softdevice_assert_handler
                0x00025744       0x74 examples/light_switch/client/CMakeFiles/light_switch_client_nrf52840_xxAA_s140_5.0.0-3.alpha.dir/__/__/nrf_mesh_sdk.c.obj
                0x00025744                softdevice_assert_handler
 .text.app_error_handler
                0x000257b8       0x74 examples/light_switch/client/CMakeFiles/light_switch_client_nrf52840_xxAA_s140_5.0.0-3.alpha.dir/__/__/nrf_mesh_sdk.c.obj
                0x000257b8                app_error_handler
 .text.HardFault_Handler
                0x0002582c       0x60 examples/light_switch/client/CMakeFiles/light_switch_client_nrf52840_xxAA_s140_5.0.0-3.alpha.dir/__/__/nrf_mesh_sdk.c.obj
                0x0002582c                HardFault_Handler
 .text.SWI2_EGU2_IRQHandler
                0x0002588c       0x3c examples/light_switch/client/CMakeFiles/light_switch_client_nrf52840_xxAA_s140_5.0.0-3.alpha.dir/__/__/nrf_mesh_sdk.c.obj
                0x0002588c                SWI2_EGU2_IRQHandler
 .text.mesh_softdevice_enable
                0x000258c8      0x124 examples/light_switch/client/CMakeFiles/light_switch_client_nrf52840_xxAA_s140_5.0.0-3.alpha.dir/__/__/nrf_mesh_sdk.c.obj
                0x000258c8                mesh_softdevice_enable
 .text.mesh_softdevice_setup
                0x000259ec       0x74 examples/light_switch/client/CMakeFiles/light_switch_client_nrf52840_xxAA_s140_5.0.0-3.alpha.dir/__/__/nrf_mesh_sdk.c.obj
                0x000259ec                mesh_softdevice_setup
 .text.mesh_core_setup
                0x00025a60      0x150 examples/light_switch/client/CMakeFiles/light_switch_client_nrf52840_xxAA_s140_5.0.0-3.alpha.dir/__/__/nrf_mesh_sdk.c.obj
                0x00025a60                mesh_core_setup
 .text.hal_led_pin_get
                0x00025bb0       0x18 examples/light_switch/client/CMakeFiles/light_switch_client_nrf52840_xxAA_s140_5.0.0-3.alpha.dir/__/__/hal/src/simple_hal.c.obj
                0x00025bb0                hal_led_pin_get
 .text.hal_led_pin_set
                0x00025bc8       0x16 examples/light_switch/client/CMakeFiles/light_switch_client_nrf52840_xxAA_s140_5.0.0-3.alpha.dir/__/__/hal/src/simple_hal.c.obj
                0x00025bc8                hal_led_pin_set
 *fill*         0x00025bde        0x2 
 .text.hal_led_blink_ms
                0x00025be0       0xb4 examples/light_switch/client/CMakeFiles/light_switch_client_nrf52840_xxAA_s140_5.0.0-3.alpha.dir/__/__/hal/src/simple_hal.c.obj
                0x00025be0                hal_led_blink_ms
 .text.hal_leds_init
                0x00025c94       0x38 examples/light_switch/client/CMakeFiles/light_switch_client_nrf52840_xxAA_s140_5.0.0-3.alpha.dir/__/__/hal/src/simple_hal.c.obj
                0x00025c94                hal_leds_init
 .text.hal_buttons_init
                0x00025ccc       0x50 examples/light_switch/client/CMakeFiles/light_switch_client_nrf52840_xxAA_s140_5.0.0-3.alpha.dir/__/__/hal/src/simple_hal.c.obj
                0x00025ccc                hal_buttons_init
 .text.GPIOTE_IRQHandler
                0x00025d1c       0x60 examples/light_switch/client/CMakeFiles/light_switch_client_nrf52840_xxAA_s140_5.0.0-3.alpha.dir/__/__/hal/src/simple_hal.c.obj
                0x00025d1c                GPIOTE_IRQHandler
 .text._weak_handler
                0x00025d7c        0x4 examples/light_switch/client/CMakeFiles/light_switch_client_nrf52840_xxAA_s140_5.0.0-3.alpha.dir/__/__/nrf_mesh_weak.c.obj
                0x00025d7c                nrf_mesh_dfu_init
                0x00025d7c                nrf_mesh_dfu_jump_to_bootloader
                0x00025d7c                nrf_mesh_dfu_rx
                0x00025d7c                nrf_mesh_dfu_bank_info_get
                0x00025d7c                nrf_mesh_dfu_request
                0x00025d7c                nrf_mesh_dfu_bank_flash
                0x00025d7c                _weak_handler
                0x00025d7c                prov_provisionee_auth_data
                0x00025d7c                nrf_mesh_dfu_relay
                0x00025d7c                prov_provisionee_shared_secret
                0x00025d7c                nrf_mesh_dfu_abort
                0x00025d7c                mesh_flash_op_execute
                0x00025d7c                prov_provisionee_init
                0x00025d7c                nrf_mesh_dfu_state_get
 .text.reliable_status_cb
                0x00025d80       0x48 examples/light_switch/client/CMakeFiles/light_switch_client_nrf52840_xxAA_s140_5.0.0-3.alpha.dir/__/__/__/models/simple_on_off/src/simple_on_off_client.c.obj
 .text.handle_status_cb
                0x00025dc8       0x5c examples/light_switch/client/CMakeFiles/light_switch_client_nrf52840_xxAA_s140_5.0.0-3.alpha.dir/__/__/__/models/simple_on_off/src/simple_on_off_client.c.obj
 .text.simple_on_off_client_init
                0x00025e24       0x3c examples/light_switch/client/CMakeFiles/light_switch_client_nrf52840_xxAA_s140_5.0.0-3.alpha.dir/__/__/__/models/simple_on_off/src/simple_on_off_client.c.obj
                0x00025e24                simple_on_off_client_init
 .text.simple_on_off_client_set
                0x00025e60       0x70 examples/light_switch/client/CMakeFiles/light_switch_client_nrf52840_xxAA_s140_5.0.0-3.alpha.dir/__/__/__/models/simple_on_off/src/simple_on_off_client.c.obj
                0x00025e60                simple_on_off_client_set
 .text.simple_on_off_client_set_unreliable
                0x00025ed0       0x4c examples/light_switch/client/CMakeFiles/light_switch_client_nrf52840_xxAA_s140_5.0.0-3.alpha.dir/__/__/__/models/simple_on_off/src/simple_on_off_client.c.obj
                0x00025ed0                simple_on_off_client_set_unreliable
 .text.reliable_status_cb
                0x00025f1c       0x30 examples/light_switch/client/CMakeFiles/light_switch_client_nrf52840_xxAA_s140_5.0.0-3.alpha.dir/__/__/__/models/config/src/config_client.c.obj
 .text.send_reliable
                0x00025f4c       0x64 examples/light_switch/client/CMakeFiles/light_switch_client_nrf52840_xxAA_s140_5.0.0-3.alpha.dir/__/__/__/models/config/src/config_client.c.obj
 .text.subscription_add_del_owr_send.isra.1
                0x00025fb0       0x6c examples/light_switch/client/CMakeFiles/light_switch_client_nrf52840_xxAA_s140_5.0.0-3.alpha.dir/__/__/__/models/config/src/config_client.c.obj
 .text.subscription_virtual_add_del_owr_send.isra.2
                0x0002601c       0x70 examples/light_switch/client/CMakeFiles/light_switch_client_nrf52840_xxAA_s140_5.0.0-3.alpha.dir/__/__/__/models/config/src/config_client.c.obj
 .text.client_in_wrong_state.constprop.3
                0x0002608c       0x20 examples/light_switch/client/CMakeFiles/light_switch_client_nrf52840_xxAA_s140_5.0.0-3.alpha.dir/__/__/__/models/config/src/config_client.c.obj
 .text.app_bind_unbind_send
                0x000260ac       0x80 examples/light_switch/client/CMakeFiles/light_switch_client_nrf52840_xxAA_s140_5.0.0-3.alpha.dir/__/__/__/models/config/src/config_client.c.obj
 .text.config_opcode_handler
                0x0002612c       0x68 examples/light_switch/client/CMakeFiles/light_switch_client_nrf52840_xxAA_s140_5.0.0-3.alpha.dir/__/__/__/models/config/src/config_client.c.obj
 .text.config_client_init
                0x00026194       0x60 examples/light_switch/client/CMakeFiles/light_switch_client_nrf52840_xxAA_s140_5.0.0-3.alpha.dir/__/__/__/models/config/src/config_client.c.obj
                0x00026194                config_client_init
 .text.config_client_server_set
                0x000261f4       0x94 examples/light_switch/client/CMakeFiles/light_switch_client_nrf52840_xxAA_s140_5.0.0-3.alpha.dir/__/__/__/models/config/src/config_client.c.obj
                0x000261f4                config_client_server_set
 .text.config_client_server_bind
                0x00026288       0x30 examples/light_switch/client/CMakeFiles/light_switch_client_nrf52840_xxAA_s140_5.0.0-3.alpha.dir/__/__/__/models/config/src/config_client.c.obj
                0x00026288                config_client_server_bind
 .text.config_client_composition_data_get
                0x000262b8       0x54 examples/light_switch/client/CMakeFiles/light_switch_client_nrf52840_xxAA_s140_5.0.0-3.alpha.dir/__/__/__/models/config/src/config_client.c.obj
                0x000262b8                config_client_composition_data_get
 .text.config_client_appkey_add
                0x0002630c       0x94 examples/light_switch/client/CMakeFiles/light_switch_client_nrf52840_xxAA_s140_5.0.0-3.alpha.dir/__/__/__/models/config/src/config_client.c.obj
                0x0002630c                config_client_appkey_add
 .text.config_client_model_publication_set
                0x000263a0      0x180 examples/light_switch/client/CMakeFiles/light_switch_client_nrf52840_xxAA_s140_5.0.0-3.alpha.dir/__/__/__/models/config/src/config_client.c.obj
                0x000263a0                config_client_model_publication_set
 .text.config_client_model_subscription_add
                0x00026520       0x4c examples/light_switch/client/CMakeFiles/light_switch_client_nrf52840_xxAA_s140_5.0.0-3.alpha.dir/__/__/__/models/config/src/config_client.c.obj
                0x00026520                config_client_model_subscription_add
 .text.config_client_model_app_bind
                0x0002656c        0xe examples/light_switch/client/CMakeFiles/light_switch_client_nrf52840_xxAA_s140_5.0.0-3.alpha.dir/__/__/__/models/config/src/config_client.c.obj
                0x0002656c                config_client_model_app_bind
 .text.handle_fault_status
                0x0002657a       0x48 examples/light_switch/client/CMakeFiles/light_switch_client_nrf52840_xxAA_s140_5.0.0-3.alpha.dir/__/__/__/models/health/src/health_client.c.obj
 .text.handle_period_status
                0x000265c2       0x28 examples/light_switch/client/CMakeFiles/light_switch_client_nrf52840_xxAA_s140_5.0.0-3.alpha.dir/__/__/__/models/health/src/health_client.c.obj
 .text.handle_attention_status
                0x000265ea       0x28 examples/light_switch/client/CMakeFiles/light_switch_client_nrf52840_xxAA_s140_5.0.0-3.alpha.dir/__/__/__/models/health/src/health_client.c.obj
 *fill*         0x00026612        0x2 
 .text.health_client_init
                0x00026614       0x54 examples/light_switch/client/CMakeFiles/light_switch_client_nrf52840_xxAA_s140_5.0.0-3.alpha.dir/__/__/__/models/health/src/health_client.c.obj
                0x00026614                health_client_init
 .text.add_to_publication_list
                0x00026668       0x84 examples/light_switch/client/CMakeFiles/light_switch_client_nrf52840_xxAA_s140_5.0.0-3.alpha.dir/__/__/__/mesh/access/src/access_publish.c.obj
 .text.step_resolution_to_us
                0x000266ec       0x44 examples/light_switch/client/CMakeFiles/light_switch_client_nrf52840_xxAA_s140_5.0.0-3.alpha.dir/__/__/__/mesh/access/src/access_publish.c.obj
 .text.schedule_publication_timer
                0x00026730      0x184 examples/light_switch/client/CMakeFiles/light_switch_client_nrf52840_xxAA_s140_5.0.0-3.alpha.dir/__/__/__/mesh/access/src/access_publish.c.obj
 .text.publish_timer_tick
                0x000268b4       0xbc examples/light_switch/client/CMakeFiles/light_switch_client_nrf52840_xxAA_s140_5.0.0-3.alpha.dir/__/__/__/mesh/access/src/access_publish.c.obj
 .text.access_publish_init
                0x00026970       0x38 examples/light_switch/client/CMakeFiles/light_switch_client_nrf52840_xxAA_s140_5.0.0-3.alpha.dir/__/__/__/mesh/access/src/access_publish.c.obj
                0x00026970                access_publish_init
 .text.bitfield_get
                0x000269a8       0x1a examples/light_switch/client/CMakeFiles/light_switch_client_nrf52840_xxAA_s140_5.0.0-3.alpha.dir/__/__/__/mesh/access/src/access.c.obj
 .text.is_valid_opcode
                0x000269c2       0x42 examples/light_switch/client/CMakeFiles/light_switch_client_nrf52840_xxAA_s140_5.0.0-3.alpha.dir/__/__/__/mesh/access/src/access.c.obj
 .text.model_handle_valid_and_allocated
                0x00026a04       0x20 examples/light_switch/client/CMakeFiles/light_switch_client_nrf52840_xxAA_s140_5.0.0-3.alpha.dir/__/__/__/mesh/access/src/access.c.obj
 .text.flash_invalidate_complete
                0x00026a24       0x14 examples/light_switch/client/CMakeFiles/light_switch_client_nrf52840_xxAA_s140_5.0.0-3.alpha.dir/__/__/__/mesh/access/src/access.c.obj
 .text.flash_manager_mem_available
                0x00026a38        0x2 examples/light_switch/client/CMakeFiles/light_switch_client_nrf52840_xxAA_s140_5.0.0-3.alpha.dir/__/__/__/mesh/access/src/access.c.obj
 *fill*         0x00026a3a        0x2 
 .text.restore_acquired_subscription
                0x00026a3c       0x30 examples/light_switch/client/CMakeFiles/light_switch_client_nrf52840_xxAA_s140_5.0.0-3.alpha.dir/__/__/__/mesh/access/src/access.c.obj
 .text.restore_acquired_element
                0x00026a6c       0x20 examples/light_switch/client/CMakeFiles/light_switch_client_nrf52840_xxAA_s140_5.0.0-3.alpha.dir/__/__/__/mesh/access/src/access.c.obj
 .text.restore_flash_data
                0x00026a8c       0x5c examples/light_switch/client/CMakeFiles/light_switch_client_nrf52840_xxAA_s140_5.0.0-3.alpha.dir/__/__/__/mesh/access/src/access.c.obj
 .text.access_flash_config_clear
                0x00026ae8       0x28 examples/light_switch/client/CMakeFiles/light_switch_client_nrf52840_xxAA_s140_5.0.0-3.alpha.dir/__/__/__/mesh/access/src/access.c.obj
 .text.access_flash_config_store
                0x00026b10      0x150 examples/light_switch/client/CMakeFiles/light_switch_client_nrf52840_xxAA_s140_5.0.0-3.alpha.dir/__/__/__/mesh/access/src/access.c.obj
                0x00026b10                access_flash_config_store
 .text.access_state_clear
                0x00026c60       0x4c examples/light_switch/client/CMakeFiles/light_switch_client_nrf52840_xxAA_s140_5.0.0-3.alpha.dir/__/__/__/mesh/access/src/access.c.obj
 .text.add_flash_manager
                0x00026cac       0x58 examples/light_switch/client/CMakeFiles/light_switch_client_nrf52840_xxAA_s140_5.0.0-3.alpha.dir/__/__/__/mesh/access/src/access.c.obj
 .text.flash_remove_complete
                0x00026d04       0x64 examples/light_switch/client/CMakeFiles/light_switch_client_nrf52840_xxAA_s140_5.0.0-3.alpha.dir/__/__/__/mesh/access/src/access.c.obj
 .text.flash_write_complete
                0x00026d68       0x54 examples/light_switch/client/CMakeFiles/light_switch_client_nrf52840_xxAA_s140_5.0.0-3.alpha.dir/__/__/__/mesh/access/src/access.c.obj
 .text.unlikely.bitfield_next_get.part.0.constprop.3
                0x00026dbc       0x34 examples/light_switch/client/CMakeFiles/light_switch_client_nrf52840_xxAA_s140_5.0.0-3.alpha.dir/__/__/__/mesh/access/src/access.c.obj
 .text.restore_acquired_model
                0x00026df0       0x94 examples/light_switch/client/CMakeFiles/light_switch_client_nrf52840_xxAA_s140_5.0.0-3.alpha.dir/__/__/__/mesh/access/src/access.c.obj
 .text.handle_incoming
                0x00026e84      0x158 examples/light_switch/client/CMakeFiles/light_switch_client_nrf52840_xxAA_s140_5.0.0-3.alpha.dir/__/__/__/mesh/access/src/access.c.obj
 .text.mesh_evt_cb
                0x00026fdc      0x134 examples/light_switch/client/CMakeFiles/light_switch_client_nrf52840_xxAA_s140_5.0.0-3.alpha.dir/__/__/__/mesh/access/src/access.c.obj
 .text.packet_tx
                0x00027110      0x2c0 examples/light_switch/client/CMakeFiles/light_switch_client_nrf52840_xxAA_s140_5.0.0-3.alpha.dir/__/__/__/mesh/access/src/access.c.obj
 .text.access_flash_config_load
                0x000273d0      0x12c examples/light_switch/client/CMakeFiles/light_switch_client_nrf52840_xxAA_s140_5.0.0-3.alpha.dir/__/__/__/mesh/access/src/access.c.obj
                0x000273d0                access_flash_config_load
 .text.access_init
                0x000274fc       0x28 examples/light_switch/client/CMakeFiles/light_switch_client_nrf52840_xxAA_s140_5.0.0-3.alpha.dir/__/__/__/mesh/access/src/access.c.obj
                0x000274fc                access_init
 .text.access_model_add
                0x00027524      0x1bc examples/light_switch/client/CMakeFiles/light_switch_client_nrf52840_xxAA_s140_5.0.0-3.alpha.dir/__/__/__/mesh/access/src/access.c.obj
                0x00027524                access_model_add
 .text.access_model_publish
                0x000276e0        0xc examples/light_switch/client/CMakeFiles/light_switch_client_nrf52840_xxAA_s140_5.0.0-3.alpha.dir/__/__/__/mesh/access/src/access.c.obj
                0x000276e0                access_model_publish
 .text.access_model_publish_address_set
                0x000276ec       0x3c examples/light_switch/client/CMakeFiles/light_switch_client_nrf52840_xxAA_s140_5.0.0-3.alpha.dir/__/__/__/mesh/access/src/access.c.obj
                0x000276ec                access_model_publish_address_set
 .text.access_model_publish_address_get
                0x00027728       0x28 examples/light_switch/client/CMakeFiles/light_switch_client_nrf52840_xxAA_s140_5.0.0-3.alpha.dir/__/__/__/mesh/access/src/access.c.obj
                0x00027728                access_model_publish_address_get
 .text.access_model_subscription_list_alloc
                0x00027750       0x54 examples/light_switch/client/CMakeFiles/light_switch_client_nrf52840_xxAA_s140_5.0.0-3.alpha.dir/__/__/__/mesh/access/src/access.c.obj
                0x00027750                access_model_subscription_list_alloc
 .text.access_model_application_bind
                0x000277a4       0x50 examples/light_switch/client/CMakeFiles/light_switch_client_nrf52840_xxAA_s140_5.0.0-3.alpha.dir/__/__/__/mesh/access/src/access.c.obj
                0x000277a4                access_model_application_bind
 .text.access_model_publish_application_set
                0x000277f4       0x3c examples/light_switch/client/CMakeFiles/light_switch_client_nrf52840_xxAA_s140_5.0.0-3.alpha.dir/__/__/__/mesh/access/src/access.c.obj
                0x000277f4                access_model_publish_application_set
 .text.access_model_publish_ttl_get
                0x00027830       0x28 examples/light_switch/client/CMakeFiles/light_switch_client_nrf52840_xxAA_s140_5.0.0-3.alpha.dir/__/__/__/mesh/access/src/access.c.obj
                0x00027830                access_model_publish_ttl_get
 .text.access_model_p_args_get
                0x00027858       0x28 examples/light_switch/client/CMakeFiles/light_switch_client_nrf52840_xxAA_s140_5.0.0-3.alpha.dir/__/__/__/mesh/access/src/access.c.obj
                0x00027858                access_model_p_args_get
 .text.remove_and_reschedule
                0x00027880       0xd0 examples/light_switch/client/CMakeFiles/light_switch_client_nrf52840_xxAA_s140_5.0.0-3.alpha.dir/__/__/__/mesh/access/src/access_reliable.c.obj
 .text.reliable_timer_cb
                0x00027950      0x148 examples/light_switch/client/CMakeFiles/light_switch_client_nrf52840_xxAA_s140_5.0.0-3.alpha.dir/__/__/__/mesh/access/src/access_reliable.c.obj
 .text.access_reliable_message_rx_cb
                0x00027a98       0x84 examples/light_switch/client/CMakeFiles/light_switch_client_nrf52840_xxAA_s140_5.0.0-3.alpha.dir/__/__/__/mesh/access/src/access_reliable.c.obj
                0x00027a98                access_reliable_message_rx_cb
 .text.access_reliable_init
                0x00027b1c       0x20 examples/light_switch/client/CMakeFiles/light_switch_client_nrf52840_xxAA_s140_5.0.0-3.alpha.dir/__/__/__/mesh/access/src/access_reliable.c.obj
                0x00027b1c                access_reliable_init
 .text.access_model_reliable_publish
                0x00027b3c      0x1b4 examples/light_switch/client/CMakeFiles/light_switch_client_nrf52840_xxAA_s140_5.0.0-3.alpha.dir/__/__/__/mesh/access/src/access_reliable.c.obj
                0x00027b3c                access_model_reliable_publish
 .text.bitfield_get
                0x00027cf0       0x1a examples/light_switch/client/CMakeFiles/light_switch_client_nrf52840_xxAA_s140_5.0.0-3.alpha.dir/__/__/__/mesh/access/src/device_state_manager.c.obj
 .text.bitfield_set
                0x00027d0a       0x18 examples/light_switch/client/CMakeFiles/light_switch_client_nrf52840_xxAA_s140_5.0.0-3.alpha.dir/__/__/__/mesh/access/src/device_state_manager.c.obj
 .text.bitfield_clear
                0x00027d22       0x1a examples/light_switch/client/CMakeFiles/light_switch_client_nrf52840_xxAA_s140_5.0.0-3.alpha.dir/__/__/__/mesh/access/src/device_state_manager.c.obj
 .text.bitfield_is_all_clear
                0x00027d3c       0x3c examples/light_switch/client/CMakeFiles/light_switch_client_nrf52840_xxAA_s140_5.0.0-3.alpha.dir/__/__/__/mesh/access/src/device_state_manager.c.obj
 .text.address_handle_virtual_valid
                0x00027d78       0x14 examples/light_switch/client/CMakeFiles/light_switch_client_nrf52840_xxAA_s140_5.0.0-3.alpha.dir/__/__/__/mesh/access/src/device_state_manager.c.obj
 .text.net_key_handle_get
                0x00027d8c       0x38 examples/light_switch/client/CMakeFiles/light_switch_client_nrf52840_xxAA_s140_5.0.0-3.alpha.dir/__/__/__/mesh/access/src/device_state_manager.c.obj
 .text.dev_key_handle_get
                0x00027dc4       0x58 examples/light_switch/client/CMakeFiles/light_switch_client_nrf52840_xxAA_s140_5.0.0-3.alpha.dir/__/__/__/mesh/access/src/device_state_manager.c.obj
 .text.app_key_handle_get
                0x00027e1c       0x38 examples/light_switch/client/CMakeFiles/light_switch_client_nrf52840_xxAA_s140_5.0.0-3.alpha.dir/__/__/__/mesh/access/src/device_state_manager.c.obj
 .text.addr_nonvirtual_to_flash_entry
                0x00027e54       0x10 examples/light_switch/client/CMakeFiles/light_switch_client_nrf52840_xxAA_s140_5.0.0-3.alpha.dir/__/__/__/mesh/access/src/device_state_manager.c.obj
 .text.flash_mem_listener_callback
                0x00027e64       0x20 examples/light_switch/client/CMakeFiles/light_switch_client_nrf52840_xxAA_s140_5.0.0-3.alpha.dir/__/__/__/mesh/access/src/device_state_manager.c.obj
 .text.devkey_set
                0x00027e84       0x4c examples/light_switch/client/CMakeFiles/light_switch_client_nrf52840_xxAA_s140_5.0.0-3.alpha.dir/__/__/__/mesh/access/src/device_state_manager.c.obj
 .text.devkey_to_dsm_entry
                0x00027ed0       0x16 examples/light_switch/client/CMakeFiles/light_switch_client_nrf52840_xxAA_s140_5.0.0-3.alpha.dir/__/__/__/mesh/access/src/device_state_manager.c.obj
 *fill*         0x00027ee6        0x2 
 .text.devkey_to_flash_entry
                0x00027ee8       0x28 examples/light_switch/client/CMakeFiles/light_switch_client_nrf52840_xxAA_s140_5.0.0-3.alpha.dir/__/__/__/mesh/access/src/device_state_manager.c.obj
 .text.appkey_to_flash_entry
                0x00027f10       0x28 examples/light_switch/client/CMakeFiles/light_switch_client_nrf52840_xxAA_s140_5.0.0-3.alpha.dir/__/__/__/mesh/access/src/device_state_manager.c.obj
 .text.subnet_to_flash_entry
                0x00027f38       0x20 examples/light_switch/client/CMakeFiles/light_switch_client_nrf52840_xxAA_s140_5.0.0-3.alpha.dir/__/__/__/mesh/access/src/device_state_manager.c.obj
 .text.addr_virtual_to_flash_entry
                0x00027f58       0x18 examples/light_switch/client/CMakeFiles/light_switch_client_nrf52840_xxAA_s140_5.0.0-3.alpha.dir/__/__/__/mesh/access/src/device_state_manager.c.obj
 .text.addr_unicast_to_dsm_entry
                0x00027f70        0xc examples/light_switch/client/CMakeFiles/light_switch_client_nrf52840_xxAA_s140_5.0.0-3.alpha.dir/__/__/__/mesh/access/src/device_state_manager.c.obj
 .text.addr_unicast_to_flash_entry
                0x00027f7c       0x10 examples/light_switch/client/CMakeFiles/light_switch_client_nrf52840_xxAA_s140_5.0.0-3.alpha.dir/__/__/__/mesh/access/src/device_state_manager.c.obj
 .text.appkey_set
                0x00027f8c       0x6c examples/light_switch/client/CMakeFiles/light_switch_client_nrf52840_xxAA_s140_5.0.0-3.alpha.dir/__/__/__/mesh/access/src/device_state_manager.c.obj
 .text.appkey_to_dsm_entry
                0x00027ff8       0x14 examples/light_switch/client/CMakeFiles/light_switch_client_nrf52840_xxAA_s140_5.0.0-3.alpha.dir/__/__/__/mesh/access/src/device_state_manager.c.obj
 .text.subnet_set
                0x0002800c       0x94 examples/light_switch/client/CMakeFiles/light_switch_client_nrf52840_xxAA_s140_5.0.0-3.alpha.dir/__/__/__/mesh/access/src/device_state_manager.c.obj
 .text.subnet_to_dsm_entry
                0x000280a0        0xc examples/light_switch/client/CMakeFiles/light_switch_client_nrf52840_xxAA_s140_5.0.0-3.alpha.dir/__/__/__/mesh/access/src/device_state_manager.c.obj
 .text.virtual_address_set
                0x000280ac       0x54 examples/light_switch/client/CMakeFiles/light_switch_client_nrf52840_xxAA_s140_5.0.0-3.alpha.dir/__/__/__/mesh/access/src/device_state_manager.c.obj
 .text.addr_virtual_to_dsm_entry
                0x00028100        0xc examples/light_switch/client/CMakeFiles/light_switch_client_nrf52840_xxAA_s140_5.0.0-3.alpha.dir/__/__/__/mesh/access/src/device_state_manager.c.obj
 .text.flash_save
                0x0002810c       0x84 examples/light_switch/client/CMakeFiles/light_switch_client_nrf52840_xxAA_s140_5.0.0-3.alpha.dir/__/__/__/mesh/access/src/device_state_manager.c.obj
 .text.flash_invalidate
                0x00028190       0x68 examples/light_switch/client/CMakeFiles/light_switch_client_nrf52840_xxAA_s140_5.0.0-3.alpha.dir/__/__/__/mesh/access/src/device_state_manager.c.obj
 .text.flash_update_all
                0x000281f8       0x6c examples/light_switch/client/CMakeFiles/light_switch_client_nrf52840_xxAA_s140_5.0.0-3.alpha.dir/__/__/__/mesh/access/src/device_state_manager.c.obj
 .text.reset_flash_area
                0x00028264       0x28 examples/light_switch/client/CMakeFiles/light_switch_client_nrf52840_xxAA_s140_5.0.0-3.alpha.dir/__/__/__/mesh/access/src/device_state_manager.c.obj
 .text.virtual_address_uuid_index_get
                0x0002828c       0x3c examples/light_switch/client/CMakeFiles/light_switch_client_nrf52840_xxAA_s140_5.0.0-3.alpha.dir/__/__/__/mesh/access/src/device_state_manager.c.obj
 .text.get_subnet_handle
                0x000282c8       0x30 examples/light_switch/client/CMakeFiles/light_switch_client_nrf52840_xxAA_s140_5.0.0-3.alpha.dir/__/__/__/mesh/access/src/device_state_manager.c.obj
 .text.get_app_handle
                0x000282f8       0x4c examples/light_switch/client/CMakeFiles/light_switch_client_nrf52840_xxAA_s140_5.0.0-3.alpha.dir/__/__/__/mesh/access/src/device_state_manager.c.obj
 .text.flash_operation_complete
                0x00028344       0x58 examples/light_switch/client/CMakeFiles/light_switch_client_nrf52840_xxAA_s140_5.0.0-3.alpha.dir/__/__/__/mesh/access/src/device_state_manager.c.obj
 .text.flash_invalidate_complete
                0x0002839c        0x8 examples/light_switch/client/CMakeFiles/light_switch_client_nrf52840_xxAA_s140_5.0.0-3.alpha.dir/__/__/__/mesh/access/src/device_state_manager.c.obj
 .text.flash_write_complete
                0x000283a4        0x8 examples/light_switch/client/CMakeFiles/light_switch_client_nrf52840_xxAA_s140_5.0.0-3.alpha.dir/__/__/__/mesh/access/src/device_state_manager.c.obj
 .text.add_address.part.5
                0x000283ac      0x144 examples/light_switch/client/CMakeFiles/light_switch_client_nrf52840_xxAA_s140_5.0.0-3.alpha.dir/__/__/__/mesh/access/src/device_state_manager.c.obj
 .text.address_handle_valid
                0x000284f0       0x28 examples/light_switch/client/CMakeFiles/light_switch_client_nrf52840_xxAA_s140_5.0.0-3.alpha.dir/__/__/__/mesh/access/src/device_state_manager.c.obj
 .text.address_handle_nonvirtual_valid
                0x00028518       0x14 examples/light_switch/client/CMakeFiles/light_switch_client_nrf52840_xxAA_s140_5.0.0-3.alpha.dir/__/__/__/mesh/access/src/device_state_manager.c.obj
 .text.address_delete_if_unused
                0x0002852c       0x78 examples/light_switch/client/CMakeFiles/light_switch_client_nrf52840_xxAA_s140_5.0.0-3.alpha.dir/__/__/__/mesh/access/src/device_state_manager.c.obj
 .text.addr_nonvirtual_to_dsm_entry
                0x000285a4       0x38 examples/light_switch/client/CMakeFiles/light_switch_client_nrf52840_xxAA_s140_5.0.0-3.alpha.dir/__/__/__/mesh/access/src/device_state_manager.c.obj
 .text.dsm_flash_config_load
                0x000285dc      0x114 examples/light_switch/client/CMakeFiles/light_switch_client_nrf52840_xxAA_s140_5.0.0-3.alpha.dir/__/__/__/mesh/access/src/device_state_manager.c.obj
                0x000285dc                dsm_flash_config_load
 .text.dsm_flash_area_get
                0x000286f0        0xc examples/light_switch/client/CMakeFiles/light_switch_client_nrf52840_xxAA_s140_5.0.0-3.alpha.dir/__/__/__/mesh/access/src/device_state_manager.c.obj
                0x000286f0                dsm_flash_area_get
 .text.build_flash_area
                0x000286fc       0x8c examples/light_switch/client/CMakeFiles/light_switch_client_nrf52840_xxAA_s140_5.0.0-3.alpha.dir/__/__/__/mesh/access/src/device_state_manager.c.obj
 .text.dsm_init
                0x00028788       0x24 examples/light_switch/client/CMakeFiles/light_switch_client_nrf52840_xxAA_s140_5.0.0-3.alpha.dir/__/__/__/mesh/access/src/device_state_manager.c.obj
                0x00028788                dsm_init
 .text.flash_remove_complete
                0x000287ac        0x4 examples/light_switch/client/CMakeFiles/light_switch_client_nrf52840_xxAA_s140_5.0.0-3.alpha.dir/__/__/__/mesh/access/src/device_state_manager.c.obj
 .text.dsm_local_unicast_addresses_set
                0x000287b0       0x74 examples/light_switch/client/CMakeFiles/light_switch_client_nrf52840_xxAA_s140_5.0.0-3.alpha.dir/__/__/__/mesh/access/src/device_state_manager.c.obj
                0x000287b0                dsm_local_unicast_addresses_set
 .text.dsm_local_unicast_addresses_get
                0x00028824       0x2c examples/light_switch/client/CMakeFiles/light_switch_client_nrf52840_xxAA_s140_5.0.0-3.alpha.dir/__/__/__/mesh/access/src/device_state_manager.c.obj
                0x00028824                dsm_local_unicast_addresses_get
 .text.dsm_address_publish_add
                0x00028850        0xc examples/light_switch/client/CMakeFiles/light_switch_client_nrf52840_xxAA_s140_5.0.0-3.alpha.dir/__/__/__/mesh/access/src/device_state_manager.c.obj
                0x00028850                dsm_address_publish_add
 .text.dsm_address_publish_add_handle
                0x0002885c       0x38 examples/light_switch/client/CMakeFiles/light_switch_client_nrf52840_xxAA_s140_5.0.0-3.alpha.dir/__/__/__/mesh/access/src/device_state_manager.c.obj
                0x0002885c                dsm_address_publish_add_handle
 .text.dsm_address_publish_remove
                0x00028894       0x40 examples/light_switch/client/CMakeFiles/light_switch_client_nrf52840_xxAA_s140_5.0.0-3.alpha.dir/__/__/__/mesh/access/src/device_state_manager.c.obj
                0x00028894                dsm_address_publish_remove
 .text.dsm_address_subscription_add_handle
                0x000288d4       0x38 examples/light_switch/client/CMakeFiles/light_switch_client_nrf52840_xxAA_s140_5.0.0-3.alpha.dir/__/__/__/mesh/access/src/device_state_manager.c.obj
                0x000288d4                dsm_address_subscription_add_handle
 .text.dsm_address_subscription_get
                0x0002890c       0x34 examples/light_switch/client/CMakeFiles/light_switch_client_nrf52840_xxAA_s140_5.0.0-3.alpha.dir/__/__/__/mesh/access/src/device_state_manager.c.obj
                0x0002890c                dsm_address_subscription_get
 .text.dsm_address_get
                0x00028940       0x5c examples/light_switch/client/CMakeFiles/light_switch_client_nrf52840_xxAA_s140_5.0.0-3.alpha.dir/__/__/__/mesh/access/src/device_state_manager.c.obj
                0x00028940                dsm_address_get
 .text.dsm_address_get_all
                0x0002899c       0x64 examples/light_switch/client/CMakeFiles/light_switch_client_nrf52840_xxAA_s140_5.0.0-3.alpha.dir/__/__/__/mesh/access/src/device_state_manager.c.obj
                0x0002899c                dsm_address_get_all
 .text.dsm_address_handle_get
                0x00028a00       0x98 examples/light_switch/client/CMakeFiles/light_switch_client_nrf52840_xxAA_s140_5.0.0-3.alpha.dir/__/__/__/mesh/access/src/device_state_manager.c.obj
                0x00028a00                dsm_address_handle_get
 .text.dsm_appkey_handle_get
                0x00028a98        0xc examples/light_switch/client/CMakeFiles/light_switch_client_nrf52840_xxAA_s140_5.0.0-3.alpha.dir/__/__/__/mesh/access/src/device_state_manager.c.obj
                0x00028a98                dsm_appkey_handle_get
 .text.dsm_subnet_add
                0x00028aa4       0x58 examples/light_switch/client/CMakeFiles/light_switch_client_nrf52840_xxAA_s140_5.0.0-3.alpha.dir/__/__/__/mesh/access/src/device_state_manager.c.obj
                0x00028aa4                dsm_subnet_add
 .text.dsm_subnet_get_all
                0x00028afc       0x3c examples/light_switch/client/CMakeFiles/light_switch_client_nrf52840_xxAA_s140_5.0.0-3.alpha.dir/__/__/__/mesh/access/src/device_state_manager.c.obj
                0x00028afc                dsm_subnet_get_all
 .text.dsm_devkey_add
                0x00028b38       0x78 examples/light_switch/client/CMakeFiles/light_switch_client_nrf52840_xxAA_s140_5.0.0-3.alpha.dir/__/__/__/mesh/access/src/device_state_manager.c.obj
                0x00028b38                dsm_devkey_add
 .text.dsm_devkey_delete
                0x00028bb0       0x40 examples/light_switch/client/CMakeFiles/light_switch_client_nrf52840_xxAA_s140_5.0.0-3.alpha.dir/__/__/__/mesh/access/src/device_state_manager.c.obj
                0x00028bb0                dsm_devkey_delete
 .text.dsm_devkey_handle_get
                0x00028bf0       0x34 examples/light_switch/client/CMakeFiles/light_switch_client_nrf52840_xxAA_s140_5.0.0-3.alpha.dir/__/__/__/mesh/access/src/device_state_manager.c.obj
                0x00028bf0                dsm_devkey_handle_get
 .text.dsm_appkey_add
                0x00028c24       0x70 examples/light_switch/client/CMakeFiles/light_switch_client_nrf52840_xxAA_s140_5.0.0-3.alpha.dir/__/__/__/mesh/access/src/device_state_manager.c.obj
                0x00028c24                dsm_appkey_add
 .text.dsm_appkey_get_all
                0x00028c94       0x58 examples/light_switch/client/CMakeFiles/light_switch_client_nrf52840_xxAA_s140_5.0.0-3.alpha.dir/__/__/__/mesh/access/src/device_state_manager.c.obj
                0x00028c94                dsm_appkey_get_all
 .text.dsm_tx_secmat_get
                0x00028cec       0xe8 examples/light_switch/client/CMakeFiles/light_switch_client_nrf52840_xxAA_s140_5.0.0-3.alpha.dir/__/__/__/mesh/access/src/device_state_manager.c.obj
                0x00028cec                dsm_tx_secmat_get
 .text.nrf_mesh_net_secmat_next_get
                0x00028dd4       0x50 examples/light_switch/client/CMakeFiles/light_switch_client_nrf52840_xxAA_s140_5.0.0-3.alpha.dir/__/__/__/mesh/access/src/device_state_manager.c.obj
                0x00028dd4                nrf_mesh_net_secmat_next_get
 .text.nrf_mesh_app_secmat_next_get
                0x00028e24       0x84 examples/light_switch/client/CMakeFiles/light_switch_client_nrf52840_xxAA_s140_5.0.0-3.alpha.dir/__/__/__/mesh/access/src/device_state_manager.c.obj
                0x00028e24                nrf_mesh_app_secmat_next_get
 .text.nrf_mesh_devkey_secmat_get
                0x00028ea8       0x50 examples/light_switch/client/CMakeFiles/light_switch_client_nrf52840_xxAA_s140_5.0.0-3.alpha.dir/__/__/__/mesh/access/src/device_state_manager.c.obj
                0x00028ea8                nrf_mesh_devkey_secmat_get
 .text.nrf_mesh_beacon_info_next_get
                0x00028ef8       0x74 examples/light_switch/client/CMakeFiles/light_switch_client_nrf52840_xxAA_s140_5.0.0-3.alpha.dir/__/__/__/mesh/access/src/device_state_manager.c.obj
                0x00028ef8                nrf_mesh_beacon_info_next_get
 .text.nrf_mesh_rx_address_get
                0x00028f6c       0xfc examples/light_switch/client/CMakeFiles/light_switch_client_nrf52840_xxAA_s140_5.0.0-3.alpha.dir/__/__/__/mesh/access/src/device_state_manager.c.obj
                0x00028f6c                nrf_mesh_rx_address_get
 .text.send_confirmation
                0x00029068       0x26 examples/light_switch/client/CMakeFiles/light_switch_client_nrf52840_xxAA_s140_5.0.0-3.alpha.dir/__/__/__/mesh/prov/src/prov_provisioner.c.obj
 .text.prov_provisioner_cb_link_closed
                0x0002908e       0x28 examples/light_switch/client/CMakeFiles/light_switch_client_nrf52840_xxAA_s140_5.0.0-3.alpha.dir/__/__/__/mesh/prov/src/prov_provisioner.c.obj
 .text.prov_provisioner_cb_link_established
                0x000290b6       0x3e examples/light_switch/client/CMakeFiles/light_switch_client_nrf52840_xxAA_s140_5.0.0-3.alpha.dir/__/__/__/mesh/prov/src/prov_provisioner.c.obj
 .text.prov_provisioner_cb_ack_received
                0x000290f4       0x48 examples/light_switch/client/CMakeFiles/light_switch_client_nrf52840_xxAA_s140_5.0.0-3.alpha.dir/__/__/__/mesh/prov/src/prov_provisioner.c.obj
 .text.request_authentication
                0x0002913c       0x8c examples/light_switch/client/CMakeFiles/light_switch_client_nrf52840_xxAA_s140_5.0.0-3.alpha.dir/__/__/__/mesh/prov/src/prov_provisioner.c.obj
 .text.prov_provisioner_pkt_in
                0x000291c8      0x28c examples/light_switch/client/CMakeFiles/light_switch_client_nrf52840_xxAA_s140_5.0.0-3.alpha.dir/__/__/__/mesh/prov/src/prov_provisioner.c.obj
 .text.prov_provisioner_provision
                0x00029454       0x48 examples/light_switch/client/CMakeFiles/light_switch_client_nrf52840_xxAA_s140_5.0.0-3.alpha.dir/__/__/__/mesh/prov/src/prov_provisioner.c.obj
                0x00029454                prov_provisioner_provision
 .text.prov_provisioner_oob_use
                0x0002949c       0x7a examples/light_switch/client/CMakeFiles/light_switch_client_nrf52840_xxAA_s140_5.0.0-3.alpha.dir/__/__/__/mesh/prov/src/prov_provisioner.c.obj
                0x0002949c                prov_provisioner_oob_use
 .text.prov_provisioner_auth_data
                0x00029516       0x44 examples/light_switch/client/CMakeFiles/light_switch_client_nrf52840_xxAA_s140_5.0.0-3.alpha.dir/__/__/__/mesh/prov/src/prov_provisioner.c.obj
                0x00029516                prov_provisioner_auth_data
 .text.nrf_mesh_prov_init
                0x0002955a       0x24 examples/light_switch/client/CMakeFiles/light_switch_client_nrf52840_xxAA_s140_5.0.0-3.alpha.dir/__/__/__/mesh/prov/src/nrf_mesh_prov.c.obj
                0x0002955a                nrf_mesh_prov_init
 .text.nrf_mesh_prov_generate_keys
                0x0002957e        0x4 examples/light_switch/client/CMakeFiles/light_switch_client_nrf52840_xxAA_s140_5.0.0-3.alpha.dir/__/__/__/mesh/prov/src/nrf_mesh_prov.c.obj
                0x0002957e                nrf_mesh_prov_generate_keys
 .text.nrf_mesh_prov_provision
                0x00029582       0x4e examples/light_switch/client/CMakeFiles/light_switch_client_nrf52840_xxAA_s140_5.0.0-3.alpha.dir/__/__/__/mesh/prov/src/nrf_mesh_prov.c.obj
                0x00029582                nrf_mesh_prov_provision
 .text.nrf_mesh_prov_oob_use
                0x000295d0        0xe examples/light_switch/client/CMakeFiles/light_switch_client_nrf52840_xxAA_s140_5.0.0-3.alpha.dir/__/__/__/mesh/prov/src/nrf_mesh_prov.c.obj
                0x000295d0                nrf_mesh_prov_oob_use
 .text.nrf_mesh_prov_auth_data_provide
                0x000295de        0xe examples/light_switch/client/CMakeFiles/light_switch_client_nrf52840_xxAA_s140_5.0.0-3.alpha.dir/__/__/__/mesh/prov/src/nrf_mesh_prov.c.obj
                0x000295de                nrf_mesh_prov_auth_data_provide
 .text.send_data
                0x000295ec       0x40 examples/light_switch/client/CMakeFiles/light_switch_client_nrf52840_xxAA_s140_5.0.0-3.alpha.dir/__/__/__/mesh/prov/src/provisioning.c.obj
 .text.prov_packet_length_valid
                0x0002962c       0x1c examples/light_switch/client/CMakeFiles/light_switch_client_nrf52840_xxAA_s140_5.0.0-3.alpha.dir/__/__/__/mesh/prov/src/provisioning.c.obj
                0x0002962c                prov_packet_length_valid
 .text.prov_init
                0x00029648       0x2c examples/light_switch/client/CMakeFiles/light_switch_client_nrf52840_xxAA_s140_5.0.0-3.alpha.dir/__/__/__/mesh/prov/src/provisioning.c.obj
                0x00029648                prov_init
 .text.prov_link_open
                0x00029674       0x14 examples/light_switch/client/CMakeFiles/light_switch_client_nrf52840_xxAA_s140_5.0.0-3.alpha.dir/__/__/__/mesh/prov/src/provisioning.c.obj
                0x00029674                prov_link_open
 .text.prov_link_close
                0x00029688        0x8 examples/light_switch/client/CMakeFiles/light_switch_client_nrf52840_xxAA_s140_5.0.0-3.alpha.dir/__/__/__/mesh/prov/src/provisioning.c.obj
                0x00029688                prov_link_close
 .text.prov_tx_invite
                0x00029690       0x28 examples/light_switch/client/CMakeFiles/light_switch_client_nrf52840_xxAA_s140_5.0.0-3.alpha.dir/__/__/__/mesh/prov/src/provisioning.c.obj
                0x00029690                prov_tx_invite
 .text.prov_tx_start
                0x000296b8       0x20 examples/light_switch/client/CMakeFiles/light_switch_client_nrf52840_xxAA_s140_5.0.0-3.alpha.dir/__/__/__/mesh/prov/src/provisioning.c.obj
                0x000296b8                prov_tx_start
 .text.prov_tx_public_key
                0x000296d8       0x26 examples/light_switch/client/CMakeFiles/light_switch_client_nrf52840_xxAA_s140_5.0.0-3.alpha.dir/__/__/__/mesh/prov/src/provisioning.c.obj
                0x000296d8                prov_tx_public_key
 .text.prov_tx_confirmation
                0x000296fe       0x26 examples/light_switch/client/CMakeFiles/light_switch_client_nrf52840_xxAA_s140_5.0.0-3.alpha.dir/__/__/__/mesh/prov/src/provisioning.c.obj
                0x000296fe                prov_tx_confirmation
 .text.prov_tx_random
                0x00029724       0x26 examples/light_switch/client/CMakeFiles/light_switch_client_nrf52840_xxAA_s140_5.0.0-3.alpha.dir/__/__/__/mesh/prov/src/provisioning.c.obj
                0x00029724                prov_tx_random
 .text.prov_tx_data
                0x0002974a        0x6 examples/light_switch/client/CMakeFiles/light_switch_client_nrf52840_xxAA_s140_5.0.0-3.alpha.dir/__/__/__/mesh/prov/src/provisioning.c.obj
                0x0002974a                prov_tx_data
 .text.prov_cb_link_opened
                0x00029750        0x8 examples/light_switch/client/CMakeFiles/light_switch_client_nrf52840_xxAA_s140_5.0.0-3.alpha.dir/__/__/__/mesh/prov/src/provisioning.c.obj
                0x00029750                prov_cb_link_opened
 .text.prov_cb_link_closed
                0x00029758        0x8 examples/light_switch/client/CMakeFiles/light_switch_client_nrf52840_xxAA_s140_5.0.0-3.alpha.dir/__/__/__/mesh/prov/src/provisioning.c.obj
                0x00029758                prov_cb_link_closed
 .text.prov_cb_pkt_in
                0x00029760       0x7c examples/light_switch/client/CMakeFiles/light_switch_client_nrf52840_xxAA_s140_5.0.0-3.alpha.dir/__/__/__/mesh/prov/src/provisioning.c.obj
                0x00029760                prov_cb_pkt_in
 .text.prov_cb_ack_in
                0x000297dc        0x8 examples/light_switch/client/CMakeFiles/light_switch_client_nrf52840_xxAA_s140_5.0.0-3.alpha.dir/__/__/__/mesh/prov/src/provisioning.c.obj
                0x000297dc                prov_cb_ack_in
 .text.prov_beacon_unprov_build
                0x000297e4       0x54 examples/light_switch/client/CMakeFiles/light_switch_client_nrf52840_xxAA_s140_5.0.0-3.alpha.dir/__/__/__/mesh/prov/src/prov_beacon.c.obj
                0x000297e4                prov_beacon_unprov_build
 .text.prov_beacon_unprov_packet_in
                0x00029838       0xb0 examples/light_switch/client/CMakeFiles/light_switch_client_nrf52840_xxAA_s140_5.0.0-3.alpha.dir/__/__/__/mesh/prov/src/prov_beacon.c.obj
                0x00029838                prov_beacon_unprov_packet_in
 .text.oob_gen_alphanumeric
                0x000298e8       0x34 examples/light_switch/client/CMakeFiles/light_switch_client_nrf52840_xxAA_s140_5.0.0-3.alpha.dir/__/__/__/mesh/prov/src/prov_utils.c.obj
 .text.oob_gen_numeric
                0x0002991c       0x3c examples/light_switch/client/CMakeFiles/light_switch_client_nrf52840_xxAA_s140_5.0.0-3.alpha.dir/__/__/__/mesh/prov/src/prov_utils.c.obj
 .text.prov_utils_use_ecdh_offloading
                0x00029958        0xc examples/light_switch/client/CMakeFiles/light_switch_client_nrf52840_xxAA_s140_5.0.0-3.alpha.dir/__/__/__/mesh/prov/src/prov_utils.c.obj
                0x00029958                prov_utils_use_ecdh_offloading
 .text.prov_utils_authentication_values_derive
                0x00029964       0xa4 examples/light_switch/client/CMakeFiles/light_switch_client_nrf52840_xxAA_s140_5.0.0-3.alpha.dir/__/__/__/mesh/prov/src/prov_utils.c.obj
                0x00029964                prov_utils_authentication_values_derive
 .text.prov_utils_keys_generate
                0x00029a08       0x1e examples/light_switch/client/CMakeFiles/light_switch_client_nrf52840_xxAA_s140_5.0.0-3.alpha.dir/__/__/__/mesh/prov/src/prov_utils.c.obj
                0x00029a08                prov_utils_keys_generate
 *fill*         0x00029a26        0x2 
 .text.prov_utils_derive_keys
                0x00029a28       0xb0 examples/light_switch/client/CMakeFiles/light_switch_client_nrf52840_xxAA_s140_5.0.0-3.alpha.dir/__/__/__/mesh/prov/src/prov_utils.c.obj
                0x00029a28                prov_utils_derive_keys
 .text.prov_utils_calculate_shared_secret
                0x00029ad8       0x38 examples/light_switch/client/CMakeFiles/light_switch_client_nrf52840_xxAA_s140_5.0.0-3.alpha.dir/__/__/__/mesh/prov/src/prov_utils.c.obj
                0x00029ad8                prov_utils_calculate_shared_secret
 .text.prov_utils_generate_oob_data
                0x00029b10       0x9c examples/light_switch/client/CMakeFiles/light_switch_client_nrf52840_xxAA_s140_5.0.0-3.alpha.dir/__/__/__/mesh/prov/src/prov_utils.c.obj
                0x00029b10                prov_utils_generate_oob_data
 .text.prov_utils_confirmation_check
                0x00029bac       0x5c examples/light_switch/client/CMakeFiles/light_switch_client_nrf52840_xxAA_s140_5.0.0-3.alpha.dir/__/__/__/mesh/prov/src/prov_utils.c.obj
                0x00029bac                prov_utils_confirmation_check
 .text.remove_active_bearer
                0x00029c08       0x60 examples/light_switch/client/CMakeFiles/light_switch_client_nrf52840_xxAA_s140_5.0.0-3.alpha.dir/__/__/__/mesh/prov/src/prov_bearer_adv.c.obj
 .text.prov_bearer_adv_listen_stop
                0x00029c68       0x38 examples/light_switch/client/CMakeFiles/light_switch_client_nrf52840_xxAA_s140_5.0.0-3.alpha.dir/__/__/__/mesh/prov/src/prov_bearer_adv.c.obj
 .text.close_link
                0x00029ca0       0x68 examples/light_switch/client/CMakeFiles/light_switch_client_nrf52840_xxAA_s140_5.0.0-3.alpha.dir/__/__/__/mesh/prov/src/prov_bearer_adv.c.obj
 .text.send_packet
                0x00029d08       0x6c examples/light_switch/client/CMakeFiles/light_switch_client_nrf52840_xxAA_s140_5.0.0-3.alpha.dir/__/__/__/mesh/prov/src/prov_bearer_adv.c.obj
 .text.prov_buffer_tx
                0x00029d74      0x158 examples/light_switch/client/CMakeFiles/light_switch_client_nrf52840_xxAA_s140_5.0.0-3.alpha.dir/__/__/__/mesh/prov/src/prov_bearer_adv.c.obj
 .text.send_link_close
                0x00029ecc       0x38 examples/light_switch/client/CMakeFiles/light_switch_client_nrf52840_xxAA_s140_5.0.0-3.alpha.dir/__/__/__/mesh/prov/src/prov_bearer_adv.c.obj
 .text.prov_bearer_adv_link_close
                0x00029f04       0x70 examples/light_switch/client/CMakeFiles/light_switch_client_nrf52840_xxAA_s140_5.0.0-3.alpha.dir/__/__/__/mesh/prov/src/prov_bearer_adv.c.obj
 .text.send_transaction_ack
                0x00029f74       0x24 examples/light_switch/client/CMakeFiles/light_switch_client_nrf52840_xxAA_s140_5.0.0-3.alpha.dir/__/__/__/mesh/prov/src/prov_bearer_adv.c.obj
 .text.send_link_ack
                0x00029f98       0x32 examples/light_switch/client/CMakeFiles/light_switch_client_nrf52840_xxAA_s140_5.0.0-3.alpha.dir/__/__/__/mesh/prov/src/prov_bearer_adv.c.obj
 .text.link_timeout_cb
                0x00029fca        0x8 examples/light_switch/client/CMakeFiles/light_switch_client_nrf52840_xxAA_s140_5.0.0-3.alpha.dir/__/__/__/mesh/prov/src/prov_bearer_adv.c.obj
 .text.reset_timeout_timer
                0x00029fd2       0x1a examples/light_switch/client/CMakeFiles/light_switch_client_nrf52840_xxAA_s140_5.0.0-3.alpha.dir/__/__/__/mesh/prov/src/prov_bearer_adv.c.obj
 .text.tx_complete_cb
                0x00029fec       0x1c examples/light_switch/client/CMakeFiles/light_switch_client_nrf52840_xxAA_s140_5.0.0-3.alpha.dir/__/__/__/mesh/prov/src/prov_bearer_adv.c.obj
 .text.tx_retry_cb
                0x0002a008       0xcc examples/light_switch/client/CMakeFiles/light_switch_client_nrf52840_xxAA_s140_5.0.0-3.alpha.dir/__/__/__/mesh/prov/src/prov_bearer_adv.c.obj
 .text.add_active_bearer
                0x0002a0d4       0x80 examples/light_switch/client/CMakeFiles/light_switch_client_nrf52840_xxAA_s140_5.0.0-3.alpha.dir/__/__/__/mesh/prov/src/prov_bearer_adv.c.obj
 .text.prov_bearer_adv_link_open
                0x0002a154       0xf0 examples/light_switch/client/CMakeFiles/light_switch_client_nrf52840_xxAA_s140_5.0.0-3.alpha.dir/__/__/__/mesh/prov/src/prov_bearer_adv.c.obj
 .text.async_process
                0x0002a244       0x50 examples/light_switch/client/CMakeFiles/light_switch_client_nrf52840_xxAA_s140_5.0.0-3.alpha.dir/__/__/__/mesh/prov/src/prov_bearer_adv.c.obj
 .text.prov_bearer_adv_listen
                0x0002a294       0xe8 examples/light_switch/client/CMakeFiles/light_switch_client_nrf52840_xxAA_s140_5.0.0-3.alpha.dir/__/__/__/mesh/prov/src/prov_bearer_adv.c.obj
 .text.calculate_3GPP_CRC
                0x0002a37c       0x24 examples/light_switch/client/CMakeFiles/light_switch_client_nrf52840_xxAA_s140_5.0.0-3.alpha.dir/__/__/__/mesh/prov/src/prov_bearer_adv.c.obj
                0x0002a37c                calculate_3GPP_CRC
 .text.prov_bearer_adv_tx
                0x0002a3a0       0xac examples/light_switch/client/CMakeFiles/light_switch_client_nrf52840_xxAA_s140_5.0.0-3.alpha.dir/__/__/__/mesh/prov/src/prov_bearer_adv.c.obj
 .text.prov_buffer_rx
                0x0002a44c       0x74 examples/light_switch/client/CMakeFiles/light_switch_client_nrf52840_xxAA_s140_5.0.0-3.alpha.dir/__/__/__/mesh/prov/src/prov_bearer_adv.c.obj
 .text.prov_bearer_adv_interface_get
                0x0002a4c0       0x24 examples/light_switch/client/CMakeFiles/light_switch_client_nrf52840_xxAA_s140_5.0.0-3.alpha.dir/__/__/__/mesh/prov/src/prov_bearer_adv.c.obj
                0x0002a4c0                prov_bearer_adv_interface_get
 .text.prov_bearer_adv_packet_in
                0x0002a4e4      0x80c examples/light_switch/client/CMakeFiles/light_switch_client_nrf52840_xxAA_s140_5.0.0-3.alpha.dir/__/__/__/mesh/prov/src/prov_bearer_adv.c.obj
                0x0002a4e4                prov_bearer_adv_packet_in
 .text.errata_136
                0x0002acf0       0x20 examples/light_switch/client/CMakeFiles/light_switch_client_nrf52840_xxAA_s140_5.0.0-3.alpha.dir/__/__/__/external/nRF5_SDK_14.0.0_3bcc1f7/components/toolchain/system_nrf52840.c.obj
 .text.SystemInit
                0x0002ad10      0x1d0 examples/light_switch/client/CMakeFiles/light_switch_client_nrf52840_xxAA_s140_5.0.0-3.alpha.dir/__/__/__/external/nRF5_SDK_14.0.0_3bcc1f7/components/toolchain/system_nrf52840.c.obj
                0x0002ad10                SystemInit
 .text          0x0002aee0       0x3c examples/light_switch/client/CMakeFiles/light_switch_client_nrf52840_xxAA_s140_5.0.0-3.alpha.dir/__/__/__/external/nRF5_SDK_14.0.0_3bcc1f7/components/toolchain/gcc/gcc_startup_nrf52840.S.obj
                0x0002aee0                Reset_Handler
                0x0002af08                NMI_Handler
                0x0002af0c                MemoryManagement_Handler
                0x0002af0e                BusFault_Handler
                0x0002af10                UsageFault_Handler
                0x0002af12                SVC_Handler
                0x0002af14                DebugMon_Handler
                0x0002af16                PendSV_Handler
                0x0002af18                SysTick_Handler
                0x0002af1a                RADIO_IRQHandler
                0x0002af1a                PDM_IRQHandler
                0x0002af1a                TEMP_IRQHandler
                0x0002af1a                POWER_CLOCK_IRQHandler
                0x0002af1a                PWM3_IRQHandler
                0x0002af1a                FPU_IRQHandler
                0x0002af1a                USBD_IRQHandler
                0x0002af1a                SPIM0_SPIS0_TWIM0_TWIS0_SPI0_TWI0_IRQHandler
                0x0002af1a                TIMER3_IRQHandler
                0x0002af1a                UARTE0_UART0_IRQHandler
                0x0002af1a                TIMER4_IRQHandler
                0x0002af1a                CRYPTOCELL_IRQHandler
                0x0002af1a                I2S_IRQHandler
                0x0002af1a                SWI4_EGU4_IRQHandler
                0x0002af1a                TIMER0_IRQHandler
                0x0002af1a                PWM1_IRQHandler
                0x0002af1a                UARTE1_IRQHandler
                0x0002af1a                TIMER1_IRQHandler
                0x0002af1a                SPIM3_IRQHandler
                0x0002af1a                PWM2_IRQHandler
                0x0002af1a                ECB_IRQHandler
                0x0002af1a                SPIM1_SPIS1_TWIM1_TWIS1_SPI1_TWI1_IRQHandler
                0x0002af1a                Default_Handler
                0x0002af1a                SAADC_IRQHandler
                0x0002af1a                CCM_AAR_IRQHandler
                0x0002af1a                WDT_IRQHandler
                0x0002af1a                RTC0_IRQHandler
                0x0002af1a                SWI5_EGU5_IRQHandler
                0x0002af1a                RNG_IRQHandler
                0x0002af1a                RTC2_IRQHandler
                0x0002af1a                PWM0_IRQHandler
                0x0002af1a                SWI3_EGU3_IRQHandler
                0x0002af1a                RTC1_IRQHandler
                0x0002af1a                SWI1_EGU1_IRQHandler
                0x0002af1a                SPIM2_SPIS2_SPI2_IRQHandler
                0x0002af1a                NFCT_IRQHandler
                0x0002af1a                SWI0_EGU0_IRQHandler
                0x0002af1a                MWU_IRQHandler
                0x0002af1a                TIMER2_IRQHandler
                0x0002af1a                QSPI_IRQHandler
                0x0002af1a                COMP_LPCOMP_IRQHandler
 .text.nrf_mesh_configure_device_uuid_reset
                0x0002af1c       0x28 mesh/core/libmesh_core_nrf52840_xxAA.a(nrf_mesh_configure.c.obj)
                0x0002af1c                nrf_mesh_configure_device_uuid_reset
 .text.nrf_mesh_configure_device_uuid_get
                0x0002af44        0x8 mesh/core/libmesh_core_nrf52840_xxAA.a(nrf_mesh_configure.c.obj)
                0x0002af44                nrf_mesh_configure_device_uuid_get
 .text.event_handle
                0x0002af4c       0x30 mesh/core/libmesh_core_nrf52840_xxAA.a(event.c.obj)
                0x0002af4c                event_handle
 .text.event_handler_add
                0x0002af7c       0x78 mesh/core/libmesh_core_nrf52840_xxAA.a(event.c.obj)
                0x0002af7c                event_handler_add
 .text.packet_mgr_init
                0x0002aff4       0x4c mesh/core/libmesh_core_nrf52840_xxAA.a(packet_mgr.c.obj)
                0x0002aff4                packet_mgr_init
 .text.packet_mgr_alloc
                0x0002b040      0x19c mesh/core/libmesh_core_nrf52840_xxAA.a(packet_mgr.c.obj)
                0x0002b040                packet_mgr_alloc
 .text.packet_mgr_free
                0x0002b1dc       0x6c mesh/core/libmesh_core_nrf52840_xxAA.a(packet_mgr.c.obj)
                0x0002b1dc                packet_mgr_free
 .text.flash_mem_available
                0x0002b248       0x20 mesh/core/libmesh_core_nrf52840_xxAA.a(net_state.c.obj)
 .text.flash_store_iv_index
                0x0002b268       0x38 mesh/core/libmesh_core_nrf52840_xxAA.a(net_state.c.obj)
 .text.seqnum_block_allocate
                0x0002b2a0       0x48 mesh/core/libmesh_core_nrf52840_xxAA.a(net_state.c.obj)
 .text.flash_write_complete
                0x0002b2e8       0x78 mesh/core/libmesh_core_nrf52840_xxAA.a(net_state.c.obj)
 .text.net_state_recover_from_flash
                0x0002b360       0x84 mesh/core/libmesh_core_nrf52840_xxAA.a(net_state.c.obj)
                0x0002b360                net_state_recover_from_flash
 .text.net_state_flash_area_get
                0x0002b3e4        0xc mesh/core/libmesh_core_nrf52840_xxAA.a(net_state.c.obj)
                0x0002b3e4                net_state_flash_area_get
 .text.init_flash_storage
                0x0002b3f0       0x40 mesh/core/libmesh_core_nrf52840_xxAA.a(net_state.c.obj)
 .text.net_state_init
                0x0002b430       0x48 mesh/core/libmesh_core_nrf52840_xxAA.a(net_state.c.obj)
                0x0002b430                net_state_init
 .text.net_state_iv_update_start
                0x0002b478       0x64 mesh/core/libmesh_core_nrf52840_xxAA.a(net_state.c.obj)
                0x0002b478                net_state_iv_update_start
 .text.iv_update_trigger_if_pending
                0x0002b4dc       0x8c mesh/core/libmesh_core_nrf52840_xxAA.a(net_state.c.obj)
 .text.iv_update_timer_handler
                0x0002b568       0x74 mesh/core/libmesh_core_nrf52840_xxAA.a(net_state.c.obj)
 .text.net_state_seqnum_alloc
                0x0002b5dc       0x68 mesh/core/libmesh_core_nrf52840_xxAA.a(net_state.c.obj)
                0x0002b5dc                net_state_seqnum_alloc
 .text.net_state_iv_index_lock
                0x0002b644       0x48 mesh/core/libmesh_core_nrf52840_xxAA.a(net_state.c.obj)
                0x0002b644                net_state_iv_index_lock
 .text.net_state_beacon_received
                0x0002b68c       0x94 mesh/core/libmesh_core_nrf52840_xxAA.a(net_state.c.obj)
                0x0002b68c                net_state_beacon_received
 .text.net_state_beacon_iv_index_get
                0x0002b720        0xc mesh/core/libmesh_core_nrf52840_xxAA.a(net_state.c.obj)
                0x0002b720                net_state_beacon_iv_index_get
 .text.net_state_tx_iv_index_get
                0x0002b72c       0x14 mesh/core/libmesh_core_nrf52840_xxAA.a(net_state.c.obj)
                0x0002b72c                net_state_tx_iv_index_get
 .text.net_state_rx_iv_index_get
                0x0002b740       0x18 mesh/core/libmesh_core_nrf52840_xxAA.a(net_state.c.obj)
                0x0002b740                net_state_rx_iv_index_get
 .text.net_state_iv_update_get
                0x0002b758        0xc mesh/core/libmesh_core_nrf52840_xxAA.a(net_state.c.obj)
                0x0002b758                net_state_iv_update_get
 .text.nrf_mesh_address_type_get
                0x0002b764       0x10 mesh/core/libmesh_core_nrf52840_xxAA.a(nrf_mesh_utils.c.obj)
                0x0002b764                nrf_mesh_address_type_get
 .text.sd_softdevice_is_enabled
                0x0002b774        0x4 mesh/core/libmesh_core_nrf52840_xxAA.a(nrf_mesh.c.obj)
 .text.nrf_mesh_init
                0x0002b778       0xb0 mesh/core/libmesh_core_nrf52840_xxAA.a(nrf_mesh.c.obj)
                0x0002b778                nrf_mesh_init
 .text.nrf_mesh_enable
                0x0002b828       0x48 mesh/core/libmesh_core_nrf52840_xxAA.a(nrf_mesh.c.obj)
                0x0002b828                nrf_mesh_enable
 .text.nrf_mesh_packet_send
                0x0002b870        0x4 mesh/core/libmesh_core_nrf52840_xxAA.a(nrf_mesh.c.obj)
                0x0002b870                nrf_mesh_packet_send
 .text.nrf_mesh_process
                0x0002b874      0x1c0 mesh/core/libmesh_core_nrf52840_xxAA.a(nrf_mesh.c.obj)
                0x0002b874                nrf_mesh_process
 .text.nrf_mesh_on_ble_evt
                0x0002ba34        0x4 mesh/core/libmesh_core_nrf52840_xxAA.a(nrf_mesh.c.obj)
                0x0002ba34                nrf_mesh_on_ble_evt
 .text.nrf_mesh_on_sd_evt
                0x0002ba38        0xa mesh/core/libmesh_core_nrf52840_xxAA.a(nrf_mesh.c.obj)
                0x0002ba38                nrf_mesh_on_sd_evt
 .text.nrf_mesh_evt_handler_add
                0x0002ba42        0x4 mesh/core/libmesh_core_nrf52840_xxAA.a(nrf_mesh.c.obj)
                0x0002ba42                nrf_mesh_evt_handler_add
 *fill*         0x0002ba46        0x2 
 .text.hal_lfclk_ppm_get
                0x0002ba48       0x14 mesh/core/libmesh_core_nrf52840_xxAA.a(hal.c.obj)
                0x0002ba48                hal_lfclk_ppm_get
 .text.add_to_add_list
                0x0002ba5c       0x44 mesh/core/libmesh_core_nrf52840_xxAA.a(timer_scheduler.c.obj)
 .text.process_dirty_events
                0x0002baa0       0x6c mesh/core/libmesh_core_nrf52840_xxAA.a(timer_scheduler.c.obj)
 .text.timer_cb
                0x0002bb0c        0xc mesh/core/libmesh_core_nrf52840_xxAA.a(timer_scheduler.c.obj)
 .text.add_evt.constprop.0
                0x0002bb18       0x68 mesh/core/libmesh_core_nrf52840_xxAA.a(timer_scheduler.c.obj)
 .text.process_add_list
                0x0002bb80       0x48 mesh/core/libmesh_core_nrf52840_xxAA.a(timer_scheduler.c.obj)
 .text.flag_event_cb
                0x0002bbc8      0x104 mesh/core/libmesh_core_nrf52840_xxAA.a(timer_scheduler.c.obj)
 .text.timer_sch_init
                0x0002bccc       0x24 mesh/core/libmesh_core_nrf52840_xxAA.a(timer_scheduler.c.obj)
                0x0002bccc                timer_sch_init
 .text.timer_sch_schedule
                0x0002bcf0       0x50 mesh/core/libmesh_core_nrf52840_xxAA.a(timer_scheduler.c.obj)
                0x0002bcf0                timer_sch_schedule
 .text.timer_sch_abort
                0x0002bd40       0x64 mesh/core/libmesh_core_nrf52840_xxAA.a(timer_scheduler.c.obj)
                0x0002bd40                timer_sch_abort
 .text.timer_sch_reschedule
                0x0002bda4       0x70 mesh/core/libmesh_core_nrf52840_xxAA.a(timer_scheduler.c.obj)
                0x0002bda4                timer_sch_reschedule
 .text.timer_mut_unlock
                0x0002be14       0x10 mesh/core/libmesh_core_nrf52840_xxAA.a(timer.c.obj)
 .text.timer_order_cb
                0x0002be24       0x94 mesh/core/libmesh_core_nrf52840_xxAA.a(timer.c.obj)
                0x0002be24                timer_order_cb
 .text.timer_now
                0x0002beb8       0x48 mesh/core/libmesh_core_nrf52840_xxAA.a(timer.c.obj)
                0x0002beb8                timer_now
 .text.timer_event_handler
                0x0002bf00       0x90 mesh/core/libmesh_core_nrf52840_xxAA.a(timer.c.obj)
                0x0002bf00                timer_event_handler
 .text.timer_on_ts_begin
                0x0002bf90       0xfc mesh/core/libmesh_core_nrf52840_xxAA.a(timer.c.obj)
                0x0002bf90                timer_on_ts_begin
 .text.timer_on_ts_end
                0x0002c08c       0x60 mesh/core/libmesh_core_nrf52840_xxAA.a(timer.c.obj)
                0x0002c08c                timer_on_ts_end
 .text.timer_cb
                0x0002c0ec       0x10 mesh/core/libmesh_core_nrf52840_xxAA.a(ticker.c.obj)
 .text.ticker_init
                0x0002c0fc       0x3c mesh/core/libmesh_core_nrf52840_xxAA.a(ticker.c.obj)
                0x0002c0fc                ticker_init
 .text.sd_rand_application_bytes_available_get
                0x0002c138        0x4 mesh/core/libmesh_core_nrf52840_xxAA.a(rand.c.obj)
 .text.sd_rand_application_vector_get
                0x0002c13c        0x4 mesh/core/libmesh_core_nrf52840_xxAA.a(rand.c.obj)
 .text.rand_prng_get
                0x0002c140       0x22 mesh/core/libmesh_core_nrf52840_xxAA.a(rand.c.obj)
                0x0002c140                rand_prng_get
 *fill*         0x0002c162        0x2 
 .text.rand_hw_rng_get
                0x0002c164       0x50 mesh/core/libmesh_core_nrf52840_xxAA.a(rand.c.obj)
                0x0002c164                rand_hw_rng_get
 .text.rand_prng_seed
                0x0002c1b4       0x34 mesh/core/libmesh_core_nrf52840_xxAA.a(rand.c.obj)
                0x0002c1b4                rand_prng_seed
 .text.sd_radio_session_open
                0x0002c1e8        0x4 mesh/core/libmesh_core_nrf52840_xxAA.a(timeslot.c.obj)
 .text.sd_radio_session_close
                0x0002c1ec        0x4 mesh/core/libmesh_core_nrf52840_xxAA.a(timeslot.c.obj)
 .text.sd_radio_request
                0x0002c1f0        0x4 mesh/core/libmesh_core_nrf52840_xxAA.a(timeslot.c.obj)
 .text.end_timer_handler
                0x0002c1f4       0x24 mesh/core/libmesh_core_nrf52840_xxAA.a(timeslot.c.obj)
 .text.get_end_time.constprop.10
                0x0002c218       0x28 mesh/core/libmesh_core_nrf52840_xxAA.a(timeslot.c.obj)
 .text.handle_extend_end.constprop.3
                0x0002c240       0xc0 mesh/core/libmesh_core_nrf52840_xxAA.a(timeslot.c.obj)
 .text.radio_signal_callback
                0x0002c300      0x14c mesh/core/libmesh_core_nrf52840_xxAA.a(timeslot.c.obj)
 .text.timeslot_sd_event_handler
                0x0002c44c       0x44 mesh/core/libmesh_core_nrf52840_xxAA.a(timeslot.c.obj)
                0x0002c44c                timeslot_sd_event_handler
 .text.timeslot_init
                0x0002c490       0x48 mesh/core/libmesh_core_nrf52840_xxAA.a(timeslot.c.obj)
                0x0002c490                timeslot_init
 .text.timeslot_start
                0x0002c4d8       0x20 mesh/core/libmesh_core_nrf52840_xxAA.a(timeslot.c.obj)
                0x0002c4d8                timeslot_start
 .text.timeslot_end_is_pending
                0x0002c4f8       0x24 mesh/core/libmesh_core_nrf52840_xxAA.a(timeslot.c.obj)
                0x0002c4f8                timeslot_end_is_pending
 .text.timeslot_start_time_get
                0x0002c51c        0xc mesh/core/libmesh_core_nrf52840_xxAA.a(timeslot.c.obj)
                0x0002c51c                timeslot_start_time_get
 .text.timeslot_remaining_time_get
                0x0002c528       0x20 mesh/core/libmesh_core_nrf52840_xxAA.a(timeslot.c.obj)
                0x0002c528                timeslot_remaining_time_get
 .text.timeslot_is_in_cb
                0x0002c548        0xc mesh/core/libmesh_core_nrf52840_xxAA.a(timeslot.c.obj)
                0x0002c548                timeslot_is_in_cb
 .text.timeslot_trigger
                0x0002c554       0x24 mesh/core/libmesh_core_nrf52840_xxAA.a(timeslot.c.obj)
                0x0002c554                timeslot_trigger
 .text.timeslot_stop
                0x0002c578       0x10 mesh/core/libmesh_core_nrf52840_xxAA.a(timeslot.c.obj)
                0x0002c578                timeslot_stop
 .text.timeslot_state_lock
                0x0002c588       0x28 mesh/core/libmesh_core_nrf52840_xxAA.a(timeslot.c.obj)
                0x0002c588                timeslot_state_lock
 .text.evt_push
                0x0002c5b0       0x24 mesh/core/libmesh_core_nrf52840_xxAA.a(bearer_event.c.obj)
 .text.QDEC_IRQHandler
                0x0002c5d4       0xc4 mesh/core/libmesh_core_nrf52840_xxAA.a(bearer_event.c.obj)
                0x0002c5d4                QDEC_IRQHandler
 .text.bearer_event_init
                0x0002c698       0x38 mesh/core/libmesh_core_nrf52840_xxAA.a(bearer_event.c.obj)
                0x0002c698                bearer_event_init
 .text.bearer_event_timer_post
                0x0002c6d0       0x30 mesh/core/libmesh_core_nrf52840_xxAA.a(bearer_event.c.obj)
                0x0002c6d0                bearer_event_timer_post
 .text.bearer_event_critical_section_begin
                0x0002c700       0x44 mesh/core/libmesh_core_nrf52840_xxAA.a(bearer_event.c.obj)
                0x0002c700                bearer_event_critical_section_begin
 .text.bearer_event_critical_section_end
                0x0002c744       0x40 mesh/core/libmesh_core_nrf52840_xxAA.a(bearer_event.c.obj)
                0x0002c744                bearer_event_critical_section_end
 .text.bearer_event_flag_add
                0x0002c784       0x50 mesh/core/libmesh_core_nrf52840_xxAA.a(bearer_event.c.obj)
                0x0002c784                bearer_event_flag_add
 .text.bearer_event_flag_set
                0x0002c7d4       0x58 mesh/core/libmesh_core_nrf52840_xxAA.a(bearer_event.c.obj)
                0x0002c7d4                bearer_event_flag_set
 .text.bearer_event_sequential_add
                0x0002c82c       0x44 mesh/core/libmesh_core_nrf52840_xxAA.a(bearer_event.c.obj)
                0x0002c82c                bearer_event_sequential_add
 .text.bearer_event_sequential_post
                0x0002c870       0x64 mesh/core/libmesh_core_nrf52840_xxAA.a(bearer_event.c.obj)
                0x0002c870                bearer_event_sequential_post
 .text.bearer_event_sequential_pending
                0x0002c8d4       0x1c mesh/core/libmesh_core_nrf52840_xxAA.a(bearer_event.c.obj)
                0x0002c8d4                bearer_event_sequential_pending
 .text.enc_aes_encrypt
                0x0002c8f0        0x4 mesh/core/libmesh_core_nrf52840_xxAA.a(enc.c.obj)
                0x0002c8f0                enc_aes_encrypt
 .text.enc_aes_cmac
                0x0002c8f4        0x4 mesh/core/libmesh_core_nrf52840_xxAA.a(enc.c.obj)
                0x0002c8f4                enc_aes_cmac
 .text.enc_aes_ccm_encrypt
                0x0002c8f8        0x4 mesh/core/libmesh_core_nrf52840_xxAA.a(enc.c.obj)
                0x0002c8f8                enc_aes_ccm_encrypt
 .text.enc_aes_ccm_decrypt
                0x0002c8fc        0x4 mesh/core/libmesh_core_nrf52840_xxAA.a(enc.c.obj)
                0x0002c8fc                enc_aes_ccm_decrypt
 .text.enc_nonce_generate
                0x0002c900       0xb8 mesh/core/libmesh_core_nrf52840_xxAA.a(enc.c.obj)
                0x0002c900                enc_nonce_generate
 .text.enc_s1   0x0002c9b8       0x38 mesh/core/libmesh_core_nrf52840_xxAA.a(enc.c.obj)
                0x0002c9b8                enc_s1
 .text.enc_k1   0x0002c9f0       0x48 mesh/core/libmesh_core_nrf52840_xxAA.a(enc.c.obj)
                0x0002c9f0                enc_k1
 .text.enc_k2   0x0002ca38       0xd8 mesh/core/libmesh_core_nrf52840_xxAA.a(enc.c.obj)
                0x0002ca38                enc_k2
 .text.enc_k3   0x0002cb10       0x68 mesh/core/libmesh_core_nrf52840_xxAA.a(enc.c.obj)
                0x0002cb10                enc_k3
 .text.enc_k4   0x0002cb78       0x60 mesh/core/libmesh_core_nrf52840_xxAA.a(enc.c.obj)
                0x0002cb78                enc_k4
 .text.header_transfuscate
                0x0002cbd8       0x54 mesh/core/libmesh_core_nrf52840_xxAA.a(network.c.obj)
 .text.allocate_packet
                0x0002cc2c      0x14c mesh/core/libmesh_core_nrf52840_xxAA.a(network.c.obj)
 .text.network_init
                0x0002cd78       0x2c mesh/core/libmesh_core_nrf52840_xxAA.a(network.c.obj)
                0x0002cd78                network_init
 .text.network_packet_alloc
                0x0002cda4       0x50 mesh/core/libmesh_core_nrf52840_xxAA.a(network.c.obj)
                0x0002cda4                network_packet_alloc
 .text.network_packet_send
                0x0002cdf4      0x140 mesh/core/libmesh_core_nrf52840_xxAA.a(network.c.obj)
                0x0002cdf4                network_packet_send
 .text.network_packet_in
                0x0002cf34      0x450 mesh/core/libmesh_core_nrf52840_xxAA.a(network.c.obj)
                0x0002cf34                network_packet_in
 .text.nrf_mesh_keygen_aid
                0x0002d384       0x12 mesh/core/libmesh_core_nrf52840_xxAA.a(nrf_mesh_keygen.c.obj)
                0x0002d384                nrf_mesh_keygen_aid
 .text.nrf_mesh_keygen_network_secmat
                0x0002d396       0x20 mesh/core/libmesh_core_nrf52840_xxAA.a(nrf_mesh_keygen.c.obj)
                0x0002d396                nrf_mesh_keygen_network_secmat
 *fill*         0x0002d3b6        0x2 
 .text.nrf_mesh_keygen_beacon_secmat
                0x0002d3b8       0x50 mesh/core/libmesh_core_nrf52840_xxAA.a(nrf_mesh_keygen.c.obj)
                0x0002d3b8                nrf_mesh_keygen_beacon_secmat
 .text.nrf_mesh_keygen_virtual_address
                0x0002d408       0x50 mesh/core/libmesh_core_nrf52840_xxAA.a(nrf_mesh_keygen.c.obj)
                0x0002d408                nrf_mesh_keygen_virtual_address
 .text.log_callback_rtt
                0x0002d458       0x2c mesh/core/libmesh_core_nrf52840_xxAA.a(log.c.obj)
                0x0002d458                log_callback_rtt
 .text.log_init
                0x0002d484       0x1c mesh/core/libmesh_core_nrf52840_xxAA.a(log.c.obj)
                0x0002d484                log_init
 .text.log_vprintf
                0x0002d4a0       0x18 mesh/core/libmesh_core_nrf52840_xxAA.a(log.c.obj)
                0x0002d4a0                log_vprintf
 .text.log_printf
                0x0002d4b8       0x18 mesh/core/libmesh_core_nrf52840_xxAA.a(log.c.obj)
                0x0002d4b8                log_printf
 .text.get_area_end
                0x0002d4d0        0xc mesh/core/libmesh_core_nrf52840_xxAA.a(flash_manager.c.obj)
 .text.handle_matches_filter
                0x0002d4dc       0x26 mesh/core/libmesh_core_nrf52840_xxAA.a(flash_manager.c.obj)
 *fill*         0x0002d502        0x2 
 .text.get_packet_buffer
                0x0002d504       0x2c mesh/core/libmesh_core_nrf52840_xxAA.a(flash_manager.c.obj)
 .text.get_entry_action
                0x0002d530       0x30 mesh/core/libmesh_core_nrf52840_xxAA.a(flash_manager.c.obj)
 .text.flash_area_is_blank
                0x0002d560       0x48 mesh/core/libmesh_core_nrf52840_xxAA.a(flash_manager.c.obj)
 .text.flash    0x0002d5a8       0x1c mesh/core/libmesh_core_nrf52840_xxAA.a(flash_manager.c.obj)
 .text.free_packet_buffer
                0x0002d5c4       0x54 mesh/core/libmesh_core_nrf52840_xxAA.a(flash_manager.c.obj)
 .text.reserve_action_buffer
                0x0002d618       0x24 mesh/core/libmesh_core_nrf52840_xxAA.a(flash_manager.c.obj)
 .text.commit_action_buffer
                0x0002d63c       0x18 mesh/core/libmesh_core_nrf52840_xxAA.a(flash_manager.c.obj)
 .text.schedule_processing
                0x0002d654        0xc mesh/core/libmesh_core_nrf52840_xxAA.a(flash_manager.c.obj)
 .text.get_next_entry
                0x0002d660       0x40 mesh/core/libmesh_core_nrf52840_xxAA.a(flash_manager.c.obj)
 .text.get_last_entry.isra.1
                0x0002d6a0       0x30 mesh/core/libmesh_core_nrf52840_xxAA.a(flash_manager.c.obj)
 .text.process_action_queue
                0x0002d6d0      0x4e0 mesh/core/libmesh_core_nrf52840_xxAA.a(flash_manager.c.obj)
 .text.flash_op_ended_callback
                0x0002dbb0       0x24 mesh/core/libmesh_core_nrf52840_xxAA.a(flash_manager.c.obj)
 .text.flash_manager_init
                0x0002dbd4       0x68 mesh/core/libmesh_core_nrf52840_xxAA.a(flash_manager.c.obj)
                0x0002dbd4                flash_manager_init
 .text.flash_manager_remove
                0x0002dc3c       0x24 mesh/core/libmesh_core_nrf52840_xxAA.a(flash_manager.c.obj)
                0x0002dc3c                flash_manager_remove
 .text.flash_manager_entry_get
                0x0002dc60       0x48 mesh/core/libmesh_core_nrf52840_xxAA.a(flash_manager.c.obj)
                0x0002dc60                flash_manager_entry_get
 .text.flash_manager_entry_next_get
                0x0002dca8       0x6c mesh/core/libmesh_core_nrf52840_xxAA.a(flash_manager.c.obj)
                0x0002dca8                flash_manager_entry_next_get
 .text.flash_manager_entry_alloc
                0x0002dd14       0x78 mesh/core/libmesh_core_nrf52840_xxAA.a(flash_manager.c.obj)
                0x0002dd14                flash_manager_entry_alloc
 .text.flash_manager_entry_commit
                0x0002dd8c       0x12 mesh/core/libmesh_core_nrf52840_xxAA.a(flash_manager.c.obj)
                0x0002dd8c                flash_manager_entry_commit
 *fill*         0x0002dd9e        0x2 
 .text.flash_manager_entry_invalidate
                0x0002dda0       0x64 mesh/core/libmesh_core_nrf52840_xxAA.a(flash_manager.c.obj)
                0x0002dda0                flash_manager_entry_invalidate
 .text.flash_manager_add
                0x0002de04      0x248 mesh/core/libmesh_core_nrf52840_xxAA.a(flash_manager.c.obj)
                0x0002de04                flash_manager_add
 .text.flash_manager_mem_listener_register
                0x0002e04c       0x44 mesh/core/libmesh_core_nrf52840_xxAA.a(flash_manager.c.obj)
                0x0002e04c                flash_manager_mem_listener_register
 .text.flash_manager_is_stable
                0x0002e090       0x24 mesh/core/libmesh_core_nrf52840_xxAA.a(flash_manager.c.obj)
                0x0002e090                flash_manager_is_stable
 .text.flash_manager_on_defrag_end
                0x0002e0b4       0x58 mesh/core/libmesh_core_nrf52840_xxAA.a(flash_manager.c.obj)
                0x0002e0b4                flash_manager_on_defrag_end
 .text.flash_manager_recovery_page_get
                0x0002e10c        0x4 mesh/core/libmesh_core_nrf52840_xxAA.a(flash_manager.c.obj)
                0x0002e10c                flash_manager_recovery_page_get
 .text.utils_xor
                0x0002e110       0x14 mesh/core/libmesh_core_nrf52840_xxAA.a(ccm_soft.c.obj)
 .text.ccm_soft_authenticate_blocks
                0x0002e124       0x68 mesh/core/libmesh_core_nrf52840_xxAA.a(ccm_soft.c.obj)
 .text.utils_reverse_memcpy.constprop.0
                0x0002e18c        0xa mesh/core/libmesh_core_nrf52840_xxAA.a(ccm_soft.c.obj)
 .text.ccm_soft_authenticate
                0x0002e196       0xa0 mesh/core/libmesh_core_nrf52840_xxAA.a(ccm_soft.c.obj)
 .text.ccm_soft_crypt
                0x0002e236       0x6c mesh/core/libmesh_core_nrf52840_xxAA.a(ccm_soft.c.obj)
 .text.ccm_soft_encrypt
                0x0002e2a2       0x70 mesh/core/libmesh_core_nrf52840_xxAA.a(ccm_soft.c.obj)
                0x0002e2a2                ccm_soft_encrypt
 .text.ccm_soft_decrypt
                0x0002e312       0xfe mesh/core/libmesh_core_nrf52840_xxAA.a(ccm_soft.c.obj)
                0x0002e312                ccm_soft_decrypt
 .text.beacon_init
                0x0002e410       0x48 mesh/core/libmesh_core_nrf52840_xxAA.a(beacon.c.obj)
                0x0002e410                beacon_init
 .text.beacon_create
                0x0002e458       0x46 mesh/core/libmesh_core_nrf52840_xxAA.a(beacon.c.obj)
                0x0002e458                beacon_create
 *fill*         0x0002e49e        0x2 
 .text.beacon_tx
                0x0002e4a0       0x3c mesh/core/libmesh_core_nrf52840_xxAA.a(beacon.c.obj)
                0x0002e4a0                beacon_tx
 .text.beacon_packet_in
                0x0002e4dc      0x160 mesh/core/libmesh_core_nrf52840_xxAA.a(beacon.c.obj)
                0x0002e4dc                beacon_packet_in
 .text.entry_get
                0x0002e63c       0x88 mesh/core/libmesh_core_nrf52840_xxAA.a(flash_manager_internal.c.obj)
                0x0002e63c                entry_get
 .text.adv_tx_complete_callback
                0x0002e6c4       0x50 mesh/core/libmesh_core_nrf52840_xxAA.a(core_tx.c.obj)
 .text.core_tx_init
                0x0002e714       0x4c mesh/core/libmesh_core_nrf52840_xxAA.a(core_tx.c.obj)
                0x0002e714                core_tx_init
 .text.core_tx_complete_cb_set
                0x0002e760        0xc mesh/core/libmesh_core_nrf52840_xxAA.a(core_tx.c.obj)
                0x0002e760                core_tx_complete_cb_set
 .text.core_tx_packet_alloc
                0x0002e76c       0x98 mesh/core/libmesh_core_nrf52840_xxAA.a(core_tx.c.obj)
                0x0002e76c                core_tx_packet_alloc
 .text.core_tx_packet_send
                0x0002e804       0x6c mesh/core/libmesh_core_nrf52840_xxAA.a(core_tx.c.obj)
                0x0002e804                core_tx_packet_send
 .text.core_tx_packet_discard
                0x0002e870       0x6c mesh/core/libmesh_core_nrf52840_xxAA.a(core_tx.c.obj)
                0x0002e870                core_tx_packet_discard
 .text.network_beacon_tx_cb
                0x0002e8dc       0xe0 mesh/core/libmesh_core_nrf52840_xxAA.a(net_beacon.c.obj)
 .text.net_beacon_init
                0x0002e9bc       0x60 mesh/core/libmesh_core_nrf52840_xxAA.a(net_beacon.c.obj)
                0x0002e9bc                net_beacon_init
 .text.net_beacon_packet_in
                0x0002ea1c       0xb8 mesh/core/libmesh_core_nrf52840_xxAA.a(net_beacon.c.obj)
                0x0002ea1c                net_beacon_packet_in
 .text.set_gap_addr_type
                0x0002ead4       0x34 mesh/core/libmesh_core_nrf52840_xxAA.a(advertiser.c.obj)
 .text.tx_complete_event_callback
                0x0002eb08       0x3c mesh/core/libmesh_core_nrf52840_xxAA.a(advertiser.c.obj)
 .text.broadcast_complete_cb
                0x0002eb44       0x64 mesh/core/libmesh_core_nrf52840_xxAA.a(advertiser.c.obj)
 .text.schedule_first_time
                0x0002eba8       0x28 mesh/core/libmesh_core_nrf52840_xxAA.a(advertiser.c.obj)
 .text.timeout_event
                0x0002ebd0      0x130 mesh/core/libmesh_core_nrf52840_xxAA.a(advertiser.c.obj)
 .text.advertiser_init
                0x0002ed00        0xc mesh/core/libmesh_core_nrf52840_xxAA.a(advertiser.c.obj)
                0x0002ed00                advertiser_init
 .text.advertiser_enable
                0x0002ed0c       0x2a mesh/core/libmesh_core_nrf52840_xxAA.a(advertiser.c.obj)
                0x0002ed0c                advertiser_enable
 *fill*         0x0002ed36        0x2 
 .text.advertiser_packet_alloc
                0x0002ed38       0x94 mesh/core/libmesh_core_nrf52840_xxAA.a(advertiser.c.obj)
                0x0002ed38                advertiser_packet_alloc
 .text.advertiser_packet_send
                0x0002edcc       0x78 mesh/core/libmesh_core_nrf52840_xxAA.a(advertiser.c.obj)
                0x0002edcc                advertiser_packet_send
 .text.advertiser_packet_discard
                0x0002ee44       0x2c mesh/core/libmesh_core_nrf52840_xxAA.a(advertiser.c.obj)
                0x0002ee44                advertiser_packet_discard
 .text.advertiser_interval_set
                0x0002ee70       0x68 mesh/core/libmesh_core_nrf52840_xxAA.a(advertiser.c.obj)
                0x0002ee70                advertiser_interval_set
 .text.advertiser_flush
                0x0002eed8       0x1e mesh/core/libmesh_core_nrf52840_xxAA.a(advertiser.c.obj)
                0x0002eed8                advertiser_flush
 *fill*         0x0002eef6        0x2 
 .text.advertiser_address_default_get
                0x0002eef8       0x38 mesh/core/libmesh_core_nrf52840_xxAA.a(advertiser.c.obj)
                0x0002eef8                advertiser_address_default_get
 .text.advertiser_instance_init
                0x0002ef30       0xbc mesh/core/libmesh_core_nrf52840_xxAA.a(advertiser.c.obj)
                0x0002ef30                advertiser_instance_init
 .text.action_switch
                0x0002efec       0xc0 mesh/core/libmesh_core_nrf52840_xxAA.a(bearer_handler.c.obj)
 .text.bearer_handler_init
                0x0002f0ac       0x2c mesh/core/libmesh_core_nrf52840_xxAA.a(bearer_handler.c.obj)
                0x0002f0ac                bearer_handler_init
 .text.bearer_handler_start
                0x0002f0d8       0x1c mesh/core/libmesh_core_nrf52840_xxAA.a(bearer_handler.c.obj)
                0x0002f0d8                bearer_handler_start
 .text.bearer_handler_action_enqueue
                0x0002f0f4       0x94 mesh/core/libmesh_core_nrf52840_xxAA.a(bearer_handler.c.obj)
                0x0002f0f4                bearer_handler_action_enqueue
 .text.bearer_handler_action_end
                0x0002f188       0x78 mesh/core/libmesh_core_nrf52840_xxAA.a(bearer_handler.c.obj)
                0x0002f188                bearer_handler_action_end
 .text.bearer_handler_radio_irq_handler
                0x0002f200       0x64 mesh/core/libmesh_core_nrf52840_xxAA.a(bearer_handler.c.obj)
                0x0002f200                bearer_handler_radio_irq_handler
 .text.bearer_handler_timer_irq_handler
                0x0002f264       0x30 mesh/core/libmesh_core_nrf52840_xxAA.a(bearer_handler.c.obj)
                0x0002f264                bearer_handler_timer_irq_handler
 .text.bearer_handler_on_ts_begin
                0x0002f294       0x44 mesh/core/libmesh_core_nrf52840_xxAA.a(bearer_handler.c.obj)
                0x0002f294                bearer_handler_on_ts_begin
 .text.bearer_handler_on_ts_end
                0x0002f2d8       0x48 mesh/core/libmesh_core_nrf52840_xxAA.a(bearer_handler.c.obj)
                0x0002f2d8                bearer_handler_on_ts_end
 .text.radio_irq_handler
                0x0002f320       0xb0 mesh/core/libmesh_core_nrf52840_xxAA.a(broadcast.c.obj)
 .text.broadcast_start
                0x0002f3d0       0x8c mesh/core/libmesh_core_nrf52840_xxAA.a(broadcast.c.obj)
 .text.broadcast_send
                0x0002f45c       0x80 mesh/core/libmesh_core_nrf52840_xxAA.a(broadcast.c.obj)
                0x0002f45c                broadcast_send
 .text.radio_config_reset
                0x0002f4dc       0x34 mesh/core/libmesh_core_nrf52840_xxAA.a(radio_config.c.obj)
                0x0002f4dc                radio_config_reset
 .text.radio_config_channel_set
                0x0002f510       0x34 mesh/core/libmesh_core_nrf52840_xxAA.a(radio_config.c.obj)
                0x0002f510                radio_config_channel_set
 .text.radio_config_config
                0x0002f544       0x80 mesh/core/libmesh_core_nrf52840_xxAA.a(radio_config.c.obj)
                0x0002f544                radio_config_config
 .text.radio_config_access_addr_set
                0x0002f5c4       0x68 mesh/core/libmesh_core_nrf52840_xxAA.a(radio_config.c.obj)
                0x0002f5c4                radio_config_access_addr_set
 .text.radio_trigger
                0x0002f62c       0x24 mesh/core/libmesh_core_nrf52840_xxAA.a(scanner.c.obj)
 .text.scan_window_end
                0x0002f650       0x10 mesh/core/libmesh_core_nrf52840_xxAA.a(scanner.c.obj)
 .text.scan_window_start
                0x0002f660       0x24 mesh/core/libmesh_core_nrf52840_xxAA.a(scanner.c.obj)
 .text.radio_configure
                0x0002f684       0x78 mesh/core/libmesh_core_nrf52840_xxAA.a(scanner.c.obj)
 .text.radio_set_packet
                0x0002f6fc       0x50 mesh/core/libmesh_core_nrf52840_xxAA.a(scanner.c.obj)
 .text.radio_start
                0x0002f74c       0x4c mesh/core/libmesh_core_nrf52840_xxAA.a(scanner.c.obj)
 .text.radio_stop
                0x0002f798       0x30 mesh/core/libmesh_core_nrf52840_xxAA.a(scanner.c.obj)
 .text.schedule_timers
                0x0002f7c8       0x38 mesh/core/libmesh_core_nrf52840_xxAA.a(scanner.c.obj)
 .text.scanner_radio_start
                0x0002f800       0x28 mesh/core/libmesh_core_nrf52840_xxAA.a(scanner.c.obj)
                0x0002f800                scanner_radio_start
 .text.scanner_radio_stop
                0x0002f828       0x10 mesh/core/libmesh_core_nrf52840_xxAA.a(scanner.c.obj)
                0x0002f828                scanner_radio_stop
 .text.scanner_radio_irq_handler
                0x0002f838      0x124 mesh/core/libmesh_core_nrf52840_xxAA.a(scanner.c.obj)
                0x0002f838                scanner_radio_irq_handler
 .text.scanner_enable
                0x0002f95c       0x30 mesh/core/libmesh_core_nrf52840_xxAA.a(scanner.c.obj)
                0x0002f95c                scanner_enable
 .text.scanner_packet_release
                0x0002f98c       0x38 mesh/core/libmesh_core_nrf52840_xxAA.a(scanner.c.obj)
                0x0002f98c                scanner_packet_release
 .text.scanner_rx
                0x0002f9c4       0x30 mesh/core/libmesh_core_nrf52840_xxAA.a(scanner.c.obj)
                0x0002f9c4                scanner_rx
 .text.scanner_config_scan_time_set
                0x0002f9f4       0x68 mesh/core/libmesh_core_nrf52840_xxAA.a(scanner.c.obj)
                0x0002f9f4                scanner_config_scan_time_set
 .text.scanner_config_channels_set
                0x0002fa5c       0x64 mesh/core/libmesh_core_nrf52840_xxAA.a(scanner.c.obj)
                0x0002fa5c                scanner_config_channels_set
 .text.scanner_config_access_addresses_set
                0x0002fac0       0x44 mesh/core/libmesh_core_nrf52840_xxAA.a(scanner.c.obj)
                0x0002fac0                scanner_config_access_addresses_set
 .text.scanner_config_reset
                0x0002fb04       0x50 mesh/core/libmesh_core_nrf52840_xxAA.a(scanner.c.obj)
                0x0002fb04                scanner_config_reset
 .text.scanner_init
                0x0002fb54       0x48 mesh/core/libmesh_core_nrf52840_xxAA.a(scanner.c.obj)
                0x0002fb54                scanner_init
 .text.internal_event_push
                0x0002fb9c       0x28 mesh/core/libmesh_core_nrf52840_xxAA.a(internal_event.c.obj)
                0x0002fb9c                internal_event_push
 .text.sd_ecb_block_encrypt
                0x0002fbc4        0x4 mesh/core/libmesh_core_nrf52840_xxAA.a(aes.c.obj)
 .text.aes_encrypt
                0x0002fbc8       0x32 mesh/core/libmesh_core_nrf52840_xxAA.a(aes.c.obj)
                0x0002fbc8                aes_encrypt
 *fill*         0x0002fbfa        0x2 
 .text.msg_cache_init
                0x0002fbfc       0x24 mesh/core/libmesh_core_nrf52840_xxAA.a(msg_cache.c.obj)
                0x0002fbfc                msg_cache_init
 .text.msg_cache_entry_exists
                0x0002fc20       0x3c mesh/core/libmesh_core_nrf52840_xxAA.a(msg_cache.c.obj)
                0x0002fc20                msg_cache_entry_exists
 .text.msg_cache_entry_add
                0x0002fc5c       0x2c mesh/core/libmesh_core_nrf52840_xxAA.a(msg_cache.c.obj)
                0x0002fc5c                msg_cache_entry_add
 .text.block_ack_full
                0x0002fc88       0x28 mesh/core/libmesh_core_nrf52840_xxAA.a(transport.c.obj)
 .text.seqauth_sequence_number_get
                0x0002fcb0       0x12 mesh/core/libmesh_core_nrf52840_xxAA.a(transport.c.obj)
 *fill*         0x0002fcc2        0x2 
 .text.sar_rx_session_mark_as_handled
                0x0002fcc4       0x54 mesh/core/libmesh_core_nrf52840_xxAA.a(transport.c.obj)
 .text.sar_ctx_find
                0x0002fd18       0x3c mesh/core/libmesh_core_nrf52840_xxAA.a(transport.c.obj)
 .text.m_send_sar_cancel_event
                0x0002fd54       0x28 mesh/core/libmesh_core_nrf52840_xxAA.a(transport.c.obj)
 .text.tx_complete
                0x0002fd7c       0x34 mesh/core/libmesh_core_nrf52840_xxAA.a(transport.c.obj)
 .text.upper_trs_packet_alloc
                0x0002fdb0       0x2e mesh/core/libmesh_core_nrf52840_xxAA.a(transport.c.obj)
 *fill*         0x0002fdde        0x2 
 .text.upper_trs_packet_encrypt
                0x0002fde0       0xbc mesh/core/libmesh_core_nrf52840_xxAA.a(transport.c.obj)
 .text.sar_ctx_free
                0x0002fe9c       0x3c mesh/core/libmesh_core_nrf52840_xxAA.a(transport.c.obj)
 .text.sar_ctx_tx_complete
                0x0002fed8       0x3c mesh/core/libmesh_core_nrf52840_xxAA.a(transport.c.obj)
 .text.sar_ctx_cancel
                0x0002ff14      0x108 mesh/core/libmesh_core_nrf52840_xxAA.a(transport.c.obj)
 .text.abort_timeout
                0x0003001c        0x8 mesh/core/libmesh_core_nrf52840_xxAA.a(transport.c.obj)
 .text.sar_ctx_alloc
                0x00030024       0xb8 mesh/core/libmesh_core_nrf52840_xxAA.a(transport.c.obj)
 .text.test_transport_decrypt
                0x000300dc       0x88 mesh/core/libmesh_core_nrf52840_xxAA.a(transport.c.obj)
 .text.upper_transport_access_packet_in
                0x00030164      0x28c mesh/core/libmesh_core_nrf52840_xxAA.a(transport.c.obj)
 .text.trs_packet_header_build
                0x000303f0       0xa6 mesh/core/libmesh_core_nrf52840_xxAA.a(transport.c.obj)
 *fill*         0x00030496        0x2 
 .text.trs_sar_packet_out
                0x00030498       0xbc mesh/core/libmesh_core_nrf52840_xxAA.a(transport.c.obj)
 .text.retry_timeout
                0x00030554       0x54 mesh/core/libmesh_core_nrf52840_xxAA.a(transport.c.obj)
 .text.sar_ack_send
                0x000305a8      0x128 mesh/core/libmesh_core_nrf52840_xxAA.a(transport.c.obj)
 .text.ack_timeout
                0x000306d0       0x34 mesh/core/libmesh_core_nrf52840_xxAA.a(transport.c.obj)
 .text.tx_retry_timer_reset
                0x00030704       0x50 mesh/core/libmesh_core_nrf52840_xxAA.a(transport.c.obj)
 .text.upper_transport_packet_in
                0x00030754      0x164 mesh/core/libmesh_core_nrf52840_xxAA.a(transport.c.obj)
 .text.transport_sar_process
                0x000308b8       0x70 mesh/core/libmesh_core_nrf52840_xxAA.a(transport.c.obj)
 .text.transport_sar_mem_funcs_reset
                0x00030928       0x28 mesh/core/libmesh_core_nrf52840_xxAA.a(transport.c.obj)
                0x00030928                transport_sar_mem_funcs_reset
 .text.transport_init
                0x00030950       0x78 mesh/core/libmesh_core_nrf52840_xxAA.a(transport.c.obj)
                0x00030950                transport_init
 .text.transport_packet_in
                0x000309c8      0x4f4 mesh/core/libmesh_core_nrf52840_xxAA.a(transport.c.obj)
                0x000309c8                transport_packet_in
 .text.transport_tx
                0x00030ebc      0x2ac mesh/core/libmesh_core_nrf52840_xxAA.a(transport.c.obj)
                0x00030ebc                transport_tx
 .text.m_adjust_desired_packet_length
                0x00031168       0x34 mesh/core/libmesh_core_nrf52840_xxAA.a(packet_buffer.c.obj)
 .text.m_index_increment.part.0
                0x0003119c       0x14 mesh/core/libmesh_core_nrf52840_xxAA.a(packet_buffer.c.obj)
 .text.m_free_popped_packet
                0x000311b0       0x60 mesh/core/libmesh_core_nrf52840_xxAA.a(packet_buffer.c.obj)
 .text.free_skipped_packets
                0x00031210       0x1c mesh/core/libmesh_core_nrf52840_xxAA.a(packet_buffer.c.obj)
 .text.packet_buffer_init
                0x0003122c       0xe0 mesh/core/libmesh_core_nrf52840_xxAA.a(packet_buffer.c.obj)
                0x0003122c                packet_buffer_init
 .text.packet_buffer_flush
                0x0003130c       0x5e mesh/core/libmesh_core_nrf52840_xxAA.a(packet_buffer.c.obj)
                0x0003130c                packet_buffer_flush
 *fill*         0x0003136a        0x2 
 .text.packet_buffer_reserve
                0x0003136c      0x11c mesh/core/libmesh_core_nrf52840_xxAA.a(packet_buffer.c.obj)
                0x0003136c                packet_buffer_reserve
 .text.packet_buffer_commit
                0x00031488      0x104 mesh/core/libmesh_core_nrf52840_xxAA.a(packet_buffer.c.obj)
                0x00031488                packet_buffer_commit
 .text.packet_buffer_pop
                0x0003158c       0x58 mesh/core/libmesh_core_nrf52840_xxAA.a(packet_buffer.c.obj)
                0x0003158c                packet_buffer_pop
 .text.packet_buffer_can_pop
                0x000315e4       0x28 mesh/core/libmesh_core_nrf52840_xxAA.a(packet_buffer.c.obj)
                0x000315e4                packet_buffer_can_pop
 .text.packet_buffer_packets_ready_to_pop
                0x0003160c       0x58 mesh/core/libmesh_core_nrf52840_xxAA.a(packet_buffer.c.obj)
                0x0003160c                packet_buffer_packets_ready_to_pop
 .text.packet_buffer_free
                0x00031664       0x8c mesh/core/libmesh_core_nrf52840_xxAA.a(packet_buffer.c.obj)
                0x00031664                packet_buffer_free
 .text.get_last_page
                0x000316f0       0x14 mesh/core/libmesh_core_nrf52840_xxAA.a(flash_manager_defrag.c.obj)
 .text.defrag_on_end
                0x00031704       0x1c mesh/core/libmesh_core_nrf52840_xxAA.a(flash_manager_defrag.c.obj)
 .text.execute_procedure_step
                0x00031720       0xa0 mesh/core/libmesh_core_nrf52840_xxAA.a(flash_manager_defrag.c.obj)
 .text.get_next_entry
                0x000317c0       0x40 mesh/core/libmesh_core_nrf52840_xxAA.a(flash_manager_defrag.c.obj)
 .text.get_next_data_entry
                0x00031800       0x20 mesh/core/libmesh_core_nrf52840_xxAA.a(flash_manager_defrag.c.obj)
 .text.on_flash_op_end
                0x00031820       0x30 mesh/core/libmesh_core_nrf52840_xxAA.a(flash_manager_defrag.c.obj)
 .text.check_for_invalid_entries
                0x00031850       0x38 mesh/core/libmesh_core_nrf52840_xxAA.a(flash_manager_defrag.c.obj)
 .text.erase_recovery_area
                0x00031888       0x34 mesh/core/libmesh_core_nrf52840_xxAA.a(flash_manager_defrag.c.obj)
 .text.flash.constprop.6
                0x000318bc       0x24 mesh/core/libmesh_core_nrf52840_xxAA.a(flash_manager_defrag.c.obj)
 .text.seal_storage_page
                0x000318e0       0x50 mesh/core/libmesh_core_nrf52840_xxAA.a(flash_manager_defrag.c.obj)
 .text.invalidate_duplicate_entries
                0x00031930       0x9c mesh/core/libmesh_core_nrf52840_xxAA.a(flash_manager_defrag.c.obj)
 .text.copy_metadata
                0x000319cc       0x3c mesh/core/libmesh_core_nrf52840_xxAA.a(flash_manager_defrag.c.obj)
 .text.write_defrag_start_pointer
                0x00031a08       0x20 mesh/core/libmesh_core_nrf52840_xxAA.a(flash_manager_defrag.c.obj)
 .text.write_back
                0x00031a28       0x28 mesh/core/libmesh_core_nrf52840_xxAA.a(flash_manager_defrag.c.obj)
 .text.post_process
                0x00031a50       0x40 mesh/core/libmesh_core_nrf52840_xxAA.a(flash_manager_defrag.c.obj)
 .text.backup_entries
                0x00031a90      0x118 mesh/core/libmesh_core_nrf52840_xxAA.a(flash_manager_defrag.c.obj)
 .text.erase_source
                0x00031ba8       0x34 mesh/core/libmesh_core_nrf52840_xxAA.a(flash_manager_defrag.c.obj)
 .text.flash_manager_defrag_init
                0x00031bdc       0x94 mesh/core/libmesh_core_nrf52840_xxAA.a(flash_manager_defrag.c.obj)
                0x00031bdc                flash_manager_defrag_init
 .text.flash_manager_defrag_is_running
                0x00031c70       0x10 mesh/core/libmesh_core_nrf52840_xxAA.a(flash_manager_defrag.c.obj)
                0x00031c70                flash_manager_defrag_is_running
 .text.flash_manager_defrag
                0x00031c80       0xd8 mesh/core/libmesh_core_nrf52840_xxAA.a(flash_manager_defrag.c.obj)
                0x00031c80                flash_manager_defrag
 .text.flash_manager_defrag_recovery_page_get
                0x00031d58        0xc mesh/core/libmesh_core_nrf52840_xxAA.a(flash_manager_defrag.c.obj)
                0x00031d58                flash_manager_defrag_recovery_page_get
 .text.fifo_init
                0x00031d64       0x50 mesh/core/libmesh_core_nrf52840_xxAA.a(fifo.c.obj)
                0x00031d64                fifo_init
 .text.fifo_push
                0x00031db4       0x50 mesh/core/libmesh_core_nrf52840_xxAA.a(fifo.c.obj)
                0x00031db4                fifo_push
 .text.fifo_pop
                0x00031e04       0x52 mesh/core/libmesh_core_nrf52840_xxAA.a(fifo.c.obj)
                0x00031e04                fifo_pop
 *fill*         0x00031e56        0x2 
 .text.send_end_events
                0x00031e58       0x80 mesh/core/libmesh_core_nrf52840_xxAA.a(mesh_flash.c.obj)
 .text.flash_op_schedule
                0x00031ed8       0x9c mesh/core/libmesh_core_nrf52840_xxAA.a(mesh_flash.c.obj)
 .text.flash_op_start
                0x00031f74      0x170 mesh/core/libmesh_core_nrf52840_xxAA.a(mesh_flash.c.obj)
 .text.mesh_flash_init
                0x000320e4       0x88 mesh/core/libmesh_core_nrf52840_xxAA.a(mesh_flash.c.obj)
                0x000320e4                mesh_flash_init
 .text.mesh_flash_user_callback_set
                0x0003216c       0x2c mesh/core/libmesh_core_nrf52840_xxAA.a(mesh_flash.c.obj)
                0x0003216c                mesh_flash_user_callback_set
 .text.mesh_flash_op_push
                0x00032198      0x128 mesh/core/libmesh_core_nrf52840_xxAA.a(mesh_flash.c.obj)
                0x00032198                mesh_flash_op_push
 .text.queue_init
                0x000322c0       0x20 mesh/core/libmesh_core_nrf52840_xxAA.a(queue.c.obj)
                0x000322c0                queue_init
 .text.queue_push
                0x000322e0       0x48 mesh/core/libmesh_core_nrf52840_xxAA.a(queue.c.obj)
                0x000322e0                queue_push
 .text.queue_pop
                0x00032328       0x34 mesh/core/libmesh_core_nrf52840_xxAA.a(queue.c.obj)
                0x00032328                queue_pop
 .text.queue_peek
                0x0003235c       0x1c mesh/core/libmesh_core_nrf52840_xxAA.a(queue.c.obj)
                0x0003235c                queue_peek
 .text.my_xor.constprop.1
                0x00032378       0x20 mesh/core/libmesh_core_nrf52840_xxAA.a(aes_cmac.c.obj)
 .text.utils_lshift.constprop.2
                0x00032398       0x24 mesh/core/libmesh_core_nrf52840_xxAA.a(aes_cmac.c.obj)
 .text.aes_cmac_subkey_generate
                0x000323bc       0x6c mesh/core/libmesh_core_nrf52840_xxAA.a(aes_cmac.c.obj)
                0x000323bc                aes_cmac_subkey_generate
 .text.aes_cmac
                0x00032428       0xbc mesh/core/libmesh_core_nrf52840_xxAA.a(aes_cmac.c.obj)
                0x00032428                aes_cmac
 .text.stage_get_available
                0x000324e4       0x24 mesh/core/libmesh_core_nrf52840_xxAA.a(msqueue.c.obj)
 .text.msq_get  0x00032508       0x4c mesh/core/libmesh_core_nrf52840_xxAA.a(msqueue.c.obj)
                0x00032508                msq_get
 .text.msq_move
                0x00032554       0x44 mesh/core/libmesh_core_nrf52840_xxAA.a(msqueue.c.obj)
                0x00032554                msq_move
 .text.msq_reset
                0x00032598       0x2c mesh/core/libmesh_core_nrf52840_xxAA.a(msqueue.c.obj)
                0x00032598                msq_reset
 .text.msq_init
                0x000325c4       0x78 mesh/core/libmesh_core_nrf52840_xxAA.a(msqueue.c.obj)
                0x000325c4                msq_init
 .text.msq_available
                0x0003263c       0x3c mesh/core/libmesh_core_nrf52840_xxAA.a(msqueue.c.obj)
                0x0003263c                msq_available
 .text.replay_cache_add
                0x00032678       0x60 mesh/core/libmesh_core_nrf52840_xxAA.a(replay_cache.c.obj)
                0x00032678                replay_cache_add
 .text.replay_cache_has_room
                0x000326d8       0x38 mesh/core/libmesh_core_nrf52840_xxAA.a(replay_cache.c.obj)
                0x000326d8                replay_cache_has_room
 .text.replay_cache_has_elem
                0x00032710       0x38 mesh/core/libmesh_core_nrf52840_xxAA.a(replay_cache.c.obj)
                0x00032710                replay_cache_has_elem
 .text.replay_cache_clear
                0x00032748       0x28 mesh/core/libmesh_core_nrf52840_xxAA.a(replay_cache.c.obj)
                0x00032748                replay_cache_clear
 .text.replay_cache_init
                0x00032770        0x4 mesh/core/libmesh_core_nrf52840_xxAA.a(replay_cache.c.obj)
                0x00032770                replay_cache_init
 .text.fen_filters_apply
                0x00032774       0x34 mesh/core/libmesh_core_nrf52840_xxAA.a(filter_engine.c.obj)
                0x00032774                fen_filters_apply
 .text.wait_for_ready
                0x000327a8       0x10 mesh/core/libmesh_core_nrf52840_xxAA.a(nrf_flash.c.obj)
 .text.nrf_flash_erase
                0x000327b8       0x50 mesh/core/libmesh_core_nrf52840_xxAA.a(nrf_flash.c.obj)
                0x000327b8                nrf_flash_erase
 .text.nrf_flash_write
                0x00032808       0x50 mesh/core/libmesh_core_nrf52840_xxAA.a(nrf_flash.c.obj)
                0x00032808                nrf_flash_write
 .text._GetAvailWriteSpace
                0x00032858       0x1c external/rtt/librtt_nrf52840_xxAA.a(SEGGER_RTT.c.obj)
 .text._WriteNoCheck
                0x00032874       0x3c external/rtt/librtt_nrf52840_xxAA.a(SEGGER_RTT.c.obj)
 .text._WriteBlocking
                0x000328b0       0x52 external/rtt/librtt_nrf52840_xxAA.a(SEGGER_RTT.c.obj)
 *fill*         0x00032902        0x2 
 .text._DoInit  0x00032904       0x60 external/rtt/librtt_nrf52840_xxAA.a(SEGGER_RTT.c.obj)
 .text.SEGGER_RTT_ReadNoLock
                0x00032964       0x88 external/rtt/librtt_nrf52840_xxAA.a(SEGGER_RTT.c.obj)
                0x00032964                SEGGER_RTT_ReadNoLock
 .text.SEGGER_RTT_Read
                0x000329ec       0x1c external/rtt/librtt_nrf52840_xxAA.a(SEGGER_RTT.c.obj)
                0x000329ec                SEGGER_RTT_Read
 .text.SEGGER_RTT_WriteNoLock
                0x00032a08       0x68 external/rtt/librtt_nrf52840_xxAA.a(SEGGER_RTT.c.obj)
                0x00032a08                SEGGER_RTT_WriteNoLock
 .text.SEGGER_RTT_Write
                0x00032a70       0x34 external/rtt/librtt_nrf52840_xxAA.a(SEGGER_RTT.c.obj)
                0x00032a70                SEGGER_RTT_Write
 .text.SEGGER_RTT_GetKey
                0x00032aa4       0x20 external/rtt/librtt_nrf52840_xxAA.a(SEGGER_RTT.c.obj)
                0x00032aa4                SEGGER_RTT_GetKey
 .text._StoreChar
                0x00032ac4       0x3e external/rtt/librtt_nrf52840_xxAA.a(SEGGER_RTT_printf.c.obj)
 *fill*         0x00032b02        0x2 
 .text._PrintUnsigned
                0x00032b04       0xd0 external/rtt/librtt_nrf52840_xxAA.a(SEGGER_RTT_printf.c.obj)
 .text.SEGGER_RTT_vprintf
                0x00032bd4      0x246 external/rtt/librtt_nrf52840_xxAA.a(SEGGER_RTT_printf.c.obj)
                0x00032bd4                SEGGER_RTT_vprintf
 .text.SEGGER_RTT_printf
                0x00032e1a       0x1e external/rtt/librtt_nrf52840_xxAA.a(SEGGER_RTT_printf.c.obj)
                0x00032e1a                SEGGER_RTT_printf
 .text.uECC_vli_mult
                0x00032e38       0x64 external/micro-ecc/libuECC_nrf52840_xxAA.a(uECC.c.obj)
 .text.uECC_vli_clear
                0x00032e9c       0x16 external/micro-ecc/libuECC_nrf52840_xxAA.a(uECC.c.obj)
 .text.uECC_vli_isZero
                0x00032eb2       0x1e external/micro-ecc/libuECC_nrf52840_xxAA.a(uECC.c.obj)
 .text.uECC_vli_testBit
                0x00032ed0       0x14 external/micro-ecc/libuECC_nrf52840_xxAA.a(uECC.c.obj)
 .text.uECC_vli_numBits
                0x00032ee4       0x3a external/micro-ecc/libuECC_nrf52840_xxAA.a(uECC.c.obj)
 .text.uECC_vli_set
                0x00032f1e       0x18 external/micro-ecc/libuECC_nrf52840_xxAA.a(uECC.c.obj)
 .text.uECC_vli_cmp_unsafe
                0x00032f36       0x28 external/micro-ecc/libuECC_nrf52840_xxAA.a(uECC.c.obj)
 .text.uECC_vli_rshift1
                0x00032f5e       0x1c external/micro-ecc/libuECC_nrf52840_xxAA.a(uECC.c.obj)
 .text.uECC_vli_modMult_fast
                0x00032f7a       0x20 external/micro-ecc/libuECC_nrf52840_xxAA.a(uECC.c.obj)
 .text.uECC_vli_modSquare_fast
                0x00032f9a        0x8 external/micro-ecc/libuECC_nrf52840_xxAA.a(uECC.c.obj)
 .text.apply_z  0x00032fa2       0x3e external/micro-ecc/libuECC_nrf52840_xxAA.a(uECC.c.obj)
 .text.uECC_vli_nativeToBytes
                0x00032fe0       0x28 external/micro-ecc/libuECC_nrf52840_xxAA.a(uECC.c.obj)
 .text.uECC_vli_bytesToNative
                0x00033008       0x40 external/micro-ecc/libuECC_nrf52840_xxAA.a(uECC.c.obj)
 .text.default_RNG
                0x00033048        0xc external/micro-ecc/libuECC_nrf52840_xxAA.a(uECC.c.obj)
 .text.uECC_vli_add.isra.0
                0x00033054       0x4a external/micro-ecc/libuECC_nrf52840_xxAA.a(uECC.c.obj)
 .text.regularize_k
                0x0003309e       0x50 external/micro-ecc/libuECC_nrf52840_xxAA.a(uECC.c.obj)
 .text.uECC_vli_sub.isra.1
                0x000330ee       0x4e external/micro-ecc/libuECC_nrf52840_xxAA.a(uECC.c.obj)
 .text.uECC_vli_cmp
                0x0003313c       0x30 external/micro-ecc/libuECC_nrf52840_xxAA.a(uECC.c.obj)
 .text.uECC_generate_random_int
                0x0003316c       0x78 external/micro-ecc/libuECC_nrf52840_xxAA.a(uECC.c.obj)
 .text.uECC_vli_modAdd
                0x000331e4       0x2e external/micro-ecc/libuECC_nrf52840_xxAA.a(uECC.c.obj)
 *fill*         0x00033212        0x2 
 .text.vli_mmod_fast_secp256r1
                0x00033214      0x194 external/micro-ecc/libuECC_nrf52840_xxAA.a(uECC.c.obj)
 .text.uECC_vli_modSub.isra.2
                0x000333a8       0x1c external/micro-ecc/libuECC_nrf52840_xxAA.a(uECC.c.obj)
 .text.double_jacobian_default
                0x000333c4      0x14a external/micro-ecc/libuECC_nrf52840_xxAA.a(uECC.c.obj)
 .text.x_side_default
                0x0003350e       0x5a external/micro-ecc/libuECC_nrf52840_xxAA.a(uECC.c.obj)
 .text.XYcZ_add
                0x00033568       0xbc external/micro-ecc/libuECC_nrf52840_xxAA.a(uECC.c.obj)
 .text.XYcZ_addC
                0x00033624      0x10a external/micro-ecc/libuECC_nrf52840_xxAA.a(uECC.c.obj)
 .text.vli_modInv_update
                0x0003372e       0x36 external/micro-ecc/libuECC_nrf52840_xxAA.a(uECC.c.obj)
 .text.uECC_vli_modInv
                0x00033764      0x102 external/micro-ecc/libuECC_nrf52840_xxAA.a(uECC.c.obj)
 .text.EccPoint_mult
                0x00033866      0x19e external/micro-ecc/libuECC_nrf52840_xxAA.a(uECC.c.obj)
 .text.EccPoint_compute_public_key
                0x00033a04       0x54 external/micro-ecc/libuECC_nrf52840_xxAA.a(uECC.c.obj)
 .text.uECC_secp256r1
                0x00033a58        0x8 external/micro-ecc/libuECC_nrf52840_xxAA.a(uECC.c.obj)
                0x00033a58                uECC_secp256r1
 .text.uECC_make_key
                0x00033a60       0x7e external/micro-ecc/libuECC_nrf52840_xxAA.a(uECC.c.obj)
                0x00033a60                uECC_make_key
 *fill*         0x00033ade        0x2 
 .text.uECC_shared_secret
                0x00033ae0       0xbc external/micro-ecc/libuECC_nrf52840_xxAA.a(uECC.c.obj)
                0x00033ae0                uECC_shared_secret
 .text.uECC_valid_point
                0x00033b9c       0x86 external/micro-ecc/libuECC_nrf52840_xxAA.a(uECC.c.obj)
                0x00033b9c                uECC_valid_point
 .text.uECC_valid_public_key
                0x00033c22       0x32 external/micro-ecc/libuECC_nrf52840_xxAA.a(uECC.c.obj)
                0x00033c22                uECC_valid_public_key
 .text.exit     0x00033c54       0x28 c:/a/gcc_arm/6/bin/../lib/gcc/arm-none-eabi/6.3.1/../../../../arm-none-eabi/lib/thumb/v7e-m/fpv4-sp/hard\libc_nano.a(lib_a-exit.o)
                0x00033c54                exit
 .text.__libc_init_array
                0x00033c7c       0x48 c:/a/gcc_arm/6/bin/../lib/gcc/arm-none-eabi/6.3.1/../../../../arm-none-eabi/lib/thumb/v7e-m/fpv4-sp/hard\libc_nano.a(lib_a-init.o)
                0x00033c7c                __libc_init_array
 .text.malloc   0x00033cc4       0x10 c:/a/gcc_arm/6/bin/../lib/gcc/arm-none-eabi/6.3.1/../../../../arm-none-eabi/lib/thumb/v7e-m/fpv4-sp/hard\libc_nano.a(lib_a-malloc.o)
                0x00033cc4                malloc
 .text.free     0x00033cd4       0x10 c:/a/gcc_arm/6/bin/../lib/gcc/arm-none-eabi/6.3.1/../../../../arm-none-eabi/lib/thumb/v7e-m/fpv4-sp/hard\libc_nano.a(lib_a-malloc.o)
                0x00033cd4                free
 .text.memcmp   0x00033ce4       0x1e c:/a/gcc_arm/6/bin/../lib/gcc/arm-none-eabi/6.3.1/../../../../arm-none-eabi/lib/thumb/v7e-m/fpv4-sp/hard\libc_nano.a(lib_a-memcmp.o)
                0x00033ce4                memcmp
 .text.memcpy   0x00033d02       0x16 c:/a/gcc_arm/6/bin/../lib/gcc/arm-none-eabi/6.3.1/../../../../arm-none-eabi/lib/thumb/v7e-m/fpv4-sp/hard\libc_nano.a(lib_a-memcpy-stub.o)
                0x00033d02                memcpy
 .text.memset   0x00033d18       0x10 c:/a/gcc_arm/6/bin/../lib/gcc/arm-none-eabi/6.3.1/../../../../arm-none-eabi/lib/thumb/v7e-m/fpv4-sp/hard\libc_nano.a(lib_a-memset.o)
                0x00033d18                memset
 .text._free_r  0x00033d28       0x9c c:/a/gcc_arm/6/bin/../lib/gcc/arm-none-eabi/6.3.1/../../../../arm-none-eabi/lib/thumb/v7e-m/fpv4-sp/hard\libc_nano.a(lib_a-nano-freer.o)
                0x00033d28                _free_r
 .text._malloc_r
                0x00033dc4       0xbc c:/a/gcc_arm/6/bin/../lib/gcc/arm-none-eabi/6.3.1/../../../../arm-none-eabi/lib/thumb/v7e-m/fpv4-sp/hard\libc_nano.a(lib_a-nano-mallocr.o)
                0x00033dc4                _malloc_r
 .text._sbrk_r  0x00033e80       0x20 c:/a/gcc_arm/6/bin/../lib/gcc/arm-none-eabi/6.3.1/../../../../arm-none-eabi/lib/thumb/v7e-m/fpv4-sp/hard\libc_nano.a(lib_a-sbrkr.o)
                0x00033e80                _sbrk_r
 .text.strcpy   0x00033ea0       0x10 c:/a/gcc_arm/6/bin/../lib/gcc/arm-none-eabi/6.3.1/../../../../arm-none-eabi/lib/thumb/v7e-m/fpv4-sp/hard\libc_nano.a(lib_a-strcpy.o)
                0x00033ea0                strcpy
 .text          0x00033eb0       0x10 c:/a/gcc_arm/6/bin/../lib/gcc/arm-none-eabi/6.3.1/../../../../arm-none-eabi/lib/thumb/v7e-m/fpv4-sp/hard\libc_nano.a(lib_a-strlen.o)
                0x00033eb0                strlen
 .text.strrchr  0x00033ec0       0x26 c:/a/gcc_arm/6/bin/../lib/gcc/arm-none-eabi/6.3.1/../../../../arm-none-eabi/lib/thumb/v7e-m/fpv4-sp/hard\libc_nano.a(lib_a-strrchr.o)
                0x00033ec0                strrchr
 .text.__malloc_lock
                0x00033ee6        0x2 c:/a/gcc_arm/6/bin/../lib/gcc/arm-none-eabi/6.3.1/../../../../arm-none-eabi/lib/thumb/v7e-m/fpv4-sp/hard\libc_nano.a(lib_a-mlock.o)
                0x00033ee6                __malloc_lock
 .text.__malloc_unlock
                0x00033ee8        0x2 c:/a/gcc_arm/6/bin/../lib/gcc/arm-none-eabi/6.3.1/../../../../arm-none-eabi/lib/thumb/v7e-m/fpv4-sp/hard\libc_nano.a(lib_a-mlock.o)
                0x00033ee8                __malloc_unlock
 .text.strchr   0x00033eea       0x1c c:/a/gcc_arm/6/bin/../lib/gcc/arm-none-eabi/6.3.1/../../../../arm-none-eabi/lib/thumb/v7e-m/fpv4-sp/hard\libc_nano.a(lib_a-strchr.o)
                0x00033eea                strchr
 *fill*         0x00033f06        0x2 
 .text._sbrk    0x00033f08       0x1c c:/a/gcc_arm/6/bin/../lib/gcc/arm-none-eabi/6.3.1/../../../../arm-none-eabi/lib/thumb/v7e-m/fpv4-sp/hard\libnosys.a(sbrk.o)
                0x00033f08                _sbrk
 .text._exit    0x00033f24        0x4 c:/a/gcc_arm/6/bin/../lib/gcc/arm-none-eabi/6.3.1/../../../../arm-none-eabi/lib/thumb/v7e-m/fpv4-sp/hard\libnosys.a(_exit.o)
                0x00033f24                _exit
 *(.init)
 .init          0x00033f28        0x4 c:/a/gcc_arm/6/bin/../lib/gcc/arm-none-eabi/6.3.1/thumb/v7e-m/fpv4-sp/hard/crti.o
                0x00033f28                _init
 .init          0x00033f2c        0x8 c:/a/gcc_arm/6/bin/../lib/gcc/arm-none-eabi/6.3.1/thumb/v7e-m/fpv4-sp/hard/crtn.o
 *(.fini)
 .fini          0x00033f34        0x4 c:/a/gcc_arm/6/bin/../lib/gcc/arm-none-eabi/6.3.1/thumb/v7e-m/fpv4-sp/hard/crti.o
                0x00033f34                _fini
 .fini          0x00033f38        0x8 c:/a/gcc_arm/6/bin/../lib/gcc/arm-none-eabi/6.3.1/thumb/v7e-m/fpv4-sp/hard/crtn.o
 *crtbegin.o(.ctors)
 *crtbegin?.o(.ctors)
 *(EXCLUDE_FILE(*crtend.o *crtend?.o) .ctors)
 *(SORT(.ctors.*))
 *(.ctors)
 *crtbegin.o(.dtors)
 *crtbegin?.o(.dtors)
 *(EXCLUDE_FILE(*crtend.o *crtend?.o) .dtors)
 *(SORT(.dtors.*))
 *(.dtors)
 *(.rodata*)
 .rodata        0x00033f40        0x4 examples/light_switch/client/CMakeFiles/light_switch_client_nrf52840_xxAA_s140_5.0.0-3.alpha.dir/src/main.c.obj
 .rodata.button_event_handler.str1.1
                0x00033f44       0x94 examples/light_switch/client/CMakeFiles/light_switch_client_nrf52840_xxAA_s140_5.0.0-3.alpha.dir/src/main.c.obj
 .rodata.health_event_cb.str1.1
                0x00033fd8       0x35 examples/light_switch/client/CMakeFiles/light_switch_client_nrf52840_xxAA_s140_5.0.0-3.alpha.dir/src/main.c.obj
 .rodata.m_appkey
                0x0003400d       0x10 examples/light_switch/client/CMakeFiles/light_switch_client_nrf52840_xxAA_s140_5.0.0-3.alpha.dir/src/main.c.obj
 .rodata.m_netkey
                0x0003401d       0x10 examples/light_switch/client/CMakeFiles/light_switch_client_nrf52840_xxAA_s140_5.0.0-3.alpha.dir/src/main.c.obj
 .rodata.main.str1.1
                0x0003402d       0x53 examples/light_switch/client/CMakeFiles/light_switch_client_nrf52840_xxAA_s140_5.0.0-3.alpha.dir/src/main.c.obj
 .rodata.provisioner_config_failed_cb.str1.1
                0x00034080       0x23 examples/light_switch/client/CMakeFiles/light_switch_client_nrf52840_xxAA_s140_5.0.0-3.alpha.dir/src/main.c.obj
 .rodata.provisioner_config_successful_cb.str1.1
                0x000340a3       0x40 examples/light_switch/client/CMakeFiles/light_switch_client_nrf52840_xxAA_s140_5.0.0-3.alpha.dir/src/main.c.obj
 .rodata.provisioner_prov_complete_cb.str1.1
                0x000340e3       0x2f examples/light_switch/client/CMakeFiles/light_switch_client_nrf52840_xxAA_s140_5.0.0-3.alpha.dir/src/main.c.obj
 .rodata        0x00034112       0x20 examples/light_switch/client/CMakeFiles/light_switch_client_nrf52840_xxAA_s140_5.0.0-3.alpha.dir/src/provisioner.c.obj
 .rodata.config_client_event_cb.str1.1
                0x00034132       0x19 examples/light_switch/client/CMakeFiles/light_switch_client_nrf52840_xxAA_s140_5.0.0-3.alpha.dir/src/provisioner.c.obj
 .rodata.do_config_step.str1.1
                0x0003414b      0x139 examples/light_switch/client/CMakeFiles/light_switch_client_nrf52840_xxAA_s140_5.0.0-3.alpha.dir/src/provisioner.c.obj
 .rodata.mesh_evt_handler.str1.1
                0x00034284       0xea examples/light_switch/client/CMakeFiles/light_switch_client_nrf52840_xxAA_s140_5.0.0-3.alpha.dir/src/provisioner.c.obj
 .rodata.HardFault_Handler.str1.1
                0x0003436e        0xe examples/light_switch/client/CMakeFiles/light_switch_client_nrf52840_xxAA_s140_5.0.0-3.alpha.dir/__/__/nrf_mesh_sdk.c.obj
 .rodata.app_error_handler.str1.1
                0x0003437c       0x1d examples/light_switch/client/CMakeFiles/light_switch_client_nrf52840_xxAA_s140_5.0.0-3.alpha.dir/__/__/nrf_mesh_sdk.c.obj
 .rodata.mesh_assert_handler.str1.1
                0x00034399       0x34 examples/light_switch/client/CMakeFiles/light_switch_client_nrf52840_xxAA_s140_5.0.0-3.alpha.dir/__/__/nrf_mesh_sdk.c.obj
 .rodata.mesh_core_setup.str1.1
                0x000343cd       0x47 examples/light_switch/client/CMakeFiles/light_switch_client_nrf52840_xxAA_s140_5.0.0-3.alpha.dir/__/__/nrf_mesh_sdk.c.obj
 .rodata.mesh_softdevice_enable.str1.1
                0x00034414       0x65 examples/light_switch/client/CMakeFiles/light_switch_client_nrf52840_xxAA_s140_5.0.0-3.alpha.dir/__/__/nrf_mesh_sdk.c.obj
 .rodata.softdevice_assert_handler.str1.1
                0x00034479       0x1d examples/light_switch/client/CMakeFiles/light_switch_client_nrf52840_xxAA_s140_5.0.0-3.alpha.dir/__/__/nrf_mesh_sdk.c.obj
 .rodata.m_buttons_list
                0x00034496        0x4 examples/light_switch/client/CMakeFiles/light_switch_client_nrf52840_xxAA_s140_5.0.0-3.alpha.dir/__/__/hal/src/simple_hal.c.obj
 *fill*         0x0003449a        0x2 
 .rodata.m_opcode_handlers
                0x0003449c        0x8 examples/light_switch/client/CMakeFiles/light_switch_client_nrf52840_xxAA_s140_5.0.0-3.alpha.dir/__/__/__/models/simple_on_off/src/simple_on_off_client.c.obj
 .rodata.m_config_message_lut
                0x000344a4       0x48 examples/light_switch/client/CMakeFiles/light_switch_client_nrf52840_xxAA_s140_5.0.0-3.alpha.dir/__/__/__/models/config/src/config_client.c.obj
 .rodata.m_opcode_handlers
                0x000344ec       0x60 examples/light_switch/client/CMakeFiles/light_switch_client_nrf52840_xxAA_s140_5.0.0-3.alpha.dir/__/__/__/models/config/src/config_client.c.obj
 .rodata.m_opcode_handlers
                0x0003454c       0x20 examples/light_switch/client/CMakeFiles/light_switch_client_nrf52840_xxAA_s140_5.0.0-3.alpha.dir/__/__/__/models/health/src/health_client.c.obj
 .rodata.mesh_evt_cb.str1.1
                0x0003456c       0x2f examples/light_switch/client/CMakeFiles/light_switch_client_nrf52840_xxAA_s140_5.0.0-3.alpha.dir/__/__/__/mesh/access/src/access.c.obj
 .rodata.multiply_de_bruijn_bit_position.9295
                0x0003459b       0x20 examples/light_switch/client/CMakeFiles/light_switch_client_nrf52840_xxAA_s140_5.0.0-3.alpha.dir/__/__/__/mesh/access/src/access.c.obj
 .rodata.packet_tx.str1.1
                0x000345bb       0x13 examples/light_switch/client/CMakeFiles/light_switch_client_nrf52840_xxAA_s140_5.0.0-3.alpha.dir/__/__/__/mesh/access/src/access.c.obj
 *fill*         0x000345ce        0x2 
 .rodata.m_flash_groups
                0x000345d0       0xc0 examples/light_switch/client/CMakeFiles/light_switch_client_nrf52840_xxAA_s140_5.0.0-3.alpha.dir/__/__/__/mesh/access/src/device_state_manager.c.obj
 .rodata.m_prov_callbacks
                0x00034690       0x10 examples/light_switch/client/CMakeFiles/light_switch_client_nrf52840_xxAA_s140_5.0.0-3.alpha.dir/__/__/__/mesh/prov/src/prov_provisioner.c.obj
 .rodata.pdu_sizes.10990
                0x000346a0        0xa examples/light_switch/client/CMakeFiles/light_switch_client_nrf52840_xxAA_s140_5.0.0-3.alpha.dir/__/__/__/mesh/prov/src/provisioning.c.obj
 .rodata.prov_cb_pkt_in.str1.1
                0x000346aa       0x34 examples/light_switch/client/CMakeFiles/light_switch_client_nrf52840_xxAA_s140_5.0.0-3.alpha.dir/__/__/__/mesh/prov/src/provisioning.c.obj
 .rodata.alphanumeric.11094
                0x000346de       0x25 examples/light_switch/client/CMakeFiles/light_switch_client_nrf52840_xxAA_s140_5.0.0-3.alpha.dir/__/__/__/mesh/prov/src/prov_utils.c.obj
 *fill*         0x00034703        0x1 
 .rodata.numeric_max.11088
                0x00034704       0x24 examples/light_switch/client/CMakeFiles/light_switch_client_nrf52840_xxAA_s140_5.0.0-3.alpha.dir/__/__/__/mesh/prov/src/prov_utils.c.obj
 .rodata.prov_utils_authentication_values_derive.str1.1
                0x00034728        0x5 examples/light_switch/client/CMakeFiles/light_switch_client_nrf52840_xxAA_s140_5.0.0-3.alpha.dir/__/__/__/mesh/prov/src/prov_utils.c.obj
 .rodata.prov_utils_derive_keys.str1.1
                0x0003472d        0xf examples/light_switch/client/CMakeFiles/light_switch_client_nrf52840_xxAA_s140_5.0.0-3.alpha.dir/__/__/__/mesh/prov/src/prov_utils.c.obj
 .rodata.add_active_bearer.str1.1
                0x0003473c       0x2c examples/light_switch/client/CMakeFiles/light_switch_client_nrf52840_xxAA_s140_5.0.0-3.alpha.dir/__/__/__/mesh/prov/src/prov_bearer_adv.c.obj
 .rodata.crctable.10852
                0x00034768      0x100 examples/light_switch/client/CMakeFiles/light_switch_client_nrf52840_xxAA_s140_5.0.0-3.alpha.dir/__/__/__/mesh/prov/src/prov_bearer_adv.c.obj
 .rodata.interface.11081
                0x00034868       0x14 examples/light_switch/client/CMakeFiles/light_switch_client_nrf52840_xxAA_s140_5.0.0-3.alpha.dir/__/__/__/mesh/prov/src/prov_bearer_adv.c.obj
 .rodata.prov_bearer_adv_packet_in.str1.1
                0x0003487c      0x26e examples/light_switch/client/CMakeFiles/light_switch_client_nrf52840_xxAA_s140_5.0.0-3.alpha.dir/__/__/__/mesh/prov/src/prov_bearer_adv.c.obj
 .rodata.tx_retry_cb.str1.1
                0x00034aea       0x37 examples/light_switch/client/CMakeFiles/light_switch_client_nrf52840_xxAA_s140_5.0.0-3.alpha.dir/__/__/__/mesh/prov/src/prov_bearer_adv.c.obj
 .rodata.types_lookup.9118
                0x00034b21        0x4 mesh/core/libmesh_core_nrf52840_xxAA.a(nrf_mesh_utils.c.obj)
 .rodata.nrf_mesh_process.str1.1
                0x00034b25       0x70 mesh/core/libmesh_core_nrf52840_xxAA.a(nrf_mesh.c.obj)
 *fill*         0x00034b95        0x1 
 .rodata.CSWTCH.8
                0x00034b96       0x10 mesh/core/libmesh_core_nrf52840_xxAA.a(hal.c.obj)
 .rodata        0x00034ba6       0x15 mesh/core/libmesh_core_nrf52840_xxAA.a(enc.c.obj)
 .rodata.network_packet_in.str1.1
                0x00034bbb       0x40 mesh/core/libmesh_core_nrf52840_xxAA.a(network.c.obj)
                                 0x48 (size before relaxing)
 .rodata.network_packet_send.str1.1
                0x00034bfb       0x49 mesh/core/libmesh_core_nrf52840_xxAA.a(network.c.obj)
 .rodata        0x00034c44        0x7 mesh/core/libmesh_core_nrf52840_xxAA.a(nrf_mesh_keygen.c.obj)
 .rodata.log_callback_rtt.str1.1
                0x00034c4b       0x15 mesh/core/libmesh_core_nrf52840_xxAA.a(log.c.obj)
 .rodata.str1.1
                0x00034c60       0x11 mesh/core/libmesh_core_nrf52840_xxAA.a(log.c.obj)
 *fill*         0x00034c71        0x3 
 .rodata.INVALID_HEADER
                0x00034c74        0x4 mesh/core/libmesh_core_nrf52840_xxAA.a(flash_manager.c.obj)
                0x00034c74                INVALID_HEADER
 .rodata.PADDING_HEADER
                0x00034c78        0x4 mesh/core/libmesh_core_nrf52840_xxAA.a(flash_manager.c.obj)
                0x00034c78                PADDING_HEADER
 .rodata.SEAL_HEADER
                0x00034c7c        0x4 mesh/core/libmesh_core_nrf52840_xxAA.a(flash_manager.c.obj)
                0x00034c7c                SEAL_HEADER
 .rodata.process_action_queue.str1.1
                0x00034c80       0x21 mesh/core/libmesh_core_nrf52840_xxAA.a(flash_manager.c.obj)
                                 0x4f (size before relaxing)
 .rodata.beacon_packet_in.str1.1
                0x00034ca1       0x51 mesh/core/libmesh_core_nrf52840_xxAA.a(beacon.c.obj)
                                 0x59 (size before relaxing)
 .rodata.net_beacon_init.str1.1
                0x00034cf2        0x5 mesh/core/libmesh_core_nrf52840_xxAA.a(net_beacon.c.obj)
 .rodata.radio_mode_to_us_per_byte.9494
                0x00034cf7        0x6 mesh/core/libmesh_core_nrf52840_xxAA.a(broadcast.c.obj)
 .rodata.channel_rf_offsets.8756
                0x00034cfd       0x28 mesh/core/libmesh_core_nrf52840_xxAA.a(radio_config.c.obj)
 .rodata        0x00034d25        0x3 mesh/core/libmesh_core_nrf52840_xxAA.a(scanner.c.obj)
 .rodata.sar_ctx_cancel.str1.1
                0x00034d28       0x35 mesh/core/libmesh_core_nrf52840_xxAA.a(transport.c.obj)
                                 0x63 (size before relaxing)
 .rodata.test_transport_decrypt.str1.1
                0x00034d5d       0x13 mesh/core/libmesh_core_nrf52840_xxAA.a(transport.c.obj)
 .rodata.transport_packet_in.str1.1
                0x00034d70       0x24 mesh/core/libmesh_core_nrf52840_xxAA.a(transport.c.obj)
 .rodata.transport_tx.str1.1
                0x00034d94       0x2c mesh/core/libmesh_core_nrf52840_xxAA.a(transport.c.obj)
                                 0x34 (size before relaxing)
 .rodata.upper_transport_access_packet_in.str1.1
                0x00034dc0       0x29 mesh/core/libmesh_core_nrf52840_xxAA.a(transport.c.obj)
 .rodata.upper_transport_packet_in.str1.1
                0x00034de9       0x2e mesh/core/libmesh_core_nrf52840_xxAA.a(transport.c.obj)
 .rodata.flash_manager_defrag.str1.1
                0x00034e17       0x28 mesh/core/libmesh_core_nrf52840_xxAA.a(flash_manager_defrag.c.obj)
                                 0x56 (size before relaxing)
 *fill*         0x00034e3f        0x1 
 .rodata.m_procedure_steps
                0x00034e40       0x28 mesh/core/libmesh_core_nrf52840_xxAA.a(flash_manager_defrag.c.obj)
 .rodata.m_all_operations
                0x00034e68       0x10 mesh/core/libmesh_core_nrf52840_xxAA.a(mesh_flash.c.obj)
 .rodata.Rb.7566
                0x00034e78       0x10 mesh/core/libmesh_core_nrf52840_xxAA.a(aes_cmac.c.obj)
 .rodata._DoInit.str1.1
                0x00034e88       0x14 external/rtt/librtt_nrf52840_xxAA.a(SEGGER_RTT.c.obj)
 .rodata._aV2C.5497
                0x00034e9c       0x10 external/rtt/librtt_nrf52840_xxAA.a(SEGGER_RTT_printf.c.obj)
 .rodata.curve_secp256r1
                0x00034eac       0xb0 external/micro-ecc/libuECC_nrf52840_xxAA.a(uECC.c.obj)
 .rodata._global_impure_ptr
                0x00034f5c        0x4 c:/a/gcc_arm/6/bin/../lib/gcc/arm-none-eabi/6.3.1/../../../../arm-none-eabi/lib/thumb/v7e-m/fpv4-sp/hard\libc_nano.a(lib_a-impure.o)
                0x00034f5c                _global_impure_ptr
 *(.eh_frame*)
 .eh_frame      0x00034f60        0x0 c:/a/gcc_arm/6/bin/../lib/gcc/arm-none-eabi/6.3.1/thumb/v7e-m/fpv4-sp/hard/crtbegin.o
 .eh_frame      0x00034f60        0x4 c:/a/gcc_arm/6/bin/../lib/gcc/arm-none-eabi/6.3.1/thumb/v7e-m/fpv4-sp/hard/crtend.o

.glue_7         0x00034f64        0x0
 .glue_7        0x00034f64        0x0 linker stubs

.glue_7t        0x00034f64        0x0
 .glue_7t       0x00034f64        0x0 linker stubs

.vfp11_veneer   0x00034f64        0x0
 .vfp11_veneer  0x00034f64        0x0 linker stubs

.v4_bx          0x00034f64        0x0
 .v4_bx         0x00034f64        0x0 linker stubs

.iplt           0x00034f64        0x0
 .iplt          0x00034f64        0x0 c:/a/gcc_arm/6/bin/../lib/gcc/arm-none-eabi/6.3.1/thumb/v7e-m/fpv4-sp/hard/crtbegin.o

.ARM.extab
 *(.ARM.extab* .gnu.linkonce.armextab.*)
                0x00034f64                __exidx_start = .

.ARM.exidx      0x00034f64        0x8
 *(.ARM.exidx* .gnu.linkonce.armexidx.*)
 .ARM.exidx     0x00034f64        0x8 c:/a/gcc_arm/6/bin/../lib/gcc/arm-none-eabi/6.3.1/../../../../arm-none-eabi/lib/thumb/v7e-m/fpv4-sp/hard/crt0.o
                0x00034f6c                __exidx_end = .
                0x00034f6c                __etext = .

.rel.dyn        0x00034f6c        0x0
 .rel.iplt      0x00034f6c        0x0 c:/a/gcc_arm/6/bin/../lib/gcc/arm-none-eabi/6.3.1/thumb/v7e-m/fpv4-sp/hard/crtbegin.o

.data           0x200031b8      0x114 load address 0x00034f6c
                0x200031b8                __data_start__ = .
 *(vtable)
 *(.data*)
 .data.flash_add_mem_available_struct.10546
                0x200031b8       0x10 examples/light_switch/client/CMakeFiles/light_switch_client_nrf52840_xxAA_s140_5.0.0-3.alpha.dir/__/__/__/mesh/access/src/access.c.obj
 .data.flash_clear_mem_available_struct.10635
                0x200031c8       0x10 examples/light_switch/client/CMakeFiles/light_switch_client_nrf52840_xxAA_s140_5.0.0-3.alpha.dir/__/__/__/mesh/access/src/access.c.obj
 .data.flash_store_mem_available_struct.10659
                0x200031d8       0x10 examples/light_switch/client/CMakeFiles/light_switch_client_nrf52840_xxAA_s140_5.0.0-3.alpha.dir/__/__/__/mesh/access/src/access.c.obj
 .data.m_default_ttl
                0x200031e8        0x1 examples/light_switch/client/CMakeFiles/light_switch_client_nrf52840_xxAA_s140_5.0.0-3.alpha.dir/__/__/__/mesh/access/src/access.c.obj
 *fill*         0x200031e9        0x3 
 .data.mem_listener.10798
                0x200031ec       0x10 examples/light_switch/client/CMakeFiles/light_switch_client_nrf52840_xxAA_s140_5.0.0-3.alpha.dir/__/__/__/mesh/access/src/device_state_manager.c.obj
 .data.mem_listener.10824
                0x200031fc       0x10 examples/light_switch/client/CMakeFiles/light_switch_client_nrf52840_xxAA_s140_5.0.0-3.alpha.dir/__/__/__/mesh/access/src/device_state_manager.c.obj
 .data.m_unprov_report
                0x2000320c        0x1 examples/light_switch/client/CMakeFiles/light_switch_client_nrf52840_xxAA_s140_5.0.0-3.alpha.dir/__/__/__/mesh/prov/src/prov_beacon.c.obj
 *fill*         0x2000320d        0x3 
 .data.m_async_process_flag
                0x20003210        0x4 examples/light_switch/client/CMakeFiles/light_switch_client_nrf52840_xxAA_s140_5.0.0-3.alpha.dir/__/__/__/mesh/prov/src/prov_bearer_adv.c.obj
 .data.SystemCoreClock
                0x20003214        0x4 examples/light_switch/client/CMakeFiles/light_switch_client_nrf52840_xxAA_s140_5.0.0-3.alpha.dir/__/__/__/external/nRF5_SDK_14.0.0_3bcc1f7/components/toolchain/system_nrf52840.c.obj
                0x20003214                SystemCoreClock
 .data.mem_listener.10018
                0x20003218       0x10 mesh/core/libmesh_core_nrf52840_xxAA.a(net_state.c.obj)
 .data.mem_listener.10023
                0x20003228       0x10 mesh/core/libmesh_core_nrf52840_xxAA.a(net_state.c.obj)
 .data.mem_listener.10037
                0x20003238       0x10 mesh/core/libmesh_core_nrf52840_xxAA.a(net_state.c.obj)
 .data.g_log_debug_level
                0x20003248        0x4 mesh/core/libmesh_core_nrf52840_xxAA.a(log.c.obj)
                0x20003248                g_log_debug_level
 .data.g_log_debug_msk
                0x2000324c        0x4 mesh/core/libmesh_core_nrf52840_xxAA.a(log.c.obj)
                0x2000324c                g_log_debug_msk
 .data.g_log_hex_digits
                0x20003250        0x4 mesh/core/libmesh_core_nrf52840_xxAA.a(log.c.obj)
                0x20003250                g_log_hex_digits
 .data.m_log_callback
                0x20003254        0x4 mesh/core/libmesh_core_nrf52840_xxAA.a(log.c.obj)
                0x20003254                m_log_callback
 .data.g_rng_function
                0x20003258        0x4 external/micro-ecc/libuECC_nrf52840_xxAA.a(uECC.c.obj)
 .data._impure_ptr
                0x2000325c        0x4 c:/a/gcc_arm/6/bin/../lib/gcc/arm-none-eabi/6.3.1/../../../../arm-none-eabi/lib/thumb/v7e-m/fpv4-sp/hard\libc_nano.a(lib_a-impure.o)
                0x2000325c                _impure_ptr
 .data.impure_data
                0x20003260       0x60 c:/a/gcc_arm/6/bin/../lib/gcc/arm-none-eabi/6.3.1/../../../../arm-none-eabi/lib/thumb/v7e-m/fpv4-sp/hard\libc_nano.a(lib_a-impure.o)
                0x200032c0                . = ALIGN (0x4)
                0x200032c0                PROVIDE (__preinit_array_start, .)
 *(.preinit_array)
                0x200032c0                PROVIDE (__preinit_array_end, .)
                0x200032c0                . = ALIGN (0x4)
                0x200032c0                PROVIDE (__init_array_start, .)
 *(SORT(.init_array.*))
 *(.init_array)
 .init_array    0x200032c0        0x4 c:/a/gcc_arm/6/bin/../lib/gcc/arm-none-eabi/6.3.1/thumb/v7e-m/fpv4-sp/hard/crtbegin.o
                0x200032c4                PROVIDE (__init_array_end, .)
                0x200032c4                . = ALIGN (0x4)
                [!provide]                PROVIDE (__fini_array_start, .)
 *(SORT(.fini_array.*))
 *(.fini_array)
 .fini_array    0x200032c4        0x4 c:/a/gcc_arm/6/bin/../lib/gcc/arm-none-eabi/6.3.1/thumb/v7e-m/fpv4-sp/hard/crtbegin.o
                [!provide]                PROVIDE (__fini_array_end, .)
 *(.jcr*)
 .jcr           0x200032c8        0x0 c:/a/gcc_arm/6/bin/../lib/gcc/arm-none-eabi/6.3.1/thumb/v7e-m/fpv4-sp/hard/crtbegin.o
 .jcr           0x200032c8        0x4 c:/a/gcc_arm/6/bin/../lib/gcc/arm-none-eabi/6.3.1/thumb/v7e-m/fpv4-sp/hard/crtend.o
                0x200032cc                . = ALIGN (0x4)
                0x200032cc                __data_end__ = .

.igot.plt       0x200032cc        0x0 load address 0x00035080
 .igot.plt      0x200032cc        0x0 c:/a/gcc_arm/6/bin/../lib/gcc/arm-none-eabi/6.3.1/thumb/v7e-m/fpv4-sp/hard/crtbegin.o

.bss            0x200032d0     0x2f78 load address 0x00035088
                0x200032d0                . = ALIGN (0x4)
                0x200032d0                __bss_start__ = .
 *(.bss*)
 .bss           0x200032d0       0x1c c:/a/gcc_arm/6/bin/../lib/gcc/arm-none-eabi/6.3.1/thumb/v7e-m/fpv4-sp/hard/crtbegin.o
 .bss.m_appkey_handle
                0x200032ec        0x2 examples/light_switch/client/CMakeFiles/light_switch_client_nrf52840_xxAA_s140_5.0.0-3.alpha.dir/src/main.c.obj
 *fill*         0x200032ee        0x2 
 .bss.m_clients
                0x200032f0       0x30 examples/light_switch/client/CMakeFiles/light_switch_client_nrf52840_xxAA_s140_5.0.0-3.alpha.dir/src/main.c.obj
 .bss.m_configured_devices
                0x20003320        0x2 examples/light_switch/client/CMakeFiles/light_switch_client_nrf52840_xxAA_s140_5.0.0-3.alpha.dir/src/main.c.obj
 .bss.m_devkey_handles
                0x20003322        0x6 examples/light_switch/client/CMakeFiles/light_switch_client_nrf52840_xxAA_s140_5.0.0-3.alpha.dir/src/main.c.obj
 .bss.m_group_handle
                0x20003328        0x2 examples/light_switch/client/CMakeFiles/light_switch_client_nrf52840_xxAA_s140_5.0.0-3.alpha.dir/src/main.c.obj
 *fill*         0x2000332a        0x2 
 .bss.m_health_client
                0x2000332c       0x10 examples/light_switch/client/CMakeFiles/light_switch_client_nrf52840_xxAA_s140_5.0.0-3.alpha.dir/src/main.c.obj
 .bss.m_netkey_handle
                0x2000333c        0x2 examples/light_switch/client/CMakeFiles/light_switch_client_nrf52840_xxAA_s140_5.0.0-3.alpha.dir/src/main.c.obj
 .bss.m_provisioned_devices
                0x2000333e        0x2 examples/light_switch/client/CMakeFiles/light_switch_client_nrf52840_xxAA_s140_5.0.0-3.alpha.dir/src/main.c.obj
 .bss.m_server_handles
                0x20003340        0x6 examples/light_switch/client/CMakeFiles/light_switch_client_nrf52840_xxAA_s140_5.0.0-3.alpha.dir/src/main.c.obj
 *fill*         0x20003346        0x2 
 .bss.m_evt_handler
                0x20003348        0x8 examples/light_switch/client/CMakeFiles/light_switch_client_nrf52840_xxAA_s140_5.0.0-3.alpha.dir/src/provisioner.c.obj
 .bss.m_private_key
                0x20003350       0x20 examples/light_switch/client/CMakeFiles/light_switch_client_nrf52840_xxAA_s140_5.0.0-3.alpha.dir/src/provisioner.c.obj
 .bss.m_prov_ctx
                0x20003370      0x2fc examples/light_switch/client/CMakeFiles/light_switch_client_nrf52840_xxAA_s140_5.0.0-3.alpha.dir/src/provisioner.c.obj
 .bss.m_prov_state
                0x2000366c        0x1 examples/light_switch/client/CMakeFiles/light_switch_client_nrf52840_xxAA_s140_5.0.0-3.alpha.dir/src/provisioner.c.obj
 .bss.m_public_key
                0x2000366d       0x40 examples/light_switch/client/CMakeFiles/light_switch_client_nrf52840_xxAA_s140_5.0.0-3.alpha.dir/src/provisioner.c.obj
 *fill*         0x200036ad        0x1 
 .bss.m_target_address
                0x200036ae        0x2 examples/light_switch/client/CMakeFiles/light_switch_client_nrf52840_xxAA_s140_5.0.0-3.alpha.dir/src/provisioner.c.obj
 .bss.m_ble_evt_buffer
                0x200036b0       0x57 examples/light_switch/client/CMakeFiles/light_switch_client_nrf52840_xxAA_s140_5.0.0-3.alpha.dir/__/__/nrf_mesh_sdk.c.obj
 *fill*         0x20003707        0x1 
 .bss.m_button_handler_cb
                0x20003708        0x4 examples/light_switch/client/CMakeFiles/light_switch_client_nrf52840_xxAA_s140_5.0.0-3.alpha.dir/__/__/hal/src/simple_hal.c.obj
 .bss.m_last_button_press
                0x2000370c        0x4 examples/light_switch/client/CMakeFiles/light_switch_client_nrf52840_xxAA_s140_5.0.0-3.alpha.dir/__/__/hal/src/simple_hal.c.obj
 .bss.m_tid     0x20003710        0x1 examples/light_switch/client/CMakeFiles/light_switch_client_nrf52840_xxAA_s140_5.0.0-3.alpha.dir/__/__/__/models/simple_on_off/src/simple_on_off_client.c.obj
 *fill*         0x20003711        0x3 
 .bss.m_client  0x20003714        0x8 examples/light_switch/client/CMakeFiles/light_switch_client_nrf52840_xxAA_s140_5.0.0-3.alpha.dir/__/__/__/models/config/src/config_client.c.obj
 .bss.mp_packet_buffer
                0x2000371c        0x4 examples/light_switch/client/CMakeFiles/light_switch_client_nrf52840_xxAA_s140_5.0.0-3.alpha.dir/__/__/__/models/config/src/config_client.c.obj
 .bss.m_publish_timer
                0x20003720       0x18 examples/light_switch/client/CMakeFiles/light_switch_client_nrf52840_xxAA_s140_5.0.0-3.alpha.dir/__/__/__/mesh/access/src/access_publish.c.obj
 .bss.m_publish_timer_counter
                0x20003738        0x4 examples/light_switch/client/CMakeFiles/light_switch_client_nrf52840_xxAA_s140_5.0.0-3.alpha.dir/__/__/__/mesh/access/src/access_publish.c.obj
 .bss.m_publish_timer_running
                0x2000373c        0x1 examples/light_switch/client/CMakeFiles/light_switch_client_nrf52840_xxAA_s140_5.0.0-3.alpha.dir/__/__/__/mesh/access/src/access_publish.c.obj
 .bss.m_timer_resolution
                0x2000373d        0x1 examples/light_switch/client/CMakeFiles/light_switch_client_nrf52840_xxAA_s140_5.0.0-3.alpha.dir/__/__/__/mesh/access/src/access_publish.c.obj
 *fill*         0x2000373e        0x2 
 .bss.mp_publication_list
                0x20003740        0x4 examples/light_switch/client/CMakeFiles/light_switch_client_nrf52840_xxAA_s140_5.0.0-3.alpha.dir/__/__/__/mesh/access/src/access_publish.c.obj
 .bss.m_element_pool
                0x20003744       0x18 examples/light_switch/client/CMakeFiles/light_switch_client_nrf52840_xxAA_s140_5.0.0-3.alpha.dir/__/__/__/mesh/access/src/access.c.obj
 .bss.m_evt_handler
                0x2000375c        0x8 examples/light_switch/client/CMakeFiles/light_switch_client_nrf52840_xxAA_s140_5.0.0-3.alpha.dir/__/__/__/mesh/access/src/access.c.obj
 .bss.m_flash_manager
                0x20003764       0x24 examples/light_switch/client/CMakeFiles/light_switch_client_nrf52840_xxAA_s140_5.0.0-3.alpha.dir/__/__/__/mesh/access/src/access.c.obj
 .bss.m_flash_not_ready
                0x20003788        0x1 examples/light_switch/client/CMakeFiles/light_switch_client_nrf52840_xxAA_s140_5.0.0-3.alpha.dir/__/__/__/mesh/access/src/access.c.obj
 .bss.m_metadata_stored
                0x20003789        0x1 examples/light_switch/client/CMakeFiles/light_switch_client_nrf52840_xxAA_s140_5.0.0-3.alpha.dir/__/__/__/mesh/access/src/access.c.obj
 *fill*         0x2000378a        0x2 
 .bss.m_model_pool
                0x2000378c      0x138 examples/light_switch/client/CMakeFiles/light_switch_client_nrf52840_xxAA_s140_5.0.0-3.alpha.dir/__/__/__/mesh/access/src/access.c.obj
 .bss.m_subscription_list_pool
                0x200038c4       0x30 examples/light_switch/client/CMakeFiles/light_switch_client_nrf52840_xxAA_s140_5.0.0-3.alpha.dir/__/__/__/mesh/access/src/access.c.obj
 .bss.m_reliable
                0x200038f4      0x10c examples/light_switch/client/CMakeFiles/light_switch_client_nrf52840_xxAA_s140_5.0.0-3.alpha.dir/__/__/__/mesh/access/src/access_reliable.c.obj
 .bss.m_addr_nonvirtual_allocated
                0x20003a00        0x4 examples/light_switch/client/CMakeFiles/light_switch_client_nrf52840_xxAA_s140_5.0.0-3.alpha.dir/__/__/__/mesh/access/src/device_state_manager.c.obj
 .bss.m_addr_nonvirtual_needs_flashing
                0x20003a04        0x4 examples/light_switch/client/CMakeFiles/light_switch_client_nrf52840_xxAA_s140_5.0.0-3.alpha.dir/__/__/__/mesh/access/src/device_state_manager.c.obj
 .bss.m_addr_unicast_allocated
                0x20003a08        0x4 examples/light_switch/client/CMakeFiles/light_switch_client_nrf52840_xxAA_s140_5.0.0-3.alpha.dir/__/__/__/mesh/access/src/device_state_manager.c.obj
 .bss.m_addr_unicast_needs_flashing
                0x20003a0c        0x4 examples/light_switch/client/CMakeFiles/light_switch_client_nrf52840_xxAA_s140_5.0.0-3.alpha.dir/__/__/__/mesh/access/src/device_state_manager.c.obj
 .bss.m_addr_virtual_allocated
                0x20003a10        0x4 examples/light_switch/client/CMakeFiles/light_switch_client_nrf52840_xxAA_s140_5.0.0-3.alpha.dir/__/__/__/mesh/access/src/device_state_manager.c.obj
 .bss.m_addr_virtual_needs_flashing
                0x20003a14        0x4 examples/light_switch/client/CMakeFiles/light_switch_client_nrf52840_xxAA_s140_5.0.0-3.alpha.dir/__/__/__/mesh/access/src/device_state_manager.c.obj
 .bss.m_addresses
                0x20003a18       0x10 examples/light_switch/client/CMakeFiles/light_switch_client_nrf52840_xxAA_s140_5.0.0-3.alpha.dir/__/__/__/mesh/access/src/device_state_manager.c.obj
 .bss.m_appkey_allocated
                0x20003a28        0x4 examples/light_switch/client/CMakeFiles/light_switch_client_nrf52840_xxAA_s140_5.0.0-3.alpha.dir/__/__/__/mesh/access/src/device_state_manager.c.obj
 .bss.m_appkey_needs_flashing
                0x20003a2c        0x4 examples/light_switch/client/CMakeFiles/light_switch_client_nrf52840_xxAA_s140_5.0.0-3.alpha.dir/__/__/__/mesh/access/src/device_state_manager.c.obj
 .bss.m_appkeys
                0x20003a30       0x16 examples/light_switch/client/CMakeFiles/light_switch_client_nrf52840_xxAA_s140_5.0.0-3.alpha.dir/__/__/__/mesh/access/src/device_state_manager.c.obj
 *fill*         0x20003a46        0x2 
 .bss.m_devkey_allocated
                0x20003a48        0x4 examples/light_switch/client/CMakeFiles/light_switch_client_nrf52840_xxAA_s140_5.0.0-3.alpha.dir/__/__/__/mesh/access/src/device_state_manager.c.obj
 .bss.m_devkey_needs_flashing
                0x20003a4c        0x4 examples/light_switch/client/CMakeFiles/light_switch_client_nrf52840_xxAA_s140_5.0.0-3.alpha.dir/__/__/__/mesh/access/src/device_state_manager.c.obj
 .bss.m_devkeys
                0x20003a50       0x42 examples/light_switch/client/CMakeFiles/light_switch_client_nrf52840_xxAA_s140_5.0.0-3.alpha.dir/__/__/__/mesh/access/src/device_state_manager.c.obj
 .bss.m_flash_is_available
                0x20003a92        0x1 examples/light_switch/client/CMakeFiles/light_switch_client_nrf52840_xxAA_s140_5.0.0-3.alpha.dir/__/__/__/mesh/access/src/device_state_manager.c.obj
 *fill*         0x20003a93        0x1 
 .bss.m_flash_manager
                0x20003a94       0x24 examples/light_switch/client/CMakeFiles/light_switch_client_nrf52840_xxAA_s140_5.0.0-3.alpha.dir/__/__/__/mesh/access/src/device_state_manager.c.obj
 .bss.m_flash_mem_listener_update_all
                0x20003ab8       0x10 examples/light_switch/client/CMakeFiles/light_switch_client_nrf52840_xxAA_s140_5.0.0-3.alpha.dir/__/__/__/mesh/access/src/device_state_manager.c.obj
 .bss.m_has_primary_subnet
                0x20003ac8        0x1 examples/light_switch/client/CMakeFiles/light_switch_client_nrf52840_xxAA_s140_5.0.0-3.alpha.dir/__/__/__/mesh/access/src/device_state_manager.c.obj
 *fill*         0x20003ac9        0x1 
 .bss.m_local_unicast_addr
                0x20003aca        0x4 examples/light_switch/client/CMakeFiles/light_switch_client_nrf52840_xxAA_s140_5.0.0-3.alpha.dir/__/__/__/mesh/access/src/device_state_manager.c.obj
 *fill*         0x20003ace        0x2 
 .bss.m_subnet_allocated
                0x20003ad0        0x4 examples/light_switch/client/CMakeFiles/light_switch_client_nrf52840_xxAA_s140_5.0.0-3.alpha.dir/__/__/__/mesh/access/src/device_state_manager.c.obj
 .bss.m_subnet_needs_flashing
                0x20003ad4        0x4 examples/light_switch/client/CMakeFiles/light_switch_client_nrf52840_xxAA_s140_5.0.0-3.alpha.dir/__/__/__/mesh/access/src/device_state_manager.c.obj
 .bss.m_subnets
                0x20003ad8       0x5c examples/light_switch/client/CMakeFiles/light_switch_client_nrf52840_xxAA_s140_5.0.0-3.alpha.dir/__/__/__/mesh/access/src/device_state_manager.c.obj
 .bss.m_virtual_addresses
                0x20003b34       0x14 examples/light_switch/client/CMakeFiles/light_switch_client_nrf52840_xxAA_s140_5.0.0-3.alpha.dir/__/__/__/mesh/access/src/device_state_manager.c.obj
 .bss.m_offload_ecdh
                0x20003b48        0x1 examples/light_switch/client/CMakeFiles/light_switch_client_nrf52840_xxAA_s140_5.0.0-3.alpha.dir/__/__/__/mesh/prov/src/prov_utils.c.obj
 *fill*         0x20003b49        0x3 
 .bss.mp_bearer_head
                0x20003b4c        0x4 examples/light_switch/client/CMakeFiles/light_switch_client_nrf52840_xxAA_s140_5.0.0-3.alpha.dir/__/__/__/mesh/prov/src/prov_bearer_adv.c.obj
 .bss.m_uuid    0x20003b50       0x10 mesh/core/libmesh_core_nrf52840_xxAA.a(nrf_mesh_configure.c.obj)
 .bss.mp_evt_handlers_head
                0x20003b60        0x4 mesh/core/libmesh_core_nrf52840_xxAA.a(event.c.obj)
 .bss.m_pool    0x20003b64     0x1000 mesh/core/libmesh_core_nrf52840_xxAA.a(packet_mgr.c.obj)
 .bss.mp_free_head
                0x20004b64        0x4 mesh/core/libmesh_core_nrf52840_xxAA.a(packet_mgr.c.obj)
 .bss.lock_count.10077
                0x20004b68        0x4 mesh/core/libmesh_core_nrf52840_xxAA.a(net_state.c.obj)
 .bss.m_flash_manager
                0x20004b6c       0x24 mesh/core/libmesh_core_nrf52840_xxAA.a(net_state.c.obj)
 .bss.m_iv_update_timer
                0x20004b90       0x18 mesh/core/libmesh_core_nrf52840_xxAA.a(net_state.c.obj)
 .bss.m_net_state
                0x20004ba8       0x14 mesh/core/libmesh_core_nrf52840_xxAA.a(net_state.c.obj)
 .bss.m_seqnum_allocation_in_progress
                0x20004bbc        0x1 mesh/core/libmesh_core_nrf52840_xxAA.a(net_state.c.obj)
 .bss.m_test_mode
                0x20004bbd        0x1 mesh/core/libmesh_core_nrf52840_xxAA.a(net_state.c.obj)
 .bss.m_is_enabled
                0x20004bbe        0x1 mesh/core/libmesh_core_nrf52840_xxAA.a(nrf_mesh.c.obj)
 .bss.m_is_initialized
                0x20004bbf        0x1 mesh/core/libmesh_core_nrf52840_xxAA.a(nrf_mesh.c.obj)
 .bss.m_rx_cb   0x20004bc0        0x4 mesh/core/libmesh_core_nrf52840_xxAA.a(nrf_mesh.c.obj)
 .bss.m_event_flag
                0x20004bc4        0x4 mesh/core/libmesh_core_nrf52840_xxAA.a(timer_scheduler.c.obj)
 .bss.m_scheduler
                0x20004bc8       0x10 mesh/core/libmesh_core_nrf52840_xxAA.a(timer_scheduler.c.obj)
 .bss.m_attributes
                0x20004bd8        0x3 mesh/core/libmesh_core_nrf52840_xxAA.a(timer.c.obj)
 *fill*         0x20004bdb        0x1 
 .bss.m_callbacks
                0x20004bdc        0xc mesh/core/libmesh_core_nrf52840_xxAA.a(timer.c.obj)
 .bss.m_is_in_ts
                0x20004be8        0x1 mesh/core/libmesh_core_nrf52840_xxAA.a(timer.c.obj)
 *fill*         0x20004be9        0x3 
 .bss.m_reference_time
                0x20004bec        0x4 mesh/core/libmesh_core_nrf52840_xxAA.a(timer.c.obj)
 .bss.m_timeouts
                0x20004bf0        0xc mesh/core/libmesh_core_nrf52840_xxAA.a(timer.c.obj)
 .bss.m_timer_mut
                0x20004bfc        0x4 mesh/core/libmesh_core_nrf52840_xxAA.a(timer.c.obj)
 .bss.m_ts_end_time
                0x20004c00        0x4 mesh/core/libmesh_core_nrf52840_xxAA.a(timer.c.obj)
 .bss.mp_ppi_tasks
                0x20004c04        0xc mesh/core/libmesh_core_nrf52840_xxAA.a(timer.c.obj)
 .bss.m_current_time
                0x20004c10        0x4 mesh/core/libmesh_core_nrf52840_xxAA.a(ticker.c.obj)
 .bss.m_timer   0x20004c14       0x18 mesh/core/libmesh_core_nrf52840_xxAA.a(ticker.c.obj)
 .bss.m_current_timeslot
                0x20004c2c       0x1c mesh/core/libmesh_core_nrf52840_xxAA.a(timeslot.c.obj)
 .bss.m_lfclk_ppm
                0x20004c48        0x4 mesh/core/libmesh_core_nrf52840_xxAA.a(timeslot.c.obj)
 .bss.m_radio_request_earliest
                0x20004c4c       0x10 mesh/core/libmesh_core_nrf52840_xxAA.a(timeslot.c.obj)
 .bss.m_state_lock
                0x20004c5c        0x1 mesh/core/libmesh_core_nrf52840_xxAA.a(timeslot.c.obj)
 .bss.m_timeslot_forced_command
                0x20004c5d        0x1 mesh/core/libmesh_core_nrf52840_xxAA.a(timeslot.c.obj)
 *fill*         0x20004c5e        0x2 
 .bss.s_last_rtc_value.9342
                0x20004c60        0x8 mesh/core/libmesh_core_nrf52840_xxAA.a(timeslot.c.obj)
 .bss.m_bearer_event_fifo
                0x20004c68       0x14 mesh/core/libmesh_core_nrf52840_xxAA.a(bearer_event.c.obj)
 .bss.m_bearer_event_fifo_buffer
                0x20004c7c      0x100 mesh/core/libmesh_core_nrf52840_xxAA.a(bearer_event.c.obj)
 .bss.m_critical
                0x20004d7c        0x4 mesh/core/libmesh_core_nrf52840_xxAA.a(bearer_event.c.obj)
 .bss.m_flag_count
                0x20004d80        0x4 mesh/core/libmesh_core_nrf52840_xxAA.a(bearer_event.c.obj)
 .bss.m_flag_event_callbacks
                0x20004d84       0x18 mesh/core/libmesh_core_nrf52840_xxAA.a(bearer_event.c.obj)
 .bss.m_flags   0x20004d9c        0x4 mesh/core/libmesh_core_nrf52840_xxAA.a(bearer_event.c.obj)
 .bss.m_sequential_event_queue
                0x20004da0        0x8 mesh/core/libmesh_core_nrf52840_xxAA.a(bearer_event.c.obj)
 .bss.m_relay_check_cb
                0x20004da8        0x4 mesh/core/libmesh_core_nrf52840_xxAA.a(network.c.obj)
 .bss.m_relay_enable
                0x20004dac        0x1 mesh/core/libmesh_core_nrf52840_xxAA.a(network.c.obj)
 *fill*         0x20004dad        0x3 
 .bss.m_action_queue
                0x20004db0        0xc mesh/core/libmesh_core_nrf52840_xxAA.a(flash_manager.c.obj)
 .bss.m_action_queue_buffer
                0x20004dbc      0x104 mesh/core/libmesh_core_nrf52840_xxAA.a(flash_manager.c.obj)
 .bss.m_action_state
                0x20004ec0        0x1 mesh/core/libmesh_core_nrf52840_xxAA.a(flash_manager.c.obj)
 *fill*         0x20004ec1        0x3 
 .bss.m_memory_listener_queue
                0x20004ec4        0x8 mesh/core/libmesh_core_nrf52840_xxAA.a(flash_manager.c.obj)
 .bss.m_processing_flag
                0x20004ecc        0x4 mesh/core/libmesh_core_nrf52840_xxAA.a(flash_manager.c.obj)
 .bss.m_state   0x20004ed0        0x1 mesh/core/libmesh_core_nrf52840_xxAA.a(flash_manager.c.obj)
 *fill*         0x20004ed1        0x1 
 .bss.m_token   0x20004ed2        0x2 mesh/core/libmesh_core_nrf52840_xxAA.a(flash_manager.c.obj)
 .bss.p_current.11194
                0x20004ed4        0x4 mesh/core/libmesh_core_nrf52840_xxAA.a(flash_manager.c.obj)
 .bss.result.11195
                0x20004ed8        0x1 mesh/core/libmesh_core_nrf52840_xxAA.a(flash_manager.c.obj)
 *fill*         0x20004ed9        0x3 
 .bss.m_adv_buffer
                0x20004edc       0x68 mesh/core/libmesh_core_nrf52840_xxAA.a(beacon.c.obj)
 .bss.m_advertiser
                0x20004f44       0x94 mesh/core/libmesh_core_nrf52840_xxAA.a(beacon.c.obj)
 .bss.m_adv_tx_count
                0x20004fd8        0x8 mesh/core/libmesh_core_nrf52840_xxAA.a(core_tx.c.obj)
 .bss.m_advertisers
                0x20004fe0      0x128 mesh/core/libmesh_core_nrf52840_xxAA.a(core_tx.c.obj)
 .bss.m_originator_adv_packet_buffer
                0x20005108      0x100 mesh/core/libmesh_core_nrf52840_xxAA.a(core_tx.c.obj)
 .bss.m_relay_adv_packet_buffer
                0x20005208       0x80 mesh/core/libmesh_core_nrf52840_xxAA.a(core_tx.c.obj)
 .bss.m_tx_complete_callback
                0x20005288        0x4 mesh/core/libmesh_core_nrf52840_xxAA.a(core_tx.c.obj)
 .bss.m_beacon_salt
                0x2000528c       0x10 mesh/core/libmesh_core_nrf52840_xxAA.a(net_beacon.c.obj)
 .bss.m_enabled
                0x2000529c        0x1 mesh/core/libmesh_core_nrf52840_xxAA.a(net_beacon.c.obj)
 *fill*         0x2000529d        0x3 
 .bss.m_tx_event
                0x200052a0       0x18 mesh/core/libmesh_core_nrf52840_xxAA.a(net_beacon.c.obj)
 .bss.m_adv_prng
                0x200052b8       0x10 mesh/core/libmesh_core_nrf52840_xxAA.a(advertiser.c.obj)
 .bss.m_action_queue
                0x200052c8        0x8 mesh/core/libmesh_core_nrf52840_xxAA.a(bearer_handler.c.obj)
 .bss.m_end_time
                0x200052d0        0x4 mesh/core/libmesh_core_nrf52840_xxAA.a(bearer_handler.c.obj)
 .bss.m_scanner_is_active
                0x200052d4        0x1 mesh/core/libmesh_core_nrf52840_xxAA.a(bearer_handler.c.obj)
 .bss.m_stopped
                0x200052d5        0x1 mesh/core/libmesh_core_nrf52840_xxAA.a(bearer_handler.c.obj)
 *fill*         0x200052d6        0x2 
 .bss.mp_action
                0x200052d8        0x4 mesh/core/libmesh_core_nrf52840_xxAA.a(bearer_handler.c.obj)
 .bss.m_next_channel_index
                0x200052dc        0x1 mesh/core/libmesh_core_nrf52840_xxAA.a(broadcast.c.obj)
 *fill*         0x200052dd        0x3 
 .bss.m_scanner
                0x200052e0      0x284 mesh/core/libmesh_core_nrf52840_xxAA.a(scanner.c.obj)
 .bss.m_internal_event_fifo
                0x20005564       0x14 mesh/core/libmesh_core_nrf52840_xxAA.a(internal_event.c.obj)
 .bss.m_internal_event_initialized
                0x20005578        0x1 mesh/core/libmesh_core_nrf52840_xxAA.a(internal_event.c.obj)
 *fill*         0x20005579        0x3 
 .bss.m_report_cb
                0x2000557c        0x4 mesh/core/libmesh_core_nrf52840_xxAA.a(internal_event.c.obj)
 .bss.m_msg_cache
                0x20005580      0x100 mesh/core/libmesh_core_nrf52840_xxAA.a(msg_cache.c.obj)
 .bss.m_msg_cache_head
                0x20005680        0x4 mesh/core/libmesh_core_nrf52840_xxAA.a(msg_cache.c.obj)
 .bss.m_sar_alloc
                0x20005684        0x4 mesh/core/libmesh_core_nrf52840_xxAA.a(transport.c.obj)
 .bss.m_sar_process_flag
                0x20005688        0x4 mesh/core/libmesh_core_nrf52840_xxAA.a(transport.c.obj)
 .bss.m_sar_release
                0x2000568c        0x4 mesh/core/libmesh_core_nrf52840_xxAA.a(transport.c.obj)
 .bss.m_sar_session_cache
                0x20005690       0x40 mesh/core/libmesh_core_nrf52840_xxAA.a(transport.c.obj)
 .bss.m_sar_session_cache_head
                0x200056d0        0x4 mesh/core/libmesh_core_nrf52840_xxAA.a(transport.c.obj)
 .bss.m_trs_config
                0x200056d4       0x18 mesh/core/libmesh_core_nrf52840_xxAA.a(transport.c.obj)
 .bss.m_trs_sar_sessions
                0x200056ec      0x1b0 mesh/core/libmesh_core_nrf52840_xxAA.a(transport.c.obj)
 .bss.m_defrag  0x2000589c       0x1c mesh/core/libmesh_core_nrf52840_xxAA.a(flash_manager_defrag.c.obj)
 .bss.m_token   0x200058b8        0x2 mesh/core/libmesh_core_nrf52840_xxAA.a(flash_manager_defrag.c.obj)
 *fill*         0x200058ba        0x2 
 .bss.mp_recovery_area
                0x200058bc        0x4 mesh/core/libmesh_core_nrf52840_xxAA.a(flash_manager_defrag.c.obj)
 .bss.p_null_ptr.10247
                0x200058c0        0x4 mesh/core/libmesh_core_nrf52840_xxAA.a(flash_manager_defrag.c.obj)
 .bss.m_event_flag
                0x200058c4        0x4 mesh/core/libmesh_core_nrf52840_xxAA.a(mesh_flash.c.obj)
 .bss.m_suspended
                0x200058c8        0x1 mesh/core/libmesh_core_nrf52840_xxAA.a(mesh_flash.c.obj)
 *fill*         0x200058c9        0x3 
 .bss.m_users   0x200058cc      0x228 mesh/core/libmesh_core_nrf52840_xxAA.a(mesh_flash.c.obj)
 .bss.m_128buf  0x20005af4       0x10 mesh/core/libmesh_core_nrf52840_xxAA.a(aes_cmac.c.obj)
 .bss.m_subkey1
                0x20005b04       0x10 mesh/core/libmesh_core_nrf52840_xxAA.a(aes_cmac.c.obj)
 .bss.m_subkey2
                0x20005b14       0x10 mesh/core/libmesh_core_nrf52840_xxAA.a(aes_cmac.c.obj)
 .bss.m_cache_full
                0x20005b24        0x1 mesh/core/libmesh_core_nrf52840_xxAA.a(replay_cache.c.obj)
 .bss.m_cache_index
                0x20005b25        0x1 mesh/core/libmesh_core_nrf52840_xxAA.a(replay_cache.c.obj)
 *fill*         0x20005b26        0x2 
 .bss.m_replay_cache
                0x20005b28      0x200 mesh/core/libmesh_core_nrf52840_xxAA.a(replay_cache.c.obj)
 .bss.m_accepted_amount
                0x20005d28        0x4 mesh/core/libmesh_core_nrf52840_xxAA.a(filter_engine.c.obj)
 .bss.m_filter_list_head
                0x20005d2c        0x4 mesh/core/libmesh_core_nrf52840_xxAA.a(filter_engine.c.obj)
 .bss._acDownBuffer
                0x20005d30       0x80 external/rtt/librtt_nrf52840_xxAA.a(SEGGER_RTT.c.obj)
 .bss._acUpBuffer
                0x20005db0      0x400 external/rtt/librtt_nrf52840_xxAA.a(SEGGER_RTT.c.obj)
 .bss.__malloc_free_list
                0x200061b0        0x4 c:/a/gcc_arm/6/bin/../lib/gcc/arm-none-eabi/6.3.1/../../../../arm-none-eabi/lib/thumb/v7e-m/fpv4-sp/hard\libc_nano.a(lib_a-nano-mallocr.o)
                0x200061b0                __malloc_free_list
 .bss.__malloc_sbrk_start
                0x200061b4        0x4 c:/a/gcc_arm/6/bin/../lib/gcc/arm-none-eabi/6.3.1/../../../../arm-none-eabi/lib/thumb/v7e-m/fpv4-sp/hard\libc_nano.a(lib_a-nano-mallocr.o)
                0x200061b4                __malloc_sbrk_start
 .bss.heap_end.5239
                0x200061b8        0x4 c:/a/gcc_arm/6/bin/../lib/gcc/arm-none-eabi/6.3.1/../../../../arm-none-eabi/lib/thumb/v7e-m/fpv4-sp/hard\libnosys.a(sbrk.o)
 *(COMMON)
 COMMON         0x200061bc        0xc examples/light_switch/client/CMakeFiles/light_switch_client_nrf52840_xxAA_s140_5.0.0-3.alpha.dir/__/__/nrf_mesh_sdk.c.obj
                0x200061bc                nrf_nvic_state
 COMMON         0x200061c8        0x4 mesh/core/libmesh_core_nrf52840_xxAA.a(nrf_mesh.c.obj)
                0x200061c8                m_assertion_handler
 COMMON         0x200061cc       0x78 external/rtt/librtt_nrf52840_xxAA.a(SEGGER_RTT.c.obj)
                0x200061cc                _SEGGER_RTT
 COMMON         0x20006244        0x4 c:/a/gcc_arm/6/bin/../lib/gcc/arm-none-eabi/6.3.1/../../../../arm-none-eabi/lib/thumb/v7e-m/fpv4-sp/hard\libc_nano.a(lib_a-reent.o)
                0x20006244                errno
                0x20006248                . = ALIGN (0x4)
                0x20006248                __bss_end__ = .

.heap           0x20006248     0x2000
                0x20006248                __HeapBase = .
                0x20006248                __end__ = .
                0x20006248                PROVIDE (end, .)
 *(.heap*)
 .heap          0x20006248     0x2000 examples/light_switch/client/CMakeFiles/light_switch_client_nrf52840_xxAA_s140_5.0.0-3.alpha.dir/__/__/__/external/nRF5_SDK_14.0.0_3bcc1f7/components/toolchain/gcc/gcc_startup_nrf52840.S.obj
                0x20008248                __HeapLimit = .

.stack_dummy    0x20006248     0x2000
 *(.stack*)
 .stack         0x20006248     0x2000 examples/light_switch/client/CMakeFiles/light_switch_client_nrf52840_xxAA_s140_5.0.0-3.alpha.dir/__/__/__/external/nRF5_SDK_14.0.0_3bcc1f7/components/toolchain/gcc/gcc_startup_nrf52840.S.obj
                0x2003f002                __StackTop = (ORIGIN (RAM) + LENGTH (RAM))
                0x2003d002                __StackLimit = (__StackTop - SIZEOF (.stack_dummy))
                0x2003f002                PROVIDE (__stack, __StackTop)
                0x00000001                ASSERT ((__StackLimit >= __HeapLimit), region RAM overflowed with stack)
OUTPUT(examples\light_switch\client\light_switch_client_nrf52840_xxAA_s140_5.0.0-3.alpha.elf elf32-littlearm)

.ARM.attributes
                0x00000000       0x30
 .ARM.attributes
                0x00000000       0x22 c:/a/gcc_arm/6/bin/../lib/gcc/arm-none-eabi/6.3.1/thumb/v7e-m/fpv4-sp/hard/crti.o
 .ARM.attributes
                0x00000022       0x34 c:/a/gcc_arm/6/bin/../lib/gcc/arm-none-eabi/6.3.1/thumb/v7e-m/fpv4-sp/hard/crtbegin.o
 .ARM.attributes
                0x00000056       0x20 c:/a/gcc_arm/6/bin/../lib/gcc/arm-none-eabi/6.3.1/../../../../arm-none-eabi/lib/thumb/v7e-m/fpv4-sp/hard/crt0.o
 .ARM.attributes
                0x00000076       0x39 examples/light_switch/client/CMakeFiles/light_switch_client_nrf52840_xxAA_s140_5.0.0-3.alpha.dir/src/main.c.obj
 .ARM.attributes
                0x000000af       0x39 examples/light_switch/client/CMakeFiles/light_switch_client_nrf52840_xxAA_s140_5.0.0-3.alpha.dir/src/provisioner.c.obj
 .ARM.attributes
                0x000000e8       0x39 examples/light_switch/client/CMakeFiles/light_switch_client_nrf52840_xxAA_s140_5.0.0-3.alpha.dir/__/__/nrf_mesh_sdk.c.obj
 .ARM.attributes
                0x00000121       0x39 examples/light_switch/client/CMakeFiles/light_switch_client_nrf52840_xxAA_s140_5.0.0-3.alpha.dir/__/__/hal/src/simple_hal.c.obj
 .ARM.attributes
                0x0000015a       0x39 examples/light_switch/client/CMakeFiles/light_switch_client_nrf52840_xxAA_s140_5.0.0-3.alpha.dir/__/__/nrf_mesh_weak.c.obj
 .ARM.attributes
                0x00000193       0x39 examples/light_switch/client/CMakeFiles/light_switch_client_nrf52840_xxAA_s140_5.0.0-3.alpha.dir/__/__/__/models/simple_on_off/src/simple_on_off_client.c.obj
 .ARM.attributes
                0x000001cc       0x39 examples/light_switch/client/CMakeFiles/light_switch_client_nrf52840_xxAA_s140_5.0.0-3.alpha.dir/__/__/__/models/config/src/config_client.c.obj
 .ARM.attributes
                0x00000205       0x39 examples/light_switch/client/CMakeFiles/light_switch_client_nrf52840_xxAA_s140_5.0.0-3.alpha.dir/__/__/__/models/health/src/health_client.c.obj
 .ARM.attributes
                0x0000023e       0x39 examples/light_switch/client/CMakeFiles/light_switch_client_nrf52840_xxAA_s140_5.0.0-3.alpha.dir/__/__/__/mesh/access/src/access_publish.c.obj
 .ARM.attributes
                0x00000277       0x39 examples/light_switch/client/CMakeFiles/light_switch_client_nrf52840_xxAA_s140_5.0.0-3.alpha.dir/__/__/__/mesh/access/src/access.c.obj
 .ARM.attributes
                0x000002b0       0x39 examples/light_switch/client/CMakeFiles/light_switch_client_nrf52840_xxAA_s140_5.0.0-3.alpha.dir/__/__/__/mesh/access/src/access_reliable.c.obj
 .ARM.attributes
                0x000002e9       0x39 examples/light_switch/client/CMakeFiles/light_switch_client_nrf52840_xxAA_s140_5.0.0-3.alpha.dir/__/__/__/mesh/access/src/device_state_manager.c.obj
 .ARM.attributes
                0x00000322       0x39 examples/light_switch/client/CMakeFiles/light_switch_client_nrf52840_xxAA_s140_5.0.0-3.alpha.dir/__/__/__/mesh/prov/src/prov_provisioner.c.obj
 .ARM.attributes
                0x0000035b       0x39 examples/light_switch/client/CMakeFiles/light_switch_client_nrf52840_xxAA_s140_5.0.0-3.alpha.dir/__/__/__/mesh/prov/src/nrf_mesh_prov.c.obj
 .ARM.attributes
                0x00000394       0x39 examples/light_switch/client/CMakeFiles/light_switch_client_nrf52840_xxAA_s140_5.0.0-3.alpha.dir/__/__/__/mesh/prov/src/provisioning.c.obj
 .ARM.attributes
                0x000003cd       0x39 examples/light_switch/client/CMakeFiles/light_switch_client_nrf52840_xxAA_s140_5.0.0-3.alpha.dir/__/__/__/mesh/prov/src/prov_beacon.c.obj
 .ARM.attributes
                0x00000406       0x39 examples/light_switch/client/CMakeFiles/light_switch_client_nrf52840_xxAA_s140_5.0.0-3.alpha.dir/__/__/__/mesh/prov/src/prov_utils.c.obj
 .ARM.attributes
                0x0000043f       0x39 examples/light_switch/client/CMakeFiles/light_switch_client_nrf52840_xxAA_s140_5.0.0-3.alpha.dir/__/__/__/mesh/prov/src/prov_bearer_adv.c.obj
 .ARM.attributes
                0x00000478       0x39 examples/light_switch/client/CMakeFiles/light_switch_client_nrf52840_xxAA_s140_5.0.0-3.alpha.dir/__/__/__/external/nRF5_SDK_14.0.0_3bcc1f7/components/toolchain/system_nrf52840.c.obj
 .ARM.attributes
                0x000004b1       0x20 examples/light_switch/client/CMakeFiles/light_switch_client_nrf52840_xxAA_s140_5.0.0-3.alpha.dir/__/__/__/external/nRF5_SDK_14.0.0_3bcc1f7/components/toolchain/gcc/gcc_startup_nrf52840.S.obj
 .ARM.attributes
                0x000004d1       0x39 mesh/core/libmesh_core_nrf52840_xxAA.a(nrf_mesh_configure.c.obj)
 .ARM.attributes
                0x0000050a       0x39 mesh/core/libmesh_core_nrf52840_xxAA.a(event.c.obj)
 .ARM.attributes
                0x00000543       0x39 mesh/core/libmesh_core_nrf52840_xxAA.a(packet_mgr.c.obj)
 .ARM.attributes
                0x0000057c       0x39 mesh/core/libmesh_core_nrf52840_xxAA.a(net_state.c.obj)
 .ARM.attributes
                0x000005b5       0x39 mesh/core/libmesh_core_nrf52840_xxAA.a(nrf_mesh_utils.c.obj)
 .ARM.attributes
                0x000005ee       0x39 mesh/core/libmesh_core_nrf52840_xxAA.a(nrf_mesh.c.obj)
 .ARM.attributes
                0x00000627       0x39 mesh/core/libmesh_core_nrf52840_xxAA.a(hal.c.obj)
 .ARM.attributes
                0x00000660       0x39 mesh/core/libmesh_core_nrf52840_xxAA.a(timer_scheduler.c.obj)
 .ARM.attributes
                0x00000699       0x39 mesh/core/libmesh_core_nrf52840_xxAA.a(timer.c.obj)
 .ARM.attributes
                0x000006d2       0x39 mesh/core/libmesh_core_nrf52840_xxAA.a(ticker.c.obj)
 .ARM.attributes
                0x0000070b       0x39 mesh/core/libmesh_core_nrf52840_xxAA.a(rand.c.obj)
 .ARM.attributes
                0x00000744       0x39 mesh/core/libmesh_core_nrf52840_xxAA.a(timeslot.c.obj)
 .ARM.attributes
                0x0000077d       0x39 mesh/core/libmesh_core_nrf52840_xxAA.a(bearer_event.c.obj)
 .ARM.attributes
                0x000007b6       0x39 mesh/core/libmesh_core_nrf52840_xxAA.a(enc.c.obj)
 .ARM.attributes
                0x000007ef       0x39 mesh/core/libmesh_core_nrf52840_xxAA.a(network.c.obj)
 .ARM.attributes
                0x00000828       0x39 mesh/core/libmesh_core_nrf52840_xxAA.a(nrf_mesh_keygen.c.obj)
 .ARM.attributes
                0x00000861       0x39 mesh/core/libmesh_core_nrf52840_xxAA.a(log.c.obj)
 .ARM.attributes
                0x0000089a       0x39 mesh/core/libmesh_core_nrf52840_xxAA.a(flash_manager.c.obj)
 .ARM.attributes
                0x000008d3       0x39 mesh/core/libmesh_core_nrf52840_xxAA.a(ccm_soft.c.obj)
 .ARM.attributes
                0x0000090c       0x39 mesh/core/libmesh_core_nrf52840_xxAA.a(beacon.c.obj)
 .ARM.attributes
                0x00000945       0x39 mesh/core/libmesh_core_nrf52840_xxAA.a(flash_manager_internal.c.obj)
 .ARM.attributes
                0x0000097e       0x39 mesh/core/libmesh_core_nrf52840_xxAA.a(core_tx.c.obj)
 .ARM.attributes
                0x000009b7       0x39 mesh/core/libmesh_core_nrf52840_xxAA.a(net_beacon.c.obj)
 .ARM.attributes
                0x000009f0       0x39 mesh/core/libmesh_core_nrf52840_xxAA.a(advertiser.c.obj)
 .ARM.attributes
                0x00000a29       0x39 mesh/core/libmesh_core_nrf52840_xxAA.a(bearer_handler.c.obj)
 .ARM.attributes
                0x00000a62       0x39 mesh/core/libmesh_core_nrf52840_xxAA.a(broadcast.c.obj)
 .ARM.attributes
                0x00000a9b       0x39 mesh/core/libmesh_core_nrf52840_xxAA.a(radio_config.c.obj)
 .ARM.attributes
                0x00000ad4       0x39 mesh/core/libmesh_core_nrf52840_xxAA.a(scanner.c.obj)
 .ARM.attributes
                0x00000b0d       0x39 mesh/core/libmesh_core_nrf52840_xxAA.a(internal_event.c.obj)
 .ARM.attributes
                0x00000b46       0x39 mesh/core/libmesh_core_nrf52840_xxAA.a(aes.c.obj)
 .ARM.attributes
                0x00000b7f       0x39 mesh/core/libmesh_core_nrf52840_xxAA.a(msg_cache.c.obj)
 .ARM.attributes
                0x00000bb8       0x39 mesh/core/libmesh_core_nrf52840_xxAA.a(transport.c.obj)
 .ARM.attributes
                0x00000bf1       0x39 mesh/core/libmesh_core_nrf52840_xxAA.a(packet_buffer.c.obj)
 .ARM.attributes
                0x00000c2a       0x39 mesh/core/libmesh_core_nrf52840_xxAA.a(flash_manager_defrag.c.obj)
 .ARM.attributes
                0x00000c63       0x39 mesh/core/libmesh_core_nrf52840_xxAA.a(fifo.c.obj)
 .ARM.attributes
                0x00000c9c       0x39 mesh/core/libmesh_core_nrf52840_xxAA.a(mesh_flash.c.obj)
 .ARM.attributes
                0x00000cd5       0x39 mesh/core/libmesh_core_nrf52840_xxAA.a(queue.c.obj)
 .ARM.attributes
                0x00000d0e       0x39 mesh/core/libmesh_core_nrf52840_xxAA.a(aes_cmac.c.obj)
 .ARM.attributes
                0x00000d47       0x39 mesh/core/libmesh_core_nrf52840_xxAA.a(msqueue.c.obj)
 .ARM.attributes
                0x00000d80       0x39 mesh/core/libmesh_core_nrf52840_xxAA.a(replay_cache.c.obj)
 .ARM.attributes
                0x00000db9       0x39 mesh/core/libmesh_core_nrf52840_xxAA.a(filter_engine.c.obj)
 .ARM.attributes
                0x00000df2       0x39 mesh/core/libmesh_core_nrf52840_xxAA.a(nrf_flash.c.obj)
 .ARM.attributes
                0x00000e2b       0x39 external/rtt/librtt_nrf52840_xxAA.a(SEGGER_RTT.c.obj)
 .ARM.attributes
                0x00000e64       0x39 external/rtt/librtt_nrf52840_xxAA.a(SEGGER_RTT_printf.c.obj)
 .ARM.attributes
                0x00000e9d       0x39 external/micro-ecc/libuECC_nrf52840_xxAA.a(uECC.c.obj)
 .ARM.attributes
                0x00000ed6       0x34 c:/a/gcc_arm/6/bin/../lib/gcc/arm-none-eabi/6.3.1/../../../../arm-none-eabi/lib/thumb/v7e-m/fpv4-sp/hard\libc_nano.a(lib_a-exit.o)
 .ARM.attributes
                0x00000f0a       0x34 c:/a/gcc_arm/6/bin/../lib/gcc/arm-none-eabi/6.3.1/../../../../arm-none-eabi/lib/thumb/v7e-m/fpv4-sp/hard\libc_nano.a(lib_a-impure.o)
 .ARM.attributes
                0x00000f3e       0x34 c:/a/gcc_arm/6/bin/../lib/gcc/arm-none-eabi/6.3.1/../../../../arm-none-eabi/lib/thumb/v7e-m/fpv4-sp/hard\libc_nano.a(lib_a-init.o)
 .ARM.attributes
                0x00000f72       0x34 c:/a/gcc_arm/6/bin/../lib/gcc/arm-none-eabi/6.3.1/../../../../arm-none-eabi/lib/thumb/v7e-m/fpv4-sp/hard\libc_nano.a(lib_a-malloc.o)
 .ARM.attributes
                0x00000fa6       0x34 c:/a/gcc_arm/6/bin/../lib/gcc/arm-none-eabi/6.3.1/../../../../arm-none-eabi/lib/thumb/v7e-m/fpv4-sp/hard\libc_nano.a(lib_a-memcmp.o)
 .ARM.attributes
                0x00000fda       0x34 c:/a/gcc_arm/6/bin/../lib/gcc/arm-none-eabi/6.3.1/../../../../arm-none-eabi/lib/thumb/v7e-m/fpv4-sp/hard\libc_nano.a(lib_a-memcpy-stub.o)
 .ARM.attributes
                0x0000100e       0x34 c:/a/gcc_arm/6/bin/../lib/gcc/arm-none-eabi/6.3.1/../../../../arm-none-eabi/lib/thumb/v7e-m/fpv4-sp/hard\libc_nano.a(lib_a-memset.o)
 .ARM.attributes
                0x00001042       0x34 c:/a/gcc_arm/6/bin/../lib/gcc/arm-none-eabi/6.3.1/../../../../arm-none-eabi/lib/thumb/v7e-m/fpv4-sp/hard\libc_nano.a(lib_a-nano-freer.o)
 .ARM.attributes
                0x00001076       0x34 c:/a/gcc_arm/6/bin/../lib/gcc/arm-none-eabi/6.3.1/../../../../arm-none-eabi/lib/thumb/v7e-m/fpv4-sp/hard\libc_nano.a(lib_a-nano-mallocr.o)
 .ARM.attributes
                0x000010aa       0x34 c:/a/gcc_arm/6/bin/../lib/gcc/arm-none-eabi/6.3.1/../../../../arm-none-eabi/lib/thumb/v7e-m/fpv4-sp/hard\libc_nano.a(lib_a-sbrkr.o)
 .ARM.attributes
                0x000010de       0x34 c:/a/gcc_arm/6/bin/../lib/gcc/arm-none-eabi/6.3.1/../../../../arm-none-eabi/lib/thumb/v7e-m/fpv4-sp/hard\libc_nano.a(lib_a-strcpy.o)
 .ARM.attributes
                0x00001112       0x1b c:/a/gcc_arm/6/bin/../lib/gcc/arm-none-eabi/6.3.1/../../../../arm-none-eabi/lib/thumb/v7e-m/fpv4-sp/hard\libc_nano.a(lib_a-strlen.o)
 .ARM.attributes
                0x0000112d       0x34 c:/a/gcc_arm/6/bin/../lib/gcc/arm-none-eabi/6.3.1/../../../../arm-none-eabi/lib/thumb/v7e-m/fpv4-sp/hard\libc_nano.a(lib_a-strrchr.o)
 .ARM.attributes
                0x00001161       0x34 c:/a/gcc_arm/6/bin/../lib/gcc/arm-none-eabi/6.3.1/../../../../arm-none-eabi/lib/thumb/v7e-m/fpv4-sp/hard\libc_nano.a(lib_a-mlock.o)
 .ARM.attributes
                0x00001195       0x34 c:/a/gcc_arm/6/bin/../lib/gcc/arm-none-eabi/6.3.1/../../../../arm-none-eabi/lib/thumb/v7e-m/fpv4-sp/hard\libc_nano.a(lib_a-reent.o)
 .ARM.attributes
                0x000011c9       0x34 c:/a/gcc_arm/6/bin/../lib/gcc/arm-none-eabi/6.3.1/../../../../arm-none-eabi/lib/thumb/v7e-m/fpv4-sp/hard\libc_nano.a(lib_a-strchr.o)
 .ARM.attributes
                0x000011fd       0x34 c:/a/gcc_arm/6/bin/../lib/gcc/arm-none-eabi/6.3.1/thumb/v7e-m/fpv4-sp/hard/crtend.o
 .ARM.attributes
                0x00001231       0x22 c:/a/gcc_arm/6/bin/../lib/gcc/arm-none-eabi/6.3.1/thumb/v7e-m/fpv4-sp/hard/crtn.o
 .ARM.attributes
                0x00001253       0x34 c:/a/gcc_arm/6/bin/../lib/gcc/arm-none-eabi/6.3.1/../../../../arm-none-eabi/lib/thumb/v7e-m/fpv4-sp/hard\libnosys.a(sbrk.o)
 .ARM.attributes
                0x00001287       0x34 c:/a/gcc_arm/6/bin/../lib/gcc/arm-none-eabi/6.3.1/../../../../arm-none-eabi/lib/thumb/v7e-m/fpv4-sp/hard\libnosys.a(_exit.o)

.comment        0x00000000       0x7f
 .comment       0x00000000       0x7f examples/light_switch/client/CMakeFiles/light_switch_client_nrf52840_xxAA_s140_5.0.0-3.alpha.dir/src/main.c.obj
                                 0x80 (size before relaxing)
 .comment       0x0000007f       0x80 examples/light_switch/client/CMakeFiles/light_switch_client_nrf52840_xxAA_s140_5.0.0-3.alpha.dir/src/provisioner.c.obj
 .comment       0x0000007f       0x80 examples/light_switch/client/CMakeFiles/light_switch_client_nrf52840_xxAA_s140_5.0.0-3.alpha.dir/__/__/nrf_mesh_sdk.c.obj
 .comment       0x0000007f       0x80 examples/light_switch/client/CMakeFiles/light_switch_client_nrf52840_xxAA_s140_5.0.0-3.alpha.dir/__/__/hal/src/simple_hal.c.obj
 .comment       0x0000007f       0x80 examples/light_switch/client/CMakeFiles/light_switch_client_nrf52840_xxAA_s140_5.0.0-3.alpha.dir/__/__/nrf_mesh_weak.c.obj
 .comment       0x0000007f       0x80 examples/light_switch/client/CMakeFiles/light_switch_client_nrf52840_xxAA_s140_5.0.0-3.alpha.dir/__/__/__/models/simple_on_off/src/simple_on_off_client.c.obj
 .comment       0x0000007f       0x80 examples/light_switch/client/CMakeFiles/light_switch_client_nrf52840_xxAA_s140_5.0.0-3.alpha.dir/__/__/__/models/config/src/config_client.c.obj
 .comment       0x0000007f       0x80 examples/light_switch/client/CMakeFiles/light_switch_client_nrf52840_xxAA_s140_5.0.0-3.alpha.dir/__/__/__/models/health/src/health_client.c.obj
 .comment       0x0000007f       0x80 examples/light_switch/client/CMakeFiles/light_switch_client_nrf52840_xxAA_s140_5.0.0-3.alpha.dir/__/__/__/mesh/access/src/access_publish.c.obj
 .comment       0x0000007f       0x80 examples/light_switch/client/CMakeFiles/light_switch_client_nrf52840_xxAA_s140_5.0.0-3.alpha.dir/__/__/__/mesh/access/src/access.c.obj
 .comment       0x0000007f       0x80 examples/light_switch/client/CMakeFiles/light_switch_client_nrf52840_xxAA_s140_5.0.0-3.alpha.dir/__/__/__/mesh/access/src/access_reliable.c.obj
 .comment       0x0000007f       0x80 examples/light_switch/client/CMakeFiles/light_switch_client_nrf52840_xxAA_s140_5.0.0-3.alpha.dir/__/__/__/mesh/access/src/device_state_manager.c.obj
 .comment       0x0000007f       0x80 examples/light_switch/client/CMakeFiles/light_switch_client_nrf52840_xxAA_s140_5.0.0-3.alpha.dir/__/__/__/mesh/prov/src/prov_provisioner.c.obj
 .comment       0x0000007f       0x80 examples/light_switch/client/CMakeFiles/light_switch_client_nrf52840_xxAA_s140_5.0.0-3.alpha.dir/__/__/__/mesh/prov/src/nrf_mesh_prov.c.obj
 .comment       0x0000007f       0x80 examples/light_switch/client/CMakeFiles/light_switch_client_nrf52840_xxAA_s140_5.0.0-3.alpha.dir/__/__/__/mesh/prov/src/provisioning.c.obj
 .comment       0x0000007f       0x80 examples/light_switch/client/CMakeFiles/light_switch_client_nrf52840_xxAA_s140_5.0.0-3.alpha.dir/__/__/__/mesh/prov/src/prov_beacon.c.obj
 .comment       0x0000007f       0x80 examples/light_switch/client/CMakeFiles/light_switch_client_nrf52840_xxAA_s140_5.0.0-3.alpha.dir/__/__/__/mesh/prov/src/prov_utils.c.obj
 .comment       0x0000007f       0x80 examples/light_switch/client/CMakeFiles/light_switch_client_nrf52840_xxAA_s140_5.0.0-3.alpha.dir/__/__/__/mesh/prov/src/prov_bearer_adv.c.obj
 .comment       0x0000007f       0x80 examples/light_switch/client/CMakeFiles/light_switch_client_nrf52840_xxAA_s140_5.0.0-3.alpha.dir/__/__/__/external/nRF5_SDK_14.0.0_3bcc1f7/components/toolchain/system_nrf52840.c.obj
 .comment       0x0000007f       0x80 mesh/core/libmesh_core_nrf52840_xxAA.a(nrf_mesh_configure.c.obj)
 .comment       0x0000007f       0x80 mesh/core/libmesh_core_nrf52840_xxAA.a(event.c.obj)
 .comment       0x0000007f       0x80 mesh/core/libmesh_core_nrf52840_xxAA.a(packet_mgr.c.obj)
 .comment       0x0000007f       0x80 mesh/core/libmesh_core_nrf52840_xxAA.a(net_state.c.obj)
 .comment       0x0000007f       0x80 mesh/core/libmesh_core_nrf52840_xxAA.a(nrf_mesh_utils.c.obj)
 .comment       0x0000007f       0x80 mesh/core/libmesh_core_nrf52840_xxAA.a(nrf_mesh.c.obj)
 .comment       0x0000007f       0x80 mesh/core/libmesh_core_nrf52840_xxAA.a(hal.c.obj)
 .comment       0x0000007f       0x80 mesh/core/libmesh_core_nrf52840_xxAA.a(timer_scheduler.c.obj)
 .comment       0x0000007f       0x80 mesh/core/libmesh_core_nrf52840_xxAA.a(timer.c.obj)
 .comment       0x0000007f       0x80 mesh/core/libmesh_core_nrf52840_xxAA.a(ticker.c.obj)
 .comment       0x0000007f       0x80 mesh/core/libmesh_core_nrf52840_xxAA.a(rand.c.obj)
 .comment       0x0000007f       0x80 mesh/core/libmesh_core_nrf52840_xxAA.a(timeslot.c.obj)
 .comment       0x0000007f       0x80 mesh/core/libmesh_core_nrf52840_xxAA.a(bearer_event.c.obj)
 .comment       0x0000007f       0x80 mesh/core/libmesh_core_nrf52840_xxAA.a(enc.c.obj)
 .comment       0x0000007f       0x80 mesh/core/libmesh_core_nrf52840_xxAA.a(network.c.obj)
 .comment       0x0000007f       0x80 mesh/core/libmesh_core_nrf52840_xxAA.a(nrf_mesh_keygen.c.obj)
 .comment       0x0000007f       0x80 mesh/core/libmesh_core_nrf52840_xxAA.a(log.c.obj)
 .comment       0x0000007f       0x80 mesh/core/libmesh_core_nrf52840_xxAA.a(flash_manager.c.obj)
 .comment       0x0000007f       0x80 mesh/core/libmesh_core_nrf52840_xxAA.a(ccm_soft.c.obj)
 .comment       0x0000007f       0x80 mesh/core/libmesh_core_nrf52840_xxAA.a(beacon.c.obj)
 .comment       0x0000007f       0x80 mesh/core/libmesh_core_nrf52840_xxAA.a(flash_manager_internal.c.obj)
 .comment       0x0000007f       0x80 mesh/core/libmesh_core_nrf52840_xxAA.a(core_tx.c.obj)
 .comment       0x0000007f       0x80 mesh/core/libmesh_core_nrf52840_xxAA.a(net_beacon.c.obj)
 .comment       0x0000007f       0x80 mesh/core/libmesh_core_nrf52840_xxAA.a(advertiser.c.obj)
 .comment       0x0000007f       0x80 mesh/core/libmesh_core_nrf52840_xxAA.a(bearer_handler.c.obj)
 .comment       0x0000007f       0x80 mesh/core/libmesh_core_nrf52840_xxAA.a(broadcast.c.obj)
 .comment       0x0000007f       0x80 mesh/core/libmesh_core_nrf52840_xxAA.a(radio_config.c.obj)
 .comment       0x0000007f       0x80 mesh/core/libmesh_core_nrf52840_xxAA.a(scanner.c.obj)
 .comment       0x0000007f       0x80 mesh/core/libmesh_core_nrf52840_xxAA.a(internal_event.c.obj)
 .comment       0x0000007f       0x80 mesh/core/libmesh_core_nrf52840_xxAA.a(aes.c.obj)
 .comment       0x0000007f       0x80 mesh/core/libmesh_core_nrf52840_xxAA.a(msg_cache.c.obj)
 .comment       0x0000007f       0x80 mesh/core/libmesh_core_nrf52840_xxAA.a(transport.c.obj)
 .comment       0x0000007f       0x80 mesh/core/libmesh_core_nrf52840_xxAA.a(packet_buffer.c.obj)
 .comment       0x0000007f       0x80 mesh/core/libmesh_core_nrf52840_xxAA.a(flash_manager_defrag.c.obj)
 .comment       0x0000007f       0x80 mesh/core/libmesh_core_nrf52840_xxAA.a(fifo.c.obj)
 .comment       0x0000007f       0x80 mesh/core/libmesh_core_nrf52840_xxAA.a(mesh_flash.c.obj)
 .comment       0x0000007f       0x80 mesh/core/libmesh_core_nrf52840_xxAA.a(queue.c.obj)
 .comment       0x0000007f       0x80 mesh/core/libmesh_core_nrf52840_xxAA.a(aes_cmac.c.obj)
 .comment       0x0000007f       0x80 mesh/core/libmesh_core_nrf52840_xxAA.a(msqueue.c.obj)
 .comment       0x0000007f       0x80 mesh/core/libmesh_core_nrf52840_xxAA.a(replay_cache.c.obj)
 .comment       0x0000007f       0x80 mesh/core/libmesh_core_nrf52840_xxAA.a(filter_engine.c.obj)
 .comment       0x0000007f       0x80 mesh/core/libmesh_core_nrf52840_xxAA.a(nrf_flash.c.obj)
 .comment       0x0000007f       0x80 external/rtt/librtt_nrf52840_xxAA.a(SEGGER_RTT.c.obj)
 .comment       0x0000007f       0x80 external/rtt/librtt_nrf52840_xxAA.a(SEGGER_RTT_printf.c.obj)
 .comment       0x0000007f       0x80 external/micro-ecc/libuECC_nrf52840_xxAA.a(uECC.c.obj)

.debug_frame    0x00000000      0x2c4
 .debug_frame   0x00000000       0x28 c:/a/gcc_arm/6/bin/../lib/gcc/arm-none-eabi/6.3.1/../../../../arm-none-eabi/lib/thumb/v7e-m/fpv4-sp/hard\libc_nano.a(lib_a-exit.o)
 .debug_frame   0x00000028       0x2c c:/a/gcc_arm/6/bin/../lib/gcc/arm-none-eabi/6.3.1/../../../../arm-none-eabi/lib/thumb/v7e-m/fpv4-sp/hard\libc_nano.a(lib_a-init.o)
 .debug_frame   0x00000054       0x30 c:/a/gcc_arm/6/bin/../lib/gcc/arm-none-eabi/6.3.1/../../../../arm-none-eabi/lib/thumb/v7e-m/fpv4-sp/hard\libc_nano.a(lib_a-malloc.o)
 .debug_frame   0x00000084       0x28 c:/a/gcc_arm/6/bin/../lib/gcc/arm-none-eabi/6.3.1/../../../../arm-none-eabi/lib/thumb/v7e-m/fpv4-sp/hard\libc_nano.a(lib_a-memcmp.o)
 .debug_frame   0x000000ac       0x28 c:/a/gcc_arm/6/bin/../lib/gcc/arm-none-eabi/6.3.1/../../../../arm-none-eabi/lib/thumb/v7e-m/fpv4-sp/hard\libc_nano.a(lib_a-memcpy-stub.o)
 .debug_frame   0x000000d4       0x20 c:/a/gcc_arm/6/bin/../lib/gcc/arm-none-eabi/6.3.1/../../../../arm-none-eabi/lib/thumb/v7e-m/fpv4-sp/hard\libc_nano.a(lib_a-memset.o)
 .debug_frame   0x000000f4       0x38 c:/a/gcc_arm/6/bin/../lib/gcc/arm-none-eabi/6.3.1/../../../../arm-none-eabi/lib/thumb/v7e-m/fpv4-sp/hard\libc_nano.a(lib_a-nano-freer.o)
 .debug_frame   0x0000012c       0x2c c:/a/gcc_arm/6/bin/../lib/gcc/arm-none-eabi/6.3.1/../../../../arm-none-eabi/lib/thumb/v7e-m/fpv4-sp/hard\libc_nano.a(lib_a-nano-mallocr.o)
 .debug_frame   0x00000158       0x2c c:/a/gcc_arm/6/bin/../lib/gcc/arm-none-eabi/6.3.1/../../../../arm-none-eabi/lib/thumb/v7e-m/fpv4-sp/hard\libc_nano.a(lib_a-sbrkr.o)
 .debug_frame   0x00000184       0x20 c:/a/gcc_arm/6/bin/../lib/gcc/arm-none-eabi/6.3.1/../../../../arm-none-eabi/lib/thumb/v7e-m/fpv4-sp/hard\libc_nano.a(lib_a-strcpy.o)
 .debug_frame   0x000001a4       0x34 c:/a/gcc_arm/6/bin/../lib/gcc/arm-none-eabi/6.3.1/../../../../arm-none-eabi/lib/thumb/v7e-m/fpv4-sp/hard\libc_nano.a(lib_a-strrchr.o)
 .debug_frame   0x000001d8       0x30 c:/a/gcc_arm/6/bin/../lib/gcc/arm-none-eabi/6.3.1/../../../../arm-none-eabi/lib/thumb/v7e-m/fpv4-sp/hard\libc_nano.a(lib_a-mlock.o)
 .debug_frame   0x00000208       0x5c c:/a/gcc_arm/6/bin/../lib/gcc/arm-none-eabi/6.3.1/../../../../arm-none-eabi/lib/thumb/v7e-m/fpv4-sp/hard\libc_nano.a(lib_a-reent.o)
 .debug_frame   0x00000264       0x20 c:/a/gcc_arm/6/bin/../lib/gcc/arm-none-eabi/6.3.1/../../../../arm-none-eabi/lib/thumb/v7e-m/fpv4-sp/hard\libc_nano.a(lib_a-strchr.o)
 .debug_frame   0x00000284       0x20 c:/a/gcc_arm/6/bin/../lib/gcc/arm-none-eabi/6.3.1/../../../../arm-none-eabi/lib/thumb/v7e-m/fpv4-sp/hard\libnosys.a(sbrk.o)
 .debug_frame   0x000002a4       0x20 c:/a/gcc_arm/6/bin/../lib/gcc/arm-none-eabi/6.3.1/../../../../arm-none-eabi/lib/thumb/v7e-m/fpv4-sp/hard\libnosys.a(_exit.o)
