Archive member included to satisfy reference by file (symbol)

mesh/core/libmesh_core_nrf51422_xxAC.a(nrf_mesh_configure.c.obj)
                              examples/light_switch/server/CMakeFiles/light_switch_server_nrf51422_xxAC_s130_2.0.1.dir/__/__/__/mesh/prov/src/prov_beacon.c.obj (nrf_mesh_configure_device_uuid_get)
mesh/core/libmesh_core_nrf51422_xxAC.a(event.c.obj)
                              examples/light_switch/server/CMakeFiles/light_switch_server_nrf51422_xxAC_s130_2.0.1.dir/__/__/__/mesh/access/src/access.c.obj (event_handle)
mesh/core/libmesh_core_nrf51422_xxAC.a(net_state.c.obj)
                              examples/light_switch/server/CMakeFiles/light_switch_server_nrf51422_xxAC_s130_2.0.1.dir/__/__/__/mesh/access/src/nrf_mesh_node_config.c.obj (net_state_reset)
mesh/core/libmesh_core_nrf51422_xxAC.a(nrf_mesh_utils.c.obj)
                              examples/light_switch/server/CMakeFiles/light_switch_server_nrf51422_xxAC_s130_2.0.1.dir/__/__/__/models/config/src/config_server.c.obj (nrf_mesh_address_type_get)
mesh/core/libmesh_core_nrf51422_xxAC.a(nrf_mesh.c.obj)
                              examples/light_switch/server/CMakeFiles/light_switch_server_nrf51422_xxAC_s130_2.0.1.dir/__/__/nrf_mesh_sdk.c.obj (nrf_mesh_init)
mesh/core/libmesh_core_nrf51422_xxAC.a(hal.c.obj)
                              mesh/core/libmesh_core_nrf51422_xxAC.a(nrf_mesh.c.obj) (hal_lfclk_ppm_get)
mesh/core/libmesh_core_nrf51422_xxAC.a(timer_scheduler.c.obj)
                              mesh/core/libmesh_core_nrf51422_xxAC.a(nrf_mesh.c.obj) (timer_sch_init)
mesh/core/libmesh_core_nrf51422_xxAC.a(timer.c.obj)
                              mesh/core/libmesh_core_nrf51422_xxAC.a(timer_scheduler.c.obj) (timer_order_cb)
mesh/core/libmesh_core_nrf51422_xxAC.a(ticker.c.obj)
                              mesh/core/libmesh_core_nrf51422_xxAC.a(nrf_mesh.c.obj) (ticker_init)
mesh/core/libmesh_core_nrf51422_xxAC.a(rand.c.obj)
                              examples/light_switch/server/CMakeFiles/light_switch_server_nrf51422_xxAC_s130_2.0.1.dir/__/__/__/mesh/prov/src/prov_utils.c.obj (rand_hw_rng_get)
mesh/core/libmesh_core_nrf51422_xxAC.a(nrf_mesh_opt.c.obj)
                              examples/light_switch/server/CMakeFiles/light_switch_server_nrf51422_xxAC_s130_2.0.1.dir/__/__/__/models/config/src/config_server.c.obj (nrf_mesh_opt_set)
mesh/core/libmesh_core_nrf51422_xxAC.a(timeslot.c.obj)
                              mesh/core/libmesh_core_nrf51422_xxAC.a(nrf_mesh.c.obj) (timeslot_sd_event_handler)
mesh/core/libmesh_core_nrf51422_xxAC.a(bearer_event.c.obj)
                              mesh/core/libmesh_core_nrf51422_xxAC.a(nrf_mesh.c.obj) (bearer_event_init)
mesh/core/libmesh_core_nrf51422_xxAC.a(enc.c.obj)
                              examples/light_switch/server/CMakeFiles/light_switch_server_nrf51422_xxAC_s130_2.0.1.dir/__/__/__/mesh/prov/src/prov_utils.c.obj (enc_aes_cmac)
mesh/core/libmesh_core_nrf51422_xxAC.a(network.c.obj)
                              mesh/core/libmesh_core_nrf51422_xxAC.a(nrf_mesh.c.obj) (network_init)
mesh/core/libmesh_core_nrf51422_xxAC.a(nrf_mesh_keygen.c.obj)
                              examples/light_switch/server/CMakeFiles/light_switch_server_nrf51422_xxAC_s130_2.0.1.dir/__/__/__/mesh/access/src/device_state_manager.c.obj (nrf_mesh_keygen_aid)
mesh/core/libmesh_core_nrf51422_xxAC.a(log.c.obj)
                              examples/light_switch/server/CMakeFiles/light_switch_server_nrf51422_xxAC_s130_2.0.1.dir/src/main.c.obj (log_callback_rtt)
mesh/core/libmesh_core_nrf51422_xxAC.a(flash_manager.c.obj)
                              mesh/core/libmesh_core_nrf51422_xxAC.a(nrf_mesh.c.obj) (flash_manager_init)
mesh/core/libmesh_core_nrf51422_xxAC.a(ccm_soft.c.obj)
                              mesh/core/libmesh_core_nrf51422_xxAC.a(enc.c.obj) (ccm_soft_encrypt)
mesh/core/libmesh_core_nrf51422_xxAC.a(beacon.c.obj)
                              mesh/core/libmesh_core_nrf51422_xxAC.a(nrf_mesh.c.obj) (beacon_init)
mesh/core/libmesh_core_nrf51422_xxAC.a(flash_manager_internal.c.obj)
                              mesh/core/libmesh_core_nrf51422_xxAC.a(flash_manager.c.obj) (entry_get)
mesh/core/libmesh_core_nrf51422_xxAC.a(core_tx.c.obj)
                              mesh/core/libmesh_core_nrf51422_xxAC.a(nrf_mesh.c.obj) (core_tx_init)
mesh/core/libmesh_core_nrf51422_xxAC.a(net_beacon.c.obj)
                              mesh/core/libmesh_core_nrf51422_xxAC.a(network.c.obj) (net_beacon_init)
mesh/core/libmesh_core_nrf51422_xxAC.a(advertiser.c.obj)
                              mesh/core/libmesh_core_nrf51422_xxAC.a(nrf_mesh.c.obj) (advertiser_init)
mesh/core/libmesh_core_nrf51422_xxAC.a(bearer_handler.c.obj)
                              mesh/core/libmesh_core_nrf51422_xxAC.a(nrf_mesh.c.obj) (bearer_handler_init)
mesh/core/libmesh_core_nrf51422_xxAC.a(broadcast.c.obj)
                              mesh/core/libmesh_core_nrf51422_xxAC.a(advertiser.c.obj) (broadcast_send)
mesh/core/libmesh_core_nrf51422_xxAC.a(radio_config.c.obj)
                              mesh/core/libmesh_core_nrf51422_xxAC.a(broadcast.c.obj) (radio_config_reset)
mesh/core/libmesh_core_nrf51422_xxAC.a(scanner.c.obj)
                              mesh/core/libmesh_core_nrf51422_xxAC.a(bearer_handler.c.obj) (scanner_radio_start)
mesh/core/libmesh_core_nrf51422_xxAC.a(internal_event.c.obj)
                              mesh/core/libmesh_core_nrf51422_xxAC.a(network.c.obj) (internal_event_push)
mesh/core/libmesh_core_nrf51422_xxAC.a(aes.c.obj)
                              mesh/core/libmesh_core_nrf51422_xxAC.a(enc.c.obj) (aes_encrypt)
mesh/core/libmesh_core_nrf51422_xxAC.a(msg_cache.c.obj)
                              mesh/core/libmesh_core_nrf51422_xxAC.a(nrf_mesh.c.obj) (msg_cache_init)
mesh/core/libmesh_core_nrf51422_xxAC.a(transport.c.obj)
                              mesh/core/libmesh_core_nrf51422_xxAC.a(nrf_mesh.c.obj) (transport_init)
mesh/core/libmesh_core_nrf51422_xxAC.a(packet_buffer.c.obj)
                              mesh/core/libmesh_core_nrf51422_xxAC.a(flash_manager.c.obj) (packet_buffer_init)
mesh/core/libmesh_core_nrf51422_xxAC.a(flash_manager_defrag.c.obj)
                              mesh/core/libmesh_core_nrf51422_xxAC.a(flash_manager.c.obj) (flash_manager_defrag_init)
mesh/core/libmesh_core_nrf51422_xxAC.a(fifo.c.obj)
                              mesh/core/libmesh_core_nrf51422_xxAC.a(bearer_event.c.obj) (fifo_init)
mesh/core/libmesh_core_nrf51422_xxAC.a(packet_mgr.c.obj)
                              mesh/core/libmesh_core_nrf51422_xxAC.a(nrf_mesh.c.obj) (packet_mgr_init)
mesh/core/libmesh_core_nrf51422_xxAC.a(mesh_flash.c.obj)
                              mesh/core/libmesh_core_nrf51422_xxAC.a(flash_manager.c.obj) (mesh_flash_user_callback_set)
mesh/core/libmesh_core_nrf51422_xxAC.a(queue.c.obj)
                              mesh/core/libmesh_core_nrf51422_xxAC.a(bearer_event.c.obj) (queue_init)
mesh/core/libmesh_core_nrf51422_xxAC.a(aes_cmac.c.obj)
                              mesh/core/libmesh_core_nrf51422_xxAC.a(enc.c.obj) (aes_cmac)
mesh/core/libmesh_core_nrf51422_xxAC.a(msqueue.c.obj)
                              mesh/core/libmesh_core_nrf51422_xxAC.a(mesh_flash.c.obj) (msq_get)
mesh/core/libmesh_core_nrf51422_xxAC.a(replay_cache.c.obj)
                              mesh/core/libmesh_core_nrf51422_xxAC.a(transport.c.obj) (replay_cache_add)
mesh/core/libmesh_core_nrf51422_xxAC.a(filter_engine.c.obj)
                              mesh/core/libmesh_core_nrf51422_xxAC.a(scanner.c.obj) (fen_filters_apply)
mesh/core/libmesh_core_nrf51422_xxAC.a(nrf_flash.c.obj)
                              mesh/core/libmesh_core_nrf51422_xxAC.a(mesh_flash.c.obj) (nrf_flash_erase)
external/rtt/librtt_nrf51422_xxAC.a(SEGGER_RTT.c.obj)
                              mesh/core/libmesh_core_nrf51422_xxAC.a(log.c.obj) (SEGGER_RTT_Write)
external/rtt/librtt_nrf51422_xxAC.a(SEGGER_RTT_printf.c.obj)
                              mesh/core/libmesh_core_nrf51422_xxAC.a(log.c.obj) (SEGGER_RTT_vprintf)
external/micro-ecc/libuECC_nrf51422_xxAC.a(uECC.c.obj)
                              examples/light_switch/server/CMakeFiles/light_switch_server_nrf51422_xxAC_s130_2.0.1.dir/__/__/__/mesh/prov/src/prov_utils.c.obj (uECC_secp256r1)
c:/a/gcc_arm/6/bin/../lib/gcc/arm-none-eabi/6.3.1/thumb/v6-m\libgcc.a(_thumb1_case_uqi.o)
                              examples/light_switch/server/CMakeFiles/light_switch_server_nrf51422_xxAC_s130_2.0.1.dir/__/__/__/models/config/src/config_server.c.obj (__gnu_thumb1_case_uqi)
c:/a/gcc_arm/6/bin/../lib/gcc/arm-none-eabi/6.3.1/thumb/v6-m\libgcc.a(_thumb1_case_shi.o)
                              mesh/core/libmesh_core_nrf51422_xxAC.a(flash_manager.c.obj) (__gnu_thumb1_case_shi)
c:/a/gcc_arm/6/bin/../lib/gcc/arm-none-eabi/6.3.1/thumb/v6-m\libgcc.a(_thumb1_case_uhi.o)
                              examples/light_switch/server/CMakeFiles/light_switch_server_nrf51422_xxAC_s130_2.0.1.dir/__/__/__/mesh/prov/src/prov_provisionee.c.obj (__gnu_thumb1_case_uhi)
c:/a/gcc_arm/6/bin/../lib/gcc/arm-none-eabi/6.3.1/thumb/v6-m\libgcc.a(_udivsi3.o)
                              examples/light_switch/server/CMakeFiles/light_switch_server_nrf51422_xxAC_s130_2.0.1.dir/__/__/__/models/health/src/health_server.c.obj (__aeabi_uidiv)
c:/a/gcc_arm/6/bin/../lib/gcc/arm-none-eabi/6.3.1/thumb/v6-m\libgcc.a(_divsi3.o)
                              examples/light_switch/server/CMakeFiles/light_switch_server_nrf51422_xxAC_s130_2.0.1.dir/__/__/__/mesh/access/src/access_reliable.c.obj (__aeabi_idiv)
c:/a/gcc_arm/6/bin/../lib/gcc/arm-none-eabi/6.3.1/thumb/v6-m\libgcc.a(_dvmd_tls.o)
                              c:/a/gcc_arm/6/bin/../lib/gcc/arm-none-eabi/6.3.1/thumb/v6-m\libgcc.a(_udivsi3.o) (__aeabi_idiv0)
c:/a/gcc_arm/6/bin/../lib/gcc/arm-none-eabi/6.3.1/thumb/v6-m\libgcc.a(_muldi3.o)
                              mesh/core/libmesh_core_nrf51422_xxAC.a(timeslot.c.obj) (__aeabi_lmul)
c:/a/gcc_arm/6/bin/../lib/gcc/arm-none-eabi/6.3.1/../../../../arm-none-eabi/lib/thumb/v6-m\libc_nano.a(lib_a-exit.o)
                              c:/a/gcc_arm/6/bin/../lib/gcc/arm-none-eabi/6.3.1/../../../../arm-none-eabi/lib/thumb/v6-m/crt0.o (exit)
c:/a/gcc_arm/6/bin/../lib/gcc/arm-none-eabi/6.3.1/../../../../arm-none-eabi/lib/thumb/v6-m\libc_nano.a(lib_a-impure.o)
                              c:/a/gcc_arm/6/bin/../lib/gcc/arm-none-eabi/6.3.1/../../../../arm-none-eabi/lib/thumb/v6-m\libc_nano.a(lib_a-exit.o) (_global_impure_ptr)
c:/a/gcc_arm/6/bin/../lib/gcc/arm-none-eabi/6.3.1/../../../../arm-none-eabi/lib/thumb/v6-m\libc_nano.a(lib_a-init.o)
                              c:/a/gcc_arm/6/bin/../lib/gcc/arm-none-eabi/6.3.1/../../../../arm-none-eabi/lib/thumb/v6-m/crt0.o (__libc_init_array)
c:/a/gcc_arm/6/bin/../lib/gcc/arm-none-eabi/6.3.1/../../../../arm-none-eabi/lib/thumb/v6-m\libc_nano.a(lib_a-malloc.o)
                              mesh/core/libmesh_core_nrf51422_xxAC.a(transport.c.obj) (malloc)
c:/a/gcc_arm/6/bin/../lib/gcc/arm-none-eabi/6.3.1/../../../../arm-none-eabi/lib/thumb/v6-m\libc_nano.a(lib_a-memcmp.o)
                              examples/light_switch/server/CMakeFiles/light_switch_server_nrf51422_xxAC_s130_2.0.1.dir/__/__/__/mesh/access/src/device_state_manager.c.obj (memcmp)
c:/a/gcc_arm/6/bin/../lib/gcc/arm-none-eabi/6.3.1/../../../../arm-none-eabi/lib/thumb/v6-m\libc_nano.a(lib_a-memcpy-stub.o)
                              examples/light_switch/server/CMakeFiles/light_switch_server_nrf51422_xxAC_s130_2.0.1.dir/__/__/__/models/config/src/composition_data.c.obj (memcpy)
c:/a/gcc_arm/6/bin/../lib/gcc/arm-none-eabi/6.3.1/../../../../arm-none-eabi/lib/thumb/v6-m\libc_nano.a(lib_a-memset.o)
                              c:/a/gcc_arm/6/bin/../lib/gcc/arm-none-eabi/6.3.1/../../../../arm-none-eabi/lib/thumb/v6-m/crt0.o (memset)
c:/a/gcc_arm/6/bin/../lib/gcc/arm-none-eabi/6.3.1/../../../../arm-none-eabi/lib/thumb/v6-m\libc_nano.a(lib_a-nano-freer.o)
                              c:/a/gcc_arm/6/bin/../lib/gcc/arm-none-eabi/6.3.1/../../../../arm-none-eabi/lib/thumb/v6-m\libc_nano.a(lib_a-malloc.o) (_free_r)
c:/a/gcc_arm/6/bin/../lib/gcc/arm-none-eabi/6.3.1/../../../../arm-none-eabi/lib/thumb/v6-m\libc_nano.a(lib_a-nano-mallocr.o)
                              c:/a/gcc_arm/6/bin/../lib/gcc/arm-none-eabi/6.3.1/../../../../arm-none-eabi/lib/thumb/v6-m\libc_nano.a(lib_a-malloc.o) (_malloc_r)
c:/a/gcc_arm/6/bin/../lib/gcc/arm-none-eabi/6.3.1/../../../../arm-none-eabi/lib/thumb/v6-m\libc_nano.a(lib_a-sbrkr.o)
                              c:/a/gcc_arm/6/bin/../lib/gcc/arm-none-eabi/6.3.1/../../../../arm-none-eabi/lib/thumb/v6-m\libc_nano.a(lib_a-nano-mallocr.o) (_sbrk_r)
c:/a/gcc_arm/6/bin/../lib/gcc/arm-none-eabi/6.3.1/../../../../arm-none-eabi/lib/thumb/v6-m\libc_nano.a(lib_a-strcpy.o)
                              external/rtt/librtt_nrf51422_xxAC.a(SEGGER_RTT.c.obj) (strcpy)
c:/a/gcc_arm/6/bin/../lib/gcc/arm-none-eabi/6.3.1/../../../../arm-none-eabi/lib/thumb/v6-m\libc_nano.a(lib_a-strlen.o)
                              examples/light_switch/server/CMakeFiles/light_switch_server_nrf51422_xxAC_s130_2.0.1.dir/__/__/__/mesh/prov/src/prov_beacon.c.obj (strlen)
c:/a/gcc_arm/6/bin/../lib/gcc/arm-none-eabi/6.3.1/../../../../arm-none-eabi/lib/thumb/v6-m\libc_nano.a(lib_a-strrchr.o)
                              examples/light_switch/server/CMakeFiles/light_switch_server_nrf51422_xxAC_s130_2.0.1.dir/src/main.c.obj (strrchr)
c:/a/gcc_arm/6/bin/../lib/gcc/arm-none-eabi/6.3.1/../../../../arm-none-eabi/lib/thumb/v6-m\libc_nano.a(lib_a-mlock.o)
                              c:/a/gcc_arm/6/bin/../lib/gcc/arm-none-eabi/6.3.1/../../../../arm-none-eabi/lib/thumb/v6-m\libc_nano.a(lib_a-nano-freer.o) (__malloc_lock)
c:/a/gcc_arm/6/bin/../lib/gcc/arm-none-eabi/6.3.1/../../../../arm-none-eabi/lib/thumb/v6-m\libc_nano.a(lib_a-reent.o)
                              c:/a/gcc_arm/6/bin/../lib/gcc/arm-none-eabi/6.3.1/../../../../arm-none-eabi/lib/thumb/v6-m\libc_nano.a(lib_a-sbrkr.o) (errno)
c:/a/gcc_arm/6/bin/../lib/gcc/arm-none-eabi/6.3.1/../../../../arm-none-eabi/lib/thumb/v6-m\libc_nano.a(lib_a-strchr.o)
                              c:/a/gcc_arm/6/bin/../lib/gcc/arm-none-eabi/6.3.1/../../../../arm-none-eabi/lib/thumb/v6-m\libc_nano.a(lib_a-strrchr.o) (strchr)
c:/a/gcc_arm/6/bin/../lib/gcc/arm-none-eabi/6.3.1/../../../../arm-none-eabi/lib/thumb/v6-m\libnosys.a(sbrk.o)
                              c:/a/gcc_arm/6/bin/../lib/gcc/arm-none-eabi/6.3.1/../../../../arm-none-eabi/lib/thumb/v6-m\libc_nano.a(lib_a-sbrkr.o) (_sbrk)
c:/a/gcc_arm/6/bin/../lib/gcc/arm-none-eabi/6.3.1/../../../../arm-none-eabi/lib/thumb/v6-m\libnosys.a(_exit.o)
                              c:/a/gcc_arm/6/bin/../lib/gcc/arm-none-eabi/6.3.1/../../../../arm-none-eabi/lib/thumb/v6-m\libc_nano.a(lib_a-exit.o) (_exit)

Allocating common symbols
Common symbol       size              file

nrf_nvic_state      0x8               examples/light_switch/server/CMakeFiles/light_switch_server_nrf51422_xxAC_s130_2.0.1.dir/__/__/nrf_mesh_sdk.c.obj
errno               0x4               c:/a/gcc_arm/6/bin/../lib/gcc/arm-none-eabi/6.3.1/../../../../arm-none-eabi/lib/thumb/v6-m\libc_nano.a(lib_a-reent.o)
m_assertion_handler
                    0x4               mesh/core/libmesh_core_nrf51422_xxAC.a(nrf_mesh.c.obj)
_SEGGER_RTT         0x78              external/rtt/librtt_nrf51422_xxAC.a(SEGGER_RTT.c.obj)

Discarded input sections

 .text          0x00000000        0x0 c:/a/gcc_arm/6/bin/../lib/gcc/arm-none-eabi/6.3.1/thumb/v6-m/crti.o
 .data          0x00000000        0x0 c:/a/gcc_arm/6/bin/../lib/gcc/arm-none-eabi/6.3.1/thumb/v6-m/crti.o
 .bss           0x00000000        0x0 c:/a/gcc_arm/6/bin/../lib/gcc/arm-none-eabi/6.3.1/thumb/v6-m/crti.o
 .data          0x00000000        0x4 c:/a/gcc_arm/6/bin/../lib/gcc/arm-none-eabi/6.3.1/thumb/v6-m/crtbegin.o
 .data          0x00000000        0x0 c:/a/gcc_arm/6/bin/../lib/gcc/arm-none-eabi/6.3.1/../../../../arm-none-eabi/lib/thumb/v6-m/crt0.o
 .bss           0x00000000        0x0 c:/a/gcc_arm/6/bin/../lib/gcc/arm-none-eabi/6.3.1/../../../../arm-none-eabi/lib/thumb/v6-m/crt0.o
 .ARM.extab     0x00000000        0x0 c:/a/gcc_arm/6/bin/../lib/gcc/arm-none-eabi/6.3.1/../../../../arm-none-eabi/lib/thumb/v6-m/crt0.o
 .text          0x00000000        0x0 examples/light_switch/server/CMakeFiles/light_switch_server_nrf51422_xxAC_s130_2.0.1.dir/src/main.c.obj
 .data          0x00000000        0x0 examples/light_switch/server/CMakeFiles/light_switch_server_nrf51422_xxAC_s130_2.0.1.dir/src/main.c.obj
 .bss           0x00000000        0x0 examples/light_switch/server/CMakeFiles/light_switch_server_nrf51422_xxAC_s130_2.0.1.dir/src/main.c.obj
 .text          0x00000000        0x0 examples/light_switch/server/CMakeFiles/light_switch_server_nrf51422_xxAC_s130_2.0.1.dir/__/__/nrf_mesh_sdk.c.obj
 .data          0x00000000        0x0 examples/light_switch/server/CMakeFiles/light_switch_server_nrf51422_xxAC_s130_2.0.1.dir/__/__/nrf_mesh_sdk.c.obj
 .bss           0x00000000        0x0 examples/light_switch/server/CMakeFiles/light_switch_server_nrf51422_xxAC_s130_2.0.1.dir/__/__/nrf_mesh_sdk.c.obj
 .text.sd_softdevice_enable
                0x00000000        0x4 examples/light_switch/server/CMakeFiles/light_switch_server_nrf51422_xxAC_s130_2.0.1.dir/__/__/nrf_mesh_sdk.c.obj
 .text.sd_ble_enable
                0x00000000        0x4 examples/light_switch/server/CMakeFiles/light_switch_server_nrf51422_xxAC_s130_2.0.1.dir/__/__/nrf_mesh_sdk.c.obj
 .text.mesh_assert_handler
                0x00000000       0x64 examples/light_switch/server/CMakeFiles/light_switch_server_nrf51422_xxAC_s130_2.0.1.dir/__/__/nrf_mesh_sdk.c.obj
 .text.softdevice_assert_handler
                0x00000000       0x7c examples/light_switch/server/CMakeFiles/light_switch_server_nrf51422_xxAC_s130_2.0.1.dir/__/__/nrf_mesh_sdk.c.obj
 .text.mesh_softdevice_enable
                0x00000000      0x12c examples/light_switch/server/CMakeFiles/light_switch_server_nrf51422_xxAC_s130_2.0.1.dir/__/__/nrf_mesh_sdk.c.obj
 .text.mesh_softdevice_setup
                0x00000000       0x80 examples/light_switch/server/CMakeFiles/light_switch_server_nrf51422_xxAC_s130_2.0.1.dir/__/__/nrf_mesh_sdk.c.obj
 .text.mesh_core_setup
                0x00000000      0x158 examples/light_switch/server/CMakeFiles/light_switch_server_nrf51422_xxAC_s130_2.0.1.dir/__/__/nrf_mesh_sdk.c.obj
 .rodata.mesh_core_setup.str1.1
                0x00000000       0x47 examples/light_switch/server/CMakeFiles/light_switch_server_nrf51422_xxAC_s130_2.0.1.dir/__/__/nrf_mesh_sdk.c.obj
 .rodata.mesh_softdevice_enable.str1.1
                0x00000000       0x65 examples/light_switch/server/CMakeFiles/light_switch_server_nrf51422_xxAC_s130_2.0.1.dir/__/__/nrf_mesh_sdk.c.obj
 .rodata.softdevice_assert_handler.str1.1
                0x00000000       0x1d examples/light_switch/server/CMakeFiles/light_switch_server_nrf51422_xxAC_s130_2.0.1.dir/__/__/nrf_mesh_sdk.c.obj
 .text          0x00000000        0x0 examples/light_switch/server/CMakeFiles/light_switch_server_nrf51422_xxAC_s130_2.0.1.dir/__/__/hal/src/simple_hal.c.obj
 .data          0x00000000        0x0 examples/light_switch/server/CMakeFiles/light_switch_server_nrf51422_xxAC_s130_2.0.1.dir/__/__/hal/src/simple_hal.c.obj
 .bss           0x00000000        0x0 examples/light_switch/server/CMakeFiles/light_switch_server_nrf51422_xxAC_s130_2.0.1.dir/__/__/hal/src/simple_hal.c.obj
 .text.hal_buttons_init
                0x00000000        0x4 examples/light_switch/server/CMakeFiles/light_switch_server_nrf51422_xxAC_s130_2.0.1.dir/__/__/hal/src/simple_hal.c.obj
 .text          0x00000000        0x0 examples/light_switch/server/CMakeFiles/light_switch_server_nrf51422_xxAC_s130_2.0.1.dir/__/__/nrf_mesh_weak.c.obj
 .data          0x00000000        0x0 examples/light_switch/server/CMakeFiles/light_switch_server_nrf51422_xxAC_s130_2.0.1.dir/__/__/nrf_mesh_weak.c.obj
 .bss           0x00000000        0x0 examples/light_switch/server/CMakeFiles/light_switch_server_nrf51422_xxAC_s130_2.0.1.dir/__/__/nrf_mesh_weak.c.obj
 .text._weak_handler_ptr
                0x00000000        0x4 examples/light_switch/server/CMakeFiles/light_switch_server_nrf51422_xxAC_s130_2.0.1.dir/__/__/nrf_mesh_weak.c.obj
 .text          0x00000000        0x0 examples/light_switch/server/CMakeFiles/light_switch_server_nrf51422_xxAC_s130_2.0.1.dir/__/__/__/models/simple_on_off/src/simple_on_off_server.c.obj
 .data          0x00000000        0x0 examples/light_switch/server/CMakeFiles/light_switch_server_nrf51422_xxAC_s130_2.0.1.dir/__/__/__/models/simple_on_off/src/simple_on_off_server.c.obj
 .bss           0x00000000        0x0 examples/light_switch/server/CMakeFiles/light_switch_server_nrf51422_xxAC_s130_2.0.1.dir/__/__/__/models/simple_on_off/src/simple_on_off_server.c.obj
 .text          0x00000000        0x0 examples/light_switch/server/CMakeFiles/light_switch_server_nrf51422_xxAC_s130_2.0.1.dir/__/__/__/models/config/src/composition_data.c.obj
 .data          0x00000000        0x0 examples/light_switch/server/CMakeFiles/light_switch_server_nrf51422_xxAC_s130_2.0.1.dir/__/__/__/models/config/src/composition_data.c.obj
 .bss           0x00000000        0x0 examples/light_switch/server/CMakeFiles/light_switch_server_nrf51422_xxAC_s130_2.0.1.dir/__/__/__/models/config/src/composition_data.c.obj
 .text          0x00000000        0x0 examples/light_switch/server/CMakeFiles/light_switch_server_nrf51422_xxAC_s130_2.0.1.dir/__/__/__/models/config/src/config_server.c.obj
 .data          0x00000000        0x0 examples/light_switch/server/CMakeFiles/light_switch_server_nrf51422_xxAC_s130_2.0.1.dir/__/__/__/models/config/src/config_server.c.obj
 .bss           0x00000000        0x0 examples/light_switch/server/CMakeFiles/light_switch_server_nrf51422_xxAC_s130_2.0.1.dir/__/__/__/models/config/src/config_server.c.obj
 .text          0x00000000        0x0 examples/light_switch/server/CMakeFiles/light_switch_server_nrf51422_xxAC_s130_2.0.1.dir/__/__/__/models/config/src/packed_index_list.c.obj
 .data          0x00000000        0x0 examples/light_switch/server/CMakeFiles/light_switch_server_nrf51422_xxAC_s130_2.0.1.dir/__/__/__/models/config/src/packed_index_list.c.obj
 .bss           0x00000000        0x0 examples/light_switch/server/CMakeFiles/light_switch_server_nrf51422_xxAC_s130_2.0.1.dir/__/__/__/models/config/src/packed_index_list.c.obj
 .text          0x00000000        0x0 examples/light_switch/server/CMakeFiles/light_switch_server_nrf51422_xxAC_s130_2.0.1.dir/__/__/__/models/health/src/health_server.c.obj
 .data          0x00000000        0x0 examples/light_switch/server/CMakeFiles/light_switch_server_nrf51422_xxAC_s130_2.0.1.dir/__/__/__/models/health/src/health_server.c.obj
 .bss           0x00000000        0x0 examples/light_switch/server/CMakeFiles/light_switch_server_nrf51422_xxAC_s130_2.0.1.dir/__/__/__/models/health/src/health_server.c.obj
 .text.health_server_fault_is_set
                0x00000000       0x1a examples/light_switch/server/CMakeFiles/light_switch_server_nrf51422_xxAC_s130_2.0.1.dir/__/__/__/models/health/src/health_server.c.obj
 .text.health_server_fault_count_get
                0x00000000        0xc examples/light_switch/server/CMakeFiles/light_switch_server_nrf51422_xxAC_s130_2.0.1.dir/__/__/__/models/health/src/health_server.c.obj
 .text.health_server_fault_register
                0x00000000       0xe0 examples/light_switch/server/CMakeFiles/light_switch_server_nrf51422_xxAC_s130_2.0.1.dir/__/__/__/models/health/src/health_server.c.obj
 .text.health_server_fault_clear
                0x00000000       0x54 examples/light_switch/server/CMakeFiles/light_switch_server_nrf51422_xxAC_s130_2.0.1.dir/__/__/__/models/health/src/health_server.c.obj
 .text.health_server_attention_get
                0x00000000        0x6 examples/light_switch/server/CMakeFiles/light_switch_server_nrf51422_xxAC_s130_2.0.1.dir/__/__/__/models/health/src/health_server.c.obj
 .text.health_server_attention_set
                0x00000000        0x8 examples/light_switch/server/CMakeFiles/light_switch_server_nrf51422_xxAC_s130_2.0.1.dir/__/__/__/models/health/src/health_server.c.obj
 .text          0x00000000        0x0 examples/light_switch/server/CMakeFiles/light_switch_server_nrf51422_xxAC_s130_2.0.1.dir/__/__/__/mesh/access/src/access_publish.c.obj
 .data          0x00000000        0x0 examples/light_switch/server/CMakeFiles/light_switch_server_nrf51422_xxAC_s130_2.0.1.dir/__/__/__/mesh/access/src/access_publish.c.obj
 .bss           0x00000000        0x0 examples/light_switch/server/CMakeFiles/light_switch_server_nrf51422_xxAC_s130_2.0.1.dir/__/__/__/mesh/access/src/access_publish.c.obj
 .text          0x00000000        0x0 examples/light_switch/server/CMakeFiles/light_switch_server_nrf51422_xxAC_s130_2.0.1.dir/__/__/__/mesh/access/src/access.c.obj
 .data          0x00000000        0x0 examples/light_switch/server/CMakeFiles/light_switch_server_nrf51422_xxAC_s130_2.0.1.dir/__/__/__/mesh/access/src/access.c.obj
 .bss           0x00000000        0x0 examples/light_switch/server/CMakeFiles/light_switch_server_nrf51422_xxAC_s130_2.0.1.dir/__/__/__/mesh/access/src/access.c.obj
 .text.access_clear
                0x00000000       0x10 examples/light_switch/server/CMakeFiles/light_switch_server_nrf51422_xxAC_s130_2.0.1.dir/__/__/__/mesh/access/src/access.c.obj
 .text.access_model_subscription_lists_share
                0x00000000       0x54 examples/light_switch/server/CMakeFiles/light_switch_server_nrf51422_xxAC_s130_2.0.1.dir/__/__/__/mesh/access/src/access.c.obj
 .text.access_element_location_set
                0x00000000       0x28 examples/light_switch/server/CMakeFiles/light_switch_server_nrf51422_xxAC_s130_2.0.1.dir/__/__/__/mesh/access/src/access.c.obj
 .text          0x00000000        0x0 examples/light_switch/server/CMakeFiles/light_switch_server_nrf51422_xxAC_s130_2.0.1.dir/__/__/__/mesh/access/src/access_reliable.c.obj
 .data          0x00000000        0x0 examples/light_switch/server/CMakeFiles/light_switch_server_nrf51422_xxAC_s130_2.0.1.dir/__/__/__/mesh/access/src/access_reliable.c.obj
 .bss           0x00000000        0x0 examples/light_switch/server/CMakeFiles/light_switch_server_nrf51422_xxAC_s130_2.0.1.dir/__/__/__/mesh/access/src/access_reliable.c.obj
 .text.access_reliable_cancel_all
                0x00000000       0x34 examples/light_switch/server/CMakeFiles/light_switch_server_nrf51422_xxAC_s130_2.0.1.dir/__/__/__/mesh/access/src/access_reliable.c.obj
 .text.access_model_reliable_cancel
                0x00000000       0x48 examples/light_switch/server/CMakeFiles/light_switch_server_nrf51422_xxAC_s130_2.0.1.dir/__/__/__/mesh/access/src/access_reliable.c.obj
 .text.access_model_reliable_publish
                0x00000000      0x1cc examples/light_switch/server/CMakeFiles/light_switch_server_nrf51422_xxAC_s130_2.0.1.dir/__/__/__/mesh/access/src/access_reliable.c.obj
 .text          0x00000000        0x0 examples/light_switch/server/CMakeFiles/light_switch_server_nrf51422_xxAC_s130_2.0.1.dir/__/__/__/mesh/access/src/device_state_manager.c.obj
 .data          0x00000000        0x0 examples/light_switch/server/CMakeFiles/light_switch_server_nrf51422_xxAC_s130_2.0.1.dir/__/__/__/mesh/access/src/device_state_manager.c.obj
 .bss           0x00000000        0x0 examples/light_switch/server/CMakeFiles/light_switch_server_nrf51422_xxAC_s130_2.0.1.dir/__/__/__/mesh/access/src/device_state_manager.c.obj
 .text.dsm_has_unflashed_data
                0x00000000       0x28 examples/light_switch/server/CMakeFiles/light_switch_server_nrf51422_xxAC_s130_2.0.1.dir/__/__/__/mesh/access/src/device_state_manager.c.obj
 .text.dsm_clear
                0x00000000       0x64 examples/light_switch/server/CMakeFiles/light_switch_server_nrf51422_xxAC_s130_2.0.1.dir/__/__/__/mesh/access/src/device_state_manager.c.obj
 .text.dsm_address_publish_remove
                0x00000000       0x40 examples/light_switch/server/CMakeFiles/light_switch_server_nrf51422_xxAC_s130_2.0.1.dir/__/__/__/mesh/access/src/device_state_manager.c.obj
 .text.dsm_address_subscription_count_get
                0x00000000       0x58 examples/light_switch/server/CMakeFiles/light_switch_server_nrf51422_xxAC_s130_2.0.1.dir/__/__/__/mesh/access/src/device_state_manager.c.obj
 .text.dsm_address_get_all
                0x00000000       0x5c examples/light_switch/server/CMakeFiles/light_switch_server_nrf51422_xxAC_s130_2.0.1.dir/__/__/__/mesh/access/src/device_state_manager.c.obj
 .text.dsm_subnet_handle_get
                0x00000000       0x14 examples/light_switch/server/CMakeFiles/light_switch_server_nrf51422_xxAC_s130_2.0.1.dir/__/__/__/mesh/access/src/device_state_manager.c.obj
 .text.dsm_subnet_handle_to_netkey_index
                0x00000000       0x34 examples/light_switch/server/CMakeFiles/light_switch_server_nrf51422_xxAC_s130_2.0.1.dir/__/__/__/mesh/access/src/device_state_manager.c.obj
 .text.dsm_devkey_handle_get
                0x00000000       0x30 examples/light_switch/server/CMakeFiles/light_switch_server_nrf51422_xxAC_s130_2.0.1.dir/__/__/__/mesh/access/src/device_state_manager.c.obj
 .text.dsm_beacon_secmat_get
                0x00000000       0x34 examples/light_switch/server/CMakeFiles/light_switch_server_nrf51422_xxAC_s130_2.0.1.dir/__/__/__/mesh/access/src/device_state_manager.c.obj
 .text.dsm_proxy_identity_get
                0x00000000        0x4 examples/light_switch/server/CMakeFiles/light_switch_server_nrf51422_xxAC_s130_2.0.1.dir/__/__/__/mesh/access/src/device_state_manager.c.obj
 .text          0x00000000        0x0 examples/light_switch/server/CMakeFiles/light_switch_server_nrf51422_xxAC_s130_2.0.1.dir/__/__/__/mesh/prov/src/prov_provisionee.c.obj
 .data          0x00000000        0x0 examples/light_switch/server/CMakeFiles/light_switch_server_nrf51422_xxAC_s130_2.0.1.dir/__/__/__/mesh/prov/src/prov_provisionee.c.obj
 .bss           0x00000000        0x0 examples/light_switch/server/CMakeFiles/light_switch_server_nrf51422_xxAC_s130_2.0.1.dir/__/__/__/mesh/prov/src/prov_provisionee.c.obj
 .text.prov_provisionee_shared_secret
                0x00000000       0x2c examples/light_switch/server/CMakeFiles/light_switch_server_nrf51422_xxAC_s130_2.0.1.dir/__/__/__/mesh/prov/src/prov_provisionee.c.obj
 .text          0x00000000        0x0 examples/light_switch/server/CMakeFiles/light_switch_server_nrf51422_xxAC_s130_2.0.1.dir/__/__/__/mesh/prov/src/nrf_mesh_prov.c.obj
 .data          0x00000000        0x0 examples/light_switch/server/CMakeFiles/light_switch_server_nrf51422_xxAC_s130_2.0.1.dir/__/__/__/mesh/prov/src/nrf_mesh_prov.c.obj
 .bss           0x00000000        0x0 examples/light_switch/server/CMakeFiles/light_switch_server_nrf51422_xxAC_s130_2.0.1.dir/__/__/__/mesh/prov/src/nrf_mesh_prov.c.obj
 .text.nrf_mesh_prov_provision
                0x00000000       0x5c examples/light_switch/server/CMakeFiles/light_switch_server_nrf51422_xxAC_s130_2.0.1.dir/__/__/__/mesh/prov/src/nrf_mesh_prov.c.obj
 .text.nrf_mesh_prov_oob_use
                0x00000000       0x1c examples/light_switch/server/CMakeFiles/light_switch_server_nrf51422_xxAC_s130_2.0.1.dir/__/__/__/mesh/prov/src/nrf_mesh_prov.c.obj
 .text.nrf_mesh_prov_shared_secret_provide
                0x00000000       0x1c examples/light_switch/server/CMakeFiles/light_switch_server_nrf51422_xxAC_s130_2.0.1.dir/__/__/__/mesh/prov/src/nrf_mesh_prov.c.obj
 .text.nrf_mesh_prov_pubkey_provide
                0x00000000       0x1c examples/light_switch/server/CMakeFiles/light_switch_server_nrf51422_xxAC_s130_2.0.1.dir/__/__/__/mesh/prov/src/nrf_mesh_prov.c.obj
 .text          0x00000000        0x0 examples/light_switch/server/CMakeFiles/light_switch_server_nrf51422_xxAC_s130_2.0.1.dir/__/__/__/mesh/prov/src/provisioning.c.obj
 .data          0x00000000        0x0 examples/light_switch/server/CMakeFiles/light_switch_server_nrf51422_xxAC_s130_2.0.1.dir/__/__/__/mesh/prov/src/provisioning.c.obj
 .bss           0x00000000        0x0 examples/light_switch/server/CMakeFiles/light_switch_server_nrf51422_xxAC_s130_2.0.1.dir/__/__/__/mesh/prov/src/provisioning.c.obj
 .text.prov_listen_stop
                0x00000000        0xe examples/light_switch/server/CMakeFiles/light_switch_server_nrf51422_xxAC_s130_2.0.1.dir/__/__/__/mesh/prov/src/provisioning.c.obj
 .text.prov_link_open
                0x00000000       0x14 examples/light_switch/server/CMakeFiles/light_switch_server_nrf51422_xxAC_s130_2.0.1.dir/__/__/__/mesh/prov/src/provisioning.c.obj
 .text.prov_tx_invite
                0x00000000       0x24 examples/light_switch/server/CMakeFiles/light_switch_server_nrf51422_xxAC_s130_2.0.1.dir/__/__/__/mesh/prov/src/provisioning.c.obj
 .text.prov_tx_start
                0x00000000       0x1e examples/light_switch/server/CMakeFiles/light_switch_server_nrf51422_xxAC_s130_2.0.1.dir/__/__/__/mesh/prov/src/provisioning.c.obj
 .text.prov_tx_data
                0x00000000        0xa examples/light_switch/server/CMakeFiles/light_switch_server_nrf51422_xxAC_s130_2.0.1.dir/__/__/__/mesh/prov/src/provisioning.c.obj
 .text.prov_tx  0x00000000        0x8 examples/light_switch/server/CMakeFiles/light_switch_server_nrf51422_xxAC_s130_2.0.1.dir/__/__/__/mesh/prov/src/provisioning.c.obj
 .text          0x00000000        0x0 examples/light_switch/server/CMakeFiles/light_switch_server_nrf51422_xxAC_s130_2.0.1.dir/__/__/__/mesh/prov/src/prov_beacon.c.obj
 .data          0x00000000        0x0 examples/light_switch/server/CMakeFiles/light_switch_server_nrf51422_xxAC_s130_2.0.1.dir/__/__/__/mesh/prov/src/prov_beacon.c.obj
 .bss           0x00000000        0x0 examples/light_switch/server/CMakeFiles/light_switch_server_nrf51422_xxAC_s130_2.0.1.dir/__/__/__/mesh/prov/src/prov_beacon.c.obj
 .text.prov_beacon_unprov_report
                0x00000000        0xc examples/light_switch/server/CMakeFiles/light_switch_server_nrf51422_xxAC_s130_2.0.1.dir/__/__/__/mesh/prov/src/prov_beacon.c.obj
 .text          0x00000000        0x0 examples/light_switch/server/CMakeFiles/light_switch_server_nrf51422_xxAC_s130_2.0.1.dir/__/__/__/mesh/prov/src/prov_utils.c.obj
 .data          0x00000000        0x0 examples/light_switch/server/CMakeFiles/light_switch_server_nrf51422_xxAC_s130_2.0.1.dir/__/__/__/mesh/prov/src/prov_utils.c.obj
 .bss           0x00000000        0x0 examples/light_switch/server/CMakeFiles/light_switch_server_nrf51422_xxAC_s130_2.0.1.dir/__/__/__/mesh/prov/src/prov_utils.c.obj
 .text          0x00000000        0x0 examples/light_switch/server/CMakeFiles/light_switch_server_nrf51422_xxAC_s130_2.0.1.dir/__/__/__/mesh/prov/src/prov_bearer_adv.c.obj
 .data          0x00000000        0x0 examples/light_switch/server/CMakeFiles/light_switch_server_nrf51422_xxAC_s130_2.0.1.dir/__/__/__/mesh/prov/src/prov_bearer_adv.c.obj
 .bss           0x00000000        0x0 examples/light_switch/server/CMakeFiles/light_switch_server_nrf51422_xxAC_s130_2.0.1.dir/__/__/__/mesh/prov/src/prov_bearer_adv.c.obj
 .text          0x00000000        0x0 examples/light_switch/server/CMakeFiles/light_switch_server_nrf51422_xxAC_s130_2.0.1.dir/__/__/__/mesh/access/src/nrf_mesh_node_config.c.obj
 .data          0x00000000        0x0 examples/light_switch/server/CMakeFiles/light_switch_server_nrf51422_xxAC_s130_2.0.1.dir/__/__/__/mesh/access/src/nrf_mesh_node_config.c.obj
 .bss           0x00000000        0x0 examples/light_switch/server/CMakeFiles/light_switch_server_nrf51422_xxAC_s130_2.0.1.dir/__/__/__/mesh/access/src/nrf_mesh_node_config.c.obj
 .text.nrf_mesh_node_config_clear
                0x00000000       0x1c examples/light_switch/server/CMakeFiles/light_switch_server_nrf51422_xxAC_s130_2.0.1.dir/__/__/__/mesh/access/src/nrf_mesh_node_config.c.obj
 .text          0x00000000        0x0 examples/light_switch/server/CMakeFiles/light_switch_server_nrf51422_xxAC_s130_2.0.1.dir/__/__/__/external/nRF5_SDK_14.0.0_3bcc1f7/components/toolchain/system_nrf51.c.obj
 .data          0x00000000        0x0 examples/light_switch/server/CMakeFiles/light_switch_server_nrf51422_xxAC_s130_2.0.1.dir/__/__/__/external/nRF5_SDK_14.0.0_3bcc1f7/components/toolchain/system_nrf51.c.obj
 .bss           0x00000000        0x0 examples/light_switch/server/CMakeFiles/light_switch_server_nrf51422_xxAC_s130_2.0.1.dir/__/__/__/external/nRF5_SDK_14.0.0_3bcc1f7/components/toolchain/system_nrf51.c.obj
 .text.SystemCoreClockUpdate
                0x00000000       0x10 examples/light_switch/server/CMakeFiles/light_switch_server_nrf51422_xxAC_s130_2.0.1.dir/__/__/__/external/nRF5_SDK_14.0.0_3bcc1f7/components/toolchain/system_nrf51.c.obj
 .data          0x00000000        0x0 examples/light_switch/server/CMakeFiles/light_switch_server_nrf51422_xxAC_s130_2.0.1.dir/__/__/__/external/nRF5_SDK_14.0.0_3bcc1f7/components/toolchain/gcc/gcc_startup_nrf51.S.obj
 .bss           0x00000000        0x0 examples/light_switch/server/CMakeFiles/light_switch_server_nrf51422_xxAC_s130_2.0.1.dir/__/__/__/external/nRF5_SDK_14.0.0_3bcc1f7/components/toolchain/gcc/gcc_startup_nrf51.S.obj
 .text          0x00000000        0x0 mesh/core/libmesh_core_nrf51422_xxAC.a(nrf_mesh_configure.c.obj)
 .data          0x00000000        0x0 mesh/core/libmesh_core_nrf51422_xxAC.a(nrf_mesh_configure.c.obj)
 .bss           0x00000000        0x0 mesh/core/libmesh_core_nrf51422_xxAC.a(nrf_mesh_configure.c.obj)
 .text.nrf_mesh_configure_device_uuid_set
                0x00000000       0x14 mesh/core/libmesh_core_nrf51422_xxAC.a(nrf_mesh_configure.c.obj)
 .text          0x00000000        0x0 mesh/core/libmesh_core_nrf51422_xxAC.a(event.c.obj)
 .data          0x00000000        0x0 mesh/core/libmesh_core_nrf51422_xxAC.a(event.c.obj)
 .bss           0x00000000        0x0 mesh/core/libmesh_core_nrf51422_xxAC.a(event.c.obj)
 .text          0x00000000        0x0 mesh/core/libmesh_core_nrf51422_xxAC.a(net_state.c.obj)
 .data          0x00000000        0x0 mesh/core/libmesh_core_nrf51422_xxAC.a(net_state.c.obj)
 .bss           0x00000000        0x0 mesh/core/libmesh_core_nrf51422_xxAC.a(net_state.c.obj)
 .text.net_state_reset
                0x00000000       0x3c mesh/core/libmesh_core_nrf51422_xxAC.a(net_state.c.obj)
 .text.net_state_iv_update_test_mode_set
                0x00000000        0xc mesh/core/libmesh_core_nrf51422_xxAC.a(net_state.c.obj)
 .data.mem_listener.7351
                0x00000000       0x10 mesh/core/libmesh_core_nrf51422_xxAC.a(net_state.c.obj)
 .text          0x00000000        0x0 mesh/core/libmesh_core_nrf51422_xxAC.a(nrf_mesh_utils.c.obj)
 .data          0x00000000        0x0 mesh/core/libmesh_core_nrf51422_xxAC.a(nrf_mesh_utils.c.obj)
 .bss           0x00000000        0x0 mesh/core/libmesh_core_nrf51422_xxAC.a(nrf_mesh_utils.c.obj)
 .text.nrf_mesh_rand_get
                0x00000000       0x14 mesh/core/libmesh_core_nrf51422_xxAC.a(nrf_mesh_utils.c.obj)
 .text.nrf_mesh_gap_address_type_get
                0x00000000       0x40 mesh/core/libmesh_core_nrf51422_xxAC.a(nrf_mesh_utils.c.obj)
 .text          0x00000000        0x0 mesh/core/libmesh_core_nrf51422_xxAC.a(nrf_mesh.c.obj)
 .data          0x00000000        0x0 mesh/core/libmesh_core_nrf51422_xxAC.a(nrf_mesh.c.obj)
 .bss           0x00000000        0x0 mesh/core/libmesh_core_nrf51422_xxAC.a(nrf_mesh.c.obj)
 .text.nrf_mesh_disable
                0x00000000       0x28 mesh/core/libmesh_core_nrf51422_xxAC.a(nrf_mesh.c.obj)
 .text.nrf_mesh_rx_cb_set
                0x00000000        0xc mesh/core/libmesh_core_nrf51422_xxAC.a(nrf_mesh.c.obj)
 .text.nrf_mesh_rx_cb_clear
                0x00000000        0xc mesh/core/libmesh_core_nrf51422_xxAC.a(nrf_mesh.c.obj)
 .text          0x00000000        0x0 mesh/core/libmesh_core_nrf51422_xxAC.a(hal.c.obj)
 .data          0x00000000        0x0 mesh/core/libmesh_core_nrf51422_xxAC.a(hal.c.obj)
 .bss           0x00000000        0x0 mesh/core/libmesh_core_nrf51422_xxAC.a(hal.c.obj)
 .text.sd_power_reset_reason_clr
                0x00000000        0x4 mesh/core/libmesh_core_nrf51422_xxAC.a(hal.c.obj)
 .text.sd_power_gpregret_set
                0x00000000        0x4 mesh/core/libmesh_core_nrf51422_xxAC.a(hal.c.obj)
 .text.hal_device_reset
                0x00000000       0x2c mesh/core/libmesh_core_nrf51422_xxAC.a(hal.c.obj)
 .text          0x00000000        0x0 mesh/core/libmesh_core_nrf51422_xxAC.a(timer_scheduler.c.obj)
 .data          0x00000000        0x0 mesh/core/libmesh_core_nrf51422_xxAC.a(timer_scheduler.c.obj)
 .bss           0x00000000        0x0 mesh/core/libmesh_core_nrf51422_xxAC.a(timer_scheduler.c.obj)
 .text          0x00000000        0x0 mesh/core/libmesh_core_nrf51422_xxAC.a(timer.c.obj)
 .data          0x00000000        0x0 mesh/core/libmesh_core_nrf51422_xxAC.a(timer.c.obj)
 .bss           0x00000000        0x0 mesh/core/libmesh_core_nrf51422_xxAC.a(timer.c.obj)
 .text.timer_order_cb_ppi
                0x00000000       0xc4 mesh/core/libmesh_core_nrf51422_xxAC.a(timer.c.obj)
 .text.timer_order_ppi
                0x00000000       0x80 mesh/core/libmesh_core_nrf51422_xxAC.a(timer.c.obj)
 .text.timer_abort
                0x00000000       0x7c mesh/core/libmesh_core_nrf51422_xxAC.a(timer.c.obj)
 .text          0x00000000        0x0 mesh/core/libmesh_core_nrf51422_xxAC.a(ticker.c.obj)
 .data          0x00000000        0x0 mesh/core/libmesh_core_nrf51422_xxAC.a(ticker.c.obj)
 .bss           0x00000000        0x0 mesh/core/libmesh_core_nrf51422_xxAC.a(ticker.c.obj)
 .text.ticker_get
                0x00000000        0xc mesh/core/libmesh_core_nrf51422_xxAC.a(ticker.c.obj)
 .text          0x00000000        0x0 mesh/core/libmesh_core_nrf51422_xxAC.a(rand.c.obj)
 .data          0x00000000        0x0 mesh/core/libmesh_core_nrf51422_xxAC.a(rand.c.obj)
 .bss           0x00000000        0x0 mesh/core/libmesh_core_nrf51422_xxAC.a(rand.c.obj)
 .text          0x00000000        0x0 mesh/core/libmesh_core_nrf51422_xxAC.a(nrf_mesh_opt.c.obj)
 .data          0x00000000        0x0 mesh/core/libmesh_core_nrf51422_xxAC.a(nrf_mesh_opt.c.obj)
 .bss           0x00000000        0x0 mesh/core/libmesh_core_nrf51422_xxAC.a(nrf_mesh_opt.c.obj)
 .text          0x00000000        0x0 mesh/core/libmesh_core_nrf51422_xxAC.a(timeslot.c.obj)
 .data          0x00000000        0x0 mesh/core/libmesh_core_nrf51422_xxAC.a(timeslot.c.obj)
 .bss           0x00000000        0x0 mesh/core/libmesh_core_nrf51422_xxAC.a(timeslot.c.obj)
 .text.timeslot_end_time_get
                0x00000000       0x18 mesh/core/libmesh_core_nrf51422_xxAC.a(timeslot.c.obj)
 .text.timeslot_is_in_ts
                0x00000000        0xc mesh/core/libmesh_core_nrf51422_xxAC.a(timeslot.c.obj)
 .text.timeslot_restart
                0x00000000       0x14 mesh/core/libmesh_core_nrf51422_xxAC.a(timeslot.c.obj)
 .text          0x00000000        0x0 mesh/core/libmesh_core_nrf51422_xxAC.a(bearer_event.c.obj)
 .data          0x00000000        0x0 mesh/core/libmesh_core_nrf51422_xxAC.a(bearer_event.c.obj)
 .bss           0x00000000        0x0 mesh/core/libmesh_core_nrf51422_xxAC.a(bearer_event.c.obj)
 .text.bearer_event_generic_post
                0x00000000       0x34 mesh/core/libmesh_core_nrf51422_xxAC.a(bearer_event.c.obj)
 .text.bearer_event_timer_sch_post
                0x00000000       0x38 mesh/core/libmesh_core_nrf51422_xxAC.a(bearer_event.c.obj)
 .text          0x00000000        0x0 mesh/core/libmesh_core_nrf51422_xxAC.a(enc.c.obj)
 .data          0x00000000        0x0 mesh/core/libmesh_core_nrf51422_xxAC.a(enc.c.obj)
 .bss           0x00000000        0x0 mesh/core/libmesh_core_nrf51422_xxAC.a(enc.c.obj)
 .text.enc_key_generate
                0x00000000        0xa mesh/core/libmesh_core_nrf51422_xxAC.a(enc.c.obj)
 .text          0x00000000        0x0 mesh/core/libmesh_core_nrf51422_xxAC.a(network.c.obj)
 .data          0x00000000        0x0 mesh/core/libmesh_core_nrf51422_xxAC.a(network.c.obj)
 .bss           0x00000000        0x0 mesh/core/libmesh_core_nrf51422_xxAC.a(network.c.obj)
 .text.network_packet_discard
                0x00000000       0x40 mesh/core/libmesh_core_nrf51422_xxAC.a(network.c.obj)
 .text          0x00000000        0x0 mesh/core/libmesh_core_nrf51422_xxAC.a(nrf_mesh_keygen.c.obj)
 .data          0x00000000        0x0 mesh/core/libmesh_core_nrf51422_xxAC.a(nrf_mesh_keygen.c.obj)
 .bss           0x00000000        0x0 mesh/core/libmesh_core_nrf51422_xxAC.a(nrf_mesh_keygen.c.obj)
 .text.nrf_mesh_keygen_identitykey
                0x00000000       0x4c mesh/core/libmesh_core_nrf51422_xxAC.a(nrf_mesh_keygen.c.obj)
 .text          0x00000000        0x0 mesh/core/libmesh_core_nrf51422_xxAC.a(log.c.obj)
 .data          0x00000000        0x0 mesh/core/libmesh_core_nrf51422_xxAC.a(log.c.obj)
 .bss           0x00000000        0x0 mesh/core/libmesh_core_nrf51422_xxAC.a(log.c.obj)
 .text.log_callback_logview
                0x00000000       0x34 mesh/core/libmesh_core_nrf51422_xxAC.a(log.c.obj)
 .text.log_set_callback
                0x00000000        0xc mesh/core/libmesh_core_nrf51422_xxAC.a(log.c.obj)
 .rodata.log_callback_logview.str1.1
                0x00000000        0xf mesh/core/libmesh_core_nrf51422_xxAC.a(log.c.obj)
 .text          0x00000000        0x0 mesh/core/libmesh_core_nrf51422_xxAC.a(flash_manager.c.obj)
 .data          0x00000000        0x0 mesh/core/libmesh_core_nrf51422_xxAC.a(flash_manager.c.obj)
 .bss           0x00000000        0x0 mesh/core/libmesh_core_nrf51422_xxAC.a(flash_manager.c.obj)
 .text.flash_manager_entry_count_get
                0x00000000       0x5c mesh/core/libmesh_core_nrf51422_xxAC.a(flash_manager.c.obj)
 .text.flash_manager_entry_release
                0x00000000       0x10 mesh/core/libmesh_core_nrf51422_xxAC.a(flash_manager.c.obj)
 .text          0x00000000        0x0 mesh/core/libmesh_core_nrf51422_xxAC.a(ccm_soft.c.obj)
 .data          0x00000000        0x0 mesh/core/libmesh_core_nrf51422_xxAC.a(ccm_soft.c.obj)
 .bss           0x00000000        0x0 mesh/core/libmesh_core_nrf51422_xxAC.a(ccm_soft.c.obj)
 .text          0x00000000        0x0 mesh/core/libmesh_core_nrf51422_xxAC.a(beacon.c.obj)
 .data          0x00000000        0x0 mesh/core/libmesh_core_nrf51422_xxAC.a(beacon.c.obj)
 .bss           0x00000000        0x0 mesh/core/libmesh_core_nrf51422_xxAC.a(beacon.c.obj)
 .text          0x00000000        0x0 mesh/core/libmesh_core_nrf51422_xxAC.a(flash_manager_internal.c.obj)
 .data          0x00000000        0x0 mesh/core/libmesh_core_nrf51422_xxAC.a(flash_manager_internal.c.obj)
 .bss           0x00000000        0x0 mesh/core/libmesh_core_nrf51422_xxAC.a(flash_manager_internal.c.obj)
 .text          0x00000000        0x0 mesh/core/libmesh_core_nrf51422_xxAC.a(core_tx.c.obj)
 .data          0x00000000        0x0 mesh/core/libmesh_core_nrf51422_xxAC.a(core_tx.c.obj)
 .bss           0x00000000        0x0 mesh/core/libmesh_core_nrf51422_xxAC.a(core_tx.c.obj)
 .text.core_tx_adv_address_set
                0x00000000       0x34 mesh/core/libmesh_core_nrf51422_xxAC.a(core_tx.c.obj)
 .text          0x00000000        0x0 mesh/core/libmesh_core_nrf51422_xxAC.a(net_beacon.c.obj)
 .data          0x00000000        0x0 mesh/core/libmesh_core_nrf51422_xxAC.a(net_beacon.c.obj)
 .bss           0x00000000        0x0 mesh/core/libmesh_core_nrf51422_xxAC.a(net_beacon.c.obj)
 .text          0x00000000        0x0 mesh/core/libmesh_core_nrf51422_xxAC.a(advertiser.c.obj)
 .data          0x00000000        0x0 mesh/core/libmesh_core_nrf51422_xxAC.a(advertiser.c.obj)
 .bss           0x00000000        0x0 mesh/core/libmesh_core_nrf51422_xxAC.a(advertiser.c.obj)
 .text.advertiser_disable
                0x00000000        0xe mesh/core/libmesh_core_nrf51422_xxAC.a(advertiser.c.obj)
 .text.advertiser_channels_set
                0x00000000       0x94 mesh/core/libmesh_core_nrf51422_xxAC.a(advertiser.c.obj)
 .text.advertiser_address_set
                0x00000000       0x58 mesh/core/libmesh_core_nrf51422_xxAC.a(advertiser.c.obj)
 .text.advertiser_config_set
                0x00000000       0x48 mesh/core/libmesh_core_nrf51422_xxAC.a(advertiser.c.obj)
 .text.advertiser_config_get
                0x00000000       0x30 mesh/core/libmesh_core_nrf51422_xxAC.a(advertiser.c.obj)
 .text          0x00000000        0x0 mesh/core/libmesh_core_nrf51422_xxAC.a(bearer_handler.c.obj)
 .data          0x00000000        0x0 mesh/core/libmesh_core_nrf51422_xxAC.a(bearer_handler.c.obj)
 .bss           0x00000000        0x0 mesh/core/libmesh_core_nrf51422_xxAC.a(bearer_handler.c.obj)
 .text.bearer_handler_stop
                0x00000000       0x20 mesh/core/libmesh_core_nrf51422_xxAC.a(bearer_handler.c.obj)
 .text.bearer_handler_action_fire
                0x00000000       0xc0 mesh/core/libmesh_core_nrf51422_xxAC.a(bearer_handler.c.obj)
 .text          0x00000000        0x0 mesh/core/libmesh_core_nrf51422_xxAC.a(broadcast.c.obj)
 .data          0x00000000        0x0 mesh/core/libmesh_core_nrf51422_xxAC.a(broadcast.c.obj)
 .bss           0x00000000        0x0 mesh/core/libmesh_core_nrf51422_xxAC.a(broadcast.c.obj)
 .text          0x00000000        0x0 mesh/core/libmesh_core_nrf51422_xxAC.a(radio_config.c.obj)
 .data          0x00000000        0x0 mesh/core/libmesh_core_nrf51422_xxAC.a(radio_config.c.obj)
 .bss           0x00000000        0x0 mesh/core/libmesh_core_nrf51422_xxAC.a(radio_config.c.obj)
 .text.radio_config_access_addr_get
                0x00000000       0x78 mesh/core/libmesh_core_nrf51422_xxAC.a(radio_config.c.obj)
 .text          0x00000000        0x0 mesh/core/libmesh_core_nrf51422_xxAC.a(scanner.c.obj)
 .data          0x00000000        0x0 mesh/core/libmesh_core_nrf51422_xxAC.a(scanner.c.obj)
 .bss           0x00000000        0x0 mesh/core/libmesh_core_nrf51422_xxAC.a(scanner.c.obj)
 .text.scanner_disable
                0x00000000       0x44 mesh/core/libmesh_core_nrf51422_xxAC.a(scanner.c.obj)
 .text.scanner_is_enabled
                0x00000000       0x14 mesh/core/libmesh_core_nrf51422_xxAC.a(scanner.c.obj)
 .text.scanner_stats_get
                0x00000000        0xc mesh/core/libmesh_core_nrf51422_xxAC.a(scanner.c.obj)
 .text.scanner_config_radio_mode_set
                0x00000000       0x10 mesh/core/libmesh_core_nrf51422_xxAC.a(scanner.c.obj)
 .text          0x00000000        0x0 mesh/core/libmesh_core_nrf51422_xxAC.a(internal_event.c.obj)
 .data          0x00000000        0x0 mesh/core/libmesh_core_nrf51422_xxAC.a(internal_event.c.obj)
 .bss           0x00000000        0x0 mesh/core/libmesh_core_nrf51422_xxAC.a(internal_event.c.obj)
 .text.internal_event_init
                0x00000000       0x40 mesh/core/libmesh_core_nrf51422_xxAC.a(internal_event.c.obj)
 .text.internal_event_pop
                0x00000000       0x20 mesh/core/libmesh_core_nrf51422_xxAC.a(internal_event.c.obj)
 .bss.m_internal_event_fifo_buffer
                0x00000000      0x100 mesh/core/libmesh_core_nrf51422_xxAC.a(internal_event.c.obj)
 .text          0x00000000        0x0 mesh/core/libmesh_core_nrf51422_xxAC.a(aes.c.obj)
 .data          0x00000000        0x0 mesh/core/libmesh_core_nrf51422_xxAC.a(aes.c.obj)
 .bss           0x00000000        0x0 mesh/core/libmesh_core_nrf51422_xxAC.a(aes.c.obj)
 .text          0x00000000        0x0 mesh/core/libmesh_core_nrf51422_xxAC.a(msg_cache.c.obj)
 .data          0x00000000        0x0 mesh/core/libmesh_core_nrf51422_xxAC.a(msg_cache.c.obj)
 .bss           0x00000000        0x0 mesh/core/libmesh_core_nrf51422_xxAC.a(msg_cache.c.obj)
 .text.msg_cache_clear
                0x00000000       0x18 mesh/core/libmesh_core_nrf51422_xxAC.a(msg_cache.c.obj)
 .text          0x00000000        0x0 mesh/core/libmesh_core_nrf51422_xxAC.a(transport.c.obj)
 .data          0x00000000        0x0 mesh/core/libmesh_core_nrf51422_xxAC.a(transport.c.obj)
 .bss           0x00000000        0x0 mesh/core/libmesh_core_nrf51422_xxAC.a(transport.c.obj)
 .text.transport_sar_mem_funcs_set
                0x00000000       0x3c mesh/core/libmesh_core_nrf51422_xxAC.a(transport.c.obj)
 .text          0x00000000        0x0 mesh/core/libmesh_core_nrf51422_xxAC.a(packet_buffer.c.obj)
 .data          0x00000000        0x0 mesh/core/libmesh_core_nrf51422_xxAC.a(packet_buffer.c.obj)
 .bss           0x00000000        0x0 mesh/core/libmesh_core_nrf51422_xxAC.a(packet_buffer.c.obj)
 .text.packet_buffer_max_packet_len_get
                0x00000000       0x38 mesh/core/libmesh_core_nrf51422_xxAC.a(packet_buffer.c.obj)
 .text          0x00000000        0x0 mesh/core/libmesh_core_nrf51422_xxAC.a(flash_manager_defrag.c.obj)
 .data          0x00000000        0x0 mesh/core/libmesh_core_nrf51422_xxAC.a(flash_manager_defrag.c.obj)
 .bss           0x00000000        0x0 mesh/core/libmesh_core_nrf51422_xxAC.a(flash_manager_defrag.c.obj)
 .text.flash_manager_defragging
                0x00000000       0x44 mesh/core/libmesh_core_nrf51422_xxAC.a(flash_manager_defrag.c.obj)
 .text          0x00000000        0x0 mesh/core/libmesh_core_nrf51422_xxAC.a(fifo.c.obj)
 .data          0x00000000        0x0 mesh/core/libmesh_core_nrf51422_xxAC.a(fifo.c.obj)
 .bss           0x00000000        0x0 mesh/core/libmesh_core_nrf51422_xxAC.a(fifo.c.obj)
 .text.fifo_peek_at
                0x00000000       0x5a mesh/core/libmesh_core_nrf51422_xxAC.a(fifo.c.obj)
 .text.fifo_peek
                0x00000000        0xa mesh/core/libmesh_core_nrf51422_xxAC.a(fifo.c.obj)
 .text.fifo_flush
                0x00000000        0x6 mesh/core/libmesh_core_nrf51422_xxAC.a(fifo.c.obj)
 .text.fifo_get_len
                0x00000000        0x8 mesh/core/libmesh_core_nrf51422_xxAC.a(fifo.c.obj)
 .text.fifo_is_full
                0x00000000       0x12 mesh/core/libmesh_core_nrf51422_xxAC.a(fifo.c.obj)
 .text.fifo_is_empty
                0x00000000        0xe mesh/core/libmesh_core_nrf51422_xxAC.a(fifo.c.obj)
 .text          0x00000000        0x0 mesh/core/libmesh_core_nrf51422_xxAC.a(packet_mgr.c.obj)
 .data          0x00000000        0x0 mesh/core/libmesh_core_nrf51422_xxAC.a(packet_mgr.c.obj)
 .bss           0x00000000        0x0 mesh/core/libmesh_core_nrf51422_xxAC.a(packet_mgr.c.obj)
 .text.packet_mgr_alloc
                0x00000000      0x18c mesh/core/libmesh_core_nrf51422_xxAC.a(packet_mgr.c.obj)
 .text.packet_mgr_free
                0x00000000       0x6c mesh/core/libmesh_core_nrf51422_xxAC.a(packet_mgr.c.obj)
 .text.packet_mgr_get_free_space
                0x00000000       0x1c mesh/core/libmesh_core_nrf51422_xxAC.a(packet_mgr.c.obj)
 .text.packet_mgr_refcount_get
                0x00000000        0x6 mesh/core/libmesh_core_nrf51422_xxAC.a(packet_mgr.c.obj)
 .text.packet_mgr_size_get
                0x00000000        0x6 mesh/core/libmesh_core_nrf51422_xxAC.a(packet_mgr.c.obj)
 .text          0x00000000        0x0 mesh/core/libmesh_core_nrf51422_xxAC.a(mesh_flash.c.obj)
 .data          0x00000000        0x0 mesh/core/libmesh_core_nrf51422_xxAC.a(mesh_flash.c.obj)
 .bss           0x00000000        0x0 mesh/core/libmesh_core_nrf51422_xxAC.a(mesh_flash.c.obj)
 .text.mesh_flash_op_available_slots
                0x00000000       0x2c mesh/core/libmesh_core_nrf51422_xxAC.a(mesh_flash.c.obj)
 .text.mesh_flash_in_progress
                0x00000000       0x38 mesh/core/libmesh_core_nrf51422_xxAC.a(mesh_flash.c.obj)
 .text.mesh_flash_set_suspended
                0x00000000       0x90 mesh/core/libmesh_core_nrf51422_xxAC.a(mesh_flash.c.obj)
 .bss.suspend_count.7471
                0x00000000        0x4 mesh/core/libmesh_core_nrf51422_xxAC.a(mesh_flash.c.obj)
 .text          0x00000000        0x0 mesh/core/libmesh_core_nrf51422_xxAC.a(queue.c.obj)
 .data          0x00000000        0x0 mesh/core/libmesh_core_nrf51422_xxAC.a(queue.c.obj)
 .bss           0x00000000        0x0 mesh/core/libmesh_core_nrf51422_xxAC.a(queue.c.obj)
 .text          0x00000000        0x0 mesh/core/libmesh_core_nrf51422_xxAC.a(aes_cmac.c.obj)
 .data          0x00000000        0x0 mesh/core/libmesh_core_nrf51422_xxAC.a(aes_cmac.c.obj)
 .bss           0x00000000        0x0 mesh/core/libmesh_core_nrf51422_xxAC.a(aes_cmac.c.obj)
 .text          0x00000000        0x0 mesh/core/libmesh_core_nrf51422_xxAC.a(msqueue.c.obj)
 .data          0x00000000        0x0 mesh/core/libmesh_core_nrf51422_xxAC.a(msqueue.c.obj)
 .bss           0x00000000        0x0 mesh/core/libmesh_core_nrf51422_xxAC.a(msqueue.c.obj)
 .text          0x00000000        0x0 mesh/core/libmesh_core_nrf51422_xxAC.a(replay_cache.c.obj)
 .data          0x00000000        0x0 mesh/core/libmesh_core_nrf51422_xxAC.a(replay_cache.c.obj)
 .bss           0x00000000        0x0 mesh/core/libmesh_core_nrf51422_xxAC.a(replay_cache.c.obj)
 .text.replay_cache_on_iv_update
                0x00000000       0x28 mesh/core/libmesh_core_nrf51422_xxAC.a(replay_cache.c.obj)
 .text          0x00000000        0x0 mesh/core/libmesh_core_nrf51422_xxAC.a(filter_engine.c.obj)
 .data          0x00000000        0x0 mesh/core/libmesh_core_nrf51422_xxAC.a(filter_engine.c.obj)
 .bss           0x00000000        0x0 mesh/core/libmesh_core_nrf51422_xxAC.a(filter_engine.c.obj)
 .text.fen_filter_start
                0x00000000       0x74 mesh/core/libmesh_core_nrf51422_xxAC.a(filter_engine.c.obj)
 .text.fen_filter_stop
                0x00000000       0x58 mesh/core/libmesh_core_nrf51422_xxAC.a(filter_engine.c.obj)
 .text.fen_accepted_amount_get
                0x00000000        0xc mesh/core/libmesh_core_nrf51422_xxAC.a(filter_engine.c.obj)
 .text          0x00000000        0x0 mesh/core/libmesh_core_nrf51422_xxAC.a(nrf_flash.c.obj)
 .data          0x00000000        0x0 mesh/core/libmesh_core_nrf51422_xxAC.a(nrf_flash.c.obj)
 .bss           0x00000000        0x0 mesh/core/libmesh_core_nrf51422_xxAC.a(nrf_flash.c.obj)
 .text          0x00000000        0x0 external/rtt/librtt_nrf51422_xxAC.a(SEGGER_RTT.c.obj)
 .data          0x00000000        0x0 external/rtt/librtt_nrf51422_xxAC.a(SEGGER_RTT.c.obj)
 .bss           0x00000000        0x0 external/rtt/librtt_nrf51422_xxAC.a(SEGGER_RTT.c.obj)
 .text._PostTerminalSwitch.constprop.0
                0x00000000       0x20 external/rtt/librtt_nrf51422_xxAC.a(SEGGER_RTT.c.obj)
 .text.SEGGER_RTT_ReadNoLock
                0x00000000       0xa4 external/rtt/librtt_nrf51422_xxAC.a(SEGGER_RTT.c.obj)
 .text.SEGGER_RTT_Read
                0x00000000       0x1a external/rtt/librtt_nrf51422_xxAC.a(SEGGER_RTT.c.obj)
 .text.SEGGER_RTT_WriteSkipNoLock
                0x00000000       0xb0 external/rtt/librtt_nrf51422_xxAC.a(SEGGER_RTT.c.obj)
 .text.SEGGER_RTT_WriteString
                0x00000000       0x18 external/rtt/librtt_nrf51422_xxAC.a(SEGGER_RTT.c.obj)
 .text.SEGGER_RTT_GetKey
                0x00000000       0x1e external/rtt/librtt_nrf51422_xxAC.a(SEGGER_RTT.c.obj)
 .text.SEGGER_RTT_WaitKey
                0x00000000        0xc external/rtt/librtt_nrf51422_xxAC.a(SEGGER_RTT.c.obj)
 .text.SEGGER_RTT_HasKey
                0x00000000       0x20 external/rtt/librtt_nrf51422_xxAC.a(SEGGER_RTT.c.obj)
 .text.SEGGER_RTT_HasData
                0x00000000       0x14 external/rtt/librtt_nrf51422_xxAC.a(SEGGER_RTT.c.obj)
 .text.SEGGER_RTT_AllocDownBuffer
                0x00000000       0x64 external/rtt/librtt_nrf51422_xxAC.a(SEGGER_RTT.c.obj)
 .text.SEGGER_RTT_AllocUpBuffer
                0x00000000       0x68 external/rtt/librtt_nrf51422_xxAC.a(SEGGER_RTT.c.obj)
 .text.SEGGER_RTT_ConfigUpBuffer
                0x00000000       0x60 external/rtt/librtt_nrf51422_xxAC.a(SEGGER_RTT.c.obj)
 .text.SEGGER_RTT_ConfigDownBuffer
                0x00000000       0x5c external/rtt/librtt_nrf51422_xxAC.a(SEGGER_RTT.c.obj)
 .text.SEGGER_RTT_SetNameUpBuffer
                0x00000000       0x3c external/rtt/librtt_nrf51422_xxAC.a(SEGGER_RTT.c.obj)
 .text.SEGGER_RTT_SetNameDownBuffer
                0x00000000       0x3c external/rtt/librtt_nrf51422_xxAC.a(SEGGER_RTT.c.obj)
 .text.SEGGER_RTT_Init
                0x00000000       0x14 external/rtt/librtt_nrf51422_xxAC.a(SEGGER_RTT.c.obj)
 .text.SEGGER_RTT_SetTerminal
                0x00000000       0x80 external/rtt/librtt_nrf51422_xxAC.a(SEGGER_RTT.c.obj)
 .text.SEGGER_RTT_TerminalOut
                0x00000000       0xa0 external/rtt/librtt_nrf51422_xxAC.a(SEGGER_RTT.c.obj)
 .bss._ActiveTerminal
                0x00000000        0x1 external/rtt/librtt_nrf51422_xxAC.a(SEGGER_RTT.c.obj)
 .rodata._aTerminalId
                0x00000000       0x10 external/rtt/librtt_nrf51422_xxAC.a(SEGGER_RTT.c.obj)
 .text          0x00000000        0x0 external/rtt/librtt_nrf51422_xxAC.a(SEGGER_RTT_printf.c.obj)
 .data          0x00000000        0x0 external/rtt/librtt_nrf51422_xxAC.a(SEGGER_RTT_printf.c.obj)
 .bss           0x00000000        0x0 external/rtt/librtt_nrf51422_xxAC.a(SEGGER_RTT_printf.c.obj)
 .text          0x00000000        0x0 external/micro-ecc/libuECC_nrf51422_xxAC.a(uECC.c.obj)
 .data          0x00000000        0x0 external/micro-ecc/libuECC_nrf51422_xxAC.a(uECC.c.obj)
 .bss           0x00000000        0x0 external/micro-ecc/libuECC_nrf51422_xxAC.a(uECC.c.obj)
 .text.uECC_vli_modMult
                0x00000000      0x128 external/micro-ecc/libuECC_nrf51422_xxAC.a(uECC.c.obj)
 .text.HMAC_init
                0x00000000       0x40 external/micro-ecc/libuECC_nrf51422_xxAC.a(uECC.c.obj)
 .text.HMAC_update
                0x00000000        0x8 external/micro-ecc/libuECC_nrf51422_xxAC.a(uECC.c.obj)
 .text.HMAC_finish
                0x00000000       0x5c external/micro-ecc/libuECC_nrf51422_xxAC.a(uECC.c.obj)
 .text.update_V
                0x00000000       0x22 external/micro-ecc/libuECC_nrf51422_xxAC.a(uECC.c.obj)
 .text.bits2int
                0x00000000       0x8c external/micro-ecc/libuECC_nrf51422_xxAC.a(uECC.c.obj)
 .text.uECC_sign_with_k
                0x00000000      0x184 external/micro-ecc/libuECC_nrf51422_xxAC.a(uECC.c.obj)
 .text.uECC_set_rng
                0x00000000        0xc external/micro-ecc/libuECC_nrf51422_xxAC.a(uECC.c.obj)
 .text.uECC_get_rng
                0x00000000        0xc external/micro-ecc/libuECC_nrf51422_xxAC.a(uECC.c.obj)
 .text.uECC_curve_private_key_size
                0x00000000       0x12 external/micro-ecc/libuECC_nrf51422_xxAC.a(uECC.c.obj)
 .text.uECC_curve_public_key_size
                0x00000000        0x8 external/micro-ecc/libuECC_nrf51422_xxAC.a(uECC.c.obj)
 .text.uECC_compute_public_key
                0x00000000       0x88 external/micro-ecc/libuECC_nrf51422_xxAC.a(uECC.c.obj)
 .text.uECC_sign
                0x00000000       0x5a external/micro-ecc/libuECC_nrf51422_xxAC.a(uECC.c.obj)
 .text.uECC_sign_deterministic
                0x00000000      0x19c external/micro-ecc/libuECC_nrf51422_xxAC.a(uECC.c.obj)
 .text.uECC_verify
                0x00000000      0x2e4 external/micro-ecc/libuECC_nrf51422_xxAC.a(uECC.c.obj)
 .data          0x00000000        0x0 c:/a/gcc_arm/6/bin/../lib/gcc/arm-none-eabi/6.3.1/thumb/v6-m\libgcc.a(_thumb1_case_uqi.o)
 .bss           0x00000000        0x0 c:/a/gcc_arm/6/bin/../lib/gcc/arm-none-eabi/6.3.1/thumb/v6-m\libgcc.a(_thumb1_case_uqi.o)
 .data          0x00000000        0x0 c:/a/gcc_arm/6/bin/../lib/gcc/arm-none-eabi/6.3.1/thumb/v6-m\libgcc.a(_thumb1_case_shi.o)
 .bss           0x00000000        0x0 c:/a/gcc_arm/6/bin/../lib/gcc/arm-none-eabi/6.3.1/thumb/v6-m\libgcc.a(_thumb1_case_shi.o)
 .data          0x00000000        0x0 c:/a/gcc_arm/6/bin/../lib/gcc/arm-none-eabi/6.3.1/thumb/v6-m\libgcc.a(_thumb1_case_uhi.o)
 .bss           0x00000000        0x0 c:/a/gcc_arm/6/bin/../lib/gcc/arm-none-eabi/6.3.1/thumb/v6-m\libgcc.a(_thumb1_case_uhi.o)
 .data          0x00000000        0x0 c:/a/gcc_arm/6/bin/../lib/gcc/arm-none-eabi/6.3.1/thumb/v6-m\libgcc.a(_udivsi3.o)
 .bss           0x00000000        0x0 c:/a/gcc_arm/6/bin/../lib/gcc/arm-none-eabi/6.3.1/thumb/v6-m\libgcc.a(_udivsi3.o)
 .data          0x00000000        0x0 c:/a/gcc_arm/6/bin/../lib/gcc/arm-none-eabi/6.3.1/thumb/v6-m\libgcc.a(_divsi3.o)
 .bss           0x00000000        0x0 c:/a/gcc_arm/6/bin/../lib/gcc/arm-none-eabi/6.3.1/thumb/v6-m\libgcc.a(_divsi3.o)
 .data          0x00000000        0x0 c:/a/gcc_arm/6/bin/../lib/gcc/arm-none-eabi/6.3.1/thumb/v6-m\libgcc.a(_dvmd_tls.o)
 .bss           0x00000000        0x0 c:/a/gcc_arm/6/bin/../lib/gcc/arm-none-eabi/6.3.1/thumb/v6-m\libgcc.a(_dvmd_tls.o)
 .data          0x00000000        0x0 c:/a/gcc_arm/6/bin/../lib/gcc/arm-none-eabi/6.3.1/thumb/v6-m\libgcc.a(_muldi3.o)
 .bss           0x00000000        0x0 c:/a/gcc_arm/6/bin/../lib/gcc/arm-none-eabi/6.3.1/thumb/v6-m\libgcc.a(_muldi3.o)
 .text          0x00000000        0x0 c:/a/gcc_arm/6/bin/../lib/gcc/arm-none-eabi/6.3.1/../../../../arm-none-eabi/lib/thumb/v6-m\libc_nano.a(lib_a-exit.o)
 .data          0x00000000        0x0 c:/a/gcc_arm/6/bin/../lib/gcc/arm-none-eabi/6.3.1/../../../../arm-none-eabi/lib/thumb/v6-m\libc_nano.a(lib_a-exit.o)
 .bss           0x00000000        0x0 c:/a/gcc_arm/6/bin/../lib/gcc/arm-none-eabi/6.3.1/../../../../arm-none-eabi/lib/thumb/v6-m\libc_nano.a(lib_a-exit.o)
 .text          0x00000000        0x0 c:/a/gcc_arm/6/bin/../lib/gcc/arm-none-eabi/6.3.1/../../../../arm-none-eabi/lib/thumb/v6-m\libc_nano.a(lib_a-impure.o)
 .data          0x00000000        0x0 c:/a/gcc_arm/6/bin/../lib/gcc/arm-none-eabi/6.3.1/../../../../arm-none-eabi/lib/thumb/v6-m\libc_nano.a(lib_a-impure.o)
 .bss           0x00000000        0x0 c:/a/gcc_arm/6/bin/../lib/gcc/arm-none-eabi/6.3.1/../../../../arm-none-eabi/lib/thumb/v6-m\libc_nano.a(lib_a-impure.o)
 .text          0x00000000        0x0 c:/a/gcc_arm/6/bin/../lib/gcc/arm-none-eabi/6.3.1/../../../../arm-none-eabi/lib/thumb/v6-m\libc_nano.a(lib_a-init.o)
 .data          0x00000000        0x0 c:/a/gcc_arm/6/bin/../lib/gcc/arm-none-eabi/6.3.1/../../../../arm-none-eabi/lib/thumb/v6-m\libc_nano.a(lib_a-init.o)
 .bss           0x00000000        0x0 c:/a/gcc_arm/6/bin/../lib/gcc/arm-none-eabi/6.3.1/../../../../arm-none-eabi/lib/thumb/v6-m\libc_nano.a(lib_a-init.o)
 .text          0x00000000        0x0 c:/a/gcc_arm/6/bin/../lib/gcc/arm-none-eabi/6.3.1/../../../../arm-none-eabi/lib/thumb/v6-m\libc_nano.a(lib_a-malloc.o)
 .data          0x00000000        0x0 c:/a/gcc_arm/6/bin/../lib/gcc/arm-none-eabi/6.3.1/../../../../arm-none-eabi/lib/thumb/v6-m\libc_nano.a(lib_a-malloc.o)
 .bss           0x00000000        0x0 c:/a/gcc_arm/6/bin/../lib/gcc/arm-none-eabi/6.3.1/../../../../arm-none-eabi/lib/thumb/v6-m\libc_nano.a(lib_a-malloc.o)
 .text          0x00000000        0x0 c:/a/gcc_arm/6/bin/../lib/gcc/arm-none-eabi/6.3.1/../../../../arm-none-eabi/lib/thumb/v6-m\libc_nano.a(lib_a-memcmp.o)
 .data          0x00000000        0x0 c:/a/gcc_arm/6/bin/../lib/gcc/arm-none-eabi/6.3.1/../../../../arm-none-eabi/lib/thumb/v6-m\libc_nano.a(lib_a-memcmp.o)
 .bss           0x00000000        0x0 c:/a/gcc_arm/6/bin/../lib/gcc/arm-none-eabi/6.3.1/../../../../arm-none-eabi/lib/thumb/v6-m\libc_nano.a(lib_a-memcmp.o)
 .text          0x00000000        0x0 c:/a/gcc_arm/6/bin/../lib/gcc/arm-none-eabi/6.3.1/../../../../arm-none-eabi/lib/thumb/v6-m\libc_nano.a(lib_a-memcpy-stub.o)
 .data          0x00000000        0x0 c:/a/gcc_arm/6/bin/../lib/gcc/arm-none-eabi/6.3.1/../../../../arm-none-eabi/lib/thumb/v6-m\libc_nano.a(lib_a-memcpy-stub.o)
 .bss           0x00000000        0x0 c:/a/gcc_arm/6/bin/../lib/gcc/arm-none-eabi/6.3.1/../../../../arm-none-eabi/lib/thumb/v6-m\libc_nano.a(lib_a-memcpy-stub.o)
 .text          0x00000000        0x0 c:/a/gcc_arm/6/bin/../lib/gcc/arm-none-eabi/6.3.1/../../../../arm-none-eabi/lib/thumb/v6-m\libc_nano.a(lib_a-memset.o)
 .data          0x00000000        0x0 c:/a/gcc_arm/6/bin/../lib/gcc/arm-none-eabi/6.3.1/../../../../arm-none-eabi/lib/thumb/v6-m\libc_nano.a(lib_a-memset.o)
 .bss           0x00000000        0x0 c:/a/gcc_arm/6/bin/../lib/gcc/arm-none-eabi/6.3.1/../../../../arm-none-eabi/lib/thumb/v6-m\libc_nano.a(lib_a-memset.o)
 .text          0x00000000        0x0 c:/a/gcc_arm/6/bin/../lib/gcc/arm-none-eabi/6.3.1/../../../../arm-none-eabi/lib/thumb/v6-m\libc_nano.a(lib_a-nano-freer.o)
 .data          0x00000000        0x0 c:/a/gcc_arm/6/bin/../lib/gcc/arm-none-eabi/6.3.1/../../../../arm-none-eabi/lib/thumb/v6-m\libc_nano.a(lib_a-nano-freer.o)
 .bss           0x00000000        0x0 c:/a/gcc_arm/6/bin/../lib/gcc/arm-none-eabi/6.3.1/../../../../arm-none-eabi/lib/thumb/v6-m\libc_nano.a(lib_a-nano-freer.o)
 .text          0x00000000        0x0 c:/a/gcc_arm/6/bin/../lib/gcc/arm-none-eabi/6.3.1/../../../../arm-none-eabi/lib/thumb/v6-m\libc_nano.a(lib_a-nano-mallocr.o)
 .data          0x00000000        0x0 c:/a/gcc_arm/6/bin/../lib/gcc/arm-none-eabi/6.3.1/../../../../arm-none-eabi/lib/thumb/v6-m\libc_nano.a(lib_a-nano-mallocr.o)
 .bss           0x00000000        0x0 c:/a/gcc_arm/6/bin/../lib/gcc/arm-none-eabi/6.3.1/../../../../arm-none-eabi/lib/thumb/v6-m\libc_nano.a(lib_a-nano-mallocr.o)
 .text          0x00000000        0x0 c:/a/gcc_arm/6/bin/../lib/gcc/arm-none-eabi/6.3.1/../../../../arm-none-eabi/lib/thumb/v6-m\libc_nano.a(lib_a-sbrkr.o)
 .data          0x00000000        0x0 c:/a/gcc_arm/6/bin/../lib/gcc/arm-none-eabi/6.3.1/../../../../arm-none-eabi/lib/thumb/v6-m\libc_nano.a(lib_a-sbrkr.o)
 .bss           0x00000000        0x0 c:/a/gcc_arm/6/bin/../lib/gcc/arm-none-eabi/6.3.1/../../../../arm-none-eabi/lib/thumb/v6-m\libc_nano.a(lib_a-sbrkr.o)
 .text          0x00000000        0x0 c:/a/gcc_arm/6/bin/../lib/gcc/arm-none-eabi/6.3.1/../../../../arm-none-eabi/lib/thumb/v6-m\libc_nano.a(lib_a-strcpy.o)
 .data          0x00000000        0x0 c:/a/gcc_arm/6/bin/../lib/gcc/arm-none-eabi/6.3.1/../../../../arm-none-eabi/lib/thumb/v6-m\libc_nano.a(lib_a-strcpy.o)
 .bss           0x00000000        0x0 c:/a/gcc_arm/6/bin/../lib/gcc/arm-none-eabi/6.3.1/../../../../arm-none-eabi/lib/thumb/v6-m\libc_nano.a(lib_a-strcpy.o)
 .data          0x00000000        0x0 c:/a/gcc_arm/6/bin/../lib/gcc/arm-none-eabi/6.3.1/../../../../arm-none-eabi/lib/thumb/v6-m\libc_nano.a(lib_a-strlen.o)
 .bss           0x00000000        0x0 c:/a/gcc_arm/6/bin/../lib/gcc/arm-none-eabi/6.3.1/../../../../arm-none-eabi/lib/thumb/v6-m\libc_nano.a(lib_a-strlen.o)
 .text          0x00000000        0x0 c:/a/gcc_arm/6/bin/../lib/gcc/arm-none-eabi/6.3.1/../../../../arm-none-eabi/lib/thumb/v6-m\libc_nano.a(lib_a-strrchr.o)
 .data          0x00000000        0x0 c:/a/gcc_arm/6/bin/../lib/gcc/arm-none-eabi/6.3.1/../../../../arm-none-eabi/lib/thumb/v6-m\libc_nano.a(lib_a-strrchr.o)
 .bss           0x00000000        0x0 c:/a/gcc_arm/6/bin/../lib/gcc/arm-none-eabi/6.3.1/../../../../arm-none-eabi/lib/thumb/v6-m\libc_nano.a(lib_a-strrchr.o)
 .text          0x00000000        0x0 c:/a/gcc_arm/6/bin/../lib/gcc/arm-none-eabi/6.3.1/../../../../arm-none-eabi/lib/thumb/v6-m\libc_nano.a(lib_a-mlock.o)
 .data          0x00000000        0x0 c:/a/gcc_arm/6/bin/../lib/gcc/arm-none-eabi/6.3.1/../../../../arm-none-eabi/lib/thumb/v6-m\libc_nano.a(lib_a-mlock.o)
 .bss           0x00000000        0x0 c:/a/gcc_arm/6/bin/../lib/gcc/arm-none-eabi/6.3.1/../../../../arm-none-eabi/lib/thumb/v6-m\libc_nano.a(lib_a-mlock.o)
 .text          0x00000000        0x0 c:/a/gcc_arm/6/bin/../lib/gcc/arm-none-eabi/6.3.1/../../../../arm-none-eabi/lib/thumb/v6-m\libc_nano.a(lib_a-reent.o)
 .data          0x00000000        0x0 c:/a/gcc_arm/6/bin/../lib/gcc/arm-none-eabi/6.3.1/../../../../arm-none-eabi/lib/thumb/v6-m\libc_nano.a(lib_a-reent.o)
 .bss           0x00000000        0x0 c:/a/gcc_arm/6/bin/../lib/gcc/arm-none-eabi/6.3.1/../../../../arm-none-eabi/lib/thumb/v6-m\libc_nano.a(lib_a-reent.o)
 .text.cleanup_glue
                0x00000000       0x1a c:/a/gcc_arm/6/bin/../lib/gcc/arm-none-eabi/6.3.1/../../../../arm-none-eabi/lib/thumb/v6-m\libc_nano.a(lib_a-reent.o)
 .text._reclaim_reent
                0x00000000       0xcc c:/a/gcc_arm/6/bin/../lib/gcc/arm-none-eabi/6.3.1/../../../../arm-none-eabi/lib/thumb/v6-m\libc_nano.a(lib_a-reent.o)
 .text          0x00000000        0x0 c:/a/gcc_arm/6/bin/../lib/gcc/arm-none-eabi/6.3.1/../../../../arm-none-eabi/lib/thumb/v6-m\libc_nano.a(lib_a-strchr.o)
 .data          0x00000000        0x0 c:/a/gcc_arm/6/bin/../lib/gcc/arm-none-eabi/6.3.1/../../../../arm-none-eabi/lib/thumb/v6-m\libc_nano.a(lib_a-strchr.o)
 .bss           0x00000000        0x0 c:/a/gcc_arm/6/bin/../lib/gcc/arm-none-eabi/6.3.1/../../../../arm-none-eabi/lib/thumb/v6-m\libc_nano.a(lib_a-strchr.o)
 .text          0x00000000        0x0 c:/a/gcc_arm/6/bin/../lib/gcc/arm-none-eabi/6.3.1/thumb/v6-m/crtend.o
 .data          0x00000000        0x0 c:/a/gcc_arm/6/bin/../lib/gcc/arm-none-eabi/6.3.1/thumb/v6-m/crtend.o
 .bss           0x00000000        0x0 c:/a/gcc_arm/6/bin/../lib/gcc/arm-none-eabi/6.3.1/thumb/v6-m/crtend.o
 .text          0x00000000        0x0 c:/a/gcc_arm/6/bin/../lib/gcc/arm-none-eabi/6.3.1/thumb/v6-m/crtn.o
 .data          0x00000000        0x0 c:/a/gcc_arm/6/bin/../lib/gcc/arm-none-eabi/6.3.1/thumb/v6-m/crtn.o
 .bss           0x00000000        0x0 c:/a/gcc_arm/6/bin/../lib/gcc/arm-none-eabi/6.3.1/thumb/v6-m/crtn.o
 .text          0x00000000        0x0 c:/a/gcc_arm/6/bin/../lib/gcc/arm-none-eabi/6.3.1/../../../../arm-none-eabi/lib/thumb/v6-m\libnosys.a(sbrk.o)
 .data          0x00000000        0x0 c:/a/gcc_arm/6/bin/../lib/gcc/arm-none-eabi/6.3.1/../../../../arm-none-eabi/lib/thumb/v6-m\libnosys.a(sbrk.o)
 .bss           0x00000000        0x0 c:/a/gcc_arm/6/bin/../lib/gcc/arm-none-eabi/6.3.1/../../../../arm-none-eabi/lib/thumb/v6-m\libnosys.a(sbrk.o)
 .text          0x00000000        0x0 c:/a/gcc_arm/6/bin/../lib/gcc/arm-none-eabi/6.3.1/../../../../arm-none-eabi/lib/thumb/v6-m\libnosys.a(_exit.o)
 .data          0x00000000        0x0 c:/a/gcc_arm/6/bin/../lib/gcc/arm-none-eabi/6.3.1/../../../../arm-none-eabi/lib/thumb/v6-m\libnosys.a(_exit.o)
 .bss           0x00000000        0x0 c:/a/gcc_arm/6/bin/../lib/gcc/arm-none-eabi/6.3.1/../../../../arm-none-eabi/lib/thumb/v6-m\libnosys.a(_exit.o)

Memory Configuration

Name             Origin             Length             Attributes
FLASH            0x0001b000         0x0001f000         xr
RAM              0x200022d8         0x00005a28         xrw
*default*        0x00000000         0xffffffff

Linker script and memory map

LOAD c:/a/gcc_arm/6/bin/../lib/gcc/arm-none-eabi/6.3.1/thumb/v6-m/crti.o
LOAD c:/a/gcc_arm/6/bin/../lib/gcc/arm-none-eabi/6.3.1/thumb/v6-m/crtbegin.o
LOAD c:/a/gcc_arm/6/bin/../lib/gcc/arm-none-eabi/6.3.1/../../../../arm-none-eabi/lib/thumb/v6-m/crt0.o
LOAD examples/light_switch/server/CMakeFiles/light_switch_server_nrf51422_xxAC_s130_2.0.1.dir/src/main.c.obj
LOAD examples/light_switch/server/CMakeFiles/light_switch_server_nrf51422_xxAC_s130_2.0.1.dir/__/__/nrf_mesh_sdk.c.obj
LOAD examples/light_switch/server/CMakeFiles/light_switch_server_nrf51422_xxAC_s130_2.0.1.dir/__/__/hal/src/simple_hal.c.obj
LOAD examples/light_switch/server/CMakeFiles/light_switch_server_nrf51422_xxAC_s130_2.0.1.dir/__/__/nrf_mesh_weak.c.obj
LOAD examples/light_switch/server/CMakeFiles/light_switch_server_nrf51422_xxAC_s130_2.0.1.dir/__/__/__/models/simple_on_off/src/simple_on_off_server.c.obj
LOAD examples/light_switch/server/CMakeFiles/light_switch_server_nrf51422_xxAC_s130_2.0.1.dir/__/__/__/models/config/src/composition_data.c.obj
LOAD examples/light_switch/server/CMakeFiles/light_switch_server_nrf51422_xxAC_s130_2.0.1.dir/__/__/__/models/config/src/config_server.c.obj
LOAD examples/light_switch/server/CMakeFiles/light_switch_server_nrf51422_xxAC_s130_2.0.1.dir/__/__/__/models/config/src/packed_index_list.c.obj
LOAD examples/light_switch/server/CMakeFiles/light_switch_server_nrf51422_xxAC_s130_2.0.1.dir/__/__/__/models/health/src/health_server.c.obj
LOAD examples/light_switch/server/CMakeFiles/light_switch_server_nrf51422_xxAC_s130_2.0.1.dir/__/__/__/mesh/access/src/access_publish.c.obj
LOAD examples/light_switch/server/CMakeFiles/light_switch_server_nrf51422_xxAC_s130_2.0.1.dir/__/__/__/mesh/access/src/access.c.obj
LOAD examples/light_switch/server/CMakeFiles/light_switch_server_nrf51422_xxAC_s130_2.0.1.dir/__/__/__/mesh/access/src/access_reliable.c.obj
LOAD examples/light_switch/server/CMakeFiles/light_switch_server_nrf51422_xxAC_s130_2.0.1.dir/__/__/__/mesh/access/src/device_state_manager.c.obj
LOAD examples/light_switch/server/CMakeFiles/light_switch_server_nrf51422_xxAC_s130_2.0.1.dir/__/__/__/mesh/prov/src/prov_provisionee.c.obj
LOAD examples/light_switch/server/CMakeFiles/light_switch_server_nrf51422_xxAC_s130_2.0.1.dir/__/__/__/mesh/prov/src/nrf_mesh_prov.c.obj
LOAD examples/light_switch/server/CMakeFiles/light_switch_server_nrf51422_xxAC_s130_2.0.1.dir/__/__/__/mesh/prov/src/provisioning.c.obj
LOAD examples/light_switch/server/CMakeFiles/light_switch_server_nrf51422_xxAC_s130_2.0.1.dir/__/__/__/mesh/prov/src/prov_beacon.c.obj
LOAD examples/light_switch/server/CMakeFiles/light_switch_server_nrf51422_xxAC_s130_2.0.1.dir/__/__/__/mesh/prov/src/prov_utils.c.obj
LOAD examples/light_switch/server/CMakeFiles/light_switch_server_nrf51422_xxAC_s130_2.0.1.dir/__/__/__/mesh/prov/src/prov_bearer_adv.c.obj
LOAD examples/light_switch/server/CMakeFiles/light_switch_server_nrf51422_xxAC_s130_2.0.1.dir/__/__/__/mesh/access/src/nrf_mesh_node_config.c.obj
LOAD examples/light_switch/server/CMakeFiles/light_switch_server_nrf51422_xxAC_s130_2.0.1.dir/__/__/__/external/nRF5_SDK_14.0.0_3bcc1f7/components/toolchain/system_nrf51.c.obj
LOAD examples/light_switch/server/CMakeFiles/light_switch_server_nrf51422_xxAC_s130_2.0.1.dir/__/__/__/external/nRF5_SDK_14.0.0_3bcc1f7/components/toolchain/gcc/gcc_startup_nrf51.S.obj
LOAD mesh/core/libmesh_core_nrf51422_xxAC.a
LOAD external/rtt/librtt_nrf51422_xxAC.a
LOAD external/micro-ecc/libuECC_nrf51422_xxAC.a
START GROUP
LOAD c:/a/gcc_arm/6/bin/../lib/gcc/arm-none-eabi/6.3.1/thumb/v6-m\libgcc.a
LOAD c:/a/gcc_arm/6/bin/../lib/gcc/arm-none-eabi/6.3.1/../../../../arm-none-eabi/lib/thumb/v6-m\libc_nano.a
END GROUP
START GROUP
LOAD c:/a/gcc_arm/6/bin/../lib/gcc/arm-none-eabi/6.3.1/thumb/v6-m\libgcc.a
LOAD c:/a/gcc_arm/6/bin/../lib/gcc/arm-none-eabi/6.3.1/../../../../arm-none-eabi/lib/thumb/v6-m\libc_nano.a
END GROUP
LOAD c:/a/gcc_arm/6/bin/../lib/gcc/arm-none-eabi/6.3.1/thumb/v6-m/crtend.o
LOAD c:/a/gcc_arm/6/bin/../lib/gcc/arm-none-eabi/6.3.1/thumb/v6-m/crtn.o
START GROUP
LOAD c:/a/gcc_arm/6/bin/../lib/gcc/arm-none-eabi/6.3.1/thumb/v6-m\libgcc.a
LOAD c:/a/gcc_arm/6/bin/../lib/gcc/arm-none-eabi/6.3.1/../../../../arm-none-eabi/lib/thumb/v6-m\libc.a
LOAD c:/a/gcc_arm/6/bin/../lib/gcc/arm-none-eabi/6.3.1/../../../../arm-none-eabi/lib/thumb/v6-m\libnosys.a
END GROUP

.text           0x0001b000    0x121b8
 *(.isr_vector)
 .isr_vector    0x0001b000       0xc0 examples/light_switch/server/CMakeFiles/light_switch_server_nrf51422_xxAC_s130_2.0.1.dir/__/__/__/external/nRF5_SDK_14.0.0_3bcc1f7/components/toolchain/gcc/gcc_startup_nrf51.S.obj
                0x0001b000                __isr_vector
 *(.text*)
 .text          0x0001b0c0       0x60 c:/a/gcc_arm/6/bin/../lib/gcc/arm-none-eabi/6.3.1/thumb/v6-m/crtbegin.o
 .text          0x0001b120       0x78 c:/a/gcc_arm/6/bin/../lib/gcc/arm-none-eabi/6.3.1/../../../../arm-none-eabi/lib/thumb/v6-m/crt0.o
                0x0001b120                _start
                0x0001b120                _mainCRTStartup
 .text.configuration_setup
                0x0001b198       0xac examples/light_switch/server/CMakeFiles/light_switch_server_nrf51422_xxAC_s130_2.0.1.dir/src/main.c.obj
 .text.set_cb   0x0001b244       0x74 examples/light_switch/server/CMakeFiles/light_switch_server_nrf51422_xxAC_s130_2.0.1.dir/src/main.c.obj
 .text.get_cb   0x0001b2b8        0xa examples/light_switch/server/CMakeFiles/light_switch_server_nrf51422_xxAC_s130_2.0.1.dir/src/main.c.obj
 *fill*         0x0001b2c2        0x2 
 .text.configuration_complete
                0x0001b2c4       0x7c examples/light_switch/server/CMakeFiles/light_switch_server_nrf51422_xxAC_s130_2.0.1.dir/src/main.c.obj
 .text.startup.main
                0x0001b340       0xc0 examples/light_switch/server/CMakeFiles/light_switch_server_nrf51422_xxAC_s130_2.0.1.dir/src/main.c.obj
                0x0001b340                main
 .text.sd_evt_get
                0x0001b400        0x4 examples/light_switch/server/CMakeFiles/light_switch_server_nrf51422_xxAC_s130_2.0.1.dir/__/__/nrf_mesh_sdk.c.obj
 .text.sd_ble_evt_get
                0x0001b404        0x4 examples/light_switch/server/CMakeFiles/light_switch_server_nrf51422_xxAC_s130_2.0.1.dir/__/__/nrf_mesh_sdk.c.obj
 .text.sleep_forever
                0x0001b408       0x24 examples/light_switch/server/CMakeFiles/light_switch_server_nrf51422_xxAC_s130_2.0.1.dir/__/__/nrf_mesh_sdk.c.obj
 .text.app_error_handler
                0x0001b42c       0x7c examples/light_switch/server/CMakeFiles/light_switch_server_nrf51422_xxAC_s130_2.0.1.dir/__/__/nrf_mesh_sdk.c.obj
                0x0001b42c                app_error_handler
 .text.HardFault_Handler
                0x0001b4a8       0x60 examples/light_switch/server/CMakeFiles/light_switch_server_nrf51422_xxAC_s130_2.0.1.dir/__/__/nrf_mesh_sdk.c.obj
                0x0001b4a8                HardFault_Handler
 .text.SWI2_IRQHandler
                0x0001b508       0x38 examples/light_switch/server/CMakeFiles/light_switch_server_nrf51422_xxAC_s130_2.0.1.dir/__/__/nrf_mesh_sdk.c.obj
                0x0001b508                SWI2_IRQHandler
 .text.hal_led_pin_get
                0x0001b540       0x1c examples/light_switch/server/CMakeFiles/light_switch_server_nrf51422_xxAC_s130_2.0.1.dir/__/__/hal/src/simple_hal.c.obj
                0x0001b540                hal_led_pin_get
 .text.hal_led_pin_set
                0x0001b55c       0x1c examples/light_switch/server/CMakeFiles/light_switch_server_nrf51422_xxAC_s130_2.0.1.dir/__/__/hal/src/simple_hal.c.obj
                0x0001b55c                hal_led_pin_set
 .text.hal_led_mask_set
                0x0001b578       0x18 examples/light_switch/server/CMakeFiles/light_switch_server_nrf51422_xxAC_s130_2.0.1.dir/__/__/hal/src/simple_hal.c.obj
                0x0001b578                hal_led_mask_set
 .text.hal_led_blink_ms
                0x0001b590       0x58 examples/light_switch/server/CMakeFiles/light_switch_server_nrf51422_xxAC_s130_2.0.1.dir/__/__/hal/src/simple_hal.c.obj
                0x0001b590                hal_led_blink_ms
 .text.hal_leds_init
                0x0001b5e8       0x34 examples/light_switch/server/CMakeFiles/light_switch_server_nrf51422_xxAC_s130_2.0.1.dir/__/__/hal/src/simple_hal.c.obj
                0x0001b5e8                hal_leds_init
 .text._weak_handler
                0x0001b61c        0x4 examples/light_switch/server/CMakeFiles/light_switch_server_nrf51422_xxAC_s130_2.0.1.dir/__/__/nrf_mesh_weak.c.obj
                0x0001b61c                nrf_mesh_dfu_init
                0x0001b61c                nrf_mesh_dfu_jump_to_bootloader
                0x0001b61c                nrf_mesh_dfu_rx
                0x0001b61c                prov_provisioner_provision
                0x0001b61c                nrf_mesh_dfu_bank_info_get
                0x0001b61c                prov_provisioner_oob_pubkey
                0x0001b61c                nrf_mesh_dfu_request
                0x0001b61c                nrf_mesh_dfu_bank_flash
                0x0001b61c                _weak_handler
                0x0001b61c                nrf_mesh_dfu_relay
                0x0001b61c                nrf_mesh_dfu_abort
                0x0001b61c                mesh_flash_op_execute
                0x0001b61c                nrf_mesh_dfu_state_get
                0x0001b61c                prov_provisioner_shared_secret
                0x0001b61c                prov_provisioner_auth_data
                0x0001b61c                prov_provisioner_oob_use
 .text.handle_set_cb
                0x0001b620       0x74 examples/light_switch/server/CMakeFiles/light_switch_server_nrf51422_xxAC_s130_2.0.1.dir/__/__/__/models/simple_on_off/src/simple_on_off_server.c.obj
 .text.handle_get_cb
                0x0001b694       0x4c examples/light_switch/server/CMakeFiles/light_switch_server_nrf51422_xxAC_s130_2.0.1.dir/__/__/__/models/simple_on_off/src/simple_on_off_server.c.obj
 .text.handle_set_unreliable_cb
                0x0001b6e0       0x54 examples/light_switch/server/CMakeFiles/light_switch_server_nrf51422_xxAC_s130_2.0.1.dir/__/__/__/models/simple_on_off/src/simple_on_off_server.c.obj
 .text.simple_on_off_server_init
                0x0001b734       0x40 examples/light_switch/server/CMakeFiles/light_switch_server_nrf51422_xxAC_s130_2.0.1.dir/__/__/__/models/simple_on_off/src/simple_on_off_server.c.obj
                0x0001b734                simple_on_off_server_init
 .text.config_composition_data_get
                0x0001b774      0x198 examples/light_switch/server/CMakeFiles/light_switch_server_nrf51422_xxAC_s130_2.0.1.dir/__/__/__/models/config/src/composition_data.c.obj
                0x0001b774                config_composition_data_get
 .text.extract_model_id
                0x0001b90c       0x22 examples/light_switch/server/CMakeFiles/light_switch_server_nrf51422_xxAC_s130_2.0.1.dir/__/__/__/models/config/src/config_server.c.obj
 *fill*         0x0001b92e        0x2 
 .text.get_element_index
                0x0001b930       0x28 examples/light_switch/server/CMakeFiles/light_switch_server_nrf51422_xxAC_s130_2.0.1.dir/__/__/__/models/config/src/config_server.c.obj
 .text.send_reply
                0x0001b958       0x20 examples/light_switch/server/CMakeFiles/light_switch_server_nrf51422_xxAC_s130_2.0.1.dir/__/__/__/models/config/src/config_server.c.obj
 .text.send_generic_error_reply
                0x0001b978       0x40 examples/light_switch/server/CMakeFiles/light_switch_server_nrf51422_xxAC_s130_2.0.1.dir/__/__/__/models/config/src/config_server.c.obj
 .text.handle_model_app_get
                0x0001b9b8      0x1d4 examples/light_switch/server/CMakeFiles/light_switch_server_nrf51422_xxAC_s130_2.0.1.dir/__/__/__/models/config/src/config_server.c.obj
 .text.handle_node_reset
                0x0001bb8c       0x1c examples/light_switch/server/CMakeFiles/light_switch_server_nrf51422_xxAC_s130_2.0.1.dir/__/__/__/models/config/src/config_server.c.obj
 .text.handle_heartbeat_subscription_set
                0x0001bba8       0x30 examples/light_switch/server/CMakeFiles/light_switch_server_nrf51422_xxAC_s130_2.0.1.dir/__/__/__/models/config/src/config_server.c.obj
 .text.handle_heartbeat_subscription_get
                0x0001bbd8        0x8 examples/light_switch/server/CMakeFiles/light_switch_server_nrf51422_xxAC_s130_2.0.1.dir/__/__/__/models/config/src/config_server.c.obj
 .text.handle_heartbeat_publication_set
                0x0001bbe0       0x2a examples/light_switch/server/CMakeFiles/light_switch_server_nrf51422_xxAC_s130_2.0.1.dir/__/__/__/models/config/src/config_server.c.obj
 .text.handle_heartbeat_publication_get
                0x0001bc0a        0x8 examples/light_switch/server/CMakeFiles/light_switch_server_nrf51422_xxAC_s130_2.0.1.dir/__/__/__/models/config/src/config_server.c.obj
 *fill*         0x0001bc12        0x2 
 .text.send_subscription_status
                0x0001bc14       0x50 examples/light_switch/server/CMakeFiles/light_switch_server_nrf51422_xxAC_s130_2.0.1.dir/__/__/__/models/config/src/config_server.c.obj
 .text.handle_netkey_get
                0x0001bc64       0x64 examples/light_switch/server/CMakeFiles/light_switch_server_nrf51422_xxAC_s130_2.0.1.dir/__/__/__/models/config/src/config_server.c.obj
 .text.handle_netkey_add_update
                0x0001bcc8       0x98 examples/light_switch/server/CMakeFiles/light_switch_server_nrf51422_xxAC_s130_2.0.1.dir/__/__/__/models/config/src/config_server.c.obj
 .text.handle_model_app_bind_unbind
                0x0001bd60      0x10c examples/light_switch/server/CMakeFiles/light_switch_server_nrf51422_xxAC_s130_2.0.1.dir/__/__/__/models/config/src/config_server.c.obj
 .text.send_relay_status
                0x0001be6c       0x80 examples/light_switch/server/CMakeFiles/light_switch_server_nrf51422_xxAC_s130_2.0.1.dir/__/__/__/models/config/src/config_server.c.obj
 .text.handle_config_relay_set
                0x0001beec       0x7c examples/light_switch/server/CMakeFiles/light_switch_server_nrf51422_xxAC_s130_2.0.1.dir/__/__/__/models/config/src/config_server.c.obj
 .text.handle_config_relay_get
                0x0001bf68        0xe examples/light_switch/server/CMakeFiles/light_switch_server_nrf51422_xxAC_s130_2.0.1.dir/__/__/__/models/config/src/config_server.c.obj
 *fill*         0x0001bf76        0x2 
 .text.handle_config_model_subscription_virtual_address_add
                0x0001bf78      0x12c examples/light_switch/server/CMakeFiles/light_switch_server_nrf51422_xxAC_s130_2.0.1.dir/__/__/__/models/config/src/config_server.c.obj
 .text.delete_all_subscriptions
                0x0001c0a4       0x88 examples/light_switch/server/CMakeFiles/light_switch_server_nrf51422_xxAC_s130_2.0.1.dir/__/__/__/models/config/src/config_server.c.obj
 .text.handle_config_model_subscription_virtual_address_overwrite
                0x0001c12c      0x158 examples/light_switch/server/CMakeFiles/light_switch_server_nrf51422_xxAC_s130_2.0.1.dir/__/__/__/models/config/src/config_server.c.obj
 .text.handle_config_model_subscription_delete_all
                0x0001c284       0xb0 examples/light_switch/server/CMakeFiles/light_switch_server_nrf51422_xxAC_s130_2.0.1.dir/__/__/__/models/config/src/config_server.c.obj
 .text.handle_config_model_subscription_virtual_address_delete
                0x0001c334      0x134 examples/light_switch/server/CMakeFiles/light_switch_server_nrf51422_xxAC_s130_2.0.1.dir/__/__/__/models/config/src/config_server.c.obj
 .text.handle_config_model_subscription_delete
                0x0001c468      0x138 examples/light_switch/server/CMakeFiles/light_switch_server_nrf51422_xxAC_s130_2.0.1.dir/__/__/__/models/config/src/config_server.c.obj
 .text.handle_config_model_subscription_overwrite
                0x0001c5a0      0x158 examples/light_switch/server/CMakeFiles/light_switch_server_nrf51422_xxAC_s130_2.0.1.dir/__/__/__/models/config/src/config_server.c.obj
 .text.handle_config_model_subscription_add
                0x0001c6f8      0x138 examples/light_switch/server/CMakeFiles/light_switch_server_nrf51422_xxAC_s130_2.0.1.dir/__/__/__/models/config/src/config_server.c.obj
 .text.send_publication_status
                0x0001c830      0x188 examples/light_switch/server/CMakeFiles/light_switch_server_nrf51422_xxAC_s130_2.0.1.dir/__/__/__/models/config/src/config_server.c.obj
 .text.handle_config_model_publication_get
                0x0001c9b8       0x78 examples/light_switch/server/CMakeFiles/light_switch_server_nrf51422_xxAC_s130_2.0.1.dir/__/__/__/models/config/src/config_server.c.obj
 .text.handle_config_default_ttl_getset
                0x0001ca30       0x50 examples/light_switch/server/CMakeFiles/light_switch_server_nrf51422_xxAC_s130_2.0.1.dir/__/__/__/models/config/src/config_server.c.obj
 .text.send_net_beacon_state
                0x0001ca80       0x28 examples/light_switch/server/CMakeFiles/light_switch_server_nrf51422_xxAC_s130_2.0.1.dir/__/__/__/models/config/src/config_server.c.obj
 .text.handle_config_beacon_get
                0x0001caa8        0xe examples/light_switch/server/CMakeFiles/light_switch_server_nrf51422_xxAC_s130_2.0.1.dir/__/__/__/models/config/src/config_server.c.obj
 *fill*         0x0001cab6        0x2 
 .text.handle_composition_data_get
                0x0001cab8       0x50 examples/light_switch/server/CMakeFiles/light_switch_server_nrf51422_xxAC_s130_2.0.1.dir/__/__/__/models/config/src/config_server.c.obj
 .text.handle_appkey_get
                0x0001cb08       0xb8 examples/light_switch/server/CMakeFiles/light_switch_server_nrf51422_xxAC_s130_2.0.1.dir/__/__/__/models/config/src/config_server.c.obj
 .text.handle_config_model_publication_set
                0x0001cbc0      0x1fc examples/light_switch/server/CMakeFiles/light_switch_server_nrf51422_xxAC_s130_2.0.1.dir/__/__/__/models/config/src/config_server.c.obj
 .text.handle_node_identity_set
                0x0001cdbc       0x3c examples/light_switch/server/CMakeFiles/light_switch_server_nrf51422_xxAC_s130_2.0.1.dir/__/__/__/models/config/src/config_server.c.obj
 .text.handle_node_identity_get
                0x0001cdf8       0x34 examples/light_switch/server/CMakeFiles/light_switch_server_nrf51422_xxAC_s130_2.0.1.dir/__/__/__/models/config/src/config_server.c.obj
 .text.handle_config_gatt_proxy_set
                0x0001ce2c       0x1c examples/light_switch/server/CMakeFiles/light_switch_server_nrf51422_xxAC_s130_2.0.1.dir/__/__/__/models/config/src/config_server.c.obj
 .text.handle_config_friend_set
                0x0001ce48       0x1c examples/light_switch/server/CMakeFiles/light_switch_server_nrf51422_xxAC_s130_2.0.1.dir/__/__/__/models/config/src/config_server.c.obj
 .text.handle_config_beacon_set
                0x0001ce64       0x26 examples/light_switch/server/CMakeFiles/light_switch_server_nrf51422_xxAC_s130_2.0.1.dir/__/__/__/models/config/src/config_server.c.obj
 *fill*         0x0001ce8a        0x2 
 .text.handle_appkey_delete
                0x0001ce8c       0x78 examples/light_switch/server/CMakeFiles/light_switch_server_nrf51422_xxAC_s130_2.0.1.dir/__/__/__/models/config/src/config_server.c.obj
 .text.handle_config_vendor_model_subscription_get
                0x0001cf04      0x10c examples/light_switch/server/CMakeFiles/light_switch_server_nrf51422_xxAC_s130_2.0.1.dir/__/__/__/models/config/src/config_server.c.obj
 .text.handle_config_sig_model_subscription_get
                0x0001d010       0xf4 examples/light_switch/server/CMakeFiles/light_switch_server_nrf51422_xxAC_s130_2.0.1.dir/__/__/__/models/config/src/config_server.c.obj
 .text.handle_config_friend_get
                0x0001d104       0x20 examples/light_switch/server/CMakeFiles/light_switch_server_nrf51422_xxAC_s130_2.0.1.dir/__/__/__/models/config/src/config_server.c.obj
 .text.handle_config_gatt_proxy_get
                0x0001d124       0x20 examples/light_switch/server/CMakeFiles/light_switch_server_nrf51422_xxAC_s130_2.0.1.dir/__/__/__/models/config/src/config_server.c.obj
 .text.handle_appkey_add_update
                0x0001d144       0xc4 examples/light_switch/server/CMakeFiles/light_switch_server_nrf51422_xxAC_s130_2.0.1.dir/__/__/__/models/config/src/config_server.c.obj
 .text.handle_netkey_delete
                0x0001d208       0x68 examples/light_switch/server/CMakeFiles/light_switch_server_nrf51422_xxAC_s130_2.0.1.dir/__/__/__/models/config/src/config_server.c.obj
 .text.config_server_init
                0x0001d270       0x54 examples/light_switch/server/CMakeFiles/light_switch_server_nrf51422_xxAC_s130_2.0.1.dir/__/__/__/models/config/src/config_server.c.obj
                0x0001d270                config_server_init
 .text.config_server_bind
                0x0001d2c4       0x14 examples/light_switch/server/CMakeFiles/light_switch_server_nrf51422_xxAC_s130_2.0.1.dir/__/__/__/models/config/src/config_server.c.obj
                0x0001d2c4                config_server_bind
 .text.packed_index_list_size
                0x0001d2d8       0x10 examples/light_switch/server/CMakeFiles/light_switch_server_nrf51422_xxAC_s130_2.0.1.dir/__/__/__/models/config/src/packed_index_list.c.obj
                0x0001d2d8                packed_index_list_size
 .text.packed_index_list_create
                0x0001d2e8       0x30 examples/light_switch/server/CMakeFiles/light_switch_server_nrf51422_xxAC_s130_2.0.1.dir/__/__/__/models/config/src/packed_index_list.c.obj
                0x0001d2e8                packed_index_list_create
 .text.attention_timer_set
                0x0001d318       0xa4 examples/light_switch/server/CMakeFiles/light_switch_server_nrf51422_xxAC_s130_2.0.1.dir/__/__/__/models/health/src/health_server.c.obj
 .text.attention_timer_handler
                0x0001d3bc       0x6c examples/light_switch/server/CMakeFiles/light_switch_server_nrf51422_xxAC_s130_2.0.1.dir/__/__/__/models/health/src/health_server.c.obj
 .text.bitfield_next_get.part.0.constprop.13
                0x0001d428       0x48 examples/light_switch/server/CMakeFiles/light_switch_server_nrf51422_xxAC_s130_2.0.1.dir/__/__/__/models/health/src/health_server.c.obj
 .text.bitfield_popcount.constprop.11
                0x0001d470       0x2a examples/light_switch/server/CMakeFiles/light_switch_server_nrf51422_xxAC_s130_2.0.1.dir/__/__/__/models/health/src/health_server.c.obj
 .text.send_fault_status
                0x0001d49a       0xa2 examples/light_switch/server/CMakeFiles/light_switch_server_nrf51422_xxAC_s130_2.0.1.dir/__/__/__/models/health/src/health_server.c.obj
 .text.health_publish_timeout_handler
                0x0001d53c        0xe examples/light_switch/server/CMakeFiles/light_switch_server_nrf51422_xxAC_s130_2.0.1.dir/__/__/__/models/health/src/health_server.c.obj
 *fill*         0x0001d54a        0x2 
 .text.handle_fault_test
                0x0001d54c       0x78 examples/light_switch/server/CMakeFiles/light_switch_server_nrf51422_xxAC_s130_2.0.1.dir/__/__/__/models/health/src/health_server.c.obj
 .text.handle_fault_get
                0x0001d5c4       0x44 examples/light_switch/server/CMakeFiles/light_switch_server_nrf51422_xxAC_s130_2.0.1.dir/__/__/__/models/health/src/health_server.c.obj
 .text.handle_fault_clear
                0x0001d608       0x5c examples/light_switch/server/CMakeFiles/light_switch_server_nrf51422_xxAC_s130_2.0.1.dir/__/__/__/models/health/src/health_server.c.obj
 .text.handle_attention_get
                0x0001d664       0x34 examples/light_switch/server/CMakeFiles/light_switch_server_nrf51422_xxAC_s130_2.0.1.dir/__/__/__/models/health/src/health_server.c.obj
 .text.handle_period_get
                0x0001d698       0x30 examples/light_switch/server/CMakeFiles/light_switch_server_nrf51422_xxAC_s130_2.0.1.dir/__/__/__/models/health/src/health_server.c.obj
 .text.handle_attention_set
                0x0001d6c8       0x4c examples/light_switch/server/CMakeFiles/light_switch_server_nrf51422_xxAC_s130_2.0.1.dir/__/__/__/models/health/src/health_server.c.obj
 .text.handle_period_set
                0x0001d714       0x48 examples/light_switch/server/CMakeFiles/light_switch_server_nrf51422_xxAC_s130_2.0.1.dir/__/__/__/models/health/src/health_server.c.obj
 .text.health_server_init
                0x0001d75c       0x6c examples/light_switch/server/CMakeFiles/light_switch_server_nrf51422_xxAC_s130_2.0.1.dir/__/__/__/models/health/src/health_server.c.obj
                0x0001d75c                health_server_init
 .text.add_to_publication_list
                0x0001d7c8       0x60 examples/light_switch/server/CMakeFiles/light_switch_server_nrf51422_xxAC_s130_2.0.1.dir/__/__/__/mesh/access/src/access_publish.c.obj
 .text.step_resolution_to_us
                0x0001d828       0x48 examples/light_switch/server/CMakeFiles/light_switch_server_nrf51422_xxAC_s130_2.0.1.dir/__/__/__/mesh/access/src/access_publish.c.obj
 .text.schedule_publication_timer
                0x0001d870      0x16c examples/light_switch/server/CMakeFiles/light_switch_server_nrf51422_xxAC_s130_2.0.1.dir/__/__/__/mesh/access/src/access_publish.c.obj
 .text.publish_timer_tick
                0x0001d9dc       0xac examples/light_switch/server/CMakeFiles/light_switch_server_nrf51422_xxAC_s130_2.0.1.dir/__/__/__/mesh/access/src/access_publish.c.obj
 .text.access_publish_init
                0x0001da88       0x38 examples/light_switch/server/CMakeFiles/light_switch_server_nrf51422_xxAC_s130_2.0.1.dir/__/__/__/mesh/access/src/access_publish.c.obj
                0x0001da88                access_publish_init
 .text.access_publish_period_set
                0x0001dac0       0x84 examples/light_switch/server/CMakeFiles/light_switch_server_nrf51422_xxAC_s130_2.0.1.dir/__/__/__/mesh/access/src/access_publish.c.obj
                0x0001dac0                access_publish_period_set
 .text.access_publish_period_get
                0x0001db44       0x30 examples/light_switch/server/CMakeFiles/light_switch_server_nrf51422_xxAC_s130_2.0.1.dir/__/__/__/mesh/access/src/access_publish.c.obj
                0x0001db44                access_publish_period_get
 .text.bitfield_get
                0x0001db74       0x18 examples/light_switch/server/CMakeFiles/light_switch_server_nrf51422_xxAC_s130_2.0.1.dir/__/__/__/mesh/access/src/access.c.obj
 .text.is_valid_opcode
                0x0001db8c       0x4c examples/light_switch/server/CMakeFiles/light_switch_server_nrf51422_xxAC_s130_2.0.1.dir/__/__/__/mesh/access/src/access.c.obj
 .text.model_handle_valid_and_allocated
                0x0001dbd8       0x20 examples/light_switch/server/CMakeFiles/light_switch_server_nrf51422_xxAC_s130_2.0.1.dir/__/__/__/mesh/access/src/access.c.obj
 .text.flash_invalidate_complete
                0x0001dbf8       0x18 examples/light_switch/server/CMakeFiles/light_switch_server_nrf51422_xxAC_s130_2.0.1.dir/__/__/__/mesh/access/src/access.c.obj
 .text.flash_manager_mem_available
                0x0001dc10        0x6 examples/light_switch/server/CMakeFiles/light_switch_server_nrf51422_xxAC_s130_2.0.1.dir/__/__/__/mesh/access/src/access.c.obj
 *fill*         0x0001dc16        0x2 
 .text.restore_acquired_subscription
                0x0001dc18       0x24 examples/light_switch/server/CMakeFiles/light_switch_server_nrf51422_xxAC_s130_2.0.1.dir/__/__/__/mesh/access/src/access.c.obj
 .text.restore_acquired_element
                0x0001dc3c       0x1c examples/light_switch/server/CMakeFiles/light_switch_server_nrf51422_xxAC_s130_2.0.1.dir/__/__/__/mesh/access/src/access.c.obj
 .text.restore_flash_data
                0x0001dc58       0x5c examples/light_switch/server/CMakeFiles/light_switch_server_nrf51422_xxAC_s130_2.0.1.dir/__/__/__/mesh/access/src/access.c.obj
 .text.access_flash_config_clear
                0x0001dcb4       0x28 examples/light_switch/server/CMakeFiles/light_switch_server_nrf51422_xxAC_s130_2.0.1.dir/__/__/__/mesh/access/src/access.c.obj
 .text.access_flash_config_store
                0x0001dcdc      0x10c examples/light_switch/server/CMakeFiles/light_switch_server_nrf51422_xxAC_s130_2.0.1.dir/__/__/__/mesh/access/src/access.c.obj
                0x0001dcdc                access_flash_config_store
 .text.access_state_clear
                0x0001dde8       0x48 examples/light_switch/server/CMakeFiles/light_switch_server_nrf51422_xxAC_s130_2.0.1.dir/__/__/__/mesh/access/src/access.c.obj
 .text.add_flash_manager
                0x0001de30       0x5c examples/light_switch/server/CMakeFiles/light_switch_server_nrf51422_xxAC_s130_2.0.1.dir/__/__/__/mesh/access/src/access.c.obj
 .text.flash_remove_complete
                0x0001de8c       0x50 examples/light_switch/server/CMakeFiles/light_switch_server_nrf51422_xxAC_s130_2.0.1.dir/__/__/__/mesh/access/src/access.c.obj
 .text.flash_write_complete
                0x0001dedc       0x54 examples/light_switch/server/CMakeFiles/light_switch_server_nrf51422_xxAC_s130_2.0.1.dir/__/__/__/mesh/access/src/access.c.obj
 .text.unlikely.bitfield_next_get.part.0.constprop.3
                0x0001df30       0x34 examples/light_switch/server/CMakeFiles/light_switch_server_nrf51422_xxAC_s130_2.0.1.dir/__/__/__/mesh/access/src/access.c.obj
 .text.restore_acquired_model
                0x0001df64       0x84 examples/light_switch/server/CMakeFiles/light_switch_server_nrf51422_xxAC_s130_2.0.1.dir/__/__/__/mesh/access/src/access.c.obj
 .text.handle_incoming
                0x0001dfe8      0x160 examples/light_switch/server/CMakeFiles/light_switch_server_nrf51422_xxAC_s130_2.0.1.dir/__/__/__/mesh/access/src/access.c.obj
 .text.mesh_evt_cb
                0x0001e148      0x130 examples/light_switch/server/CMakeFiles/light_switch_server_nrf51422_xxAC_s130_2.0.1.dir/__/__/__/mesh/access/src/access.c.obj
 .text.packet_tx
                0x0001e278      0x2f8 examples/light_switch/server/CMakeFiles/light_switch_server_nrf51422_xxAC_s130_2.0.1.dir/__/__/__/mesh/access/src/access.c.obj
 .text.access_flash_config_load
                0x0001e570      0x128 examples/light_switch/server/CMakeFiles/light_switch_server_nrf51422_xxAC_s130_2.0.1.dir/__/__/__/mesh/access/src/access.c.obj
                0x0001e570                access_flash_config_load
 .text.access_init
                0x0001e698       0x28 examples/light_switch/server/CMakeFiles/light_switch_server_nrf51422_xxAC_s130_2.0.1.dir/__/__/__/mesh/access/src/access.c.obj
                0x0001e698                access_init
 .text.access_model_add
                0x0001e6c0      0x1a0 examples/light_switch/server/CMakeFiles/light_switch_server_nrf51422_xxAC_s130_2.0.1.dir/__/__/__/mesh/access/src/access.c.obj
                0x0001e6c0                access_model_add
 .text.access_model_publish
                0x0001e860       0x14 examples/light_switch/server/CMakeFiles/light_switch_server_nrf51422_xxAC_s130_2.0.1.dir/__/__/__/mesh/access/src/access.c.obj
                0x0001e860                access_model_publish
 .text.access_model_reply
                0x0001e874       0x1c examples/light_switch/server/CMakeFiles/light_switch_server_nrf51422_xxAC_s130_2.0.1.dir/__/__/__/mesh/access/src/access.c.obj
                0x0001e874                access_model_reply
 .text.access_model_publish_address_set
                0x0001e890       0x3c examples/light_switch/server/CMakeFiles/light_switch_server_nrf51422_xxAC_s130_2.0.1.dir/__/__/__/mesh/access/src/access.c.obj
                0x0001e890                access_model_publish_address_set
 .text.access_model_publish_address_get
                0x0001e8cc       0x2c examples/light_switch/server/CMakeFiles/light_switch_server_nrf51422_xxAC_s130_2.0.1.dir/__/__/__/mesh/access/src/access.c.obj
                0x0001e8cc                access_model_publish_address_get
 .text.access_model_publish_period_set
                0x0001e8f8       0x80 examples/light_switch/server/CMakeFiles/light_switch_server_nrf51422_xxAC_s130_2.0.1.dir/__/__/__/mesh/access/src/access.c.obj
                0x0001e8f8                access_model_publish_period_set
 .text.access_model_publish_period_get
                0x0001e978       0x44 examples/light_switch/server/CMakeFiles/light_switch_server_nrf51422_xxAC_s130_2.0.1.dir/__/__/__/mesh/access/src/access.c.obj
                0x0001e978                access_model_publish_period_get
 .text.access_model_subscription_list_alloc
                0x0001e9bc       0x40 examples/light_switch/server/CMakeFiles/light_switch_server_nrf51422_xxAC_s130_2.0.1.dir/__/__/__/mesh/access/src/access.c.obj
                0x0001e9bc                access_model_subscription_list_alloc
 .text.access_model_subscription_add
                0x0001e9fc       0x5c examples/light_switch/server/CMakeFiles/light_switch_server_nrf51422_xxAC_s130_2.0.1.dir/__/__/__/mesh/access/src/access.c.obj
                0x0001e9fc                access_model_subscription_add
 .text.access_model_subscription_remove
                0x0001ea58       0x5c examples/light_switch/server/CMakeFiles/light_switch_server_nrf51422_xxAC_s130_2.0.1.dir/__/__/__/mesh/access/src/access.c.obj
                0x0001ea58                access_model_subscription_remove
 .text.access_model_subscriptions_get
                0x0001eab4       0x7c examples/light_switch/server/CMakeFiles/light_switch_server_nrf51422_xxAC_s130_2.0.1.dir/__/__/__/mesh/access/src/access.c.obj
                0x0001eab4                access_model_subscriptions_get
 .text.access_model_application_bind
                0x0001eb30       0x50 examples/light_switch/server/CMakeFiles/light_switch_server_nrf51422_xxAC_s130_2.0.1.dir/__/__/__/mesh/access/src/access.c.obj
                0x0001eb30                access_model_application_bind
 .text.access_model_application_unbind
                0x0001eb80       0x50 examples/light_switch/server/CMakeFiles/light_switch_server_nrf51422_xxAC_s130_2.0.1.dir/__/__/__/mesh/access/src/access.c.obj
                0x0001eb80                access_model_application_unbind
 .text.access_model_applications_get
                0x0001ebd0       0x54 examples/light_switch/server/CMakeFiles/light_switch_server_nrf51422_xxAC_s130_2.0.1.dir/__/__/__/mesh/access/src/access.c.obj
                0x0001ebd0                access_model_applications_get
 .text.access_model_publish_application_set
                0x0001ec24       0x3c examples/light_switch/server/CMakeFiles/light_switch_server_nrf51422_xxAC_s130_2.0.1.dir/__/__/__/mesh/access/src/access.c.obj
                0x0001ec24                access_model_publish_application_set
 .text.access_model_publish_application_get
                0x0001ec60       0x2c examples/light_switch/server/CMakeFiles/light_switch_server_nrf51422_xxAC_s130_2.0.1.dir/__/__/__/mesh/access/src/access.c.obj
                0x0001ec60                access_model_publish_application_get
 .text.access_default_ttl_set
                0x0001ec8c       0x10 examples/light_switch/server/CMakeFiles/light_switch_server_nrf51422_xxAC_s130_2.0.1.dir/__/__/__/mesh/access/src/access.c.obj
                0x0001ec8c                access_default_ttl_set
 .text.access_default_ttl_get
                0x0001ec9c        0xc examples/light_switch/server/CMakeFiles/light_switch_server_nrf51422_xxAC_s130_2.0.1.dir/__/__/__/mesh/access/src/access.c.obj
                0x0001ec9c                access_default_ttl_get
 .text.access_model_publish_ttl_set
                0x0001eca8       0x44 examples/light_switch/server/CMakeFiles/light_switch_server_nrf51422_xxAC_s130_2.0.1.dir/__/__/__/mesh/access/src/access.c.obj
                0x0001eca8                access_model_publish_ttl_set
 .text.access_model_publish_ttl_get
                0x0001ecec       0x2c examples/light_switch/server/CMakeFiles/light_switch_server_nrf51422_xxAC_s130_2.0.1.dir/__/__/__/mesh/access/src/access.c.obj
                0x0001ecec                access_model_publish_ttl_get
 .text.access_element_location_get
                0x0001ed18       0x1c examples/light_switch/server/CMakeFiles/light_switch_server_nrf51422_xxAC_s130_2.0.1.dir/__/__/__/mesh/access/src/access.c.obj
                0x0001ed18                access_element_location_get
 .text.access_element_sig_model_count_get
                0x0001ed34       0x1c examples/light_switch/server/CMakeFiles/light_switch_server_nrf51422_xxAC_s130_2.0.1.dir/__/__/__/mesh/access/src/access.c.obj
                0x0001ed34                access_element_sig_model_count_get
 .text.access_element_vendor_model_count_get
                0x0001ed50       0x1c examples/light_switch/server/CMakeFiles/light_switch_server_nrf51422_xxAC_s130_2.0.1.dir/__/__/__/mesh/access/src/access.c.obj
                0x0001ed50                access_element_vendor_model_count_get
 .text.access_model_id_get
                0x0001ed6c       0x38 examples/light_switch/server/CMakeFiles/light_switch_server_nrf51422_xxAC_s130_2.0.1.dir/__/__/__/mesh/access/src/access.c.obj
                0x0001ed6c                access_model_id_get
 .text.access_handle_get
                0x0001eda4       0x48 examples/light_switch/server/CMakeFiles/light_switch_server_nrf51422_xxAC_s130_2.0.1.dir/__/__/__/mesh/access/src/access.c.obj
                0x0001eda4                access_handle_get
 .text.access_element_models_get
                0x0001edec       0x60 examples/light_switch/server/CMakeFiles/light_switch_server_nrf51422_xxAC_s130_2.0.1.dir/__/__/__/mesh/access/src/access.c.obj
                0x0001edec                access_element_models_get
 .text.access_model_p_args_get
                0x0001ee4c       0x2c examples/light_switch/server/CMakeFiles/light_switch_server_nrf51422_xxAC_s130_2.0.1.dir/__/__/__/mesh/access/src/access.c.obj
                0x0001ee4c                access_model_p_args_get
 .text.remove_and_reschedule
                0x0001ee78       0xd8 examples/light_switch/server/CMakeFiles/light_switch_server_nrf51422_xxAC_s130_2.0.1.dir/__/__/__/mesh/access/src/access_reliable.c.obj
 .text.reliable_timer_cb
                0x0001ef50      0x150 examples/light_switch/server/CMakeFiles/light_switch_server_nrf51422_xxAC_s130_2.0.1.dir/__/__/__/mesh/access/src/access_reliable.c.obj
 .text.access_reliable_message_rx_cb
                0x0001f0a0       0x80 examples/light_switch/server/CMakeFiles/light_switch_server_nrf51422_xxAC_s130_2.0.1.dir/__/__/__/mesh/access/src/access_reliable.c.obj
                0x0001f0a0                access_reliable_message_rx_cb
 .text.access_reliable_init
                0x0001f120       0x1c examples/light_switch/server/CMakeFiles/light_switch_server_nrf51422_xxAC_s130_2.0.1.dir/__/__/__/mesh/access/src/access_reliable.c.obj
                0x0001f120                access_reliable_init
 .text.bitfield_get
                0x0001f13c       0x18 examples/light_switch/server/CMakeFiles/light_switch_server_nrf51422_xxAC_s130_2.0.1.dir/__/__/__/mesh/access/src/device_state_manager.c.obj
 .text.bitfield_set
                0x0001f154       0x16 examples/light_switch/server/CMakeFiles/light_switch_server_nrf51422_xxAC_s130_2.0.1.dir/__/__/__/mesh/access/src/device_state_manager.c.obj
 .text.bitfield_clear
                0x0001f16a       0x16 examples/light_switch/server/CMakeFiles/light_switch_server_nrf51422_xxAC_s130_2.0.1.dir/__/__/__/mesh/access/src/device_state_manager.c.obj
 .text.bitfield_is_all_clear
                0x0001f180       0x3a examples/light_switch/server/CMakeFiles/light_switch_server_nrf51422_xxAC_s130_2.0.1.dir/__/__/__/mesh/access/src/device_state_manager.c.obj
 *fill*         0x0001f1ba        0x2 
 .text.address_handle_virtual_valid
                0x0001f1bc       0x18 examples/light_switch/server/CMakeFiles/light_switch_server_nrf51422_xxAC_s130_2.0.1.dir/__/__/__/mesh/access/src/device_state_manager.c.obj
 .text.net_key_handle_get
                0x0001f1d4       0x38 examples/light_switch/server/CMakeFiles/light_switch_server_nrf51422_xxAC_s130_2.0.1.dir/__/__/__/mesh/access/src/device_state_manager.c.obj
 .text.dev_key_handle_get
                0x0001f20c       0x34 examples/light_switch/server/CMakeFiles/light_switch_server_nrf51422_xxAC_s130_2.0.1.dir/__/__/__/mesh/access/src/device_state_manager.c.obj
 .text.app_key_handle_get
                0x0001f240       0x38 examples/light_switch/server/CMakeFiles/light_switch_server_nrf51422_xxAC_s130_2.0.1.dir/__/__/__/mesh/access/src/device_state_manager.c.obj
 .text.addr_nonvirtual_to_flash_entry
                0x0001f278       0x10 examples/light_switch/server/CMakeFiles/light_switch_server_nrf51422_xxAC_s130_2.0.1.dir/__/__/__/mesh/access/src/device_state_manager.c.obj
 .text.flash_mem_listener_callback
                0x0001f288       0x20 examples/light_switch/server/CMakeFiles/light_switch_server_nrf51422_xxAC_s130_2.0.1.dir/__/__/__/mesh/access/src/device_state_manager.c.obj
 .text.devkey_set
                0x0001f2a8       0x4c examples/light_switch/server/CMakeFiles/light_switch_server_nrf51422_xxAC_s130_2.0.1.dir/__/__/__/mesh/access/src/device_state_manager.c.obj
 .text.devkey_to_dsm_entry
                0x0001f2f4       0x14 examples/light_switch/server/CMakeFiles/light_switch_server_nrf51422_xxAC_s130_2.0.1.dir/__/__/__/mesh/access/src/device_state_manager.c.obj
 .text.devkey_to_flash_entry
                0x0001f308       0x28 examples/light_switch/server/CMakeFiles/light_switch_server_nrf51422_xxAC_s130_2.0.1.dir/__/__/__/mesh/access/src/device_state_manager.c.obj
 .text.appkey_to_flash_entry
                0x0001f330       0x28 examples/light_switch/server/CMakeFiles/light_switch_server_nrf51422_xxAC_s130_2.0.1.dir/__/__/__/mesh/access/src/device_state_manager.c.obj
 .text.subnet_to_flash_entry
                0x0001f358       0x20 examples/light_switch/server/CMakeFiles/light_switch_server_nrf51422_xxAC_s130_2.0.1.dir/__/__/__/mesh/access/src/device_state_manager.c.obj
 .text.addr_virtual_to_flash_entry
                0x0001f378       0x1c examples/light_switch/server/CMakeFiles/light_switch_server_nrf51422_xxAC_s130_2.0.1.dir/__/__/__/mesh/access/src/device_state_manager.c.obj
 .text.addr_unicast_to_dsm_entry
                0x0001f394       0x10 examples/light_switch/server/CMakeFiles/light_switch_server_nrf51422_xxAC_s130_2.0.1.dir/__/__/__/mesh/access/src/device_state_manager.c.obj
 .text.addr_unicast_to_flash_entry
                0x0001f3a4       0x14 examples/light_switch/server/CMakeFiles/light_switch_server_nrf51422_xxAC_s130_2.0.1.dir/__/__/__/mesh/access/src/device_state_manager.c.obj
 .text.appkey_set
                0x0001f3b8       0x74 examples/light_switch/server/CMakeFiles/light_switch_server_nrf51422_xxAC_s130_2.0.1.dir/__/__/__/mesh/access/src/device_state_manager.c.obj
 .text.appkey_to_dsm_entry
                0x0001f42c       0x12 examples/light_switch/server/CMakeFiles/light_switch_server_nrf51422_xxAC_s130_2.0.1.dir/__/__/__/mesh/access/src/device_state_manager.c.obj
 *fill*         0x0001f43e        0x2 
 .text.subnet_set
                0x0001f440       0xa0 examples/light_switch/server/CMakeFiles/light_switch_server_nrf51422_xxAC_s130_2.0.1.dir/__/__/__/mesh/access/src/device_state_manager.c.obj
 .text.subnet_to_dsm_entry
                0x0001f4e0       0x10 examples/light_switch/server/CMakeFiles/light_switch_server_nrf51422_xxAC_s130_2.0.1.dir/__/__/__/mesh/access/src/device_state_manager.c.obj
 .text.virtual_address_set
                0x0001f4f0       0x58 examples/light_switch/server/CMakeFiles/light_switch_server_nrf51422_xxAC_s130_2.0.1.dir/__/__/__/mesh/access/src/device_state_manager.c.obj
 .text.addr_virtual_to_dsm_entry
                0x0001f548       0x10 examples/light_switch/server/CMakeFiles/light_switch_server_nrf51422_xxAC_s130_2.0.1.dir/__/__/__/mesh/access/src/device_state_manager.c.obj
 .text.flash_save
                0x0001f558       0x88 examples/light_switch/server/CMakeFiles/light_switch_server_nrf51422_xxAC_s130_2.0.1.dir/__/__/__/mesh/access/src/device_state_manager.c.obj
 .text.flash_invalidate
                0x0001f5e0       0x6c examples/light_switch/server/CMakeFiles/light_switch_server_nrf51422_xxAC_s130_2.0.1.dir/__/__/__/mesh/access/src/device_state_manager.c.obj
 .text.flash_update_all
                0x0001f64c       0x70 examples/light_switch/server/CMakeFiles/light_switch_server_nrf51422_xxAC_s130_2.0.1.dir/__/__/__/mesh/access/src/device_state_manager.c.obj
 .text.reset_flash_area
                0x0001f6bc       0x28 examples/light_switch/server/CMakeFiles/light_switch_server_nrf51422_xxAC_s130_2.0.1.dir/__/__/__/mesh/access/src/device_state_manager.c.obj
 .text.virtual_address_uuid_index_get
                0x0001f6e4       0x40 examples/light_switch/server/CMakeFiles/light_switch_server_nrf51422_xxAC_s130_2.0.1.dir/__/__/__/mesh/access/src/device_state_manager.c.obj
 .text.add_address_virtual
                0x0001f724       0x7c examples/light_switch/server/CMakeFiles/light_switch_server_nrf51422_xxAC_s130_2.0.1.dir/__/__/__/mesh/access/src/device_state_manager.c.obj
 .text.get_subnet_handle
                0x0001f7a0       0x38 examples/light_switch/server/CMakeFiles/light_switch_server_nrf51422_xxAC_s130_2.0.1.dir/__/__/__/mesh/access/src/device_state_manager.c.obj
 .text.get_app_handle
                0x0001f7d8       0x44 examples/light_switch/server/CMakeFiles/light_switch_server_nrf51422_xxAC_s130_2.0.1.dir/__/__/__/mesh/access/src/device_state_manager.c.obj
 .text.flash_operation_complete
                0x0001f81c       0x58 examples/light_switch/server/CMakeFiles/light_switch_server_nrf51422_xxAC_s130_2.0.1.dir/__/__/__/mesh/access/src/device_state_manager.c.obj
 .text.flash_invalidate_complete
                0x0001f874        0xc examples/light_switch/server/CMakeFiles/light_switch_server_nrf51422_xxAC_s130_2.0.1.dir/__/__/__/mesh/access/src/device_state_manager.c.obj
 .text.flash_write_complete
                0x0001f880        0xc examples/light_switch/server/CMakeFiles/light_switch_server_nrf51422_xxAC_s130_2.0.1.dir/__/__/__/mesh/access/src/device_state_manager.c.obj
 .text.add_address.part.5
                0x0001f88c      0x138 examples/light_switch/server/CMakeFiles/light_switch_server_nrf51422_xxAC_s130_2.0.1.dir/__/__/__/mesh/access/src/device_state_manager.c.obj
 .text.address_handle_valid
                0x0001f9c4       0x28 examples/light_switch/server/CMakeFiles/light_switch_server_nrf51422_xxAC_s130_2.0.1.dir/__/__/__/mesh/access/src/device_state_manager.c.obj
 .text.address_handle_nonvirtual_valid
                0x0001f9ec       0x18 examples/light_switch/server/CMakeFiles/light_switch_server_nrf51422_xxAC_s130_2.0.1.dir/__/__/__/mesh/access/src/device_state_manager.c.obj
 .text.address_delete_if_unused
                0x0001fa04       0x7c examples/light_switch/server/CMakeFiles/light_switch_server_nrf51422_xxAC_s130_2.0.1.dir/__/__/__/mesh/access/src/device_state_manager.c.obj
 .text.addr_nonvirtual_to_dsm_entry
                0x0001fa80       0x34 examples/light_switch/server/CMakeFiles/light_switch_server_nrf51422_xxAC_s130_2.0.1.dir/__/__/__/mesh/access/src/device_state_manager.c.obj
 .text.dsm_flash_config_load
                0x0001fab4       0xf0 examples/light_switch/server/CMakeFiles/light_switch_server_nrf51422_xxAC_s130_2.0.1.dir/__/__/__/mesh/access/src/device_state_manager.c.obj
                0x0001fab4                dsm_flash_config_load
 .text.dsm_flash_area_get
                0x0001fba4       0x10 examples/light_switch/server/CMakeFiles/light_switch_server_nrf51422_xxAC_s130_2.0.1.dir/__/__/__/mesh/access/src/device_state_manager.c.obj
                0x0001fba4                dsm_flash_area_get
 .text.build_flash_area
                0x0001fbb4       0x8c examples/light_switch/server/CMakeFiles/light_switch_server_nrf51422_xxAC_s130_2.0.1.dir/__/__/__/mesh/access/src/device_state_manager.c.obj
 .text.dsm_init
                0x0001fc40       0x28 examples/light_switch/server/CMakeFiles/light_switch_server_nrf51422_xxAC_s130_2.0.1.dir/__/__/__/mesh/access/src/device_state_manager.c.obj
                0x0001fc40                dsm_init
 .text.flash_remove_complete
                0x0001fc68        0x8 examples/light_switch/server/CMakeFiles/light_switch_server_nrf51422_xxAC_s130_2.0.1.dir/__/__/__/mesh/access/src/device_state_manager.c.obj
 .text.dsm_local_unicast_addresses_set
                0x0001fc70       0x74 examples/light_switch/server/CMakeFiles/light_switch_server_nrf51422_xxAC_s130_2.0.1.dir/__/__/__/mesh/access/src/device_state_manager.c.obj
                0x0001fc70                dsm_local_unicast_addresses_set
 .text.dsm_local_unicast_addresses_get
                0x0001fce4       0x2c examples/light_switch/server/CMakeFiles/light_switch_server_nrf51422_xxAC_s130_2.0.1.dir/__/__/__/mesh/access/src/device_state_manager.c.obj
                0x0001fce4                dsm_local_unicast_addresses_get
 .text.dsm_address_publish_add
                0x0001fd10       0x14 examples/light_switch/server/CMakeFiles/light_switch_server_nrf51422_xxAC_s130_2.0.1.dir/__/__/__/mesh/access/src/device_state_manager.c.obj
                0x0001fd10                dsm_address_publish_add
 .text.dsm_address_publish_add_handle
                0x0001fd24       0x38 examples/light_switch/server/CMakeFiles/light_switch_server_nrf51422_xxAC_s130_2.0.1.dir/__/__/__/mesh/access/src/device_state_manager.c.obj
                0x0001fd24                dsm_address_publish_add_handle
 .text.dsm_address_publish_virtual_add
                0x0001fd5c        0xa examples/light_switch/server/CMakeFiles/light_switch_server_nrf51422_xxAC_s130_2.0.1.dir/__/__/__/mesh/access/src/device_state_manager.c.obj
                0x0001fd5c                dsm_address_publish_virtual_add
 .text.dsm_address_subscription_add
                0x0001fd66       0x14 examples/light_switch/server/CMakeFiles/light_switch_server_nrf51422_xxAC_s130_2.0.1.dir/__/__/__/mesh/access/src/device_state_manager.c.obj
                0x0001fd66                dsm_address_subscription_add
 .text.dsm_address_subscription_virtual_add
                0x0001fd7a        0xa examples/light_switch/server/CMakeFiles/light_switch_server_nrf51422_xxAC_s130_2.0.1.dir/__/__/__/mesh/access/src/device_state_manager.c.obj
                0x0001fd7a                dsm_address_subscription_virtual_add
 .text.dsm_address_subscription_add_handle
                0x0001fd84       0x38 examples/light_switch/server/CMakeFiles/light_switch_server_nrf51422_xxAC_s130_2.0.1.dir/__/__/__/mesh/access/src/device_state_manager.c.obj
                0x0001fd84                dsm_address_subscription_add_handle
 .text.dsm_address_subscription_get
                0x0001fdbc       0x34 examples/light_switch/server/CMakeFiles/light_switch_server_nrf51422_xxAC_s130_2.0.1.dir/__/__/__/mesh/access/src/device_state_manager.c.obj
                0x0001fdbc                dsm_address_subscription_get
 .text.dsm_address_get
                0x0001fdf0       0x5c examples/light_switch/server/CMakeFiles/light_switch_server_nrf51422_xxAC_s130_2.0.1.dir/__/__/__/mesh/access/src/device_state_manager.c.obj
                0x0001fdf0                dsm_address_get
 .text.dsm_address_subscription_remove
                0x0001fe4c       0x60 examples/light_switch/server/CMakeFiles/light_switch_server_nrf51422_xxAC_s130_2.0.1.dir/__/__/__/mesh/access/src/device_state_manager.c.obj
                0x0001fe4c                dsm_address_subscription_remove
 .text.dsm_address_handle_get
                0x0001feac       0x98 examples/light_switch/server/CMakeFiles/light_switch_server_nrf51422_xxAC_s130_2.0.1.dir/__/__/__/mesh/access/src/device_state_manager.c.obj
                0x0001feac                dsm_address_handle_get
 .text.dsm_net_key_index_to_subnet_handle
                0x0001ff44       0x1c examples/light_switch/server/CMakeFiles/light_switch_server_nrf51422_xxAC_s130_2.0.1.dir/__/__/__/mesh/access/src/device_state_manager.c.obj
                0x0001ff44                dsm_net_key_index_to_subnet_handle
 .text.dsm_app_key_index_to_appkey_handle
                0x0001ff60       0x1c examples/light_switch/server/CMakeFiles/light_switch_server_nrf51422_xxAC_s130_2.0.1.dir/__/__/__/mesh/access/src/device_state_manager.c.obj
                0x0001ff60                dsm_app_key_index_to_appkey_handle
 .text.dsm_appkey_handle_get
                0x0001ff7c       0x14 examples/light_switch/server/CMakeFiles/light_switch_server_nrf51422_xxAC_s130_2.0.1.dir/__/__/__/mesh/access/src/device_state_manager.c.obj
                0x0001ff7c                dsm_appkey_handle_get
 .text.dsm_appkey_handle_to_appkey_index
                0x0001ff90       0x34 examples/light_switch/server/CMakeFiles/light_switch_server_nrf51422_xxAC_s130_2.0.1.dir/__/__/__/mesh/access/src/device_state_manager.c.obj
                0x0001ff90                dsm_appkey_handle_to_appkey_index
 .text.dsm_subnet_add
                0x0001ffc4       0x60 examples/light_switch/server/CMakeFiles/light_switch_server_nrf51422_xxAC_s130_2.0.1.dir/__/__/__/mesh/access/src/device_state_manager.c.obj
                0x0001ffc4                dsm_subnet_add
 .text.dsm_subnet_update
                0x00020024       0x40 examples/light_switch/server/CMakeFiles/light_switch_server_nrf51422_xxAC_s130_2.0.1.dir/__/__/__/mesh/access/src/device_state_manager.c.obj
                0x00020024                dsm_subnet_update
 .text.dsm_subnet_get_all
                0x00020064       0x44 examples/light_switch/server/CMakeFiles/light_switch_server_nrf51422_xxAC_s130_2.0.1.dir/__/__/__/mesh/access/src/device_state_manager.c.obj
                0x00020064                dsm_subnet_get_all
 .text.dsm_devkey_add
                0x000200a8       0x7c examples/light_switch/server/CMakeFiles/light_switch_server_nrf51422_xxAC_s130_2.0.1.dir/__/__/__/mesh/access/src/device_state_manager.c.obj
                0x000200a8                dsm_devkey_add
 .text.dsm_devkey_delete
                0x00020124       0x3c examples/light_switch/server/CMakeFiles/light_switch_server_nrf51422_xxAC_s130_2.0.1.dir/__/__/__/mesh/access/src/device_state_manager.c.obj
                0x00020124                dsm_devkey_delete
 .text.dsm_appkey_add
                0x00020160       0x78 examples/light_switch/server/CMakeFiles/light_switch_server_nrf51422_xxAC_s130_2.0.1.dir/__/__/__/mesh/access/src/device_state_manager.c.obj
                0x00020160                dsm_appkey_add
 .text.dsm_appkey_update
                0x000201d8       0x44 examples/light_switch/server/CMakeFiles/light_switch_server_nrf51422_xxAC_s130_2.0.1.dir/__/__/__/mesh/access/src/device_state_manager.c.obj
                0x000201d8                dsm_appkey_update
 .text.dsm_appkey_delete
                0x0002021c       0x34 examples/light_switch/server/CMakeFiles/light_switch_server_nrf51422_xxAC_s130_2.0.1.dir/__/__/__/mesh/access/src/device_state_manager.c.obj
                0x0002021c                dsm_appkey_delete
 .text.dsm_subnet_delete
                0x00020250       0x98 examples/light_switch/server/CMakeFiles/light_switch_server_nrf51422_xxAC_s130_2.0.1.dir/__/__/__/mesh/access/src/device_state_manager.c.obj
                0x00020250                dsm_subnet_delete
 .text.dsm_appkey_get_all
                0x000202e8       0x64 examples/light_switch/server/CMakeFiles/light_switch_server_nrf51422_xxAC_s130_2.0.1.dir/__/__/__/mesh/access/src/device_state_manager.c.obj
                0x000202e8                dsm_appkey_get_all
 .text.dsm_tx_secmat_get
                0x0002034c       0xe0 examples/light_switch/server/CMakeFiles/light_switch_server_nrf51422_xxAC_s130_2.0.1.dir/__/__/__/mesh/access/src/device_state_manager.c.obj
                0x0002034c                dsm_tx_secmat_get
 .text.nrf_mesh_net_secmat_next_get
                0x0002042c       0x54 examples/light_switch/server/CMakeFiles/light_switch_server_nrf51422_xxAC_s130_2.0.1.dir/__/__/__/mesh/access/src/device_state_manager.c.obj
                0x0002042c                nrf_mesh_net_secmat_next_get
 .text.nrf_mesh_app_secmat_next_get
                0x00020480       0x88 examples/light_switch/server/CMakeFiles/light_switch_server_nrf51422_xxAC_s130_2.0.1.dir/__/__/__/mesh/access/src/device_state_manager.c.obj
                0x00020480                nrf_mesh_app_secmat_next_get
 .text.nrf_mesh_devkey_secmat_get
                0x00020508       0x34 examples/light_switch/server/CMakeFiles/light_switch_server_nrf51422_xxAC_s130_2.0.1.dir/__/__/__/mesh/access/src/device_state_manager.c.obj
                0x00020508                nrf_mesh_devkey_secmat_get
 .text.nrf_mesh_beacon_info_next_get
                0x0002053c       0x78 examples/light_switch/server/CMakeFiles/light_switch_server_nrf51422_xxAC_s130_2.0.1.dir/__/__/__/mesh/access/src/device_state_manager.c.obj
                0x0002053c                nrf_mesh_beacon_info_next_get
 .text.nrf_mesh_rx_address_get
                0x000205b4       0xec examples/light_switch/server/CMakeFiles/light_switch_server_nrf51422_xxAC_s130_2.0.1.dir/__/__/__/mesh/access/src/device_state_manager.c.obj
                0x000205b4                nrf_mesh_rx_address_get
 .text.complete_provisioning
                0x000206a0       0x6c examples/light_switch/server/CMakeFiles/light_switch_server_nrf51422_xxAC_s130_2.0.1.dir/__/__/__/mesh/prov/src/prov_provisionee.c.obj
 .text.prov_provisionee_cb_link_closed
                0x0002070c       0x34 examples/light_switch/server/CMakeFiles/light_switch_server_nrf51422_xxAC_s130_2.0.1.dir/__/__/__/mesh/prov/src/prov_provisionee.c.obj
 .text.prov_provisionee_cb_link_established
                0x00020740       0x20 examples/light_switch/server/CMakeFiles/light_switch_server_nrf51422_xxAC_s130_2.0.1.dir/__/__/__/mesh/prov/src/prov_provisionee.c.obj
 .text.send_failed
                0x00020760       0x40 examples/light_switch/server/CMakeFiles/light_switch_server_nrf51422_xxAC_s130_2.0.1.dir/__/__/__/mesh/prov/src/prov_provisionee.c.obj
 .text.request_authentication
                0x000207a0       0x94 examples/light_switch/server/CMakeFiles/light_switch_server_nrf51422_xxAC_s130_2.0.1.dir/__/__/__/mesh/prov/src/prov_provisionee.c.obj
 .text.start_authentication
                0x00020834       0x60 examples/light_switch/server/CMakeFiles/light_switch_server_nrf51422_xxAC_s130_2.0.1.dir/__/__/__/mesh/prov/src/prov_provisionee.c.obj
 .text.prov_provisionee_pkt_in
                0x00020894      0x314 examples/light_switch/server/CMakeFiles/light_switch_server_nrf51422_xxAC_s130_2.0.1.dir/__/__/__/mesh/prov/src/prov_provisionee.c.obj
 .text.prov_provisionee_cb_ack_received
                0x00020ba8       0xb8 examples/light_switch/server/CMakeFiles/light_switch_server_nrf51422_xxAC_s130_2.0.1.dir/__/__/__/mesh/prov/src/prov_provisionee.c.obj
 .text.prov_provisionee_init
                0x00020c60       0x48 examples/light_switch/server/CMakeFiles/light_switch_server_nrf51422_xxAC_s130_2.0.1.dir/__/__/__/mesh/prov/src/prov_provisionee.c.obj
                0x00020c60                prov_provisionee_init
 .text.prov_provisionee_auth_data
                0x00020ca8       0x88 examples/light_switch/server/CMakeFiles/light_switch_server_nrf51422_xxAC_s130_2.0.1.dir/__/__/__/mesh/prov/src/prov_provisionee.c.obj
                0x00020ca8                prov_provisionee_auth_data
 .text.nrf_mesh_prov_init
                0x00020d30       0x34 examples/light_switch/server/CMakeFiles/light_switch_server_nrf51422_xxAC_s130_2.0.1.dir/__/__/__/mesh/prov/src/nrf_mesh_prov.c.obj
                0x00020d30                nrf_mesh_prov_init
 .text.nrf_mesh_prov_generate_keys
                0x00020d64        0x8 examples/light_switch/server/CMakeFiles/light_switch_server_nrf51422_xxAC_s130_2.0.1.dir/__/__/__/mesh/prov/src/nrf_mesh_prov.c.obj
                0x00020d64                nrf_mesh_prov_generate_keys
 .text.nrf_mesh_prov_listen
                0x00020d6c       0x26 examples/light_switch/server/CMakeFiles/light_switch_server_nrf51422_xxAC_s130_2.0.1.dir/__/__/__/mesh/prov/src/nrf_mesh_prov.c.obj
                0x00020d6c                nrf_mesh_prov_listen
 *fill*         0x00020d92        0x2 
 .text.nrf_mesh_prov_auth_data_provide
                0x00020d94       0x1c examples/light_switch/server/CMakeFiles/light_switch_server_nrf51422_xxAC_s130_2.0.1.dir/__/__/__/mesh/prov/src/nrf_mesh_prov.c.obj
                0x00020d94                nrf_mesh_prov_auth_data_provide
 .text.send_data
                0x00020db0       0x48 examples/light_switch/server/CMakeFiles/light_switch_server_nrf51422_xxAC_s130_2.0.1.dir/__/__/__/mesh/prov/src/provisioning.c.obj
 .text.prov_packet_length_valid
                0x00020df8       0x20 examples/light_switch/server/CMakeFiles/light_switch_server_nrf51422_xxAC_s130_2.0.1.dir/__/__/__/mesh/prov/src/provisioning.c.obj
                0x00020df8                prov_packet_length_valid
 .text.prov_init
                0x00020e18       0x34 examples/light_switch/server/CMakeFiles/light_switch_server_nrf51422_xxAC_s130_2.0.1.dir/__/__/__/mesh/prov/src/provisioning.c.obj
                0x00020e18                prov_init
 .text.prov_listen_start
                0x00020e4c       0x14 examples/light_switch/server/CMakeFiles/light_switch_server_nrf51422_xxAC_s130_2.0.1.dir/__/__/__/mesh/prov/src/provisioning.c.obj
                0x00020e4c                prov_listen_start
 .text.prov_link_close
                0x00020e60        0xe examples/light_switch/server/CMakeFiles/light_switch_server_nrf51422_xxAC_s130_2.0.1.dir/__/__/__/mesh/prov/src/provisioning.c.obj
                0x00020e60                prov_link_close
 .text.prov_tx_capabilities
                0x00020e6e       0x1c examples/light_switch/server/CMakeFiles/light_switch_server_nrf51422_xxAC_s130_2.0.1.dir/__/__/__/mesh/prov/src/provisioning.c.obj
                0x00020e6e                prov_tx_capabilities
 .text.prov_tx_public_key
                0x00020e8a       0x24 examples/light_switch/server/CMakeFiles/light_switch_server_nrf51422_xxAC_s130_2.0.1.dir/__/__/__/mesh/prov/src/provisioning.c.obj
                0x00020e8a                prov_tx_public_key
 .text.prov_tx_input_complete
                0x00020eae       0x10 examples/light_switch/server/CMakeFiles/light_switch_server_nrf51422_xxAC_s130_2.0.1.dir/__/__/__/mesh/prov/src/provisioning.c.obj
                0x00020eae                prov_tx_input_complete
 .text.prov_tx_confirmation
                0x00020ebe       0x24 examples/light_switch/server/CMakeFiles/light_switch_server_nrf51422_xxAC_s130_2.0.1.dir/__/__/__/mesh/prov/src/provisioning.c.obj
                0x00020ebe                prov_tx_confirmation
 .text.prov_tx_random
                0x00020ee2       0x24 examples/light_switch/server/CMakeFiles/light_switch_server_nrf51422_xxAC_s130_2.0.1.dir/__/__/__/mesh/prov/src/provisioning.c.obj
                0x00020ee2                prov_tx_random
 .text.prov_tx_complete
                0x00020f06       0x10 examples/light_switch/server/CMakeFiles/light_switch_server_nrf51422_xxAC_s130_2.0.1.dir/__/__/__/mesh/prov/src/provisioning.c.obj
                0x00020f06                prov_tx_complete
 .text.prov_tx_failed
                0x00020f16       0x14 examples/light_switch/server/CMakeFiles/light_switch_server_nrf51422_xxAC_s130_2.0.1.dir/__/__/__/mesh/prov/src/provisioning.c.obj
                0x00020f16                prov_tx_failed
 .text.prov_cb_link_opened
                0x00020f2a        0xe examples/light_switch/server/CMakeFiles/light_switch_server_nrf51422_xxAC_s130_2.0.1.dir/__/__/__/mesh/prov/src/provisioning.c.obj
                0x00020f2a                prov_cb_link_opened
 .text.prov_cb_link_closed
                0x00020f38        0xe examples/light_switch/server/CMakeFiles/light_switch_server_nrf51422_xxAC_s130_2.0.1.dir/__/__/__/mesh/prov/src/provisioning.c.obj
                0x00020f38                prov_cb_link_closed
 *fill*         0x00020f46        0x2 
 .text.prov_cb_pkt_in
                0x00020f48       0x80 examples/light_switch/server/CMakeFiles/light_switch_server_nrf51422_xxAC_s130_2.0.1.dir/__/__/__/mesh/prov/src/provisioning.c.obj
                0x00020f48                prov_cb_pkt_in
 .text.prov_cb_ack_in
                0x00020fc8        0xe examples/light_switch/server/CMakeFiles/light_switch_server_nrf51422_xxAC_s130_2.0.1.dir/__/__/__/mesh/prov/src/provisioning.c.obj
                0x00020fc8                prov_cb_ack_in
 .text.prov_beacon_unprov_build
                0x00020fd6       0x52 examples/light_switch/server/CMakeFiles/light_switch_server_nrf51422_xxAC_s130_2.0.1.dir/__/__/__/mesh/prov/src/prov_beacon.c.obj
                0x00020fd6                prov_beacon_unprov_build
 .text.prov_beacon_unprov_packet_in
                0x00021028       0xb8 examples/light_switch/server/CMakeFiles/light_switch_server_nrf51422_xxAC_s130_2.0.1.dir/__/__/__/mesh/prov/src/prov_beacon.c.obj
                0x00021028                prov_beacon_unprov_packet_in
 .text.oob_gen_alphanumeric
                0x000210e0       0x34 examples/light_switch/server/CMakeFiles/light_switch_server_nrf51422_xxAC_s130_2.0.1.dir/__/__/__/mesh/prov/src/prov_utils.c.obj
 .text.oob_gen_numeric
                0x00021114       0x30 examples/light_switch/server/CMakeFiles/light_switch_server_nrf51422_xxAC_s130_2.0.1.dir/__/__/__/mesh/prov/src/prov_utils.c.obj
 .text.prov_utils_opt_set
                0x00021144       0x20 examples/light_switch/server/CMakeFiles/light_switch_server_nrf51422_xxAC_s130_2.0.1.dir/__/__/__/mesh/prov/src/prov_utils.c.obj
                0x00021144                prov_utils_opt_set
 .text.prov_utils_opt_get
                0x00021164       0x1c examples/light_switch/server/CMakeFiles/light_switch_server_nrf51422_xxAC_s130_2.0.1.dir/__/__/__/mesh/prov/src/prov_utils.c.obj
                0x00021164                prov_utils_opt_get
 .text.prov_utils_use_ecdh_offloading
                0x00021180        0xc examples/light_switch/server/CMakeFiles/light_switch_server_nrf51422_xxAC_s130_2.0.1.dir/__/__/__/mesh/prov/src/prov_utils.c.obj
                0x00021180                prov_utils_use_ecdh_offloading
 .text.prov_utils_authentication_values_derive
                0x0002118c       0xc0 examples/light_switch/server/CMakeFiles/light_switch_server_nrf51422_xxAC_s130_2.0.1.dir/__/__/__/mesh/prov/src/prov_utils.c.obj
                0x0002118c                prov_utils_authentication_values_derive
 .text.prov_utils_keys_generate
                0x0002124c       0x20 examples/light_switch/server/CMakeFiles/light_switch_server_nrf51422_xxAC_s130_2.0.1.dir/__/__/__/mesh/prov/src/prov_utils.c.obj
                0x0002124c                prov_utils_keys_generate
 .text.prov_utils_derive_keys
                0x0002126c       0xc0 examples/light_switch/server/CMakeFiles/light_switch_server_nrf51422_xxAC_s130_2.0.1.dir/__/__/__/mesh/prov/src/prov_utils.c.obj
                0x0002126c                prov_utils_derive_keys
 .text.prov_utils_calculate_shared_secret
                0x0002132c       0x3e examples/light_switch/server/CMakeFiles/light_switch_server_nrf51422_xxAC_s130_2.0.1.dir/__/__/__/mesh/prov/src/prov_utils.c.obj
                0x0002132c                prov_utils_calculate_shared_secret
 *fill*         0x0002136a        0x2 
 .text.prov_utils_generate_oob_data
                0x0002136c       0x9c examples/light_switch/server/CMakeFiles/light_switch_server_nrf51422_xxAC_s130_2.0.1.dir/__/__/__/mesh/prov/src/prov_utils.c.obj
                0x0002136c                prov_utils_generate_oob_data
 .text.prov_utils_confirmation_check
                0x00021408       0x70 examples/light_switch/server/CMakeFiles/light_switch_server_nrf51422_xxAC_s130_2.0.1.dir/__/__/__/mesh/prov/src/prov_utils.c.obj
                0x00021408                prov_utils_confirmation_check
 .text.remove_active_bearer
                0x00021478       0x68 examples/light_switch/server/CMakeFiles/light_switch_server_nrf51422_xxAC_s130_2.0.1.dir/__/__/__/mesh/prov/src/prov_bearer_adv.c.obj
 .text.prov_bearer_adv_listen_stop
                0x000214e0       0x38 examples/light_switch/server/CMakeFiles/light_switch_server_nrf51422_xxAC_s130_2.0.1.dir/__/__/__/mesh/prov/src/prov_bearer_adv.c.obj
 .text.close_link
                0x00021518       0x6c examples/light_switch/server/CMakeFiles/light_switch_server_nrf51422_xxAC_s130_2.0.1.dir/__/__/__/mesh/prov/src/prov_bearer_adv.c.obj
 .text.send_packet
                0x00021584       0x70 examples/light_switch/server/CMakeFiles/light_switch_server_nrf51422_xxAC_s130_2.0.1.dir/__/__/__/mesh/prov/src/prov_bearer_adv.c.obj
 .text.prov_buffer_tx
                0x000215f4      0x168 examples/light_switch/server/CMakeFiles/light_switch_server_nrf51422_xxAC_s130_2.0.1.dir/__/__/__/mesh/prov/src/prov_bearer_adv.c.obj
 .text.send_link_close
                0x0002175c       0x28 examples/light_switch/server/CMakeFiles/light_switch_server_nrf51422_xxAC_s130_2.0.1.dir/__/__/__/mesh/prov/src/prov_bearer_adv.c.obj
 .text.prov_bearer_adv_link_close
                0x00021784       0x78 examples/light_switch/server/CMakeFiles/light_switch_server_nrf51422_xxAC_s130_2.0.1.dir/__/__/__/mesh/prov/src/prov_bearer_adv.c.obj
 .text.send_transaction_ack
                0x000217fc       0x24 examples/light_switch/server/CMakeFiles/light_switch_server_nrf51422_xxAC_s130_2.0.1.dir/__/__/__/mesh/prov/src/prov_bearer_adv.c.obj
 .text.send_link_ack
                0x00021820       0x26 examples/light_switch/server/CMakeFiles/light_switch_server_nrf51422_xxAC_s130_2.0.1.dir/__/__/__/mesh/prov/src/prov_bearer_adv.c.obj
 .text.link_timeout_cb
                0x00021846        0xc examples/light_switch/server/CMakeFiles/light_switch_server_nrf51422_xxAC_s130_2.0.1.dir/__/__/__/mesh/prov/src/prov_bearer_adv.c.obj
 .text.reset_timeout_timer
                0x00021852       0x1a examples/light_switch/server/CMakeFiles/light_switch_server_nrf51422_xxAC_s130_2.0.1.dir/__/__/__/mesh/prov/src/prov_bearer_adv.c.obj
 .text.tx_complete_cb
                0x0002186c       0x24 examples/light_switch/server/CMakeFiles/light_switch_server_nrf51422_xxAC_s130_2.0.1.dir/__/__/__/mesh/prov/src/prov_bearer_adv.c.obj
 .text.tx_retry_cb
                0x00021890       0xd4 examples/light_switch/server/CMakeFiles/light_switch_server_nrf51422_xxAC_s130_2.0.1.dir/__/__/__/mesh/prov/src/prov_bearer_adv.c.obj
 .text.add_active_bearer
                0x00021964       0x88 examples/light_switch/server/CMakeFiles/light_switch_server_nrf51422_xxAC_s130_2.0.1.dir/__/__/__/mesh/prov/src/prov_bearer_adv.c.obj
 .text.prov_bearer_adv_link_open
                0x000219ec       0xf0 examples/light_switch/server/CMakeFiles/light_switch_server_nrf51422_xxAC_s130_2.0.1.dir/__/__/__/mesh/prov/src/prov_bearer_adv.c.obj
 .text.async_process
                0x00021adc       0x58 examples/light_switch/server/CMakeFiles/light_switch_server_nrf51422_xxAC_s130_2.0.1.dir/__/__/__/mesh/prov/src/prov_bearer_adv.c.obj
 .text.prov_bearer_adv_listen
                0x00021b34       0xf4 examples/light_switch/server/CMakeFiles/light_switch_server_nrf51422_xxAC_s130_2.0.1.dir/__/__/__/mesh/prov/src/prov_bearer_adv.c.obj
 .text.calculate_3GPP_CRC
                0x00021c28       0x24 examples/light_switch/server/CMakeFiles/light_switch_server_nrf51422_xxAC_s130_2.0.1.dir/__/__/__/mesh/prov/src/prov_bearer_adv.c.obj
                0x00021c28                calculate_3GPP_CRC
 .text.prov_bearer_adv_tx
                0x00021c4c       0xac examples/light_switch/server/CMakeFiles/light_switch_server_nrf51422_xxAC_s130_2.0.1.dir/__/__/__/mesh/prov/src/prov_bearer_adv.c.obj
 .text.prov_buffer_rx
                0x00021cf8       0x74 examples/light_switch/server/CMakeFiles/light_switch_server_nrf51422_xxAC_s130_2.0.1.dir/__/__/__/mesh/prov/src/prov_bearer_adv.c.obj
 .text.prov_bearer_adv_interface_get
                0x00021d6c       0x24 examples/light_switch/server/CMakeFiles/light_switch_server_nrf51422_xxAC_s130_2.0.1.dir/__/__/__/mesh/prov/src/prov_bearer_adv.c.obj
                0x00021d6c                prov_bearer_adv_interface_get
 .text.prov_bearer_adv_packet_in
                0x00021d90      0x898 examples/light_switch/server/CMakeFiles/light_switch_server_nrf51422_xxAC_s130_2.0.1.dir/__/__/__/mesh/prov/src/prov_bearer_adv.c.obj
                0x00021d90                prov_bearer_adv_packet_in
 .text.sd_softdevice_enable
                0x00022628        0x4 examples/light_switch/server/CMakeFiles/light_switch_server_nrf51422_xxAC_s130_2.0.1.dir/__/__/__/mesh/access/src/nrf_mesh_node_config.c.obj
 .text.sd_softdevice_is_enabled
                0x0002262c        0x4 examples/light_switch/server/CMakeFiles/light_switch_server_nrf51422_xxAC_s130_2.0.1.dir/__/__/__/mesh/access/src/nrf_mesh_node_config.c.obj
 .text.default_softdevice_assertion_handler
                0x00022630       0x84 examples/light_switch/server/CMakeFiles/light_switch_server_nrf51422_xxAC_s130_2.0.1.dir/__/__/__/mesh/access/src/nrf_mesh_node_config.c.obj
 .text.start_provisionee
                0x000226b4       0x1c examples/light_switch/server/CMakeFiles/light_switch_server_nrf51422_xxAC_s130_2.0.1.dir/__/__/__/mesh/access/src/nrf_mesh_node_config.c.obj
 .text.mesh_evt_handler
                0x000226d0      0x100 examples/light_switch/server/CMakeFiles/light_switch_server_nrf51422_xxAC_s130_2.0.1.dir/__/__/__/mesh/access/src/nrf_mesh_node_config.c.obj
 .text.default_mesh_assertion_handler
                0x000227d0       0x78 examples/light_switch/server/CMakeFiles/light_switch_server_nrf51422_xxAC_s130_2.0.1.dir/__/__/__/mesh/access/src/nrf_mesh_node_config.c.obj
                0x000227d0                default_mesh_assertion_handler
 .text.softdevice_setup
                0x00022848       0x4c examples/light_switch/server/CMakeFiles/light_switch_server_nrf51422_xxAC_s130_2.0.1.dir/__/__/__/mesh/access/src/nrf_mesh_node_config.c.obj
                0x00022848                softdevice_setup
 .text.nrf_mesh_node_config
                0x00022894      0x124 examples/light_switch/server/CMakeFiles/light_switch_server_nrf51422_xxAC_s130_2.0.1.dir/__/__/__/mesh/access/src/nrf_mesh_node_config.c.obj
                0x00022894                nrf_mesh_node_config
 .text.SystemInit
                0x000229b8       0xe0 examples/light_switch/server/CMakeFiles/light_switch_server_nrf51422_xxAC_s130_2.0.1.dir/__/__/__/external/nRF5_SDK_14.0.0_3bcc1f7/components/toolchain/system_nrf51.c.obj
                0x000229b8                SystemInit
 .text          0x00022a98       0x4c examples/light_switch/server/CMakeFiles/light_switch_server_nrf51422_xxAC_s130_2.0.1.dir/__/__/__/external/nRF5_SDK_14.0.0_3bcc1f7/components/toolchain/gcc/gcc_startup_nrf51.S.obj
                0x00022a98                Reset_Handler
                0x00022ad8                NMI_Handler
                0x00022adc                SVC_Handler
                0x00022ade                PendSV_Handler
                0x00022ae0                SysTick_Handler
                0x00022ae2                GPIOTE_IRQHandler
                0x00022ae2                RTC0_IRQHandler
                0x00022ae2                POWER_CLOCK_IRQHandler
                0x00022ae2                SPI0_TWI0_IRQHandler
                0x00022ae2                LPCOMP_IRQHandler
                0x00022ae2                SWI4_IRQHandler
                0x00022ae2                TEMP_IRQHandler
                0x00022ae2                UART0_IRQHandler
                0x00022ae2                SWI5_IRQHandler
                0x00022ae2                TIMER0_IRQHandler
                0x00022ae2                RADIO_IRQHandler
                0x00022ae2                SWI0_IRQHandler
                0x00022ae2                TIMER1_IRQHandler
                0x00022ae2                ECB_IRQHandler
                0x00022ae2                Default_Handler
                0x00022ae2                ADC_IRQHandler
                0x00022ae2                SWI3_IRQHandler
                0x00022ae2                CCM_AAR_IRQHandler
                0x00022ae2                WDT_IRQHandler
                0x00022ae2                TIMER2_IRQHandler
                0x00022ae2                RNG_IRQHandler
                0x00022ae2                SPI1_TWI1_IRQHandler
                0x00022ae2                RTC1_IRQHandler
                0x00022ae2                SWI1_IRQHandler
 .text.nrf_mesh_configure_device_uuid_reset
                0x00022ae4       0x28 mesh/core/libmesh_core_nrf51422_xxAC.a(nrf_mesh_configure.c.obj)
                0x00022ae4                nrf_mesh_configure_device_uuid_reset
 .text.nrf_mesh_configure_device_uuid_get
                0x00022b0c        0x8 mesh/core/libmesh_core_nrf51422_xxAC.a(nrf_mesh_configure.c.obj)
                0x00022b0c                nrf_mesh_configure_device_uuid_get
 .text.event_handle
                0x00022b14       0x34 mesh/core/libmesh_core_nrf51422_xxAC.a(event.c.obj)
                0x00022b14                event_handle
 .text.event_handler_add
                0x00022b48       0x7c mesh/core/libmesh_core_nrf51422_xxAC.a(event.c.obj)
                0x00022b48                event_handler_add
 .text.event_handler_remove
                0x00022bc4       0x58 mesh/core/libmesh_core_nrf51422_xxAC.a(event.c.obj)
                0x00022bc4                event_handler_remove
 .text.flash_mem_available
                0x00022c1c       0x20 mesh/core/libmesh_core_nrf51422_xxAC.a(net_state.c.obj)
 .text.flash_store_iv_index
                0x00022c3c       0x34 mesh/core/libmesh_core_nrf51422_xxAC.a(net_state.c.obj)
 .text.seqnum_block_allocate
                0x00022c70       0x50 mesh/core/libmesh_core_nrf51422_xxAC.a(net_state.c.obj)
 .text.flash_write_complete
                0x00022cc0       0x80 mesh/core/libmesh_core_nrf51422_xxAC.a(net_state.c.obj)
 .text.net_state_recover_from_flash
                0x00022d40       0x8c mesh/core/libmesh_core_nrf51422_xxAC.a(net_state.c.obj)
                0x00022d40                net_state_recover_from_flash
 .text.net_state_flash_area_get
                0x00022dcc       0x10 mesh/core/libmesh_core_nrf51422_xxAC.a(net_state.c.obj)
                0x00022dcc                net_state_flash_area_get
 .text.init_flash_storage
                0x00022ddc       0x40 mesh/core/libmesh_core_nrf51422_xxAC.a(net_state.c.obj)
 .text.net_state_init
                0x00022e1c       0x48 mesh/core/libmesh_core_nrf51422_xxAC.a(net_state.c.obj)
                0x00022e1c                net_state_init
 .text.net_state_iv_update_start
                0x00022e64       0x64 mesh/core/libmesh_core_nrf51422_xxAC.a(net_state.c.obj)
                0x00022e64                net_state_iv_update_start
 .text.iv_update_trigger_if_pending
                0x00022ec8       0x94 mesh/core/libmesh_core_nrf51422_xxAC.a(net_state.c.obj)
 .text.iv_update_timer_handler
                0x00022f5c       0x80 mesh/core/libmesh_core_nrf51422_xxAC.a(net_state.c.obj)
 .text.net_state_seqnum_alloc
                0x00022fdc       0x68 mesh/core/libmesh_core_nrf51422_xxAC.a(net_state.c.obj)
                0x00022fdc                net_state_seqnum_alloc
 .text.net_state_iv_index_lock
                0x00023044       0x4c mesh/core/libmesh_core_nrf51422_xxAC.a(net_state.c.obj)
                0x00023044                net_state_iv_index_lock
 .text.net_state_beacon_received
                0x00023090       0x98 mesh/core/libmesh_core_nrf51422_xxAC.a(net_state.c.obj)
                0x00023090                net_state_beacon_received
 .text.net_state_beacon_iv_index_get
                0x00023128        0xc mesh/core/libmesh_core_nrf51422_xxAC.a(net_state.c.obj)
                0x00023128                net_state_beacon_iv_index_get
 .text.net_state_tx_iv_index_get
                0x00023134       0x14 mesh/core/libmesh_core_nrf51422_xxAC.a(net_state.c.obj)
                0x00023134                net_state_tx_iv_index_get
 .text.net_state_rx_iv_index_get
                0x00023148       0x14 mesh/core/libmesh_core_nrf51422_xxAC.a(net_state.c.obj)
                0x00023148                net_state_rx_iv_index_get
 .text.net_state_iv_update_get
                0x0002315c        0xc mesh/core/libmesh_core_nrf51422_xxAC.a(net_state.c.obj)
                0x0002315c                net_state_iv_update_get
 .text.nrf_mesh_address_type_get
                0x00023168       0x14 mesh/core/libmesh_core_nrf51422_xxAC.a(nrf_mesh_utils.c.obj)
                0x00023168                nrf_mesh_address_type_get
 .text.sd_softdevice_is_enabled
                0x0002317c        0x4 mesh/core/libmesh_core_nrf51422_xxAC.a(nrf_mesh.c.obj)
 .text.nrf_mesh_init
                0x00023180       0xb8 mesh/core/libmesh_core_nrf51422_xxAC.a(nrf_mesh.c.obj)
                0x00023180                nrf_mesh_init
 .text.nrf_mesh_enable
                0x00023238       0x4c mesh/core/libmesh_core_nrf51422_xxAC.a(nrf_mesh.c.obj)
                0x00023238                nrf_mesh_enable
 .text.nrf_mesh_packet_send
                0x00023284        0x8 mesh/core/libmesh_core_nrf51422_xxAC.a(nrf_mesh.c.obj)
                0x00023284                nrf_mesh_packet_send
 .text.nrf_mesh_process
                0x0002328c      0x1c4 mesh/core/libmesh_core_nrf51422_xxAC.a(nrf_mesh.c.obj)
                0x0002328c                nrf_mesh_process
 .text.nrf_mesh_on_ble_evt
                0x00023450        0x4 mesh/core/libmesh_core_nrf51422_xxAC.a(nrf_mesh.c.obj)
                0x00023450                nrf_mesh_on_ble_evt
 .text.nrf_mesh_on_sd_evt
                0x00023454        0xa mesh/core/libmesh_core_nrf51422_xxAC.a(nrf_mesh.c.obj)
                0x00023454                nrf_mesh_on_sd_evt
 .text.nrf_mesh_evt_handler_add
                0x0002345e        0x8 mesh/core/libmesh_core_nrf51422_xxAC.a(nrf_mesh.c.obj)
                0x0002345e                nrf_mesh_evt_handler_add
 .text.nrf_mesh_evt_handler_remove
                0x00023466        0x8 mesh/core/libmesh_core_nrf51422_xxAC.a(nrf_mesh.c.obj)
                0x00023466                nrf_mesh_evt_handler_remove
 *fill*         0x0002346e        0x2 
 .text.hal_lfclk_ppm_get
                0x00023470       0x14 mesh/core/libmesh_core_nrf51422_xxAC.a(hal.c.obj)
                0x00023470                hal_lfclk_ppm_get
 .text.add_to_add_list
                0x00023484       0x4c mesh/core/libmesh_core_nrf51422_xxAC.a(timer_scheduler.c.obj)
 .text.process_dirty_events
                0x000234d0       0x64 mesh/core/libmesh_core_nrf51422_xxAC.a(timer_scheduler.c.obj)
 .text.timer_cb
                0x00023534       0x10 mesh/core/libmesh_core_nrf51422_xxAC.a(timer_scheduler.c.obj)
 .text.add_evt.constprop.0
                0x00023544       0x70 mesh/core/libmesh_core_nrf51422_xxAC.a(timer_scheduler.c.obj)
 .text.process_add_list
                0x000235b4       0x4c mesh/core/libmesh_core_nrf51422_xxAC.a(timer_scheduler.c.obj)
 .text.flag_event_cb
                0x00023600      0x104 mesh/core/libmesh_core_nrf51422_xxAC.a(timer_scheduler.c.obj)
 .text.timer_sch_init
                0x00023704       0x24 mesh/core/libmesh_core_nrf51422_xxAC.a(timer_scheduler.c.obj)
                0x00023704                timer_sch_init
 .text.timer_sch_schedule
                0x00023728       0x54 mesh/core/libmesh_core_nrf51422_xxAC.a(timer_scheduler.c.obj)
                0x00023728                timer_sch_schedule
 .text.timer_sch_abort
                0x0002377c       0x68 mesh/core/libmesh_core_nrf51422_xxAC.a(timer_scheduler.c.obj)
                0x0002377c                timer_sch_abort
 .text.timer_sch_reschedule
                0x000237e4       0x78 mesh/core/libmesh_core_nrf51422_xxAC.a(timer_scheduler.c.obj)
                0x000237e4                timer_sch_reschedule
 .text.timer_mut_unlock
                0x0002385c       0x10 mesh/core/libmesh_core_nrf51422_xxAC.a(timer.c.obj)
 .text.timer_order_cb
                0x0002386c       0x90 mesh/core/libmesh_core_nrf51422_xxAC.a(timer.c.obj)
                0x0002386c                timer_order_cb
 .text.timer_now
                0x000238fc       0x54 mesh/core/libmesh_core_nrf51422_xxAC.a(timer.c.obj)
                0x000238fc                timer_now
 .text.timer_event_handler
                0x00023950       0x94 mesh/core/libmesh_core_nrf51422_xxAC.a(timer.c.obj)
                0x00023950                timer_event_handler
 .text.timer_on_ts_begin
                0x000239e4      0x104 mesh/core/libmesh_core_nrf51422_xxAC.a(timer.c.obj)
                0x000239e4                timer_on_ts_begin
 .text.timer_on_ts_end
                0x00023ae8       0x64 mesh/core/libmesh_core_nrf51422_xxAC.a(timer.c.obj)
                0x00023ae8                timer_on_ts_end
 .text.timer_cb
                0x00023b4c       0x10 mesh/core/libmesh_core_nrf51422_xxAC.a(ticker.c.obj)
 .text.ticker_init
                0x00023b5c       0x38 mesh/core/libmesh_core_nrf51422_xxAC.a(ticker.c.obj)
                0x00023b5c                ticker_init
 .text.sd_rand_application_bytes_available_get
                0x00023b94        0x4 mesh/core/libmesh_core_nrf51422_xxAC.a(rand.c.obj)
 .text.sd_rand_application_vector_get
                0x00023b98        0x4 mesh/core/libmesh_core_nrf51422_xxAC.a(rand.c.obj)
 .text.rand_prng_get
                0x00023b9c       0x2e mesh/core/libmesh_core_nrf51422_xxAC.a(rand.c.obj)
                0x00023b9c                rand_prng_get
 *fill*         0x00023bca        0x2 
 .text.rand_hw_rng_get
                0x00023bcc       0x4c mesh/core/libmesh_core_nrf51422_xxAC.a(rand.c.obj)
                0x00023bcc                rand_hw_rng_get
 .text.rand_prng_seed
                0x00023c18       0x30 mesh/core/libmesh_core_nrf51422_xxAC.a(rand.c.obj)
                0x00023c18                rand_prng_seed
 .text.nrf_mesh_opt_set
                0x00023c48       0x34 mesh/core/libmesh_core_nrf51422_xxAC.a(nrf_mesh_opt.c.obj)
                0x00023c48                nrf_mesh_opt_set
 .text.nrf_mesh_opt_get
                0x00023c7c       0x34 mesh/core/libmesh_core_nrf51422_xxAC.a(nrf_mesh_opt.c.obj)
                0x00023c7c                nrf_mesh_opt_get
 .text.sd_radio_session_open
                0x00023cb0        0x4 mesh/core/libmesh_core_nrf51422_xxAC.a(timeslot.c.obj)
 .text.sd_radio_session_close
                0x00023cb4        0x4 mesh/core/libmesh_core_nrf51422_xxAC.a(timeslot.c.obj)
 .text.sd_radio_request
                0x00023cb8        0x4 mesh/core/libmesh_core_nrf51422_xxAC.a(timeslot.c.obj)
 .text.end_timer_handler
                0x00023cbc       0x2c mesh/core/libmesh_core_nrf51422_xxAC.a(timeslot.c.obj)
 .text.get_end_time.constprop.10
                0x00023ce8       0x28 mesh/core/libmesh_core_nrf51422_xxAC.a(timeslot.c.obj)
 .text.handle_extend_end.constprop.3
                0x00023d10       0xc4 mesh/core/libmesh_core_nrf51422_xxAC.a(timeslot.c.obj)
 .text.radio_signal_callback
                0x00023dd4      0x160 mesh/core/libmesh_core_nrf51422_xxAC.a(timeslot.c.obj)
 .text.timeslot_sd_event_handler
                0x00023f34       0x48 mesh/core/libmesh_core_nrf51422_xxAC.a(timeslot.c.obj)
                0x00023f34                timeslot_sd_event_handler
 .text.timeslot_init
                0x00023f7c       0x4c mesh/core/libmesh_core_nrf51422_xxAC.a(timeslot.c.obj)
                0x00023f7c                timeslot_init
 .text.timeslot_start
                0x00023fc8       0x1c mesh/core/libmesh_core_nrf51422_xxAC.a(timeslot.c.obj)
                0x00023fc8                timeslot_start
 .text.timeslot_end_is_pending
                0x00023fe4       0x2c mesh/core/libmesh_core_nrf51422_xxAC.a(timeslot.c.obj)
                0x00023fe4                timeslot_end_is_pending
 .text.timeslot_start_time_get
                0x00024010        0xc mesh/core/libmesh_core_nrf51422_xxAC.a(timeslot.c.obj)
                0x00024010                timeslot_start_time_get
 .text.timeslot_remaining_time_get
                0x0002401c       0x24 mesh/core/libmesh_core_nrf51422_xxAC.a(timeslot.c.obj)
                0x0002401c                timeslot_remaining_time_get
 .text.timeslot_is_in_cb
                0x00024040        0xc mesh/core/libmesh_core_nrf51422_xxAC.a(timeslot.c.obj)
                0x00024040                timeslot_is_in_cb
 .text.timeslot_trigger
                0x0002404c       0x28 mesh/core/libmesh_core_nrf51422_xxAC.a(timeslot.c.obj)
                0x0002404c                timeslot_trigger
 .text.timeslot_stop
                0x00024074       0x14 mesh/core/libmesh_core_nrf51422_xxAC.a(timeslot.c.obj)
                0x00024074                timeslot_stop
 .text.timeslot_state_lock
                0x00024088       0x2c mesh/core/libmesh_core_nrf51422_xxAC.a(timeslot.c.obj)
                0x00024088                timeslot_state_lock
 .text.evt_push
                0x000240b4       0x24 mesh/core/libmesh_core_nrf51422_xxAC.a(bearer_event.c.obj)
 .text.QDEC_IRQHandler
                0x000240d8       0xc4 mesh/core/libmesh_core_nrf51422_xxAC.a(bearer_event.c.obj)
                0x000240d8                QDEC_IRQHandler
 .text.bearer_event_init
                0x0002419c       0x48 mesh/core/libmesh_core_nrf51422_xxAC.a(bearer_event.c.obj)
                0x0002419c                bearer_event_init
 .text.bearer_event_timer_post
                0x000241e4       0x34 mesh/core/libmesh_core_nrf51422_xxAC.a(bearer_event.c.obj)
                0x000241e4                bearer_event_timer_post
 .text.bearer_event_critical_section_begin
                0x00024218       0x48 mesh/core/libmesh_core_nrf51422_xxAC.a(bearer_event.c.obj)
                0x00024218                bearer_event_critical_section_begin
 .text.bearer_event_critical_section_end
                0x00024260       0x48 mesh/core/libmesh_core_nrf51422_xxAC.a(bearer_event.c.obj)
                0x00024260                bearer_event_critical_section_end
 .text.bearer_event_flag_add
                0x000242a8       0x54 mesh/core/libmesh_core_nrf51422_xxAC.a(bearer_event.c.obj)
                0x000242a8                bearer_event_flag_add
 .text.bearer_event_flag_set
                0x000242fc       0x58 mesh/core/libmesh_core_nrf51422_xxAC.a(bearer_event.c.obj)
                0x000242fc                bearer_event_flag_set
 .text.bearer_event_sequential_add
                0x00024354       0x4c mesh/core/libmesh_core_nrf51422_xxAC.a(bearer_event.c.obj)
                0x00024354                bearer_event_sequential_add
 .text.bearer_event_sequential_post
                0x000243a0       0x68 mesh/core/libmesh_core_nrf51422_xxAC.a(bearer_event.c.obj)
                0x000243a0                bearer_event_sequential_post
 .text.bearer_event_sequential_pending
                0x00024408       0x20 mesh/core/libmesh_core_nrf51422_xxAC.a(bearer_event.c.obj)
                0x00024408                bearer_event_sequential_pending
 .text.enc_aes_encrypt
                0x00024428        0x8 mesh/core/libmesh_core_nrf51422_xxAC.a(enc.c.obj)
                0x00024428                enc_aes_encrypt
 .text.enc_aes_cmac
                0x00024430        0x8 mesh/core/libmesh_core_nrf51422_xxAC.a(enc.c.obj)
                0x00024430                enc_aes_cmac
 .text.enc_aes_ccm_encrypt
                0x00024438        0x8 mesh/core/libmesh_core_nrf51422_xxAC.a(enc.c.obj)
                0x00024438                enc_aes_ccm_encrypt
 .text.enc_aes_ccm_decrypt
                0x00024440        0x8 mesh/core/libmesh_core_nrf51422_xxAC.a(enc.c.obj)
                0x00024440                enc_aes_ccm_decrypt
 .text.enc_nonce_generate
                0x00024448       0xd8 mesh/core/libmesh_core_nrf51422_xxAC.a(enc.c.obj)
                0x00024448                enc_nonce_generate
 .text.enc_s1   0x00024520       0x3c mesh/core/libmesh_core_nrf51422_xxAC.a(enc.c.obj)
                0x00024520                enc_s1
 .text.enc_k1   0x0002455c       0x58 mesh/core/libmesh_core_nrf51422_xxAC.a(enc.c.obj)
                0x0002455c                enc_k1
 .text.enc_k2   0x000245b4      0x110 mesh/core/libmesh_core_nrf51422_xxAC.a(enc.c.obj)
                0x000245b4                enc_k2
 .text.enc_k3   0x000246c4       0x70 mesh/core/libmesh_core_nrf51422_xxAC.a(enc.c.obj)
                0x000246c4                enc_k3
 .text.enc_k4   0x00024734       0x74 mesh/core/libmesh_core_nrf51422_xxAC.a(enc.c.obj)
                0x00024734                enc_k4
 .text.header_transfuscate
                0x000247a8       0x58 mesh/core/libmesh_core_nrf51422_xxAC.a(network.c.obj)
 .text.allocate_packet
                0x00024800      0x140 mesh/core/libmesh_core_nrf51422_xxAC.a(network.c.obj)
 .text.network_init
                0x00024940       0x2c mesh/core/libmesh_core_nrf51422_xxAC.a(network.c.obj)
                0x00024940                network_init
 .text.network_opt_set
                0x0002496c       0x50 mesh/core/libmesh_core_nrf51422_xxAC.a(network.c.obj)
                0x0002496c                network_opt_set
 .text.network_opt_get
                0x000249bc       0x48 mesh/core/libmesh_core_nrf51422_xxAC.a(network.c.obj)
                0x000249bc                network_opt_get
 .text.network_packet_alloc
                0x00024a04       0x58 mesh/core/libmesh_core_nrf51422_xxAC.a(network.c.obj)
                0x00024a04                network_packet_alloc
 .text.network_packet_send
                0x00024a5c      0x154 mesh/core/libmesh_core_nrf51422_xxAC.a(network.c.obj)
                0x00024a5c                network_packet_send
 .text.network_packet_in
                0x00024bb0      0x484 mesh/core/libmesh_core_nrf51422_xxAC.a(network.c.obj)
                0x00024bb0                network_packet_in
 .text.nrf_mesh_keygen_aid
                0x00025034       0x16 mesh/core/libmesh_core_nrf51422_xxAC.a(nrf_mesh_keygen.c.obj)
                0x00025034                nrf_mesh_keygen_aid
 .text.nrf_mesh_keygen_network_secmat
                0x0002504a       0x20 mesh/core/libmesh_core_nrf51422_xxAC.a(nrf_mesh_keygen.c.obj)
                0x0002504a                nrf_mesh_keygen_network_secmat
 *fill*         0x0002506a        0x2 
 .text.nrf_mesh_keygen_beacon_secmat
                0x0002506c       0x54 mesh/core/libmesh_core_nrf51422_xxAC.a(nrf_mesh_keygen.c.obj)
                0x0002506c                nrf_mesh_keygen_beacon_secmat
 .text.nrf_mesh_keygen_virtual_address
                0x000250c0       0x50 mesh/core/libmesh_core_nrf51422_xxAC.a(nrf_mesh_keygen.c.obj)
                0x000250c0                nrf_mesh_keygen_virtual_address
 .text.log_callback_rtt
                0x00025110       0x28 mesh/core/libmesh_core_nrf51422_xxAC.a(log.c.obj)
                0x00025110                log_callback_rtt
 .text.log_init
                0x00025138       0x1c mesh/core/libmesh_core_nrf51422_xxAC.a(log.c.obj)
                0x00025138                log_init
 .text.log_vprintf
                0x00025154       0x1c mesh/core/libmesh_core_nrf51422_xxAC.a(log.c.obj)
                0x00025154                log_vprintf
 .text.log_printf
                0x00025170       0x16 mesh/core/libmesh_core_nrf51422_xxAC.a(log.c.obj)
                0x00025170                log_printf
 .text.get_area_end
                0x00025186        0xc mesh/core/libmesh_core_nrf51422_xxAC.a(flash_manager.c.obj)
 *fill*         0x00025192        0x2 
 .text.handle_matches_filter
                0x00025194       0x28 mesh/core/libmesh_core_nrf51422_xxAC.a(flash_manager.c.obj)
 .text.get_packet_buffer
                0x000251bc       0x30 mesh/core/libmesh_core_nrf51422_xxAC.a(flash_manager.c.obj)
 .text.get_entry_action
                0x000251ec       0x30 mesh/core/libmesh_core_nrf51422_xxAC.a(flash_manager.c.obj)
 .text.flash_area_is_blank
                0x0002521c       0x50 mesh/core/libmesh_core_nrf51422_xxAC.a(flash_manager.c.obj)
 .text.flash    0x0002526c       0x1e mesh/core/libmesh_core_nrf51422_xxAC.a(flash_manager.c.obj)
 *fill*         0x0002528a        0x2 
 .text.free_packet_buffer
                0x0002528c       0x4c mesh/core/libmesh_core_nrf51422_xxAC.a(flash_manager.c.obj)
 .text.reserve_action_buffer
                0x000252d8       0x20 mesh/core/libmesh_core_nrf51422_xxAC.a(flash_manager.c.obj)
 .text.commit_action_buffer
                0x000252f8       0x18 mesh/core/libmesh_core_nrf51422_xxAC.a(flash_manager.c.obj)
 .text.schedule_processing
                0x00025310       0x10 mesh/core/libmesh_core_nrf51422_xxAC.a(flash_manager.c.obj)
 .text.get_next_entry
                0x00025320       0x44 mesh/core/libmesh_core_nrf51422_xxAC.a(flash_manager.c.obj)
 .text.get_last_entry.isra.1
                0x00025364       0x34 mesh/core/libmesh_core_nrf51422_xxAC.a(flash_manager.c.obj)
 .text.process_action_queue
                0x00025398      0x49c mesh/core/libmesh_core_nrf51422_xxAC.a(flash_manager.c.obj)
 .text.flash_op_ended_callback
                0x00025834       0x24 mesh/core/libmesh_core_nrf51422_xxAC.a(flash_manager.c.obj)
 .text.flash_manager_init
                0x00025858       0x68 mesh/core/libmesh_core_nrf51422_xxAC.a(flash_manager.c.obj)
                0x00025858                flash_manager_init
 .text.flash_manager_remove
                0x000258c0       0x24 mesh/core/libmesh_core_nrf51422_xxAC.a(flash_manager.c.obj)
                0x000258c0                flash_manager_remove
 .text.flash_manager_entry_get
                0x000258e4       0x4c mesh/core/libmesh_core_nrf51422_xxAC.a(flash_manager.c.obj)
                0x000258e4                flash_manager_entry_get
 .text.flash_manager_entry_next_get
                0x00025930       0x74 mesh/core/libmesh_core_nrf51422_xxAC.a(flash_manager.c.obj)
                0x00025930                flash_manager_entry_next_get
 .text.flash_manager_entry_alloc
                0x000259a4       0x88 mesh/core/libmesh_core_nrf51422_xxAC.a(flash_manager.c.obj)
                0x000259a4                flash_manager_entry_alloc
 .text.flash_manager_entry_commit
                0x00025a2c       0x10 mesh/core/libmesh_core_nrf51422_xxAC.a(flash_manager.c.obj)
                0x00025a2c                flash_manager_entry_commit
 .text.flash_manager_entry_invalidate
                0x00025a3c       0x70 mesh/core/libmesh_core_nrf51422_xxAC.a(flash_manager.c.obj)
                0x00025a3c                flash_manager_entry_invalidate
 .text.flash_manager_add
                0x00025aac      0x250 mesh/core/libmesh_core_nrf51422_xxAC.a(flash_manager.c.obj)
                0x00025aac                flash_manager_add
 .text.flash_manager_mem_listener_register
                0x00025cfc       0x48 mesh/core/libmesh_core_nrf51422_xxAC.a(flash_manager.c.obj)
                0x00025cfc                flash_manager_mem_listener_register
 .text.flash_manager_is_stable
                0x00025d44       0x24 mesh/core/libmesh_core_nrf51422_xxAC.a(flash_manager.c.obj)
                0x00025d44                flash_manager_is_stable
 .text.flash_manager_on_defrag_end
                0x00025d68       0x5c mesh/core/libmesh_core_nrf51422_xxAC.a(flash_manager.c.obj)
                0x00025d68                flash_manager_on_defrag_end
 .text.flash_manager_recovery_page_get
                0x00025dc4        0x8 mesh/core/libmesh_core_nrf51422_xxAC.a(flash_manager.c.obj)
                0x00025dc4                flash_manager_recovery_page_get
 .text.utils_xor
                0x00025dcc       0x16 mesh/core/libmesh_core_nrf51422_xxAC.a(ccm_soft.c.obj)
 .text.ccm_soft_authenticate_blocks
                0x00025de2       0x66 mesh/core/libmesh_core_nrf51422_xxAC.a(ccm_soft.c.obj)
 .text.utils_reverse_memcpy.constprop.0
                0x00025e48        0xa mesh/core/libmesh_core_nrf51422_xxAC.a(ccm_soft.c.obj)
 .text.ccm_soft_authenticate
                0x00025e52       0x94 mesh/core/libmesh_core_nrf51422_xxAC.a(ccm_soft.c.obj)
 .text.ccm_soft_crypt
                0x00025ee6       0x58 mesh/core/libmesh_core_nrf51422_xxAC.a(ccm_soft.c.obj)
 .text.ccm_soft_encrypt
                0x00025f3e       0x6e mesh/core/libmesh_core_nrf51422_xxAC.a(ccm_soft.c.obj)
                0x00025f3e                ccm_soft_encrypt
 .text.ccm_soft_decrypt
                0x00025fac      0x10c mesh/core/libmesh_core_nrf51422_xxAC.a(ccm_soft.c.obj)
                0x00025fac                ccm_soft_decrypt
 .text.beacon_init
                0x000260b8       0x4c mesh/core/libmesh_core_nrf51422_xxAC.a(beacon.c.obj)
                0x000260b8                beacon_init
 .text.beacon_create
                0x00026104       0x46 mesh/core/libmesh_core_nrf51422_xxAC.a(beacon.c.obj)
                0x00026104                beacon_create
 *fill*         0x0002614a        0x2 
 .text.beacon_tx
                0x0002614c       0x40 mesh/core/libmesh_core_nrf51422_xxAC.a(beacon.c.obj)
                0x0002614c                beacon_tx
 .text.beacon_packet_in
                0x0002618c      0x164 mesh/core/libmesh_core_nrf51422_xxAC.a(beacon.c.obj)
                0x0002618c                beacon_packet_in
 .text.entry_get
                0x000262f0       0x80 mesh/core/libmesh_core_nrf51422_xxAC.a(flash_manager_internal.c.obj)
                0x000262f0                entry_get
 .text.adv_tx_complete_callback
                0x00026370       0x50 mesh/core/libmesh_core_nrf51422_xxAC.a(core_tx.c.obj)
 .text.core_tx_init
                0x000263c0       0x4c mesh/core/libmesh_core_nrf51422_xxAC.a(core_tx.c.obj)
                0x000263c0                core_tx_init
 .text.core_tx_complete_cb_set
                0x0002640c        0xc mesh/core/libmesh_core_nrf51422_xxAC.a(core_tx.c.obj)
                0x0002640c                core_tx_complete_cb_set
 .text.core_tx_packet_alloc
                0x00026418       0xa4 mesh/core/libmesh_core_nrf51422_xxAC.a(core_tx.c.obj)
                0x00026418                core_tx_packet_alloc
 .text.core_tx_packet_send
                0x000264bc       0x78 mesh/core/libmesh_core_nrf51422_xxAC.a(core_tx.c.obj)
                0x000264bc                core_tx_packet_send
 .text.core_tx_packet_discard
                0x00026534       0x78 mesh/core/libmesh_core_nrf51422_xxAC.a(core_tx.c.obj)
                0x00026534                core_tx_packet_discard
 .text.core_tx_adv_count_set
                0x000265ac       0x40 mesh/core/libmesh_core_nrf51422_xxAC.a(core_tx.c.obj)
                0x000265ac                core_tx_adv_count_set
 .text.core_tx_adv_count_get
                0x000265ec       0x2c mesh/core/libmesh_core_nrf51422_xxAC.a(core_tx.c.obj)
                0x000265ec                core_tx_adv_count_get
 .text.core_tx_adv_interval_set
                0x00026618       0x34 mesh/core/libmesh_core_nrf51422_xxAC.a(core_tx.c.obj)
                0x00026618                core_tx_adv_interval_set
 .text.core_tx_adv_interval_get
                0x0002664c       0x34 mesh/core/libmesh_core_nrf51422_xxAC.a(core_tx.c.obj)
                0x0002664c                core_tx_adv_interval_get
 .text.network_beacon_tx_cb
                0x00026680       0xf0 mesh/core/libmesh_core_nrf51422_xxAC.a(net_beacon.c.obj)
 .text.net_beacon_init
                0x00026770       0x5c mesh/core/libmesh_core_nrf51422_xxAC.a(net_beacon.c.obj)
                0x00026770                net_beacon_init
 .text.net_beacon_state_set
                0x000267cc       0x38 mesh/core/libmesh_core_nrf51422_xxAC.a(net_beacon.c.obj)
                0x000267cc                net_beacon_state_set
 .text.net_beacon_state_get
                0x00026804        0xc mesh/core/libmesh_core_nrf51422_xxAC.a(net_beacon.c.obj)
                0x00026804                net_beacon_state_get
 .text.net_beacon_packet_in
                0x00026810       0xd8 mesh/core/libmesh_core_nrf51422_xxAC.a(net_beacon.c.obj)
                0x00026810                net_beacon_packet_in
 .text.set_gap_addr_type
                0x000268e8       0x30 mesh/core/libmesh_core_nrf51422_xxAC.a(advertiser.c.obj)
 .text.tx_complete_event_callback
                0x00026918       0x44 mesh/core/libmesh_core_nrf51422_xxAC.a(advertiser.c.obj)
 .text.broadcast_complete_cb
                0x0002695c       0x68 mesh/core/libmesh_core_nrf51422_xxAC.a(advertiser.c.obj)
 .text.schedule_first_time
                0x000269c4       0x28 mesh/core/libmesh_core_nrf51422_xxAC.a(advertiser.c.obj)
 .text.timeout_event
                0x000269ec      0x12c mesh/core/libmesh_core_nrf51422_xxAC.a(advertiser.c.obj)
 .text.advertiser_init
                0x00026b18       0x10 mesh/core/libmesh_core_nrf51422_xxAC.a(advertiser.c.obj)
                0x00026b18                advertiser_init
 .text.advertiser_enable
                0x00026b28       0x2c mesh/core/libmesh_core_nrf51422_xxAC.a(advertiser.c.obj)
                0x00026b28                advertiser_enable
 .text.advertiser_packet_alloc
                0x00026b54       0xac mesh/core/libmesh_core_nrf51422_xxAC.a(advertiser.c.obj)
                0x00026b54                advertiser_packet_alloc
 .text.advertiser_packet_send
                0x00026c00       0x74 mesh/core/libmesh_core_nrf51422_xxAC.a(advertiser.c.obj)
                0x00026c00                advertiser_packet_send
 .text.advertiser_packet_discard
                0x00026c74       0x2c mesh/core/libmesh_core_nrf51422_xxAC.a(advertiser.c.obj)
                0x00026c74                advertiser_packet_discard
 .text.advertiser_interval_set
                0x00026ca0       0x68 mesh/core/libmesh_core_nrf51422_xxAC.a(advertiser.c.obj)
                0x00026ca0                advertiser_interval_set
 .text.advertiser_flush
                0x00026d08       0x22 mesh/core/libmesh_core_nrf51422_xxAC.a(advertiser.c.obj)
                0x00026d08                advertiser_flush
 *fill*         0x00026d2a        0x2 
 .text.advertiser_address_default_get
                0x00026d2c       0x30 mesh/core/libmesh_core_nrf51422_xxAC.a(advertiser.c.obj)
                0x00026d2c                advertiser_address_default_get
 .text.advertiser_instance_init
                0x00026d5c       0xb4 mesh/core/libmesh_core_nrf51422_xxAC.a(advertiser.c.obj)
                0x00026d5c                advertiser_instance_init
 .text.action_switch
                0x00026e10       0xc4 mesh/core/libmesh_core_nrf51422_xxAC.a(bearer_handler.c.obj)
 .text.bearer_handler_init
                0x00026ed4       0x2c mesh/core/libmesh_core_nrf51422_xxAC.a(bearer_handler.c.obj)
                0x00026ed4                bearer_handler_init
 .text.bearer_handler_start
                0x00026f00       0x1c mesh/core/libmesh_core_nrf51422_xxAC.a(bearer_handler.c.obj)
                0x00026f00                bearer_handler_start
 .text.bearer_handler_action_enqueue
                0x00026f1c       0x9c mesh/core/libmesh_core_nrf51422_xxAC.a(bearer_handler.c.obj)
                0x00026f1c                bearer_handler_action_enqueue
 .text.bearer_handler_action_end
                0x00026fb8       0x7c mesh/core/libmesh_core_nrf51422_xxAC.a(bearer_handler.c.obj)
                0x00026fb8                bearer_handler_action_end
 .text.bearer_handler_radio_irq_handler
                0x00027034       0x6c mesh/core/libmesh_core_nrf51422_xxAC.a(bearer_handler.c.obj)
                0x00027034                bearer_handler_radio_irq_handler
 .text.bearer_handler_timer_irq_handler
                0x000270a0       0x30 mesh/core/libmesh_core_nrf51422_xxAC.a(bearer_handler.c.obj)
                0x000270a0                bearer_handler_timer_irq_handler
 .text.bearer_handler_on_ts_begin
                0x000270d0       0x4c mesh/core/libmesh_core_nrf51422_xxAC.a(bearer_handler.c.obj)
                0x000270d0                bearer_handler_on_ts_begin
 .text.bearer_handler_on_ts_end
                0x0002711c       0x50 mesh/core/libmesh_core_nrf51422_xxAC.a(bearer_handler.c.obj)
                0x0002711c                bearer_handler_on_ts_end
 .text.radio_irq_handler
                0x0002716c       0xbc mesh/core/libmesh_core_nrf51422_xxAC.a(broadcast.c.obj)
 .text.broadcast_start
                0x00027228       0x98 mesh/core/libmesh_core_nrf51422_xxAC.a(broadcast.c.obj)
 .text.broadcast_send
                0x000272c0       0x80 mesh/core/libmesh_core_nrf51422_xxAC.a(broadcast.c.obj)
                0x000272c0                broadcast_send
 .text.radio_config_reset
                0x00027340       0x48 mesh/core/libmesh_core_nrf51422_xxAC.a(radio_config.c.obj)
                0x00027340                radio_config_reset
 .text.radio_config_channel_set
                0x00027388       0x3c mesh/core/libmesh_core_nrf51422_xxAC.a(radio_config.c.obj)
                0x00027388                radio_config_channel_set
 .text.radio_config_config
                0x000273c4       0xb0 mesh/core/libmesh_core_nrf51422_xxAC.a(radio_config.c.obj)
                0x000273c4                radio_config_config
 .text.radio_config_access_addr_set
                0x00027474       0x74 mesh/core/libmesh_core_nrf51422_xxAC.a(radio_config.c.obj)
                0x00027474                radio_config_access_addr_set
 .text.radio_trigger
                0x000274e8       0x24 mesh/core/libmesh_core_nrf51422_xxAC.a(scanner.c.obj)
 .text.scan_window_end
                0x0002750c       0x14 mesh/core/libmesh_core_nrf51422_xxAC.a(scanner.c.obj)
 .text.scan_window_start
                0x00027520       0x28 mesh/core/libmesh_core_nrf51422_xxAC.a(scanner.c.obj)
 .text.radio_configure
                0x00027548       0x88 mesh/core/libmesh_core_nrf51422_xxAC.a(scanner.c.obj)
 .text.radio_set_packet
                0x000275d0       0x58 mesh/core/libmesh_core_nrf51422_xxAC.a(scanner.c.obj)
 .text.radio_start
                0x00027628       0x54 mesh/core/libmesh_core_nrf51422_xxAC.a(scanner.c.obj)
 .text.radio_stop
                0x0002767c       0x38 mesh/core/libmesh_core_nrf51422_xxAC.a(scanner.c.obj)
 .text.schedule_timers
                0x000276b4       0x34 mesh/core/libmesh_core_nrf51422_xxAC.a(scanner.c.obj)
 .text.scanner_radio_start
                0x000276e8       0x28 mesh/core/libmesh_core_nrf51422_xxAC.a(scanner.c.obj)
                0x000276e8                scanner_radio_start
 .text.scanner_radio_stop
                0x00027710       0x14 mesh/core/libmesh_core_nrf51422_xxAC.a(scanner.c.obj)
                0x00027710                scanner_radio_stop
 .text.scanner_radio_irq_handler
                0x00027724      0x124 mesh/core/libmesh_core_nrf51422_xxAC.a(scanner.c.obj)
                0x00027724                scanner_radio_irq_handler
 .text.scanner_enable
                0x00027848       0x34 mesh/core/libmesh_core_nrf51422_xxAC.a(scanner.c.obj)
                0x00027848                scanner_enable
 .text.scanner_packet_release
                0x0002787c       0x38 mesh/core/libmesh_core_nrf51422_xxAC.a(scanner.c.obj)
                0x0002787c                scanner_packet_release
 .text.scanner_rx
                0x000278b4       0x34 mesh/core/libmesh_core_nrf51422_xxAC.a(scanner.c.obj)
                0x000278b4                scanner_rx
 .text.scanner_config_scan_time_set
                0x000278e8       0x6c mesh/core/libmesh_core_nrf51422_xxAC.a(scanner.c.obj)
                0x000278e8                scanner_config_scan_time_set
 .text.scanner_config_channels_set
                0x00027954       0x68 mesh/core/libmesh_core_nrf51422_xxAC.a(scanner.c.obj)
                0x00027954                scanner_config_channels_set
 .text.scanner_config_access_addresses_set
                0x000279bc       0x44 mesh/core/libmesh_core_nrf51422_xxAC.a(scanner.c.obj)
                0x000279bc                scanner_config_access_addresses_set
 .text.scanner_config_reset
                0x00027a00       0x44 mesh/core/libmesh_core_nrf51422_xxAC.a(scanner.c.obj)
                0x00027a00                scanner_config_reset
 .text.scanner_init
                0x00027a44       0x48 mesh/core/libmesh_core_nrf51422_xxAC.a(scanner.c.obj)
                0x00027a44                scanner_init
 .text.internal_event_push
                0x00027a8c       0x30 mesh/core/libmesh_core_nrf51422_xxAC.a(internal_event.c.obj)
                0x00027a8c                internal_event_push
 .text.sd_ecb_block_encrypt
                0x00027abc        0x4 mesh/core/libmesh_core_nrf51422_xxAC.a(aes.c.obj)
 .text.aes_encrypt
                0x00027ac0       0x30 mesh/core/libmesh_core_nrf51422_xxAC.a(aes.c.obj)
                0x00027ac0                aes_encrypt
 .text.msg_cache_init
                0x00027af0       0x28 mesh/core/libmesh_core_nrf51422_xxAC.a(msg_cache.c.obj)
                0x00027af0                msg_cache_init
 .text.msg_cache_entry_exists
                0x00027b18       0x40 mesh/core/libmesh_core_nrf51422_xxAC.a(msg_cache.c.obj)
                0x00027b18                msg_cache_entry_exists
 .text.msg_cache_entry_add
                0x00027b58       0x2c mesh/core/libmesh_core_nrf51422_xxAC.a(msg_cache.c.obj)
                0x00027b58                msg_cache_entry_add
 .text.block_ack_full
                0x00027b84       0x2c mesh/core/libmesh_core_nrf51422_xxAC.a(transport.c.obj)
 .text.seqauth_sequence_number_get
                0x00027bb0       0x18 mesh/core/libmesh_core_nrf51422_xxAC.a(transport.c.obj)
 .text.sar_rx_session_mark_as_handled
                0x00027bc8       0x54 mesh/core/libmesh_core_nrf51422_xxAC.a(transport.c.obj)
 .text.sar_ctx_find
                0x00027c1c       0x40 mesh/core/libmesh_core_nrf51422_xxAC.a(transport.c.obj)
 .text.m_send_sar_cancel_event
                0x00027c5c       0x26 mesh/core/libmesh_core_nrf51422_xxAC.a(transport.c.obj)
 *fill*         0x00027c82        0x2 
 .text.tx_complete
                0x00027c84       0x30 mesh/core/libmesh_core_nrf51422_xxAC.a(transport.c.obj)
 .text.upper_trs_packet_alloc
                0x00027cb4       0x30 mesh/core/libmesh_core_nrf51422_xxAC.a(transport.c.obj)
 .text.upper_trs_packet_encrypt
                0x00027ce4       0xc4 mesh/core/libmesh_core_nrf51422_xxAC.a(transport.c.obj)
 .text.sar_ctx_free
                0x00027da8       0x38 mesh/core/libmesh_core_nrf51422_xxAC.a(transport.c.obj)
 .text.sar_ctx_tx_complete
                0x00027de0       0x3c mesh/core/libmesh_core_nrf51422_xxAC.a(transport.c.obj)
 .text.sar_ctx_cancel
                0x00027e1c      0x110 mesh/core/libmesh_core_nrf51422_xxAC.a(transport.c.obj)
 .text.abort_timeout
                0x00027f2c        0xc mesh/core/libmesh_core_nrf51422_xxAC.a(transport.c.obj)
 .text.sar_ctx_alloc
                0x00027f38       0xc4 mesh/core/libmesh_core_nrf51422_xxAC.a(transport.c.obj)
 .text.test_transport_decrypt
                0x00027ffc       0x90 mesh/core/libmesh_core_nrf51422_xxAC.a(transport.c.obj)
 .text.upper_transport_access_packet_in
                0x0002808c      0x290 mesh/core/libmesh_core_nrf51422_xxAC.a(transport.c.obj)
 .text.trs_packet_header_build
                0x0002831c       0x96 mesh/core/libmesh_core_nrf51422_xxAC.a(transport.c.obj)
 *fill*         0x000283b2        0x2 
 .text.trs_sar_packet_out
                0x000283b4       0xc4 mesh/core/libmesh_core_nrf51422_xxAC.a(transport.c.obj)
 .text.retry_timeout
                0x00028478       0x54 mesh/core/libmesh_core_nrf51422_xxAC.a(transport.c.obj)
 .text.sar_ack_send
                0x000284cc      0x11c mesh/core/libmesh_core_nrf51422_xxAC.a(transport.c.obj)
 .text.ack_timeout
                0x000285e8       0x3c mesh/core/libmesh_core_nrf51422_xxAC.a(transport.c.obj)
 .text.tx_retry_timer_reset
                0x00028624       0x50 mesh/core/libmesh_core_nrf51422_xxAC.a(transport.c.obj)
 .text.upper_transport_packet_in
                0x00028674      0x174 mesh/core/libmesh_core_nrf51422_xxAC.a(transport.c.obj)
 .text.transport_sar_process
                0x000287e8       0x78 mesh/core/libmesh_core_nrf51422_xxAC.a(transport.c.obj)
 .text.transport_sar_mem_funcs_reset
                0x00028860       0x2c mesh/core/libmesh_core_nrf51422_xxAC.a(transport.c.obj)
                0x00028860                transport_sar_mem_funcs_reset
 .text.transport_init
                0x0002888c       0x74 mesh/core/libmesh_core_nrf51422_xxAC.a(transport.c.obj)
                0x0002888c                transport_init
 .text.transport_packet_in
                0x00028900      0x4f0 mesh/core/libmesh_core_nrf51422_xxAC.a(transport.c.obj)
                0x00028900                transport_packet_in
 .text.transport_tx
                0x00028df0      0x2b8 mesh/core/libmesh_core_nrf51422_xxAC.a(transport.c.obj)
                0x00028df0                transport_tx
 .text.transport_opt_set
                0x000290a8       0xcc mesh/core/libmesh_core_nrf51422_xxAC.a(transport.c.obj)
                0x000290a8                transport_opt_set
 .text.transport_opt_get
                0x00029174       0x58 mesh/core/libmesh_core_nrf51422_xxAC.a(transport.c.obj)
                0x00029174                transport_opt_get
 .text.m_adjust_desired_packet_length
                0x000291cc       0x34 mesh/core/libmesh_core_nrf51422_xxAC.a(packet_buffer.c.obj)
 .text.m_index_increment.part.0
                0x00029200       0x18 mesh/core/libmesh_core_nrf51422_xxAC.a(packet_buffer.c.obj)
 .text.m_free_popped_packet
                0x00029218       0x64 mesh/core/libmesh_core_nrf51422_xxAC.a(packet_buffer.c.obj)
 .text.free_skipped_packets
                0x0002927c       0x1c mesh/core/libmesh_core_nrf51422_xxAC.a(packet_buffer.c.obj)
 .text.packet_buffer_init
                0x00029298       0xe0 mesh/core/libmesh_core_nrf51422_xxAC.a(packet_buffer.c.obj)
                0x00029298                packet_buffer_init
 .text.packet_buffer_flush
                0x00029378       0x60 mesh/core/libmesh_core_nrf51422_xxAC.a(packet_buffer.c.obj)
                0x00029378                packet_buffer_flush
 .text.packet_buffer_reserve
                0x000293d8      0x11c mesh/core/libmesh_core_nrf51422_xxAC.a(packet_buffer.c.obj)
                0x000293d8                packet_buffer_reserve
 .text.packet_buffer_commit
                0x000294f4      0x10c mesh/core/libmesh_core_nrf51422_xxAC.a(packet_buffer.c.obj)
                0x000294f4                packet_buffer_commit
 .text.packet_buffer_pop
                0x00029600       0x64 mesh/core/libmesh_core_nrf51422_xxAC.a(packet_buffer.c.obj)
                0x00029600                packet_buffer_pop
 .text.packet_buffer_can_pop
                0x00029664       0x2c mesh/core/libmesh_core_nrf51422_xxAC.a(packet_buffer.c.obj)
                0x00029664                packet_buffer_can_pop
 .text.packet_buffer_packets_ready_to_pop
                0x00029690       0x58 mesh/core/libmesh_core_nrf51422_xxAC.a(packet_buffer.c.obj)
                0x00029690                packet_buffer_packets_ready_to_pop
 .text.packet_buffer_free
                0x000296e8       0x94 mesh/core/libmesh_core_nrf51422_xxAC.a(packet_buffer.c.obj)
                0x000296e8                packet_buffer_free
 .text.get_last_page
                0x0002977c       0x14 mesh/core/libmesh_core_nrf51422_xxAC.a(flash_manager_defrag.c.obj)
 .text.defrag_on_end
                0x00029790       0x1c mesh/core/libmesh_core_nrf51422_xxAC.a(flash_manager_defrag.c.obj)
 .text.execute_procedure_step
                0x000297ac       0xac mesh/core/libmesh_core_nrf51422_xxAC.a(flash_manager_defrag.c.obj)
 .text.get_next_entry
                0x00029858       0x44 mesh/core/libmesh_core_nrf51422_xxAC.a(flash_manager_defrag.c.obj)
 .text.get_next_data_entry
                0x0002989c       0x24 mesh/core/libmesh_core_nrf51422_xxAC.a(flash_manager_defrag.c.obj)
 .text.on_flash_op_end
                0x000298c0       0x34 mesh/core/libmesh_core_nrf51422_xxAC.a(flash_manager_defrag.c.obj)
 .text.check_for_invalid_entries
                0x000298f4       0x3c mesh/core/libmesh_core_nrf51422_xxAC.a(flash_manager_defrag.c.obj)
 .text.erase_recovery_area
                0x00029930       0x30 mesh/core/libmesh_core_nrf51422_xxAC.a(flash_manager_defrag.c.obj)
 .text.flash.constprop.6
                0x00029960       0x20 mesh/core/libmesh_core_nrf51422_xxAC.a(flash_manager_defrag.c.obj)
 .text.seal_storage_page
                0x00029980       0x58 mesh/core/libmesh_core_nrf51422_xxAC.a(flash_manager_defrag.c.obj)
 .text.invalidate_duplicate_entries
                0x000299d8       0x88 mesh/core/libmesh_core_nrf51422_xxAC.a(flash_manager_defrag.c.obj)
 .text.copy_metadata
                0x00029a60       0x40 mesh/core/libmesh_core_nrf51422_xxAC.a(flash_manager_defrag.c.obj)
 .text.write_defrag_start_pointer
                0x00029aa0       0x20 mesh/core/libmesh_core_nrf51422_xxAC.a(flash_manager_defrag.c.obj)
 .text.write_back
                0x00029ac0       0x2c mesh/core/libmesh_core_nrf51422_xxAC.a(flash_manager_defrag.c.obj)
 .text.post_process
                0x00029aec       0x44 mesh/core/libmesh_core_nrf51422_xxAC.a(flash_manager_defrag.c.obj)
 .text.backup_entries
                0x00029b30      0x128 mesh/core/libmesh_core_nrf51422_xxAC.a(flash_manager_defrag.c.obj)
 .text.erase_source
                0x00029c58       0x30 mesh/core/libmesh_core_nrf51422_xxAC.a(flash_manager_defrag.c.obj)
 .text.flash_manager_defrag_init
                0x00029c88       0xa0 mesh/core/libmesh_core_nrf51422_xxAC.a(flash_manager_defrag.c.obj)
                0x00029c88                flash_manager_defrag_init
 .text.flash_manager_defrag_is_running
                0x00029d28       0x10 mesh/core/libmesh_core_nrf51422_xxAC.a(flash_manager_defrag.c.obj)
                0x00029d28                flash_manager_defrag_is_running
 .text.flash_manager_defrag
                0x00029d38       0xdc mesh/core/libmesh_core_nrf51422_xxAC.a(flash_manager_defrag.c.obj)
                0x00029d38                flash_manager_defrag
 .text.flash_manager_defrag_recovery_page_get
                0x00029e14        0xc mesh/core/libmesh_core_nrf51422_xxAC.a(flash_manager_defrag.c.obj)
                0x00029e14                flash_manager_defrag_recovery_page_get
 .text.fifo_init
                0x00029e20       0x5c mesh/core/libmesh_core_nrf51422_xxAC.a(fifo.c.obj)
                0x00029e20                fifo_init
 .text.fifo_push
                0x00029e7c       0x5c mesh/core/libmesh_core_nrf51422_xxAC.a(fifo.c.obj)
                0x00029e7c                fifo_push
 .text.fifo_pop
                0x00029ed8       0x5c mesh/core/libmesh_core_nrf51422_xxAC.a(fifo.c.obj)
                0x00029ed8                fifo_pop
 .text.packet_mgr_init
                0x00029f34       0x54 mesh/core/libmesh_core_nrf51422_xxAC.a(packet_mgr.c.obj)
                0x00029f34                packet_mgr_init
 .text.send_end_events
                0x00029f88       0x80 mesh/core/libmesh_core_nrf51422_xxAC.a(mesh_flash.c.obj)
 .text.flash_op_schedule
                0x0002a008       0xa0 mesh/core/libmesh_core_nrf51422_xxAC.a(mesh_flash.c.obj)
 .text.flash_op_start
                0x0002a0a8      0x178 mesh/core/libmesh_core_nrf51422_xxAC.a(mesh_flash.c.obj)
 .text.mesh_flash_init
                0x0002a220       0x94 mesh/core/libmesh_core_nrf51422_xxAC.a(mesh_flash.c.obj)
                0x0002a220                mesh_flash_init
 .text.mesh_flash_user_callback_set
                0x0002a2b4       0x30 mesh/core/libmesh_core_nrf51422_xxAC.a(mesh_flash.c.obj)
                0x0002a2b4                mesh_flash_user_callback_set
 .text.mesh_flash_op_push
                0x0002a2e4      0x140 mesh/core/libmesh_core_nrf51422_xxAC.a(mesh_flash.c.obj)
                0x0002a2e4                mesh_flash_op_push
 .text.queue_init
                0x0002a424       0x24 mesh/core/libmesh_core_nrf51422_xxAC.a(queue.c.obj)
                0x0002a424                queue_init
 .text.queue_push
                0x0002a448       0x54 mesh/core/libmesh_core_nrf51422_xxAC.a(queue.c.obj)
                0x0002a448                queue_push
 .text.queue_pop
                0x0002a49c       0x3c mesh/core/libmesh_core_nrf51422_xxAC.a(queue.c.obj)
                0x0002a49c                queue_pop
 .text.queue_peek
                0x0002a4d8       0x20 mesh/core/libmesh_core_nrf51422_xxAC.a(queue.c.obj)
                0x0002a4d8                queue_peek
 .text.my_xor.constprop.1
                0x0002a4f8       0x12 mesh/core/libmesh_core_nrf51422_xxAC.a(aes_cmac.c.obj)
 .text.utils_lshift.constprop.2
                0x0002a50a       0x18 mesh/core/libmesh_core_nrf51422_xxAC.a(aes_cmac.c.obj)
 *fill*         0x0002a522        0x2 
 .text.aes_cmac_subkey_generate
                0x0002a524       0x64 mesh/core/libmesh_core_nrf51422_xxAC.a(aes_cmac.c.obj)
                0x0002a524                aes_cmac_subkey_generate
 .text.aes_cmac
                0x0002a588       0xc0 mesh/core/libmesh_core_nrf51422_xxAC.a(aes_cmac.c.obj)
                0x0002a588                aes_cmac
 .text.stage_get_available
                0x0002a648       0x26 mesh/core/libmesh_core_nrf51422_xxAC.a(msqueue.c.obj)
 *fill*         0x0002a66e        0x2 
 .text.msq_get  0x0002a670       0x54 mesh/core/libmesh_core_nrf51422_xxAC.a(msqueue.c.obj)
                0x0002a670                msq_get
 .text.msq_move
                0x0002a6c4       0x4c mesh/core/libmesh_core_nrf51422_xxAC.a(msqueue.c.obj)
                0x0002a6c4                msq_move
 .text.msq_reset
                0x0002a710       0x30 mesh/core/libmesh_core_nrf51422_xxAC.a(msqueue.c.obj)
                0x0002a710                msq_reset
 .text.msq_init
                0x0002a740       0x88 mesh/core/libmesh_core_nrf51422_xxAC.a(msqueue.c.obj)
                0x0002a740                msq_init
 .text.msq_available
                0x0002a7c8       0x40 mesh/core/libmesh_core_nrf51422_xxAC.a(msqueue.c.obj)
                0x0002a7c8                msq_available
 .text.replay_cache_add
                0x0002a808       0x68 mesh/core/libmesh_core_nrf51422_xxAC.a(replay_cache.c.obj)
                0x0002a808                replay_cache_add
 .text.replay_cache_has_room
                0x0002a870       0x38 mesh/core/libmesh_core_nrf51422_xxAC.a(replay_cache.c.obj)
                0x0002a870                replay_cache_has_room
 .text.replay_cache_has_elem
                0x0002a8a8       0x38 mesh/core/libmesh_core_nrf51422_xxAC.a(replay_cache.c.obj)
                0x0002a8a8                replay_cache_has_elem
 .text.replay_cache_clear
                0x0002a8e0       0x28 mesh/core/libmesh_core_nrf51422_xxAC.a(replay_cache.c.obj)
                0x0002a8e0                replay_cache_clear
 .text.replay_cache_init
                0x0002a908        0x8 mesh/core/libmesh_core_nrf51422_xxAC.a(replay_cache.c.obj)
                0x0002a908                replay_cache_init
 .text.fen_filters_apply
                0x0002a910       0x34 mesh/core/libmesh_core_nrf51422_xxAC.a(filter_engine.c.obj)
                0x0002a910                fen_filters_apply
 .text.wait_for_ready
                0x0002a944       0x14 mesh/core/libmesh_core_nrf51422_xxAC.a(nrf_flash.c.obj)
 .text.nrf_flash_erase
                0x0002a958       0x58 mesh/core/libmesh_core_nrf51422_xxAC.a(nrf_flash.c.obj)
                0x0002a958                nrf_flash_erase
 .text.nrf_flash_write
                0x0002a9b0       0x5c mesh/core/libmesh_core_nrf51422_xxAC.a(nrf_flash.c.obj)
                0x0002a9b0                nrf_flash_write
 .text._GetAvailWriteSpace
                0x0002aa0c       0x12 external/rtt/librtt_nrf51422_xxAC.a(SEGGER_RTT.c.obj)
 .text._WriteNoCheck
                0x0002aa1e       0x38 external/rtt/librtt_nrf51422_xxAC.a(SEGGER_RTT.c.obj)
 .text._WriteBlocking
                0x0002aa56       0x5a external/rtt/librtt_nrf51422_xxAC.a(SEGGER_RTT.c.obj)
 .text._DoInit  0x0002aab0       0x64 external/rtt/librtt_nrf51422_xxAC.a(SEGGER_RTT.c.obj)
 .text.SEGGER_RTT_WriteNoLock
                0x0002ab14       0x6c external/rtt/librtt_nrf51422_xxAC.a(SEGGER_RTT.c.obj)
                0x0002ab14                SEGGER_RTT_WriteNoLock
 .text.SEGGER_RTT_Write
                0x0002ab80       0x34 external/rtt/librtt_nrf51422_xxAC.a(SEGGER_RTT.c.obj)
                0x0002ab80                SEGGER_RTT_Write
 .text._StoreChar
                0x0002abb4       0x3e external/rtt/librtt_nrf51422_xxAC.a(SEGGER_RTT_printf.c.obj)
 *fill*         0x0002abf2        0x2 
 .text._PrintUnsigned
                0x0002abf4       0xe0 external/rtt/librtt_nrf51422_xxAC.a(SEGGER_RTT_printf.c.obj)
 .text.SEGGER_RTT_vprintf
                0x0002acd4      0x25c external/rtt/librtt_nrf51422_xxAC.a(SEGGER_RTT_printf.c.obj)
                0x0002acd4                SEGGER_RTT_vprintf
 .text.SEGGER_RTT_printf
                0x0002af30       0x18 external/rtt/librtt_nrf51422_xxAC.a(SEGGER_RTT_printf.c.obj)
                0x0002af30                SEGGER_RTT_printf
 .text.uECC_vli_mult
                0x0002af48       0x90 external/micro-ecc/libuECC_nrf51422_xxAC.a(uECC.c.obj)
 .text.uECC_vli_clear
                0x0002afd8       0x16 external/micro-ecc/libuECC_nrf51422_xxAC.a(uECC.c.obj)
 .text.uECC_vli_isZero
                0x0002afee       0x1c external/micro-ecc/libuECC_nrf51422_xxAC.a(uECC.c.obj)
 .text.uECC_vli_testBit
                0x0002b00a       0x12 external/micro-ecc/libuECC_nrf51422_xxAC.a(uECC.c.obj)
 .text.uECC_vli_numBits
                0x0002b01c       0x40 external/micro-ecc/libuECC_nrf51422_xxAC.a(uECC.c.obj)
 .text.uECC_vli_set
                0x0002b05c       0x16 external/micro-ecc/libuECC_nrf51422_xxAC.a(uECC.c.obj)
 .text.uECC_vli_cmp_unsafe
                0x0002b072       0x24 external/micro-ecc/libuECC_nrf51422_xxAC.a(uECC.c.obj)
 .text.uECC_vli_rshift1
                0x0002b096       0x1e external/micro-ecc/libuECC_nrf51422_xxAC.a(uECC.c.obj)
 .text.uECC_vli_modMult_fast
                0x0002b0b4       0x20 external/micro-ecc/libuECC_nrf51422_xxAC.a(uECC.c.obj)
 .text.uECC_vli_modSquare_fast
                0x0002b0d4        0xc external/micro-ecc/libuECC_nrf51422_xxAC.a(uECC.c.obj)
 .text.apply_z  0x0002b0e0       0x3e external/micro-ecc/libuECC_nrf51422_xxAC.a(uECC.c.obj)
 .text.uECC_vli_nativeToBytes
                0x0002b11e       0x24 external/micro-ecc/libuECC_nrf51422_xxAC.a(uECC.c.obj)
 .text.uECC_vli_bytesToNative
                0x0002b142       0x44 external/micro-ecc/libuECC_nrf51422_xxAC.a(uECC.c.obj)
 .text.default_RNG
                0x0002b186        0xc external/micro-ecc/libuECC_nrf51422_xxAC.a(uECC.c.obj)
 .text.uECC_vli_add.isra.0
                0x0002b192       0x4a external/micro-ecc/libuECC_nrf51422_xxAC.a(uECC.c.obj)
 .text.regularize_k
                0x0002b1dc       0x52 external/micro-ecc/libuECC_nrf51422_xxAC.a(uECC.c.obj)
 .text.uECC_vli_sub.isra.1
                0x0002b22e       0x4c external/micro-ecc/libuECC_nrf51422_xxAC.a(uECC.c.obj)
 .text.uECC_vli_cmp
                0x0002b27a       0x2a external/micro-ecc/libuECC_nrf51422_xxAC.a(uECC.c.obj)
 .text.uECC_generate_random_int
                0x0002b2a4       0x78 external/micro-ecc/libuECC_nrf51422_xxAC.a(uECC.c.obj)
 .text.uECC_vli_modAdd
                0x0002b31c       0x2e external/micro-ecc/libuECC_nrf51422_xxAC.a(uECC.c.obj)
 *fill*         0x0002b34a        0x2 
 .text.vli_mmod_fast_secp256r1
                0x0002b34c      0x19c external/micro-ecc/libuECC_nrf51422_xxAC.a(uECC.c.obj)
 .text.uECC_vli_modSub.isra.2
                0x0002b4e8       0x1a external/micro-ecc/libuECC_nrf51422_xxAC.a(uECC.c.obj)
 *fill*         0x0002b502        0x2 
 .text.double_jacobian_default
                0x0002b504      0x14c external/micro-ecc/libuECC_nrf51422_xxAC.a(uECC.c.obj)
 .text.x_side_default
                0x0002b650       0x58 external/micro-ecc/libuECC_nrf51422_xxAC.a(uECC.c.obj)
 .text.XYcZ_add
                0x0002b6a8       0xbe external/micro-ecc/libuECC_nrf51422_xxAC.a(uECC.c.obj)
 .text.XYcZ_addC
                0x0002b766      0x10c external/micro-ecc/libuECC_nrf51422_xxAC.a(uECC.c.obj)
 *fill*         0x0002b872        0x2 
 .text.vli_modInv_update
                0x0002b874       0x3c external/micro-ecc/libuECC_nrf51422_xxAC.a(uECC.c.obj)
 .text.uECC_vli_modInv
                0x0002b8b0      0x10a external/micro-ecc/libuECC_nrf51422_xxAC.a(uECC.c.obj)
 .text.EccPoint_mult
                0x0002b9ba      0x19c external/micro-ecc/libuECC_nrf51422_xxAC.a(uECC.c.obj)
 .text.EccPoint_compute_public_key
                0x0002bb56       0x4c external/micro-ecc/libuECC_nrf51422_xxAC.a(uECC.c.obj)
 *fill*         0x0002bba2        0x2 
 .text.uECC_secp256r1
                0x0002bba4        0x8 external/micro-ecc/libuECC_nrf51422_xxAC.a(uECC.c.obj)
                0x0002bba4                uECC_secp256r1
 .text.uECC_make_key
                0x0002bbac       0x84 external/micro-ecc/libuECC_nrf51422_xxAC.a(uECC.c.obj)
                0x0002bbac                uECC_make_key
 .text.uECC_shared_secret
                0x0002bc30       0xc0 external/micro-ecc/libuECC_nrf51422_xxAC.a(uECC.c.obj)
                0x0002bc30                uECC_shared_secret
 .text.uECC_valid_point
                0x0002bcf0       0x86 external/micro-ecc/libuECC_nrf51422_xxAC.a(uECC.c.obj)
                0x0002bcf0                uECC_valid_point
 .text.uECC_valid_public_key
                0x0002bd76       0x32 external/micro-ecc/libuECC_nrf51422_xxAC.a(uECC.c.obj)
                0x0002bd76                uECC_valid_public_key
 .text          0x0002bda8       0x14 c:/a/gcc_arm/6/bin/../lib/gcc/arm-none-eabi/6.3.1/thumb/v6-m\libgcc.a(_thumb1_case_uqi.o)
                0x0002bda8                __gnu_thumb1_case_uqi
 .text          0x0002bdbc       0x14 c:/a/gcc_arm/6/bin/../lib/gcc/arm-none-eabi/6.3.1/thumb/v6-m\libgcc.a(_thumb1_case_shi.o)
                0x0002bdbc                __gnu_thumb1_case_shi
 .text          0x0002bdd0       0x14 c:/a/gcc_arm/6/bin/../lib/gcc/arm-none-eabi/6.3.1/thumb/v6-m\libgcc.a(_thumb1_case_uhi.o)
                0x0002bdd0                __gnu_thumb1_case_uhi
 .text          0x0002bde4      0x114 c:/a/gcc_arm/6/bin/../lib/gcc/arm-none-eabi/6.3.1/thumb/v6-m\libgcc.a(_udivsi3.o)
                0x0002bde4                __aeabi_uidiv
                0x0002bde4                __udivsi3
                0x0002bef0                __aeabi_uidivmod
 .text          0x0002bef8      0x1d4 c:/a/gcc_arm/6/bin/../lib/gcc/arm-none-eabi/6.3.1/thumb/v6-m\libgcc.a(_divsi3.o)
                0x0002bef8                __divsi3
                0x0002bef8                __aeabi_idiv
                0x0002c0c4                __aeabi_idivmod
 .text          0x0002c0cc        0x4 c:/a/gcc_arm/6/bin/../lib/gcc/arm-none-eabi/6.3.1/thumb/v6-m\libgcc.a(_dvmd_tls.o)
                0x0002c0cc                __aeabi_idiv0
                0x0002c0cc                __aeabi_ldiv0
 .text          0x0002c0d0       0x54 c:/a/gcc_arm/6/bin/../lib/gcc/arm-none-eabi/6.3.1/thumb/v6-m\libgcc.a(_muldi3.o)
                0x0002c0d0                __muldi3
                0x0002c0d0                __aeabi_lmul
 .text.exit     0x0002c124       0x2c c:/a/gcc_arm/6/bin/../lib/gcc/arm-none-eabi/6.3.1/../../../../arm-none-eabi/lib/thumb/v6-m\libc_nano.a(lib_a-exit.o)
                0x0002c124                exit
 .text.__libc_init_array
                0x0002c150       0x48 c:/a/gcc_arm/6/bin/../lib/gcc/arm-none-eabi/6.3.1/../../../../arm-none-eabi/lib/thumb/v6-m\libc_nano.a(lib_a-init.o)
                0x0002c150                __libc_init_array
 .text.malloc   0x0002c198       0x14 c:/a/gcc_arm/6/bin/../lib/gcc/arm-none-eabi/6.3.1/../../../../arm-none-eabi/lib/thumb/v6-m\libc_nano.a(lib_a-malloc.o)
                0x0002c198                malloc
 .text.free     0x0002c1ac       0x14 c:/a/gcc_arm/6/bin/../lib/gcc/arm-none-eabi/6.3.1/../../../../arm-none-eabi/lib/thumb/v6-m\libc_nano.a(lib_a-malloc.o)
                0x0002c1ac                free
 .text.memcmp   0x0002c1c0       0x1e c:/a/gcc_arm/6/bin/../lib/gcc/arm-none-eabi/6.3.1/../../../../arm-none-eabi/lib/thumb/v6-m\libc_nano.a(lib_a-memcmp.o)
                0x0002c1c0                memcmp
 .text.memcpy   0x0002c1de       0x12 c:/a/gcc_arm/6/bin/../lib/gcc/arm-none-eabi/6.3.1/../../../../arm-none-eabi/lib/thumb/v6-m\libc_nano.a(lib_a-memcpy-stub.o)
                0x0002c1de                memcpy
 .text.memset   0x0002c1f0       0x10 c:/a/gcc_arm/6/bin/../lib/gcc/arm-none-eabi/6.3.1/../../../../arm-none-eabi/lib/thumb/v6-m\libc_nano.a(lib_a-memset.o)
                0x0002c1f0                memset
 .text._free_r  0x0002c200       0x94 c:/a/gcc_arm/6/bin/../lib/gcc/arm-none-eabi/6.3.1/../../../../arm-none-eabi/lib/thumb/v6-m\libc_nano.a(lib_a-nano-freer.o)
                0x0002c200                _free_r
 .text._malloc_r
                0x0002c294       0xbc c:/a/gcc_arm/6/bin/../lib/gcc/arm-none-eabi/6.3.1/../../../../arm-none-eabi/lib/thumb/v6-m\libc_nano.a(lib_a-nano-mallocr.o)
                0x0002c294                _malloc_r
 .text._sbrk_r  0x0002c350       0x24 c:/a/gcc_arm/6/bin/../lib/gcc/arm-none-eabi/6.3.1/../../../../arm-none-eabi/lib/thumb/v6-m\libc_nano.a(lib_a-sbrkr.o)
                0x0002c350                _sbrk_r
 .text.strcpy   0x0002c374       0x10 c:/a/gcc_arm/6/bin/../lib/gcc/arm-none-eabi/6.3.1/../../../../arm-none-eabi/lib/thumb/v6-m\libc_nano.a(lib_a-strcpy.o)
                0x0002c374                strcpy
 .text          0x0002c384        0xe c:/a/gcc_arm/6/bin/../lib/gcc/arm-none-eabi/6.3.1/../../../../arm-none-eabi/lib/thumb/v6-m\libc_nano.a(lib_a-strlen.o)
                0x0002c384                strlen
 .text.strrchr  0x0002c392       0x24 c:/a/gcc_arm/6/bin/../lib/gcc/arm-none-eabi/6.3.1/../../../../arm-none-eabi/lib/thumb/v6-m\libc_nano.a(lib_a-strrchr.o)
                0x0002c392                strrchr
 .text.__malloc_lock
                0x0002c3b6        0x2 c:/a/gcc_arm/6/bin/../lib/gcc/arm-none-eabi/6.3.1/../../../../arm-none-eabi/lib/thumb/v6-m\libc_nano.a(lib_a-mlock.o)
                0x0002c3b6                __malloc_lock
 .text.__malloc_unlock
                0x0002c3b8        0x2 c:/a/gcc_arm/6/bin/../lib/gcc/arm-none-eabi/6.3.1/../../../../arm-none-eabi/lib/thumb/v6-m\libc_nano.a(lib_a-mlock.o)
                0x0002c3b8                __malloc_unlock
 .text.strchr   0x0002c3ba       0x1c c:/a/gcc_arm/6/bin/../lib/gcc/arm-none-eabi/6.3.1/../../../../arm-none-eabi/lib/thumb/v6-m\libc_nano.a(lib_a-strchr.o)
                0x0002c3ba                strchr
 *fill*         0x0002c3d6        0x2 
 .text._sbrk    0x0002c3d8       0x1c c:/a/gcc_arm/6/bin/../lib/gcc/arm-none-eabi/6.3.1/../../../../arm-none-eabi/lib/thumb/v6-m\libnosys.a(sbrk.o)
                0x0002c3d8                _sbrk
 .text._exit    0x0002c3f4        0x4 c:/a/gcc_arm/6/bin/../lib/gcc/arm-none-eabi/6.3.1/../../../../arm-none-eabi/lib/thumb/v6-m\libnosys.a(_exit.o)
                0x0002c3f4                _exit
 *(.init)
 .init          0x0002c3f8        0x4 c:/a/gcc_arm/6/bin/../lib/gcc/arm-none-eabi/6.3.1/thumb/v6-m/crti.o
                0x0002c3f8                _init
 .init          0x0002c3fc        0x8 c:/a/gcc_arm/6/bin/../lib/gcc/arm-none-eabi/6.3.1/thumb/v6-m/crtn.o
 *(.fini)
 .fini          0x0002c404        0x4 c:/a/gcc_arm/6/bin/../lib/gcc/arm-none-eabi/6.3.1/thumb/v6-m/crti.o
                0x0002c404                _fini
 .fini          0x0002c408        0x8 c:/a/gcc_arm/6/bin/../lib/gcc/arm-none-eabi/6.3.1/thumb/v6-m/crtn.o
 *crtbegin.o(.ctors)
 *crtbegin?.o(.ctors)
 *(EXCLUDE_FILE(*crtend.o *crtend?.o) .ctors)
 *(SORT(.ctors.*))
 *(.ctors)
 *crtbegin.o(.dtors)
 *crtbegin?.o(.dtors)
 *(EXCLUDE_FILE(*crtend.o *crtend?.o) .dtors)
 *(SORT(.dtors.*))
 *(.dtors)
 *(.rodata*)
 .rodata.configuration_complete.str1.1
                0x0002c410       0x1a examples/light_switch/server/CMakeFiles/light_switch_server_nrf51422_xxAC_s130_2.0.1.dir/src/main.c.obj
 .rodata.configuration_setup.str1.1
                0x0002c42a       0x4b examples/light_switch/server/CMakeFiles/light_switch_server_nrf51422_xxAC_s130_2.0.1.dir/src/main.c.obj
 .rodata.main.str1.1
                0x0002c475       0x2f examples/light_switch/server/CMakeFiles/light_switch_server_nrf51422_xxAC_s130_2.0.1.dir/src/main.c.obj
 .rodata.set_cb.str1.1
                0x0002c4a4       0x17 examples/light_switch/server/CMakeFiles/light_switch_server_nrf51422_xxAC_s130_2.0.1.dir/src/main.c.obj
 .rodata.static_auth_data.8079
                0x0002c4bb       0x10 examples/light_switch/server/CMakeFiles/light_switch_server_nrf51422_xxAC_s130_2.0.1.dir/src/main.c.obj
 .rodata.HardFault_Handler.str1.1
                0x0002c4cb        0xe examples/light_switch/server/CMakeFiles/light_switch_server_nrf51422_xxAC_s130_2.0.1.dir/__/__/nrf_mesh_sdk.c.obj
 .rodata.app_error_handler.str1.1
                0x0002c4d9       0x1d examples/light_switch/server/CMakeFiles/light_switch_server_nrf51422_xxAC_s130_2.0.1.dir/__/__/nrf_mesh_sdk.c.obj
 .rodata.mesh_assert_handler.str1.1
                0x0002c4f6       0x34 examples/light_switch/server/CMakeFiles/light_switch_server_nrf51422_xxAC_s130_2.0.1.dir/__/__/nrf_mesh_sdk.c.obj
 *fill*         0x0002c52a        0x2 
 .rodata.m_opcode_handlers
                0x0002c52c       0x18 examples/light_switch/server/CMakeFiles/light_switch_server_nrf51422_xxAC_s130_2.0.1.dir/__/__/__/models/simple_on_off/src/simple_on_off_server.c.obj
 .rodata.CSWTCH.150
                0x0002c544        0xc examples/light_switch/server/CMakeFiles/light_switch_server_nrf51422_xxAC_s130_2.0.1.dir/__/__/__/models/config/src/config_server.c.obj
 .rodata.CSWTCH.153
                0x0002c550        0x7 examples/light_switch/server/CMakeFiles/light_switch_server_nrf51422_xxAC_s130_2.0.1.dir/__/__/__/models/config/src/config_server.c.obj
 *fill*         0x0002c557        0x1 
 .rodata.opcode_handlers
                0x0002c558      0x150 examples/light_switch/server/CMakeFiles/light_switch_server_nrf51422_xxAC_s130_2.0.1.dir/__/__/__/models/config/src/config_server.c.obj
 .rodata.m_opcode_handlers
                0x0002c6a8       0x58 examples/light_switch/server/CMakeFiles/light_switch_server_nrf51422_xxAC_s130_2.0.1.dir/__/__/__/models/health/src/health_server.c.obj
 .rodata.multiply_de_bruijn_bit_position.6665
                0x0002c700       0x20 examples/light_switch/server/CMakeFiles/light_switch_server_nrf51422_xxAC_s130_2.0.1.dir/__/__/__/models/health/src/health_server.c.obj
 .rodata.mesh_evt_cb.str1.1
                0x0002c720       0x2f examples/light_switch/server/CMakeFiles/light_switch_server_nrf51422_xxAC_s130_2.0.1.dir/__/__/__/mesh/access/src/access.c.obj
 .rodata.multiply_de_bruijn_bit_position.6592
                0x0002c74f       0x20 examples/light_switch/server/CMakeFiles/light_switch_server_nrf51422_xxAC_s130_2.0.1.dir/__/__/__/mesh/access/src/access.c.obj
 .rodata.packet_tx.str1.1
                0x0002c76f       0x13 examples/light_switch/server/CMakeFiles/light_switch_server_nrf51422_xxAC_s130_2.0.1.dir/__/__/__/mesh/access/src/access.c.obj
 *fill*         0x0002c782        0x2 
 .rodata.m_flash_groups
                0x0002c784       0xc0 examples/light_switch/server/CMakeFiles/light_switch_server_nrf51422_xxAC_s130_2.0.1.dir/__/__/__/mesh/access/src/device_state_manager.c.obj
 .rodata.m_prov_callbacks
                0x0002c844       0x10 examples/light_switch/server/CMakeFiles/light_switch_server_nrf51422_xxAC_s130_2.0.1.dir/__/__/__/mesh/prov/src/prov_provisionee.c.obj
 .rodata.prov_provisionee_cb_ack_received.str1.1
                0x0002c854       0x53 examples/light_switch/server/CMakeFiles/light_switch_server_nrf51422_xxAC_s130_2.0.1.dir/__/__/__/mesh/prov/src/prov_provisionee.c.obj
 .rodata.pdu_sizes.8283
                0x0002c8a7        0xa examples/light_switch/server/CMakeFiles/light_switch_server_nrf51422_xxAC_s130_2.0.1.dir/__/__/__/mesh/prov/src/provisioning.c.obj
 .rodata.prov_cb_pkt_in.str1.1
                0x0002c8b1       0x34 examples/light_switch/server/CMakeFiles/light_switch_server_nrf51422_xxAC_s130_2.0.1.dir/__/__/__/mesh/prov/src/provisioning.c.obj
 .rodata.alphanumeric.8387
                0x0002c8e5       0x25 examples/light_switch/server/CMakeFiles/light_switch_server_nrf51422_xxAC_s130_2.0.1.dir/__/__/__/mesh/prov/src/prov_utils.c.obj
 *fill*         0x0002c90a        0x2 
 .rodata.numeric_max.8381
                0x0002c90c       0x24 examples/light_switch/server/CMakeFiles/light_switch_server_nrf51422_xxAC_s130_2.0.1.dir/__/__/__/mesh/prov/src/prov_utils.c.obj
 .rodata.prov_utils_authentication_values_derive.str1.1
                0x0002c930        0x5 examples/light_switch/server/CMakeFiles/light_switch_server_nrf51422_xxAC_s130_2.0.1.dir/__/__/__/mesh/prov/src/prov_utils.c.obj
 .rodata.prov_utils_derive_keys.str1.1
                0x0002c935        0xf examples/light_switch/server/CMakeFiles/light_switch_server_nrf51422_xxAC_s130_2.0.1.dir/__/__/__/mesh/prov/src/prov_utils.c.obj
 .rodata.add_active_bearer.str1.1
                0x0002c944       0x2c examples/light_switch/server/CMakeFiles/light_switch_server_nrf51422_xxAC_s130_2.0.1.dir/__/__/__/mesh/prov/src/prov_bearer_adv.c.obj
 .rodata.crctable.8145
                0x0002c970      0x100 examples/light_switch/server/CMakeFiles/light_switch_server_nrf51422_xxAC_s130_2.0.1.dir/__/__/__/mesh/prov/src/prov_bearer_adv.c.obj
 .rodata.interface.8374
                0x0002ca70       0x14 examples/light_switch/server/CMakeFiles/light_switch_server_nrf51422_xxAC_s130_2.0.1.dir/__/__/__/mesh/prov/src/prov_bearer_adv.c.obj
 .rodata.prov_bearer_adv_packet_in.str1.1
                0x0002ca84      0x26e examples/light_switch/server/CMakeFiles/light_switch_server_nrf51422_xxAC_s130_2.0.1.dir/__/__/__/mesh/prov/src/prov_bearer_adv.c.obj
 .rodata.tx_retry_cb.str1.1
                0x0002ccf2       0x37 examples/light_switch/server/CMakeFiles/light_switch_server_nrf51422_xxAC_s130_2.0.1.dir/__/__/__/mesh/prov/src/prov_bearer_adv.c.obj
 .rodata.default_mesh_assertion_handler.str1.1
                0x0002cd29       0x19 examples/light_switch/server/CMakeFiles/light_switch_server_nrf51422_xxAC_s130_2.0.1.dir/__/__/__/mesh/access/src/nrf_mesh_node_config.c.obj
 .rodata.default_softdevice_assertion_handler.str1.1
                0x0002cd29       0x47 examples/light_switch/server/CMakeFiles/light_switch_server_nrf51422_xxAC_s130_2.0.1.dir/__/__/__/mesh/access/src/nrf_mesh_node_config.c.obj
 .rodata.types_lookup.6415
                0x0002cd70        0x4 mesh/core/libmesh_core_nrf51422_xxAC.a(nrf_mesh_utils.c.obj)
 .rodata.nrf_mesh_process.str1.1
                0x0002cd74       0x70 mesh/core/libmesh_core_nrf51422_xxAC.a(nrf_mesh.c.obj)
 .rodata.CSWTCH.9
                0x0002cde4       0x10 mesh/core/libmesh_core_nrf51422_xxAC.a(hal.c.obj)
 .rodata        0x0002cdf4       0x15 mesh/core/libmesh_core_nrf51422_xxAC.a(enc.c.obj)
 .rodata.network_packet_in.str1.1
                0x0002ce09       0x48 mesh/core/libmesh_core_nrf51422_xxAC.a(network.c.obj)
 .rodata.network_packet_send.str1.1
                0x0002ce51       0x49 mesh/core/libmesh_core_nrf51422_xxAC.a(network.c.obj)
 .rodata        0x0002ce9a        0x7 mesh/core/libmesh_core_nrf51422_xxAC.a(nrf_mesh_keygen.c.obj)
 .rodata.log_callback_rtt.str1.1
                0x0002cea1       0x15 mesh/core/libmesh_core_nrf51422_xxAC.a(log.c.obj)
 .rodata.str1.1
                0x0002ceb6       0x11 mesh/core/libmesh_core_nrf51422_xxAC.a(log.c.obj)
 *fill*         0x0002cec7        0x1 
 .rodata.INVALID_HEADER
                0x0002cec8        0x4 mesh/core/libmesh_core_nrf51422_xxAC.a(flash_manager.c.obj)
                0x0002cec8                INVALID_HEADER
 .rodata.PADDING_HEADER
                0x0002cecc        0x4 mesh/core/libmesh_core_nrf51422_xxAC.a(flash_manager.c.obj)
                0x0002cecc                PADDING_HEADER
 .rodata.SEAL_HEADER
                0x0002ced0        0x4 mesh/core/libmesh_core_nrf51422_xxAC.a(flash_manager.c.obj)
                0x0002ced0                SEAL_HEADER
 .rodata.process_action_queue.str1.1
                0x0002ced4       0x21 mesh/core/libmesh_core_nrf51422_xxAC.a(flash_manager.c.obj)
                                 0x4f (size before relaxing)
 .rodata.beacon_packet_in.str1.1
                0x0002cef5       0x51 mesh/core/libmesh_core_nrf51422_xxAC.a(beacon.c.obj)
                                 0x59 (size before relaxing)
 .rodata.net_beacon_init.str1.1
                0x0002cf46        0x5 mesh/core/libmesh_core_nrf51422_xxAC.a(net_beacon.c.obj)
 .rodata.radio_mode_to_us_per_byte.6787
                0x0002cf4b        0x4 mesh/core/libmesh_core_nrf51422_xxAC.a(broadcast.c.obj)
 .rodata.channel_rf_offsets.6049
                0x0002cf4f       0x28 mesh/core/libmesh_core_nrf51422_xxAC.a(radio_config.c.obj)
 .rodata        0x0002cf77        0x3 mesh/core/libmesh_core_nrf51422_xxAC.a(scanner.c.obj)
 .rodata.sar_ctx_cancel.str1.1
                0x0002cf7a       0x35 mesh/core/libmesh_core_nrf51422_xxAC.a(transport.c.obj)
                                 0x63 (size before relaxing)
 .rodata.test_transport_decrypt.str1.1
                0x0002cfaf       0x13 mesh/core/libmesh_core_nrf51422_xxAC.a(transport.c.obj)
 .rodata.transport_packet_in.str1.1
                0x0002cfc2       0x24 mesh/core/libmesh_core_nrf51422_xxAC.a(transport.c.obj)
 .rodata.transport_tx.str1.1
                0x0002cfe6       0x2c mesh/core/libmesh_core_nrf51422_xxAC.a(transport.c.obj)
                                 0x34 (size before relaxing)
 .rodata.upper_transport_access_packet_in.str1.1
                0x0002d012       0x29 mesh/core/libmesh_core_nrf51422_xxAC.a(transport.c.obj)
 .rodata.upper_transport_packet_in.str1.1
                0x0002d03b       0x2e mesh/core/libmesh_core_nrf51422_xxAC.a(transport.c.obj)
 .rodata.flash_manager_defrag.str1.1
                0x0002d069       0x28 mesh/core/libmesh_core_nrf51422_xxAC.a(flash_manager_defrag.c.obj)
                                 0x56 (size before relaxing)
 *fill*         0x0002d091        0x3 
 .rodata.m_procedure_steps
                0x0002d094       0x28 mesh/core/libmesh_core_nrf51422_xxAC.a(flash_manager_defrag.c.obj)
 .rodata.m_all_operations
                0x0002d0bc       0x10 mesh/core/libmesh_core_nrf51422_xxAC.a(mesh_flash.c.obj)
 .rodata.Rb.5039
                0x0002d0cc       0x10 mesh/core/libmesh_core_nrf51422_xxAC.a(aes_cmac.c.obj)
 .rodata._DoInit.str1.1
                0x0002d0dc       0x14 external/rtt/librtt_nrf51422_xxAC.a(SEGGER_RTT.c.obj)
 .rodata._aV2C.4374
                0x0002d0f0       0x10 external/rtt/librtt_nrf51422_xxAC.a(SEGGER_RTT_printf.c.obj)
 .rodata.curve_secp256r1
                0x0002d100       0xb0 external/micro-ecc/libuECC_nrf51422_xxAC.a(uECC.c.obj)
 .rodata._global_impure_ptr
                0x0002d1b0        0x4 c:/a/gcc_arm/6/bin/../lib/gcc/arm-none-eabi/6.3.1/../../../../arm-none-eabi/lib/thumb/v6-m\libc_nano.a(lib_a-impure.o)
                0x0002d1b0                _global_impure_ptr
 *(.eh_frame*)
 .eh_frame      0x0002d1b4        0x0 c:/a/gcc_arm/6/bin/../lib/gcc/arm-none-eabi/6.3.1/thumb/v6-m/crtbegin.o
 .eh_frame      0x0002d1b4        0x4 c:/a/gcc_arm/6/bin/../lib/gcc/arm-none-eabi/6.3.1/thumb/v6-m/crtend.o

.glue_7         0x0002d1b8        0x0
 .glue_7        0x0002d1b8        0x0 linker stubs

.glue_7t        0x0002d1b8        0x0
 .glue_7t       0x0002d1b8        0x0 linker stubs

.vfp11_veneer   0x0002d1b8        0x0
 .vfp11_veneer  0x0002d1b8        0x0 linker stubs

.v4_bx          0x0002d1b8        0x0
 .v4_bx         0x0002d1b8        0x0 linker stubs

.iplt           0x0002d1b8        0x0
 .iplt          0x0002d1b8        0x0 c:/a/gcc_arm/6/bin/../lib/gcc/arm-none-eabi/6.3.1/thumb/v6-m/crtbegin.o

.ARM.extab
 *(.ARM.extab* .gnu.linkonce.armextab.*)
                0x0002d1b8                __exidx_start = .

.ARM.exidx      0x0002d1b8        0x8
 *(.ARM.exidx* .gnu.linkonce.armexidx.*)
 .ARM.exidx     0x0002d1b8        0x8 c:/a/gcc_arm/6/bin/../lib/gcc/arm-none-eabi/6.3.1/../../../../arm-none-eabi/lib/thumb/v6-m/crt0.o
                0x0002d1c0                __exidx_end = .
                0x0002d1c0                __etext = .

.rel.dyn        0x0002d1c0        0x0
 .rel.iplt      0x0002d1c0        0x0 c:/a/gcc_arm/6/bin/../lib/gcc/arm-none-eabi/6.3.1/thumb/v6-m/crtbegin.o

.data           0x200022d8      0x118 load address 0x0002d1c0
                0x200022d8                __data_start__ = .
 *(vtable)
 *(.data*)
 .data.m_config_server_handle
                0x200022d8        0x2 examples/light_switch/server/CMakeFiles/light_switch_server_nrf51422_xxAC_s130_2.0.1.dir/__/__/__/models/config/src/config_server.c.obj
 *fill*         0x200022da        0x2 
 .data.flash_add_mem_available_struct.7843
                0x200022dc       0x10 examples/light_switch/server/CMakeFiles/light_switch_server_nrf51422_xxAC_s130_2.0.1.dir/__/__/__/mesh/access/src/access.c.obj
 .data.flash_clear_mem_available_struct.7932
                0x200022ec       0x10 examples/light_switch/server/CMakeFiles/light_switch_server_nrf51422_xxAC_s130_2.0.1.dir/__/__/__/mesh/access/src/access.c.obj
 .data.flash_store_mem_available_struct.7956
                0x200022fc       0x10 examples/light_switch/server/CMakeFiles/light_switch_server_nrf51422_xxAC_s130_2.0.1.dir/__/__/__/mesh/access/src/access.c.obj
 .data.m_default_ttl
                0x2000230c        0x1 examples/light_switch/server/CMakeFiles/light_switch_server_nrf51422_xxAC_s130_2.0.1.dir/__/__/__/mesh/access/src/access.c.obj
 *fill*         0x2000230d        0x3 
 .data.mem_listener.8095
                0x20002310       0x10 examples/light_switch/server/CMakeFiles/light_switch_server_nrf51422_xxAC_s130_2.0.1.dir/__/__/__/mesh/access/src/device_state_manager.c.obj
 .data.mem_listener.8121
                0x20002320       0x10 examples/light_switch/server/CMakeFiles/light_switch_server_nrf51422_xxAC_s130_2.0.1.dir/__/__/__/mesh/access/src/device_state_manager.c.obj
 .data.m_unprov_report
                0x20002330        0x1 examples/light_switch/server/CMakeFiles/light_switch_server_nrf51422_xxAC_s130_2.0.1.dir/__/__/__/mesh/prov/src/prov_beacon.c.obj
 *fill*         0x20002331        0x3 
 .data.m_async_process_flag
                0x20002334        0x4 examples/light_switch/server/CMakeFiles/light_switch_server_nrf51422_xxAC_s130_2.0.1.dir/__/__/__/mesh/prov/src/prov_bearer_adv.c.obj
 .data.SystemCoreClock
                0x20002338        0x4 examples/light_switch/server/CMakeFiles/light_switch_server_nrf51422_xxAC_s130_2.0.1.dir/__/__/__/external/nRF5_SDK_14.0.0_3bcc1f7/components/toolchain/system_nrf51.c.obj
                0x20002338                SystemCoreClock
 .data.mem_listener.7315
                0x2000233c       0x10 mesh/core/libmesh_core_nrf51422_xxAC.a(net_state.c.obj)
 .data.mem_listener.7320
                0x2000234c       0x10 mesh/core/libmesh_core_nrf51422_xxAC.a(net_state.c.obj)
 .data.mem_listener.7334
                0x2000235c       0x10 mesh/core/libmesh_core_nrf51422_xxAC.a(net_state.c.obj)
 .data.g_log_debug_level
                0x2000236c        0x4 mesh/core/libmesh_core_nrf51422_xxAC.a(log.c.obj)
                0x2000236c                g_log_debug_level
 .data.g_log_debug_msk
                0x20002370        0x4 mesh/core/libmesh_core_nrf51422_xxAC.a(log.c.obj)
                0x20002370                g_log_debug_msk
 .data.g_log_hex_digits
                0x20002374        0x4 mesh/core/libmesh_core_nrf51422_xxAC.a(log.c.obj)
                0x20002374                g_log_hex_digits
 .data.m_log_callback
                0x20002378        0x4 mesh/core/libmesh_core_nrf51422_xxAC.a(log.c.obj)
                0x20002378                m_log_callback
 .data.g_rng_function
                0x2000237c        0x4 external/micro-ecc/libuECC_nrf51422_xxAC.a(uECC.c.obj)
 .data._impure_ptr
                0x20002380        0x4 c:/a/gcc_arm/6/bin/../lib/gcc/arm-none-eabi/6.3.1/../../../../arm-none-eabi/lib/thumb/v6-m\libc_nano.a(lib_a-impure.o)
                0x20002380                _impure_ptr
 .data.impure_data
                0x20002384       0x60 c:/a/gcc_arm/6/bin/../lib/gcc/arm-none-eabi/6.3.1/../../../../arm-none-eabi/lib/thumb/v6-m\libc_nano.a(lib_a-impure.o)
                0x200023e4                . = ALIGN (0x4)
                0x200023e4                PROVIDE (__preinit_array_start, .)
 *(.preinit_array)
                0x200023e4                PROVIDE (__preinit_array_end, .)
                0x200023e4                . = ALIGN (0x4)
                0x200023e4                PROVIDE (__init_array_start, .)
 *(SORT(.init_array.*))
 *(.init_array)
 .init_array    0x200023e4        0x4 c:/a/gcc_arm/6/bin/../lib/gcc/arm-none-eabi/6.3.1/thumb/v6-m/crtbegin.o
                0x200023e8                PROVIDE (__init_array_end, .)
                0x200023e8                . = ALIGN (0x4)
                [!provide]                PROVIDE (__fini_array_start, .)
 *(SORT(.fini_array.*))
 *(.fini_array)
 .fini_array    0x200023e8        0x4 c:/a/gcc_arm/6/bin/../lib/gcc/arm-none-eabi/6.3.1/thumb/v6-m/crtbegin.o
                [!provide]                PROVIDE (__fini_array_end, .)
 *(.jcr*)
 .jcr           0x200023ec        0x0 c:/a/gcc_arm/6/bin/../lib/gcc/arm-none-eabi/6.3.1/thumb/v6-m/crtbegin.o
 .jcr           0x200023ec        0x4 c:/a/gcc_arm/6/bin/../lib/gcc/arm-none-eabi/6.3.1/thumb/v6-m/crtend.o
                0x200023f0                . = ALIGN (0x4)
                0x200023f0                __data_end__ = .

.igot.plt       0x200023f0        0x0 load address 0x0002d2d8
 .igot.plt      0x200023f0        0x0 c:/a/gcc_arm/6/bin/../lib/gcc/arm-none-eabi/6.3.1/thumb/v6-m/crtbegin.o

.bss            0x200023f0     0x2e38 load address 0x0002d2d8
                0x200023f0                . = ALIGN (0x4)
                0x200023f0                __bss_start__ = .
 *(.bss*)
 .bss           0x200023f0       0x1c c:/a/gcc_arm/6/bin/../lib/gcc/arm-none-eabi/6.3.1/thumb/v6-m/crtbegin.o
 .bss.config_params.8080
                0x2000240c       0x3c examples/light_switch/server/CMakeFiles/light_switch_server_nrf51422_xxAC_s130_2.0.1.dir/src/main.c.obj
 .bss.m_server  0x20002448        0xc examples/light_switch/server/CMakeFiles/light_switch_server_nrf51422_xxAC_s130_2.0.1.dir/src/main.c.obj
 .bss.m_ble_evt_buffer
                0x20002454       0x47 examples/light_switch/server/CMakeFiles/light_switch_server_nrf51422_xxAC_s130_2.0.1.dir/__/__/nrf_mesh_sdk.c.obj
 *fill*         0x2000249b        0x1 
 .bss.m_attention_timer
                0x2000249c       0x18 examples/light_switch/server/CMakeFiles/light_switch_server_nrf51422_xxAC_s130_2.0.1.dir/__/__/__/models/health/src/health_server.c.obj
 .bss.mp_attention_list
                0x200024b4        0x4 examples/light_switch/server/CMakeFiles/light_switch_server_nrf51422_xxAC_s130_2.0.1.dir/__/__/__/models/health/src/health_server.c.obj
 .bss.m_publish_timer
                0x200024b8       0x18 examples/light_switch/server/CMakeFiles/light_switch_server_nrf51422_xxAC_s130_2.0.1.dir/__/__/__/mesh/access/src/access_publish.c.obj
 .bss.m_publish_timer_counter
                0x200024d0        0x4 examples/light_switch/server/CMakeFiles/light_switch_server_nrf51422_xxAC_s130_2.0.1.dir/__/__/__/mesh/access/src/access_publish.c.obj
 .bss.m_publish_timer_running
                0x200024d4        0x1 examples/light_switch/server/CMakeFiles/light_switch_server_nrf51422_xxAC_s130_2.0.1.dir/__/__/__/mesh/access/src/access_publish.c.obj
 .bss.m_timer_resolution
                0x200024d5        0x1 examples/light_switch/server/CMakeFiles/light_switch_server_nrf51422_xxAC_s130_2.0.1.dir/__/__/__/mesh/access/src/access_publish.c.obj
 *fill*         0x200024d6        0x2 
 .bss.mp_publication_list
                0x200024d8        0x4 examples/light_switch/server/CMakeFiles/light_switch_server_nrf51422_xxAC_s130_2.0.1.dir/__/__/__/mesh/access/src/access_publish.c.obj
 .bss.m_element_pool
                0x200024dc        0x6 examples/light_switch/server/CMakeFiles/light_switch_server_nrf51422_xxAC_s130_2.0.1.dir/__/__/__/mesh/access/src/access.c.obj
 *fill*         0x200024e2        0x2 
 .bss.m_evt_handler
                0x200024e4        0x8 examples/light_switch/server/CMakeFiles/light_switch_server_nrf51422_xxAC_s130_2.0.1.dir/__/__/__/mesh/access/src/access.c.obj
 .bss.m_flash_manager
                0x200024ec       0x24 examples/light_switch/server/CMakeFiles/light_switch_server_nrf51422_xxAC_s130_2.0.1.dir/__/__/__/mesh/access/src/access.c.obj
 .bss.m_flash_not_ready
                0x20002510        0x1 examples/light_switch/server/CMakeFiles/light_switch_server_nrf51422_xxAC_s130_2.0.1.dir/__/__/__/mesh/access/src/access.c.obj
 .bss.m_metadata_stored
                0x20002511        0x1 examples/light_switch/server/CMakeFiles/light_switch_server_nrf51422_xxAC_s130_2.0.1.dir/__/__/__/mesh/access/src/access.c.obj
 *fill*         0x20002512        0x2 
 .bss.m_model_pool
                0x20002514       0x9c examples/light_switch/server/CMakeFiles/light_switch_server_nrf51422_xxAC_s130_2.0.1.dir/__/__/__/mesh/access/src/access.c.obj
 .bss.m_subscription_list_pool
                0x200025b0        0x8 examples/light_switch/server/CMakeFiles/light_switch_server_nrf51422_xxAC_s130_2.0.1.dir/__/__/__/mesh/access/src/access.c.obj
 .bss.m_reliable
                0x200025b8       0x94 examples/light_switch/server/CMakeFiles/light_switch_server_nrf51422_xxAC_s130_2.0.1.dir/__/__/__/mesh/access/src/access_reliable.c.obj
 .bss.m_addr_nonvirtual_allocated
                0x2000264c        0x4 examples/light_switch/server/CMakeFiles/light_switch_server_nrf51422_xxAC_s130_2.0.1.dir/__/__/__/mesh/access/src/device_state_manager.c.obj
 .bss.m_addr_nonvirtual_needs_flashing
                0x20002650        0x4 examples/light_switch/server/CMakeFiles/light_switch_server_nrf51422_xxAC_s130_2.0.1.dir/__/__/__/mesh/access/src/device_state_manager.c.obj
 .bss.m_addr_unicast_allocated
                0x20002654        0x4 examples/light_switch/server/CMakeFiles/light_switch_server_nrf51422_xxAC_s130_2.0.1.dir/__/__/__/mesh/access/src/device_state_manager.c.obj
 .bss.m_addr_unicast_needs_flashing
                0x20002658        0x4 examples/light_switch/server/CMakeFiles/light_switch_server_nrf51422_xxAC_s130_2.0.1.dir/__/__/__/mesh/access/src/device_state_manager.c.obj
 .bss.m_addr_virtual_allocated
                0x2000265c        0x4 examples/light_switch/server/CMakeFiles/light_switch_server_nrf51422_xxAC_s130_2.0.1.dir/__/__/__/mesh/access/src/device_state_manager.c.obj
 .bss.m_addr_virtual_needs_flashing
                0x20002660        0x4 examples/light_switch/server/CMakeFiles/light_switch_server_nrf51422_xxAC_s130_2.0.1.dir/__/__/__/mesh/access/src/device_state_manager.c.obj
 .bss.m_addresses
                0x20002664        0xc examples/light_switch/server/CMakeFiles/light_switch_server_nrf51422_xxAC_s130_2.0.1.dir/__/__/__/mesh/access/src/device_state_manager.c.obj
 .bss.m_appkey_allocated
                0x20002670        0x4 examples/light_switch/server/CMakeFiles/light_switch_server_nrf51422_xxAC_s130_2.0.1.dir/__/__/__/mesh/access/src/device_state_manager.c.obj
 .bss.m_appkey_needs_flashing
                0x20002674        0x4 examples/light_switch/server/CMakeFiles/light_switch_server_nrf51422_xxAC_s130_2.0.1.dir/__/__/__/mesh/access/src/device_state_manager.c.obj
 .bss.m_appkeys
                0x20002678       0x16 examples/light_switch/server/CMakeFiles/light_switch_server_nrf51422_xxAC_s130_2.0.1.dir/__/__/__/mesh/access/src/device_state_manager.c.obj
 *fill*         0x2000268e        0x2 
 .bss.m_devkey_allocated
                0x20002690        0x4 examples/light_switch/server/CMakeFiles/light_switch_server_nrf51422_xxAC_s130_2.0.1.dir/__/__/__/mesh/access/src/device_state_manager.c.obj
 .bss.m_devkey_needs_flashing
                0x20002694        0x4 examples/light_switch/server/CMakeFiles/light_switch_server_nrf51422_xxAC_s130_2.0.1.dir/__/__/__/mesh/access/src/device_state_manager.c.obj
 .bss.m_devkeys
                0x20002698       0x16 examples/light_switch/server/CMakeFiles/light_switch_server_nrf51422_xxAC_s130_2.0.1.dir/__/__/__/mesh/access/src/device_state_manager.c.obj
 .bss.m_flash_is_available
                0x200026ae        0x1 examples/light_switch/server/CMakeFiles/light_switch_server_nrf51422_xxAC_s130_2.0.1.dir/__/__/__/mesh/access/src/device_state_manager.c.obj
 *fill*         0x200026af        0x1 
 .bss.m_flash_manager
                0x200026b0       0x24 examples/light_switch/server/CMakeFiles/light_switch_server_nrf51422_xxAC_s130_2.0.1.dir/__/__/__/mesh/access/src/device_state_manager.c.obj
 .bss.m_flash_mem_listener_update_all
                0x200026d4       0x10 examples/light_switch/server/CMakeFiles/light_switch_server_nrf51422_xxAC_s130_2.0.1.dir/__/__/__/mesh/access/src/device_state_manager.c.obj
 .bss.m_has_primary_subnet
                0x200026e4        0x1 examples/light_switch/server/CMakeFiles/light_switch_server_nrf51422_xxAC_s130_2.0.1.dir/__/__/__/mesh/access/src/device_state_manager.c.obj
 *fill*         0x200026e5        0x1 
 .bss.m_local_unicast_addr
                0x200026e6        0x4 examples/light_switch/server/CMakeFiles/light_switch_server_nrf51422_xxAC_s130_2.0.1.dir/__/__/__/mesh/access/src/device_state_manager.c.obj
 *fill*         0x200026ea        0x2 
 .bss.m_subnet_allocated
                0x200026ec        0x4 examples/light_switch/server/CMakeFiles/light_switch_server_nrf51422_xxAC_s130_2.0.1.dir/__/__/__/mesh/access/src/device_state_manager.c.obj
 .bss.m_subnet_needs_flashing
                0x200026f0        0x4 examples/light_switch/server/CMakeFiles/light_switch_server_nrf51422_xxAC_s130_2.0.1.dir/__/__/__/mesh/access/src/device_state_manager.c.obj
 .bss.m_subnets
                0x200026f4       0x5c examples/light_switch/server/CMakeFiles/light_switch_server_nrf51422_xxAC_s130_2.0.1.dir/__/__/__/mesh/access/src/device_state_manager.c.obj
 .bss.m_virtual_addresses
                0x20002750       0x14 examples/light_switch/server/CMakeFiles/light_switch_server_nrf51422_xxAC_s130_2.0.1.dir/__/__/__/mesh/access/src/device_state_manager.c.obj
 .bss.m_offload_ecdh
                0x20002764        0x1 examples/light_switch/server/CMakeFiles/light_switch_server_nrf51422_xxAC_s130_2.0.1.dir/__/__/__/mesh/prov/src/prov_utils.c.obj
 *fill*         0x20002765        0x3 
 .bss.mp_bearer_head
                0x20002768        0x4 examples/light_switch/server/CMakeFiles/light_switch_server_nrf51422_xxAC_s130_2.0.1.dir/__/__/__/mesh/prov/src/prov_bearer_adv.c.obj
 .bss.m_evt_handler
                0x2000276c        0x8 examples/light_switch/server/CMakeFiles/light_switch_server_nrf51422_xxAC_s130_2.0.1.dir/__/__/__/mesh/access/src/nrf_mesh_node_config.c.obj
 .bss.m_health_server
                0x20002774       0x5c examples/light_switch/server/CMakeFiles/light_switch_server_nrf51422_xxAC_s130_2.0.1.dir/__/__/__/mesh/access/src/nrf_mesh_node_config.c.obj
 .bss.m_node_provisioned
                0x200027d0        0x1 examples/light_switch/server/CMakeFiles/light_switch_server_nrf51422_xxAC_s130_2.0.1.dir/__/__/__/mesh/access/src/nrf_mesh_node_config.c.obj
 .bss.m_private_key
                0x200027d1       0x20 examples/light_switch/server/CMakeFiles/light_switch_server_nrf51422_xxAC_s130_2.0.1.dir/__/__/__/mesh/access/src/nrf_mesh_node_config.c.obj
 *fill*         0x200027f1        0x3 
 .bss.m_prov_ctx
                0x200027f4      0x2fc examples/light_switch/server/CMakeFiles/light_switch_server_nrf51422_xxAC_s130_2.0.1.dir/__/__/__/mesh/access/src/nrf_mesh_node_config.c.obj
 .bss.m_public_key
                0x20002af0       0x40 examples/light_switch/server/CMakeFiles/light_switch_server_nrf51422_xxAC_s130_2.0.1.dir/__/__/__/mesh/access/src/nrf_mesh_node_config.c.obj
 .bss.mp_init_params
                0x20002b30        0x4 examples/light_switch/server/CMakeFiles/light_switch_server_nrf51422_xxAC_s130_2.0.1.dir/__/__/__/mesh/access/src/nrf_mesh_node_config.c.obj
 .bss.m_uuid    0x20002b34       0x10 mesh/core/libmesh_core_nrf51422_xxAC.a(nrf_mesh_configure.c.obj)
 .bss.mp_evt_handlers_head
                0x20002b44        0x4 mesh/core/libmesh_core_nrf51422_xxAC.a(event.c.obj)
 .bss.lock_count.7374
                0x20002b48        0x4 mesh/core/libmesh_core_nrf51422_xxAC.a(net_state.c.obj)
 .bss.m_flash_manager
                0x20002b4c       0x24 mesh/core/libmesh_core_nrf51422_xxAC.a(net_state.c.obj)
 .bss.m_iv_update_timer
                0x20002b70       0x18 mesh/core/libmesh_core_nrf51422_xxAC.a(net_state.c.obj)
 .bss.m_net_state
                0x20002b88       0x14 mesh/core/libmesh_core_nrf51422_xxAC.a(net_state.c.obj)
 .bss.m_seqnum_allocation_in_progress
                0x20002b9c        0x1 mesh/core/libmesh_core_nrf51422_xxAC.a(net_state.c.obj)
 .bss.m_test_mode
                0x20002b9d        0x1 mesh/core/libmesh_core_nrf51422_xxAC.a(net_state.c.obj)
 .bss.m_is_enabled
                0x20002b9e        0x1 mesh/core/libmesh_core_nrf51422_xxAC.a(nrf_mesh.c.obj)
 .bss.m_is_initialized
                0x20002b9f        0x1 mesh/core/libmesh_core_nrf51422_xxAC.a(nrf_mesh.c.obj)
 .bss.m_rx_cb   0x20002ba0        0x4 mesh/core/libmesh_core_nrf51422_xxAC.a(nrf_mesh.c.obj)
 .bss.m_event_flag
                0x20002ba4        0x4 mesh/core/libmesh_core_nrf51422_xxAC.a(timer_scheduler.c.obj)
 .bss.m_scheduler
                0x20002ba8       0x10 mesh/core/libmesh_core_nrf51422_xxAC.a(timer_scheduler.c.obj)
 .bss.m_attributes
                0x20002bb8        0x3 mesh/core/libmesh_core_nrf51422_xxAC.a(timer.c.obj)
 *fill*         0x20002bbb        0x1 
 .bss.m_callbacks
                0x20002bbc        0xc mesh/core/libmesh_core_nrf51422_xxAC.a(timer.c.obj)
 .bss.m_is_in_ts
                0x20002bc8        0x1 mesh/core/libmesh_core_nrf51422_xxAC.a(timer.c.obj)
 *fill*         0x20002bc9        0x3 
 .bss.m_reference_time
                0x20002bcc        0x4 mesh/core/libmesh_core_nrf51422_xxAC.a(timer.c.obj)
 .bss.m_timeouts
                0x20002bd0        0xc mesh/core/libmesh_core_nrf51422_xxAC.a(timer.c.obj)
 .bss.m_timer_mut
                0x20002bdc        0x4 mesh/core/libmesh_core_nrf51422_xxAC.a(timer.c.obj)
 .bss.m_ts_end_time
                0x20002be0        0x4 mesh/core/libmesh_core_nrf51422_xxAC.a(timer.c.obj)
 .bss.mp_ppi_tasks
                0x20002be4        0xc mesh/core/libmesh_core_nrf51422_xxAC.a(timer.c.obj)
 .bss.m_current_time
                0x20002bf0        0x4 mesh/core/libmesh_core_nrf51422_xxAC.a(ticker.c.obj)
 .bss.m_timer   0x20002bf4       0x18 mesh/core/libmesh_core_nrf51422_xxAC.a(ticker.c.obj)
 .bss.m_current_timeslot
                0x20002c0c       0x1c mesh/core/libmesh_core_nrf51422_xxAC.a(timeslot.c.obj)
 .bss.m_lfclk_ppm
                0x20002c28        0x4 mesh/core/libmesh_core_nrf51422_xxAC.a(timeslot.c.obj)
 .bss.m_radio_request_earliest
                0x20002c2c       0x10 mesh/core/libmesh_core_nrf51422_xxAC.a(timeslot.c.obj)
 .bss.m_state_lock
                0x20002c3c        0x1 mesh/core/libmesh_core_nrf51422_xxAC.a(timeslot.c.obj)
 .bss.m_timeslot_forced_command
                0x20002c3d        0x1 mesh/core/libmesh_core_nrf51422_xxAC.a(timeslot.c.obj)
 *fill*         0x20002c3e        0x2 
 .bss.s_last_rtc_value.6639
                0x20002c40        0x8 mesh/core/libmesh_core_nrf51422_xxAC.a(timeslot.c.obj)
 .bss.m_bearer_event_fifo
                0x20002c48       0x14 mesh/core/libmesh_core_nrf51422_xxAC.a(bearer_event.c.obj)
 .bss.m_bearer_event_fifo_buffer
                0x20002c5c      0x100 mesh/core/libmesh_core_nrf51422_xxAC.a(bearer_event.c.obj)
 .bss.m_critical
                0x20002d5c        0x4 mesh/core/libmesh_core_nrf51422_xxAC.a(bearer_event.c.obj)
 .bss.m_flag_count
                0x20002d60        0x4 mesh/core/libmesh_core_nrf51422_xxAC.a(bearer_event.c.obj)
 .bss.m_flag_event_callbacks
                0x20002d64       0x18 mesh/core/libmesh_core_nrf51422_xxAC.a(bearer_event.c.obj)
 .bss.m_flags   0x20002d7c        0x4 mesh/core/libmesh_core_nrf51422_xxAC.a(bearer_event.c.obj)
 .bss.m_sequential_event_queue
                0x20002d80        0x8 mesh/core/libmesh_core_nrf51422_xxAC.a(bearer_event.c.obj)
 .bss.m_relay_check_cb
                0x20002d88        0x4 mesh/core/libmesh_core_nrf51422_xxAC.a(network.c.obj)
 .bss.m_relay_enable
                0x20002d8c        0x1 mesh/core/libmesh_core_nrf51422_xxAC.a(network.c.obj)
 *fill*         0x20002d8d        0x3 
 .bss.m_action_queue
                0x20002d90        0xc mesh/core/libmesh_core_nrf51422_xxAC.a(flash_manager.c.obj)
 .bss.m_action_queue_buffer
                0x20002d9c      0x104 mesh/core/libmesh_core_nrf51422_xxAC.a(flash_manager.c.obj)
 .bss.m_action_state
                0x20002ea0        0x1 mesh/core/libmesh_core_nrf51422_xxAC.a(flash_manager.c.obj)
 *fill*         0x20002ea1        0x3 
 .bss.m_memory_listener_queue
                0x20002ea4        0x8 mesh/core/libmesh_core_nrf51422_xxAC.a(flash_manager.c.obj)
 .bss.m_processing_flag
                0x20002eac        0x4 mesh/core/libmesh_core_nrf51422_xxAC.a(flash_manager.c.obj)
 .bss.m_state   0x20002eb0        0x1 mesh/core/libmesh_core_nrf51422_xxAC.a(flash_manager.c.obj)
 *fill*         0x20002eb1        0x1 
 .bss.m_token   0x20002eb2        0x2 mesh/core/libmesh_core_nrf51422_xxAC.a(flash_manager.c.obj)
 .bss.p_current.8491
                0x20002eb4        0x4 mesh/core/libmesh_core_nrf51422_xxAC.a(flash_manager.c.obj)
 .bss.result.8492
                0x20002eb8        0x1 mesh/core/libmesh_core_nrf51422_xxAC.a(flash_manager.c.obj)
 *fill*         0x20002eb9        0x3 
 .bss.m_adv_buffer
                0x20002ebc       0x68 mesh/core/libmesh_core_nrf51422_xxAC.a(beacon.c.obj)
 .bss.m_advertiser
                0x20002f24       0x94 mesh/core/libmesh_core_nrf51422_xxAC.a(beacon.c.obj)
 .bss.m_adv_tx_count
                0x20002fb8        0x8 mesh/core/libmesh_core_nrf51422_xxAC.a(core_tx.c.obj)
 .bss.m_advertisers
                0x20002fc0      0x128 mesh/core/libmesh_core_nrf51422_xxAC.a(core_tx.c.obj)
 .bss.m_originator_adv_packet_buffer
                0x200030e8      0x100 mesh/core/libmesh_core_nrf51422_xxAC.a(core_tx.c.obj)
 .bss.m_relay_adv_packet_buffer
                0x200031e8       0x80 mesh/core/libmesh_core_nrf51422_xxAC.a(core_tx.c.obj)
 .bss.m_tx_complete_callback
                0x20003268        0x4 mesh/core/libmesh_core_nrf51422_xxAC.a(core_tx.c.obj)
 .bss.m_beacon_salt
                0x2000326c       0x10 mesh/core/libmesh_core_nrf51422_xxAC.a(net_beacon.c.obj)
 .bss.m_enabled
                0x2000327c        0x1 mesh/core/libmesh_core_nrf51422_xxAC.a(net_beacon.c.obj)
 *fill*         0x2000327d        0x3 
 .bss.m_tx_event
                0x20003280       0x18 mesh/core/libmesh_core_nrf51422_xxAC.a(net_beacon.c.obj)
 .bss.m_adv_prng
                0x20003298       0x10 mesh/core/libmesh_core_nrf51422_xxAC.a(advertiser.c.obj)
 .bss.m_action_queue
                0x200032a8        0x8 mesh/core/libmesh_core_nrf51422_xxAC.a(bearer_handler.c.obj)
 .bss.m_end_time
                0x200032b0        0x4 mesh/core/libmesh_core_nrf51422_xxAC.a(bearer_handler.c.obj)
 .bss.m_scanner_is_active
                0x200032b4        0x1 mesh/core/libmesh_core_nrf51422_xxAC.a(bearer_handler.c.obj)
 .bss.m_stopped
                0x200032b5        0x1 mesh/core/libmesh_core_nrf51422_xxAC.a(bearer_handler.c.obj)
 *fill*         0x200032b6        0x2 
 .bss.mp_action
                0x200032b8        0x4 mesh/core/libmesh_core_nrf51422_xxAC.a(bearer_handler.c.obj)
 .bss.m_next_channel_index
                0x200032bc        0x1 mesh/core/libmesh_core_nrf51422_xxAC.a(broadcast.c.obj)
 *fill*         0x200032bd        0x3 
 .bss.m_scanner
                0x200032c0      0x284 mesh/core/libmesh_core_nrf51422_xxAC.a(scanner.c.obj)
 .bss.m_internal_event_fifo
                0x20003544       0x14 mesh/core/libmesh_core_nrf51422_xxAC.a(internal_event.c.obj)
 .bss.m_internal_event_initialized
                0x20003558        0x1 mesh/core/libmesh_core_nrf51422_xxAC.a(internal_event.c.obj)
 *fill*         0x20003559        0x3 
 .bss.m_report_cb
                0x2000355c        0x4 mesh/core/libmesh_core_nrf51422_xxAC.a(internal_event.c.obj)
 .bss.m_msg_cache
                0x20003560      0x100 mesh/core/libmesh_core_nrf51422_xxAC.a(msg_cache.c.obj)
 .bss.m_msg_cache_head
                0x20003660        0x4 mesh/core/libmesh_core_nrf51422_xxAC.a(msg_cache.c.obj)
 .bss.m_sar_alloc
                0x20003664        0x4 mesh/core/libmesh_core_nrf51422_xxAC.a(transport.c.obj)
 .bss.m_sar_process_flag
                0x20003668        0x4 mesh/core/libmesh_core_nrf51422_xxAC.a(transport.c.obj)
 .bss.m_sar_release
                0x2000366c        0x4 mesh/core/libmesh_core_nrf51422_xxAC.a(transport.c.obj)
 .bss.m_sar_session_cache
                0x20003670       0x40 mesh/core/libmesh_core_nrf51422_xxAC.a(transport.c.obj)
 .bss.m_sar_session_cache_head
                0x200036b0        0x4 mesh/core/libmesh_core_nrf51422_xxAC.a(transport.c.obj)
 .bss.m_trs_config
                0x200036b4       0x18 mesh/core/libmesh_core_nrf51422_xxAC.a(transport.c.obj)
 .bss.m_trs_sar_sessions
                0x200036cc      0x1b0 mesh/core/libmesh_core_nrf51422_xxAC.a(transport.c.obj)
 .bss.m_defrag  0x2000387c       0x1c mesh/core/libmesh_core_nrf51422_xxAC.a(flash_manager_defrag.c.obj)
 .bss.m_token   0x20003898        0x2 mesh/core/libmesh_core_nrf51422_xxAC.a(flash_manager_defrag.c.obj)
 *fill*         0x2000389a        0x2 
 .bss.mp_recovery_area
                0x2000389c        0x4 mesh/core/libmesh_core_nrf51422_xxAC.a(flash_manager_defrag.c.obj)
 .bss.p_null_ptr.7544
                0x200038a0        0x4 mesh/core/libmesh_core_nrf51422_xxAC.a(flash_manager_defrag.c.obj)
 .bss.m_pool    0x200038a4     0x1000 mesh/core/libmesh_core_nrf51422_xxAC.a(packet_mgr.c.obj)
 .bss.mp_free_head
                0x200048a4        0x4 mesh/core/libmesh_core_nrf51422_xxAC.a(packet_mgr.c.obj)
 .bss.m_event_flag
                0x200048a8        0x4 mesh/core/libmesh_core_nrf51422_xxAC.a(mesh_flash.c.obj)
 .bss.m_suspended
                0x200048ac        0x1 mesh/core/libmesh_core_nrf51422_xxAC.a(mesh_flash.c.obj)
 *fill*         0x200048ad        0x3 
 .bss.m_users   0x200048b0      0x228 mesh/core/libmesh_core_nrf51422_xxAC.a(mesh_flash.c.obj)
 .bss.m_128buf  0x20004ad8       0x10 mesh/core/libmesh_core_nrf51422_xxAC.a(aes_cmac.c.obj)
 .bss.m_subkey1
                0x20004ae8       0x10 mesh/core/libmesh_core_nrf51422_xxAC.a(aes_cmac.c.obj)
 .bss.m_subkey2
                0x20004af8       0x10 mesh/core/libmesh_core_nrf51422_xxAC.a(aes_cmac.c.obj)
 .bss.m_cache_full
                0x20004b08        0x1 mesh/core/libmesh_core_nrf51422_xxAC.a(replay_cache.c.obj)
 .bss.m_cache_index
                0x20004b09        0x1 mesh/core/libmesh_core_nrf51422_xxAC.a(replay_cache.c.obj)
 *fill*         0x20004b0a        0x2 
 .bss.m_replay_cache
                0x20004b0c      0x200 mesh/core/libmesh_core_nrf51422_xxAC.a(replay_cache.c.obj)
 .bss.m_accepted_amount
                0x20004d0c        0x4 mesh/core/libmesh_core_nrf51422_xxAC.a(filter_engine.c.obj)
 .bss.m_filter_list_head
                0x20004d10        0x4 mesh/core/libmesh_core_nrf51422_xxAC.a(filter_engine.c.obj)
 .bss._acDownBuffer
                0x20004d14       0x80 external/rtt/librtt_nrf51422_xxAC.a(SEGGER_RTT.c.obj)
 .bss._acUpBuffer
                0x20004d94      0x400 external/rtt/librtt_nrf51422_xxAC.a(SEGGER_RTT.c.obj)
 .bss.__malloc_free_list
                0x20005194        0x4 c:/a/gcc_arm/6/bin/../lib/gcc/arm-none-eabi/6.3.1/../../../../arm-none-eabi/lib/thumb/v6-m\libc_nano.a(lib_a-nano-mallocr.o)
                0x20005194                __malloc_free_list
 .bss.__malloc_sbrk_start
                0x20005198        0x4 c:/a/gcc_arm/6/bin/../lib/gcc/arm-none-eabi/6.3.1/../../../../arm-none-eabi/lib/thumb/v6-m\libc_nano.a(lib_a-nano-mallocr.o)
                0x20005198                __malloc_sbrk_start
 .bss.heap_end.4116
                0x2000519c        0x4 c:/a/gcc_arm/6/bin/../lib/gcc/arm-none-eabi/6.3.1/../../../../arm-none-eabi/lib/thumb/v6-m\libnosys.a(sbrk.o)
 *(COMMON)
 COMMON         0x200051a0        0x8 examples/light_switch/server/CMakeFiles/light_switch_server_nrf51422_xxAC_s130_2.0.1.dir/__/__/nrf_mesh_sdk.c.obj
                0x200051a0                nrf_nvic_state
 COMMON         0x200051a8        0x4 mesh/core/libmesh_core_nrf51422_xxAC.a(nrf_mesh.c.obj)
                0x200051a8                m_assertion_handler
 COMMON         0x200051ac       0x78 external/rtt/librtt_nrf51422_xxAC.a(SEGGER_RTT.c.obj)
                0x200051ac                _SEGGER_RTT
 COMMON         0x20005224        0x4 c:/a/gcc_arm/6/bin/../lib/gcc/arm-none-eabi/6.3.1/../../../../arm-none-eabi/lib/thumb/v6-m\libc_nano.a(lib_a-reent.o)
                0x20005224                errno
                0x20005228                . = ALIGN (0x4)
                0x20005228                __bss_end__ = .

.heap           0x20005228      0x800
                0x20005228                __HeapBase = .
                0x20005228                __end__ = .
                0x20005228                PROVIDE (end, .)
 *(.heap*)
 .heap          0x20005228      0x800 examples/light_switch/server/CMakeFiles/light_switch_server_nrf51422_xxAC_s130_2.0.1.dir/__/__/__/external/nRF5_SDK_14.0.0_3bcc1f7/components/toolchain/gcc/gcc_startup_nrf51.S.obj
                0x20005a28                __HeapLimit = .

.stack_dummy    0x20005228      0x800
 *(.stack*)
 .stack         0x20005228      0x800 examples/light_switch/server/CMakeFiles/light_switch_server_nrf51422_xxAC_s130_2.0.1.dir/__/__/__/external/nRF5_SDK_14.0.0_3bcc1f7/components/toolchain/gcc/gcc_startup_nrf51.S.obj
                0x20007d00                __StackTop = (ORIGIN (RAM) + LENGTH (RAM))
                0x20007500                __StackLimit = (__StackTop - SIZEOF (.stack_dummy))
                0x20007d00                PROVIDE (__stack, __StackTop)
                0x00000001                ASSERT ((__StackLimit >= __HeapLimit), region RAM overflowed with stack)
OUTPUT(examples\light_switch\server\light_switch_server_nrf51422_xxAC_s130_2.0.1.elf elf32-littlearm)

.ARM.attributes
                0x00000000       0x28
 .ARM.attributes
                0x00000000       0x1e c:/a/gcc_arm/6/bin/../lib/gcc/arm-none-eabi/6.3.1/thumb/v6-m/crti.o
 .ARM.attributes
                0x0000001e       0x2c c:/a/gcc_arm/6/bin/../lib/gcc/arm-none-eabi/6.3.1/thumb/v6-m/crtbegin.o
 .ARM.attributes
                0x0000004a       0x1b c:/a/gcc_arm/6/bin/../lib/gcc/arm-none-eabi/6.3.1/../../../../arm-none-eabi/lib/thumb/v6-m/crt0.o
 .ARM.attributes
                0x00000065       0x31 examples/light_switch/server/CMakeFiles/light_switch_server_nrf51422_xxAC_s130_2.0.1.dir/src/main.c.obj
 .ARM.attributes
                0x00000096       0x31 examples/light_switch/server/CMakeFiles/light_switch_server_nrf51422_xxAC_s130_2.0.1.dir/__/__/nrf_mesh_sdk.c.obj
 .ARM.attributes
                0x000000c7       0x31 examples/light_switch/server/CMakeFiles/light_switch_server_nrf51422_xxAC_s130_2.0.1.dir/__/__/hal/src/simple_hal.c.obj
 .ARM.attributes
                0x000000f8       0x31 examples/light_switch/server/CMakeFiles/light_switch_server_nrf51422_xxAC_s130_2.0.1.dir/__/__/nrf_mesh_weak.c.obj
 .ARM.attributes
                0x00000129       0x31 examples/light_switch/server/CMakeFiles/light_switch_server_nrf51422_xxAC_s130_2.0.1.dir/__/__/__/models/simple_on_off/src/simple_on_off_server.c.obj
 .ARM.attributes
                0x0000015a       0x31 examples/light_switch/server/CMakeFiles/light_switch_server_nrf51422_xxAC_s130_2.0.1.dir/__/__/__/models/config/src/composition_data.c.obj
 .ARM.attributes
                0x0000018b       0x31 examples/light_switch/server/CMakeFiles/light_switch_server_nrf51422_xxAC_s130_2.0.1.dir/__/__/__/models/config/src/config_server.c.obj
 .ARM.attributes
                0x000001bc       0x31 examples/light_switch/server/CMakeFiles/light_switch_server_nrf51422_xxAC_s130_2.0.1.dir/__/__/__/models/config/src/packed_index_list.c.obj
 .ARM.attributes
                0x000001ed       0x31 examples/light_switch/server/CMakeFiles/light_switch_server_nrf51422_xxAC_s130_2.0.1.dir/__/__/__/models/health/src/health_server.c.obj
 .ARM.attributes
                0x0000021e       0x31 examples/light_switch/server/CMakeFiles/light_switch_server_nrf51422_xxAC_s130_2.0.1.dir/__/__/__/mesh/access/src/access_publish.c.obj
 .ARM.attributes
                0x0000024f       0x31 examples/light_switch/server/CMakeFiles/light_switch_server_nrf51422_xxAC_s130_2.0.1.dir/__/__/__/mesh/access/src/access.c.obj
 .ARM.attributes
                0x00000280       0x31 examples/light_switch/server/CMakeFiles/light_switch_server_nrf51422_xxAC_s130_2.0.1.dir/__/__/__/mesh/access/src/access_reliable.c.obj
 .ARM.attributes
                0x000002b1       0x31 examples/light_switch/server/CMakeFiles/light_switch_server_nrf51422_xxAC_s130_2.0.1.dir/__/__/__/mesh/access/src/device_state_manager.c.obj
 .ARM.attributes
                0x000002e2       0x31 examples/light_switch/server/CMakeFiles/light_switch_server_nrf51422_xxAC_s130_2.0.1.dir/__/__/__/mesh/prov/src/prov_provisionee.c.obj
 .ARM.attributes
                0x00000313       0x31 examples/light_switch/server/CMakeFiles/light_switch_server_nrf51422_xxAC_s130_2.0.1.dir/__/__/__/mesh/prov/src/nrf_mesh_prov.c.obj
 .ARM.attributes
                0x00000344       0x31 examples/light_switch/server/CMakeFiles/light_switch_server_nrf51422_xxAC_s130_2.0.1.dir/__/__/__/mesh/prov/src/provisioning.c.obj
 .ARM.attributes
                0x00000375       0x31 examples/light_switch/server/CMakeFiles/light_switch_server_nrf51422_xxAC_s130_2.0.1.dir/__/__/__/mesh/prov/src/prov_beacon.c.obj
 .ARM.attributes
                0x000003a6       0x31 examples/light_switch/server/CMakeFiles/light_switch_server_nrf51422_xxAC_s130_2.0.1.dir/__/__/__/mesh/prov/src/prov_utils.c.obj
 .ARM.attributes
                0x000003d7       0x31 examples/light_switch/server/CMakeFiles/light_switch_server_nrf51422_xxAC_s130_2.0.1.dir/__/__/__/mesh/prov/src/prov_bearer_adv.c.obj
 .ARM.attributes
                0x00000408       0x31 examples/light_switch/server/CMakeFiles/light_switch_server_nrf51422_xxAC_s130_2.0.1.dir/__/__/__/mesh/access/src/nrf_mesh_node_config.c.obj
 .ARM.attributes
                0x00000439       0x31 examples/light_switch/server/CMakeFiles/light_switch_server_nrf51422_xxAC_s130_2.0.1.dir/__/__/__/external/nRF5_SDK_14.0.0_3bcc1f7/components/toolchain/system_nrf51.c.obj
 .ARM.attributes
                0x0000046a       0x1b examples/light_switch/server/CMakeFiles/light_switch_server_nrf51422_xxAC_s130_2.0.1.dir/__/__/__/external/nRF5_SDK_14.0.0_3bcc1f7/components/toolchain/gcc/gcc_startup_nrf51.S.obj
 .ARM.attributes
                0x00000485       0x31 mesh/core/libmesh_core_nrf51422_xxAC.a(nrf_mesh_configure.c.obj)
 .ARM.attributes
                0x000004b6       0x31 mesh/core/libmesh_core_nrf51422_xxAC.a(event.c.obj)
 .ARM.attributes
                0x000004e7       0x31 mesh/core/libmesh_core_nrf51422_xxAC.a(net_state.c.obj)
 .ARM.attributes
                0x00000518       0x31 mesh/core/libmesh_core_nrf51422_xxAC.a(nrf_mesh_utils.c.obj)
 .ARM.attributes
                0x00000549       0x31 mesh/core/libmesh_core_nrf51422_xxAC.a(nrf_mesh.c.obj)
 .ARM.attributes
                0x0000057a       0x31 mesh/core/libmesh_core_nrf51422_xxAC.a(hal.c.obj)
 .ARM.attributes
                0x000005ab       0x31 mesh/core/libmesh_core_nrf51422_xxAC.a(timer_scheduler.c.obj)
 .ARM.attributes
                0x000005dc       0x31 mesh/core/libmesh_core_nrf51422_xxAC.a(timer.c.obj)
 .ARM.attributes
                0x0000060d       0x31 mesh/core/libmesh_core_nrf51422_xxAC.a(ticker.c.obj)
 .ARM.attributes
                0x0000063e       0x31 mesh/core/libmesh_core_nrf51422_xxAC.a(rand.c.obj)
 .ARM.attributes
                0x0000066f       0x31 mesh/core/libmesh_core_nrf51422_xxAC.a(nrf_mesh_opt.c.obj)
 .ARM.attributes
                0x000006a0       0x31 mesh/core/libmesh_core_nrf51422_xxAC.a(timeslot.c.obj)
 .ARM.attributes
                0x000006d1       0x31 mesh/core/libmesh_core_nrf51422_xxAC.a(bearer_event.c.obj)
 .ARM.attributes
                0x00000702       0x31 mesh/core/libmesh_core_nrf51422_xxAC.a(enc.c.obj)
 .ARM.attributes
                0x00000733       0x31 mesh/core/libmesh_core_nrf51422_xxAC.a(network.c.obj)
 .ARM.attributes
                0x00000764       0x31 mesh/core/libmesh_core_nrf51422_xxAC.a(nrf_mesh_keygen.c.obj)
 .ARM.attributes
                0x00000795       0x31 mesh/core/libmesh_core_nrf51422_xxAC.a(log.c.obj)
 .ARM.attributes
                0x000007c6       0x31 mesh/core/libmesh_core_nrf51422_xxAC.a(flash_manager.c.obj)
 .ARM.attributes
                0x000007f7       0x31 mesh/core/libmesh_core_nrf51422_xxAC.a(ccm_soft.c.obj)
 .ARM.attributes
                0x00000828       0x31 mesh/core/libmesh_core_nrf51422_xxAC.a(beacon.c.obj)
 .ARM.attributes
                0x00000859       0x31 mesh/core/libmesh_core_nrf51422_xxAC.a(flash_manager_internal.c.obj)
 .ARM.attributes
                0x0000088a       0x31 mesh/core/libmesh_core_nrf51422_xxAC.a(core_tx.c.obj)
 .ARM.attributes
                0x000008bb       0x31 mesh/core/libmesh_core_nrf51422_xxAC.a(net_beacon.c.obj)
 .ARM.attributes
                0x000008ec       0x31 mesh/core/libmesh_core_nrf51422_xxAC.a(advertiser.c.obj)
 .ARM.attributes
                0x0000091d       0x31 mesh/core/libmesh_core_nrf51422_xxAC.a(bearer_handler.c.obj)
 .ARM.attributes
                0x0000094e       0x31 mesh/core/libmesh_core_nrf51422_xxAC.a(broadcast.c.obj)
 .ARM.attributes
                0x0000097f       0x31 mesh/core/libmesh_core_nrf51422_xxAC.a(radio_config.c.obj)
 .ARM.attributes
                0x000009b0       0x31 mesh/core/libmesh_core_nrf51422_xxAC.a(scanner.c.obj)
 .ARM.attributes
                0x000009e1       0x31 mesh/core/libmesh_core_nrf51422_xxAC.a(internal_event.c.obj)
 .ARM.attributes
                0x00000a12       0x31 mesh/core/libmesh_core_nrf51422_xxAC.a(aes.c.obj)
 .ARM.attributes
                0x00000a43       0x31 mesh/core/libmesh_core_nrf51422_xxAC.a(msg_cache.c.obj)
 .ARM.attributes
                0x00000a74       0x31 mesh/core/libmesh_core_nrf51422_xxAC.a(transport.c.obj)
 .ARM.attributes
                0x00000aa5       0x31 mesh/core/libmesh_core_nrf51422_xxAC.a(packet_buffer.c.obj)
 .ARM.attributes
                0x00000ad6       0x31 mesh/core/libmesh_core_nrf51422_xxAC.a(flash_manager_defrag.c.obj)
 .ARM.attributes
                0x00000b07       0x31 mesh/core/libmesh_core_nrf51422_xxAC.a(fifo.c.obj)
 .ARM.attributes
                0x00000b38       0x31 mesh/core/libmesh_core_nrf51422_xxAC.a(packet_mgr.c.obj)
 .ARM.attributes
                0x00000b69       0x31 mesh/core/libmesh_core_nrf51422_xxAC.a(mesh_flash.c.obj)
 .ARM.attributes
                0x00000b9a       0x31 mesh/core/libmesh_core_nrf51422_xxAC.a(queue.c.obj)
 .ARM.attributes
                0x00000bcb       0x31 mesh/core/libmesh_core_nrf51422_xxAC.a(aes_cmac.c.obj)
 .ARM.attributes
                0x00000bfc       0x31 mesh/core/libmesh_core_nrf51422_xxAC.a(msqueue.c.obj)
 .ARM.attributes
                0x00000c2d       0x31 mesh/core/libmesh_core_nrf51422_xxAC.a(replay_cache.c.obj)
 .ARM.attributes
                0x00000c5e       0x31 mesh/core/libmesh_core_nrf51422_xxAC.a(filter_engine.c.obj)
 .ARM.attributes
                0x00000c8f       0x31 mesh/core/libmesh_core_nrf51422_xxAC.a(nrf_flash.c.obj)
 .ARM.attributes
                0x00000cc0       0x31 external/rtt/librtt_nrf51422_xxAC.a(SEGGER_RTT.c.obj)
 .ARM.attributes
                0x00000cf1       0x31 external/rtt/librtt_nrf51422_xxAC.a(SEGGER_RTT_printf.c.obj)
 .ARM.attributes
                0x00000d22       0x31 external/micro-ecc/libuECC_nrf51422_xxAC.a(uECC.c.obj)
 .ARM.attributes
                0x00000d53       0x1e c:/a/gcc_arm/6/bin/../lib/gcc/arm-none-eabi/6.3.1/thumb/v6-m\libgcc.a(_thumb1_case_uqi.o)
 .ARM.attributes
                0x00000d71       0x1e c:/a/gcc_arm/6/bin/../lib/gcc/arm-none-eabi/6.3.1/thumb/v6-m\libgcc.a(_thumb1_case_shi.o)
 .ARM.attributes
                0x00000d8f       0x1e c:/a/gcc_arm/6/bin/../lib/gcc/arm-none-eabi/6.3.1/thumb/v6-m\libgcc.a(_thumb1_case_uhi.o)
 .ARM.attributes
                0x00000dad       0x1e c:/a/gcc_arm/6/bin/../lib/gcc/arm-none-eabi/6.3.1/thumb/v6-m\libgcc.a(_udivsi3.o)
 .ARM.attributes
                0x00000dcb       0x1e c:/a/gcc_arm/6/bin/../lib/gcc/arm-none-eabi/6.3.1/thumb/v6-m\libgcc.a(_divsi3.o)
 .ARM.attributes
                0x00000de9       0x1e c:/a/gcc_arm/6/bin/../lib/gcc/arm-none-eabi/6.3.1/thumb/v6-m\libgcc.a(_dvmd_tls.o)
 .ARM.attributes
                0x00000e07       0x2c c:/a/gcc_arm/6/bin/../lib/gcc/arm-none-eabi/6.3.1/thumb/v6-m\libgcc.a(_muldi3.o)
 .ARM.attributes
                0x00000e33       0x2c c:/a/gcc_arm/6/bin/../lib/gcc/arm-none-eabi/6.3.1/../../../../arm-none-eabi/lib/thumb/v6-m\libc_nano.a(lib_a-exit.o)
 .ARM.attributes
                0x00000e5f       0x2c c:/a/gcc_arm/6/bin/../lib/gcc/arm-none-eabi/6.3.1/../../../../arm-none-eabi/lib/thumb/v6-m\libc_nano.a(lib_a-impure.o)
 .ARM.attributes
                0x00000e8b       0x2c c:/a/gcc_arm/6/bin/../lib/gcc/arm-none-eabi/6.3.1/../../../../arm-none-eabi/lib/thumb/v6-m\libc_nano.a(lib_a-init.o)
 .ARM.attributes
                0x00000eb7       0x2c c:/a/gcc_arm/6/bin/../lib/gcc/arm-none-eabi/6.3.1/../../../../arm-none-eabi/lib/thumb/v6-m\libc_nano.a(lib_a-malloc.o)
 .ARM.attributes
                0x00000ee3       0x2c c:/a/gcc_arm/6/bin/../lib/gcc/arm-none-eabi/6.3.1/../../../../arm-none-eabi/lib/thumb/v6-m\libc_nano.a(lib_a-memcmp.o)
 .ARM.attributes
                0x00000f0f       0x2c c:/a/gcc_arm/6/bin/../lib/gcc/arm-none-eabi/6.3.1/../../../../arm-none-eabi/lib/thumb/v6-m\libc_nano.a(lib_a-memcpy-stub.o)
 .ARM.attributes
                0x00000f3b       0x2c c:/a/gcc_arm/6/bin/../lib/gcc/arm-none-eabi/6.3.1/../../../../arm-none-eabi/lib/thumb/v6-m\libc_nano.a(lib_a-memset.o)
 .ARM.attributes
                0x00000f67       0x2c c:/a/gcc_arm/6/bin/../lib/gcc/arm-none-eabi/6.3.1/../../../../arm-none-eabi/lib/thumb/v6-m\libc_nano.a(lib_a-nano-freer.o)
 .ARM.attributes
                0x00000f93       0x2c c:/a/gcc_arm/6/bin/../lib/gcc/arm-none-eabi/6.3.1/../../../../arm-none-eabi/lib/thumb/v6-m\libc_nano.a(lib_a-nano-mallocr.o)
 .ARM.attributes
                0x00000fbf       0x2c c:/a/gcc_arm/6/bin/../lib/gcc/arm-none-eabi/6.3.1/../../../../arm-none-eabi/lib/thumb/v6-m\libc_nano.a(lib_a-sbrkr.o)
 .ARM.attributes
                0x00000feb       0x2c c:/a/gcc_arm/6/bin/../lib/gcc/arm-none-eabi/6.3.1/../../../../arm-none-eabi/lib/thumb/v6-m\libc_nano.a(lib_a-strcpy.o)
 .ARM.attributes
                0x00001017       0x1c c:/a/gcc_arm/6/bin/../lib/gcc/arm-none-eabi/6.3.1/../../../../arm-none-eabi/lib/thumb/v6-m\libc_nano.a(lib_a-strlen.o)
 .ARM.attributes
                0x00001033       0x2c c:/a/gcc_arm/6/bin/../lib/gcc/arm-none-eabi/6.3.1/../../../../arm-none-eabi/lib/thumb/v6-m\libc_nano.a(lib_a-strrchr.o)
 .ARM.attributes
                0x0000105f       0x2c c:/a/gcc_arm/6/bin/../lib/gcc/arm-none-eabi/6.3.1/../../../../arm-none-eabi/lib/thumb/v6-m\libc_nano.a(lib_a-mlock.o)
 .ARM.attributes
                0x0000108b       0x2c c:/a/gcc_arm/6/bin/../lib/gcc/arm-none-eabi/6.3.1/../../../../arm-none-eabi/lib/thumb/v6-m\libc_nano.a(lib_a-reent.o)
 .ARM.attributes
                0x000010b7       0x2c c:/a/gcc_arm/6/bin/../lib/gcc/arm-none-eabi/6.3.1/../../../../arm-none-eabi/lib/thumb/v6-m\libc_nano.a(lib_a-strchr.o)
 .ARM.attributes
                0x000010e3       0x2c c:/a/gcc_arm/6/bin/../lib/gcc/arm-none-eabi/6.3.1/thumb/v6-m/crtend.o
 .ARM.attributes
                0x0000110f       0x1e c:/a/gcc_arm/6/bin/../lib/gcc/arm-none-eabi/6.3.1/thumb/v6-m/crtn.o
 .ARM.attributes
                0x0000112d       0x2c c:/a/gcc_arm/6/bin/../lib/gcc/arm-none-eabi/6.3.1/../../../../arm-none-eabi/lib/thumb/v6-m\libnosys.a(sbrk.o)
 .ARM.attributes
                0x00001159       0x2c c:/a/gcc_arm/6/bin/../lib/gcc/arm-none-eabi/6.3.1/../../../../arm-none-eabi/lib/thumb/v6-m\libnosys.a(_exit.o)

.comment        0x00000000       0x7f
 .comment       0x00000000       0x7f examples/light_switch/server/CMakeFiles/light_switch_server_nrf51422_xxAC_s130_2.0.1.dir/src/main.c.obj
                                 0x80 (size before relaxing)
 .comment       0x0000007f       0x80 examples/light_switch/server/CMakeFiles/light_switch_server_nrf51422_xxAC_s130_2.0.1.dir/__/__/nrf_mesh_sdk.c.obj
 .comment       0x0000007f       0x80 examples/light_switch/server/CMakeFiles/light_switch_server_nrf51422_xxAC_s130_2.0.1.dir/__/__/hal/src/simple_hal.c.obj
 .comment       0x0000007f       0x80 examples/light_switch/server/CMakeFiles/light_switch_server_nrf51422_xxAC_s130_2.0.1.dir/__/__/nrf_mesh_weak.c.obj
 .comment       0x0000007f       0x80 examples/light_switch/server/CMakeFiles/light_switch_server_nrf51422_xxAC_s130_2.0.1.dir/__/__/__/models/simple_on_off/src/simple_on_off_server.c.obj
 .comment       0x0000007f       0x80 examples/light_switch/server/CMakeFiles/light_switch_server_nrf51422_xxAC_s130_2.0.1.dir/__/__/__/models/config/src/composition_data.c.obj
 .comment       0x0000007f       0x80 examples/light_switch/server/CMakeFiles/light_switch_server_nrf51422_xxAC_s130_2.0.1.dir/__/__/__/models/config/src/config_server.c.obj
 .comment       0x0000007f       0x80 examples/light_switch/server/CMakeFiles/light_switch_server_nrf51422_xxAC_s130_2.0.1.dir/__/__/__/models/config/src/packed_index_list.c.obj
 .comment       0x0000007f       0x80 examples/light_switch/server/CMakeFiles/light_switch_server_nrf51422_xxAC_s130_2.0.1.dir/__/__/__/models/health/src/health_server.c.obj
 .comment       0x0000007f       0x80 examples/light_switch/server/CMakeFiles/light_switch_server_nrf51422_xxAC_s130_2.0.1.dir/__/__/__/mesh/access/src/access_publish.c.obj
 .comment       0x0000007f       0x80 examples/light_switch/server/CMakeFiles/light_switch_server_nrf51422_xxAC_s130_2.0.1.dir/__/__/__/mesh/access/src/access.c.obj
 .comment       0x0000007f       0x80 examples/light_switch/server/CMakeFiles/light_switch_server_nrf51422_xxAC_s130_2.0.1.dir/__/__/__/mesh/access/src/access_reliable.c.obj
 .comment       0x0000007f       0x80 examples/light_switch/server/CMakeFiles/light_switch_server_nrf51422_xxAC_s130_2.0.1.dir/__/__/__/mesh/access/src/device_state_manager.c.obj
 .comment       0x0000007f       0x80 examples/light_switch/server/CMakeFiles/light_switch_server_nrf51422_xxAC_s130_2.0.1.dir/__/__/__/mesh/prov/src/prov_provisionee.c.obj
 .comment       0x0000007f       0x80 examples/light_switch/server/CMakeFiles/light_switch_server_nrf51422_xxAC_s130_2.0.1.dir/__/__/__/mesh/prov/src/nrf_mesh_prov.c.obj
 .comment       0x0000007f       0x80 examples/light_switch/server/CMakeFiles/light_switch_server_nrf51422_xxAC_s130_2.0.1.dir/__/__/__/mesh/prov/src/provisioning.c.obj
 .comment       0x0000007f       0x80 examples/light_switch/server/CMakeFiles/light_switch_server_nrf51422_xxAC_s130_2.0.1.dir/__/__/__/mesh/prov/src/prov_beacon.c.obj
 .comment       0x0000007f       0x80 examples/light_switch/server/CMakeFiles/light_switch_server_nrf51422_xxAC_s130_2.0.1.dir/__/__/__/mesh/prov/src/prov_utils.c.obj
 .comment       0x0000007f       0x80 examples/light_switch/server/CMakeFiles/light_switch_server_nrf51422_xxAC_s130_2.0.1.dir/__/__/__/mesh/prov/src/prov_bearer_adv.c.obj
 .comment       0x0000007f       0x80 examples/light_switch/server/CMakeFiles/light_switch_server_nrf51422_xxAC_s130_2.0.1.dir/__/__/__/mesh/access/src/nrf_mesh_node_config.c.obj
 .comment       0x0000007f       0x80 examples/light_switch/server/CMakeFiles/light_switch_server_nrf51422_xxAC_s130_2.0.1.dir/__/__/__/external/nRF5_SDK_14.0.0_3bcc1f7/components/toolchain/system_nrf51.c.obj
 .comment       0x0000007f       0x80 mesh/core/libmesh_core_nrf51422_xxAC.a(nrf_mesh_configure.c.obj)
 .comment       0x0000007f       0x80 mesh/core/libmesh_core_nrf51422_xxAC.a(event.c.obj)
 .comment       0x0000007f       0x80 mesh/core/libmesh_core_nrf51422_xxAC.a(net_state.c.obj)
 .comment       0x0000007f       0x80 mesh/core/libmesh_core_nrf51422_xxAC.a(nrf_mesh_utils.c.obj)
 .comment       0x0000007f       0x80 mesh/core/libmesh_core_nrf51422_xxAC.a(nrf_mesh.c.obj)
 .comment       0x0000007f       0x80 mesh/core/libmesh_core_nrf51422_xxAC.a(hal.c.obj)
 .comment       0x0000007f       0x80 mesh/core/libmesh_core_nrf51422_xxAC.a(timer_scheduler.c.obj)
 .comment       0x0000007f       0x80 mesh/core/libmesh_core_nrf51422_xxAC.a(timer.c.obj)
 .comment       0x0000007f       0x80 mesh/core/libmesh_core_nrf51422_xxAC.a(ticker.c.obj)
 .comment       0x0000007f       0x80 mesh/core/libmesh_core_nrf51422_xxAC.a(rand.c.obj)
 .comment       0x0000007f       0x80 mesh/core/libmesh_core_nrf51422_xxAC.a(nrf_mesh_opt.c.obj)
 .comment       0x0000007f       0x80 mesh/core/libmesh_core_nrf51422_xxAC.a(timeslot.c.obj)
 .comment       0x0000007f       0x80 mesh/core/libmesh_core_nrf51422_xxAC.a(bearer_event.c.obj)
 .comment       0x0000007f       0x80 mesh/core/libmesh_core_nrf51422_xxAC.a(enc.c.obj)
 .comment       0x0000007f       0x80 mesh/core/libmesh_core_nrf51422_xxAC.a(network.c.obj)
 .comment       0x0000007f       0x80 mesh/core/libmesh_core_nrf51422_xxAC.a(nrf_mesh_keygen.c.obj)
 .comment       0x0000007f       0x80 mesh/core/libmesh_core_nrf51422_xxAC.a(log.c.obj)
 .comment       0x0000007f       0x80 mesh/core/libmesh_core_nrf51422_xxAC.a(flash_manager.c.obj)
 .comment       0x0000007f       0x80 mesh/core/libmesh_core_nrf51422_xxAC.a(ccm_soft.c.obj)
 .comment       0x0000007f       0x80 mesh/core/libmesh_core_nrf51422_xxAC.a(beacon.c.obj)
 .comment       0x0000007f       0x80 mesh/core/libmesh_core_nrf51422_xxAC.a(flash_manager_internal.c.obj)
 .comment       0x0000007f       0x80 mesh/core/libmesh_core_nrf51422_xxAC.a(core_tx.c.obj)
 .comment       0x0000007f       0x80 mesh/core/libmesh_core_nrf51422_xxAC.a(net_beacon.c.obj)
 .comment       0x0000007f       0x80 mesh/core/libmesh_core_nrf51422_xxAC.a(advertiser.c.obj)
 .comment       0x0000007f       0x80 mesh/core/libmesh_core_nrf51422_xxAC.a(bearer_handler.c.obj)
 .comment       0x0000007f       0x80 mesh/core/libmesh_core_nrf51422_xxAC.a(broadcast.c.obj)
 .comment       0x0000007f       0x80 mesh/core/libmesh_core_nrf51422_xxAC.a(radio_config.c.obj)
 .comment       0x0000007f       0x80 mesh/core/libmesh_core_nrf51422_xxAC.a(scanner.c.obj)
 .comment       0x0000007f       0x80 mesh/core/libmesh_core_nrf51422_xxAC.a(internal_event.c.obj)
 .comment       0x0000007f       0x80 mesh/core/libmesh_core_nrf51422_xxAC.a(aes.c.obj)
 .comment       0x0000007f       0x80 mesh/core/libmesh_core_nrf51422_xxAC.a(msg_cache.c.obj)
 .comment       0x0000007f       0x80 mesh/core/libmesh_core_nrf51422_xxAC.a(transport.c.obj)
 .comment       0x0000007f       0x80 mesh/core/libmesh_core_nrf51422_xxAC.a(packet_buffer.c.obj)
 .comment       0x0000007f       0x80 mesh/core/libmesh_core_nrf51422_xxAC.a(flash_manager_defrag.c.obj)
 .comment       0x0000007f       0x80 mesh/core/libmesh_core_nrf51422_xxAC.a(fifo.c.obj)
 .comment       0x0000007f       0x80 mesh/core/libmesh_core_nrf51422_xxAC.a(packet_mgr.c.obj)
 .comment       0x0000007f       0x80 mesh/core/libmesh_core_nrf51422_xxAC.a(mesh_flash.c.obj)
 .comment       0x0000007f       0x80 mesh/core/libmesh_core_nrf51422_xxAC.a(queue.c.obj)
 .comment       0x0000007f       0x80 mesh/core/libmesh_core_nrf51422_xxAC.a(aes_cmac.c.obj)
 .comment       0x0000007f       0x80 mesh/core/libmesh_core_nrf51422_xxAC.a(msqueue.c.obj)
 .comment       0x0000007f       0x80 mesh/core/libmesh_core_nrf51422_xxAC.a(replay_cache.c.obj)
 .comment       0x0000007f       0x80 mesh/core/libmesh_core_nrf51422_xxAC.a(filter_engine.c.obj)
 .comment       0x0000007f       0x80 mesh/core/libmesh_core_nrf51422_xxAC.a(nrf_flash.c.obj)
 .comment       0x0000007f       0x80 external/rtt/librtt_nrf51422_xxAC.a(SEGGER_RTT.c.obj)
 .comment       0x0000007f       0x80 external/rtt/librtt_nrf51422_xxAC.a(SEGGER_RTT_printf.c.obj)
 .comment       0x0000007f       0x80 external/micro-ecc/libuECC_nrf51422_xxAC.a(uECC.c.obj)

.debug_frame    0x00000000      0x324
 .debug_frame   0x00000000       0x20 c:/a/gcc_arm/6/bin/../lib/gcc/arm-none-eabi/6.3.1/thumb/v6-m\libgcc.a(_udivsi3.o)
 .debug_frame   0x00000020       0x20 c:/a/gcc_arm/6/bin/../lib/gcc/arm-none-eabi/6.3.1/thumb/v6-m\libgcc.a(_divsi3.o)
 .debug_frame   0x00000040       0x34 c:/a/gcc_arm/6/bin/../lib/gcc/arm-none-eabi/6.3.1/thumb/v6-m\libgcc.a(_muldi3.o)
 .debug_frame   0x00000074       0x28 c:/a/gcc_arm/6/bin/../lib/gcc/arm-none-eabi/6.3.1/../../../../arm-none-eabi/lib/thumb/v6-m\libc_nano.a(lib_a-exit.o)
 .debug_frame   0x0000009c       0x2c c:/a/gcc_arm/6/bin/../lib/gcc/arm-none-eabi/6.3.1/../../../../arm-none-eabi/lib/thumb/v6-m\libc_nano.a(lib_a-init.o)
 .debug_frame   0x000000c8       0x40 c:/a/gcc_arm/6/bin/../lib/gcc/arm-none-eabi/6.3.1/../../../../arm-none-eabi/lib/thumb/v6-m\libc_nano.a(lib_a-malloc.o)
 .debug_frame   0x00000108       0x2c c:/a/gcc_arm/6/bin/../lib/gcc/arm-none-eabi/6.3.1/../../../../arm-none-eabi/lib/thumb/v6-m\libc_nano.a(lib_a-memcmp.o)
 .debug_frame   0x00000134       0x28 c:/a/gcc_arm/6/bin/../lib/gcc/arm-none-eabi/6.3.1/../../../../arm-none-eabi/lib/thumb/v6-m\libc_nano.a(lib_a-memcpy-stub.o)
 .debug_frame   0x0000015c       0x20 c:/a/gcc_arm/6/bin/../lib/gcc/arm-none-eabi/6.3.1/../../../../arm-none-eabi/lib/thumb/v6-m\libc_nano.a(lib_a-memset.o)
 .debug_frame   0x0000017c       0x2c c:/a/gcc_arm/6/bin/../lib/gcc/arm-none-eabi/6.3.1/../../../../arm-none-eabi/lib/thumb/v6-m\libc_nano.a(lib_a-nano-freer.o)
 .debug_frame   0x000001a8       0x2c c:/a/gcc_arm/6/bin/../lib/gcc/arm-none-eabi/6.3.1/../../../../arm-none-eabi/lib/thumb/v6-m\libc_nano.a(lib_a-nano-mallocr.o)
 .debug_frame   0x000001d4       0x2c c:/a/gcc_arm/6/bin/../lib/gcc/arm-none-eabi/6.3.1/../../../../arm-none-eabi/lib/thumb/v6-m\libc_nano.a(lib_a-sbrkr.o)
 .debug_frame   0x00000200       0x20 c:/a/gcc_arm/6/bin/../lib/gcc/arm-none-eabi/6.3.1/../../../../arm-none-eabi/lib/thumb/v6-m\libc_nano.a(lib_a-strcpy.o)
 .debug_frame   0x00000220       0x2c c:/a/gcc_arm/6/bin/../lib/gcc/arm-none-eabi/6.3.1/../../../../arm-none-eabi/lib/thumb/v6-m\libc_nano.a(lib_a-strrchr.o)
 .debug_frame   0x0000024c       0x30 c:/a/gcc_arm/6/bin/../lib/gcc/arm-none-eabi/6.3.1/../../../../arm-none-eabi/lib/thumb/v6-m\libc_nano.a(lib_a-mlock.o)
 .debug_frame   0x0000027c       0x48 c:/a/gcc_arm/6/bin/../lib/gcc/arm-none-eabi/6.3.1/../../../../arm-none-eabi/lib/thumb/v6-m\libc_nano.a(lib_a-reent.o)
 .debug_frame   0x000002c4       0x20 c:/a/gcc_arm/6/bin/../lib/gcc/arm-none-eabi/6.3.1/../../../../arm-none-eabi/lib/thumb/v6-m\libc_nano.a(lib_a-strchr.o)
 .debug_frame   0x000002e4       0x20 c:/a/gcc_arm/6/bin/../lib/gcc/arm-none-eabi/6.3.1/../../../../arm-none-eabi/lib/thumb/v6-m\libnosys.a(sbrk.o)
 .debug_frame   0x00000304       0x20 c:/a/gcc_arm/6/bin/../lib/gcc/arm-none-eabi/6.3.1/../../../../arm-none-eabi/lib/thumb/v6-m\libnosys.a(_exit.o)
