Archive member included to satisfy reference by file (symbol)

mesh/core/libmesh_core_nrf52840_xxAA.a(nrf_mesh_configure.c.obj)
                              examples/light_switch/server/CMakeFiles/light_switch_server_nrf52840_xxAA_s140_5.0.0-3.alpha.dir/__/__/__/mesh/prov/src/prov_beacon.c.obj (nrf_mesh_configure_device_uuid_get)
mesh/core/libmesh_core_nrf52840_xxAA.a(event.c.obj)
                              examples/light_switch/server/CMakeFiles/light_switch_server_nrf52840_xxAA_s140_5.0.0-3.alpha.dir/__/__/__/mesh/access/src/access.c.obj (event_handle)
mesh/core/libmesh_core_nrf52840_xxAA.a(net_state.c.obj)
                              examples/light_switch/server/CMakeFiles/light_switch_server_nrf52840_xxAA_s140_5.0.0-3.alpha.dir/__/__/__/mesh/access/src/nrf_mesh_node_config.c.obj (net_state_reset)
mesh/core/libmesh_core_nrf52840_xxAA.a(nrf_mesh_utils.c.obj)
                              examples/light_switch/server/CMakeFiles/light_switch_server_nrf52840_xxAA_s140_5.0.0-3.alpha.dir/__/__/__/models/config/src/config_server.c.obj (nrf_mesh_address_type_get)
mesh/core/libmesh_core_nrf52840_xxAA.a(nrf_mesh.c.obj)
                              examples/light_switch/server/CMakeFiles/light_switch_server_nrf52840_xxAA_s140_5.0.0-3.alpha.dir/__/__/nrf_mesh_sdk.c.obj (nrf_mesh_init)
mesh/core/libmesh_core_nrf52840_xxAA.a(hal.c.obj)
                              mesh/core/libmesh_core_nrf52840_xxAA.a(nrf_mesh.c.obj) (hal_lfclk_ppm_get)
mesh/core/libmesh_core_nrf52840_xxAA.a(timer_scheduler.c.obj)
                              mesh/core/libmesh_core_nrf52840_xxAA.a(nrf_mesh.c.obj) (timer_sch_init)
mesh/core/libmesh_core_nrf52840_xxAA.a(timer.c.obj)
                              mesh/core/libmesh_core_nrf52840_xxAA.a(timer_scheduler.c.obj) (timer_order_cb)
mesh/core/libmesh_core_nrf52840_xxAA.a(ticker.c.obj)
                              mesh/core/libmesh_core_nrf52840_xxAA.a(nrf_mesh.c.obj) (ticker_init)
mesh/core/libmesh_core_nrf52840_xxAA.a(rand.c.obj)
                              examples/light_switch/server/CMakeFiles/light_switch_server_nrf52840_xxAA_s140_5.0.0-3.alpha.dir/__/__/__/mesh/prov/src/prov_utils.c.obj (rand_hw_rng_get)
mesh/core/libmesh_core_nrf52840_xxAA.a(nrf_mesh_opt.c.obj)
                              examples/light_switch/server/CMakeFiles/light_switch_server_nrf52840_xxAA_s140_5.0.0-3.alpha.dir/__/__/__/models/config/src/config_server.c.obj (nrf_mesh_opt_set)
mesh/core/libmesh_core_nrf52840_xxAA.a(timeslot.c.obj)
                              mesh/core/libmesh_core_nrf52840_xxAA.a(nrf_mesh.c.obj) (timeslot_sd_event_handler)
mesh/core/libmesh_core_nrf52840_xxAA.a(bearer_event.c.obj)
                              mesh/core/libmesh_core_nrf52840_xxAA.a(nrf_mesh.c.obj) (bearer_event_init)
mesh/core/libmesh_core_nrf52840_xxAA.a(enc.c.obj)
                              examples/light_switch/server/CMakeFiles/light_switch_server_nrf52840_xxAA_s140_5.0.0-3.alpha.dir/__/__/__/mesh/prov/src/prov_utils.c.obj (enc_aes_cmac)
mesh/core/libmesh_core_nrf52840_xxAA.a(network.c.obj)
                              mesh/core/libmesh_core_nrf52840_xxAA.a(nrf_mesh.c.obj) (network_init)
mesh/core/libmesh_core_nrf52840_xxAA.a(nrf_mesh_keygen.c.obj)
                              examples/light_switch/server/CMakeFiles/light_switch_server_nrf52840_xxAA_s140_5.0.0-3.alpha.dir/__/__/__/mesh/access/src/device_state_manager.c.obj (nrf_mesh_keygen_aid)
mesh/core/libmesh_core_nrf52840_xxAA.a(log.c.obj)
                              examples/light_switch/server/CMakeFiles/light_switch_server_nrf52840_xxAA_s140_5.0.0-3.alpha.dir/src/main.c.obj (log_callback_rtt)
mesh/core/libmesh_core_nrf52840_xxAA.a(flash_manager.c.obj)
                              mesh/core/libmesh_core_nrf52840_xxAA.a(nrf_mesh.c.obj) (flash_manager_init)
mesh/core/libmesh_core_nrf52840_xxAA.a(ccm_soft.c.obj)
                              mesh/core/libmesh_core_nrf52840_xxAA.a(enc.c.obj) (ccm_soft_encrypt)
mesh/core/libmesh_core_nrf52840_xxAA.a(beacon.c.obj)
                              mesh/core/libmesh_core_nrf52840_xxAA.a(nrf_mesh.c.obj) (beacon_init)
mesh/core/libmesh_core_nrf52840_xxAA.a(flash_manager_internal.c.obj)
                              mesh/core/libmesh_core_nrf52840_xxAA.a(flash_manager.c.obj) (entry_get)
mesh/core/libmesh_core_nrf52840_xxAA.a(core_tx.c.obj)
                              mesh/core/libmesh_core_nrf52840_xxAA.a(nrf_mesh.c.obj) (core_tx_init)
mesh/core/libmesh_core_nrf52840_xxAA.a(net_beacon.c.obj)
                              mesh/core/libmesh_core_nrf52840_xxAA.a(network.c.obj) (net_beacon_init)
mesh/core/libmesh_core_nrf52840_xxAA.a(advertiser.c.obj)
                              mesh/core/libmesh_core_nrf52840_xxAA.a(nrf_mesh.c.obj) (advertiser_init)
mesh/core/libmesh_core_nrf52840_xxAA.a(bearer_handler.c.obj)
                              mesh/core/libmesh_core_nrf52840_xxAA.a(nrf_mesh.c.obj) (bearer_handler_init)
mesh/core/libmesh_core_nrf52840_xxAA.a(broadcast.c.obj)
                              mesh/core/libmesh_core_nrf52840_xxAA.a(advertiser.c.obj) (broadcast_send)
mesh/core/libmesh_core_nrf52840_xxAA.a(radio_config.c.obj)
                              mesh/core/libmesh_core_nrf52840_xxAA.a(broadcast.c.obj) (radio_config_reset)
mesh/core/libmesh_core_nrf52840_xxAA.a(scanner.c.obj)
                              mesh/core/libmesh_core_nrf52840_xxAA.a(bearer_handler.c.obj) (scanner_radio_start)
mesh/core/libmesh_core_nrf52840_xxAA.a(internal_event.c.obj)
                              mesh/core/libmesh_core_nrf52840_xxAA.a(network.c.obj) (internal_event_push)
mesh/core/libmesh_core_nrf52840_xxAA.a(aes.c.obj)
                              mesh/core/libmesh_core_nrf52840_xxAA.a(enc.c.obj) (aes_encrypt)
mesh/core/libmesh_core_nrf52840_xxAA.a(msg_cache.c.obj)
                              mesh/core/libmesh_core_nrf52840_xxAA.a(nrf_mesh.c.obj) (msg_cache_init)
mesh/core/libmesh_core_nrf52840_xxAA.a(transport.c.obj)
                              mesh/core/libmesh_core_nrf52840_xxAA.a(nrf_mesh.c.obj) (transport_init)
mesh/core/libmesh_core_nrf52840_xxAA.a(packet_buffer.c.obj)
                              mesh/core/libmesh_core_nrf52840_xxAA.a(flash_manager.c.obj) (packet_buffer_init)
mesh/core/libmesh_core_nrf52840_xxAA.a(flash_manager_defrag.c.obj)
                              mesh/core/libmesh_core_nrf52840_xxAA.a(flash_manager.c.obj) (flash_manager_defrag_init)
mesh/core/libmesh_core_nrf52840_xxAA.a(fifo.c.obj)
                              mesh/core/libmesh_core_nrf52840_xxAA.a(bearer_event.c.obj) (fifo_init)
mesh/core/libmesh_core_nrf52840_xxAA.a(packet_mgr.c.obj)
                              mesh/core/libmesh_core_nrf52840_xxAA.a(nrf_mesh.c.obj) (packet_mgr_init)
mesh/core/libmesh_core_nrf52840_xxAA.a(mesh_flash.c.obj)
                              mesh/core/libmesh_core_nrf52840_xxAA.a(flash_manager.c.obj) (mesh_flash_user_callback_set)
mesh/core/libmesh_core_nrf52840_xxAA.a(queue.c.obj)
                              mesh/core/libmesh_core_nrf52840_xxAA.a(bearer_event.c.obj) (queue_init)
mesh/core/libmesh_core_nrf52840_xxAA.a(aes_cmac.c.obj)
                              mesh/core/libmesh_core_nrf52840_xxAA.a(enc.c.obj) (aes_cmac)
mesh/core/libmesh_core_nrf52840_xxAA.a(msqueue.c.obj)
                              mesh/core/libmesh_core_nrf52840_xxAA.a(mesh_flash.c.obj) (msq_get)
mesh/core/libmesh_core_nrf52840_xxAA.a(replay_cache.c.obj)
                              mesh/core/libmesh_core_nrf52840_xxAA.a(transport.c.obj) (replay_cache_add)
mesh/core/libmesh_core_nrf52840_xxAA.a(filter_engine.c.obj)
                              mesh/core/libmesh_core_nrf52840_xxAA.a(scanner.c.obj) (fen_filters_apply)
mesh/core/libmesh_core_nrf52840_xxAA.a(nrf_flash.c.obj)
                              mesh/core/libmesh_core_nrf52840_xxAA.a(mesh_flash.c.obj) (nrf_flash_erase)
external/rtt/librtt_nrf52840_xxAA.a(SEGGER_RTT.c.obj)
                              mesh/core/libmesh_core_nrf52840_xxAA.a(log.c.obj) (SEGGER_RTT_Write)
external/rtt/librtt_nrf52840_xxAA.a(SEGGER_RTT_printf.c.obj)
                              mesh/core/libmesh_core_nrf52840_xxAA.a(log.c.obj) (SEGGER_RTT_vprintf)
external/micro-ecc/libuECC_nrf52840_xxAA.a(uECC.c.obj)
                              examples/light_switch/server/CMakeFiles/light_switch_server_nrf52840_xxAA_s140_5.0.0-3.alpha.dir/__/__/__/mesh/prov/src/prov_utils.c.obj (uECC_secp256r1)
c:/a/gcc_arm/6/bin/../lib/gcc/arm-none-eabi/6.3.1/../../../../arm-none-eabi/lib/thumb/v7e-m/fpv4-sp/hard\libc_nano.a(lib_a-exit.o)
                              c:/a/gcc_arm/6/bin/../lib/gcc/arm-none-eabi/6.3.1/../../../../arm-none-eabi/lib/thumb/v7e-m/fpv4-sp/hard/crt0.o (exit)
c:/a/gcc_arm/6/bin/../lib/gcc/arm-none-eabi/6.3.1/../../../../arm-none-eabi/lib/thumb/v7e-m/fpv4-sp/hard\libc_nano.a(lib_a-impure.o)
                              c:/a/gcc_arm/6/bin/../lib/gcc/arm-none-eabi/6.3.1/../../../../arm-none-eabi/lib/thumb/v7e-m/fpv4-sp/hard\libc_nano.a(lib_a-exit.o) (_global_impure_ptr)
c:/a/gcc_arm/6/bin/../lib/gcc/arm-none-eabi/6.3.1/../../../../arm-none-eabi/lib/thumb/v7e-m/fpv4-sp/hard\libc_nano.a(lib_a-init.o)
                              c:/a/gcc_arm/6/bin/../lib/gcc/arm-none-eabi/6.3.1/../../../../arm-none-eabi/lib/thumb/v7e-m/fpv4-sp/hard/crt0.o (__libc_init_array)
c:/a/gcc_arm/6/bin/../lib/gcc/arm-none-eabi/6.3.1/../../../../arm-none-eabi/lib/thumb/v7e-m/fpv4-sp/hard\libc_nano.a(lib_a-malloc.o)
                              mesh/core/libmesh_core_nrf52840_xxAA.a(transport.c.obj) (malloc)
c:/a/gcc_arm/6/bin/../lib/gcc/arm-none-eabi/6.3.1/../../../../arm-none-eabi/lib/thumb/v7e-m/fpv4-sp/hard\libc_nano.a(lib_a-memcmp.o)
                              examples/light_switch/server/CMakeFiles/light_switch_server_nrf52840_xxAA_s140_5.0.0-3.alpha.dir/__/__/__/mesh/access/src/device_state_manager.c.obj (memcmp)
c:/a/gcc_arm/6/bin/../lib/gcc/arm-none-eabi/6.3.1/../../../../arm-none-eabi/lib/thumb/v7e-m/fpv4-sp/hard\libc_nano.a(lib_a-memcpy-stub.o)
                              examples/light_switch/server/CMakeFiles/light_switch_server_nrf52840_xxAA_s140_5.0.0-3.alpha.dir/__/__/__/models/config/src/composition_data.c.obj (memcpy)
c:/a/gcc_arm/6/bin/../lib/gcc/arm-none-eabi/6.3.1/../../../../arm-none-eabi/lib/thumb/v7e-m/fpv4-sp/hard\libc_nano.a(lib_a-memset.o)
                              c:/a/gcc_arm/6/bin/../lib/gcc/arm-none-eabi/6.3.1/../../../../arm-none-eabi/lib/thumb/v7e-m/fpv4-sp/hard/crt0.o (memset)
c:/a/gcc_arm/6/bin/../lib/gcc/arm-none-eabi/6.3.1/../../../../arm-none-eabi/lib/thumb/v7e-m/fpv4-sp/hard\libc_nano.a(lib_a-nano-freer.o)
                              c:/a/gcc_arm/6/bin/../lib/gcc/arm-none-eabi/6.3.1/../../../../arm-none-eabi/lib/thumb/v7e-m/fpv4-sp/hard\libc_nano.a(lib_a-malloc.o) (_free_r)
c:/a/gcc_arm/6/bin/../lib/gcc/arm-none-eabi/6.3.1/../../../../arm-none-eabi/lib/thumb/v7e-m/fpv4-sp/hard\libc_nano.a(lib_a-nano-mallocr.o)
                              c:/a/gcc_arm/6/bin/../lib/gcc/arm-none-eabi/6.3.1/../../../../arm-none-eabi/lib/thumb/v7e-m/fpv4-sp/hard\libc_nano.a(lib_a-malloc.o) (_malloc_r)
c:/a/gcc_arm/6/bin/../lib/gcc/arm-none-eabi/6.3.1/../../../../arm-none-eabi/lib/thumb/v7e-m/fpv4-sp/hard\libc_nano.a(lib_a-sbrkr.o)
                              c:/a/gcc_arm/6/bin/../lib/gcc/arm-none-eabi/6.3.1/../../../../arm-none-eabi/lib/thumb/v7e-m/fpv4-sp/hard\libc_nano.a(lib_a-nano-mallocr.o) (_sbrk_r)
c:/a/gcc_arm/6/bin/../lib/gcc/arm-none-eabi/6.3.1/../../../../arm-none-eabi/lib/thumb/v7e-m/fpv4-sp/hard\libc_nano.a(lib_a-strcpy.o)
                              external/rtt/librtt_nrf52840_xxAA.a(SEGGER_RTT.c.obj) (strcpy)
c:/a/gcc_arm/6/bin/../lib/gcc/arm-none-eabi/6.3.1/../../../../arm-none-eabi/lib/thumb/v7e-m/fpv4-sp/hard\libc_nano.a(lib_a-strlen.o)
                              examples/light_switch/server/CMakeFiles/light_switch_server_nrf52840_xxAA_s140_5.0.0-3.alpha.dir/__/__/__/mesh/prov/src/prov_beacon.c.obj (strlen)
c:/a/gcc_arm/6/bin/../lib/gcc/arm-none-eabi/6.3.1/../../../../arm-none-eabi/lib/thumb/v7e-m/fpv4-sp/hard\libc_nano.a(lib_a-strrchr.o)
                              examples/light_switch/server/CMakeFiles/light_switch_server_nrf52840_xxAA_s140_5.0.0-3.alpha.dir/src/main.c.obj (strrchr)
c:/a/gcc_arm/6/bin/../lib/gcc/arm-none-eabi/6.3.1/../../../../arm-none-eabi/lib/thumb/v7e-m/fpv4-sp/hard\libc_nano.a(lib_a-mlock.o)
                              c:/a/gcc_arm/6/bin/../lib/gcc/arm-none-eabi/6.3.1/../../../../arm-none-eabi/lib/thumb/v7e-m/fpv4-sp/hard\libc_nano.a(lib_a-nano-freer.o) (__malloc_lock)
c:/a/gcc_arm/6/bin/../lib/gcc/arm-none-eabi/6.3.1/../../../../arm-none-eabi/lib/thumb/v7e-m/fpv4-sp/hard\libc_nano.a(lib_a-reent.o)
                              c:/a/gcc_arm/6/bin/../lib/gcc/arm-none-eabi/6.3.1/../../../../arm-none-eabi/lib/thumb/v7e-m/fpv4-sp/hard\libc_nano.a(lib_a-sbrkr.o) (errno)
c:/a/gcc_arm/6/bin/../lib/gcc/arm-none-eabi/6.3.1/../../../../arm-none-eabi/lib/thumb/v7e-m/fpv4-sp/hard\libc_nano.a(lib_a-strchr.o)
                              c:/a/gcc_arm/6/bin/../lib/gcc/arm-none-eabi/6.3.1/../../../../arm-none-eabi/lib/thumb/v7e-m/fpv4-sp/hard\libc_nano.a(lib_a-strrchr.o) (strchr)
c:/a/gcc_arm/6/bin/../lib/gcc/arm-none-eabi/6.3.1/../../../../arm-none-eabi/lib/thumb/v7e-m/fpv4-sp/hard\libnosys.a(sbrk.o)
                              c:/a/gcc_arm/6/bin/../lib/gcc/arm-none-eabi/6.3.1/../../../../arm-none-eabi/lib/thumb/v7e-m/fpv4-sp/hard\libc_nano.a(lib_a-sbrkr.o) (_sbrk)
c:/a/gcc_arm/6/bin/../lib/gcc/arm-none-eabi/6.3.1/../../../../arm-none-eabi/lib/thumb/v7e-m/fpv4-sp/hard\libnosys.a(_exit.o)
                              c:/a/gcc_arm/6/bin/../lib/gcc/arm-none-eabi/6.3.1/../../../../arm-none-eabi/lib/thumb/v7e-m/fpv4-sp/hard\libc_nano.a(lib_a-exit.o) (_exit)

Allocating common symbols
Common symbol       size              file

nrf_nvic_state      0xc               examples/light_switch/server/CMakeFiles/light_switch_server_nrf52840_xxAA_s140_5.0.0-3.alpha.dir/__/__/nrf_mesh_sdk.c.obj
errno               0x4               c:/a/gcc_arm/6/bin/../lib/gcc/arm-none-eabi/6.3.1/../../../../arm-none-eabi/lib/thumb/v7e-m/fpv4-sp/hard\libc_nano.a(lib_a-reent.o)
m_assertion_handler
                    0x4               mesh/core/libmesh_core_nrf52840_xxAA.a(nrf_mesh.c.obj)
_SEGGER_RTT         0x78              external/rtt/librtt_nrf52840_xxAA.a(SEGGER_RTT.c.obj)

Discarded input sections

 .text          0x00000000        0x0 c:/a/gcc_arm/6/bin/../lib/gcc/arm-none-eabi/6.3.1/thumb/v7e-m/fpv4-sp/hard/crti.o
 .data          0x00000000        0x0 c:/a/gcc_arm/6/bin/../lib/gcc/arm-none-eabi/6.3.1/thumb/v7e-m/fpv4-sp/hard/crti.o
 .bss           0x00000000        0x0 c:/a/gcc_arm/6/bin/../lib/gcc/arm-none-eabi/6.3.1/thumb/v7e-m/fpv4-sp/hard/crti.o
 .data          0x00000000        0x4 c:/a/gcc_arm/6/bin/../lib/gcc/arm-none-eabi/6.3.1/thumb/v7e-m/fpv4-sp/hard/crtbegin.o
 .data          0x00000000        0x0 c:/a/gcc_arm/6/bin/../lib/gcc/arm-none-eabi/6.3.1/../../../../arm-none-eabi/lib/thumb/v7e-m/fpv4-sp/hard/crt0.o
 .bss           0x00000000        0x0 c:/a/gcc_arm/6/bin/../lib/gcc/arm-none-eabi/6.3.1/../../../../arm-none-eabi/lib/thumb/v7e-m/fpv4-sp/hard/crt0.o
 .ARM.extab     0x00000000        0x0 c:/a/gcc_arm/6/bin/../lib/gcc/arm-none-eabi/6.3.1/../../../../arm-none-eabi/lib/thumb/v7e-m/fpv4-sp/hard/crt0.o
 .text          0x00000000        0x0 examples/light_switch/server/CMakeFiles/light_switch_server_nrf52840_xxAA_s140_5.0.0-3.alpha.dir/src/main.c.obj
 .data          0x00000000        0x0 examples/light_switch/server/CMakeFiles/light_switch_server_nrf52840_xxAA_s140_5.0.0-3.alpha.dir/src/main.c.obj
 .bss           0x00000000        0x0 examples/light_switch/server/CMakeFiles/light_switch_server_nrf52840_xxAA_s140_5.0.0-3.alpha.dir/src/main.c.obj
 .text          0x00000000        0x0 examples/light_switch/server/CMakeFiles/light_switch_server_nrf52840_xxAA_s140_5.0.0-3.alpha.dir/__/__/nrf_mesh_sdk.c.obj
 .data          0x00000000        0x0 examples/light_switch/server/CMakeFiles/light_switch_server_nrf52840_xxAA_s140_5.0.0-3.alpha.dir/__/__/nrf_mesh_sdk.c.obj
 .bss           0x00000000        0x0 examples/light_switch/server/CMakeFiles/light_switch_server_nrf52840_xxAA_s140_5.0.0-3.alpha.dir/__/__/nrf_mesh_sdk.c.obj
 .text.sd_softdevice_enable
                0x00000000        0x4 examples/light_switch/server/CMakeFiles/light_switch_server_nrf52840_xxAA_s140_5.0.0-3.alpha.dir/__/__/nrf_mesh_sdk.c.obj
 .text.sd_ble_enable
                0x00000000        0x4 examples/light_switch/server/CMakeFiles/light_switch_server_nrf52840_xxAA_s140_5.0.0-3.alpha.dir/__/__/nrf_mesh_sdk.c.obj
 .text.mesh_assert_handler
                0x00000000       0x64 examples/light_switch/server/CMakeFiles/light_switch_server_nrf52840_xxAA_s140_5.0.0-3.alpha.dir/__/__/nrf_mesh_sdk.c.obj
 .text.softdevice_assert_handler
                0x00000000       0x74 examples/light_switch/server/CMakeFiles/light_switch_server_nrf52840_xxAA_s140_5.0.0-3.alpha.dir/__/__/nrf_mesh_sdk.c.obj
 .text.mesh_softdevice_enable
                0x00000000      0x124 examples/light_switch/server/CMakeFiles/light_switch_server_nrf52840_xxAA_s140_5.0.0-3.alpha.dir/__/__/nrf_mesh_sdk.c.obj
 .text.mesh_softdevice_setup
                0x00000000       0x74 examples/light_switch/server/CMakeFiles/light_switch_server_nrf52840_xxAA_s140_5.0.0-3.alpha.dir/__/__/nrf_mesh_sdk.c.obj
 .text.mesh_core_setup
                0x00000000      0x150 examples/light_switch/server/CMakeFiles/light_switch_server_nrf52840_xxAA_s140_5.0.0-3.alpha.dir/__/__/nrf_mesh_sdk.c.obj
 .rodata.mesh_core_setup.str1.1
                0x00000000       0x47 examples/light_switch/server/CMakeFiles/light_switch_server_nrf52840_xxAA_s140_5.0.0-3.alpha.dir/__/__/nrf_mesh_sdk.c.obj
 .rodata.mesh_softdevice_enable.str1.1
                0x00000000       0x65 examples/light_switch/server/CMakeFiles/light_switch_server_nrf52840_xxAA_s140_5.0.0-3.alpha.dir/__/__/nrf_mesh_sdk.c.obj
 .rodata.softdevice_assert_handler.str1.1
                0x00000000       0x1d examples/light_switch/server/CMakeFiles/light_switch_server_nrf52840_xxAA_s140_5.0.0-3.alpha.dir/__/__/nrf_mesh_sdk.c.obj
 .text          0x00000000        0x0 examples/light_switch/server/CMakeFiles/light_switch_server_nrf52840_xxAA_s140_5.0.0-3.alpha.dir/__/__/hal/src/simple_hal.c.obj
 .data          0x00000000        0x0 examples/light_switch/server/CMakeFiles/light_switch_server_nrf52840_xxAA_s140_5.0.0-3.alpha.dir/__/__/hal/src/simple_hal.c.obj
 .bss           0x00000000        0x0 examples/light_switch/server/CMakeFiles/light_switch_server_nrf52840_xxAA_s140_5.0.0-3.alpha.dir/__/__/hal/src/simple_hal.c.obj
 .text.hal_buttons_init
                0x00000000       0x50 examples/light_switch/server/CMakeFiles/light_switch_server_nrf52840_xxAA_s140_5.0.0-3.alpha.dir/__/__/hal/src/simple_hal.c.obj
 .text          0x00000000        0x0 examples/light_switch/server/CMakeFiles/light_switch_server_nrf52840_xxAA_s140_5.0.0-3.alpha.dir/__/__/nrf_mesh_weak.c.obj
 .data          0x00000000        0x0 examples/light_switch/server/CMakeFiles/light_switch_server_nrf52840_xxAA_s140_5.0.0-3.alpha.dir/__/__/nrf_mesh_weak.c.obj
 .bss           0x00000000        0x0 examples/light_switch/server/CMakeFiles/light_switch_server_nrf52840_xxAA_s140_5.0.0-3.alpha.dir/__/__/nrf_mesh_weak.c.obj
 .text._weak_handler_ptr
                0x00000000        0x4 examples/light_switch/server/CMakeFiles/light_switch_server_nrf52840_xxAA_s140_5.0.0-3.alpha.dir/__/__/nrf_mesh_weak.c.obj
 .text          0x00000000        0x0 examples/light_switch/server/CMakeFiles/light_switch_server_nrf52840_xxAA_s140_5.0.0-3.alpha.dir/__/__/__/models/simple_on_off/src/simple_on_off_server.c.obj
 .data          0x00000000        0x0 examples/light_switch/server/CMakeFiles/light_switch_server_nrf52840_xxAA_s140_5.0.0-3.alpha.dir/__/__/__/models/simple_on_off/src/simple_on_off_server.c.obj
 .bss           0x00000000        0x0 examples/light_switch/server/CMakeFiles/light_switch_server_nrf52840_xxAA_s140_5.0.0-3.alpha.dir/__/__/__/models/simple_on_off/src/simple_on_off_server.c.obj
 .text          0x00000000        0x0 examples/light_switch/server/CMakeFiles/light_switch_server_nrf52840_xxAA_s140_5.0.0-3.alpha.dir/__/__/__/models/config/src/composition_data.c.obj
 .data          0x00000000        0x0 examples/light_switch/server/CMakeFiles/light_switch_server_nrf52840_xxAA_s140_5.0.0-3.alpha.dir/__/__/__/models/config/src/composition_data.c.obj
 .bss           0x00000000        0x0 examples/light_switch/server/CMakeFiles/light_switch_server_nrf52840_xxAA_s140_5.0.0-3.alpha.dir/__/__/__/models/config/src/composition_data.c.obj
 .text          0x00000000        0x0 examples/light_switch/server/CMakeFiles/light_switch_server_nrf52840_xxAA_s140_5.0.0-3.alpha.dir/__/__/__/models/config/src/config_server.c.obj
 .data          0x00000000        0x0 examples/light_switch/server/CMakeFiles/light_switch_server_nrf52840_xxAA_s140_5.0.0-3.alpha.dir/__/__/__/models/config/src/config_server.c.obj
 .bss           0x00000000        0x0 examples/light_switch/server/CMakeFiles/light_switch_server_nrf52840_xxAA_s140_5.0.0-3.alpha.dir/__/__/__/models/config/src/config_server.c.obj
 .text          0x00000000        0x0 examples/light_switch/server/CMakeFiles/light_switch_server_nrf52840_xxAA_s140_5.0.0-3.alpha.dir/__/__/__/models/config/src/packed_index_list.c.obj
 .data          0x00000000        0x0 examples/light_switch/server/CMakeFiles/light_switch_server_nrf52840_xxAA_s140_5.0.0-3.alpha.dir/__/__/__/models/config/src/packed_index_list.c.obj
 .bss           0x00000000        0x0 examples/light_switch/server/CMakeFiles/light_switch_server_nrf52840_xxAA_s140_5.0.0-3.alpha.dir/__/__/__/models/config/src/packed_index_list.c.obj
 .text          0x00000000        0x0 examples/light_switch/server/CMakeFiles/light_switch_server_nrf52840_xxAA_s140_5.0.0-3.alpha.dir/__/__/__/models/health/src/health_server.c.obj
 .data          0x00000000        0x0 examples/light_switch/server/CMakeFiles/light_switch_server_nrf52840_xxAA_s140_5.0.0-3.alpha.dir/__/__/__/models/health/src/health_server.c.obj
 .bss           0x00000000        0x0 examples/light_switch/server/CMakeFiles/light_switch_server_nrf52840_xxAA_s140_5.0.0-3.alpha.dir/__/__/__/models/health/src/health_server.c.obj
 .text.health_server_fault_is_set
                0x00000000       0x1c examples/light_switch/server/CMakeFiles/light_switch_server_nrf52840_xxAA_s140_5.0.0-3.alpha.dir/__/__/__/models/health/src/health_server.c.obj
 .text.health_server_fault_count_get
                0x00000000        0xc examples/light_switch/server/CMakeFiles/light_switch_server_nrf52840_xxAA_s140_5.0.0-3.alpha.dir/__/__/__/models/health/src/health_server.c.obj
 .text.health_server_fault_register
                0x00000000       0xe8 examples/light_switch/server/CMakeFiles/light_switch_server_nrf52840_xxAA_s140_5.0.0-3.alpha.dir/__/__/__/models/health/src/health_server.c.obj
 .text.health_server_fault_clear
                0x00000000       0x54 examples/light_switch/server/CMakeFiles/light_switch_server_nrf52840_xxAA_s140_5.0.0-3.alpha.dir/__/__/__/models/health/src/health_server.c.obj
 .text.health_server_attention_get
                0x00000000        0x6 examples/light_switch/server/CMakeFiles/light_switch_server_nrf52840_xxAA_s140_5.0.0-3.alpha.dir/__/__/__/models/health/src/health_server.c.obj
 .text.health_server_attention_set
                0x00000000        0x4 examples/light_switch/server/CMakeFiles/light_switch_server_nrf52840_xxAA_s140_5.0.0-3.alpha.dir/__/__/__/models/health/src/health_server.c.obj
 .text          0x00000000        0x0 examples/light_switch/server/CMakeFiles/light_switch_server_nrf52840_xxAA_s140_5.0.0-3.alpha.dir/__/__/__/mesh/access/src/access_publish.c.obj
 .data          0x00000000        0x0 examples/light_switch/server/CMakeFiles/light_switch_server_nrf52840_xxAA_s140_5.0.0-3.alpha.dir/__/__/__/mesh/access/src/access_publish.c.obj
 .bss           0x00000000        0x0 examples/light_switch/server/CMakeFiles/light_switch_server_nrf52840_xxAA_s140_5.0.0-3.alpha.dir/__/__/__/mesh/access/src/access_publish.c.obj
 .text          0x00000000        0x0 examples/light_switch/server/CMakeFiles/light_switch_server_nrf52840_xxAA_s140_5.0.0-3.alpha.dir/__/__/__/mesh/access/src/access.c.obj
 .data          0x00000000        0x0 examples/light_switch/server/CMakeFiles/light_switch_server_nrf52840_xxAA_s140_5.0.0-3.alpha.dir/__/__/__/mesh/access/src/access.c.obj
 .bss           0x00000000        0x0 examples/light_switch/server/CMakeFiles/light_switch_server_nrf52840_xxAA_s140_5.0.0-3.alpha.dir/__/__/__/mesh/access/src/access.c.obj
 .text.access_clear
                0x00000000       0x12 examples/light_switch/server/CMakeFiles/light_switch_server_nrf52840_xxAA_s140_5.0.0-3.alpha.dir/__/__/__/mesh/access/src/access.c.obj
 .text.access_model_subscription_lists_share
                0x00000000       0x48 examples/light_switch/server/CMakeFiles/light_switch_server_nrf52840_xxAA_s140_5.0.0-3.alpha.dir/__/__/__/mesh/access/src/access.c.obj
 .text.access_element_location_set
                0x00000000       0x20 examples/light_switch/server/CMakeFiles/light_switch_server_nrf52840_xxAA_s140_5.0.0-3.alpha.dir/__/__/__/mesh/access/src/access.c.obj
 .text          0x00000000        0x0 examples/light_switch/server/CMakeFiles/light_switch_server_nrf52840_xxAA_s140_5.0.0-3.alpha.dir/__/__/__/mesh/access/src/access_reliable.c.obj
 .data          0x00000000        0x0 examples/light_switch/server/CMakeFiles/light_switch_server_nrf52840_xxAA_s140_5.0.0-3.alpha.dir/__/__/__/mesh/access/src/access_reliable.c.obj
 .bss           0x00000000        0x0 examples/light_switch/server/CMakeFiles/light_switch_server_nrf52840_xxAA_s140_5.0.0-3.alpha.dir/__/__/__/mesh/access/src/access_reliable.c.obj
 .text.access_reliable_cancel_all
                0x00000000       0x34 examples/light_switch/server/CMakeFiles/light_switch_server_nrf52840_xxAA_s140_5.0.0-3.alpha.dir/__/__/__/mesh/access/src/access_reliable.c.obj
 .text.access_model_reliable_cancel
                0x00000000       0x44 examples/light_switch/server/CMakeFiles/light_switch_server_nrf52840_xxAA_s140_5.0.0-3.alpha.dir/__/__/__/mesh/access/src/access_reliable.c.obj
 .text.access_model_reliable_publish
                0x00000000      0x1b4 examples/light_switch/server/CMakeFiles/light_switch_server_nrf52840_xxAA_s140_5.0.0-3.alpha.dir/__/__/__/mesh/access/src/access_reliable.c.obj
 .text          0x00000000        0x0 examples/light_switch/server/CMakeFiles/light_switch_server_nrf52840_xxAA_s140_5.0.0-3.alpha.dir/__/__/__/mesh/access/src/device_state_manager.c.obj
 .data          0x00000000        0x0 examples/light_switch/server/CMakeFiles/light_switch_server_nrf52840_xxAA_s140_5.0.0-3.alpha.dir/__/__/__/mesh/access/src/device_state_manager.c.obj
 .bss           0x00000000        0x0 examples/light_switch/server/CMakeFiles/light_switch_server_nrf52840_xxAA_s140_5.0.0-3.alpha.dir/__/__/__/mesh/access/src/device_state_manager.c.obj
 .text.dsm_has_unflashed_data
                0x00000000       0x24 examples/light_switch/server/CMakeFiles/light_switch_server_nrf52840_xxAA_s140_5.0.0-3.alpha.dir/__/__/__/mesh/access/src/device_state_manager.c.obj
 .text.dsm_clear
                0x00000000       0x68 examples/light_switch/server/CMakeFiles/light_switch_server_nrf52840_xxAA_s140_5.0.0-3.alpha.dir/__/__/__/mesh/access/src/device_state_manager.c.obj
 .text.dsm_address_publish_remove
                0x00000000       0x40 examples/light_switch/server/CMakeFiles/light_switch_server_nrf52840_xxAA_s140_5.0.0-3.alpha.dir/__/__/__/mesh/access/src/device_state_manager.c.obj
 .text.dsm_address_subscription_count_get
                0x00000000       0x58 examples/light_switch/server/CMakeFiles/light_switch_server_nrf52840_xxAA_s140_5.0.0-3.alpha.dir/__/__/__/mesh/access/src/device_state_manager.c.obj
 .text.dsm_address_get_all
                0x00000000       0x64 examples/light_switch/server/CMakeFiles/light_switch_server_nrf52840_xxAA_s140_5.0.0-3.alpha.dir/__/__/__/mesh/access/src/device_state_manager.c.obj
 .text.dsm_subnet_handle_get
                0x00000000        0xc examples/light_switch/server/CMakeFiles/light_switch_server_nrf52840_xxAA_s140_5.0.0-3.alpha.dir/__/__/__/mesh/access/src/device_state_manager.c.obj
 .text.dsm_subnet_handle_to_netkey_index
                0x00000000       0x30 examples/light_switch/server/CMakeFiles/light_switch_server_nrf52840_xxAA_s140_5.0.0-3.alpha.dir/__/__/__/mesh/access/src/device_state_manager.c.obj
 .text.dsm_devkey_handle_get
                0x00000000       0x34 examples/light_switch/server/CMakeFiles/light_switch_server_nrf52840_xxAA_s140_5.0.0-3.alpha.dir/__/__/__/mesh/access/src/device_state_manager.c.obj
 .text.dsm_beacon_secmat_get
                0x00000000       0x2c examples/light_switch/server/CMakeFiles/light_switch_server_nrf52840_xxAA_s140_5.0.0-3.alpha.dir/__/__/__/mesh/access/src/device_state_manager.c.obj
 .text.dsm_proxy_identity_get
                0x00000000        0x4 examples/light_switch/server/CMakeFiles/light_switch_server_nrf52840_xxAA_s140_5.0.0-3.alpha.dir/__/__/__/mesh/access/src/device_state_manager.c.obj
 .text          0x00000000        0x0 examples/light_switch/server/CMakeFiles/light_switch_server_nrf52840_xxAA_s140_5.0.0-3.alpha.dir/__/__/__/mesh/prov/src/prov_provisionee.c.obj
 .data          0x00000000        0x0 examples/light_switch/server/CMakeFiles/light_switch_server_nrf52840_xxAA_s140_5.0.0-3.alpha.dir/__/__/__/mesh/prov/src/prov_provisionee.c.obj
 .bss           0x00000000        0x0 examples/light_switch/server/CMakeFiles/light_switch_server_nrf52840_xxAA_s140_5.0.0-3.alpha.dir/__/__/__/mesh/prov/src/prov_provisionee.c.obj
 .text.prov_provisionee_shared_secret
                0x00000000       0x2a examples/light_switch/server/CMakeFiles/light_switch_server_nrf52840_xxAA_s140_5.0.0-3.alpha.dir/__/__/__/mesh/prov/src/prov_provisionee.c.obj
 .text          0x00000000        0x0 examples/light_switch/server/CMakeFiles/light_switch_server_nrf52840_xxAA_s140_5.0.0-3.alpha.dir/__/__/__/mesh/prov/src/nrf_mesh_prov.c.obj
 .data          0x00000000        0x0 examples/light_switch/server/CMakeFiles/light_switch_server_nrf52840_xxAA_s140_5.0.0-3.alpha.dir/__/__/__/mesh/prov/src/nrf_mesh_prov.c.obj
 .bss           0x00000000        0x0 examples/light_switch/server/CMakeFiles/light_switch_server_nrf52840_xxAA_s140_5.0.0-3.alpha.dir/__/__/__/mesh/prov/src/nrf_mesh_prov.c.obj
 .text.nrf_mesh_prov_provision
                0x00000000       0x4e examples/light_switch/server/CMakeFiles/light_switch_server_nrf52840_xxAA_s140_5.0.0-3.alpha.dir/__/__/__/mesh/prov/src/nrf_mesh_prov.c.obj
 .text.nrf_mesh_prov_oob_use
                0x00000000        0xe examples/light_switch/server/CMakeFiles/light_switch_server_nrf52840_xxAA_s140_5.0.0-3.alpha.dir/__/__/__/mesh/prov/src/nrf_mesh_prov.c.obj
 .text.nrf_mesh_prov_shared_secret_provide
                0x00000000        0xe examples/light_switch/server/CMakeFiles/light_switch_server_nrf52840_xxAA_s140_5.0.0-3.alpha.dir/__/__/__/mesh/prov/src/nrf_mesh_prov.c.obj
 .text.nrf_mesh_prov_pubkey_provide
                0x00000000       0x10 examples/light_switch/server/CMakeFiles/light_switch_server_nrf52840_xxAA_s140_5.0.0-3.alpha.dir/__/__/__/mesh/prov/src/nrf_mesh_prov.c.obj
 .text          0x00000000        0x0 examples/light_switch/server/CMakeFiles/light_switch_server_nrf52840_xxAA_s140_5.0.0-3.alpha.dir/__/__/__/mesh/prov/src/provisioning.c.obj
 .data          0x00000000        0x0 examples/light_switch/server/CMakeFiles/light_switch_server_nrf52840_xxAA_s140_5.0.0-3.alpha.dir/__/__/__/mesh/prov/src/provisioning.c.obj
 .bss           0x00000000        0x0 examples/light_switch/server/CMakeFiles/light_switch_server_nrf52840_xxAA_s140_5.0.0-3.alpha.dir/__/__/__/mesh/prov/src/provisioning.c.obj
 .text.prov_listen_stop
                0x00000000        0x8 examples/light_switch/server/CMakeFiles/light_switch_server_nrf52840_xxAA_s140_5.0.0-3.alpha.dir/__/__/__/mesh/prov/src/provisioning.c.obj
 .text.prov_link_open
                0x00000000       0x14 examples/light_switch/server/CMakeFiles/light_switch_server_nrf52840_xxAA_s140_5.0.0-3.alpha.dir/__/__/__/mesh/prov/src/provisioning.c.obj
 .text.prov_tx_invite
                0x00000000       0x28 examples/light_switch/server/CMakeFiles/light_switch_server_nrf52840_xxAA_s140_5.0.0-3.alpha.dir/__/__/__/mesh/prov/src/provisioning.c.obj
 .text.prov_tx_start
                0x00000000       0x20 examples/light_switch/server/CMakeFiles/light_switch_server_nrf52840_xxAA_s140_5.0.0-3.alpha.dir/__/__/__/mesh/prov/src/provisioning.c.obj
 .text.prov_tx_data
                0x00000000        0x6 examples/light_switch/server/CMakeFiles/light_switch_server_nrf52840_xxAA_s140_5.0.0-3.alpha.dir/__/__/__/mesh/prov/src/provisioning.c.obj
 .text.prov_tx  0x00000000        0x4 examples/light_switch/server/CMakeFiles/light_switch_server_nrf52840_xxAA_s140_5.0.0-3.alpha.dir/__/__/__/mesh/prov/src/provisioning.c.obj
 .text          0x00000000        0x0 examples/light_switch/server/CMakeFiles/light_switch_server_nrf52840_xxAA_s140_5.0.0-3.alpha.dir/__/__/__/mesh/prov/src/prov_beacon.c.obj
 .data          0x00000000        0x0 examples/light_switch/server/CMakeFiles/light_switch_server_nrf52840_xxAA_s140_5.0.0-3.alpha.dir/__/__/__/mesh/prov/src/prov_beacon.c.obj
 .bss           0x00000000        0x0 examples/light_switch/server/CMakeFiles/light_switch_server_nrf52840_xxAA_s140_5.0.0-3.alpha.dir/__/__/__/mesh/prov/src/prov_beacon.c.obj
 .text.prov_beacon_unprov_report
                0x00000000        0xc examples/light_switch/server/CMakeFiles/light_switch_server_nrf52840_xxAA_s140_5.0.0-3.alpha.dir/__/__/__/mesh/prov/src/prov_beacon.c.obj
 .text          0x00000000        0x0 examples/light_switch/server/CMakeFiles/light_switch_server_nrf52840_xxAA_s140_5.0.0-3.alpha.dir/__/__/__/mesh/prov/src/prov_utils.c.obj
 .data          0x00000000        0x0 examples/light_switch/server/CMakeFiles/light_switch_server_nrf52840_xxAA_s140_5.0.0-3.alpha.dir/__/__/__/mesh/prov/src/prov_utils.c.obj
 .bss           0x00000000        0x0 examples/light_switch/server/CMakeFiles/light_switch_server_nrf52840_xxAA_s140_5.0.0-3.alpha.dir/__/__/__/mesh/prov/src/prov_utils.c.obj
 .text          0x00000000        0x0 examples/light_switch/server/CMakeFiles/light_switch_server_nrf52840_xxAA_s140_5.0.0-3.alpha.dir/__/__/__/mesh/prov/src/prov_bearer_adv.c.obj
 .data          0x00000000        0x0 examples/light_switch/server/CMakeFiles/light_switch_server_nrf52840_xxAA_s140_5.0.0-3.alpha.dir/__/__/__/mesh/prov/src/prov_bearer_adv.c.obj
 .bss           0x00000000        0x0 examples/light_switch/server/CMakeFiles/light_switch_server_nrf52840_xxAA_s140_5.0.0-3.alpha.dir/__/__/__/mesh/prov/src/prov_bearer_adv.c.obj
 .text          0x00000000        0x0 examples/light_switch/server/CMakeFiles/light_switch_server_nrf52840_xxAA_s140_5.0.0-3.alpha.dir/__/__/__/mesh/access/src/nrf_mesh_node_config.c.obj
 .data          0x00000000        0x0 examples/light_switch/server/CMakeFiles/light_switch_server_nrf52840_xxAA_s140_5.0.0-3.alpha.dir/__/__/__/mesh/access/src/nrf_mesh_node_config.c.obj
 .bss           0x00000000        0x0 examples/light_switch/server/CMakeFiles/light_switch_server_nrf52840_xxAA_s140_5.0.0-3.alpha.dir/__/__/__/mesh/access/src/nrf_mesh_node_config.c.obj
 .text.nrf_mesh_node_config_clear
                0x00000000       0x1a examples/light_switch/server/CMakeFiles/light_switch_server_nrf52840_xxAA_s140_5.0.0-3.alpha.dir/__/__/__/mesh/access/src/nrf_mesh_node_config.c.obj
 .text          0x00000000        0x0 examples/light_switch/server/CMakeFiles/light_switch_server_nrf52840_xxAA_s140_5.0.0-3.alpha.dir/__/__/__/external/nRF5_SDK_14.0.0_3bcc1f7/components/toolchain/system_nrf52840.c.obj
 .data          0x00000000        0x0 examples/light_switch/server/CMakeFiles/light_switch_server_nrf52840_xxAA_s140_5.0.0-3.alpha.dir/__/__/__/external/nRF5_SDK_14.0.0_3bcc1f7/components/toolchain/system_nrf52840.c.obj
 .bss           0x00000000        0x0 examples/light_switch/server/CMakeFiles/light_switch_server_nrf52840_xxAA_s140_5.0.0-3.alpha.dir/__/__/__/external/nRF5_SDK_14.0.0_3bcc1f7/components/toolchain/system_nrf52840.c.obj
 .text.SystemCoreClockUpdate
                0x00000000       0x10 examples/light_switch/server/CMakeFiles/light_switch_server_nrf52840_xxAA_s140_5.0.0-3.alpha.dir/__/__/__/external/nRF5_SDK_14.0.0_3bcc1f7/components/toolchain/system_nrf52840.c.obj
 .data          0x00000000        0x0 examples/light_switch/server/CMakeFiles/light_switch_server_nrf52840_xxAA_s140_5.0.0-3.alpha.dir/__/__/__/external/nRF5_SDK_14.0.0_3bcc1f7/components/toolchain/gcc/gcc_startup_nrf52840.S.obj
 .bss           0x00000000        0x0 examples/light_switch/server/CMakeFiles/light_switch_server_nrf52840_xxAA_s140_5.0.0-3.alpha.dir/__/__/__/external/nRF5_SDK_14.0.0_3bcc1f7/components/toolchain/gcc/gcc_startup_nrf52840.S.obj
 .text          0x00000000        0x0 mesh/core/libmesh_core_nrf52840_xxAA.a(nrf_mesh_configure.c.obj)
 .data          0x00000000        0x0 mesh/core/libmesh_core_nrf52840_xxAA.a(nrf_mesh_configure.c.obj)
 .bss           0x00000000        0x0 mesh/core/libmesh_core_nrf52840_xxAA.a(nrf_mesh_configure.c.obj)
 .text.nrf_mesh_configure_device_uuid_set
                0x00000000       0x10 mesh/core/libmesh_core_nrf52840_xxAA.a(nrf_mesh_configure.c.obj)
 .text          0x00000000        0x0 mesh/core/libmesh_core_nrf52840_xxAA.a(event.c.obj)
 .data          0x00000000        0x0 mesh/core/libmesh_core_nrf52840_xxAA.a(event.c.obj)
 .bss           0x00000000        0x0 mesh/core/libmesh_core_nrf52840_xxAA.a(event.c.obj)
 .text          0x00000000        0x0 mesh/core/libmesh_core_nrf52840_xxAA.a(net_state.c.obj)
 .data          0x00000000        0x0 mesh/core/libmesh_core_nrf52840_xxAA.a(net_state.c.obj)
 .bss           0x00000000        0x0 mesh/core/libmesh_core_nrf52840_xxAA.a(net_state.c.obj)
 .text.net_state_reset
                0x00000000       0x3c mesh/core/libmesh_core_nrf52840_xxAA.a(net_state.c.obj)
 .text.net_state_iv_update_test_mode_set
                0x00000000        0xc mesh/core/libmesh_core_nrf52840_xxAA.a(net_state.c.obj)
 .data.mem_listener.10054
                0x00000000       0x10 mesh/core/libmesh_core_nrf52840_xxAA.a(net_state.c.obj)
 .text          0x00000000        0x0 mesh/core/libmesh_core_nrf52840_xxAA.a(nrf_mesh_utils.c.obj)
 .data          0x00000000        0x0 mesh/core/libmesh_core_nrf52840_xxAA.a(nrf_mesh_utils.c.obj)
 .bss           0x00000000        0x0 mesh/core/libmesh_core_nrf52840_xxAA.a(nrf_mesh_utils.c.obj)
 .text.nrf_mesh_rand_get
                0x00000000       0x10 mesh/core/libmesh_core_nrf52840_xxAA.a(nrf_mesh_utils.c.obj)
 .text.nrf_mesh_gap_address_type_get
                0x00000000       0x3c mesh/core/libmesh_core_nrf52840_xxAA.a(nrf_mesh_utils.c.obj)
 .text          0x00000000        0x0 mesh/core/libmesh_core_nrf52840_xxAA.a(nrf_mesh.c.obj)
 .data          0x00000000        0x0 mesh/core/libmesh_core_nrf52840_xxAA.a(nrf_mesh.c.obj)
 .bss           0x00000000        0x0 mesh/core/libmesh_core_nrf52840_xxAA.a(nrf_mesh.c.obj)
 .text.nrf_mesh_disable
                0x00000000       0x28 mesh/core/libmesh_core_nrf52840_xxAA.a(nrf_mesh.c.obj)
 .text.nrf_mesh_rx_cb_set
                0x00000000        0xc mesh/core/libmesh_core_nrf52840_xxAA.a(nrf_mesh.c.obj)
 .text.nrf_mesh_rx_cb_clear
                0x00000000        0xc mesh/core/libmesh_core_nrf52840_xxAA.a(nrf_mesh.c.obj)
 .text          0x00000000        0x0 mesh/core/libmesh_core_nrf52840_xxAA.a(hal.c.obj)
 .data          0x00000000        0x0 mesh/core/libmesh_core_nrf52840_xxAA.a(hal.c.obj)
 .bss           0x00000000        0x0 mesh/core/libmesh_core_nrf52840_xxAA.a(hal.c.obj)
 .text.sd_power_reset_reason_clr
                0x00000000        0x4 mesh/core/libmesh_core_nrf52840_xxAA.a(hal.c.obj)
 .text.hal_device_reset
                0x00000000       0x2c mesh/core/libmesh_core_nrf52840_xxAA.a(hal.c.obj)
 .text          0x00000000        0x0 mesh/core/libmesh_core_nrf52840_xxAA.a(timer_scheduler.c.obj)
 .data          0x00000000        0x0 mesh/core/libmesh_core_nrf52840_xxAA.a(timer_scheduler.c.obj)
 .bss           0x00000000        0x0 mesh/core/libmesh_core_nrf52840_xxAA.a(timer_scheduler.c.obj)
 .text          0x00000000        0x0 mesh/core/libmesh_core_nrf52840_xxAA.a(timer.c.obj)
 .data          0x00000000        0x0 mesh/core/libmesh_core_nrf52840_xxAA.a(timer.c.obj)
 .bss           0x00000000        0x0 mesh/core/libmesh_core_nrf52840_xxAA.a(timer.c.obj)
 .text.timer_order_cb_ppi
                0x00000000       0xc4 mesh/core/libmesh_core_nrf52840_xxAA.a(timer.c.obj)
 .text.timer_order_ppi
                0x00000000       0x84 mesh/core/libmesh_core_nrf52840_xxAA.a(timer.c.obj)
 .text.timer_abort
                0x00000000       0x78 mesh/core/libmesh_core_nrf52840_xxAA.a(timer.c.obj)
 .text          0x00000000        0x0 mesh/core/libmesh_core_nrf52840_xxAA.a(ticker.c.obj)
 .data          0x00000000        0x0 mesh/core/libmesh_core_nrf52840_xxAA.a(ticker.c.obj)
 .bss           0x00000000        0x0 mesh/core/libmesh_core_nrf52840_xxAA.a(ticker.c.obj)
 .text.ticker_get
                0x00000000        0xc mesh/core/libmesh_core_nrf52840_xxAA.a(ticker.c.obj)
 .text          0x00000000        0x0 mesh/core/libmesh_core_nrf52840_xxAA.a(rand.c.obj)
 .data          0x00000000        0x0 mesh/core/libmesh_core_nrf52840_xxAA.a(rand.c.obj)
 .bss           0x00000000        0x0 mesh/core/libmesh_core_nrf52840_xxAA.a(rand.c.obj)
 .text          0x00000000        0x0 mesh/core/libmesh_core_nrf52840_xxAA.a(nrf_mesh_opt.c.obj)
 .data          0x00000000        0x0 mesh/core/libmesh_core_nrf52840_xxAA.a(nrf_mesh_opt.c.obj)
 .bss           0x00000000        0x0 mesh/core/libmesh_core_nrf52840_xxAA.a(nrf_mesh_opt.c.obj)
 .text          0x00000000        0x0 mesh/core/libmesh_core_nrf52840_xxAA.a(timeslot.c.obj)
 .data          0x00000000        0x0 mesh/core/libmesh_core_nrf52840_xxAA.a(timeslot.c.obj)
 .bss           0x00000000        0x0 mesh/core/libmesh_core_nrf52840_xxAA.a(timeslot.c.obj)
 .text.timeslot_end_time_get
                0x00000000       0x10 mesh/core/libmesh_core_nrf52840_xxAA.a(timeslot.c.obj)
 .text.timeslot_is_in_ts
                0x00000000        0xc mesh/core/libmesh_core_nrf52840_xxAA.a(timeslot.c.obj)
 .text.timeslot_restart
                0x00000000       0x10 mesh/core/libmesh_core_nrf52840_xxAA.a(timeslot.c.obj)
 .text          0x00000000        0x0 mesh/core/libmesh_core_nrf52840_xxAA.a(bearer_event.c.obj)
 .data          0x00000000        0x0 mesh/core/libmesh_core_nrf52840_xxAA.a(bearer_event.c.obj)
 .bss           0x00000000        0x0 mesh/core/libmesh_core_nrf52840_xxAA.a(bearer_event.c.obj)
 .text.bearer_event_generic_post
                0x00000000       0x30 mesh/core/libmesh_core_nrf52840_xxAA.a(bearer_event.c.obj)
 .text.bearer_event_timer_sch_post
                0x00000000       0x34 mesh/core/libmesh_core_nrf52840_xxAA.a(bearer_event.c.obj)
 .text          0x00000000        0x0 mesh/core/libmesh_core_nrf52840_xxAA.a(enc.c.obj)
 .data          0x00000000        0x0 mesh/core/libmesh_core_nrf52840_xxAA.a(enc.c.obj)
 .bss           0x00000000        0x0 mesh/core/libmesh_core_nrf52840_xxAA.a(enc.c.obj)
 .text.enc_key_generate
                0x00000000        0x6 mesh/core/libmesh_core_nrf52840_xxAA.a(enc.c.obj)
 .text          0x00000000        0x0 mesh/core/libmesh_core_nrf52840_xxAA.a(network.c.obj)
 .data          0x00000000        0x0 mesh/core/libmesh_core_nrf52840_xxAA.a(network.c.obj)
 .bss           0x00000000        0x0 mesh/core/libmesh_core_nrf52840_xxAA.a(network.c.obj)
 .text.network_packet_discard
                0x00000000       0x3c mesh/core/libmesh_core_nrf52840_xxAA.a(network.c.obj)
 .text          0x00000000        0x0 mesh/core/libmesh_core_nrf52840_xxAA.a(nrf_mesh_keygen.c.obj)
 .data          0x00000000        0x0 mesh/core/libmesh_core_nrf52840_xxAA.a(nrf_mesh_keygen.c.obj)
 .bss           0x00000000        0x0 mesh/core/libmesh_core_nrf52840_xxAA.a(nrf_mesh_keygen.c.obj)
 .text.nrf_mesh_keygen_identitykey
                0x00000000       0x4c mesh/core/libmesh_core_nrf52840_xxAA.a(nrf_mesh_keygen.c.obj)
 .text          0x00000000        0x0 mesh/core/libmesh_core_nrf52840_xxAA.a(log.c.obj)
 .data          0x00000000        0x0 mesh/core/libmesh_core_nrf52840_xxAA.a(log.c.obj)
 .bss           0x00000000        0x0 mesh/core/libmesh_core_nrf52840_xxAA.a(log.c.obj)
 .text.log_callback_logview
                0x00000000       0x38 mesh/core/libmesh_core_nrf52840_xxAA.a(log.c.obj)
 .text.log_set_callback
                0x00000000        0xc mesh/core/libmesh_core_nrf52840_xxAA.a(log.c.obj)
 .rodata.log_callback_logview.str1.1
                0x00000000        0xf mesh/core/libmesh_core_nrf52840_xxAA.a(log.c.obj)
 .text          0x00000000        0x0 mesh/core/libmesh_core_nrf52840_xxAA.a(flash_manager.c.obj)
 .data          0x00000000        0x0 mesh/core/libmesh_core_nrf52840_xxAA.a(flash_manager.c.obj)
 .bss           0x00000000        0x0 mesh/core/libmesh_core_nrf52840_xxAA.a(flash_manager.c.obj)
 .text.flash_manager_entry_count_get
                0x00000000       0x5c mesh/core/libmesh_core_nrf52840_xxAA.a(flash_manager.c.obj)
 .text.flash_manager_entry_release
                0x00000000       0x12 mesh/core/libmesh_core_nrf52840_xxAA.a(flash_manager.c.obj)
 .text          0x00000000        0x0 mesh/core/libmesh_core_nrf52840_xxAA.a(ccm_soft.c.obj)
 .data          0x00000000        0x0 mesh/core/libmesh_core_nrf52840_xxAA.a(ccm_soft.c.obj)
 .bss           0x00000000        0x0 mesh/core/libmesh_core_nrf52840_xxAA.a(ccm_soft.c.obj)
 .text          0x00000000        0x0 mesh/core/libmesh_core_nrf52840_xxAA.a(beacon.c.obj)
 .data          0x00000000        0x0 mesh/core/libmesh_core_nrf52840_xxAA.a(beacon.c.obj)
 .bss           0x00000000        0x0 mesh/core/libmesh_core_nrf52840_xxAA.a(beacon.c.obj)
 .text          0x00000000        0x0 mesh/core/libmesh_core_nrf52840_xxAA.a(flash_manager_internal.c.obj)
 .data          0x00000000        0x0 mesh/core/libmesh_core_nrf52840_xxAA.a(flash_manager_internal.c.obj)
 .bss           0x00000000        0x0 mesh/core/libmesh_core_nrf52840_xxAA.a(flash_manager_internal.c.obj)
 .text          0x00000000        0x0 mesh/core/libmesh_core_nrf52840_xxAA.a(core_tx.c.obj)
 .data          0x00000000        0x0 mesh/core/libmesh_core_nrf52840_xxAA.a(core_tx.c.obj)
 .bss           0x00000000        0x0 mesh/core/libmesh_core_nrf52840_xxAA.a(core_tx.c.obj)
 .text.core_tx_adv_address_set
                0x00000000       0x34 mesh/core/libmesh_core_nrf52840_xxAA.a(core_tx.c.obj)
 .text          0x00000000        0x0 mesh/core/libmesh_core_nrf52840_xxAA.a(net_beacon.c.obj)
 .data          0x00000000        0x0 mesh/core/libmesh_core_nrf52840_xxAA.a(net_beacon.c.obj)
 .bss           0x00000000        0x0 mesh/core/libmesh_core_nrf52840_xxAA.a(net_beacon.c.obj)
 .text          0x00000000        0x0 mesh/core/libmesh_core_nrf52840_xxAA.a(advertiser.c.obj)
 .data          0x00000000        0x0 mesh/core/libmesh_core_nrf52840_xxAA.a(advertiser.c.obj)
 .bss           0x00000000        0x0 mesh/core/libmesh_core_nrf52840_xxAA.a(advertiser.c.obj)
 .text.advertiser_disable
                0x00000000        0xa mesh/core/libmesh_core_nrf52840_xxAA.a(advertiser.c.obj)
 .text.advertiser_channels_set
                0x00000000       0x84 mesh/core/libmesh_core_nrf52840_xxAA.a(advertiser.c.obj)
 .text.advertiser_address_set
                0x00000000       0x50 mesh/core/libmesh_core_nrf52840_xxAA.a(advertiser.c.obj)
 .text.advertiser_config_set
                0x00000000       0x44 mesh/core/libmesh_core_nrf52840_xxAA.a(advertiser.c.obj)
 .text.advertiser_config_get
                0x00000000       0x2c mesh/core/libmesh_core_nrf52840_xxAA.a(advertiser.c.obj)
 .text          0x00000000        0x0 mesh/core/libmesh_core_nrf52840_xxAA.a(bearer_handler.c.obj)
 .data          0x00000000        0x0 mesh/core/libmesh_core_nrf52840_xxAA.a(bearer_handler.c.obj)
 .bss           0x00000000        0x0 mesh/core/libmesh_core_nrf52840_xxAA.a(bearer_handler.c.obj)
 .text.bearer_handler_stop
                0x00000000       0x20 mesh/core/libmesh_core_nrf52840_xxAA.a(bearer_handler.c.obj)
 .text.bearer_handler_action_fire
                0x00000000       0xb0 mesh/core/libmesh_core_nrf52840_xxAA.a(bearer_handler.c.obj)
 .text          0x00000000        0x0 mesh/core/libmesh_core_nrf52840_xxAA.a(broadcast.c.obj)
 .data          0x00000000        0x0 mesh/core/libmesh_core_nrf52840_xxAA.a(broadcast.c.obj)
 .bss           0x00000000        0x0 mesh/core/libmesh_core_nrf52840_xxAA.a(broadcast.c.obj)
 .text          0x00000000        0x0 mesh/core/libmesh_core_nrf52840_xxAA.a(radio_config.c.obj)
 .data          0x00000000        0x0 mesh/core/libmesh_core_nrf52840_xxAA.a(radio_config.c.obj)
 .bss           0x00000000        0x0 mesh/core/libmesh_core_nrf52840_xxAA.a(radio_config.c.obj)
 .text.radio_config_access_addr_get
                0x00000000       0x64 mesh/core/libmesh_core_nrf52840_xxAA.a(radio_config.c.obj)
 .text          0x00000000        0x0 mesh/core/libmesh_core_nrf52840_xxAA.a(scanner.c.obj)
 .data          0x00000000        0x0 mesh/core/libmesh_core_nrf52840_xxAA.a(scanner.c.obj)
 .bss           0x00000000        0x0 mesh/core/libmesh_core_nrf52840_xxAA.a(scanner.c.obj)
 .text.scanner_disable
                0x00000000       0x48 mesh/core/libmesh_core_nrf52840_xxAA.a(scanner.c.obj)
 .text.scanner_is_enabled
                0x00000000       0x10 mesh/core/libmesh_core_nrf52840_xxAA.a(scanner.c.obj)
 .text.scanner_stats_get
                0x00000000        0x8 mesh/core/libmesh_core_nrf52840_xxAA.a(scanner.c.obj)
 .text.scanner_config_radio_mode_set
                0x00000000       0x10 mesh/core/libmesh_core_nrf52840_xxAA.a(scanner.c.obj)
 .text          0x00000000        0x0 mesh/core/libmesh_core_nrf52840_xxAA.a(internal_event.c.obj)
 .data          0x00000000        0x0 mesh/core/libmesh_core_nrf52840_xxAA.a(internal_event.c.obj)
 .bss           0x00000000        0x0 mesh/core/libmesh_core_nrf52840_xxAA.a(internal_event.c.obj)
 .text.internal_event_init
                0x00000000       0x40 mesh/core/libmesh_core_nrf52840_xxAA.a(internal_event.c.obj)
 .text.internal_event_pop
                0x00000000       0x1c mesh/core/libmesh_core_nrf52840_xxAA.a(internal_event.c.obj)
 .bss.m_internal_event_fifo_buffer
                0x00000000      0x100 mesh/core/libmesh_core_nrf52840_xxAA.a(internal_event.c.obj)
 .text          0x00000000        0x0 mesh/core/libmesh_core_nrf52840_xxAA.a(aes.c.obj)
 .data          0x00000000        0x0 mesh/core/libmesh_core_nrf52840_xxAA.a(aes.c.obj)
 .bss           0x00000000        0x0 mesh/core/libmesh_core_nrf52840_xxAA.a(aes.c.obj)
 .text          0x00000000        0x0 mesh/core/libmesh_core_nrf52840_xxAA.a(msg_cache.c.obj)
 .data          0x00000000        0x0 mesh/core/libmesh_core_nrf52840_xxAA.a(msg_cache.c.obj)
 .bss           0x00000000        0x0 mesh/core/libmesh_core_nrf52840_xxAA.a(msg_cache.c.obj)
 .text.msg_cache_clear
                0x00000000       0x18 mesh/core/libmesh_core_nrf52840_xxAA.a(msg_cache.c.obj)
 .text          0x00000000        0x0 mesh/core/libmesh_core_nrf52840_xxAA.a(transport.c.obj)
 .data          0x00000000        0x0 mesh/core/libmesh_core_nrf52840_xxAA.a(transport.c.obj)
 .bss           0x00000000        0x0 mesh/core/libmesh_core_nrf52840_xxAA.a(transport.c.obj)
 .text.transport_sar_mem_funcs_set
                0x00000000       0x44 mesh/core/libmesh_core_nrf52840_xxAA.a(transport.c.obj)
 .text          0x00000000        0x0 mesh/core/libmesh_core_nrf52840_xxAA.a(packet_buffer.c.obj)
 .data          0x00000000        0x0 mesh/core/libmesh_core_nrf52840_xxAA.a(packet_buffer.c.obj)
 .bss           0x00000000        0x0 mesh/core/libmesh_core_nrf52840_xxAA.a(packet_buffer.c.obj)
 .text.packet_buffer_max_packet_len_get
                0x00000000       0x34 mesh/core/libmesh_core_nrf52840_xxAA.a(packet_buffer.c.obj)
 .text          0x00000000        0x0 mesh/core/libmesh_core_nrf52840_xxAA.a(flash_manager_defrag.c.obj)
 .data          0x00000000        0x0 mesh/core/libmesh_core_nrf52840_xxAA.a(flash_manager_defrag.c.obj)
 .bss           0x00000000        0x0 mesh/core/libmesh_core_nrf52840_xxAA.a(flash_manager_defrag.c.obj)
 .text.flash_manager_defragging
                0x00000000       0x44 mesh/core/libmesh_core_nrf52840_xxAA.a(flash_manager_defrag.c.obj)
 .text          0x00000000        0x0 mesh/core/libmesh_core_nrf52840_xxAA.a(fifo.c.obj)
 .data          0x00000000        0x0 mesh/core/libmesh_core_nrf52840_xxAA.a(fifo.c.obj)
 .bss           0x00000000        0x0 mesh/core/libmesh_core_nrf52840_xxAA.a(fifo.c.obj)
 .text.fifo_peek_at
                0x00000000       0x50 mesh/core/libmesh_core_nrf52840_xxAA.a(fifo.c.obj)
 .text.fifo_peek
                0x00000000        0x6 mesh/core/libmesh_core_nrf52840_xxAA.a(fifo.c.obj)
 .text.fifo_flush
                0x00000000        0x6 mesh/core/libmesh_core_nrf52840_xxAA.a(fifo.c.obj)
 .text.fifo_get_len
                0x00000000        0x8 mesh/core/libmesh_core_nrf52840_xxAA.a(fifo.c.obj)
 .text.fifo_is_full
                0x00000000       0x10 mesh/core/libmesh_core_nrf52840_xxAA.a(fifo.c.obj)
 .text.fifo_is_empty
                0x00000000        0xc mesh/core/libmesh_core_nrf52840_xxAA.a(fifo.c.obj)
 .text          0x00000000        0x0 mesh/core/libmesh_core_nrf52840_xxAA.a(packet_mgr.c.obj)
 .data          0x00000000        0x0 mesh/core/libmesh_core_nrf52840_xxAA.a(packet_mgr.c.obj)
 .bss           0x00000000        0x0 mesh/core/libmesh_core_nrf52840_xxAA.a(packet_mgr.c.obj)
 .text.packet_mgr_alloc
                0x00000000      0x19c mesh/core/libmesh_core_nrf52840_xxAA.a(packet_mgr.c.obj)
 .text.packet_mgr_free
                0x00000000       0x6c mesh/core/libmesh_core_nrf52840_xxAA.a(packet_mgr.c.obj)
 .text.packet_mgr_get_free_space
                0x00000000       0x1c mesh/core/libmesh_core_nrf52840_xxAA.a(packet_mgr.c.obj)
 .text.packet_mgr_refcount_get
                0x00000000        0x6 mesh/core/libmesh_core_nrf52840_xxAA.a(packet_mgr.c.obj)
 .text.packet_mgr_size_get
                0x00000000        0x6 mesh/core/libmesh_core_nrf52840_xxAA.a(packet_mgr.c.obj)
 .text          0x00000000        0x0 mesh/core/libmesh_core_nrf52840_xxAA.a(mesh_flash.c.obj)
 .data          0x00000000        0x0 mesh/core/libmesh_core_nrf52840_xxAA.a(mesh_flash.c.obj)
 .bss           0x00000000        0x0 mesh/core/libmesh_core_nrf52840_xxAA.a(mesh_flash.c.obj)
 .text.mesh_flash_op_available_slots
                0x00000000       0x2c mesh/core/libmesh_core_nrf52840_xxAA.a(mesh_flash.c.obj)
 .text.mesh_flash_in_progress
                0x00000000       0x34 mesh/core/libmesh_core_nrf52840_xxAA.a(mesh_flash.c.obj)
 .text.mesh_flash_set_suspended
                0x00000000       0x80 mesh/core/libmesh_core_nrf52840_xxAA.a(mesh_flash.c.obj)
 .bss.suspend_count.10174
                0x00000000        0x4 mesh/core/libmesh_core_nrf52840_xxAA.a(mesh_flash.c.obj)
 .text          0x00000000        0x0 mesh/core/libmesh_core_nrf52840_xxAA.a(queue.c.obj)
 .data          0x00000000        0x0 mesh/core/libmesh_core_nrf52840_xxAA.a(queue.c.obj)
 .bss           0x00000000        0x0 mesh/core/libmesh_core_nrf52840_xxAA.a(queue.c.obj)
 .text          0x00000000        0x0 mesh/core/libmesh_core_nrf52840_xxAA.a(aes_cmac.c.obj)
 .data          0x00000000        0x0 mesh/core/libmesh_core_nrf52840_xxAA.a(aes_cmac.c.obj)
 .bss           0x00000000        0x0 mesh/core/libmesh_core_nrf52840_xxAA.a(aes_cmac.c.obj)
 .text          0x00000000        0x0 mesh/core/libmesh_core_nrf52840_xxAA.a(msqueue.c.obj)
 .data          0x00000000        0x0 mesh/core/libmesh_core_nrf52840_xxAA.a(msqueue.c.obj)
 .bss           0x00000000        0x0 mesh/core/libmesh_core_nrf52840_xxAA.a(msqueue.c.obj)
 .text          0x00000000        0x0 mesh/core/libmesh_core_nrf52840_xxAA.a(replay_cache.c.obj)
 .data          0x00000000        0x0 mesh/core/libmesh_core_nrf52840_xxAA.a(replay_cache.c.obj)
 .bss           0x00000000        0x0 mesh/core/libmesh_core_nrf52840_xxAA.a(replay_cache.c.obj)
 .text.replay_cache_on_iv_update
                0x00000000       0x24 mesh/core/libmesh_core_nrf52840_xxAA.a(replay_cache.c.obj)
 .text          0x00000000        0x0 mesh/core/libmesh_core_nrf52840_xxAA.a(filter_engine.c.obj)
 .data          0x00000000        0x0 mesh/core/libmesh_core_nrf52840_xxAA.a(filter_engine.c.obj)
 .bss           0x00000000        0x0 mesh/core/libmesh_core_nrf52840_xxAA.a(filter_engine.c.obj)
 .text.fen_filter_start
                0x00000000       0x68 mesh/core/libmesh_core_nrf52840_xxAA.a(filter_engine.c.obj)
 .text.fen_filter_stop
                0x00000000       0x5c mesh/core/libmesh_core_nrf52840_xxAA.a(filter_engine.c.obj)
 .text.fen_accepted_amount_get
                0x00000000        0xc mesh/core/libmesh_core_nrf52840_xxAA.a(filter_engine.c.obj)
 .text          0x00000000        0x0 mesh/core/libmesh_core_nrf52840_xxAA.a(nrf_flash.c.obj)
 .data          0x00000000        0x0 mesh/core/libmesh_core_nrf52840_xxAA.a(nrf_flash.c.obj)
 .bss           0x00000000        0x0 mesh/core/libmesh_core_nrf52840_xxAA.a(nrf_flash.c.obj)
 .text          0x00000000        0x0 external/rtt/librtt_nrf52840_xxAA.a(SEGGER_RTT.c.obj)
 .data          0x00000000        0x0 external/rtt/librtt_nrf52840_xxAA.a(SEGGER_RTT.c.obj)
 .bss           0x00000000        0x0 external/rtt/librtt_nrf52840_xxAA.a(SEGGER_RTT.c.obj)
 .text._PostTerminalSwitch.constprop.0
                0x00000000       0x28 external/rtt/librtt_nrf52840_xxAA.a(SEGGER_RTT.c.obj)
 .text.SEGGER_RTT_ReadNoLock
                0x00000000       0x88 external/rtt/librtt_nrf52840_xxAA.a(SEGGER_RTT.c.obj)
 .text.SEGGER_RTT_Read
                0x00000000       0x1c external/rtt/librtt_nrf52840_xxAA.a(SEGGER_RTT.c.obj)
 .text.SEGGER_RTT_WriteSkipNoLock
                0x00000000       0xb4 external/rtt/librtt_nrf52840_xxAA.a(SEGGER_RTT.c.obj)
 .text.SEGGER_RTT_WriteString
                0x00000000       0x1a external/rtt/librtt_nrf52840_xxAA.a(SEGGER_RTT.c.obj)
 .text.SEGGER_RTT_GetKey
                0x00000000       0x20 external/rtt/librtt_nrf52840_xxAA.a(SEGGER_RTT.c.obj)
 .text.SEGGER_RTT_WaitKey
                0x00000000        0xc external/rtt/librtt_nrf52840_xxAA.a(SEGGER_RTT.c.obj)
 .text.SEGGER_RTT_HasKey
                0x00000000       0x1c external/rtt/librtt_nrf52840_xxAA.a(SEGGER_RTT.c.obj)
 .text.SEGGER_RTT_HasData
                0x00000000       0x14 external/rtt/librtt_nrf52840_xxAA.a(SEGGER_RTT.c.obj)
 .text.SEGGER_RTT_AllocDownBuffer
                0x00000000       0x68 external/rtt/librtt_nrf52840_xxAA.a(SEGGER_RTT.c.obj)
 .text.SEGGER_RTT_AllocUpBuffer
                0x00000000       0x70 external/rtt/librtt_nrf52840_xxAA.a(SEGGER_RTT.c.obj)
 .text.SEGGER_RTT_ConfigUpBuffer
                0x00000000       0x68 external/rtt/librtt_nrf52840_xxAA.a(SEGGER_RTT.c.obj)
 .text.SEGGER_RTT_ConfigDownBuffer
                0x00000000       0x60 external/rtt/librtt_nrf52840_xxAA.a(SEGGER_RTT.c.obj)
 .text.SEGGER_RTT_SetNameUpBuffer
                0x00000000       0x3c external/rtt/librtt_nrf52840_xxAA.a(SEGGER_RTT.c.obj)
 .text.SEGGER_RTT_SetNameDownBuffer
                0x00000000       0x3c external/rtt/librtt_nrf52840_xxAA.a(SEGGER_RTT.c.obj)
 .text.SEGGER_RTT_Init
                0x00000000       0x10 external/rtt/librtt_nrf52840_xxAA.a(SEGGER_RTT.c.obj)
 .text.SEGGER_RTT_SetTerminal
                0x00000000       0x84 external/rtt/librtt_nrf52840_xxAA.a(SEGGER_RTT.c.obj)
 .text.SEGGER_RTT_TerminalOut
                0x00000000       0xa0 external/rtt/librtt_nrf52840_xxAA.a(SEGGER_RTT.c.obj)
 .bss._ActiveTerminal
                0x00000000        0x1 external/rtt/librtt_nrf52840_xxAA.a(SEGGER_RTT.c.obj)
 .rodata._aTerminalId
                0x00000000       0x10 external/rtt/librtt_nrf52840_xxAA.a(SEGGER_RTT.c.obj)
 .text          0x00000000        0x0 external/rtt/librtt_nrf52840_xxAA.a(SEGGER_RTT_printf.c.obj)
 .data          0x00000000        0x0 external/rtt/librtt_nrf52840_xxAA.a(SEGGER_RTT_printf.c.obj)
 .bss           0x00000000        0x0 external/rtt/librtt_nrf52840_xxAA.a(SEGGER_RTT_printf.c.obj)
 .text          0x00000000        0x0 external/micro-ecc/libuECC_nrf52840_xxAA.a(uECC.c.obj)
 .data          0x00000000        0x0 external/micro-ecc/libuECC_nrf52840_xxAA.a(uECC.c.obj)
 .bss           0x00000000        0x0 external/micro-ecc/libuECC_nrf52840_xxAA.a(uECC.c.obj)
 .text.uECC_vli_modMult
                0x00000000      0x148 external/micro-ecc/libuECC_nrf52840_xxAA.a(uECC.c.obj)
 .text.HMAC_init
                0x00000000       0x46 external/micro-ecc/libuECC_nrf52840_xxAA.a(uECC.c.obj)
 .text.HMAC_update
                0x00000000        0x4 external/micro-ecc/libuECC_nrf52840_xxAA.a(uECC.c.obj)
 .text.HMAC_finish
                0x00000000       0x62 external/micro-ecc/libuECC_nrf52840_xxAA.a(uECC.c.obj)
 .text.update_V
                0x00000000       0x24 external/micro-ecc/libuECC_nrf52840_xxAA.a(uECC.c.obj)
 .text.bits2int
                0x00000000       0x88 external/micro-ecc/libuECC_nrf52840_xxAA.a(uECC.c.obj)
 .text.uECC_sign_with_k
                0x00000000      0x17c external/micro-ecc/libuECC_nrf52840_xxAA.a(uECC.c.obj)
 .text.uECC_set_rng
                0x00000000        0xc external/micro-ecc/libuECC_nrf52840_xxAA.a(uECC.c.obj)
 .text.uECC_get_rng
                0x00000000        0xc external/micro-ecc/libuECC_nrf52840_xxAA.a(uECC.c.obj)
 .text.uECC_curve_private_key_size
                0x00000000        0xe external/micro-ecc/libuECC_nrf52840_xxAA.a(uECC.c.obj)
 .text.uECC_curve_public_key_size
                0x00000000        0x8 external/micro-ecc/libuECC_nrf52840_xxAA.a(uECC.c.obj)
 .text.uECC_compute_public_key
                0x00000000       0x7e external/micro-ecc/libuECC_nrf52840_xxAA.a(uECC.c.obj)
 .text.uECC_sign
                0x00000000       0x56 external/micro-ecc/libuECC_nrf52840_xxAA.a(uECC.c.obj)
 .text.uECC_sign_deterministic
                0x00000000      0x192 external/micro-ecc/libuECC_nrf52840_xxAA.a(uECC.c.obj)
 .text.uECC_verify
                0x00000000      0x2f0 external/micro-ecc/libuECC_nrf52840_xxAA.a(uECC.c.obj)
 .text          0x00000000        0x0 c:/a/gcc_arm/6/bin/../lib/gcc/arm-none-eabi/6.3.1/../../../../arm-none-eabi/lib/thumb/v7e-m/fpv4-sp/hard\libc_nano.a(lib_a-exit.o)
 .data          0x00000000        0x0 c:/a/gcc_arm/6/bin/../lib/gcc/arm-none-eabi/6.3.1/../../../../arm-none-eabi/lib/thumb/v7e-m/fpv4-sp/hard\libc_nano.a(lib_a-exit.o)
 .bss           0x00000000        0x0 c:/a/gcc_arm/6/bin/../lib/gcc/arm-none-eabi/6.3.1/../../../../arm-none-eabi/lib/thumb/v7e-m/fpv4-sp/hard\libc_nano.a(lib_a-exit.o)
 .text          0x00000000        0x0 c:/a/gcc_arm/6/bin/../lib/gcc/arm-none-eabi/6.3.1/../../../../arm-none-eabi/lib/thumb/v7e-m/fpv4-sp/hard\libc_nano.a(lib_a-impure.o)
 .data          0x00000000        0x0 c:/a/gcc_arm/6/bin/../lib/gcc/arm-none-eabi/6.3.1/../../../../arm-none-eabi/lib/thumb/v7e-m/fpv4-sp/hard\libc_nano.a(lib_a-impure.o)
 .bss           0x00000000        0x0 c:/a/gcc_arm/6/bin/../lib/gcc/arm-none-eabi/6.3.1/../../../../arm-none-eabi/lib/thumb/v7e-m/fpv4-sp/hard\libc_nano.a(lib_a-impure.o)
 .text          0x00000000        0x0 c:/a/gcc_arm/6/bin/../lib/gcc/arm-none-eabi/6.3.1/../../../../arm-none-eabi/lib/thumb/v7e-m/fpv4-sp/hard\libc_nano.a(lib_a-init.o)
 .data          0x00000000        0x0 c:/a/gcc_arm/6/bin/../lib/gcc/arm-none-eabi/6.3.1/../../../../arm-none-eabi/lib/thumb/v7e-m/fpv4-sp/hard\libc_nano.a(lib_a-init.o)
 .bss           0x00000000        0x0 c:/a/gcc_arm/6/bin/../lib/gcc/arm-none-eabi/6.3.1/../../../../arm-none-eabi/lib/thumb/v7e-m/fpv4-sp/hard\libc_nano.a(lib_a-init.o)
 .text          0x00000000        0x0 c:/a/gcc_arm/6/bin/../lib/gcc/arm-none-eabi/6.3.1/../../../../arm-none-eabi/lib/thumb/v7e-m/fpv4-sp/hard\libc_nano.a(lib_a-malloc.o)
 .data          0x00000000        0x0 c:/a/gcc_arm/6/bin/../lib/gcc/arm-none-eabi/6.3.1/../../../../arm-none-eabi/lib/thumb/v7e-m/fpv4-sp/hard\libc_nano.a(lib_a-malloc.o)
 .bss           0x00000000        0x0 c:/a/gcc_arm/6/bin/../lib/gcc/arm-none-eabi/6.3.1/../../../../arm-none-eabi/lib/thumb/v7e-m/fpv4-sp/hard\libc_nano.a(lib_a-malloc.o)
 .text          0x00000000        0x0 c:/a/gcc_arm/6/bin/../lib/gcc/arm-none-eabi/6.3.1/../../../../arm-none-eabi/lib/thumb/v7e-m/fpv4-sp/hard\libc_nano.a(lib_a-memcmp.o)
 .data          0x00000000        0x0 c:/a/gcc_arm/6/bin/../lib/gcc/arm-none-eabi/6.3.1/../../../../arm-none-eabi/lib/thumb/v7e-m/fpv4-sp/hard\libc_nano.a(lib_a-memcmp.o)
 .bss           0x00000000        0x0 c:/a/gcc_arm/6/bin/../lib/gcc/arm-none-eabi/6.3.1/../../../../arm-none-eabi/lib/thumb/v7e-m/fpv4-sp/hard\libc_nano.a(lib_a-memcmp.o)
 .text          0x00000000        0x0 c:/a/gcc_arm/6/bin/../lib/gcc/arm-none-eabi/6.3.1/../../../../arm-none-eabi/lib/thumb/v7e-m/fpv4-sp/hard\libc_nano.a(lib_a-memcpy-stub.o)
 .data          0x00000000        0x0 c:/a/gcc_arm/6/bin/../lib/gcc/arm-none-eabi/6.3.1/../../../../arm-none-eabi/lib/thumb/v7e-m/fpv4-sp/hard\libc_nano.a(lib_a-memcpy-stub.o)
 .bss           0x00000000        0x0 c:/a/gcc_arm/6/bin/../lib/gcc/arm-none-eabi/6.3.1/../../../../arm-none-eabi/lib/thumb/v7e-m/fpv4-sp/hard\libc_nano.a(lib_a-memcpy-stub.o)
 .text          0x00000000        0x0 c:/a/gcc_arm/6/bin/../lib/gcc/arm-none-eabi/6.3.1/../../../../arm-none-eabi/lib/thumb/v7e-m/fpv4-sp/hard\libc_nano.a(lib_a-memset.o)
 .data          0x00000000        0x0 c:/a/gcc_arm/6/bin/../lib/gcc/arm-none-eabi/6.3.1/../../../../arm-none-eabi/lib/thumb/v7e-m/fpv4-sp/hard\libc_nano.a(lib_a-memset.o)
 .bss           0x00000000        0x0 c:/a/gcc_arm/6/bin/../lib/gcc/arm-none-eabi/6.3.1/../../../../arm-none-eabi/lib/thumb/v7e-m/fpv4-sp/hard\libc_nano.a(lib_a-memset.o)
 .text          0x00000000        0x0 c:/a/gcc_arm/6/bin/../lib/gcc/arm-none-eabi/6.3.1/../../../../arm-none-eabi/lib/thumb/v7e-m/fpv4-sp/hard\libc_nano.a(lib_a-nano-freer.o)
 .data          0x00000000        0x0 c:/a/gcc_arm/6/bin/../lib/gcc/arm-none-eabi/6.3.1/../../../../arm-none-eabi/lib/thumb/v7e-m/fpv4-sp/hard\libc_nano.a(lib_a-nano-freer.o)
 .bss           0x00000000        0x0 c:/a/gcc_arm/6/bin/../lib/gcc/arm-none-eabi/6.3.1/../../../../arm-none-eabi/lib/thumb/v7e-m/fpv4-sp/hard\libc_nano.a(lib_a-nano-freer.o)
 .text          0x00000000        0x0 c:/a/gcc_arm/6/bin/../lib/gcc/arm-none-eabi/6.3.1/../../../../arm-none-eabi/lib/thumb/v7e-m/fpv4-sp/hard\libc_nano.a(lib_a-nano-mallocr.o)
 .data          0x00000000        0x0 c:/a/gcc_arm/6/bin/../lib/gcc/arm-none-eabi/6.3.1/../../../../arm-none-eabi/lib/thumb/v7e-m/fpv4-sp/hard\libc_nano.a(lib_a-nano-mallocr.o)
 .bss           0x00000000        0x0 c:/a/gcc_arm/6/bin/../lib/gcc/arm-none-eabi/6.3.1/../../../../arm-none-eabi/lib/thumb/v7e-m/fpv4-sp/hard\libc_nano.a(lib_a-nano-mallocr.o)
 .text          0x00000000        0x0 c:/a/gcc_arm/6/bin/../lib/gcc/arm-none-eabi/6.3.1/../../../../arm-none-eabi/lib/thumb/v7e-m/fpv4-sp/hard\libc_nano.a(lib_a-sbrkr.o)
 .data          0x00000000        0x0 c:/a/gcc_arm/6/bin/../lib/gcc/arm-none-eabi/6.3.1/../../../../arm-none-eabi/lib/thumb/v7e-m/fpv4-sp/hard\libc_nano.a(lib_a-sbrkr.o)
 .bss           0x00000000        0x0 c:/a/gcc_arm/6/bin/../lib/gcc/arm-none-eabi/6.3.1/../../../../arm-none-eabi/lib/thumb/v7e-m/fpv4-sp/hard\libc_nano.a(lib_a-sbrkr.o)
 .text          0x00000000        0x0 c:/a/gcc_arm/6/bin/../lib/gcc/arm-none-eabi/6.3.1/../../../../arm-none-eabi/lib/thumb/v7e-m/fpv4-sp/hard\libc_nano.a(lib_a-strcpy.o)
 .data          0x00000000        0x0 c:/a/gcc_arm/6/bin/../lib/gcc/arm-none-eabi/6.3.1/../../../../arm-none-eabi/lib/thumb/v7e-m/fpv4-sp/hard\libc_nano.a(lib_a-strcpy.o)
 .bss           0x00000000        0x0 c:/a/gcc_arm/6/bin/../lib/gcc/arm-none-eabi/6.3.1/../../../../arm-none-eabi/lib/thumb/v7e-m/fpv4-sp/hard\libc_nano.a(lib_a-strcpy.o)
 .data          0x00000000        0x0 c:/a/gcc_arm/6/bin/../lib/gcc/arm-none-eabi/6.3.1/../../../../arm-none-eabi/lib/thumb/v7e-m/fpv4-sp/hard\libc_nano.a(lib_a-strlen.o)
 .bss           0x00000000        0x0 c:/a/gcc_arm/6/bin/../lib/gcc/arm-none-eabi/6.3.1/../../../../arm-none-eabi/lib/thumb/v7e-m/fpv4-sp/hard\libc_nano.a(lib_a-strlen.o)
 .text          0x00000000        0x0 c:/a/gcc_arm/6/bin/../lib/gcc/arm-none-eabi/6.3.1/../../../../arm-none-eabi/lib/thumb/v7e-m/fpv4-sp/hard\libc_nano.a(lib_a-strrchr.o)
 .data          0x00000000        0x0 c:/a/gcc_arm/6/bin/../lib/gcc/arm-none-eabi/6.3.1/../../../../arm-none-eabi/lib/thumb/v7e-m/fpv4-sp/hard\libc_nano.a(lib_a-strrchr.o)
 .bss           0x00000000        0x0 c:/a/gcc_arm/6/bin/../lib/gcc/arm-none-eabi/6.3.1/../../../../arm-none-eabi/lib/thumb/v7e-m/fpv4-sp/hard\libc_nano.a(lib_a-strrchr.o)
 .text          0x00000000        0x0 c:/a/gcc_arm/6/bin/../lib/gcc/arm-none-eabi/6.3.1/../../../../arm-none-eabi/lib/thumb/v7e-m/fpv4-sp/hard\libc_nano.a(lib_a-mlock.o)
 .data          0x00000000        0x0 c:/a/gcc_arm/6/bin/../lib/gcc/arm-none-eabi/6.3.1/../../../../arm-none-eabi/lib/thumb/v7e-m/fpv4-sp/hard\libc_nano.a(lib_a-mlock.o)
 .bss           0x00000000        0x0 c:/a/gcc_arm/6/bin/../lib/gcc/arm-none-eabi/6.3.1/../../../../arm-none-eabi/lib/thumb/v7e-m/fpv4-sp/hard\libc_nano.a(lib_a-mlock.o)
 .text          0x00000000        0x0 c:/a/gcc_arm/6/bin/../lib/gcc/arm-none-eabi/6.3.1/../../../../arm-none-eabi/lib/thumb/v7e-m/fpv4-sp/hard\libc_nano.a(lib_a-reent.o)
 .data          0x00000000        0x0 c:/a/gcc_arm/6/bin/../lib/gcc/arm-none-eabi/6.3.1/../../../../arm-none-eabi/lib/thumb/v7e-m/fpv4-sp/hard\libc_nano.a(lib_a-reent.o)
 .bss           0x00000000        0x0 c:/a/gcc_arm/6/bin/../lib/gcc/arm-none-eabi/6.3.1/../../../../arm-none-eabi/lib/thumb/v7e-m/fpv4-sp/hard\libc_nano.a(lib_a-reent.o)
 .text.cleanup_glue
                0x00000000       0x1a c:/a/gcc_arm/6/bin/../lib/gcc/arm-none-eabi/6.3.1/../../../../arm-none-eabi/lib/thumb/v7e-m/fpv4-sp/hard\libc_nano.a(lib_a-reent.o)
 .text._reclaim_reent
                0x00000000       0xb8 c:/a/gcc_arm/6/bin/../lib/gcc/arm-none-eabi/6.3.1/../../../../arm-none-eabi/lib/thumb/v7e-m/fpv4-sp/hard\libc_nano.a(lib_a-reent.o)
 .text          0x00000000        0x0 c:/a/gcc_arm/6/bin/../lib/gcc/arm-none-eabi/6.3.1/../../../../arm-none-eabi/lib/thumb/v7e-m/fpv4-sp/hard\libc_nano.a(lib_a-strchr.o)
 .data          0x00000000        0x0 c:/a/gcc_arm/6/bin/../lib/gcc/arm-none-eabi/6.3.1/../../../../arm-none-eabi/lib/thumb/v7e-m/fpv4-sp/hard\libc_nano.a(lib_a-strchr.o)
 .bss           0x00000000        0x0 c:/a/gcc_arm/6/bin/../lib/gcc/arm-none-eabi/6.3.1/../../../../arm-none-eabi/lib/thumb/v7e-m/fpv4-sp/hard\libc_nano.a(lib_a-strchr.o)
 .text          0x00000000        0x0 c:/a/gcc_arm/6/bin/../lib/gcc/arm-none-eabi/6.3.1/thumb/v7e-m/fpv4-sp/hard/crtend.o
 .data          0x00000000        0x0 c:/a/gcc_arm/6/bin/../lib/gcc/arm-none-eabi/6.3.1/thumb/v7e-m/fpv4-sp/hard/crtend.o
 .bss           0x00000000        0x0 c:/a/gcc_arm/6/bin/../lib/gcc/arm-none-eabi/6.3.1/thumb/v7e-m/fpv4-sp/hard/crtend.o
 .text          0x00000000        0x0 c:/a/gcc_arm/6/bin/../lib/gcc/arm-none-eabi/6.3.1/thumb/v7e-m/fpv4-sp/hard/crtn.o
 .data          0x00000000        0x0 c:/a/gcc_arm/6/bin/../lib/gcc/arm-none-eabi/6.3.1/thumb/v7e-m/fpv4-sp/hard/crtn.o
 .bss           0x00000000        0x0 c:/a/gcc_arm/6/bin/../lib/gcc/arm-none-eabi/6.3.1/thumb/v7e-m/fpv4-sp/hard/crtn.o
 .text          0x00000000        0x0 c:/a/gcc_arm/6/bin/../lib/gcc/arm-none-eabi/6.3.1/../../../../arm-none-eabi/lib/thumb/v7e-m/fpv4-sp/hard\libnosys.a(sbrk.o)
 .data          0x00000000        0x0 c:/a/gcc_arm/6/bin/../lib/gcc/arm-none-eabi/6.3.1/../../../../arm-none-eabi/lib/thumb/v7e-m/fpv4-sp/hard\libnosys.a(sbrk.o)
 .bss           0x00000000        0x0 c:/a/gcc_arm/6/bin/../lib/gcc/arm-none-eabi/6.3.1/../../../../arm-none-eabi/lib/thumb/v7e-m/fpv4-sp/hard\libnosys.a(sbrk.o)
 .text          0x00000000        0x0 c:/a/gcc_arm/6/bin/../lib/gcc/arm-none-eabi/6.3.1/../../../../arm-none-eabi/lib/thumb/v7e-m/fpv4-sp/hard\libnosys.a(_exit.o)
 .data          0x00000000        0x0 c:/a/gcc_arm/6/bin/../lib/gcc/arm-none-eabi/6.3.1/../../../../arm-none-eabi/lib/thumb/v7e-m/fpv4-sp/hard\libnosys.a(_exit.o)
 .bss           0x00000000        0x0 c:/a/gcc_arm/6/bin/../lib/gcc/arm-none-eabi/6.3.1/../../../../arm-none-eabi/lib/thumb/v7e-m/fpv4-sp/hard\libnosys.a(_exit.o)

Memory Configuration

Name             Origin             Length             Attributes
FLASH            0x00024000         0x000dc000         xr
RAM              0x200031b8         0x0003be4a         xrw
*default*        0x00000000         0xffffffff

Linker script and memory map

LOAD c:/a/gcc_arm/6/bin/../lib/gcc/arm-none-eabi/6.3.1/thumb/v7e-m/fpv4-sp/hard/crti.o
LOAD c:/a/gcc_arm/6/bin/../lib/gcc/arm-none-eabi/6.3.1/thumb/v7e-m/fpv4-sp/hard/crtbegin.o
LOAD c:/a/gcc_arm/6/bin/../lib/gcc/arm-none-eabi/6.3.1/../../../../arm-none-eabi/lib/thumb/v7e-m/fpv4-sp/hard/crt0.o
LOAD examples/light_switch/server/CMakeFiles/light_switch_server_nrf52840_xxAA_s140_5.0.0-3.alpha.dir/src/main.c.obj
LOAD examples/light_switch/server/CMakeFiles/light_switch_server_nrf52840_xxAA_s140_5.0.0-3.alpha.dir/__/__/nrf_mesh_sdk.c.obj
LOAD examples/light_switch/server/CMakeFiles/light_switch_server_nrf52840_xxAA_s140_5.0.0-3.alpha.dir/__/__/hal/src/simple_hal.c.obj
LOAD examples/light_switch/server/CMakeFiles/light_switch_server_nrf52840_xxAA_s140_5.0.0-3.alpha.dir/__/__/nrf_mesh_weak.c.obj
LOAD examples/light_switch/server/CMakeFiles/light_switch_server_nrf52840_xxAA_s140_5.0.0-3.alpha.dir/__/__/__/models/simple_on_off/src/simple_on_off_server.c.obj
LOAD examples/light_switch/server/CMakeFiles/light_switch_server_nrf52840_xxAA_s140_5.0.0-3.alpha.dir/__/__/__/models/config/src/composition_data.c.obj
LOAD examples/light_switch/server/CMakeFiles/light_switch_server_nrf52840_xxAA_s140_5.0.0-3.alpha.dir/__/__/__/models/config/src/config_server.c.obj
LOAD examples/light_switch/server/CMakeFiles/light_switch_server_nrf52840_xxAA_s140_5.0.0-3.alpha.dir/__/__/__/models/config/src/packed_index_list.c.obj
LOAD examples/light_switch/server/CMakeFiles/light_switch_server_nrf52840_xxAA_s140_5.0.0-3.alpha.dir/__/__/__/models/health/src/health_server.c.obj
LOAD examples/light_switch/server/CMakeFiles/light_switch_server_nrf52840_xxAA_s140_5.0.0-3.alpha.dir/__/__/__/mesh/access/src/access_publish.c.obj
LOAD examples/light_switch/server/CMakeFiles/light_switch_server_nrf52840_xxAA_s140_5.0.0-3.alpha.dir/__/__/__/mesh/access/src/access.c.obj
LOAD examples/light_switch/server/CMakeFiles/light_switch_server_nrf52840_xxAA_s140_5.0.0-3.alpha.dir/__/__/__/mesh/access/src/access_reliable.c.obj
LOAD examples/light_switch/server/CMakeFiles/light_switch_server_nrf52840_xxAA_s140_5.0.0-3.alpha.dir/__/__/__/mesh/access/src/device_state_manager.c.obj
LOAD examples/light_switch/server/CMakeFiles/light_switch_server_nrf52840_xxAA_s140_5.0.0-3.alpha.dir/__/__/__/mesh/prov/src/prov_provisionee.c.obj
LOAD examples/light_switch/server/CMakeFiles/light_switch_server_nrf52840_xxAA_s140_5.0.0-3.alpha.dir/__/__/__/mesh/prov/src/nrf_mesh_prov.c.obj
LOAD examples/light_switch/server/CMakeFiles/light_switch_server_nrf52840_xxAA_s140_5.0.0-3.alpha.dir/__/__/__/mesh/prov/src/provisioning.c.obj
LOAD examples/light_switch/server/CMakeFiles/light_switch_server_nrf52840_xxAA_s140_5.0.0-3.alpha.dir/__/__/__/mesh/prov/src/prov_beacon.c.obj
LOAD examples/light_switch/server/CMakeFiles/light_switch_server_nrf52840_xxAA_s140_5.0.0-3.alpha.dir/__/__/__/mesh/prov/src/prov_utils.c.obj
LOAD examples/light_switch/server/CMakeFiles/light_switch_server_nrf52840_xxAA_s140_5.0.0-3.alpha.dir/__/__/__/mesh/prov/src/prov_bearer_adv.c.obj
LOAD examples/light_switch/server/CMakeFiles/light_switch_server_nrf52840_xxAA_s140_5.0.0-3.alpha.dir/__/__/__/mesh/access/src/nrf_mesh_node_config.c.obj
LOAD examples/light_switch/server/CMakeFiles/light_switch_server_nrf52840_xxAA_s140_5.0.0-3.alpha.dir/__/__/__/external/nRF5_SDK_14.0.0_3bcc1f7/components/toolchain/system_nrf52840.c.obj
LOAD examples/light_switch/server/CMakeFiles/light_switch_server_nrf52840_xxAA_s140_5.0.0-3.alpha.dir/__/__/__/external/nRF5_SDK_14.0.0_3bcc1f7/components/toolchain/gcc/gcc_startup_nrf52840.S.obj
LOAD mesh/core/libmesh_core_nrf52840_xxAA.a
LOAD external/rtt/librtt_nrf52840_xxAA.a
LOAD external/micro-ecc/libuECC_nrf52840_xxAA.a
START GROUP
LOAD c:/a/gcc_arm/6/bin/../lib/gcc/arm-none-eabi/6.3.1/thumb/v7e-m/fpv4-sp/hard\libgcc.a
LOAD c:/a/gcc_arm/6/bin/../lib/gcc/arm-none-eabi/6.3.1/../../../../arm-none-eabi/lib/thumb/v7e-m/fpv4-sp/hard\libc_nano.a
END GROUP
START GROUP
LOAD c:/a/gcc_arm/6/bin/../lib/gcc/arm-none-eabi/6.3.1/thumb/v7e-m/fpv4-sp/hard\libgcc.a
LOAD c:/a/gcc_arm/6/bin/../lib/gcc/arm-none-eabi/6.3.1/../../../../arm-none-eabi/lib/thumb/v7e-m/fpv4-sp/hard\libc_nano.a
END GROUP
LOAD c:/a/gcc_arm/6/bin/../lib/gcc/arm-none-eabi/6.3.1/thumb/v7e-m/fpv4-sp/hard/crtend.o
LOAD c:/a/gcc_arm/6/bin/../lib/gcc/arm-none-eabi/6.3.1/thumb/v7e-m/fpv4-sp/hard/crtn.o
START GROUP
LOAD c:/a/gcc_arm/6/bin/../lib/gcc/arm-none-eabi/6.3.1/thumb/v7e-m/fpv4-sp/hard\libgcc.a
LOAD c:/a/gcc_arm/6/bin/../lib/gcc/arm-none-eabi/6.3.1/../../../../arm-none-eabi/lib/thumb/v7e-m/fpv4-sp/hard\libc.a
LOAD c:/a/gcc_arm/6/bin/../lib/gcc/arm-none-eabi/6.3.1/../../../../arm-none-eabi/lib/thumb/v7e-m/fpv4-sp/hard\libnosys.a
END GROUP

.text           0x00024000    0x115e0
 *(.isr_vector)
 .isr_vector    0x00024000      0x200 examples/light_switch/server/CMakeFiles/light_switch_server_nrf52840_xxAA_s140_5.0.0-3.alpha.dir/__/__/__/external/nRF5_SDK_14.0.0_3bcc1f7/components/toolchain/gcc/gcc_startup_nrf52840.S.obj
                0x00024000                __isr_vector
 *(.text*)
 .text          0x00024200       0x6c c:/a/gcc_arm/6/bin/../lib/gcc/arm-none-eabi/6.3.1/thumb/v7e-m/fpv4-sp/hard/crtbegin.o
 .text          0x0002426c       0x74 c:/a/gcc_arm/6/bin/../lib/gcc/arm-none-eabi/6.3.1/../../../../arm-none-eabi/lib/thumb/v7e-m/fpv4-sp/hard/crt0.o
                0x0002426c                _start
                0x0002426c                _mainCRTStartup
 .text.configuration_setup
                0x000242e0       0xa8 examples/light_switch/server/CMakeFiles/light_switch_server_nrf52840_xxAA_s140_5.0.0-3.alpha.dir/src/main.c.obj
 .text.set_cb   0x00024388       0x70 examples/light_switch/server/CMakeFiles/light_switch_server_nrf52840_xxAA_s140_5.0.0-3.alpha.dir/src/main.c.obj
 .text.get_cb   0x000243f8        0x6 examples/light_switch/server/CMakeFiles/light_switch_server_nrf52840_xxAA_s140_5.0.0-3.alpha.dir/src/main.c.obj
 *fill*         0x000243fe        0x2 
 .text.configuration_complete
                0x00024400       0x7c examples/light_switch/server/CMakeFiles/light_switch_server_nrf52840_xxAA_s140_5.0.0-3.alpha.dir/src/main.c.obj
 .text.startup.main
                0x0002447c       0xb8 examples/light_switch/server/CMakeFiles/light_switch_server_nrf52840_xxAA_s140_5.0.0-3.alpha.dir/src/main.c.obj
                0x0002447c                main
 .text.sd_evt_get
                0x00024534        0x4 examples/light_switch/server/CMakeFiles/light_switch_server_nrf52840_xxAA_s140_5.0.0-3.alpha.dir/__/__/nrf_mesh_sdk.c.obj
 .text.sd_ble_evt_get
                0x00024538        0x4 examples/light_switch/server/CMakeFiles/light_switch_server_nrf52840_xxAA_s140_5.0.0-3.alpha.dir/__/__/nrf_mesh_sdk.c.obj
 .text.sleep_forever
                0x0002453c       0x1c examples/light_switch/server/CMakeFiles/light_switch_server_nrf52840_xxAA_s140_5.0.0-3.alpha.dir/__/__/nrf_mesh_sdk.c.obj
 .text.app_error_handler
                0x00024558       0x74 examples/light_switch/server/CMakeFiles/light_switch_server_nrf52840_xxAA_s140_5.0.0-3.alpha.dir/__/__/nrf_mesh_sdk.c.obj
                0x00024558                app_error_handler
 .text.HardFault_Handler
                0x000245cc       0x60 examples/light_switch/server/CMakeFiles/light_switch_server_nrf52840_xxAA_s140_5.0.0-3.alpha.dir/__/__/nrf_mesh_sdk.c.obj
                0x000245cc                HardFault_Handler
 .text.SWI2_EGU2_IRQHandler
                0x0002462c       0x3c examples/light_switch/server/CMakeFiles/light_switch_server_nrf52840_xxAA_s140_5.0.0-3.alpha.dir/__/__/nrf_mesh_sdk.c.obj
                0x0002462c                SWI2_EGU2_IRQHandler
 .text.hal_led_pin_get
                0x00024668       0x18 examples/light_switch/server/CMakeFiles/light_switch_server_nrf52840_xxAA_s140_5.0.0-3.alpha.dir/__/__/hal/src/simple_hal.c.obj
                0x00024668                hal_led_pin_get
 .text.hal_led_pin_set
                0x00024680       0x16 examples/light_switch/server/CMakeFiles/light_switch_server_nrf52840_xxAA_s140_5.0.0-3.alpha.dir/__/__/hal/src/simple_hal.c.obj
                0x00024680                hal_led_pin_set
 .text.hal_led_mask_set
                0x00024696       0x12 examples/light_switch/server/CMakeFiles/light_switch_server_nrf52840_xxAA_s140_5.0.0-3.alpha.dir/__/__/hal/src/simple_hal.c.obj
                0x00024696                hal_led_mask_set
 .text.hal_led_blink_ms
                0x000246a8       0xb4 examples/light_switch/server/CMakeFiles/light_switch_server_nrf52840_xxAA_s140_5.0.0-3.alpha.dir/__/__/hal/src/simple_hal.c.obj
                0x000246a8                hal_led_blink_ms
 .text.hal_leds_init
                0x0002475c       0x38 examples/light_switch/server/CMakeFiles/light_switch_server_nrf52840_xxAA_s140_5.0.0-3.alpha.dir/__/__/hal/src/simple_hal.c.obj
                0x0002475c                hal_leds_init
 .text.GPIOTE_IRQHandler
                0x00024794       0x60 examples/light_switch/server/CMakeFiles/light_switch_server_nrf52840_xxAA_s140_5.0.0-3.alpha.dir/__/__/hal/src/simple_hal.c.obj
                0x00024794                GPIOTE_IRQHandler
 .text._weak_handler
                0x000247f4        0x4 examples/light_switch/server/CMakeFiles/light_switch_server_nrf52840_xxAA_s140_5.0.0-3.alpha.dir/__/__/nrf_mesh_weak.c.obj
                0x000247f4                nrf_mesh_dfu_init
                0x000247f4                nrf_mesh_dfu_jump_to_bootloader
                0x000247f4                nrf_mesh_dfu_rx
                0x000247f4                prov_provisioner_provision
                0x000247f4                nrf_mesh_dfu_bank_info_get
                0x000247f4                prov_provisioner_oob_pubkey
                0x000247f4                nrf_mesh_dfu_request
                0x000247f4                nrf_mesh_dfu_bank_flash
                0x000247f4                _weak_handler
                0x000247f4                nrf_mesh_dfu_relay
                0x000247f4                nrf_mesh_dfu_abort
                0x000247f4                mesh_flash_op_execute
                0x000247f4                nrf_mesh_dfu_state_get
                0x000247f4                prov_provisioner_shared_secret
                0x000247f4                prov_provisioner_auth_data
                0x000247f4                prov_provisioner_oob_use
 .text.handle_set_cb
                0x000247f8       0x7c examples/light_switch/server/CMakeFiles/light_switch_server_nrf52840_xxAA_s140_5.0.0-3.alpha.dir/__/__/__/models/simple_on_off/src/simple_on_off_server.c.obj
 .text.handle_get_cb
                0x00024874       0x50 examples/light_switch/server/CMakeFiles/light_switch_server_nrf52840_xxAA_s140_5.0.0-3.alpha.dir/__/__/__/models/simple_on_off/src/simple_on_off_server.c.obj
 .text.handle_set_unreliable_cb
                0x000248c4       0x58 examples/light_switch/server/CMakeFiles/light_switch_server_nrf52840_xxAA_s140_5.0.0-3.alpha.dir/__/__/__/models/simple_on_off/src/simple_on_off_server.c.obj
 .text.simple_on_off_server_init
                0x0002491c       0x40 examples/light_switch/server/CMakeFiles/light_switch_server_nrf52840_xxAA_s140_5.0.0-3.alpha.dir/__/__/__/models/simple_on_off/src/simple_on_off_server.c.obj
                0x0002491c                simple_on_off_server_init
 .text.config_composition_data_get
                0x0002495c      0x1a0 examples/light_switch/server/CMakeFiles/light_switch_server_nrf52840_xxAA_s140_5.0.0-3.alpha.dir/__/__/__/models/config/src/composition_data.c.obj
                0x0002495c                config_composition_data_get
 .text.extract_model_id
                0x00024afc       0x12 examples/light_switch/server/CMakeFiles/light_switch_server_nrf52840_xxAA_s140_5.0.0-3.alpha.dir/__/__/__/models/config/src/config_server.c.obj
 .text.get_element_index
                0x00024b0e       0x26 examples/light_switch/server/CMakeFiles/light_switch_server_nrf52840_xxAA_s140_5.0.0-3.alpha.dir/__/__/__/models/config/src/config_server.c.obj
 .text.send_reply
                0x00024b34       0x24 examples/light_switch/server/CMakeFiles/light_switch_server_nrf52840_xxAA_s140_5.0.0-3.alpha.dir/__/__/__/models/config/src/config_server.c.obj
 .text.send_generic_error_reply
                0x00024b58       0x42 examples/light_switch/server/CMakeFiles/light_switch_server_nrf52840_xxAA_s140_5.0.0-3.alpha.dir/__/__/__/models/config/src/config_server.c.obj
 *fill*         0x00024b9a        0x2 
 .text.handle_model_app_get
                0x00024b9c      0x18c examples/light_switch/server/CMakeFiles/light_switch_server_nrf52840_xxAA_s140_5.0.0-3.alpha.dir/__/__/__/models/config/src/config_server.c.obj
 .text.handle_node_reset
                0x00024d28       0x1c examples/light_switch/server/CMakeFiles/light_switch_server_nrf52840_xxAA_s140_5.0.0-3.alpha.dir/__/__/__/models/config/src/config_server.c.obj
 .text.handle_heartbeat_subscription_set
                0x00024d44       0x26 examples/light_switch/server/CMakeFiles/light_switch_server_nrf52840_xxAA_s140_5.0.0-3.alpha.dir/__/__/__/models/config/src/config_server.c.obj
 .text.handle_heartbeat_subscription_get
                0x00024d6a        0x4 examples/light_switch/server/CMakeFiles/light_switch_server_nrf52840_xxAA_s140_5.0.0-3.alpha.dir/__/__/__/models/config/src/config_server.c.obj
 .text.handle_heartbeat_publication_set
                0x00024d6e       0x22 examples/light_switch/server/CMakeFiles/light_switch_server_nrf52840_xxAA_s140_5.0.0-3.alpha.dir/__/__/__/models/config/src/config_server.c.obj
 .text.handle_heartbeat_publication_get
                0x00024d90        0x4 examples/light_switch/server/CMakeFiles/light_switch_server_nrf52840_xxAA_s140_5.0.0-3.alpha.dir/__/__/__/models/config/src/config_server.c.obj
 .text.send_subscription_status
                0x00024d94       0x3a examples/light_switch/server/CMakeFiles/light_switch_server_nrf52840_xxAA_s140_5.0.0-3.alpha.dir/__/__/__/models/config/src/config_server.c.obj
 .text.handle_netkey_get
                0x00024dce       0x5e examples/light_switch/server/CMakeFiles/light_switch_server_nrf52840_xxAA_s140_5.0.0-3.alpha.dir/__/__/__/models/config/src/config_server.c.obj
 .text.handle_netkey_add_update
                0x00024e2c       0x88 examples/light_switch/server/CMakeFiles/light_switch_server_nrf52840_xxAA_s140_5.0.0-3.alpha.dir/__/__/__/models/config/src/config_server.c.obj
 .text.handle_model_app_bind_unbind
                0x00024eb4       0xd0 examples/light_switch/server/CMakeFiles/light_switch_server_nrf52840_xxAA_s140_5.0.0-3.alpha.dir/__/__/__/models/config/src/config_server.c.obj
 .text.send_relay_status
                0x00024f84       0x78 examples/light_switch/server/CMakeFiles/light_switch_server_nrf52840_xxAA_s140_5.0.0-3.alpha.dir/__/__/__/models/config/src/config_server.c.obj
 .text.handle_config_relay_set
                0x00024ffc       0x6c examples/light_switch/server/CMakeFiles/light_switch_server_nrf52840_xxAA_s140_5.0.0-3.alpha.dir/__/__/__/models/config/src/config_server.c.obj
 .text.handle_config_relay_get
                0x00025068        0xa examples/light_switch/server/CMakeFiles/light_switch_server_nrf52840_xxAA_s140_5.0.0-3.alpha.dir/__/__/__/models/config/src/config_server.c.obj
 *fill*         0x00025072        0x2 
 .text.handle_config_model_subscription_virtual_address_add
                0x00025074      0x104 examples/light_switch/server/CMakeFiles/light_switch_server_nrf52840_xxAA_s140_5.0.0-3.alpha.dir/__/__/__/models/config/src/config_server.c.obj
 .text.delete_all_subscriptions
                0x00025178       0x80 examples/light_switch/server/CMakeFiles/light_switch_server_nrf52840_xxAA_s140_5.0.0-3.alpha.dir/__/__/__/models/config/src/config_server.c.obj
 .text.handle_config_model_subscription_virtual_address_overwrite
                0x000251f8      0x128 examples/light_switch/server/CMakeFiles/light_switch_server_nrf52840_xxAA_s140_5.0.0-3.alpha.dir/__/__/__/models/config/src/config_server.c.obj
 .text.handle_config_model_subscription_delete_all
                0x00025320       0x9c examples/light_switch/server/CMakeFiles/light_switch_server_nrf52840_xxAA_s140_5.0.0-3.alpha.dir/__/__/__/models/config/src/config_server.c.obj
 .text.handle_config_model_subscription_virtual_address_delete
                0x000253bc      0x114 examples/light_switch/server/CMakeFiles/light_switch_server_nrf52840_xxAA_s140_5.0.0-3.alpha.dir/__/__/__/models/config/src/config_server.c.obj
 .text.handle_config_model_subscription_delete
                0x000254d0      0x108 examples/light_switch/server/CMakeFiles/light_switch_server_nrf52840_xxAA_s140_5.0.0-3.alpha.dir/__/__/__/models/config/src/config_server.c.obj
 .text.handle_config_model_subscription_overwrite
                0x000255d8      0x114 examples/light_switch/server/CMakeFiles/light_switch_server_nrf52840_xxAA_s140_5.0.0-3.alpha.dir/__/__/__/models/config/src/config_server.c.obj
 .text.handle_config_model_subscription_add
                0x000256ec      0x104 examples/light_switch/server/CMakeFiles/light_switch_server_nrf52840_xxAA_s140_5.0.0-3.alpha.dir/__/__/__/models/config/src/config_server.c.obj
 .text.send_publication_status
                0x000257f0      0x174 examples/light_switch/server/CMakeFiles/light_switch_server_nrf52840_xxAA_s140_5.0.0-3.alpha.dir/__/__/__/models/config/src/config_server.c.obj
 .text.handle_config_model_publication_get
                0x00025964       0x60 examples/light_switch/server/CMakeFiles/light_switch_server_nrf52840_xxAA_s140_5.0.0-3.alpha.dir/__/__/__/models/config/src/config_server.c.obj
 .text.handle_config_default_ttl_getset
                0x000259c4       0x4a examples/light_switch/server/CMakeFiles/light_switch_server_nrf52840_xxAA_s140_5.0.0-3.alpha.dir/__/__/__/models/config/src/config_server.c.obj
 .text.send_net_beacon_state
                0x00025a0e       0x2a examples/light_switch/server/CMakeFiles/light_switch_server_nrf52840_xxAA_s140_5.0.0-3.alpha.dir/__/__/__/models/config/src/config_server.c.obj
 .text.handle_config_beacon_get
                0x00025a38        0xa examples/light_switch/server/CMakeFiles/light_switch_server_nrf52840_xxAA_s140_5.0.0-3.alpha.dir/__/__/__/models/config/src/config_server.c.obj
 *fill*         0x00025a42        0x2 
 .text.handle_composition_data_get
                0x00025a44       0x4c examples/light_switch/server/CMakeFiles/light_switch_server_nrf52840_xxAA_s140_5.0.0-3.alpha.dir/__/__/__/models/config/src/config_server.c.obj
 .text.handle_appkey_get
                0x00025a90       0xae examples/light_switch/server/CMakeFiles/light_switch_server_nrf52840_xxAA_s140_5.0.0-3.alpha.dir/__/__/__/models/config/src/config_server.c.obj
 *fill*         0x00025b3e        0x2 
 .text.handle_config_model_publication_set
                0x00025b40      0x1d4 examples/light_switch/server/CMakeFiles/light_switch_server_nrf52840_xxAA_s140_5.0.0-3.alpha.dir/__/__/__/models/config/src/config_server.c.obj
 .text.handle_node_identity_set
                0x00025d14       0x30 examples/light_switch/server/CMakeFiles/light_switch_server_nrf52840_xxAA_s140_5.0.0-3.alpha.dir/__/__/__/models/config/src/config_server.c.obj
 .text.handle_node_identity_get
                0x00025d44       0x2c examples/light_switch/server/CMakeFiles/light_switch_server_nrf52840_xxAA_s140_5.0.0-3.alpha.dir/__/__/__/models/config/src/config_server.c.obj
 .text.handle_config_gatt_proxy_set
                0x00025d70       0x1e examples/light_switch/server/CMakeFiles/light_switch_server_nrf52840_xxAA_s140_5.0.0-3.alpha.dir/__/__/__/models/config/src/config_server.c.obj
 .text.handle_config_friend_set
                0x00025d8e       0x1e examples/light_switch/server/CMakeFiles/light_switch_server_nrf52840_xxAA_s140_5.0.0-3.alpha.dir/__/__/__/models/config/src/config_server.c.obj
 .text.handle_config_beacon_set
                0x00025dac       0x2e examples/light_switch/server/CMakeFiles/light_switch_server_nrf52840_xxAA_s140_5.0.0-3.alpha.dir/__/__/__/models/config/src/config_server.c.obj
 .text.handle_appkey_delete
                0x00025dda       0x72 examples/light_switch/server/CMakeFiles/light_switch_server_nrf52840_xxAA_s140_5.0.0-3.alpha.dir/__/__/__/models/config/src/config_server.c.obj
 .text.handle_config_vendor_model_subscription_get
                0x00025e4c       0xdc examples/light_switch/server/CMakeFiles/light_switch_server_nrf52840_xxAA_s140_5.0.0-3.alpha.dir/__/__/__/models/config/src/config_server.c.obj
 .text.handle_config_sig_model_subscription_get
                0x00025f28       0xdc examples/light_switch/server/CMakeFiles/light_switch_server_nrf52840_xxAA_s140_5.0.0-3.alpha.dir/__/__/__/models/config/src/config_server.c.obj
 .text.handle_config_friend_get
                0x00026004       0x20 examples/light_switch/server/CMakeFiles/light_switch_server_nrf52840_xxAA_s140_5.0.0-3.alpha.dir/__/__/__/models/config/src/config_server.c.obj
 .text.handle_config_gatt_proxy_get
                0x00026024       0x20 examples/light_switch/server/CMakeFiles/light_switch_server_nrf52840_xxAA_s140_5.0.0-3.alpha.dir/__/__/__/models/config/src/config_server.c.obj
 .text.handle_appkey_add_update
                0x00026044       0xc2 examples/light_switch/server/CMakeFiles/light_switch_server_nrf52840_xxAA_s140_5.0.0-3.alpha.dir/__/__/__/models/config/src/config_server.c.obj
 .text.handle_netkey_delete
                0x00026106       0x5a examples/light_switch/server/CMakeFiles/light_switch_server_nrf52840_xxAA_s140_5.0.0-3.alpha.dir/__/__/__/models/config/src/config_server.c.obj
 .text.config_server_init
                0x00026160       0x4c examples/light_switch/server/CMakeFiles/light_switch_server_nrf52840_xxAA_s140_5.0.0-3.alpha.dir/__/__/__/models/config/src/config_server.c.obj
                0x00026160                config_server_init
 .text.config_server_bind
                0x000261ac       0x10 examples/light_switch/server/CMakeFiles/light_switch_server_nrf52840_xxAA_s140_5.0.0-3.alpha.dir/__/__/__/models/config/src/config_server.c.obj
                0x000261ac                config_server_bind
 .text.packed_index_list_size
                0x000261bc       0x10 examples/light_switch/server/CMakeFiles/light_switch_server_nrf52840_xxAA_s140_5.0.0-3.alpha.dir/__/__/__/models/config/src/packed_index_list.c.obj
                0x000261bc                packed_index_list_size
 .text.packed_index_list_create
                0x000261cc       0x32 examples/light_switch/server/CMakeFiles/light_switch_server_nrf52840_xxAA_s140_5.0.0-3.alpha.dir/__/__/__/models/config/src/packed_index_list.c.obj
                0x000261cc                packed_index_list_create
 *fill*         0x000261fe        0x2 
 .text.attention_timer_set
                0x00026200       0xa4 examples/light_switch/server/CMakeFiles/light_switch_server_nrf52840_xxAA_s140_5.0.0-3.alpha.dir/__/__/__/models/health/src/health_server.c.obj
 .text.attention_timer_handler
                0x000262a4       0x68 examples/light_switch/server/CMakeFiles/light_switch_server_nrf52840_xxAA_s140_5.0.0-3.alpha.dir/__/__/__/models/health/src/health_server.c.obj
 .text.bitfield_next_get.part.0.constprop.13
                0x0002630c       0x44 examples/light_switch/server/CMakeFiles/light_switch_server_nrf52840_xxAA_s140_5.0.0-3.alpha.dir/__/__/__/models/health/src/health_server.c.obj
 .text.bitfield_popcount.constprop.11
                0x00026350       0x28 examples/light_switch/server/CMakeFiles/light_switch_server_nrf52840_xxAA_s140_5.0.0-3.alpha.dir/__/__/__/models/health/src/health_server.c.obj
 .text.send_fault_status
                0x00026378       0x9e examples/light_switch/server/CMakeFiles/light_switch_server_nrf52840_xxAA_s140_5.0.0-3.alpha.dir/__/__/__/models/health/src/health_server.c.obj
 .text.health_publish_timeout_handler
                0x00026416        0xa examples/light_switch/server/CMakeFiles/light_switch_server_nrf52840_xxAA_s140_5.0.0-3.alpha.dir/__/__/__/models/health/src/health_server.c.obj
 .text.handle_fault_test
                0x00026420       0x74 examples/light_switch/server/CMakeFiles/light_switch_server_nrf52840_xxAA_s140_5.0.0-3.alpha.dir/__/__/__/models/health/src/health_server.c.obj
 .text.handle_fault_get
                0x00026494       0x40 examples/light_switch/server/CMakeFiles/light_switch_server_nrf52840_xxAA_s140_5.0.0-3.alpha.dir/__/__/__/models/health/src/health_server.c.obj
 .text.handle_fault_clear
                0x000264d4       0x54 examples/light_switch/server/CMakeFiles/light_switch_server_nrf52840_xxAA_s140_5.0.0-3.alpha.dir/__/__/__/models/health/src/health_server.c.obj
 .text.handle_attention_get
                0x00026528       0x36 examples/light_switch/server/CMakeFiles/light_switch_server_nrf52840_xxAA_s140_5.0.0-3.alpha.dir/__/__/__/models/health/src/health_server.c.obj
 .text.handle_period_get
                0x0002655e       0x34 examples/light_switch/server/CMakeFiles/light_switch_server_nrf52840_xxAA_s140_5.0.0-3.alpha.dir/__/__/__/models/health/src/health_server.c.obj
 .text.handle_attention_set
                0x00026592       0x4e examples/light_switch/server/CMakeFiles/light_switch_server_nrf52840_xxAA_s140_5.0.0-3.alpha.dir/__/__/__/models/health/src/health_server.c.obj
 .text.handle_period_set
                0x000265e0       0x4a examples/light_switch/server/CMakeFiles/light_switch_server_nrf52840_xxAA_s140_5.0.0-3.alpha.dir/__/__/__/models/health/src/health_server.c.obj
 *fill*         0x0002662a        0x2 
 .text.health_server_init
                0x0002662c       0x6c examples/light_switch/server/CMakeFiles/light_switch_server_nrf52840_xxAA_s140_5.0.0-3.alpha.dir/__/__/__/models/health/src/health_server.c.obj
                0x0002662c                health_server_init
 .text.add_to_publication_list
                0x00026698       0x84 examples/light_switch/server/CMakeFiles/light_switch_server_nrf52840_xxAA_s140_5.0.0-3.alpha.dir/__/__/__/mesh/access/src/access_publish.c.obj
 .text.step_resolution_to_us
                0x0002671c       0x44 examples/light_switch/server/CMakeFiles/light_switch_server_nrf52840_xxAA_s140_5.0.0-3.alpha.dir/__/__/__/mesh/access/src/access_publish.c.obj
 .text.schedule_publication_timer
                0x00026760      0x184 examples/light_switch/server/CMakeFiles/light_switch_server_nrf52840_xxAA_s140_5.0.0-3.alpha.dir/__/__/__/mesh/access/src/access_publish.c.obj
 .text.publish_timer_tick
                0x000268e4       0xbc examples/light_switch/server/CMakeFiles/light_switch_server_nrf52840_xxAA_s140_5.0.0-3.alpha.dir/__/__/__/mesh/access/src/access_publish.c.obj
 .text.access_publish_init
                0x000269a0       0x38 examples/light_switch/server/CMakeFiles/light_switch_server_nrf52840_xxAA_s140_5.0.0-3.alpha.dir/__/__/__/mesh/access/src/access_publish.c.obj
                0x000269a0                access_publish_init
 .text.access_publish_period_set
                0x000269d8       0x6c examples/light_switch/server/CMakeFiles/light_switch_server_nrf52840_xxAA_s140_5.0.0-3.alpha.dir/__/__/__/mesh/access/src/access_publish.c.obj
                0x000269d8                access_publish_period_set
 .text.access_publish_period_get
                0x00026a44       0x30 examples/light_switch/server/CMakeFiles/light_switch_server_nrf52840_xxAA_s140_5.0.0-3.alpha.dir/__/__/__/mesh/access/src/access_publish.c.obj
                0x00026a44                access_publish_period_get
 .text.bitfield_get
                0x00026a74       0x1a examples/light_switch/server/CMakeFiles/light_switch_server_nrf52840_xxAA_s140_5.0.0-3.alpha.dir/__/__/__/mesh/access/src/access.c.obj
 .text.is_valid_opcode
                0x00026a8e       0x42 examples/light_switch/server/CMakeFiles/light_switch_server_nrf52840_xxAA_s140_5.0.0-3.alpha.dir/__/__/__/mesh/access/src/access.c.obj
 .text.model_handle_valid_and_allocated
                0x00026ad0       0x20 examples/light_switch/server/CMakeFiles/light_switch_server_nrf52840_xxAA_s140_5.0.0-3.alpha.dir/__/__/__/mesh/access/src/access.c.obj
 .text.flash_invalidate_complete
                0x00026af0       0x14 examples/light_switch/server/CMakeFiles/light_switch_server_nrf52840_xxAA_s140_5.0.0-3.alpha.dir/__/__/__/mesh/access/src/access.c.obj
 .text.flash_manager_mem_available
                0x00026b04        0x2 examples/light_switch/server/CMakeFiles/light_switch_server_nrf52840_xxAA_s140_5.0.0-3.alpha.dir/__/__/__/mesh/access/src/access.c.obj
 *fill*         0x00026b06        0x2 
 .text.restore_acquired_subscription
                0x00026b08       0x24 examples/light_switch/server/CMakeFiles/light_switch_server_nrf52840_xxAA_s140_5.0.0-3.alpha.dir/__/__/__/mesh/access/src/access.c.obj
 .text.restore_acquired_element
                0x00026b2c       0x1c examples/light_switch/server/CMakeFiles/light_switch_server_nrf52840_xxAA_s140_5.0.0-3.alpha.dir/__/__/__/mesh/access/src/access.c.obj
 .text.restore_flash_data
                0x00026b48       0x5c examples/light_switch/server/CMakeFiles/light_switch_server_nrf52840_xxAA_s140_5.0.0-3.alpha.dir/__/__/__/mesh/access/src/access.c.obj
 .text.access_flash_config_clear
                0x00026ba4       0x28 examples/light_switch/server/CMakeFiles/light_switch_server_nrf52840_xxAA_s140_5.0.0-3.alpha.dir/__/__/__/mesh/access/src/access.c.obj
 .text.access_flash_config_store
                0x00026bcc      0x114 examples/light_switch/server/CMakeFiles/light_switch_server_nrf52840_xxAA_s140_5.0.0-3.alpha.dir/__/__/__/mesh/access/src/access.c.obj
                0x00026bcc                access_flash_config_store
 .text.access_state_clear
                0x00026ce0       0x48 examples/light_switch/server/CMakeFiles/light_switch_server_nrf52840_xxAA_s140_5.0.0-3.alpha.dir/__/__/__/mesh/access/src/access.c.obj
 .text.add_flash_manager
                0x00026d28       0x58 examples/light_switch/server/CMakeFiles/light_switch_server_nrf52840_xxAA_s140_5.0.0-3.alpha.dir/__/__/__/mesh/access/src/access.c.obj
 .text.flash_remove_complete
                0x00026d80       0x4c examples/light_switch/server/CMakeFiles/light_switch_server_nrf52840_xxAA_s140_5.0.0-3.alpha.dir/__/__/__/mesh/access/src/access.c.obj
 .text.flash_write_complete
                0x00026dcc       0x54 examples/light_switch/server/CMakeFiles/light_switch_server_nrf52840_xxAA_s140_5.0.0-3.alpha.dir/__/__/__/mesh/access/src/access.c.obj
 .text.unlikely.bitfield_next_get.part.0.constprop.3
                0x00026e20       0x34 examples/light_switch/server/CMakeFiles/light_switch_server_nrf52840_xxAA_s140_5.0.0-3.alpha.dir/__/__/__/mesh/access/src/access.c.obj
 .text.restore_acquired_model
                0x00026e54       0x84 examples/light_switch/server/CMakeFiles/light_switch_server_nrf52840_xxAA_s140_5.0.0-3.alpha.dir/__/__/__/mesh/access/src/access.c.obj
 .text.handle_incoming
                0x00026ed8      0x154 examples/light_switch/server/CMakeFiles/light_switch_server_nrf52840_xxAA_s140_5.0.0-3.alpha.dir/__/__/__/mesh/access/src/access.c.obj
 .text.mesh_evt_cb
                0x0002702c      0x134 examples/light_switch/server/CMakeFiles/light_switch_server_nrf52840_xxAA_s140_5.0.0-3.alpha.dir/__/__/__/mesh/access/src/access.c.obj
 .text.packet_tx
                0x00027160      0x2c0 examples/light_switch/server/CMakeFiles/light_switch_server_nrf52840_xxAA_s140_5.0.0-3.alpha.dir/__/__/__/mesh/access/src/access.c.obj
 .text.access_flash_config_load
                0x00027420      0x128 examples/light_switch/server/CMakeFiles/light_switch_server_nrf52840_xxAA_s140_5.0.0-3.alpha.dir/__/__/__/mesh/access/src/access.c.obj
                0x00027420                access_flash_config_load
 .text.access_init
                0x00027548       0x28 examples/light_switch/server/CMakeFiles/light_switch_server_nrf52840_xxAA_s140_5.0.0-3.alpha.dir/__/__/__/mesh/access/src/access.c.obj
                0x00027548                access_init
 .text.access_model_add
                0x00027570      0x1b8 examples/light_switch/server/CMakeFiles/light_switch_server_nrf52840_xxAA_s140_5.0.0-3.alpha.dir/__/__/__/mesh/access/src/access.c.obj
                0x00027570                access_model_add
 .text.access_model_publish
                0x00027728        0xc examples/light_switch/server/CMakeFiles/light_switch_server_nrf52840_xxAA_s140_5.0.0-3.alpha.dir/__/__/__/mesh/access/src/access.c.obj
                0x00027728                access_model_publish
 .text.access_model_reply
                0x00027734       0x12 examples/light_switch/server/CMakeFiles/light_switch_server_nrf52840_xxAA_s140_5.0.0-3.alpha.dir/__/__/__/mesh/access/src/access.c.obj
                0x00027734                access_model_reply
 *fill*         0x00027746        0x2 
 .text.access_model_publish_address_set
                0x00027748       0x3c examples/light_switch/server/CMakeFiles/light_switch_server_nrf52840_xxAA_s140_5.0.0-3.alpha.dir/__/__/__/mesh/access/src/access.c.obj
                0x00027748                access_model_publish_address_set
 .text.access_model_publish_address_get
                0x00027784       0x28 examples/light_switch/server/CMakeFiles/light_switch_server_nrf52840_xxAA_s140_5.0.0-3.alpha.dir/__/__/__/mesh/access/src/access.c.obj
                0x00027784                access_model_publish_address_get
 .text.access_model_publish_period_set
                0x000277ac       0x6c examples/light_switch/server/CMakeFiles/light_switch_server_nrf52840_xxAA_s140_5.0.0-3.alpha.dir/__/__/__/mesh/access/src/access.c.obj
                0x000277ac                access_model_publish_period_set
 .text.access_model_publish_period_get
                0x00027818       0x3c examples/light_switch/server/CMakeFiles/light_switch_server_nrf52840_xxAA_s140_5.0.0-3.alpha.dir/__/__/__/mesh/access/src/access.c.obj
                0x00027818                access_model_publish_period_get
 .text.access_model_subscription_list_alloc
                0x00027854       0x40 examples/light_switch/server/CMakeFiles/light_switch_server_nrf52840_xxAA_s140_5.0.0-3.alpha.dir/__/__/__/mesh/access/src/access.c.obj
                0x00027854                access_model_subscription_list_alloc
 .text.access_model_subscription_add
                0x00027894       0x60 examples/light_switch/server/CMakeFiles/light_switch_server_nrf52840_xxAA_s140_5.0.0-3.alpha.dir/__/__/__/mesh/access/src/access.c.obj
                0x00027894                access_model_subscription_add
 .text.access_model_subscription_remove
                0x000278f4       0x60 examples/light_switch/server/CMakeFiles/light_switch_server_nrf52840_xxAA_s140_5.0.0-3.alpha.dir/__/__/__/mesh/access/src/access.c.obj
                0x000278f4                access_model_subscription_remove
 .text.access_model_subscriptions_get
                0x00027954       0x7c examples/light_switch/server/CMakeFiles/light_switch_server_nrf52840_xxAA_s140_5.0.0-3.alpha.dir/__/__/__/mesh/access/src/access.c.obj
                0x00027954                access_model_subscriptions_get
 .text.access_model_application_bind
                0x000279d0       0x50 examples/light_switch/server/CMakeFiles/light_switch_server_nrf52840_xxAA_s140_5.0.0-3.alpha.dir/__/__/__/mesh/access/src/access.c.obj
                0x000279d0                access_model_application_bind
 .text.access_model_application_unbind
                0x00027a20       0x50 examples/light_switch/server/CMakeFiles/light_switch_server_nrf52840_xxAA_s140_5.0.0-3.alpha.dir/__/__/__/mesh/access/src/access.c.obj
                0x00027a20                access_model_application_unbind
 .text.access_model_applications_get
                0x00027a70       0x58 examples/light_switch/server/CMakeFiles/light_switch_server_nrf52840_xxAA_s140_5.0.0-3.alpha.dir/__/__/__/mesh/access/src/access.c.obj
                0x00027a70                access_model_applications_get
 .text.access_model_publish_application_set
                0x00027ac8       0x3c examples/light_switch/server/CMakeFiles/light_switch_server_nrf52840_xxAA_s140_5.0.0-3.alpha.dir/__/__/__/mesh/access/src/access.c.obj
                0x00027ac8                access_model_publish_application_set
 .text.access_model_publish_application_get
                0x00027b04       0x28 examples/light_switch/server/CMakeFiles/light_switch_server_nrf52840_xxAA_s140_5.0.0-3.alpha.dir/__/__/__/mesh/access/src/access.c.obj
                0x00027b04                access_model_publish_application_get
 .text.access_default_ttl_set
                0x00027b2c       0x10 examples/light_switch/server/CMakeFiles/light_switch_server_nrf52840_xxAA_s140_5.0.0-3.alpha.dir/__/__/__/mesh/access/src/access.c.obj
                0x00027b2c                access_default_ttl_set
 .text.access_default_ttl_get
                0x00027b3c        0xc examples/light_switch/server/CMakeFiles/light_switch_server_nrf52840_xxAA_s140_5.0.0-3.alpha.dir/__/__/__/mesh/access/src/access.c.obj
                0x00027b3c                access_default_ttl_get
 .text.access_model_publish_ttl_set
                0x00027b48       0x40 examples/light_switch/server/CMakeFiles/light_switch_server_nrf52840_xxAA_s140_5.0.0-3.alpha.dir/__/__/__/mesh/access/src/access.c.obj
                0x00027b48                access_model_publish_ttl_set
 .text.access_model_publish_ttl_get
                0x00027b88       0x28 examples/light_switch/server/CMakeFiles/light_switch_server_nrf52840_xxAA_s140_5.0.0-3.alpha.dir/__/__/__/mesh/access/src/access.c.obj
                0x00027b88                access_model_publish_ttl_get
 .text.access_element_location_get
                0x00027bb0       0x18 examples/light_switch/server/CMakeFiles/light_switch_server_nrf52840_xxAA_s140_5.0.0-3.alpha.dir/__/__/__/mesh/access/src/access.c.obj
                0x00027bb0                access_element_location_get
 .text.access_element_sig_model_count_get
                0x00027bc8       0x18 examples/light_switch/server/CMakeFiles/light_switch_server_nrf52840_xxAA_s140_5.0.0-3.alpha.dir/__/__/__/mesh/access/src/access.c.obj
                0x00027bc8                access_element_sig_model_count_get
 .text.access_element_vendor_model_count_get
                0x00027be0       0x18 examples/light_switch/server/CMakeFiles/light_switch_server_nrf52840_xxAA_s140_5.0.0-3.alpha.dir/__/__/__/mesh/access/src/access.c.obj
                0x00027be0                access_element_vendor_model_count_get
 .text.access_model_id_get
                0x00027bf8       0x2c examples/light_switch/server/CMakeFiles/light_switch_server_nrf52840_xxAA_s140_5.0.0-3.alpha.dir/__/__/__/mesh/access/src/access.c.obj
                0x00027bf8                access_model_id_get
 .text.access_handle_get
                0x00027c24       0x4c examples/light_switch/server/CMakeFiles/light_switch_server_nrf52840_xxAA_s140_5.0.0-3.alpha.dir/__/__/__/mesh/access/src/access.c.obj
                0x00027c24                access_handle_get
 .text.access_element_models_get
                0x00027c70       0x48 examples/light_switch/server/CMakeFiles/light_switch_server_nrf52840_xxAA_s140_5.0.0-3.alpha.dir/__/__/__/mesh/access/src/access.c.obj
                0x00027c70                access_element_models_get
 .text.access_model_p_args_get
                0x00027cb8       0x28 examples/light_switch/server/CMakeFiles/light_switch_server_nrf52840_xxAA_s140_5.0.0-3.alpha.dir/__/__/__/mesh/access/src/access.c.obj
                0x00027cb8                access_model_p_args_get
 .text.remove_and_reschedule
                0x00027ce0       0xd0 examples/light_switch/server/CMakeFiles/light_switch_server_nrf52840_xxAA_s140_5.0.0-3.alpha.dir/__/__/__/mesh/access/src/access_reliable.c.obj
 .text.reliable_timer_cb
                0x00027db0      0x148 examples/light_switch/server/CMakeFiles/light_switch_server_nrf52840_xxAA_s140_5.0.0-3.alpha.dir/__/__/__/mesh/access/src/access_reliable.c.obj
 .text.access_reliable_message_rx_cb
                0x00027ef8       0x84 examples/light_switch/server/CMakeFiles/light_switch_server_nrf52840_xxAA_s140_5.0.0-3.alpha.dir/__/__/__/mesh/access/src/access_reliable.c.obj
                0x00027ef8                access_reliable_message_rx_cb
 .text.access_reliable_init
                0x00027f7c       0x1c examples/light_switch/server/CMakeFiles/light_switch_server_nrf52840_xxAA_s140_5.0.0-3.alpha.dir/__/__/__/mesh/access/src/access_reliable.c.obj
                0x00027f7c                access_reliable_init
 .text.bitfield_get
                0x00027f98       0x1a examples/light_switch/server/CMakeFiles/light_switch_server_nrf52840_xxAA_s140_5.0.0-3.alpha.dir/__/__/__/mesh/access/src/device_state_manager.c.obj
 .text.bitfield_set
                0x00027fb2       0x18 examples/light_switch/server/CMakeFiles/light_switch_server_nrf52840_xxAA_s140_5.0.0-3.alpha.dir/__/__/__/mesh/access/src/device_state_manager.c.obj
 .text.bitfield_clear
                0x00027fca       0x1a examples/light_switch/server/CMakeFiles/light_switch_server_nrf52840_xxAA_s140_5.0.0-3.alpha.dir/__/__/__/mesh/access/src/device_state_manager.c.obj
 .text.bitfield_is_all_clear
                0x00027fe4       0x3c examples/light_switch/server/CMakeFiles/light_switch_server_nrf52840_xxAA_s140_5.0.0-3.alpha.dir/__/__/__/mesh/access/src/device_state_manager.c.obj
 .text.address_handle_virtual_valid
                0x00028020       0x14 examples/light_switch/server/CMakeFiles/light_switch_server_nrf52840_xxAA_s140_5.0.0-3.alpha.dir/__/__/__/mesh/access/src/device_state_manager.c.obj
 .text.net_key_handle_get
                0x00028034       0x38 examples/light_switch/server/CMakeFiles/light_switch_server_nrf52840_xxAA_s140_5.0.0-3.alpha.dir/__/__/__/mesh/access/src/device_state_manager.c.obj
 .text.dev_key_handle_get
                0x0002806c       0x30 examples/light_switch/server/CMakeFiles/light_switch_server_nrf52840_xxAA_s140_5.0.0-3.alpha.dir/__/__/__/mesh/access/src/device_state_manager.c.obj
 .text.app_key_handle_get
                0x0002809c       0x38 examples/light_switch/server/CMakeFiles/light_switch_server_nrf52840_xxAA_s140_5.0.0-3.alpha.dir/__/__/__/mesh/access/src/device_state_manager.c.obj
 .text.addr_nonvirtual_to_flash_entry
                0x000280d4       0x10 examples/light_switch/server/CMakeFiles/light_switch_server_nrf52840_xxAA_s140_5.0.0-3.alpha.dir/__/__/__/mesh/access/src/device_state_manager.c.obj
 .text.flash_mem_listener_callback
                0x000280e4       0x20 examples/light_switch/server/CMakeFiles/light_switch_server_nrf52840_xxAA_s140_5.0.0-3.alpha.dir/__/__/__/mesh/access/src/device_state_manager.c.obj
 .text.devkey_set
                0x00028104       0x4c examples/light_switch/server/CMakeFiles/light_switch_server_nrf52840_xxAA_s140_5.0.0-3.alpha.dir/__/__/__/mesh/access/src/device_state_manager.c.obj
 .text.devkey_to_dsm_entry
                0x00028150       0x16 examples/light_switch/server/CMakeFiles/light_switch_server_nrf52840_xxAA_s140_5.0.0-3.alpha.dir/__/__/__/mesh/access/src/device_state_manager.c.obj
 *fill*         0x00028166        0x2 
 .text.devkey_to_flash_entry
                0x00028168       0x28 examples/light_switch/server/CMakeFiles/light_switch_server_nrf52840_xxAA_s140_5.0.0-3.alpha.dir/__/__/__/mesh/access/src/device_state_manager.c.obj
 .text.appkey_to_flash_entry
                0x00028190       0x28 examples/light_switch/server/CMakeFiles/light_switch_server_nrf52840_xxAA_s140_5.0.0-3.alpha.dir/__/__/__/mesh/access/src/device_state_manager.c.obj
 .text.subnet_to_flash_entry
                0x000281b8       0x20 examples/light_switch/server/CMakeFiles/light_switch_server_nrf52840_xxAA_s140_5.0.0-3.alpha.dir/__/__/__/mesh/access/src/device_state_manager.c.obj
 .text.addr_virtual_to_flash_entry
                0x000281d8       0x18 examples/light_switch/server/CMakeFiles/light_switch_server_nrf52840_xxAA_s140_5.0.0-3.alpha.dir/__/__/__/mesh/access/src/device_state_manager.c.obj
 .text.addr_unicast_to_dsm_entry
                0x000281f0        0xc examples/light_switch/server/CMakeFiles/light_switch_server_nrf52840_xxAA_s140_5.0.0-3.alpha.dir/__/__/__/mesh/access/src/device_state_manager.c.obj
 .text.addr_unicast_to_flash_entry
                0x000281fc       0x10 examples/light_switch/server/CMakeFiles/light_switch_server_nrf52840_xxAA_s140_5.0.0-3.alpha.dir/__/__/__/mesh/access/src/device_state_manager.c.obj
 .text.appkey_set
                0x0002820c       0x6c examples/light_switch/server/CMakeFiles/light_switch_server_nrf52840_xxAA_s140_5.0.0-3.alpha.dir/__/__/__/mesh/access/src/device_state_manager.c.obj
 .text.appkey_to_dsm_entry
                0x00028278       0x14 examples/light_switch/server/CMakeFiles/light_switch_server_nrf52840_xxAA_s140_5.0.0-3.alpha.dir/__/__/__/mesh/access/src/device_state_manager.c.obj
 .text.subnet_set
                0x0002828c       0x94 examples/light_switch/server/CMakeFiles/light_switch_server_nrf52840_xxAA_s140_5.0.0-3.alpha.dir/__/__/__/mesh/access/src/device_state_manager.c.obj
 .text.subnet_to_dsm_entry
                0x00028320        0xc examples/light_switch/server/CMakeFiles/light_switch_server_nrf52840_xxAA_s140_5.0.0-3.alpha.dir/__/__/__/mesh/access/src/device_state_manager.c.obj
 .text.virtual_address_set
                0x0002832c       0x54 examples/light_switch/server/CMakeFiles/light_switch_server_nrf52840_xxAA_s140_5.0.0-3.alpha.dir/__/__/__/mesh/access/src/device_state_manager.c.obj
 .text.addr_virtual_to_dsm_entry
                0x00028380        0xc examples/light_switch/server/CMakeFiles/light_switch_server_nrf52840_xxAA_s140_5.0.0-3.alpha.dir/__/__/__/mesh/access/src/device_state_manager.c.obj
 .text.flash_save
                0x0002838c       0x84 examples/light_switch/server/CMakeFiles/light_switch_server_nrf52840_xxAA_s140_5.0.0-3.alpha.dir/__/__/__/mesh/access/src/device_state_manager.c.obj
 .text.flash_invalidate
                0x00028410       0x68 examples/light_switch/server/CMakeFiles/light_switch_server_nrf52840_xxAA_s140_5.0.0-3.alpha.dir/__/__/__/mesh/access/src/device_state_manager.c.obj
 .text.flash_update_all
                0x00028478       0x6c examples/light_switch/server/CMakeFiles/light_switch_server_nrf52840_xxAA_s140_5.0.0-3.alpha.dir/__/__/__/mesh/access/src/device_state_manager.c.obj
 .text.reset_flash_area
                0x000284e4       0x28 examples/light_switch/server/CMakeFiles/light_switch_server_nrf52840_xxAA_s140_5.0.0-3.alpha.dir/__/__/__/mesh/access/src/device_state_manager.c.obj
 .text.virtual_address_uuid_index_get
                0x0002850c       0x3c examples/light_switch/server/CMakeFiles/light_switch_server_nrf52840_xxAA_s140_5.0.0-3.alpha.dir/__/__/__/mesh/access/src/device_state_manager.c.obj
 .text.add_address_virtual
                0x00028548       0x70 examples/light_switch/server/CMakeFiles/light_switch_server_nrf52840_xxAA_s140_5.0.0-3.alpha.dir/__/__/__/mesh/access/src/device_state_manager.c.obj
 .text.get_subnet_handle
                0x000285b8       0x30 examples/light_switch/server/CMakeFiles/light_switch_server_nrf52840_xxAA_s140_5.0.0-3.alpha.dir/__/__/__/mesh/access/src/device_state_manager.c.obj
 .text.get_app_handle
                0x000285e8       0x38 examples/light_switch/server/CMakeFiles/light_switch_server_nrf52840_xxAA_s140_5.0.0-3.alpha.dir/__/__/__/mesh/access/src/device_state_manager.c.obj
 .text.flash_operation_complete
                0x00028620       0x58 examples/light_switch/server/CMakeFiles/light_switch_server_nrf52840_xxAA_s140_5.0.0-3.alpha.dir/__/__/__/mesh/access/src/device_state_manager.c.obj
 .text.flash_invalidate_complete
                0x00028678        0x8 examples/light_switch/server/CMakeFiles/light_switch_server_nrf52840_xxAA_s140_5.0.0-3.alpha.dir/__/__/__/mesh/access/src/device_state_manager.c.obj
 .text.flash_write_complete
                0x00028680        0x8 examples/light_switch/server/CMakeFiles/light_switch_server_nrf52840_xxAA_s140_5.0.0-3.alpha.dir/__/__/__/mesh/access/src/device_state_manager.c.obj
 .text.add_address.part.5
                0x00028688      0x144 examples/light_switch/server/CMakeFiles/light_switch_server_nrf52840_xxAA_s140_5.0.0-3.alpha.dir/__/__/__/mesh/access/src/device_state_manager.c.obj
 .text.address_handle_valid
                0x000287cc       0x28 examples/light_switch/server/CMakeFiles/light_switch_server_nrf52840_xxAA_s140_5.0.0-3.alpha.dir/__/__/__/mesh/access/src/device_state_manager.c.obj
 .text.address_handle_nonvirtual_valid
                0x000287f4       0x14 examples/light_switch/server/CMakeFiles/light_switch_server_nrf52840_xxAA_s140_5.0.0-3.alpha.dir/__/__/__/mesh/access/src/device_state_manager.c.obj
 .text.address_delete_if_unused
                0x00028808       0x78 examples/light_switch/server/CMakeFiles/light_switch_server_nrf52840_xxAA_s140_5.0.0-3.alpha.dir/__/__/__/mesh/access/src/device_state_manager.c.obj
 .text.addr_nonvirtual_to_dsm_entry
                0x00028880       0x38 examples/light_switch/server/CMakeFiles/light_switch_server_nrf52840_xxAA_s140_5.0.0-3.alpha.dir/__/__/__/mesh/access/src/device_state_manager.c.obj
 .text.dsm_flash_config_load
                0x000288b8      0x114 examples/light_switch/server/CMakeFiles/light_switch_server_nrf52840_xxAA_s140_5.0.0-3.alpha.dir/__/__/__/mesh/access/src/device_state_manager.c.obj
                0x000288b8                dsm_flash_config_load
 .text.dsm_flash_area_get
                0x000289cc        0xc examples/light_switch/server/CMakeFiles/light_switch_server_nrf52840_xxAA_s140_5.0.0-3.alpha.dir/__/__/__/mesh/access/src/device_state_manager.c.obj
                0x000289cc                dsm_flash_area_get
 .text.build_flash_area
                0x000289d8       0x8c examples/light_switch/server/CMakeFiles/light_switch_server_nrf52840_xxAA_s140_5.0.0-3.alpha.dir/__/__/__/mesh/access/src/device_state_manager.c.obj
 .text.dsm_init
                0x00028a64       0x24 examples/light_switch/server/CMakeFiles/light_switch_server_nrf52840_xxAA_s140_5.0.0-3.alpha.dir/__/__/__/mesh/access/src/device_state_manager.c.obj
                0x00028a64                dsm_init
 .text.flash_remove_complete
                0x00028a88        0x4 examples/light_switch/server/CMakeFiles/light_switch_server_nrf52840_xxAA_s140_5.0.0-3.alpha.dir/__/__/__/mesh/access/src/device_state_manager.c.obj
 .text.dsm_local_unicast_addresses_set
                0x00028a8c       0x74 examples/light_switch/server/CMakeFiles/light_switch_server_nrf52840_xxAA_s140_5.0.0-3.alpha.dir/__/__/__/mesh/access/src/device_state_manager.c.obj
                0x00028a8c                dsm_local_unicast_addresses_set
 .text.dsm_local_unicast_addresses_get
                0x00028b00       0x2c examples/light_switch/server/CMakeFiles/light_switch_server_nrf52840_xxAA_s140_5.0.0-3.alpha.dir/__/__/__/mesh/access/src/device_state_manager.c.obj
                0x00028b00                dsm_local_unicast_addresses_get
 .text.dsm_address_publish_add
                0x00028b2c        0xc examples/light_switch/server/CMakeFiles/light_switch_server_nrf52840_xxAA_s140_5.0.0-3.alpha.dir/__/__/__/mesh/access/src/device_state_manager.c.obj
                0x00028b2c                dsm_address_publish_add
 .text.dsm_address_publish_add_handle
                0x00028b38       0x38 examples/light_switch/server/CMakeFiles/light_switch_server_nrf52840_xxAA_s140_5.0.0-3.alpha.dir/__/__/__/mesh/access/src/device_state_manager.c.obj
                0x00028b38                dsm_address_publish_add_handle
 .text.dsm_address_publish_virtual_add
                0x00028b70        0x6 examples/light_switch/server/CMakeFiles/light_switch_server_nrf52840_xxAA_s140_5.0.0-3.alpha.dir/__/__/__/mesh/access/src/device_state_manager.c.obj
                0x00028b70                dsm_address_publish_virtual_add
 .text.dsm_address_subscription_add
                0x00028b76        0xc examples/light_switch/server/CMakeFiles/light_switch_server_nrf52840_xxAA_s140_5.0.0-3.alpha.dir/__/__/__/mesh/access/src/device_state_manager.c.obj
                0x00028b76                dsm_address_subscription_add
 .text.dsm_address_subscription_virtual_add
                0x00028b82        0x6 examples/light_switch/server/CMakeFiles/light_switch_server_nrf52840_xxAA_s140_5.0.0-3.alpha.dir/__/__/__/mesh/access/src/device_state_manager.c.obj
                0x00028b82                dsm_address_subscription_virtual_add
 .text.dsm_address_subscription_add_handle
                0x00028b88       0x38 examples/light_switch/server/CMakeFiles/light_switch_server_nrf52840_xxAA_s140_5.0.0-3.alpha.dir/__/__/__/mesh/access/src/device_state_manager.c.obj
                0x00028b88                dsm_address_subscription_add_handle
 .text.dsm_address_subscription_get
                0x00028bc0       0x34 examples/light_switch/server/CMakeFiles/light_switch_server_nrf52840_xxAA_s140_5.0.0-3.alpha.dir/__/__/__/mesh/access/src/device_state_manager.c.obj
                0x00028bc0                dsm_address_subscription_get
 .text.dsm_address_get
                0x00028bf4       0x5c examples/light_switch/server/CMakeFiles/light_switch_server_nrf52840_xxAA_s140_5.0.0-3.alpha.dir/__/__/__/mesh/access/src/device_state_manager.c.obj
                0x00028bf4                dsm_address_get
 .text.dsm_address_subscription_remove
                0x00028c50       0x58 examples/light_switch/server/CMakeFiles/light_switch_server_nrf52840_xxAA_s140_5.0.0-3.alpha.dir/__/__/__/mesh/access/src/device_state_manager.c.obj
                0x00028c50                dsm_address_subscription_remove
 .text.dsm_address_handle_get
                0x00028ca8       0x98 examples/light_switch/server/CMakeFiles/light_switch_server_nrf52840_xxAA_s140_5.0.0-3.alpha.dir/__/__/__/mesh/access/src/device_state_manager.c.obj
                0x00028ca8                dsm_address_handle_get
 .text.dsm_net_key_index_to_subnet_handle
                0x00028d40       0x1c examples/light_switch/server/CMakeFiles/light_switch_server_nrf52840_xxAA_s140_5.0.0-3.alpha.dir/__/__/__/mesh/access/src/device_state_manager.c.obj
                0x00028d40                dsm_net_key_index_to_subnet_handle
 .text.dsm_app_key_index_to_appkey_handle
                0x00028d5c       0x1c examples/light_switch/server/CMakeFiles/light_switch_server_nrf52840_xxAA_s140_5.0.0-3.alpha.dir/__/__/__/mesh/access/src/device_state_manager.c.obj
                0x00028d5c                dsm_app_key_index_to_appkey_handle
 .text.dsm_appkey_handle_get
                0x00028d78        0xc examples/light_switch/server/CMakeFiles/light_switch_server_nrf52840_xxAA_s140_5.0.0-3.alpha.dir/__/__/__/mesh/access/src/device_state_manager.c.obj
                0x00028d78                dsm_appkey_handle_get
 .text.dsm_appkey_handle_to_appkey_index
                0x00028d84       0x30 examples/light_switch/server/CMakeFiles/light_switch_server_nrf52840_xxAA_s140_5.0.0-3.alpha.dir/__/__/__/mesh/access/src/device_state_manager.c.obj
                0x00028d84                dsm_appkey_handle_to_appkey_index
 .text.dsm_subnet_add
                0x00028db4       0x58 examples/light_switch/server/CMakeFiles/light_switch_server_nrf52840_xxAA_s140_5.0.0-3.alpha.dir/__/__/__/mesh/access/src/device_state_manager.c.obj
                0x00028db4                dsm_subnet_add
 .text.dsm_subnet_update
                0x00028e0c       0x3c examples/light_switch/server/CMakeFiles/light_switch_server_nrf52840_xxAA_s140_5.0.0-3.alpha.dir/__/__/__/mesh/access/src/device_state_manager.c.obj
                0x00028e0c                dsm_subnet_update
 .text.dsm_subnet_get_all
                0x00028e48       0x3c examples/light_switch/server/CMakeFiles/light_switch_server_nrf52840_xxAA_s140_5.0.0-3.alpha.dir/__/__/__/mesh/access/src/device_state_manager.c.obj
                0x00028e48                dsm_subnet_get_all
 .text.dsm_devkey_add
                0x00028e84       0x78 examples/light_switch/server/CMakeFiles/light_switch_server_nrf52840_xxAA_s140_5.0.0-3.alpha.dir/__/__/__/mesh/access/src/device_state_manager.c.obj
                0x00028e84                dsm_devkey_add
 .text.dsm_devkey_delete
                0x00028efc       0x38 examples/light_switch/server/CMakeFiles/light_switch_server_nrf52840_xxAA_s140_5.0.0-3.alpha.dir/__/__/__/mesh/access/src/device_state_manager.c.obj
                0x00028efc                dsm_devkey_delete
 .text.dsm_appkey_add
                0x00028f34       0x70 examples/light_switch/server/CMakeFiles/light_switch_server_nrf52840_xxAA_s140_5.0.0-3.alpha.dir/__/__/__/mesh/access/src/device_state_manager.c.obj
                0x00028f34                dsm_appkey_add
 .text.dsm_appkey_update
                0x00028fa4       0x40 examples/light_switch/server/CMakeFiles/light_switch_server_nrf52840_xxAA_s140_5.0.0-3.alpha.dir/__/__/__/mesh/access/src/device_state_manager.c.obj
                0x00028fa4                dsm_appkey_update
 .text.dsm_appkey_delete
                0x00028fe4       0x2c examples/light_switch/server/CMakeFiles/light_switch_server_nrf52840_xxAA_s140_5.0.0-3.alpha.dir/__/__/__/mesh/access/src/device_state_manager.c.obj
                0x00028fe4                dsm_appkey_delete
 .text.dsm_subnet_delete
                0x00029010       0x84 examples/light_switch/server/CMakeFiles/light_switch_server_nrf52840_xxAA_s140_5.0.0-3.alpha.dir/__/__/__/mesh/access/src/device_state_manager.c.obj
                0x00029010                dsm_subnet_delete
 .text.dsm_appkey_get_all
                0x00029094       0x58 examples/light_switch/server/CMakeFiles/light_switch_server_nrf52840_xxAA_s140_5.0.0-3.alpha.dir/__/__/__/mesh/access/src/device_state_manager.c.obj
                0x00029094                dsm_appkey_get_all
 .text.dsm_tx_secmat_get
                0x000290ec       0xd4 examples/light_switch/server/CMakeFiles/light_switch_server_nrf52840_xxAA_s140_5.0.0-3.alpha.dir/__/__/__/mesh/access/src/device_state_manager.c.obj
                0x000290ec                dsm_tx_secmat_get
 .text.nrf_mesh_net_secmat_next_get
                0x000291c0       0x50 examples/light_switch/server/CMakeFiles/light_switch_server_nrf52840_xxAA_s140_5.0.0-3.alpha.dir/__/__/__/mesh/access/src/device_state_manager.c.obj
                0x000291c0                nrf_mesh_net_secmat_next_get
 .text.nrf_mesh_app_secmat_next_get
                0x00029210       0x84 examples/light_switch/server/CMakeFiles/light_switch_server_nrf52840_xxAA_s140_5.0.0-3.alpha.dir/__/__/__/mesh/access/src/device_state_manager.c.obj
                0x00029210                nrf_mesh_app_secmat_next_get
 .text.nrf_mesh_devkey_secmat_get
                0x00029294       0x34 examples/light_switch/server/CMakeFiles/light_switch_server_nrf52840_xxAA_s140_5.0.0-3.alpha.dir/__/__/__/mesh/access/src/device_state_manager.c.obj
                0x00029294                nrf_mesh_devkey_secmat_get
 .text.nrf_mesh_beacon_info_next_get
                0x000292c8       0x74 examples/light_switch/server/CMakeFiles/light_switch_server_nrf52840_xxAA_s140_5.0.0-3.alpha.dir/__/__/__/mesh/access/src/device_state_manager.c.obj
                0x000292c8                nrf_mesh_beacon_info_next_get
 .text.nrf_mesh_rx_address_get
                0x0002933c       0xfc examples/light_switch/server/CMakeFiles/light_switch_server_nrf52840_xxAA_s140_5.0.0-3.alpha.dir/__/__/__/mesh/access/src/device_state_manager.c.obj
                0x0002933c                nrf_mesh_rx_address_get
 .text.complete_provisioning
                0x00029438       0x52 examples/light_switch/server/CMakeFiles/light_switch_server_nrf52840_xxAA_s140_5.0.0-3.alpha.dir/__/__/__/mesh/prov/src/prov_provisionee.c.obj
 .text.prov_provisionee_cb_link_closed
                0x0002948a       0x32 examples/light_switch/server/CMakeFiles/light_switch_server_nrf52840_xxAA_s140_5.0.0-3.alpha.dir/__/__/__/mesh/prov/src/prov_provisionee.c.obj
 .text.prov_provisionee_cb_link_established
                0x000294bc       0x20 examples/light_switch/server/CMakeFiles/light_switch_server_nrf52840_xxAA_s140_5.0.0-3.alpha.dir/__/__/__/mesh/prov/src/prov_provisionee.c.obj
 .text.send_failed
                0x000294dc       0x36 examples/light_switch/server/CMakeFiles/light_switch_server_nrf52840_xxAA_s140_5.0.0-3.alpha.dir/__/__/__/mesh/prov/src/prov_provisionee.c.obj
 .text.request_authentication
                0x00029512       0x8c examples/light_switch/server/CMakeFiles/light_switch_server_nrf52840_xxAA_s140_5.0.0-3.alpha.dir/__/__/__/mesh/prov/src/prov_provisionee.c.obj
 .text.start_authentication
                0x0002959e       0x54 examples/light_switch/server/CMakeFiles/light_switch_server_nrf52840_xxAA_s140_5.0.0-3.alpha.dir/__/__/__/mesh/prov/src/prov_provisionee.c.obj
 *fill*         0x000295f2        0x2 
 .text.prov_provisionee_pkt_in
                0x000295f4      0x2a4 examples/light_switch/server/CMakeFiles/light_switch_server_nrf52840_xxAA_s140_5.0.0-3.alpha.dir/__/__/__/mesh/prov/src/prov_provisionee.c.obj
 .text.prov_provisionee_cb_ack_received
                0x00029898       0xb4 examples/light_switch/server/CMakeFiles/light_switch_server_nrf52840_xxAA_s140_5.0.0-3.alpha.dir/__/__/__/mesh/prov/src/prov_provisionee.c.obj
 .text.prov_provisionee_init
                0x0002994c       0x40 examples/light_switch/server/CMakeFiles/light_switch_server_nrf52840_xxAA_s140_5.0.0-3.alpha.dir/__/__/__/mesh/prov/src/prov_provisionee.c.obj
                0x0002994c                prov_provisionee_init
 .text.prov_provisionee_auth_data
                0x0002998c       0x7a examples/light_switch/server/CMakeFiles/light_switch_server_nrf52840_xxAA_s140_5.0.0-3.alpha.dir/__/__/__/mesh/prov/src/prov_provisionee.c.obj
                0x0002998c                prov_provisionee_auth_data
 .text.nrf_mesh_prov_init
                0x00029a06       0x24 examples/light_switch/server/CMakeFiles/light_switch_server_nrf52840_xxAA_s140_5.0.0-3.alpha.dir/__/__/__/mesh/prov/src/nrf_mesh_prov.c.obj
                0x00029a06                nrf_mesh_prov_init
 .text.nrf_mesh_prov_generate_keys
                0x00029a2a        0x4 examples/light_switch/server/CMakeFiles/light_switch_server_nrf52840_xxAA_s140_5.0.0-3.alpha.dir/__/__/__/mesh/prov/src/nrf_mesh_prov.c.obj
                0x00029a2a                nrf_mesh_prov_generate_keys
 .text.nrf_mesh_prov_listen
                0x00029a2e       0x24 examples/light_switch/server/CMakeFiles/light_switch_server_nrf52840_xxAA_s140_5.0.0-3.alpha.dir/__/__/__/mesh/prov/src/nrf_mesh_prov.c.obj
                0x00029a2e                nrf_mesh_prov_listen
 .text.nrf_mesh_prov_auth_data_provide
                0x00029a52        0xe examples/light_switch/server/CMakeFiles/light_switch_server_nrf52840_xxAA_s140_5.0.0-3.alpha.dir/__/__/__/mesh/prov/src/nrf_mesh_prov.c.obj
                0x00029a52                nrf_mesh_prov_auth_data_provide
 .text.send_data
                0x00029a60       0x40 examples/light_switch/server/CMakeFiles/light_switch_server_nrf52840_xxAA_s140_5.0.0-3.alpha.dir/__/__/__/mesh/prov/src/provisioning.c.obj
 .text.prov_packet_length_valid
                0x00029aa0       0x1c examples/light_switch/server/CMakeFiles/light_switch_server_nrf52840_xxAA_s140_5.0.0-3.alpha.dir/__/__/__/mesh/prov/src/provisioning.c.obj
                0x00029aa0                prov_packet_length_valid
 .text.prov_init
                0x00029abc       0x2c examples/light_switch/server/CMakeFiles/light_switch_server_nrf52840_xxAA_s140_5.0.0-3.alpha.dir/__/__/__/mesh/prov/src/provisioning.c.obj
                0x00029abc                prov_init
 .text.prov_listen_start
                0x00029ae8       0x14 examples/light_switch/server/CMakeFiles/light_switch_server_nrf52840_xxAA_s140_5.0.0-3.alpha.dir/__/__/__/mesh/prov/src/provisioning.c.obj
                0x00029ae8                prov_listen_start
 .text.prov_link_close
                0x00029afc        0x8 examples/light_switch/server/CMakeFiles/light_switch_server_nrf52840_xxAA_s140_5.0.0-3.alpha.dir/__/__/__/mesh/prov/src/provisioning.c.obj
                0x00029afc                prov_link_close
 .text.prov_tx_capabilities
                0x00029b04       0x1e examples/light_switch/server/CMakeFiles/light_switch_server_nrf52840_xxAA_s140_5.0.0-3.alpha.dir/__/__/__/mesh/prov/src/provisioning.c.obj
                0x00029b04                prov_tx_capabilities
 .text.prov_tx_public_key
                0x00029b22       0x26 examples/light_switch/server/CMakeFiles/light_switch_server_nrf52840_xxAA_s140_5.0.0-3.alpha.dir/__/__/__/mesh/prov/src/provisioning.c.obj
                0x00029b22                prov_tx_public_key
 .text.prov_tx_input_complete
                0x00029b48       0x16 examples/light_switch/server/CMakeFiles/light_switch_server_nrf52840_xxAA_s140_5.0.0-3.alpha.dir/__/__/__/mesh/prov/src/provisioning.c.obj
                0x00029b48                prov_tx_input_complete
 .text.prov_tx_confirmation
                0x00029b5e       0x26 examples/light_switch/server/CMakeFiles/light_switch_server_nrf52840_xxAA_s140_5.0.0-3.alpha.dir/__/__/__/mesh/prov/src/provisioning.c.obj
                0x00029b5e                prov_tx_confirmation
 .text.prov_tx_random
                0x00029b84       0x26 examples/light_switch/server/CMakeFiles/light_switch_server_nrf52840_xxAA_s140_5.0.0-3.alpha.dir/__/__/__/mesh/prov/src/provisioning.c.obj
                0x00029b84                prov_tx_random
 .text.prov_tx_complete
                0x00029baa       0x16 examples/light_switch/server/CMakeFiles/light_switch_server_nrf52840_xxAA_s140_5.0.0-3.alpha.dir/__/__/__/mesh/prov/src/provisioning.c.obj
                0x00029baa                prov_tx_complete
 .text.prov_tx_failed
                0x00029bc0       0x1a examples/light_switch/server/CMakeFiles/light_switch_server_nrf52840_xxAA_s140_5.0.0-3.alpha.dir/__/__/__/mesh/prov/src/provisioning.c.obj
                0x00029bc0                prov_tx_failed
 .text.prov_cb_link_opened
                0x00029bda        0x8 examples/light_switch/server/CMakeFiles/light_switch_server_nrf52840_xxAA_s140_5.0.0-3.alpha.dir/__/__/__/mesh/prov/src/provisioning.c.obj
                0x00029bda                prov_cb_link_opened
 .text.prov_cb_link_closed
                0x00029be2        0x8 examples/light_switch/server/CMakeFiles/light_switch_server_nrf52840_xxAA_s140_5.0.0-3.alpha.dir/__/__/__/mesh/prov/src/provisioning.c.obj
                0x00029be2                prov_cb_link_closed
 *fill*         0x00029bea        0x2 
 .text.prov_cb_pkt_in
                0x00029bec       0x7c examples/light_switch/server/CMakeFiles/light_switch_server_nrf52840_xxAA_s140_5.0.0-3.alpha.dir/__/__/__/mesh/prov/src/provisioning.c.obj
                0x00029bec                prov_cb_pkt_in
 .text.prov_cb_ack_in
                0x00029c68        0x8 examples/light_switch/server/CMakeFiles/light_switch_server_nrf52840_xxAA_s140_5.0.0-3.alpha.dir/__/__/__/mesh/prov/src/provisioning.c.obj
                0x00029c68                prov_cb_ack_in
 .text.prov_beacon_unprov_build
                0x00029c70       0x54 examples/light_switch/server/CMakeFiles/light_switch_server_nrf52840_xxAA_s140_5.0.0-3.alpha.dir/__/__/__/mesh/prov/src/prov_beacon.c.obj
                0x00029c70                prov_beacon_unprov_build
 .text.prov_beacon_unprov_packet_in
                0x00029cc4       0xb0 examples/light_switch/server/CMakeFiles/light_switch_server_nrf52840_xxAA_s140_5.0.0-3.alpha.dir/__/__/__/mesh/prov/src/prov_beacon.c.obj
                0x00029cc4                prov_beacon_unprov_packet_in
 .text.oob_gen_alphanumeric
                0x00029d74       0x34 examples/light_switch/server/CMakeFiles/light_switch_server_nrf52840_xxAA_s140_5.0.0-3.alpha.dir/__/__/__/mesh/prov/src/prov_utils.c.obj
 .text.oob_gen_numeric
                0x00029da8       0x3c examples/light_switch/server/CMakeFiles/light_switch_server_nrf52840_xxAA_s140_5.0.0-3.alpha.dir/__/__/__/mesh/prov/src/prov_utils.c.obj
 .text.prov_utils_opt_set
                0x00029de4       0x20 examples/light_switch/server/CMakeFiles/light_switch_server_nrf52840_xxAA_s140_5.0.0-3.alpha.dir/__/__/__/mesh/prov/src/prov_utils.c.obj
                0x00029de4                prov_utils_opt_set
 .text.prov_utils_opt_get
                0x00029e04       0x1c examples/light_switch/server/CMakeFiles/light_switch_server_nrf52840_xxAA_s140_5.0.0-3.alpha.dir/__/__/__/mesh/prov/src/prov_utils.c.obj
                0x00029e04                prov_utils_opt_get
 .text.prov_utils_use_ecdh_offloading
                0x00029e20        0xc examples/light_switch/server/CMakeFiles/light_switch_server_nrf52840_xxAA_s140_5.0.0-3.alpha.dir/__/__/__/mesh/prov/src/prov_utils.c.obj
                0x00029e20                prov_utils_use_ecdh_offloading
 .text.prov_utils_authentication_values_derive
                0x00029e2c       0xa4 examples/light_switch/server/CMakeFiles/light_switch_server_nrf52840_xxAA_s140_5.0.0-3.alpha.dir/__/__/__/mesh/prov/src/prov_utils.c.obj
                0x00029e2c                prov_utils_authentication_values_derive
 .text.prov_utils_keys_generate
                0x00029ed0       0x1e examples/light_switch/server/CMakeFiles/light_switch_server_nrf52840_xxAA_s140_5.0.0-3.alpha.dir/__/__/__/mesh/prov/src/prov_utils.c.obj
                0x00029ed0                prov_utils_keys_generate
 *fill*         0x00029eee        0x2 
 .text.prov_utils_derive_keys
                0x00029ef0       0xb0 examples/light_switch/server/CMakeFiles/light_switch_server_nrf52840_xxAA_s140_5.0.0-3.alpha.dir/__/__/__/mesh/prov/src/prov_utils.c.obj
                0x00029ef0                prov_utils_derive_keys
 .text.prov_utils_calculate_shared_secret
                0x00029fa0       0x38 examples/light_switch/server/CMakeFiles/light_switch_server_nrf52840_xxAA_s140_5.0.0-3.alpha.dir/__/__/__/mesh/prov/src/prov_utils.c.obj
                0x00029fa0                prov_utils_calculate_shared_secret
 .text.prov_utils_generate_oob_data
                0x00029fd8       0x9c examples/light_switch/server/CMakeFiles/light_switch_server_nrf52840_xxAA_s140_5.0.0-3.alpha.dir/__/__/__/mesh/prov/src/prov_utils.c.obj
                0x00029fd8                prov_utils_generate_oob_data
 .text.prov_utils_confirmation_check
                0x0002a074       0x5c examples/light_switch/server/CMakeFiles/light_switch_server_nrf52840_xxAA_s140_5.0.0-3.alpha.dir/__/__/__/mesh/prov/src/prov_utils.c.obj
                0x0002a074                prov_utils_confirmation_check
 .text.remove_active_bearer
                0x0002a0d0       0x60 examples/light_switch/server/CMakeFiles/light_switch_server_nrf52840_xxAA_s140_5.0.0-3.alpha.dir/__/__/__/mesh/prov/src/prov_bearer_adv.c.obj
 .text.prov_bearer_adv_listen_stop
                0x0002a130       0x38 examples/light_switch/server/CMakeFiles/light_switch_server_nrf52840_xxAA_s140_5.0.0-3.alpha.dir/__/__/__/mesh/prov/src/prov_bearer_adv.c.obj
 .text.close_link
                0x0002a168       0x68 examples/light_switch/server/CMakeFiles/light_switch_server_nrf52840_xxAA_s140_5.0.0-3.alpha.dir/__/__/__/mesh/prov/src/prov_bearer_adv.c.obj
 .text.send_packet
                0x0002a1d0       0x6c examples/light_switch/server/CMakeFiles/light_switch_server_nrf52840_xxAA_s140_5.0.0-3.alpha.dir/__/__/__/mesh/prov/src/prov_bearer_adv.c.obj
 .text.prov_buffer_tx
                0x0002a23c      0x158 examples/light_switch/server/CMakeFiles/light_switch_server_nrf52840_xxAA_s140_5.0.0-3.alpha.dir/__/__/__/mesh/prov/src/prov_bearer_adv.c.obj
 .text.send_link_close
                0x0002a394       0x38 examples/light_switch/server/CMakeFiles/light_switch_server_nrf52840_xxAA_s140_5.0.0-3.alpha.dir/__/__/__/mesh/prov/src/prov_bearer_adv.c.obj
 .text.prov_bearer_adv_link_close
                0x0002a3cc       0x70 examples/light_switch/server/CMakeFiles/light_switch_server_nrf52840_xxAA_s140_5.0.0-3.alpha.dir/__/__/__/mesh/prov/src/prov_bearer_adv.c.obj
 .text.send_transaction_ack
                0x0002a43c       0x24 examples/light_switch/server/CMakeFiles/light_switch_server_nrf52840_xxAA_s140_5.0.0-3.alpha.dir/__/__/__/mesh/prov/src/prov_bearer_adv.c.obj
 .text.send_link_ack
                0x0002a460       0x32 examples/light_switch/server/CMakeFiles/light_switch_server_nrf52840_xxAA_s140_5.0.0-3.alpha.dir/__/__/__/mesh/prov/src/prov_bearer_adv.c.obj
 .text.link_timeout_cb
                0x0002a492        0x8 examples/light_switch/server/CMakeFiles/light_switch_server_nrf52840_xxAA_s140_5.0.0-3.alpha.dir/__/__/__/mesh/prov/src/prov_bearer_adv.c.obj
 .text.reset_timeout_timer
                0x0002a49a       0x1a examples/light_switch/server/CMakeFiles/light_switch_server_nrf52840_xxAA_s140_5.0.0-3.alpha.dir/__/__/__/mesh/prov/src/prov_bearer_adv.c.obj
 .text.tx_complete_cb
                0x0002a4b4       0x1c examples/light_switch/server/CMakeFiles/light_switch_server_nrf52840_xxAA_s140_5.0.0-3.alpha.dir/__/__/__/mesh/prov/src/prov_bearer_adv.c.obj
 .text.tx_retry_cb
                0x0002a4d0       0xcc examples/light_switch/server/CMakeFiles/light_switch_server_nrf52840_xxAA_s140_5.0.0-3.alpha.dir/__/__/__/mesh/prov/src/prov_bearer_adv.c.obj
 .text.add_active_bearer
                0x0002a59c       0x80 examples/light_switch/server/CMakeFiles/light_switch_server_nrf52840_xxAA_s140_5.0.0-3.alpha.dir/__/__/__/mesh/prov/src/prov_bearer_adv.c.obj
 .text.prov_bearer_adv_link_open
                0x0002a61c       0xf0 examples/light_switch/server/CMakeFiles/light_switch_server_nrf52840_xxAA_s140_5.0.0-3.alpha.dir/__/__/__/mesh/prov/src/prov_bearer_adv.c.obj
 .text.async_process
                0x0002a70c       0x50 examples/light_switch/server/CMakeFiles/light_switch_server_nrf52840_xxAA_s140_5.0.0-3.alpha.dir/__/__/__/mesh/prov/src/prov_bearer_adv.c.obj
 .text.prov_bearer_adv_listen
                0x0002a75c       0xe8 examples/light_switch/server/CMakeFiles/light_switch_server_nrf52840_xxAA_s140_5.0.0-3.alpha.dir/__/__/__/mesh/prov/src/prov_bearer_adv.c.obj
 .text.calculate_3GPP_CRC
                0x0002a844       0x24 examples/light_switch/server/CMakeFiles/light_switch_server_nrf52840_xxAA_s140_5.0.0-3.alpha.dir/__/__/__/mesh/prov/src/prov_bearer_adv.c.obj
                0x0002a844                calculate_3GPP_CRC
 .text.prov_bearer_adv_tx
                0x0002a868       0xac examples/light_switch/server/CMakeFiles/light_switch_server_nrf52840_xxAA_s140_5.0.0-3.alpha.dir/__/__/__/mesh/prov/src/prov_bearer_adv.c.obj
 .text.prov_buffer_rx
                0x0002a914       0x74 examples/light_switch/server/CMakeFiles/light_switch_server_nrf52840_xxAA_s140_5.0.0-3.alpha.dir/__/__/__/mesh/prov/src/prov_bearer_adv.c.obj
 .text.prov_bearer_adv_interface_get
                0x0002a988       0x24 examples/light_switch/server/CMakeFiles/light_switch_server_nrf52840_xxAA_s140_5.0.0-3.alpha.dir/__/__/__/mesh/prov/src/prov_bearer_adv.c.obj
                0x0002a988                prov_bearer_adv_interface_get
 .text.prov_bearer_adv_packet_in
                0x0002a9ac      0x80c examples/light_switch/server/CMakeFiles/light_switch_server_nrf52840_xxAA_s140_5.0.0-3.alpha.dir/__/__/__/mesh/prov/src/prov_bearer_adv.c.obj
                0x0002a9ac                prov_bearer_adv_packet_in
 .text.sd_softdevice_enable
                0x0002b1b8        0x4 examples/light_switch/server/CMakeFiles/light_switch_server_nrf52840_xxAA_s140_5.0.0-3.alpha.dir/__/__/__/mesh/access/src/nrf_mesh_node_config.c.obj
 .text.sd_softdevice_is_enabled
                0x0002b1bc        0x4 examples/light_switch/server/CMakeFiles/light_switch_server_nrf52840_xxAA_s140_5.0.0-3.alpha.dir/__/__/__/mesh/access/src/nrf_mesh_node_config.c.obj
 .text.default_softdevice_assertion_handler
                0x0002b1c0       0x78 examples/light_switch/server/CMakeFiles/light_switch_server_nrf52840_xxAA_s140_5.0.0-3.alpha.dir/__/__/__/mesh/access/src/nrf_mesh_node_config.c.obj
 .text.start_provisionee
                0x0002b238       0x18 examples/light_switch/server/CMakeFiles/light_switch_server_nrf52840_xxAA_s140_5.0.0-3.alpha.dir/__/__/__/mesh/access/src/nrf_mesh_node_config.c.obj
 .text.mesh_evt_handler
                0x0002b250       0xf8 examples/light_switch/server/CMakeFiles/light_switch_server_nrf52840_xxAA_s140_5.0.0-3.alpha.dir/__/__/__/mesh/access/src/nrf_mesh_node_config.c.obj
 .text.default_mesh_assertion_handler
                0x0002b348       0x70 examples/light_switch/server/CMakeFiles/light_switch_server_nrf52840_xxAA_s140_5.0.0-3.alpha.dir/__/__/__/mesh/access/src/nrf_mesh_node_config.c.obj
                0x0002b348                default_mesh_assertion_handler
 .text.softdevice_setup
                0x0002b3b8       0x54 examples/light_switch/server/CMakeFiles/light_switch_server_nrf52840_xxAA_s140_5.0.0-3.alpha.dir/__/__/__/mesh/access/src/nrf_mesh_node_config.c.obj
                0x0002b3b8                softdevice_setup
 .text.nrf_mesh_node_config
                0x0002b40c      0x120 examples/light_switch/server/CMakeFiles/light_switch_server_nrf52840_xxAA_s140_5.0.0-3.alpha.dir/__/__/__/mesh/access/src/nrf_mesh_node_config.c.obj
                0x0002b40c                nrf_mesh_node_config
 .text.errata_136
                0x0002b52c       0x20 examples/light_switch/server/CMakeFiles/light_switch_server_nrf52840_xxAA_s140_5.0.0-3.alpha.dir/__/__/__/external/nRF5_SDK_14.0.0_3bcc1f7/components/toolchain/system_nrf52840.c.obj
 .text.SystemInit
                0x0002b54c      0x1d0 examples/light_switch/server/CMakeFiles/light_switch_server_nrf52840_xxAA_s140_5.0.0-3.alpha.dir/__/__/__/external/nRF5_SDK_14.0.0_3bcc1f7/components/toolchain/system_nrf52840.c.obj
                0x0002b54c                SystemInit
 .text          0x0002b71c       0x3c examples/light_switch/server/CMakeFiles/light_switch_server_nrf52840_xxAA_s140_5.0.0-3.alpha.dir/__/__/__/external/nRF5_SDK_14.0.0_3bcc1f7/components/toolchain/gcc/gcc_startup_nrf52840.S.obj
                0x0002b71c                Reset_Handler
                0x0002b744                NMI_Handler
                0x0002b748                MemoryManagement_Handler
                0x0002b74a                BusFault_Handler
                0x0002b74c                UsageFault_Handler
                0x0002b74e                SVC_Handler
                0x0002b750                DebugMon_Handler
                0x0002b752                PendSV_Handler
                0x0002b754                SysTick_Handler
                0x0002b756                RADIO_IRQHandler
                0x0002b756                PDM_IRQHandler
                0x0002b756                TEMP_IRQHandler
                0x0002b756                POWER_CLOCK_IRQHandler
                0x0002b756                PWM3_IRQHandler
                0x0002b756                FPU_IRQHandler
                0x0002b756                USBD_IRQHandler
                0x0002b756                SPIM0_SPIS0_TWIM0_TWIS0_SPI0_TWI0_IRQHandler
                0x0002b756                TIMER3_IRQHandler
                0x0002b756                UARTE0_UART0_IRQHandler
                0x0002b756                TIMER4_IRQHandler
                0x0002b756                CRYPTOCELL_IRQHandler
                0x0002b756                I2S_IRQHandler
                0x0002b756                SWI4_EGU4_IRQHandler
                0x0002b756                TIMER0_IRQHandler
                0x0002b756                PWM1_IRQHandler
                0x0002b756                UARTE1_IRQHandler
                0x0002b756                TIMER1_IRQHandler
                0x0002b756                SPIM3_IRQHandler
                0x0002b756                PWM2_IRQHandler
                0x0002b756                ECB_IRQHandler
                0x0002b756                SPIM1_SPIS1_TWIM1_TWIS1_SPI1_TWI1_IRQHandler
                0x0002b756                Default_Handler
                0x0002b756                SAADC_IRQHandler
                0x0002b756                CCM_AAR_IRQHandler
                0x0002b756                WDT_IRQHandler
                0x0002b756                RTC0_IRQHandler
                0x0002b756                SWI5_EGU5_IRQHandler
                0x0002b756                RNG_IRQHandler
                0x0002b756                RTC2_IRQHandler
                0x0002b756                PWM0_IRQHandler
                0x0002b756                SWI3_EGU3_IRQHandler
                0x0002b756                RTC1_IRQHandler
                0x0002b756                SWI1_EGU1_IRQHandler
                0x0002b756                SPIM2_SPIS2_SPI2_IRQHandler
                0x0002b756                NFCT_IRQHandler
                0x0002b756                SWI0_EGU0_IRQHandler
                0x0002b756                MWU_IRQHandler
                0x0002b756                TIMER2_IRQHandler
                0x0002b756                QSPI_IRQHandler
                0x0002b756                COMP_LPCOMP_IRQHandler
 .text.nrf_mesh_configure_device_uuid_reset
                0x0002b758       0x28 mesh/core/libmesh_core_nrf52840_xxAA.a(nrf_mesh_configure.c.obj)
                0x0002b758                nrf_mesh_configure_device_uuid_reset
 .text.nrf_mesh_configure_device_uuid_get
                0x0002b780        0x8 mesh/core/libmesh_core_nrf52840_xxAA.a(nrf_mesh_configure.c.obj)
                0x0002b780                nrf_mesh_configure_device_uuid_get
 .text.event_handle
                0x0002b788       0x30 mesh/core/libmesh_core_nrf52840_xxAA.a(event.c.obj)
                0x0002b788                event_handle
 .text.event_handler_add
                0x0002b7b8       0x78 mesh/core/libmesh_core_nrf52840_xxAA.a(event.c.obj)
                0x0002b7b8                event_handler_add
 .text.event_handler_remove
                0x0002b830       0x58 mesh/core/libmesh_core_nrf52840_xxAA.a(event.c.obj)
                0x0002b830                event_handler_remove
 .text.flash_mem_available
                0x0002b888       0x20 mesh/core/libmesh_core_nrf52840_xxAA.a(net_state.c.obj)
 .text.flash_store_iv_index
                0x0002b8a8       0x38 mesh/core/libmesh_core_nrf52840_xxAA.a(net_state.c.obj)
 .text.seqnum_block_allocate
                0x0002b8e0       0x48 mesh/core/libmesh_core_nrf52840_xxAA.a(net_state.c.obj)
 .text.flash_write_complete
                0x0002b928       0x78 mesh/core/libmesh_core_nrf52840_xxAA.a(net_state.c.obj)
 .text.net_state_recover_from_flash
                0x0002b9a0       0x84 mesh/core/libmesh_core_nrf52840_xxAA.a(net_state.c.obj)
                0x0002b9a0                net_state_recover_from_flash
 .text.net_state_flash_area_get
                0x0002ba24        0xc mesh/core/libmesh_core_nrf52840_xxAA.a(net_state.c.obj)
                0x0002ba24                net_state_flash_area_get
 .text.init_flash_storage
                0x0002ba30       0x40 mesh/core/libmesh_core_nrf52840_xxAA.a(net_state.c.obj)
 .text.net_state_init
                0x0002ba70       0x48 mesh/core/libmesh_core_nrf52840_xxAA.a(net_state.c.obj)
                0x0002ba70                net_state_init
 .text.net_state_iv_update_start
                0x0002bab8       0x64 mesh/core/libmesh_core_nrf52840_xxAA.a(net_state.c.obj)
                0x0002bab8                net_state_iv_update_start
 .text.iv_update_trigger_if_pending
                0x0002bb1c       0x8c mesh/core/libmesh_core_nrf52840_xxAA.a(net_state.c.obj)
 .text.iv_update_timer_handler
                0x0002bba8       0x74 mesh/core/libmesh_core_nrf52840_xxAA.a(net_state.c.obj)
 .text.net_state_seqnum_alloc
                0x0002bc1c       0x68 mesh/core/libmesh_core_nrf52840_xxAA.a(net_state.c.obj)
                0x0002bc1c                net_state_seqnum_alloc
 .text.net_state_iv_index_lock
                0x0002bc84       0x48 mesh/core/libmesh_core_nrf52840_xxAA.a(net_state.c.obj)
                0x0002bc84                net_state_iv_index_lock
 .text.net_state_beacon_received
                0x0002bccc       0x94 mesh/core/libmesh_core_nrf52840_xxAA.a(net_state.c.obj)
                0x0002bccc                net_state_beacon_received
 .text.net_state_beacon_iv_index_get
                0x0002bd60        0xc mesh/core/libmesh_core_nrf52840_xxAA.a(net_state.c.obj)
                0x0002bd60                net_state_beacon_iv_index_get
 .text.net_state_tx_iv_index_get
                0x0002bd6c       0x14 mesh/core/libmesh_core_nrf52840_xxAA.a(net_state.c.obj)
                0x0002bd6c                net_state_tx_iv_index_get
 .text.net_state_rx_iv_index_get
                0x0002bd80       0x18 mesh/core/libmesh_core_nrf52840_xxAA.a(net_state.c.obj)
                0x0002bd80                net_state_rx_iv_index_get
 .text.net_state_iv_update_get
                0x0002bd98        0xc mesh/core/libmesh_core_nrf52840_xxAA.a(net_state.c.obj)
                0x0002bd98                net_state_iv_update_get
 .text.nrf_mesh_address_type_get
                0x0002bda4       0x10 mesh/core/libmesh_core_nrf52840_xxAA.a(nrf_mesh_utils.c.obj)
                0x0002bda4                nrf_mesh_address_type_get
 .text.sd_softdevice_is_enabled
                0x0002bdb4        0x4 mesh/core/libmesh_core_nrf52840_xxAA.a(nrf_mesh.c.obj)
 .text.nrf_mesh_init
                0x0002bdb8       0xb0 mesh/core/libmesh_core_nrf52840_xxAA.a(nrf_mesh.c.obj)
                0x0002bdb8                nrf_mesh_init
 .text.nrf_mesh_enable
                0x0002be68       0x48 mesh/core/libmesh_core_nrf52840_xxAA.a(nrf_mesh.c.obj)
                0x0002be68                nrf_mesh_enable
 .text.nrf_mesh_packet_send
                0x0002beb0        0x4 mesh/core/libmesh_core_nrf52840_xxAA.a(nrf_mesh.c.obj)
                0x0002beb0                nrf_mesh_packet_send
 .text.nrf_mesh_process
                0x0002beb4      0x1c0 mesh/core/libmesh_core_nrf52840_xxAA.a(nrf_mesh.c.obj)
                0x0002beb4                nrf_mesh_process
 .text.nrf_mesh_on_ble_evt
                0x0002c074        0x4 mesh/core/libmesh_core_nrf52840_xxAA.a(nrf_mesh.c.obj)
                0x0002c074                nrf_mesh_on_ble_evt
 .text.nrf_mesh_on_sd_evt
                0x0002c078        0xa mesh/core/libmesh_core_nrf52840_xxAA.a(nrf_mesh.c.obj)
                0x0002c078                nrf_mesh_on_sd_evt
 .text.nrf_mesh_evt_handler_add
                0x0002c082        0x4 mesh/core/libmesh_core_nrf52840_xxAA.a(nrf_mesh.c.obj)
                0x0002c082                nrf_mesh_evt_handler_add
 .text.nrf_mesh_evt_handler_remove
                0x0002c086        0x4 mesh/core/libmesh_core_nrf52840_xxAA.a(nrf_mesh.c.obj)
                0x0002c086                nrf_mesh_evt_handler_remove
 *fill*         0x0002c08a        0x2 
 .text.hal_lfclk_ppm_get
                0x0002c08c       0x14 mesh/core/libmesh_core_nrf52840_xxAA.a(hal.c.obj)
                0x0002c08c                hal_lfclk_ppm_get
 .text.add_to_add_list
                0x0002c0a0       0x44 mesh/core/libmesh_core_nrf52840_xxAA.a(timer_scheduler.c.obj)
 .text.process_dirty_events
                0x0002c0e4       0x6c mesh/core/libmesh_core_nrf52840_xxAA.a(timer_scheduler.c.obj)
 .text.timer_cb
                0x0002c150        0xc mesh/core/libmesh_core_nrf52840_xxAA.a(timer_scheduler.c.obj)
 .text.add_evt.constprop.0
                0x0002c15c       0x68 mesh/core/libmesh_core_nrf52840_xxAA.a(timer_scheduler.c.obj)
 .text.process_add_list
                0x0002c1c4       0x48 mesh/core/libmesh_core_nrf52840_xxAA.a(timer_scheduler.c.obj)
 .text.flag_event_cb
                0x0002c20c      0x104 mesh/core/libmesh_core_nrf52840_xxAA.a(timer_scheduler.c.obj)
 .text.timer_sch_init
                0x0002c310       0x24 mesh/core/libmesh_core_nrf52840_xxAA.a(timer_scheduler.c.obj)
                0x0002c310                timer_sch_init
 .text.timer_sch_schedule
                0x0002c334       0x50 mesh/core/libmesh_core_nrf52840_xxAA.a(timer_scheduler.c.obj)
                0x0002c334                timer_sch_schedule
 .text.timer_sch_abort
                0x0002c384       0x64 mesh/core/libmesh_core_nrf52840_xxAA.a(timer_scheduler.c.obj)
                0x0002c384                timer_sch_abort
 .text.timer_sch_reschedule
                0x0002c3e8       0x70 mesh/core/libmesh_core_nrf52840_xxAA.a(timer_scheduler.c.obj)
                0x0002c3e8                timer_sch_reschedule
 .text.timer_mut_unlock
                0x0002c458       0x10 mesh/core/libmesh_core_nrf52840_xxAA.a(timer.c.obj)
 .text.timer_order_cb
                0x0002c468       0x94 mesh/core/libmesh_core_nrf52840_xxAA.a(timer.c.obj)
                0x0002c468                timer_order_cb
 .text.timer_now
                0x0002c4fc       0x48 mesh/core/libmesh_core_nrf52840_xxAA.a(timer.c.obj)
                0x0002c4fc                timer_now
 .text.timer_event_handler
                0x0002c544       0x90 mesh/core/libmesh_core_nrf52840_xxAA.a(timer.c.obj)
                0x0002c544                timer_event_handler
 .text.timer_on_ts_begin
                0x0002c5d4       0xfc mesh/core/libmesh_core_nrf52840_xxAA.a(timer.c.obj)
                0x0002c5d4                timer_on_ts_begin
 .text.timer_on_ts_end
                0x0002c6d0       0x60 mesh/core/libmesh_core_nrf52840_xxAA.a(timer.c.obj)
                0x0002c6d0                timer_on_ts_end
 .text.timer_cb
                0x0002c730       0x10 mesh/core/libmesh_core_nrf52840_xxAA.a(ticker.c.obj)
 .text.ticker_init
                0x0002c740       0x3c mesh/core/libmesh_core_nrf52840_xxAA.a(ticker.c.obj)
                0x0002c740                ticker_init
 .text.sd_rand_application_bytes_available_get
                0x0002c77c        0x4 mesh/core/libmesh_core_nrf52840_xxAA.a(rand.c.obj)
 .text.sd_rand_application_vector_get
                0x0002c780        0x4 mesh/core/libmesh_core_nrf52840_xxAA.a(rand.c.obj)
 .text.rand_prng_get
                0x0002c784       0x22 mesh/core/libmesh_core_nrf52840_xxAA.a(rand.c.obj)
                0x0002c784                rand_prng_get
 *fill*         0x0002c7a6        0x2 
 .text.rand_hw_rng_get
                0x0002c7a8       0x50 mesh/core/libmesh_core_nrf52840_xxAA.a(rand.c.obj)
                0x0002c7a8                rand_hw_rng_get
 .text.rand_prng_seed
                0x0002c7f8       0x34 mesh/core/libmesh_core_nrf52840_xxAA.a(rand.c.obj)
                0x0002c7f8                rand_prng_seed
 .text.nrf_mesh_opt_set
                0x0002c82c       0x26 mesh/core/libmesh_core_nrf52840_xxAA.a(nrf_mesh_opt.c.obj)
                0x0002c82c                nrf_mesh_opt_set
 .text.nrf_mesh_opt_get
                0x0002c852       0x26 mesh/core/libmesh_core_nrf52840_xxAA.a(nrf_mesh_opt.c.obj)
                0x0002c852                nrf_mesh_opt_get
 .text.sd_radio_session_open
                0x0002c878        0x4 mesh/core/libmesh_core_nrf52840_xxAA.a(timeslot.c.obj)
 .text.sd_radio_session_close
                0x0002c87c        0x4 mesh/core/libmesh_core_nrf52840_xxAA.a(timeslot.c.obj)
 .text.sd_radio_request
                0x0002c880        0x4 mesh/core/libmesh_core_nrf52840_xxAA.a(timeslot.c.obj)
 .text.end_timer_handler
                0x0002c884       0x24 mesh/core/libmesh_core_nrf52840_xxAA.a(timeslot.c.obj)
 .text.get_end_time.constprop.10
                0x0002c8a8       0x28 mesh/core/libmesh_core_nrf52840_xxAA.a(timeslot.c.obj)
 .text.handle_extend_end.constprop.3
                0x0002c8d0       0xc0 mesh/core/libmesh_core_nrf52840_xxAA.a(timeslot.c.obj)
 .text.radio_signal_callback
                0x0002c990      0x14c mesh/core/libmesh_core_nrf52840_xxAA.a(timeslot.c.obj)
 .text.timeslot_sd_event_handler
                0x0002cadc       0x44 mesh/core/libmesh_core_nrf52840_xxAA.a(timeslot.c.obj)
                0x0002cadc                timeslot_sd_event_handler
 .text.timeslot_init
                0x0002cb20       0x48 mesh/core/libmesh_core_nrf52840_xxAA.a(timeslot.c.obj)
                0x0002cb20                timeslot_init
 .text.timeslot_start
                0x0002cb68       0x20 mesh/core/libmesh_core_nrf52840_xxAA.a(timeslot.c.obj)
                0x0002cb68                timeslot_start
 .text.timeslot_end_is_pending
                0x0002cb88       0x24 mesh/core/libmesh_core_nrf52840_xxAA.a(timeslot.c.obj)
                0x0002cb88                timeslot_end_is_pending
 .text.timeslot_start_time_get
                0x0002cbac        0xc mesh/core/libmesh_core_nrf52840_xxAA.a(timeslot.c.obj)
                0x0002cbac                timeslot_start_time_get
 .text.timeslot_remaining_time_get
                0x0002cbb8       0x20 mesh/core/libmesh_core_nrf52840_xxAA.a(timeslot.c.obj)
                0x0002cbb8                timeslot_remaining_time_get
 .text.timeslot_is_in_cb
                0x0002cbd8        0xc mesh/core/libmesh_core_nrf52840_xxAA.a(timeslot.c.obj)
                0x0002cbd8                timeslot_is_in_cb
 .text.timeslot_trigger
                0x0002cbe4       0x24 mesh/core/libmesh_core_nrf52840_xxAA.a(timeslot.c.obj)
                0x0002cbe4                timeslot_trigger
 .text.timeslot_stop
                0x0002cc08       0x10 mesh/core/libmesh_core_nrf52840_xxAA.a(timeslot.c.obj)
                0x0002cc08                timeslot_stop
 .text.timeslot_state_lock
                0x0002cc18       0x28 mesh/core/libmesh_core_nrf52840_xxAA.a(timeslot.c.obj)
                0x0002cc18                timeslot_state_lock
 .text.evt_push
                0x0002cc40       0x24 mesh/core/libmesh_core_nrf52840_xxAA.a(bearer_event.c.obj)
 .text.QDEC_IRQHandler
                0x0002cc64       0xc4 mesh/core/libmesh_core_nrf52840_xxAA.a(bearer_event.c.obj)
                0x0002cc64                QDEC_IRQHandler
 .text.bearer_event_init
                0x0002cd28       0x38 mesh/core/libmesh_core_nrf52840_xxAA.a(bearer_event.c.obj)
                0x0002cd28                bearer_event_init
 .text.bearer_event_timer_post
                0x0002cd60       0x30 mesh/core/libmesh_core_nrf52840_xxAA.a(bearer_event.c.obj)
                0x0002cd60                bearer_event_timer_post
 .text.bearer_event_critical_section_begin
                0x0002cd90       0x44 mesh/core/libmesh_core_nrf52840_xxAA.a(bearer_event.c.obj)
                0x0002cd90                bearer_event_critical_section_begin
 .text.bearer_event_critical_section_end
                0x0002cdd4       0x40 mesh/core/libmesh_core_nrf52840_xxAA.a(bearer_event.c.obj)
                0x0002cdd4                bearer_event_critical_section_end
 .text.bearer_event_flag_add
                0x0002ce14       0x50 mesh/core/libmesh_core_nrf52840_xxAA.a(bearer_event.c.obj)
                0x0002ce14                bearer_event_flag_add
 .text.bearer_event_flag_set
                0x0002ce64       0x58 mesh/core/libmesh_core_nrf52840_xxAA.a(bearer_event.c.obj)
                0x0002ce64                bearer_event_flag_set
 .text.bearer_event_sequential_add
                0x0002cebc       0x44 mesh/core/libmesh_core_nrf52840_xxAA.a(bearer_event.c.obj)
                0x0002cebc                bearer_event_sequential_add
 .text.bearer_event_sequential_post
                0x0002cf00       0x64 mesh/core/libmesh_core_nrf52840_xxAA.a(bearer_event.c.obj)
                0x0002cf00                bearer_event_sequential_post
 .text.bearer_event_sequential_pending
                0x0002cf64       0x1c mesh/core/libmesh_core_nrf52840_xxAA.a(bearer_event.c.obj)
                0x0002cf64                bearer_event_sequential_pending
 .text.enc_aes_encrypt
                0x0002cf80        0x4 mesh/core/libmesh_core_nrf52840_xxAA.a(enc.c.obj)
                0x0002cf80                enc_aes_encrypt
 .text.enc_aes_cmac
                0x0002cf84        0x4 mesh/core/libmesh_core_nrf52840_xxAA.a(enc.c.obj)
                0x0002cf84                enc_aes_cmac
 .text.enc_aes_ccm_encrypt
                0x0002cf88        0x4 mesh/core/libmesh_core_nrf52840_xxAA.a(enc.c.obj)
                0x0002cf88                enc_aes_ccm_encrypt
 .text.enc_aes_ccm_decrypt
                0x0002cf8c        0x4 mesh/core/libmesh_core_nrf52840_xxAA.a(enc.c.obj)
                0x0002cf8c                enc_aes_ccm_decrypt
 .text.enc_nonce_generate
                0x0002cf90       0xb8 mesh/core/libmesh_core_nrf52840_xxAA.a(enc.c.obj)
                0x0002cf90                enc_nonce_generate
 .text.enc_s1   0x0002d048       0x38 mesh/core/libmesh_core_nrf52840_xxAA.a(enc.c.obj)
                0x0002d048                enc_s1
 .text.enc_k1   0x0002d080       0x48 mesh/core/libmesh_core_nrf52840_xxAA.a(enc.c.obj)
                0x0002d080                enc_k1
 .text.enc_k2   0x0002d0c8       0xd8 mesh/core/libmesh_core_nrf52840_xxAA.a(enc.c.obj)
                0x0002d0c8                enc_k2
 .text.enc_k3   0x0002d1a0       0x68 mesh/core/libmesh_core_nrf52840_xxAA.a(enc.c.obj)
                0x0002d1a0                enc_k3
 .text.enc_k4   0x0002d208       0x60 mesh/core/libmesh_core_nrf52840_xxAA.a(enc.c.obj)
                0x0002d208                enc_k4
 .text.header_transfuscate
                0x0002d268       0x54 mesh/core/libmesh_core_nrf52840_xxAA.a(network.c.obj)
 .text.allocate_packet
                0x0002d2bc      0x14c mesh/core/libmesh_core_nrf52840_xxAA.a(network.c.obj)
 .text.network_init
                0x0002d408       0x2c mesh/core/libmesh_core_nrf52840_xxAA.a(network.c.obj)
                0x0002d408                network_init
 .text.network_opt_set
                0x0002d434       0x54 mesh/core/libmesh_core_nrf52840_xxAA.a(network.c.obj)
                0x0002d434                network_opt_set
 .text.network_opt_get
                0x0002d488       0x48 mesh/core/libmesh_core_nrf52840_xxAA.a(network.c.obj)
                0x0002d488                network_opt_get
 .text.network_packet_alloc
                0x0002d4d0       0x50 mesh/core/libmesh_core_nrf52840_xxAA.a(network.c.obj)
                0x0002d4d0                network_packet_alloc
 .text.network_packet_send
                0x0002d520      0x140 mesh/core/libmesh_core_nrf52840_xxAA.a(network.c.obj)
                0x0002d520                network_packet_send
 .text.network_packet_in
                0x0002d660      0x450 mesh/core/libmesh_core_nrf52840_xxAA.a(network.c.obj)
                0x0002d660                network_packet_in
 .text.nrf_mesh_keygen_aid
                0x0002dab0       0x12 mesh/core/libmesh_core_nrf52840_xxAA.a(nrf_mesh_keygen.c.obj)
                0x0002dab0                nrf_mesh_keygen_aid
 .text.nrf_mesh_keygen_network_secmat
                0x0002dac2       0x20 mesh/core/libmesh_core_nrf52840_xxAA.a(nrf_mesh_keygen.c.obj)
                0x0002dac2                nrf_mesh_keygen_network_secmat
 *fill*         0x0002dae2        0x2 
 .text.nrf_mesh_keygen_beacon_secmat
                0x0002dae4       0x50 mesh/core/libmesh_core_nrf52840_xxAA.a(nrf_mesh_keygen.c.obj)
                0x0002dae4                nrf_mesh_keygen_beacon_secmat
 .text.nrf_mesh_keygen_virtual_address
                0x0002db34       0x50 mesh/core/libmesh_core_nrf52840_xxAA.a(nrf_mesh_keygen.c.obj)
                0x0002db34                nrf_mesh_keygen_virtual_address
 .text.log_callback_rtt
                0x0002db84       0x2c mesh/core/libmesh_core_nrf52840_xxAA.a(log.c.obj)
                0x0002db84                log_callback_rtt
 .text.log_init
                0x0002dbb0       0x1c mesh/core/libmesh_core_nrf52840_xxAA.a(log.c.obj)
                0x0002dbb0                log_init
 .text.log_vprintf
                0x0002dbcc       0x18 mesh/core/libmesh_core_nrf52840_xxAA.a(log.c.obj)
                0x0002dbcc                log_vprintf
 .text.log_printf
                0x0002dbe4       0x18 mesh/core/libmesh_core_nrf52840_xxAA.a(log.c.obj)
                0x0002dbe4                log_printf
 .text.get_area_end
                0x0002dbfc        0xc mesh/core/libmesh_core_nrf52840_xxAA.a(flash_manager.c.obj)
 .text.handle_matches_filter
                0x0002dc08       0x26 mesh/core/libmesh_core_nrf52840_xxAA.a(flash_manager.c.obj)
 *fill*         0x0002dc2e        0x2 
 .text.get_packet_buffer
                0x0002dc30       0x2c mesh/core/libmesh_core_nrf52840_xxAA.a(flash_manager.c.obj)
 .text.get_entry_action
                0x0002dc5c       0x30 mesh/core/libmesh_core_nrf52840_xxAA.a(flash_manager.c.obj)
 .text.flash_area_is_blank
                0x0002dc8c       0x48 mesh/core/libmesh_core_nrf52840_xxAA.a(flash_manager.c.obj)
 .text.flash    0x0002dcd4       0x1c mesh/core/libmesh_core_nrf52840_xxAA.a(flash_manager.c.obj)
 .text.free_packet_buffer
                0x0002dcf0       0x54 mesh/core/libmesh_core_nrf52840_xxAA.a(flash_manager.c.obj)
 .text.reserve_action_buffer
                0x0002dd44       0x24 mesh/core/libmesh_core_nrf52840_xxAA.a(flash_manager.c.obj)
 .text.commit_action_buffer
                0x0002dd68       0x18 mesh/core/libmesh_core_nrf52840_xxAA.a(flash_manager.c.obj)
 .text.schedule_processing
                0x0002dd80        0xc mesh/core/libmesh_core_nrf52840_xxAA.a(flash_manager.c.obj)
 .text.get_next_entry
                0x0002dd8c       0x40 mesh/core/libmesh_core_nrf52840_xxAA.a(flash_manager.c.obj)
 .text.get_last_entry.isra.1
                0x0002ddcc       0x30 mesh/core/libmesh_core_nrf52840_xxAA.a(flash_manager.c.obj)
 .text.process_action_queue
                0x0002ddfc      0x4e0 mesh/core/libmesh_core_nrf52840_xxAA.a(flash_manager.c.obj)
 .text.flash_op_ended_callback
                0x0002e2dc       0x24 mesh/core/libmesh_core_nrf52840_xxAA.a(flash_manager.c.obj)
 .text.flash_manager_init
                0x0002e300       0x68 mesh/core/libmesh_core_nrf52840_xxAA.a(flash_manager.c.obj)
                0x0002e300                flash_manager_init
 .text.flash_manager_remove
                0x0002e368       0x24 mesh/core/libmesh_core_nrf52840_xxAA.a(flash_manager.c.obj)
                0x0002e368                flash_manager_remove
 .text.flash_manager_entry_get
                0x0002e38c       0x48 mesh/core/libmesh_core_nrf52840_xxAA.a(flash_manager.c.obj)
                0x0002e38c                flash_manager_entry_get
 .text.flash_manager_entry_next_get
                0x0002e3d4       0x6c mesh/core/libmesh_core_nrf52840_xxAA.a(flash_manager.c.obj)
                0x0002e3d4                flash_manager_entry_next_get
 .text.flash_manager_entry_alloc
                0x0002e440       0x78 mesh/core/libmesh_core_nrf52840_xxAA.a(flash_manager.c.obj)
                0x0002e440                flash_manager_entry_alloc
 .text.flash_manager_entry_commit
                0x0002e4b8       0x12 mesh/core/libmesh_core_nrf52840_xxAA.a(flash_manager.c.obj)
                0x0002e4b8                flash_manager_entry_commit
 *fill*         0x0002e4ca        0x2 
 .text.flash_manager_entry_invalidate
                0x0002e4cc       0x64 mesh/core/libmesh_core_nrf52840_xxAA.a(flash_manager.c.obj)
                0x0002e4cc                flash_manager_entry_invalidate
 .text.flash_manager_add
                0x0002e530      0x248 mesh/core/libmesh_core_nrf52840_xxAA.a(flash_manager.c.obj)
                0x0002e530                flash_manager_add
 .text.flash_manager_mem_listener_register
                0x0002e778       0x44 mesh/core/libmesh_core_nrf52840_xxAA.a(flash_manager.c.obj)
                0x0002e778                flash_manager_mem_listener_register
 .text.flash_manager_is_stable
                0x0002e7bc       0x24 mesh/core/libmesh_core_nrf52840_xxAA.a(flash_manager.c.obj)
                0x0002e7bc                flash_manager_is_stable
 .text.flash_manager_on_defrag_end
                0x0002e7e0       0x58 mesh/core/libmesh_core_nrf52840_xxAA.a(flash_manager.c.obj)
                0x0002e7e0                flash_manager_on_defrag_end
 .text.flash_manager_recovery_page_get
                0x0002e838        0x4 mesh/core/libmesh_core_nrf52840_xxAA.a(flash_manager.c.obj)
                0x0002e838                flash_manager_recovery_page_get
 .text.utils_xor
                0x0002e83c       0x14 mesh/core/libmesh_core_nrf52840_xxAA.a(ccm_soft.c.obj)
 .text.ccm_soft_authenticate_blocks
                0x0002e850       0x68 mesh/core/libmesh_core_nrf52840_xxAA.a(ccm_soft.c.obj)
 .text.utils_reverse_memcpy.constprop.0
                0x0002e8b8        0xa mesh/core/libmesh_core_nrf52840_xxAA.a(ccm_soft.c.obj)
 .text.ccm_soft_authenticate
                0x0002e8c2       0xa0 mesh/core/libmesh_core_nrf52840_xxAA.a(ccm_soft.c.obj)
 .text.ccm_soft_crypt
                0x0002e962       0x6c mesh/core/libmesh_core_nrf52840_xxAA.a(ccm_soft.c.obj)
 .text.ccm_soft_encrypt
                0x0002e9ce       0x70 mesh/core/libmesh_core_nrf52840_xxAA.a(ccm_soft.c.obj)
                0x0002e9ce                ccm_soft_encrypt
 .text.ccm_soft_decrypt
                0x0002ea3e       0xfe mesh/core/libmesh_core_nrf52840_xxAA.a(ccm_soft.c.obj)
                0x0002ea3e                ccm_soft_decrypt
 .text.beacon_init
                0x0002eb3c       0x48 mesh/core/libmesh_core_nrf52840_xxAA.a(beacon.c.obj)
                0x0002eb3c                beacon_init
 .text.beacon_create
                0x0002eb84       0x46 mesh/core/libmesh_core_nrf52840_xxAA.a(beacon.c.obj)
                0x0002eb84                beacon_create
 *fill*         0x0002ebca        0x2 
 .text.beacon_tx
                0x0002ebcc       0x3c mesh/core/libmesh_core_nrf52840_xxAA.a(beacon.c.obj)
                0x0002ebcc                beacon_tx
 .text.beacon_packet_in
                0x0002ec08      0x160 mesh/core/libmesh_core_nrf52840_xxAA.a(beacon.c.obj)
                0x0002ec08                beacon_packet_in
 .text.entry_get
                0x0002ed68       0x88 mesh/core/libmesh_core_nrf52840_xxAA.a(flash_manager_internal.c.obj)
                0x0002ed68                entry_get
 .text.adv_tx_complete_callback
                0x0002edf0       0x50 mesh/core/libmesh_core_nrf52840_xxAA.a(core_tx.c.obj)
 .text.core_tx_init
                0x0002ee40       0x4c mesh/core/libmesh_core_nrf52840_xxAA.a(core_tx.c.obj)
                0x0002ee40                core_tx_init
 .text.core_tx_complete_cb_set
                0x0002ee8c        0xc mesh/core/libmesh_core_nrf52840_xxAA.a(core_tx.c.obj)
                0x0002ee8c                core_tx_complete_cb_set
 .text.core_tx_packet_alloc
                0x0002ee98       0x98 mesh/core/libmesh_core_nrf52840_xxAA.a(core_tx.c.obj)
                0x0002ee98                core_tx_packet_alloc
 .text.core_tx_packet_send
                0x0002ef30       0x6c mesh/core/libmesh_core_nrf52840_xxAA.a(core_tx.c.obj)
                0x0002ef30                core_tx_packet_send
 .text.core_tx_packet_discard
                0x0002ef9c       0x6c mesh/core/libmesh_core_nrf52840_xxAA.a(core_tx.c.obj)
                0x0002ef9c                core_tx_packet_discard
 .text.core_tx_adv_count_set
                0x0002f008       0x38 mesh/core/libmesh_core_nrf52840_xxAA.a(core_tx.c.obj)
                0x0002f008                core_tx_adv_count_set
 .text.core_tx_adv_count_get
                0x0002f040       0x28 mesh/core/libmesh_core_nrf52840_xxAA.a(core_tx.c.obj)
                0x0002f040                core_tx_adv_count_get
 .text.core_tx_adv_interval_set
                0x0002f068       0x34 mesh/core/libmesh_core_nrf52840_xxAA.a(core_tx.c.obj)
                0x0002f068                core_tx_adv_interval_set
 .text.core_tx_adv_interval_get
                0x0002f09c       0x34 mesh/core/libmesh_core_nrf52840_xxAA.a(core_tx.c.obj)
                0x0002f09c                core_tx_adv_interval_get
 .text.network_beacon_tx_cb
                0x0002f0d0       0xe0 mesh/core/libmesh_core_nrf52840_xxAA.a(net_beacon.c.obj)
 .text.net_beacon_init
                0x0002f1b0       0x60 mesh/core/libmesh_core_nrf52840_xxAA.a(net_beacon.c.obj)
                0x0002f1b0                net_beacon_init
 .text.net_beacon_state_set
                0x0002f210       0x34 mesh/core/libmesh_core_nrf52840_xxAA.a(net_beacon.c.obj)
                0x0002f210                net_beacon_state_set
 .text.net_beacon_state_get
                0x0002f244        0xc mesh/core/libmesh_core_nrf52840_xxAA.a(net_beacon.c.obj)
                0x0002f244                net_beacon_state_get
 .text.net_beacon_packet_in
                0x0002f250       0xb8 mesh/core/libmesh_core_nrf52840_xxAA.a(net_beacon.c.obj)
                0x0002f250                net_beacon_packet_in
 .text.set_gap_addr_type
                0x0002f308       0x34 mesh/core/libmesh_core_nrf52840_xxAA.a(advertiser.c.obj)
 .text.tx_complete_event_callback
                0x0002f33c       0x3c mesh/core/libmesh_core_nrf52840_xxAA.a(advertiser.c.obj)
 .text.broadcast_complete_cb
                0x0002f378       0x64 mesh/core/libmesh_core_nrf52840_xxAA.a(advertiser.c.obj)
 .text.schedule_first_time
                0x0002f3dc       0x28 mesh/core/libmesh_core_nrf52840_xxAA.a(advertiser.c.obj)
 .text.timeout_event
                0x0002f404      0x130 mesh/core/libmesh_core_nrf52840_xxAA.a(advertiser.c.obj)
 .text.advertiser_init
                0x0002f534        0xc mesh/core/libmesh_core_nrf52840_xxAA.a(advertiser.c.obj)
                0x0002f534                advertiser_init
 .text.advertiser_enable
                0x0002f540       0x2a mesh/core/libmesh_core_nrf52840_xxAA.a(advertiser.c.obj)
                0x0002f540                advertiser_enable
 *fill*         0x0002f56a        0x2 
 .text.advertiser_packet_alloc
                0x0002f56c       0x94 mesh/core/libmesh_core_nrf52840_xxAA.a(advertiser.c.obj)
                0x0002f56c                advertiser_packet_alloc
 .text.advertiser_packet_send
                0x0002f600       0x78 mesh/core/libmesh_core_nrf52840_xxAA.a(advertiser.c.obj)
                0x0002f600                advertiser_packet_send
 .text.advertiser_packet_discard
                0x0002f678       0x2c mesh/core/libmesh_core_nrf52840_xxAA.a(advertiser.c.obj)
                0x0002f678                advertiser_packet_discard
 .text.advertiser_interval_set
                0x0002f6a4       0x68 mesh/core/libmesh_core_nrf52840_xxAA.a(advertiser.c.obj)
                0x0002f6a4                advertiser_interval_set
 .text.advertiser_flush
                0x0002f70c       0x1e mesh/core/libmesh_core_nrf52840_xxAA.a(advertiser.c.obj)
                0x0002f70c                advertiser_flush
 *fill*         0x0002f72a        0x2 
 .text.advertiser_address_default_get
                0x0002f72c       0x38 mesh/core/libmesh_core_nrf52840_xxAA.a(advertiser.c.obj)
                0x0002f72c                advertiser_address_default_get
 .text.advertiser_instance_init
                0x0002f764       0xbc mesh/core/libmesh_core_nrf52840_xxAA.a(advertiser.c.obj)
                0x0002f764                advertiser_instance_init
 .text.action_switch
                0x0002f820       0xc0 mesh/core/libmesh_core_nrf52840_xxAA.a(bearer_handler.c.obj)
 .text.bearer_handler_init
                0x0002f8e0       0x2c mesh/core/libmesh_core_nrf52840_xxAA.a(bearer_handler.c.obj)
                0x0002f8e0                bearer_handler_init
 .text.bearer_handler_start
                0x0002f90c       0x1c mesh/core/libmesh_core_nrf52840_xxAA.a(bearer_handler.c.obj)
                0x0002f90c                bearer_handler_start
 .text.bearer_handler_action_enqueue
                0x0002f928       0x94 mesh/core/libmesh_core_nrf52840_xxAA.a(bearer_handler.c.obj)
                0x0002f928                bearer_handler_action_enqueue
 .text.bearer_handler_action_end
                0x0002f9bc       0x78 mesh/core/libmesh_core_nrf52840_xxAA.a(bearer_handler.c.obj)
                0x0002f9bc                bearer_handler_action_end
 .text.bearer_handler_radio_irq_handler
                0x0002fa34       0x64 mesh/core/libmesh_core_nrf52840_xxAA.a(bearer_handler.c.obj)
                0x0002fa34                bearer_handler_radio_irq_handler
 .text.bearer_handler_timer_irq_handler
                0x0002fa98       0x30 mesh/core/libmesh_core_nrf52840_xxAA.a(bearer_handler.c.obj)
                0x0002fa98                bearer_handler_timer_irq_handler
 .text.bearer_handler_on_ts_begin
                0x0002fac8       0x44 mesh/core/libmesh_core_nrf52840_xxAA.a(bearer_handler.c.obj)
                0x0002fac8                bearer_handler_on_ts_begin
 .text.bearer_handler_on_ts_end
                0x0002fb0c       0x48 mesh/core/libmesh_core_nrf52840_xxAA.a(bearer_handler.c.obj)
                0x0002fb0c                bearer_handler_on_ts_end
 .text.radio_irq_handler
                0x0002fb54       0xb0 mesh/core/libmesh_core_nrf52840_xxAA.a(broadcast.c.obj)
 .text.broadcast_start
                0x0002fc04       0x8c mesh/core/libmesh_core_nrf52840_xxAA.a(broadcast.c.obj)
 .text.broadcast_send
                0x0002fc90       0x80 mesh/core/libmesh_core_nrf52840_xxAA.a(broadcast.c.obj)
                0x0002fc90                broadcast_send
 .text.radio_config_reset
                0x0002fd10       0x34 mesh/core/libmesh_core_nrf52840_xxAA.a(radio_config.c.obj)
                0x0002fd10                radio_config_reset
 .text.radio_config_channel_set
                0x0002fd44       0x34 mesh/core/libmesh_core_nrf52840_xxAA.a(radio_config.c.obj)
                0x0002fd44                radio_config_channel_set
 .text.radio_config_config
                0x0002fd78       0x80 mesh/core/libmesh_core_nrf52840_xxAA.a(radio_config.c.obj)
                0x0002fd78                radio_config_config
 .text.radio_config_access_addr_set
                0x0002fdf8       0x68 mesh/core/libmesh_core_nrf52840_xxAA.a(radio_config.c.obj)
                0x0002fdf8                radio_config_access_addr_set
 .text.radio_trigger
                0x0002fe60       0x24 mesh/core/libmesh_core_nrf52840_xxAA.a(scanner.c.obj)
 .text.scan_window_end
                0x0002fe84       0x10 mesh/core/libmesh_core_nrf52840_xxAA.a(scanner.c.obj)
 .text.scan_window_start
                0x0002fe94       0x24 mesh/core/libmesh_core_nrf52840_xxAA.a(scanner.c.obj)
 .text.radio_configure
                0x0002feb8       0x78 mesh/core/libmesh_core_nrf52840_xxAA.a(scanner.c.obj)
 .text.radio_set_packet
                0x0002ff30       0x50 mesh/core/libmesh_core_nrf52840_xxAA.a(scanner.c.obj)
 .text.radio_start
                0x0002ff80       0x4c mesh/core/libmesh_core_nrf52840_xxAA.a(scanner.c.obj)
 .text.radio_stop
                0x0002ffcc       0x30 mesh/core/libmesh_core_nrf52840_xxAA.a(scanner.c.obj)
 .text.schedule_timers
                0x0002fffc       0x38 mesh/core/libmesh_core_nrf52840_xxAA.a(scanner.c.obj)
 .text.scanner_radio_start
                0x00030034       0x28 mesh/core/libmesh_core_nrf52840_xxAA.a(scanner.c.obj)
                0x00030034                scanner_radio_start
 .text.scanner_radio_stop
                0x0003005c       0x10 mesh/core/libmesh_core_nrf52840_xxAA.a(scanner.c.obj)
                0x0003005c                scanner_radio_stop
 .text.scanner_radio_irq_handler
                0x0003006c      0x124 mesh/core/libmesh_core_nrf52840_xxAA.a(scanner.c.obj)
                0x0003006c                scanner_radio_irq_handler
 .text.scanner_enable
                0x00030190       0x30 mesh/core/libmesh_core_nrf52840_xxAA.a(scanner.c.obj)
                0x00030190                scanner_enable
 .text.scanner_packet_release
                0x000301c0       0x38 mesh/core/libmesh_core_nrf52840_xxAA.a(scanner.c.obj)
                0x000301c0                scanner_packet_release
 .text.scanner_rx
                0x000301f8       0x30 mesh/core/libmesh_core_nrf52840_xxAA.a(scanner.c.obj)
                0x000301f8                scanner_rx
 .text.scanner_config_scan_time_set
                0x00030228       0x68 mesh/core/libmesh_core_nrf52840_xxAA.a(scanner.c.obj)
                0x00030228                scanner_config_scan_time_set
 .text.scanner_config_channels_set
                0x00030290       0x64 mesh/core/libmesh_core_nrf52840_xxAA.a(scanner.c.obj)
                0x00030290                scanner_config_channels_set
 .text.scanner_config_access_addresses_set
                0x000302f4       0x44 mesh/core/libmesh_core_nrf52840_xxAA.a(scanner.c.obj)
                0x000302f4                scanner_config_access_addresses_set
 .text.scanner_config_reset
                0x00030338       0x50 mesh/core/libmesh_core_nrf52840_xxAA.a(scanner.c.obj)
                0x00030338                scanner_config_reset
 .text.scanner_init
                0x00030388       0x48 mesh/core/libmesh_core_nrf52840_xxAA.a(scanner.c.obj)
                0x00030388                scanner_init
 .text.internal_event_push
                0x000303d0       0x28 mesh/core/libmesh_core_nrf52840_xxAA.a(internal_event.c.obj)
                0x000303d0                internal_event_push
 .text.sd_ecb_block_encrypt
                0x000303f8        0x4 mesh/core/libmesh_core_nrf52840_xxAA.a(aes.c.obj)
 .text.aes_encrypt
                0x000303fc       0x32 mesh/core/libmesh_core_nrf52840_xxAA.a(aes.c.obj)
                0x000303fc                aes_encrypt
 *fill*         0x0003042e        0x2 
 .text.msg_cache_init
                0x00030430       0x24 mesh/core/libmesh_core_nrf52840_xxAA.a(msg_cache.c.obj)
                0x00030430                msg_cache_init
 .text.msg_cache_entry_exists
                0x00030454       0x3c mesh/core/libmesh_core_nrf52840_xxAA.a(msg_cache.c.obj)
                0x00030454                msg_cache_entry_exists
 .text.msg_cache_entry_add
                0x00030490       0x2c mesh/core/libmesh_core_nrf52840_xxAA.a(msg_cache.c.obj)
                0x00030490                msg_cache_entry_add
 .text.block_ack_full
                0x000304bc       0x28 mesh/core/libmesh_core_nrf52840_xxAA.a(transport.c.obj)
 .text.seqauth_sequence_number_get
                0x000304e4       0x12 mesh/core/libmesh_core_nrf52840_xxAA.a(transport.c.obj)
 *fill*         0x000304f6        0x2 
 .text.sar_rx_session_mark_as_handled
                0x000304f8       0x54 mesh/core/libmesh_core_nrf52840_xxAA.a(transport.c.obj)
 .text.sar_ctx_find
                0x0003054c       0x3c mesh/core/libmesh_core_nrf52840_xxAA.a(transport.c.obj)
 .text.m_send_sar_cancel_event
                0x00030588       0x28 mesh/core/libmesh_core_nrf52840_xxAA.a(transport.c.obj)
 .text.tx_complete
                0x000305b0       0x34 mesh/core/libmesh_core_nrf52840_xxAA.a(transport.c.obj)
 .text.upper_trs_packet_alloc
                0x000305e4       0x2e mesh/core/libmesh_core_nrf52840_xxAA.a(transport.c.obj)
 *fill*         0x00030612        0x2 
 .text.upper_trs_packet_encrypt
                0x00030614       0xbc mesh/core/libmesh_core_nrf52840_xxAA.a(transport.c.obj)
 .text.sar_ctx_free
                0x000306d0       0x3c mesh/core/libmesh_core_nrf52840_xxAA.a(transport.c.obj)
 .text.sar_ctx_tx_complete
                0x0003070c       0x3c mesh/core/libmesh_core_nrf52840_xxAA.a(transport.c.obj)
 .text.sar_ctx_cancel
                0x00030748      0x108 mesh/core/libmesh_core_nrf52840_xxAA.a(transport.c.obj)
 .text.abort_timeout
                0x00030850        0x8 mesh/core/libmesh_core_nrf52840_xxAA.a(transport.c.obj)
 .text.sar_ctx_alloc
                0x00030858       0xb8 mesh/core/libmesh_core_nrf52840_xxAA.a(transport.c.obj)
 .text.test_transport_decrypt
                0x00030910       0x88 mesh/core/libmesh_core_nrf52840_xxAA.a(transport.c.obj)
 .text.upper_transport_access_packet_in
                0x00030998      0x28c mesh/core/libmesh_core_nrf52840_xxAA.a(transport.c.obj)
 .text.trs_packet_header_build
                0x00030c24       0xa6 mesh/core/libmesh_core_nrf52840_xxAA.a(transport.c.obj)
 *fill*         0x00030cca        0x2 
 .text.trs_sar_packet_out
                0x00030ccc       0xbc mesh/core/libmesh_core_nrf52840_xxAA.a(transport.c.obj)
 .text.retry_timeout
                0x00030d88       0x54 mesh/core/libmesh_core_nrf52840_xxAA.a(transport.c.obj)
 .text.sar_ack_send
                0x00030ddc      0x128 mesh/core/libmesh_core_nrf52840_xxAA.a(transport.c.obj)
 .text.ack_timeout
                0x00030f04       0x34 mesh/core/libmesh_core_nrf52840_xxAA.a(transport.c.obj)
 .text.tx_retry_timer_reset
                0x00030f38       0x50 mesh/core/libmesh_core_nrf52840_xxAA.a(transport.c.obj)
 .text.upper_transport_packet_in
                0x00030f88      0x164 mesh/core/libmesh_core_nrf52840_xxAA.a(transport.c.obj)
 .text.transport_sar_process
                0x000310ec       0x70 mesh/core/libmesh_core_nrf52840_xxAA.a(transport.c.obj)
 .text.transport_sar_mem_funcs_reset
                0x0003115c       0x28 mesh/core/libmesh_core_nrf52840_xxAA.a(transport.c.obj)
                0x0003115c                transport_sar_mem_funcs_reset
 .text.transport_init
                0x00031184       0x78 mesh/core/libmesh_core_nrf52840_xxAA.a(transport.c.obj)
                0x00031184                transport_init
 .text.transport_packet_in
                0x000311fc      0x4f4 mesh/core/libmesh_core_nrf52840_xxAA.a(transport.c.obj)
                0x000311fc                transport_packet_in
 .text.transport_tx
                0x000316f0      0x2ac mesh/core/libmesh_core_nrf52840_xxAA.a(transport.c.obj)
                0x000316f0                transport_tx
 .text.transport_opt_set
                0x0003199c       0xd0 mesh/core/libmesh_core_nrf52840_xxAA.a(transport.c.obj)
                0x0003199c                transport_opt_set
 .text.transport_opt_get
                0x00031a6c       0x68 mesh/core/libmesh_core_nrf52840_xxAA.a(transport.c.obj)
                0x00031a6c                transport_opt_get
 .text.m_adjust_desired_packet_length
                0x00031ad4       0x34 mesh/core/libmesh_core_nrf52840_xxAA.a(packet_buffer.c.obj)
 .text.m_index_increment.part.0
                0x00031b08       0x14 mesh/core/libmesh_core_nrf52840_xxAA.a(packet_buffer.c.obj)
 .text.m_free_popped_packet
                0x00031b1c       0x60 mesh/core/libmesh_core_nrf52840_xxAA.a(packet_buffer.c.obj)
 .text.free_skipped_packets
                0x00031b7c       0x1c mesh/core/libmesh_core_nrf52840_xxAA.a(packet_buffer.c.obj)
 .text.packet_buffer_init
                0x00031b98       0xe0 mesh/core/libmesh_core_nrf52840_xxAA.a(packet_buffer.c.obj)
                0x00031b98                packet_buffer_init
 .text.packet_buffer_flush
                0x00031c78       0x5e mesh/core/libmesh_core_nrf52840_xxAA.a(packet_buffer.c.obj)
                0x00031c78                packet_buffer_flush
 *fill*         0x00031cd6        0x2 
 .text.packet_buffer_reserve
                0x00031cd8      0x11c mesh/core/libmesh_core_nrf52840_xxAA.a(packet_buffer.c.obj)
                0x00031cd8                packet_buffer_reserve
 .text.packet_buffer_commit
                0x00031df4      0x104 mesh/core/libmesh_core_nrf52840_xxAA.a(packet_buffer.c.obj)
                0x00031df4                packet_buffer_commit
 .text.packet_buffer_pop
                0x00031ef8       0x58 mesh/core/libmesh_core_nrf52840_xxAA.a(packet_buffer.c.obj)
                0x00031ef8                packet_buffer_pop
 .text.packet_buffer_can_pop
                0x00031f50       0x28 mesh/core/libmesh_core_nrf52840_xxAA.a(packet_buffer.c.obj)
                0x00031f50                packet_buffer_can_pop
 .text.packet_buffer_packets_ready_to_pop
                0x00031f78       0x58 mesh/core/libmesh_core_nrf52840_xxAA.a(packet_buffer.c.obj)
                0x00031f78                packet_buffer_packets_ready_to_pop
 .text.packet_buffer_free
                0x00031fd0       0x8c mesh/core/libmesh_core_nrf52840_xxAA.a(packet_buffer.c.obj)
                0x00031fd0                packet_buffer_free
 .text.get_last_page
                0x0003205c       0x14 mesh/core/libmesh_core_nrf52840_xxAA.a(flash_manager_defrag.c.obj)
 .text.defrag_on_end
                0x00032070       0x1c mesh/core/libmesh_core_nrf52840_xxAA.a(flash_manager_defrag.c.obj)
 .text.execute_procedure_step
                0x0003208c       0xa0 mesh/core/libmesh_core_nrf52840_xxAA.a(flash_manager_defrag.c.obj)
 .text.get_next_entry
                0x0003212c       0x40 mesh/core/libmesh_core_nrf52840_xxAA.a(flash_manager_defrag.c.obj)
 .text.get_next_data_entry
                0x0003216c       0x20 mesh/core/libmesh_core_nrf52840_xxAA.a(flash_manager_defrag.c.obj)
 .text.on_flash_op_end
                0x0003218c       0x30 mesh/core/libmesh_core_nrf52840_xxAA.a(flash_manager_defrag.c.obj)
 .text.check_for_invalid_entries
                0x000321bc       0x38 mesh/core/libmesh_core_nrf52840_xxAA.a(flash_manager_defrag.c.obj)
 .text.erase_recovery_area
                0x000321f4       0x34 mesh/core/libmesh_core_nrf52840_xxAA.a(flash_manager_defrag.c.obj)
 .text.flash.constprop.6
                0x00032228       0x24 mesh/core/libmesh_core_nrf52840_xxAA.a(flash_manager_defrag.c.obj)
 .text.seal_storage_page
                0x0003224c       0x50 mesh/core/libmesh_core_nrf52840_xxAA.a(flash_manager_defrag.c.obj)
 .text.invalidate_duplicate_entries
                0x0003229c       0x9c mesh/core/libmesh_core_nrf52840_xxAA.a(flash_manager_defrag.c.obj)
 .text.copy_metadata
                0x00032338       0x3c mesh/core/libmesh_core_nrf52840_xxAA.a(flash_manager_defrag.c.obj)
 .text.write_defrag_start_pointer
                0x00032374       0x20 mesh/core/libmesh_core_nrf52840_xxAA.a(flash_manager_defrag.c.obj)
 .text.write_back
                0x00032394       0x28 mesh/core/libmesh_core_nrf52840_xxAA.a(flash_manager_defrag.c.obj)
 .text.post_process
                0x000323bc       0x40 mesh/core/libmesh_core_nrf52840_xxAA.a(flash_manager_defrag.c.obj)
 .text.backup_entries
                0x000323fc      0x118 mesh/core/libmesh_core_nrf52840_xxAA.a(flash_manager_defrag.c.obj)
 .text.erase_source
                0x00032514       0x34 mesh/core/libmesh_core_nrf52840_xxAA.a(flash_manager_defrag.c.obj)
 .text.flash_manager_defrag_init
                0x00032548       0x94 mesh/core/libmesh_core_nrf52840_xxAA.a(flash_manager_defrag.c.obj)
                0x00032548                flash_manager_defrag_init
 .text.flash_manager_defrag_is_running
                0x000325dc       0x10 mesh/core/libmesh_core_nrf52840_xxAA.a(flash_manager_defrag.c.obj)
                0x000325dc                flash_manager_defrag_is_running
 .text.flash_manager_defrag
                0x000325ec       0xd8 mesh/core/libmesh_core_nrf52840_xxAA.a(flash_manager_defrag.c.obj)
                0x000325ec                flash_manager_defrag
 .text.flash_manager_defrag_recovery_page_get
                0x000326c4        0xc mesh/core/libmesh_core_nrf52840_xxAA.a(flash_manager_defrag.c.obj)
                0x000326c4                flash_manager_defrag_recovery_page_get
 .text.fifo_init
                0x000326d0       0x50 mesh/core/libmesh_core_nrf52840_xxAA.a(fifo.c.obj)
                0x000326d0                fifo_init
 .text.fifo_push
                0x00032720       0x50 mesh/core/libmesh_core_nrf52840_xxAA.a(fifo.c.obj)
                0x00032720                fifo_push
 .text.fifo_pop
                0x00032770       0x52 mesh/core/libmesh_core_nrf52840_xxAA.a(fifo.c.obj)
                0x00032770                fifo_pop
 *fill*         0x000327c2        0x2 
 .text.packet_mgr_init
                0x000327c4       0x4c mesh/core/libmesh_core_nrf52840_xxAA.a(packet_mgr.c.obj)
                0x000327c4                packet_mgr_init
 .text.send_end_events
                0x00032810       0x80 mesh/core/libmesh_core_nrf52840_xxAA.a(mesh_flash.c.obj)
 .text.flash_op_schedule
                0x00032890       0x9c mesh/core/libmesh_core_nrf52840_xxAA.a(mesh_flash.c.obj)
 .text.flash_op_start
                0x0003292c      0x170 mesh/core/libmesh_core_nrf52840_xxAA.a(mesh_flash.c.obj)
 .text.mesh_flash_init
                0x00032a9c       0x88 mesh/core/libmesh_core_nrf52840_xxAA.a(mesh_flash.c.obj)
                0x00032a9c                mesh_flash_init
 .text.mesh_flash_user_callback_set
                0x00032b24       0x2c mesh/core/libmesh_core_nrf52840_xxAA.a(mesh_flash.c.obj)
                0x00032b24                mesh_flash_user_callback_set
 .text.mesh_flash_op_push
                0x00032b50      0x128 mesh/core/libmesh_core_nrf52840_xxAA.a(mesh_flash.c.obj)
                0x00032b50                mesh_flash_op_push
 .text.queue_init
                0x00032c78       0x20 mesh/core/libmesh_core_nrf52840_xxAA.a(queue.c.obj)
                0x00032c78                queue_init
 .text.queue_push
                0x00032c98       0x48 mesh/core/libmesh_core_nrf52840_xxAA.a(queue.c.obj)
                0x00032c98                queue_push
 .text.queue_pop
                0x00032ce0       0x34 mesh/core/libmesh_core_nrf52840_xxAA.a(queue.c.obj)
                0x00032ce0                queue_pop
 .text.queue_peek
                0x00032d14       0x1c mesh/core/libmesh_core_nrf52840_xxAA.a(queue.c.obj)
                0x00032d14                queue_peek
 .text.my_xor.constprop.1
                0x00032d30       0x20 mesh/core/libmesh_core_nrf52840_xxAA.a(aes_cmac.c.obj)
 .text.utils_lshift.constprop.2
                0x00032d50       0x24 mesh/core/libmesh_core_nrf52840_xxAA.a(aes_cmac.c.obj)
 .text.aes_cmac_subkey_generate
                0x00032d74       0x6c mesh/core/libmesh_core_nrf52840_xxAA.a(aes_cmac.c.obj)
                0x00032d74                aes_cmac_subkey_generate
 .text.aes_cmac
                0x00032de0       0xbc mesh/core/libmesh_core_nrf52840_xxAA.a(aes_cmac.c.obj)
                0x00032de0                aes_cmac
 .text.stage_get_available
                0x00032e9c       0x24 mesh/core/libmesh_core_nrf52840_xxAA.a(msqueue.c.obj)
 .text.msq_get  0x00032ec0       0x4c mesh/core/libmesh_core_nrf52840_xxAA.a(msqueue.c.obj)
                0x00032ec0                msq_get
 .text.msq_move
                0x00032f0c       0x44 mesh/core/libmesh_core_nrf52840_xxAA.a(msqueue.c.obj)
                0x00032f0c                msq_move
 .text.msq_reset
                0x00032f50       0x2c mesh/core/libmesh_core_nrf52840_xxAA.a(msqueue.c.obj)
                0x00032f50                msq_reset
 .text.msq_init
                0x00032f7c       0x78 mesh/core/libmesh_core_nrf52840_xxAA.a(msqueue.c.obj)
                0x00032f7c                msq_init
 .text.msq_available
                0x00032ff4       0x3c mesh/core/libmesh_core_nrf52840_xxAA.a(msqueue.c.obj)
                0x00032ff4                msq_available
 .text.replay_cache_add
                0x00033030       0x60 mesh/core/libmesh_core_nrf52840_xxAA.a(replay_cache.c.obj)
                0x00033030                replay_cache_add
 .text.replay_cache_has_room
                0x00033090       0x38 mesh/core/libmesh_core_nrf52840_xxAA.a(replay_cache.c.obj)
                0x00033090                replay_cache_has_room
 .text.replay_cache_has_elem
                0x000330c8       0x38 mesh/core/libmesh_core_nrf52840_xxAA.a(replay_cache.c.obj)
                0x000330c8                replay_cache_has_elem
 .text.replay_cache_clear
                0x00033100       0x28 mesh/core/libmesh_core_nrf52840_xxAA.a(replay_cache.c.obj)
                0x00033100                replay_cache_clear
 .text.replay_cache_init
                0x00033128        0x4 mesh/core/libmesh_core_nrf52840_xxAA.a(replay_cache.c.obj)
                0x00033128                replay_cache_init
 .text.fen_filters_apply
                0x0003312c       0x34 mesh/core/libmesh_core_nrf52840_xxAA.a(filter_engine.c.obj)
                0x0003312c                fen_filters_apply
 .text.wait_for_ready
                0x00033160       0x10 mesh/core/libmesh_core_nrf52840_xxAA.a(nrf_flash.c.obj)
 .text.nrf_flash_erase
                0x00033170       0x50 mesh/core/libmesh_core_nrf52840_xxAA.a(nrf_flash.c.obj)
                0x00033170                nrf_flash_erase
 .text.nrf_flash_write
                0x000331c0       0x50 mesh/core/libmesh_core_nrf52840_xxAA.a(nrf_flash.c.obj)
                0x000331c0                nrf_flash_write
 .text._GetAvailWriteSpace
                0x00033210       0x1c external/rtt/librtt_nrf52840_xxAA.a(SEGGER_RTT.c.obj)
 .text._WriteNoCheck
                0x0003322c       0x3c external/rtt/librtt_nrf52840_xxAA.a(SEGGER_RTT.c.obj)
 .text._WriteBlocking
                0x00033268       0x52 external/rtt/librtt_nrf52840_xxAA.a(SEGGER_RTT.c.obj)
 *fill*         0x000332ba        0x2 
 .text._DoInit  0x000332bc       0x60 external/rtt/librtt_nrf52840_xxAA.a(SEGGER_RTT.c.obj)
 .text.SEGGER_RTT_WriteNoLock
                0x0003331c       0x68 external/rtt/librtt_nrf52840_xxAA.a(SEGGER_RTT.c.obj)
                0x0003331c                SEGGER_RTT_WriteNoLock
 .text.SEGGER_RTT_Write
                0x00033384       0x34 external/rtt/librtt_nrf52840_xxAA.a(SEGGER_RTT.c.obj)
                0x00033384                SEGGER_RTT_Write
 .text._StoreChar
                0x000333b8       0x3e external/rtt/librtt_nrf52840_xxAA.a(SEGGER_RTT_printf.c.obj)
 *fill*         0x000333f6        0x2 
 .text._PrintUnsigned
                0x000333f8       0xd0 external/rtt/librtt_nrf52840_xxAA.a(SEGGER_RTT_printf.c.obj)
 .text.SEGGER_RTT_vprintf
                0x000334c8      0x246 external/rtt/librtt_nrf52840_xxAA.a(SEGGER_RTT_printf.c.obj)
                0x000334c8                SEGGER_RTT_vprintf
 .text.SEGGER_RTT_printf
                0x0003370e       0x1e external/rtt/librtt_nrf52840_xxAA.a(SEGGER_RTT_printf.c.obj)
                0x0003370e                SEGGER_RTT_printf
 .text.uECC_vli_mult
                0x0003372c       0x64 external/micro-ecc/libuECC_nrf52840_xxAA.a(uECC.c.obj)
 .text.uECC_vli_clear
                0x00033790       0x16 external/micro-ecc/libuECC_nrf52840_xxAA.a(uECC.c.obj)
 .text.uECC_vli_isZero
                0x000337a6       0x1e external/micro-ecc/libuECC_nrf52840_xxAA.a(uECC.c.obj)
 .text.uECC_vli_testBit
                0x000337c4       0x14 external/micro-ecc/libuECC_nrf52840_xxAA.a(uECC.c.obj)
 .text.uECC_vli_numBits
                0x000337d8       0x3a external/micro-ecc/libuECC_nrf52840_xxAA.a(uECC.c.obj)
 .text.uECC_vli_set
                0x00033812       0x18 external/micro-ecc/libuECC_nrf52840_xxAA.a(uECC.c.obj)
 .text.uECC_vli_cmp_unsafe
                0x0003382a       0x28 external/micro-ecc/libuECC_nrf52840_xxAA.a(uECC.c.obj)
 .text.uECC_vli_rshift1
                0x00033852       0x1c external/micro-ecc/libuECC_nrf52840_xxAA.a(uECC.c.obj)
 .text.uECC_vli_modMult_fast
                0x0003386e       0x20 external/micro-ecc/libuECC_nrf52840_xxAA.a(uECC.c.obj)
 .text.uECC_vli_modSquare_fast
                0x0003388e        0x8 external/micro-ecc/libuECC_nrf52840_xxAA.a(uECC.c.obj)
 .text.apply_z  0x00033896       0x3e external/micro-ecc/libuECC_nrf52840_xxAA.a(uECC.c.obj)
 .text.uECC_vli_nativeToBytes
                0x000338d4       0x28 external/micro-ecc/libuECC_nrf52840_xxAA.a(uECC.c.obj)
 .text.uECC_vli_bytesToNative
                0x000338fc       0x40 external/micro-ecc/libuECC_nrf52840_xxAA.a(uECC.c.obj)
 .text.default_RNG
                0x0003393c        0xc external/micro-ecc/libuECC_nrf52840_xxAA.a(uECC.c.obj)
 .text.uECC_vli_add.isra.0
                0x00033948       0x4a external/micro-ecc/libuECC_nrf52840_xxAA.a(uECC.c.obj)
 .text.regularize_k
                0x00033992       0x50 external/micro-ecc/libuECC_nrf52840_xxAA.a(uECC.c.obj)
 .text.uECC_vli_sub.isra.1
                0x000339e2       0x4e external/micro-ecc/libuECC_nrf52840_xxAA.a(uECC.c.obj)
 .text.uECC_vli_cmp
                0x00033a30       0x30 external/micro-ecc/libuECC_nrf52840_xxAA.a(uECC.c.obj)
 .text.uECC_generate_random_int
                0x00033a60       0x78 external/micro-ecc/libuECC_nrf52840_xxAA.a(uECC.c.obj)
 .text.uECC_vli_modAdd
                0x00033ad8       0x2e external/micro-ecc/libuECC_nrf52840_xxAA.a(uECC.c.obj)
 *fill*         0x00033b06        0x2 
 .text.vli_mmod_fast_secp256r1
                0x00033b08      0x194 external/micro-ecc/libuECC_nrf52840_xxAA.a(uECC.c.obj)
 .text.uECC_vli_modSub.isra.2
                0x00033c9c       0x1c external/micro-ecc/libuECC_nrf52840_xxAA.a(uECC.c.obj)
 .text.double_jacobian_default
                0x00033cb8      0x14a external/micro-ecc/libuECC_nrf52840_xxAA.a(uECC.c.obj)
 .text.x_side_default
                0x00033e02       0x5a external/micro-ecc/libuECC_nrf52840_xxAA.a(uECC.c.obj)
 .text.XYcZ_add
                0x00033e5c       0xbc external/micro-ecc/libuECC_nrf52840_xxAA.a(uECC.c.obj)
 .text.XYcZ_addC
                0x00033f18      0x10a external/micro-ecc/libuECC_nrf52840_xxAA.a(uECC.c.obj)
 .text.vli_modInv_update
                0x00034022       0x36 external/micro-ecc/libuECC_nrf52840_xxAA.a(uECC.c.obj)
 .text.uECC_vli_modInv
                0x00034058      0x102 external/micro-ecc/libuECC_nrf52840_xxAA.a(uECC.c.obj)
 .text.EccPoint_mult
                0x0003415a      0x19e external/micro-ecc/libuECC_nrf52840_xxAA.a(uECC.c.obj)
 .text.EccPoint_compute_public_key
                0x000342f8       0x54 external/micro-ecc/libuECC_nrf52840_xxAA.a(uECC.c.obj)
 .text.uECC_secp256r1
                0x0003434c        0x8 external/micro-ecc/libuECC_nrf52840_xxAA.a(uECC.c.obj)
                0x0003434c                uECC_secp256r1
 .text.uECC_make_key
                0x00034354       0x7e external/micro-ecc/libuECC_nrf52840_xxAA.a(uECC.c.obj)
                0x00034354                uECC_make_key
 *fill*         0x000343d2        0x2 
 .text.uECC_shared_secret
                0x000343d4       0xbc external/micro-ecc/libuECC_nrf52840_xxAA.a(uECC.c.obj)
                0x000343d4                uECC_shared_secret
 .text.uECC_valid_point
                0x00034490       0x86 external/micro-ecc/libuECC_nrf52840_xxAA.a(uECC.c.obj)
                0x00034490                uECC_valid_point
 .text.uECC_valid_public_key
                0x00034516       0x32 external/micro-ecc/libuECC_nrf52840_xxAA.a(uECC.c.obj)
                0x00034516                uECC_valid_public_key
 .text.exit     0x00034548       0x28 c:/a/gcc_arm/6/bin/../lib/gcc/arm-none-eabi/6.3.1/../../../../arm-none-eabi/lib/thumb/v7e-m/fpv4-sp/hard\libc_nano.a(lib_a-exit.o)
                0x00034548                exit
 .text.__libc_init_array
                0x00034570       0x48 c:/a/gcc_arm/6/bin/../lib/gcc/arm-none-eabi/6.3.1/../../../../arm-none-eabi/lib/thumb/v7e-m/fpv4-sp/hard\libc_nano.a(lib_a-init.o)
                0x00034570                __libc_init_array
 .text.malloc   0x000345b8       0x10 c:/a/gcc_arm/6/bin/../lib/gcc/arm-none-eabi/6.3.1/../../../../arm-none-eabi/lib/thumb/v7e-m/fpv4-sp/hard\libc_nano.a(lib_a-malloc.o)
                0x000345b8                malloc
 .text.free     0x000345c8       0x10 c:/a/gcc_arm/6/bin/../lib/gcc/arm-none-eabi/6.3.1/../../../../arm-none-eabi/lib/thumb/v7e-m/fpv4-sp/hard\libc_nano.a(lib_a-malloc.o)
                0x000345c8                free
 .text.memcmp   0x000345d8       0x1e c:/a/gcc_arm/6/bin/../lib/gcc/arm-none-eabi/6.3.1/../../../../arm-none-eabi/lib/thumb/v7e-m/fpv4-sp/hard\libc_nano.a(lib_a-memcmp.o)
                0x000345d8                memcmp
 .text.memcpy   0x000345f6       0x16 c:/a/gcc_arm/6/bin/../lib/gcc/arm-none-eabi/6.3.1/../../../../arm-none-eabi/lib/thumb/v7e-m/fpv4-sp/hard\libc_nano.a(lib_a-memcpy-stub.o)
                0x000345f6                memcpy
 .text.memset   0x0003460c       0x10 c:/a/gcc_arm/6/bin/../lib/gcc/arm-none-eabi/6.3.1/../../../../arm-none-eabi/lib/thumb/v7e-m/fpv4-sp/hard\libc_nano.a(lib_a-memset.o)
                0x0003460c                memset
 .text._free_r  0x0003461c       0x9c c:/a/gcc_arm/6/bin/../lib/gcc/arm-none-eabi/6.3.1/../../../../arm-none-eabi/lib/thumb/v7e-m/fpv4-sp/hard\libc_nano.a(lib_a-nano-freer.o)
                0x0003461c                _free_r
 .text._malloc_r
                0x000346b8       0xbc c:/a/gcc_arm/6/bin/../lib/gcc/arm-none-eabi/6.3.1/../../../../arm-none-eabi/lib/thumb/v7e-m/fpv4-sp/hard\libc_nano.a(lib_a-nano-mallocr.o)
                0x000346b8                _malloc_r
 .text._sbrk_r  0x00034774       0x20 c:/a/gcc_arm/6/bin/../lib/gcc/arm-none-eabi/6.3.1/../../../../arm-none-eabi/lib/thumb/v7e-m/fpv4-sp/hard\libc_nano.a(lib_a-sbrkr.o)
                0x00034774                _sbrk_r
 .text.strcpy   0x00034794       0x10 c:/a/gcc_arm/6/bin/../lib/gcc/arm-none-eabi/6.3.1/../../../../arm-none-eabi/lib/thumb/v7e-m/fpv4-sp/hard\libc_nano.a(lib_a-strcpy.o)
                0x00034794                strcpy
 .text          0x000347a4       0x10 c:/a/gcc_arm/6/bin/../lib/gcc/arm-none-eabi/6.3.1/../../../../arm-none-eabi/lib/thumb/v7e-m/fpv4-sp/hard\libc_nano.a(lib_a-strlen.o)
                0x000347a4                strlen
 .text.strrchr  0x000347b4       0x26 c:/a/gcc_arm/6/bin/../lib/gcc/arm-none-eabi/6.3.1/../../../../arm-none-eabi/lib/thumb/v7e-m/fpv4-sp/hard\libc_nano.a(lib_a-strrchr.o)
                0x000347b4                strrchr
 .text.__malloc_lock
                0x000347da        0x2 c:/a/gcc_arm/6/bin/../lib/gcc/arm-none-eabi/6.3.1/../../../../arm-none-eabi/lib/thumb/v7e-m/fpv4-sp/hard\libc_nano.a(lib_a-mlock.o)
                0x000347da                __malloc_lock
 .text.__malloc_unlock
                0x000347dc        0x2 c:/a/gcc_arm/6/bin/../lib/gcc/arm-none-eabi/6.3.1/../../../../arm-none-eabi/lib/thumb/v7e-m/fpv4-sp/hard\libc_nano.a(lib_a-mlock.o)
                0x000347dc                __malloc_unlock
 .text.strchr   0x000347de       0x1c c:/a/gcc_arm/6/bin/../lib/gcc/arm-none-eabi/6.3.1/../../../../arm-none-eabi/lib/thumb/v7e-m/fpv4-sp/hard\libc_nano.a(lib_a-strchr.o)
                0x000347de                strchr
 *fill*         0x000347fa        0x2 
 .text._sbrk    0x000347fc       0x1c c:/a/gcc_arm/6/bin/../lib/gcc/arm-none-eabi/6.3.1/../../../../arm-none-eabi/lib/thumb/v7e-m/fpv4-sp/hard\libnosys.a(sbrk.o)
                0x000347fc                _sbrk
 .text._exit    0x00034818        0x4 c:/a/gcc_arm/6/bin/../lib/gcc/arm-none-eabi/6.3.1/../../../../arm-none-eabi/lib/thumb/v7e-m/fpv4-sp/hard\libnosys.a(_exit.o)
                0x00034818                _exit
 *(.init)
 .init          0x0003481c        0x4 c:/a/gcc_arm/6/bin/../lib/gcc/arm-none-eabi/6.3.1/thumb/v7e-m/fpv4-sp/hard/crti.o
                0x0003481c                _init
 .init          0x00034820        0x8 c:/a/gcc_arm/6/bin/../lib/gcc/arm-none-eabi/6.3.1/thumb/v7e-m/fpv4-sp/hard/crtn.o
 *(.fini)
 .fini          0x00034828        0x4 c:/a/gcc_arm/6/bin/../lib/gcc/arm-none-eabi/6.3.1/thumb/v7e-m/fpv4-sp/hard/crti.o
                0x00034828                _fini
 .fini          0x0003482c        0x8 c:/a/gcc_arm/6/bin/../lib/gcc/arm-none-eabi/6.3.1/thumb/v7e-m/fpv4-sp/hard/crtn.o
 *crtbegin.o(.ctors)
 *crtbegin?.o(.ctors)
 *(EXCLUDE_FILE(*crtend.o *crtend?.o) .ctors)
 *(SORT(.ctors.*))
 *(.ctors)
 *crtbegin.o(.dtors)
 *crtbegin?.o(.dtors)
 *(EXCLUDE_FILE(*crtend.o *crtend?.o) .dtors)
 *(SORT(.dtors.*))
 *(.dtors)
 *(.rodata*)
 .rodata.configuration_complete.str1.1
                0x00034834       0x1a examples/light_switch/server/CMakeFiles/light_switch_server_nrf52840_xxAA_s140_5.0.0-3.alpha.dir/src/main.c.obj
 .rodata.configuration_setup.str1.1
                0x0003484e       0x4b examples/light_switch/server/CMakeFiles/light_switch_server_nrf52840_xxAA_s140_5.0.0-3.alpha.dir/src/main.c.obj
 .rodata.main.str1.1
                0x00034899       0x2f examples/light_switch/server/CMakeFiles/light_switch_server_nrf52840_xxAA_s140_5.0.0-3.alpha.dir/src/main.c.obj
 .rodata.set_cb.str1.1
                0x000348c8       0x17 examples/light_switch/server/CMakeFiles/light_switch_server_nrf52840_xxAA_s140_5.0.0-3.alpha.dir/src/main.c.obj
 .rodata.static_auth_data.10839
                0x000348df       0x10 examples/light_switch/server/CMakeFiles/light_switch_server_nrf52840_xxAA_s140_5.0.0-3.alpha.dir/src/main.c.obj
 .rodata.HardFault_Handler.str1.1
                0x000348ef        0xe examples/light_switch/server/CMakeFiles/light_switch_server_nrf52840_xxAA_s140_5.0.0-3.alpha.dir/__/__/nrf_mesh_sdk.c.obj
 .rodata.app_error_handler.str1.1
                0x000348fd       0x1d examples/light_switch/server/CMakeFiles/light_switch_server_nrf52840_xxAA_s140_5.0.0-3.alpha.dir/__/__/nrf_mesh_sdk.c.obj
 .rodata.mesh_assert_handler.str1.1
                0x0003491a       0x34 examples/light_switch/server/CMakeFiles/light_switch_server_nrf52840_xxAA_s140_5.0.0-3.alpha.dir/__/__/nrf_mesh_sdk.c.obj
 .rodata.m_buttons_list
                0x0003494e        0x4 examples/light_switch/server/CMakeFiles/light_switch_server_nrf52840_xxAA_s140_5.0.0-3.alpha.dir/__/__/hal/src/simple_hal.c.obj
 *fill*         0x00034952        0x2 
 .rodata.m_opcode_handlers
                0x00034954       0x18 examples/light_switch/server/CMakeFiles/light_switch_server_nrf52840_xxAA_s140_5.0.0-3.alpha.dir/__/__/__/models/simple_on_off/src/simple_on_off_server.c.obj
 .rodata.CSWTCH.150
                0x0003496c        0xc examples/light_switch/server/CMakeFiles/light_switch_server_nrf52840_xxAA_s140_5.0.0-3.alpha.dir/__/__/__/models/config/src/config_server.c.obj
 .rodata.CSWTCH.153
                0x00034978        0x7 examples/light_switch/server/CMakeFiles/light_switch_server_nrf52840_xxAA_s140_5.0.0-3.alpha.dir/__/__/__/models/config/src/config_server.c.obj
 *fill*         0x0003497f        0x1 
 .rodata.opcode_handlers
                0x00034980      0x150 examples/light_switch/server/CMakeFiles/light_switch_server_nrf52840_xxAA_s140_5.0.0-3.alpha.dir/__/__/__/models/config/src/config_server.c.obj
 .rodata.m_opcode_handlers
                0x00034ad0       0x58 examples/light_switch/server/CMakeFiles/light_switch_server_nrf52840_xxAA_s140_5.0.0-3.alpha.dir/__/__/__/models/health/src/health_server.c.obj
 .rodata.multiply_de_bruijn_bit_position.9368
                0x00034b28       0x20 examples/light_switch/server/CMakeFiles/light_switch_server_nrf52840_xxAA_s140_5.0.0-3.alpha.dir/__/__/__/models/health/src/health_server.c.obj
 .rodata.mesh_evt_cb.str1.1
                0x00034b48       0x2f examples/light_switch/server/CMakeFiles/light_switch_server_nrf52840_xxAA_s140_5.0.0-3.alpha.dir/__/__/__/mesh/access/src/access.c.obj
 .rodata.multiply_de_bruijn_bit_position.9295
                0x00034b77       0x20 examples/light_switch/server/CMakeFiles/light_switch_server_nrf52840_xxAA_s140_5.0.0-3.alpha.dir/__/__/__/mesh/access/src/access.c.obj
 .rodata.packet_tx.str1.1
                0x00034b97       0x13 examples/light_switch/server/CMakeFiles/light_switch_server_nrf52840_xxAA_s140_5.0.0-3.alpha.dir/__/__/__/mesh/access/src/access.c.obj
 *fill*         0x00034baa        0x2 
 .rodata.m_flash_groups
                0x00034bac       0xc0 examples/light_switch/server/CMakeFiles/light_switch_server_nrf52840_xxAA_s140_5.0.0-3.alpha.dir/__/__/__/mesh/access/src/device_state_manager.c.obj
 .rodata.m_prov_callbacks
                0x00034c6c       0x10 examples/light_switch/server/CMakeFiles/light_switch_server_nrf52840_xxAA_s140_5.0.0-3.alpha.dir/__/__/__/mesh/prov/src/prov_provisionee.c.obj
 .rodata.prov_provisionee_cb_ack_received.str1.1
                0x00034c7c       0x53 examples/light_switch/server/CMakeFiles/light_switch_server_nrf52840_xxAA_s140_5.0.0-3.alpha.dir/__/__/__/mesh/prov/src/prov_provisionee.c.obj
 .rodata.pdu_sizes.10990
                0x00034ccf        0xa examples/light_switch/server/CMakeFiles/light_switch_server_nrf52840_xxAA_s140_5.0.0-3.alpha.dir/__/__/__/mesh/prov/src/provisioning.c.obj
 .rodata.prov_cb_pkt_in.str1.1
                0x00034cd9       0x34 examples/light_switch/server/CMakeFiles/light_switch_server_nrf52840_xxAA_s140_5.0.0-3.alpha.dir/__/__/__/mesh/prov/src/provisioning.c.obj
 .rodata.alphanumeric.11094
                0x00034d0d       0x25 examples/light_switch/server/CMakeFiles/light_switch_server_nrf52840_xxAA_s140_5.0.0-3.alpha.dir/__/__/__/mesh/prov/src/prov_utils.c.obj
 *fill*         0x00034d32        0x2 
 .rodata.numeric_max.11088
                0x00034d34       0x24 examples/light_switch/server/CMakeFiles/light_switch_server_nrf52840_xxAA_s140_5.0.0-3.alpha.dir/__/__/__/mesh/prov/src/prov_utils.c.obj
 .rodata.prov_utils_authentication_values_derive.str1.1
                0x00034d58        0x5 examples/light_switch/server/CMakeFiles/light_switch_server_nrf52840_xxAA_s140_5.0.0-3.alpha.dir/__/__/__/mesh/prov/src/prov_utils.c.obj
 .rodata.prov_utils_derive_keys.str1.1
                0x00034d5d        0xf examples/light_switch/server/CMakeFiles/light_switch_server_nrf52840_xxAA_s140_5.0.0-3.alpha.dir/__/__/__/mesh/prov/src/prov_utils.c.obj
 .rodata.add_active_bearer.str1.1
                0x00034d6c       0x2c examples/light_switch/server/CMakeFiles/light_switch_server_nrf52840_xxAA_s140_5.0.0-3.alpha.dir/__/__/__/mesh/prov/src/prov_bearer_adv.c.obj
 .rodata.crctable.10852
                0x00034d98      0x100 examples/light_switch/server/CMakeFiles/light_switch_server_nrf52840_xxAA_s140_5.0.0-3.alpha.dir/__/__/__/mesh/prov/src/prov_bearer_adv.c.obj
 .rodata.interface.11081
                0x00034e98       0x14 examples/light_switch/server/CMakeFiles/light_switch_server_nrf52840_xxAA_s140_5.0.0-3.alpha.dir/__/__/__/mesh/prov/src/prov_bearer_adv.c.obj
 .rodata.prov_bearer_adv_packet_in.str1.1
                0x00034eac      0x26e examples/light_switch/server/CMakeFiles/light_switch_server_nrf52840_xxAA_s140_5.0.0-3.alpha.dir/__/__/__/mesh/prov/src/prov_bearer_adv.c.obj
 .rodata.tx_retry_cb.str1.1
                0x0003511a       0x37 examples/light_switch/server/CMakeFiles/light_switch_server_nrf52840_xxAA_s140_5.0.0-3.alpha.dir/__/__/__/mesh/prov/src/prov_bearer_adv.c.obj
 .rodata.default_mesh_assertion_handler.str1.1
                0x00035151       0x19 examples/light_switch/server/CMakeFiles/light_switch_server_nrf52840_xxAA_s140_5.0.0-3.alpha.dir/__/__/__/mesh/access/src/nrf_mesh_node_config.c.obj
 .rodata.default_softdevice_assertion_handler.str1.1
                0x00035151       0x47 examples/light_switch/server/CMakeFiles/light_switch_server_nrf52840_xxAA_s140_5.0.0-3.alpha.dir/__/__/__/mesh/access/src/nrf_mesh_node_config.c.obj
 .rodata.types_lookup.9118
                0x00035198        0x4 mesh/core/libmesh_core_nrf52840_xxAA.a(nrf_mesh_utils.c.obj)
 .rodata.nrf_mesh_process.str1.1
                0x0003519c       0x70 mesh/core/libmesh_core_nrf52840_xxAA.a(nrf_mesh.c.obj)
 .rodata.CSWTCH.8
                0x0003520c       0x10 mesh/core/libmesh_core_nrf52840_xxAA.a(hal.c.obj)
 .rodata        0x0003521c       0x15 mesh/core/libmesh_core_nrf52840_xxAA.a(enc.c.obj)
 .rodata.network_packet_in.str1.1
                0x00035231       0x48 mesh/core/libmesh_core_nrf52840_xxAA.a(network.c.obj)
 .rodata.network_packet_send.str1.1
                0x00035279       0x49 mesh/core/libmesh_core_nrf52840_xxAA.a(network.c.obj)
 .rodata        0x000352c2        0x7 mesh/core/libmesh_core_nrf52840_xxAA.a(nrf_mesh_keygen.c.obj)
 .rodata.log_callback_rtt.str1.1
                0x000352c9       0x15 mesh/core/libmesh_core_nrf52840_xxAA.a(log.c.obj)
 .rodata.str1.1
                0x000352de       0x11 mesh/core/libmesh_core_nrf52840_xxAA.a(log.c.obj)
 *fill*         0x000352ef        0x1 
 .rodata.INVALID_HEADER
                0x000352f0        0x4 mesh/core/libmesh_core_nrf52840_xxAA.a(flash_manager.c.obj)
                0x000352f0                INVALID_HEADER
 .rodata.PADDING_HEADER
                0x000352f4        0x4 mesh/core/libmesh_core_nrf52840_xxAA.a(flash_manager.c.obj)
                0x000352f4                PADDING_HEADER
 .rodata.SEAL_HEADER
                0x000352f8        0x4 mesh/core/libmesh_core_nrf52840_xxAA.a(flash_manager.c.obj)
                0x000352f8                SEAL_HEADER
 .rodata.process_action_queue.str1.1
                0x000352fc       0x21 mesh/core/libmesh_core_nrf52840_xxAA.a(flash_manager.c.obj)
                                 0x4f (size before relaxing)
 .rodata.beacon_packet_in.str1.1
                0x0003531d       0x51 mesh/core/libmesh_core_nrf52840_xxAA.a(beacon.c.obj)
                                 0x59 (size before relaxing)
 .rodata.net_beacon_init.str1.1
                0x0003536e        0x5 mesh/core/libmesh_core_nrf52840_xxAA.a(net_beacon.c.obj)
 .rodata.radio_mode_to_us_per_byte.9494
                0x00035373        0x6 mesh/core/libmesh_core_nrf52840_xxAA.a(broadcast.c.obj)
 .rodata.channel_rf_offsets.8756
                0x00035379       0x28 mesh/core/libmesh_core_nrf52840_xxAA.a(radio_config.c.obj)
 .rodata        0x000353a1        0x3 mesh/core/libmesh_core_nrf52840_xxAA.a(scanner.c.obj)
 .rodata.sar_ctx_cancel.str1.1
                0x000353a4       0x35 mesh/core/libmesh_core_nrf52840_xxAA.a(transport.c.obj)
                                 0x63 (size before relaxing)
 .rodata.test_transport_decrypt.str1.1
                0x000353d9       0x13 mesh/core/libmesh_core_nrf52840_xxAA.a(transport.c.obj)
 .rodata.transport_packet_in.str1.1
                0x000353ec       0x24 mesh/core/libmesh_core_nrf52840_xxAA.a(transport.c.obj)
 .rodata.transport_tx.str1.1
                0x00035410       0x2c mesh/core/libmesh_core_nrf52840_xxAA.a(transport.c.obj)
                                 0x34 (size before relaxing)
 .rodata.upper_transport_access_packet_in.str1.1
                0x0003543c       0x29 mesh/core/libmesh_core_nrf52840_xxAA.a(transport.c.obj)
 .rodata.upper_transport_packet_in.str1.1
                0x00035465       0x2e mesh/core/libmesh_core_nrf52840_xxAA.a(transport.c.obj)
 .rodata.flash_manager_defrag.str1.1
                0x00035493       0x28 mesh/core/libmesh_core_nrf52840_xxAA.a(flash_manager_defrag.c.obj)
                                 0x56 (size before relaxing)
 *fill*         0x000354bb        0x1 
 .rodata.m_procedure_steps
                0x000354bc       0x28 mesh/core/libmesh_core_nrf52840_xxAA.a(flash_manager_defrag.c.obj)
 .rodata.m_all_operations
                0x000354e4       0x10 mesh/core/libmesh_core_nrf52840_xxAA.a(mesh_flash.c.obj)
 .rodata.Rb.7566
                0x000354f4       0x10 mesh/core/libmesh_core_nrf52840_xxAA.a(aes_cmac.c.obj)
 .rodata._DoInit.str1.1
                0x00035504       0x14 external/rtt/librtt_nrf52840_xxAA.a(SEGGER_RTT.c.obj)
 .rodata._aV2C.5497
                0x00035518       0x10 external/rtt/librtt_nrf52840_xxAA.a(SEGGER_RTT_printf.c.obj)
 .rodata.curve_secp256r1
                0x00035528       0xb0 external/micro-ecc/libuECC_nrf52840_xxAA.a(uECC.c.obj)
 .rodata._global_impure_ptr
                0x000355d8        0x4 c:/a/gcc_arm/6/bin/../lib/gcc/arm-none-eabi/6.3.1/../../../../arm-none-eabi/lib/thumb/v7e-m/fpv4-sp/hard\libc_nano.a(lib_a-impure.o)
                0x000355d8                _global_impure_ptr
 *(.eh_frame*)
 .eh_frame      0x000355dc        0x0 c:/a/gcc_arm/6/bin/../lib/gcc/arm-none-eabi/6.3.1/thumb/v7e-m/fpv4-sp/hard/crtbegin.o
 .eh_frame      0x000355dc        0x4 c:/a/gcc_arm/6/bin/../lib/gcc/arm-none-eabi/6.3.1/thumb/v7e-m/fpv4-sp/hard/crtend.o

.glue_7         0x000355e0        0x0
 .glue_7        0x000355e0        0x0 linker stubs

.glue_7t        0x000355e0        0x0
 .glue_7t       0x000355e0        0x0 linker stubs

.vfp11_veneer   0x000355e0        0x0
 .vfp11_veneer  0x000355e0        0x0 linker stubs

.v4_bx          0x000355e0        0x0
 .v4_bx         0x000355e0        0x0 linker stubs

.iplt           0x000355e0        0x0
 .iplt          0x000355e0        0x0 c:/a/gcc_arm/6/bin/../lib/gcc/arm-none-eabi/6.3.1/thumb/v7e-m/fpv4-sp/hard/crtbegin.o

.ARM.extab
 *(.ARM.extab* .gnu.linkonce.armextab.*)
                0x000355e0                __exidx_start = .

.ARM.exidx      0x000355e0        0x8
 *(.ARM.exidx* .gnu.linkonce.armexidx.*)
 .ARM.exidx     0x000355e0        0x8 c:/a/gcc_arm/6/bin/../lib/gcc/arm-none-eabi/6.3.1/../../../../arm-none-eabi/lib/thumb/v7e-m/fpv4-sp/hard/crt0.o
                0x000355e8                __exidx_end = .
                0x000355e8                __etext = .

.rel.dyn        0x000355e8        0x0
 .rel.iplt      0x000355e8        0x0 c:/a/gcc_arm/6/bin/../lib/gcc/arm-none-eabi/6.3.1/thumb/v7e-m/fpv4-sp/hard/crtbegin.o

.data           0x200031b8      0x118 load address 0x000355e8
                0x200031b8                __data_start__ = .
 *(vtable)
 *(.data*)
 .data.m_config_server_handle
                0x200031b8        0x2 examples/light_switch/server/CMakeFiles/light_switch_server_nrf52840_xxAA_s140_5.0.0-3.alpha.dir/__/__/__/models/config/src/config_server.c.obj
 *fill*         0x200031ba        0x2 
 .data.flash_add_mem_available_struct.10546
                0x200031bc       0x10 examples/light_switch/server/CMakeFiles/light_switch_server_nrf52840_xxAA_s140_5.0.0-3.alpha.dir/__/__/__/mesh/access/src/access.c.obj
 .data.flash_clear_mem_available_struct.10635
                0x200031cc       0x10 examples/light_switch/server/CMakeFiles/light_switch_server_nrf52840_xxAA_s140_5.0.0-3.alpha.dir/__/__/__/mesh/access/src/access.c.obj
 .data.flash_store_mem_available_struct.10659
                0x200031dc       0x10 examples/light_switch/server/CMakeFiles/light_switch_server_nrf52840_xxAA_s140_5.0.0-3.alpha.dir/__/__/__/mesh/access/src/access.c.obj
 .data.m_default_ttl
                0x200031ec        0x1 examples/light_switch/server/CMakeFiles/light_switch_server_nrf52840_xxAA_s140_5.0.0-3.alpha.dir/__/__/__/mesh/access/src/access.c.obj
 *fill*         0x200031ed        0x3 
 .data.mem_listener.10798
                0x200031f0       0x10 examples/light_switch/server/CMakeFiles/light_switch_server_nrf52840_xxAA_s140_5.0.0-3.alpha.dir/__/__/__/mesh/access/src/device_state_manager.c.obj
 .data.mem_listener.10824
                0x20003200       0x10 examples/light_switch/server/CMakeFiles/light_switch_server_nrf52840_xxAA_s140_5.0.0-3.alpha.dir/__/__/__/mesh/access/src/device_state_manager.c.obj
 .data.m_unprov_report
                0x20003210        0x1 examples/light_switch/server/CMakeFiles/light_switch_server_nrf52840_xxAA_s140_5.0.0-3.alpha.dir/__/__/__/mesh/prov/src/prov_beacon.c.obj
 *fill*         0x20003211        0x3 
 .data.m_async_process_flag
                0x20003214        0x4 examples/light_switch/server/CMakeFiles/light_switch_server_nrf52840_xxAA_s140_5.0.0-3.alpha.dir/__/__/__/mesh/prov/src/prov_bearer_adv.c.obj
 .data.SystemCoreClock
                0x20003218        0x4 examples/light_switch/server/CMakeFiles/light_switch_server_nrf52840_xxAA_s140_5.0.0-3.alpha.dir/__/__/__/external/nRF5_SDK_14.0.0_3bcc1f7/components/toolchain/system_nrf52840.c.obj
                0x20003218                SystemCoreClock
 .data.mem_listener.10018
                0x2000321c       0x10 mesh/core/libmesh_core_nrf52840_xxAA.a(net_state.c.obj)
 .data.mem_listener.10023
                0x2000322c       0x10 mesh/core/libmesh_core_nrf52840_xxAA.a(net_state.c.obj)
 .data.mem_listener.10037
                0x2000323c       0x10 mesh/core/libmesh_core_nrf52840_xxAA.a(net_state.c.obj)
 .data.g_log_debug_level
                0x2000324c        0x4 mesh/core/libmesh_core_nrf52840_xxAA.a(log.c.obj)
                0x2000324c                g_log_debug_level
 .data.g_log_debug_msk
                0x20003250        0x4 mesh/core/libmesh_core_nrf52840_xxAA.a(log.c.obj)
                0x20003250                g_log_debug_msk
 .data.g_log_hex_digits
                0x20003254        0x4 mesh/core/libmesh_core_nrf52840_xxAA.a(log.c.obj)
                0x20003254                g_log_hex_digits
 .data.m_log_callback
                0x20003258        0x4 mesh/core/libmesh_core_nrf52840_xxAA.a(log.c.obj)
                0x20003258                m_log_callback
 .data.g_rng_function
                0x2000325c        0x4 external/micro-ecc/libuECC_nrf52840_xxAA.a(uECC.c.obj)
 .data._impure_ptr
                0x20003260        0x4 c:/a/gcc_arm/6/bin/../lib/gcc/arm-none-eabi/6.3.1/../../../../arm-none-eabi/lib/thumb/v7e-m/fpv4-sp/hard\libc_nano.a(lib_a-impure.o)
                0x20003260                _impure_ptr
 .data.impure_data
                0x20003264       0x60 c:/a/gcc_arm/6/bin/../lib/gcc/arm-none-eabi/6.3.1/../../../../arm-none-eabi/lib/thumb/v7e-m/fpv4-sp/hard\libc_nano.a(lib_a-impure.o)
                0x200032c4                . = ALIGN (0x4)
                0x200032c4                PROVIDE (__preinit_array_start, .)
 *(.preinit_array)
                0x200032c4                PROVIDE (__preinit_array_end, .)
                0x200032c4                . = ALIGN (0x4)
                0x200032c4                PROVIDE (__init_array_start, .)
 *(SORT(.init_array.*))
 *(.init_array)
 .init_array    0x200032c4        0x4 c:/a/gcc_arm/6/bin/../lib/gcc/arm-none-eabi/6.3.1/thumb/v7e-m/fpv4-sp/hard/crtbegin.o
                0x200032c8                PROVIDE (__init_array_end, .)
                0x200032c8                . = ALIGN (0x4)
                [!provide]                PROVIDE (__fini_array_start, .)
 *(SORT(.fini_array.*))
 *(.fini_array)
 .fini_array    0x200032c8        0x4 c:/a/gcc_arm/6/bin/../lib/gcc/arm-none-eabi/6.3.1/thumb/v7e-m/fpv4-sp/hard/crtbegin.o
                [!provide]                PROVIDE (__fini_array_end, .)
 *(.jcr*)
 .jcr           0x200032cc        0x0 c:/a/gcc_arm/6/bin/../lib/gcc/arm-none-eabi/6.3.1/thumb/v7e-m/fpv4-sp/hard/crtbegin.o
 .jcr           0x200032cc        0x4 c:/a/gcc_arm/6/bin/../lib/gcc/arm-none-eabi/6.3.1/thumb/v7e-m/fpv4-sp/hard/crtend.o
                0x200032d0                . = ALIGN (0x4)
                0x200032d0                __data_end__ = .

.igot.plt       0x200032d0        0x0 load address 0x00035700
 .igot.plt      0x200032d0        0x0 c:/a/gcc_arm/6/bin/../lib/gcc/arm-none-eabi/6.3.1/thumb/v7e-m/fpv4-sp/hard/crtbegin.o

.bss            0x200032d0     0x2e54 load address 0x00035700
                0x200032d0                . = ALIGN (0x4)
                0x200032d0                __bss_start__ = .
 *(.bss*)
 .bss           0x200032d0       0x1c c:/a/gcc_arm/6/bin/../lib/gcc/arm-none-eabi/6.3.1/thumb/v7e-m/fpv4-sp/hard/crtbegin.o
 .bss.config_params.10840
                0x200032ec       0x3c examples/light_switch/server/CMakeFiles/light_switch_server_nrf52840_xxAA_s140_5.0.0-3.alpha.dir/src/main.c.obj
 .bss.m_server  0x20003328        0xc examples/light_switch/server/CMakeFiles/light_switch_server_nrf52840_xxAA_s140_5.0.0-3.alpha.dir/src/main.c.obj
 .bss.m_ble_evt_buffer
                0x20003334       0x57 examples/light_switch/server/CMakeFiles/light_switch_server_nrf52840_xxAA_s140_5.0.0-3.alpha.dir/__/__/nrf_mesh_sdk.c.obj
 *fill*         0x2000338b        0x1 
 .bss.m_button_handler_cb
                0x2000338c        0x4 examples/light_switch/server/CMakeFiles/light_switch_server_nrf52840_xxAA_s140_5.0.0-3.alpha.dir/__/__/hal/src/simple_hal.c.obj
 .bss.m_last_button_press
                0x20003390        0x4 examples/light_switch/server/CMakeFiles/light_switch_server_nrf52840_xxAA_s140_5.0.0-3.alpha.dir/__/__/hal/src/simple_hal.c.obj
 .bss.m_attention_timer
                0x20003394       0x18 examples/light_switch/server/CMakeFiles/light_switch_server_nrf52840_xxAA_s140_5.0.0-3.alpha.dir/__/__/__/models/health/src/health_server.c.obj
 .bss.mp_attention_list
                0x200033ac        0x4 examples/light_switch/server/CMakeFiles/light_switch_server_nrf52840_xxAA_s140_5.0.0-3.alpha.dir/__/__/__/models/health/src/health_server.c.obj
 .bss.m_publish_timer
                0x200033b0       0x18 examples/light_switch/server/CMakeFiles/light_switch_server_nrf52840_xxAA_s140_5.0.0-3.alpha.dir/__/__/__/mesh/access/src/access_publish.c.obj
 .bss.m_publish_timer_counter
                0x200033c8        0x4 examples/light_switch/server/CMakeFiles/light_switch_server_nrf52840_xxAA_s140_5.0.0-3.alpha.dir/__/__/__/mesh/access/src/access_publish.c.obj
 .bss.m_publish_timer_running
                0x200033cc        0x1 examples/light_switch/server/CMakeFiles/light_switch_server_nrf52840_xxAA_s140_5.0.0-3.alpha.dir/__/__/__/mesh/access/src/access_publish.c.obj
 .bss.m_timer_resolution
                0x200033cd        0x1 examples/light_switch/server/CMakeFiles/light_switch_server_nrf52840_xxAA_s140_5.0.0-3.alpha.dir/__/__/__/mesh/access/src/access_publish.c.obj
 *fill*         0x200033ce        0x2 
 .bss.mp_publication_list
                0x200033d0        0x4 examples/light_switch/server/CMakeFiles/light_switch_server_nrf52840_xxAA_s140_5.0.0-3.alpha.dir/__/__/__/mesh/access/src/access_publish.c.obj
 .bss.m_element_pool
                0x200033d4        0x6 examples/light_switch/server/CMakeFiles/light_switch_server_nrf52840_xxAA_s140_5.0.0-3.alpha.dir/__/__/__/mesh/access/src/access.c.obj
 *fill*         0x200033da        0x2 
 .bss.m_evt_handler
                0x200033dc        0x8 examples/light_switch/server/CMakeFiles/light_switch_server_nrf52840_xxAA_s140_5.0.0-3.alpha.dir/__/__/__/mesh/access/src/access.c.obj
 .bss.m_flash_manager
                0x200033e4       0x24 examples/light_switch/server/CMakeFiles/light_switch_server_nrf52840_xxAA_s140_5.0.0-3.alpha.dir/__/__/__/mesh/access/src/access.c.obj
 .bss.m_flash_not_ready
                0x20003408        0x1 examples/light_switch/server/CMakeFiles/light_switch_server_nrf52840_xxAA_s140_5.0.0-3.alpha.dir/__/__/__/mesh/access/src/access.c.obj
 .bss.m_metadata_stored
                0x20003409        0x1 examples/light_switch/server/CMakeFiles/light_switch_server_nrf52840_xxAA_s140_5.0.0-3.alpha.dir/__/__/__/mesh/access/src/access.c.obj
 *fill*         0x2000340a        0x2 
 .bss.m_model_pool
                0x2000340c       0x9c examples/light_switch/server/CMakeFiles/light_switch_server_nrf52840_xxAA_s140_5.0.0-3.alpha.dir/__/__/__/mesh/access/src/access.c.obj
 .bss.m_subscription_list_pool
                0x200034a8        0x8 examples/light_switch/server/CMakeFiles/light_switch_server_nrf52840_xxAA_s140_5.0.0-3.alpha.dir/__/__/__/mesh/access/src/access.c.obj
 .bss.m_reliable
                0x200034b0       0x94 examples/light_switch/server/CMakeFiles/light_switch_server_nrf52840_xxAA_s140_5.0.0-3.alpha.dir/__/__/__/mesh/access/src/access_reliable.c.obj
 .bss.m_addr_nonvirtual_allocated
                0x20003544        0x4 examples/light_switch/server/CMakeFiles/light_switch_server_nrf52840_xxAA_s140_5.0.0-3.alpha.dir/__/__/__/mesh/access/src/device_state_manager.c.obj
 .bss.m_addr_nonvirtual_needs_flashing
                0x20003548        0x4 examples/light_switch/server/CMakeFiles/light_switch_server_nrf52840_xxAA_s140_5.0.0-3.alpha.dir/__/__/__/mesh/access/src/device_state_manager.c.obj
 .bss.m_addr_unicast_allocated
                0x2000354c        0x4 examples/light_switch/server/CMakeFiles/light_switch_server_nrf52840_xxAA_s140_5.0.0-3.alpha.dir/__/__/__/mesh/access/src/device_state_manager.c.obj
 .bss.m_addr_unicast_needs_flashing
                0x20003550        0x4 examples/light_switch/server/CMakeFiles/light_switch_server_nrf52840_xxAA_s140_5.0.0-3.alpha.dir/__/__/__/mesh/access/src/device_state_manager.c.obj
 .bss.m_addr_virtual_allocated
                0x20003554        0x4 examples/light_switch/server/CMakeFiles/light_switch_server_nrf52840_xxAA_s140_5.0.0-3.alpha.dir/__/__/__/mesh/access/src/device_state_manager.c.obj
 .bss.m_addr_virtual_needs_flashing
                0x20003558        0x4 examples/light_switch/server/CMakeFiles/light_switch_server_nrf52840_xxAA_s140_5.0.0-3.alpha.dir/__/__/__/mesh/access/src/device_state_manager.c.obj
 .bss.m_addresses
                0x2000355c        0xc examples/light_switch/server/CMakeFiles/light_switch_server_nrf52840_xxAA_s140_5.0.0-3.alpha.dir/__/__/__/mesh/access/src/device_state_manager.c.obj
 .bss.m_appkey_allocated
                0x20003568        0x4 examples/light_switch/server/CMakeFiles/light_switch_server_nrf52840_xxAA_s140_5.0.0-3.alpha.dir/__/__/__/mesh/access/src/device_state_manager.c.obj
 .bss.m_appkey_needs_flashing
                0x2000356c        0x4 examples/light_switch/server/CMakeFiles/light_switch_server_nrf52840_xxAA_s140_5.0.0-3.alpha.dir/__/__/__/mesh/access/src/device_state_manager.c.obj
 .bss.m_appkeys
                0x20003570       0x16 examples/light_switch/server/CMakeFiles/light_switch_server_nrf52840_xxAA_s140_5.0.0-3.alpha.dir/__/__/__/mesh/access/src/device_state_manager.c.obj
 *fill*         0x20003586        0x2 
 .bss.m_devkey_allocated
                0x20003588        0x4 examples/light_switch/server/CMakeFiles/light_switch_server_nrf52840_xxAA_s140_5.0.0-3.alpha.dir/__/__/__/mesh/access/src/device_state_manager.c.obj
 .bss.m_devkey_needs_flashing
                0x2000358c        0x4 examples/light_switch/server/CMakeFiles/light_switch_server_nrf52840_xxAA_s140_5.0.0-3.alpha.dir/__/__/__/mesh/access/src/device_state_manager.c.obj
 .bss.m_devkeys
                0x20003590       0x16 examples/light_switch/server/CMakeFiles/light_switch_server_nrf52840_xxAA_s140_5.0.0-3.alpha.dir/__/__/__/mesh/access/src/device_state_manager.c.obj
 .bss.m_flash_is_available
                0x200035a6        0x1 examples/light_switch/server/CMakeFiles/light_switch_server_nrf52840_xxAA_s140_5.0.0-3.alpha.dir/__/__/__/mesh/access/src/device_state_manager.c.obj
 *fill*         0x200035a7        0x1 
 .bss.m_flash_manager
                0x200035a8       0x24 examples/light_switch/server/CMakeFiles/light_switch_server_nrf52840_xxAA_s140_5.0.0-3.alpha.dir/__/__/__/mesh/access/src/device_state_manager.c.obj
 .bss.m_flash_mem_listener_update_all
                0x200035cc       0x10 examples/light_switch/server/CMakeFiles/light_switch_server_nrf52840_xxAA_s140_5.0.0-3.alpha.dir/__/__/__/mesh/access/src/device_state_manager.c.obj
 .bss.m_has_primary_subnet
                0x200035dc        0x1 examples/light_switch/server/CMakeFiles/light_switch_server_nrf52840_xxAA_s140_5.0.0-3.alpha.dir/__/__/__/mesh/access/src/device_state_manager.c.obj
 *fill*         0x200035dd        0x1 
 .bss.m_local_unicast_addr
                0x200035de        0x4 examples/light_switch/server/CMakeFiles/light_switch_server_nrf52840_xxAA_s140_5.0.0-3.alpha.dir/__/__/__/mesh/access/src/device_state_manager.c.obj
 *fill*         0x200035e2        0x2 
 .bss.m_subnet_allocated
                0x200035e4        0x4 examples/light_switch/server/CMakeFiles/light_switch_server_nrf52840_xxAA_s140_5.0.0-3.alpha.dir/__/__/__/mesh/access/src/device_state_manager.c.obj
 .bss.m_subnet_needs_flashing
                0x200035e8        0x4 examples/light_switch/server/CMakeFiles/light_switch_server_nrf52840_xxAA_s140_5.0.0-3.alpha.dir/__/__/__/mesh/access/src/device_state_manager.c.obj
 .bss.m_subnets
                0x200035ec       0x5c examples/light_switch/server/CMakeFiles/light_switch_server_nrf52840_xxAA_s140_5.0.0-3.alpha.dir/__/__/__/mesh/access/src/device_state_manager.c.obj
 .bss.m_virtual_addresses
                0x20003648       0x14 examples/light_switch/server/CMakeFiles/light_switch_server_nrf52840_xxAA_s140_5.0.0-3.alpha.dir/__/__/__/mesh/access/src/device_state_manager.c.obj
 .bss.m_offload_ecdh
                0x2000365c        0x1 examples/light_switch/server/CMakeFiles/light_switch_server_nrf52840_xxAA_s140_5.0.0-3.alpha.dir/__/__/__/mesh/prov/src/prov_utils.c.obj
 *fill*         0x2000365d        0x3 
 .bss.mp_bearer_head
                0x20003660        0x4 examples/light_switch/server/CMakeFiles/light_switch_server_nrf52840_xxAA_s140_5.0.0-3.alpha.dir/__/__/__/mesh/prov/src/prov_bearer_adv.c.obj
 .bss.m_evt_handler
                0x20003664        0x8 examples/light_switch/server/CMakeFiles/light_switch_server_nrf52840_xxAA_s140_5.0.0-3.alpha.dir/__/__/__/mesh/access/src/nrf_mesh_node_config.c.obj
 .bss.m_health_server
                0x2000366c       0x5c examples/light_switch/server/CMakeFiles/light_switch_server_nrf52840_xxAA_s140_5.0.0-3.alpha.dir/__/__/__/mesh/access/src/nrf_mesh_node_config.c.obj
 .bss.m_node_provisioned
                0x200036c8        0x1 examples/light_switch/server/CMakeFiles/light_switch_server_nrf52840_xxAA_s140_5.0.0-3.alpha.dir/__/__/__/mesh/access/src/nrf_mesh_node_config.c.obj
 .bss.m_private_key
                0x200036c9       0x20 examples/light_switch/server/CMakeFiles/light_switch_server_nrf52840_xxAA_s140_5.0.0-3.alpha.dir/__/__/__/mesh/access/src/nrf_mesh_node_config.c.obj
 *fill*         0x200036e9        0x3 
 .bss.m_prov_ctx
                0x200036ec      0x2fc examples/light_switch/server/CMakeFiles/light_switch_server_nrf52840_xxAA_s140_5.0.0-3.alpha.dir/__/__/__/mesh/access/src/nrf_mesh_node_config.c.obj
 .bss.m_public_key
                0x200039e8       0x40 examples/light_switch/server/CMakeFiles/light_switch_server_nrf52840_xxAA_s140_5.0.0-3.alpha.dir/__/__/__/mesh/access/src/nrf_mesh_node_config.c.obj
 .bss.mp_init_params
                0x20003a28        0x4 examples/light_switch/server/CMakeFiles/light_switch_server_nrf52840_xxAA_s140_5.0.0-3.alpha.dir/__/__/__/mesh/access/src/nrf_mesh_node_config.c.obj
 .bss.m_uuid    0x20003a2c       0x10 mesh/core/libmesh_core_nrf52840_xxAA.a(nrf_mesh_configure.c.obj)
 .bss.mp_evt_handlers_head
                0x20003a3c        0x4 mesh/core/libmesh_core_nrf52840_xxAA.a(event.c.obj)
 .bss.lock_count.10077
                0x20003a40        0x4 mesh/core/libmesh_core_nrf52840_xxAA.a(net_state.c.obj)
 .bss.m_flash_manager
                0x20003a44       0x24 mesh/core/libmesh_core_nrf52840_xxAA.a(net_state.c.obj)
 .bss.m_iv_update_timer
                0x20003a68       0x18 mesh/core/libmesh_core_nrf52840_xxAA.a(net_state.c.obj)
 .bss.m_net_state
                0x20003a80       0x14 mesh/core/libmesh_core_nrf52840_xxAA.a(net_state.c.obj)
 .bss.m_seqnum_allocation_in_progress
                0x20003a94        0x1 mesh/core/libmesh_core_nrf52840_xxAA.a(net_state.c.obj)
 .bss.m_test_mode
                0x20003a95        0x1 mesh/core/libmesh_core_nrf52840_xxAA.a(net_state.c.obj)
 .bss.m_is_enabled
                0x20003a96        0x1 mesh/core/libmesh_core_nrf52840_xxAA.a(nrf_mesh.c.obj)
 .bss.m_is_initialized
                0x20003a97        0x1 mesh/core/libmesh_core_nrf52840_xxAA.a(nrf_mesh.c.obj)
 .bss.m_rx_cb   0x20003a98        0x4 mesh/core/libmesh_core_nrf52840_xxAA.a(nrf_mesh.c.obj)
 .bss.m_event_flag
                0x20003a9c        0x4 mesh/core/libmesh_core_nrf52840_xxAA.a(timer_scheduler.c.obj)
 .bss.m_scheduler
                0x20003aa0       0x10 mesh/core/libmesh_core_nrf52840_xxAA.a(timer_scheduler.c.obj)
 .bss.m_attributes
                0x20003ab0        0x3 mesh/core/libmesh_core_nrf52840_xxAA.a(timer.c.obj)
 *fill*         0x20003ab3        0x1 
 .bss.m_callbacks
                0x20003ab4        0xc mesh/core/libmesh_core_nrf52840_xxAA.a(timer.c.obj)
 .bss.m_is_in_ts
                0x20003ac0        0x1 mesh/core/libmesh_core_nrf52840_xxAA.a(timer.c.obj)
 *fill*         0x20003ac1        0x3 
 .bss.m_reference_time
                0x20003ac4        0x4 mesh/core/libmesh_core_nrf52840_xxAA.a(timer.c.obj)
 .bss.m_timeouts
                0x20003ac8        0xc mesh/core/libmesh_core_nrf52840_xxAA.a(timer.c.obj)
 .bss.m_timer_mut
                0x20003ad4        0x4 mesh/core/libmesh_core_nrf52840_xxAA.a(timer.c.obj)
 .bss.m_ts_end_time
                0x20003ad8        0x4 mesh/core/libmesh_core_nrf52840_xxAA.a(timer.c.obj)
 .bss.mp_ppi_tasks
                0x20003adc        0xc mesh/core/libmesh_core_nrf52840_xxAA.a(timer.c.obj)
 .bss.m_current_time
                0x20003ae8        0x4 mesh/core/libmesh_core_nrf52840_xxAA.a(ticker.c.obj)
 .bss.m_timer   0x20003aec       0x18 mesh/core/libmesh_core_nrf52840_xxAA.a(ticker.c.obj)
 .bss.m_current_timeslot
                0x20003b04       0x1c mesh/core/libmesh_core_nrf52840_xxAA.a(timeslot.c.obj)
 .bss.m_lfclk_ppm
                0x20003b20        0x4 mesh/core/libmesh_core_nrf52840_xxAA.a(timeslot.c.obj)
 .bss.m_radio_request_earliest
                0x20003b24       0x10 mesh/core/libmesh_core_nrf52840_xxAA.a(timeslot.c.obj)
 .bss.m_state_lock
                0x20003b34        0x1 mesh/core/libmesh_core_nrf52840_xxAA.a(timeslot.c.obj)
 .bss.m_timeslot_forced_command
                0x20003b35        0x1 mesh/core/libmesh_core_nrf52840_xxAA.a(timeslot.c.obj)
 *fill*         0x20003b36        0x2 
 .bss.s_last_rtc_value.9342
                0x20003b38        0x8 mesh/core/libmesh_core_nrf52840_xxAA.a(timeslot.c.obj)
 .bss.m_bearer_event_fifo
                0x20003b40       0x14 mesh/core/libmesh_core_nrf52840_xxAA.a(bearer_event.c.obj)
 .bss.m_bearer_event_fifo_buffer
                0x20003b54      0x100 mesh/core/libmesh_core_nrf52840_xxAA.a(bearer_event.c.obj)
 .bss.m_critical
                0x20003c54        0x4 mesh/core/libmesh_core_nrf52840_xxAA.a(bearer_event.c.obj)
 .bss.m_flag_count
                0x20003c58        0x4 mesh/core/libmesh_core_nrf52840_xxAA.a(bearer_event.c.obj)
 .bss.m_flag_event_callbacks
                0x20003c5c       0x18 mesh/core/libmesh_core_nrf52840_xxAA.a(bearer_event.c.obj)
 .bss.m_flags   0x20003c74        0x4 mesh/core/libmesh_core_nrf52840_xxAA.a(bearer_event.c.obj)
 .bss.m_sequential_event_queue
                0x20003c78        0x8 mesh/core/libmesh_core_nrf52840_xxAA.a(bearer_event.c.obj)
 .bss.m_relay_check_cb
                0x20003c80        0x4 mesh/core/libmesh_core_nrf52840_xxAA.a(network.c.obj)
 .bss.m_relay_enable
                0x20003c84        0x1 mesh/core/libmesh_core_nrf52840_xxAA.a(network.c.obj)
 *fill*         0x20003c85        0x3 
 .bss.m_action_queue
                0x20003c88        0xc mesh/core/libmesh_core_nrf52840_xxAA.a(flash_manager.c.obj)
 .bss.m_action_queue_buffer
                0x20003c94      0x104 mesh/core/libmesh_core_nrf52840_xxAA.a(flash_manager.c.obj)
 .bss.m_action_state
                0x20003d98        0x1 mesh/core/libmesh_core_nrf52840_xxAA.a(flash_manager.c.obj)
 *fill*         0x20003d99        0x3 
 .bss.m_memory_listener_queue
                0x20003d9c        0x8 mesh/core/libmesh_core_nrf52840_xxAA.a(flash_manager.c.obj)
 .bss.m_processing_flag
                0x20003da4        0x4 mesh/core/libmesh_core_nrf52840_xxAA.a(flash_manager.c.obj)
 .bss.m_state   0x20003da8        0x1 mesh/core/libmesh_core_nrf52840_xxAA.a(flash_manager.c.obj)
 *fill*         0x20003da9        0x1 
 .bss.m_token   0x20003daa        0x2 mesh/core/libmesh_core_nrf52840_xxAA.a(flash_manager.c.obj)
 .bss.p_current.11194
                0x20003dac        0x4 mesh/core/libmesh_core_nrf52840_xxAA.a(flash_manager.c.obj)
 .bss.result.11195
                0x20003db0        0x1 mesh/core/libmesh_core_nrf52840_xxAA.a(flash_manager.c.obj)
 *fill*         0x20003db1        0x3 
 .bss.m_adv_buffer
                0x20003db4       0x68 mesh/core/libmesh_core_nrf52840_xxAA.a(beacon.c.obj)
 .bss.m_advertiser
                0x20003e1c       0x94 mesh/core/libmesh_core_nrf52840_xxAA.a(beacon.c.obj)
 .bss.m_adv_tx_count
                0x20003eb0        0x8 mesh/core/libmesh_core_nrf52840_xxAA.a(core_tx.c.obj)
 .bss.m_advertisers
                0x20003eb8      0x128 mesh/core/libmesh_core_nrf52840_xxAA.a(core_tx.c.obj)
 .bss.m_originator_adv_packet_buffer
                0x20003fe0      0x100 mesh/core/libmesh_core_nrf52840_xxAA.a(core_tx.c.obj)
 .bss.m_relay_adv_packet_buffer
                0x200040e0       0x80 mesh/core/libmesh_core_nrf52840_xxAA.a(core_tx.c.obj)
 .bss.m_tx_complete_callback
                0x20004160        0x4 mesh/core/libmesh_core_nrf52840_xxAA.a(core_tx.c.obj)
 .bss.m_beacon_salt
                0x20004164       0x10 mesh/core/libmesh_core_nrf52840_xxAA.a(net_beacon.c.obj)
 .bss.m_enabled
                0x20004174        0x1 mesh/core/libmesh_core_nrf52840_xxAA.a(net_beacon.c.obj)
 *fill*         0x20004175        0x3 
 .bss.m_tx_event
                0x20004178       0x18 mesh/core/libmesh_core_nrf52840_xxAA.a(net_beacon.c.obj)
 .bss.m_adv_prng
                0x20004190       0x10 mesh/core/libmesh_core_nrf52840_xxAA.a(advertiser.c.obj)
 .bss.m_action_queue
                0x200041a0        0x8 mesh/core/libmesh_core_nrf52840_xxAA.a(bearer_handler.c.obj)
 .bss.m_end_time
                0x200041a8        0x4 mesh/core/libmesh_core_nrf52840_xxAA.a(bearer_handler.c.obj)
 .bss.m_scanner_is_active
                0x200041ac        0x1 mesh/core/libmesh_core_nrf52840_xxAA.a(bearer_handler.c.obj)
 .bss.m_stopped
                0x200041ad        0x1 mesh/core/libmesh_core_nrf52840_xxAA.a(bearer_handler.c.obj)
 *fill*         0x200041ae        0x2 
 .bss.mp_action
                0x200041b0        0x4 mesh/core/libmesh_core_nrf52840_xxAA.a(bearer_handler.c.obj)
 .bss.m_next_channel_index
                0x200041b4        0x1 mesh/core/libmesh_core_nrf52840_xxAA.a(broadcast.c.obj)
 *fill*         0x200041b5        0x3 
 .bss.m_scanner
                0x200041b8      0x284 mesh/core/libmesh_core_nrf52840_xxAA.a(scanner.c.obj)
 .bss.m_internal_event_fifo
                0x2000443c       0x14 mesh/core/libmesh_core_nrf52840_xxAA.a(internal_event.c.obj)
 .bss.m_internal_event_initialized
                0x20004450        0x1 mesh/core/libmesh_core_nrf52840_xxAA.a(internal_event.c.obj)
 *fill*         0x20004451        0x3 
 .bss.m_report_cb
                0x20004454        0x4 mesh/core/libmesh_core_nrf52840_xxAA.a(internal_event.c.obj)
 .bss.m_msg_cache
                0x20004458      0x100 mesh/core/libmesh_core_nrf52840_xxAA.a(msg_cache.c.obj)
 .bss.m_msg_cache_head
                0x20004558        0x4 mesh/core/libmesh_core_nrf52840_xxAA.a(msg_cache.c.obj)
 .bss.m_sar_alloc
                0x2000455c        0x4 mesh/core/libmesh_core_nrf52840_xxAA.a(transport.c.obj)
 .bss.m_sar_process_flag
                0x20004560        0x4 mesh/core/libmesh_core_nrf52840_xxAA.a(transport.c.obj)
 .bss.m_sar_release
                0x20004564        0x4 mesh/core/libmesh_core_nrf52840_xxAA.a(transport.c.obj)
 .bss.m_sar_session_cache
                0x20004568       0x40 mesh/core/libmesh_core_nrf52840_xxAA.a(transport.c.obj)
 .bss.m_sar_session_cache_head
                0x200045a8        0x4 mesh/core/libmesh_core_nrf52840_xxAA.a(transport.c.obj)
 .bss.m_trs_config
                0x200045ac       0x18 mesh/core/libmesh_core_nrf52840_xxAA.a(transport.c.obj)
 .bss.m_trs_sar_sessions
                0x200045c4      0x1b0 mesh/core/libmesh_core_nrf52840_xxAA.a(transport.c.obj)
 .bss.m_defrag  0x20004774       0x1c mesh/core/libmesh_core_nrf52840_xxAA.a(flash_manager_defrag.c.obj)
 .bss.m_token   0x20004790        0x2 mesh/core/libmesh_core_nrf52840_xxAA.a(flash_manager_defrag.c.obj)
 *fill*         0x20004792        0x2 
 .bss.mp_recovery_area
                0x20004794        0x4 mesh/core/libmesh_core_nrf52840_xxAA.a(flash_manager_defrag.c.obj)
 .bss.p_null_ptr.10247
                0x20004798        0x4 mesh/core/libmesh_core_nrf52840_xxAA.a(flash_manager_defrag.c.obj)
 .bss.m_pool    0x2000479c     0x1000 mesh/core/libmesh_core_nrf52840_xxAA.a(packet_mgr.c.obj)
 .bss.mp_free_head
                0x2000579c        0x4 mesh/core/libmesh_core_nrf52840_xxAA.a(packet_mgr.c.obj)
 .bss.m_event_flag
                0x200057a0        0x4 mesh/core/libmesh_core_nrf52840_xxAA.a(mesh_flash.c.obj)
 .bss.m_suspended
                0x200057a4        0x1 mesh/core/libmesh_core_nrf52840_xxAA.a(mesh_flash.c.obj)
 *fill*         0x200057a5        0x3 
 .bss.m_users   0x200057a8      0x228 mesh/core/libmesh_core_nrf52840_xxAA.a(mesh_flash.c.obj)
 .bss.m_128buf  0x200059d0       0x10 mesh/core/libmesh_core_nrf52840_xxAA.a(aes_cmac.c.obj)
 .bss.m_subkey1
                0x200059e0       0x10 mesh/core/libmesh_core_nrf52840_xxAA.a(aes_cmac.c.obj)
 .bss.m_subkey2
                0x200059f0       0x10 mesh/core/libmesh_core_nrf52840_xxAA.a(aes_cmac.c.obj)
 .bss.m_cache_full
                0x20005a00        0x1 mesh/core/libmesh_core_nrf52840_xxAA.a(replay_cache.c.obj)
 .bss.m_cache_index
                0x20005a01        0x1 mesh/core/libmesh_core_nrf52840_xxAA.a(replay_cache.c.obj)
 *fill*         0x20005a02        0x2 
 .bss.m_replay_cache
                0x20005a04      0x200 mesh/core/libmesh_core_nrf52840_xxAA.a(replay_cache.c.obj)
 .bss.m_accepted_amount
                0x20005c04        0x4 mesh/core/libmesh_core_nrf52840_xxAA.a(filter_engine.c.obj)
 .bss.m_filter_list_head
                0x20005c08        0x4 mesh/core/libmesh_core_nrf52840_xxAA.a(filter_engine.c.obj)
 .bss._acDownBuffer
                0x20005c0c       0x80 external/rtt/librtt_nrf52840_xxAA.a(SEGGER_RTT.c.obj)
 .bss._acUpBuffer
                0x20005c8c      0x400 external/rtt/librtt_nrf52840_xxAA.a(SEGGER_RTT.c.obj)
 .bss.__malloc_free_list
                0x2000608c        0x4 c:/a/gcc_arm/6/bin/../lib/gcc/arm-none-eabi/6.3.1/../../../../arm-none-eabi/lib/thumb/v7e-m/fpv4-sp/hard\libc_nano.a(lib_a-nano-mallocr.o)
                0x2000608c                __malloc_free_list
 .bss.__malloc_sbrk_start
                0x20006090        0x4 c:/a/gcc_arm/6/bin/../lib/gcc/arm-none-eabi/6.3.1/../../../../arm-none-eabi/lib/thumb/v7e-m/fpv4-sp/hard\libc_nano.a(lib_a-nano-mallocr.o)
                0x20006090                __malloc_sbrk_start
 .bss.heap_end.5239
                0x20006094        0x4 c:/a/gcc_arm/6/bin/../lib/gcc/arm-none-eabi/6.3.1/../../../../arm-none-eabi/lib/thumb/v7e-m/fpv4-sp/hard\libnosys.a(sbrk.o)
 *(COMMON)
 COMMON         0x20006098        0xc examples/light_switch/server/CMakeFiles/light_switch_server_nrf52840_xxAA_s140_5.0.0-3.alpha.dir/__/__/nrf_mesh_sdk.c.obj
                0x20006098                nrf_nvic_state
 COMMON         0x200060a4        0x4 mesh/core/libmesh_core_nrf52840_xxAA.a(nrf_mesh.c.obj)
                0x200060a4                m_assertion_handler
 COMMON         0x200060a8       0x78 external/rtt/librtt_nrf52840_xxAA.a(SEGGER_RTT.c.obj)
                0x200060a8                _SEGGER_RTT
 COMMON         0x20006120        0x4 c:/a/gcc_arm/6/bin/../lib/gcc/arm-none-eabi/6.3.1/../../../../arm-none-eabi/lib/thumb/v7e-m/fpv4-sp/hard\libc_nano.a(lib_a-reent.o)
                0x20006120                errno
                0x20006124                . = ALIGN (0x4)
                0x20006124                __bss_end__ = .

.heap           0x20006128     0x2000
                0x20006128                __HeapBase = .
                0x20006128                __end__ = .
                0x20006128                PROVIDE (end, .)
 *(.heap*)
 .heap          0x20006128     0x2000 examples/light_switch/server/CMakeFiles/light_switch_server_nrf52840_xxAA_s140_5.0.0-3.alpha.dir/__/__/__/external/nRF5_SDK_14.0.0_3bcc1f7/components/toolchain/gcc/gcc_startup_nrf52840.S.obj
                0x20008128                __HeapLimit = .

.stack_dummy    0x20006128     0x2000
 *(.stack*)
 .stack         0x20006128     0x2000 examples/light_switch/server/CMakeFiles/light_switch_server_nrf52840_xxAA_s140_5.0.0-3.alpha.dir/__/__/__/external/nRF5_SDK_14.0.0_3bcc1f7/components/toolchain/gcc/gcc_startup_nrf52840.S.obj
                0x2003f002                __StackTop = (ORIGIN (RAM) + LENGTH (RAM))
                0x2003d002                __StackLimit = (__StackTop - SIZEOF (.stack_dummy))
                0x2003f002                PROVIDE (__stack, __StackTop)
                0x00000001                ASSERT ((__StackLimit >= __HeapLimit), region RAM overflowed with stack)
OUTPUT(examples\light_switch\server\light_switch_server_nrf52840_xxAA_s140_5.0.0-3.alpha.elf elf32-littlearm)

.ARM.attributes
                0x00000000       0x30
 .ARM.attributes
                0x00000000       0x22 c:/a/gcc_arm/6/bin/../lib/gcc/arm-none-eabi/6.3.1/thumb/v7e-m/fpv4-sp/hard/crti.o
 .ARM.attributes
                0x00000022       0x34 c:/a/gcc_arm/6/bin/../lib/gcc/arm-none-eabi/6.3.1/thumb/v7e-m/fpv4-sp/hard/crtbegin.o
 .ARM.attributes
                0x00000056       0x20 c:/a/gcc_arm/6/bin/../lib/gcc/arm-none-eabi/6.3.1/../../../../arm-none-eabi/lib/thumb/v7e-m/fpv4-sp/hard/crt0.o
 .ARM.attributes
                0x00000076       0x39 examples/light_switch/server/CMakeFiles/light_switch_server_nrf52840_xxAA_s140_5.0.0-3.alpha.dir/src/main.c.obj
 .ARM.attributes
                0x000000af       0x39 examples/light_switch/server/CMakeFiles/light_switch_server_nrf52840_xxAA_s140_5.0.0-3.alpha.dir/__/__/nrf_mesh_sdk.c.obj
 .ARM.attributes
                0x000000e8       0x39 examples/light_switch/server/CMakeFiles/light_switch_server_nrf52840_xxAA_s140_5.0.0-3.alpha.dir/__/__/hal/src/simple_hal.c.obj
 .ARM.attributes
                0x00000121       0x39 examples/light_switch/server/CMakeFiles/light_switch_server_nrf52840_xxAA_s140_5.0.0-3.alpha.dir/__/__/nrf_mesh_weak.c.obj
 .ARM.attributes
                0x0000015a       0x39 examples/light_switch/server/CMakeFiles/light_switch_server_nrf52840_xxAA_s140_5.0.0-3.alpha.dir/__/__/__/models/simple_on_off/src/simple_on_off_server.c.obj
 .ARM.attributes
                0x00000193       0x39 examples/light_switch/server/CMakeFiles/light_switch_server_nrf52840_xxAA_s140_5.0.0-3.alpha.dir/__/__/__/models/config/src/composition_data.c.obj
 .ARM.attributes
                0x000001cc       0x39 examples/light_switch/server/CMakeFiles/light_switch_server_nrf52840_xxAA_s140_5.0.0-3.alpha.dir/__/__/__/models/config/src/config_server.c.obj
 .ARM.attributes
                0x00000205       0x39 examples/light_switch/server/CMakeFiles/light_switch_server_nrf52840_xxAA_s140_5.0.0-3.alpha.dir/__/__/__/models/config/src/packed_index_list.c.obj
 .ARM.attributes
                0x0000023e       0x39 examples/light_switch/server/CMakeFiles/light_switch_server_nrf52840_xxAA_s140_5.0.0-3.alpha.dir/__/__/__/models/health/src/health_server.c.obj
 .ARM.attributes
                0x00000277       0x39 examples/light_switch/server/CMakeFiles/light_switch_server_nrf52840_xxAA_s140_5.0.0-3.alpha.dir/__/__/__/mesh/access/src/access_publish.c.obj
 .ARM.attributes
                0x000002b0       0x39 examples/light_switch/server/CMakeFiles/light_switch_server_nrf52840_xxAA_s140_5.0.0-3.alpha.dir/__/__/__/mesh/access/src/access.c.obj
 .ARM.attributes
                0x000002e9       0x39 examples/light_switch/server/CMakeFiles/light_switch_server_nrf52840_xxAA_s140_5.0.0-3.alpha.dir/__/__/__/mesh/access/src/access_reliable.c.obj
 .ARM.attributes
                0x00000322       0x39 examples/light_switch/server/CMakeFiles/light_switch_server_nrf52840_xxAA_s140_5.0.0-3.alpha.dir/__/__/__/mesh/access/src/device_state_manager.c.obj
 .ARM.attributes
                0x0000035b       0x39 examples/light_switch/server/CMakeFiles/light_switch_server_nrf52840_xxAA_s140_5.0.0-3.alpha.dir/__/__/__/mesh/prov/src/prov_provisionee.c.obj
 .ARM.attributes
                0x00000394       0x39 examples/light_switch/server/CMakeFiles/light_switch_server_nrf52840_xxAA_s140_5.0.0-3.alpha.dir/__/__/__/mesh/prov/src/nrf_mesh_prov.c.obj
 .ARM.attributes
                0x000003cd       0x39 examples/light_switch/server/CMakeFiles/light_switch_server_nrf52840_xxAA_s140_5.0.0-3.alpha.dir/__/__/__/mesh/prov/src/provisioning.c.obj
 .ARM.attributes
                0x00000406       0x39 examples/light_switch/server/CMakeFiles/light_switch_server_nrf52840_xxAA_s140_5.0.0-3.alpha.dir/__/__/__/mesh/prov/src/prov_beacon.c.obj
 .ARM.attributes
                0x0000043f       0x39 examples/light_switch/server/CMakeFiles/light_switch_server_nrf52840_xxAA_s140_5.0.0-3.alpha.dir/__/__/__/mesh/prov/src/prov_utils.c.obj
 .ARM.attributes
                0x00000478       0x39 examples/light_switch/server/CMakeFiles/light_switch_server_nrf52840_xxAA_s140_5.0.0-3.alpha.dir/__/__/__/mesh/prov/src/prov_bearer_adv.c.obj
 .ARM.attributes
                0x000004b1       0x39 examples/light_switch/server/CMakeFiles/light_switch_server_nrf52840_xxAA_s140_5.0.0-3.alpha.dir/__/__/__/mesh/access/src/nrf_mesh_node_config.c.obj
 .ARM.attributes
                0x000004ea       0x39 examples/light_switch/server/CMakeFiles/light_switch_server_nrf52840_xxAA_s140_5.0.0-3.alpha.dir/__/__/__/external/nRF5_SDK_14.0.0_3bcc1f7/components/toolchain/system_nrf52840.c.obj
 .ARM.attributes
                0x00000523       0x20 examples/light_switch/server/CMakeFiles/light_switch_server_nrf52840_xxAA_s140_5.0.0-3.alpha.dir/__/__/__/external/nRF5_SDK_14.0.0_3bcc1f7/components/toolchain/gcc/gcc_startup_nrf52840.S.obj
 .ARM.attributes
                0x00000543       0x39 mesh/core/libmesh_core_nrf52840_xxAA.a(nrf_mesh_configure.c.obj)
 .ARM.attributes
                0x0000057c       0x39 mesh/core/libmesh_core_nrf52840_xxAA.a(event.c.obj)
 .ARM.attributes
                0x000005b5       0x39 mesh/core/libmesh_core_nrf52840_xxAA.a(net_state.c.obj)
 .ARM.attributes
                0x000005ee       0x39 mesh/core/libmesh_core_nrf52840_xxAA.a(nrf_mesh_utils.c.obj)
 .ARM.attributes
                0x00000627       0x39 mesh/core/libmesh_core_nrf52840_xxAA.a(nrf_mesh.c.obj)
 .ARM.attributes
                0x00000660       0x39 mesh/core/libmesh_core_nrf52840_xxAA.a(hal.c.obj)
 .ARM.attributes
                0x00000699       0x39 mesh/core/libmesh_core_nrf52840_xxAA.a(timer_scheduler.c.obj)
 .ARM.attributes
                0x000006d2       0x39 mesh/core/libmesh_core_nrf52840_xxAA.a(timer.c.obj)
 .ARM.attributes
                0x0000070b       0x39 mesh/core/libmesh_core_nrf52840_xxAA.a(ticker.c.obj)
 .ARM.attributes
                0x00000744       0x39 mesh/core/libmesh_core_nrf52840_xxAA.a(rand.c.obj)
 .ARM.attributes
                0x0000077d       0x39 mesh/core/libmesh_core_nrf52840_xxAA.a(nrf_mesh_opt.c.obj)
 .ARM.attributes
                0x000007b6       0x39 mesh/core/libmesh_core_nrf52840_xxAA.a(timeslot.c.obj)
 .ARM.attributes
                0x000007ef       0x39 mesh/core/libmesh_core_nrf52840_xxAA.a(bearer_event.c.obj)
 .ARM.attributes
                0x00000828       0x39 mesh/core/libmesh_core_nrf52840_xxAA.a(enc.c.obj)
 .ARM.attributes
                0x00000861       0x39 mesh/core/libmesh_core_nrf52840_xxAA.a(network.c.obj)
 .ARM.attributes
                0x0000089a       0x39 mesh/core/libmesh_core_nrf52840_xxAA.a(nrf_mesh_keygen.c.obj)
 .ARM.attributes
                0x000008d3       0x39 mesh/core/libmesh_core_nrf52840_xxAA.a(log.c.obj)
 .ARM.attributes
                0x0000090c       0x39 mesh/core/libmesh_core_nrf52840_xxAA.a(flash_manager.c.obj)
 .ARM.attributes
                0x00000945       0x39 mesh/core/libmesh_core_nrf52840_xxAA.a(ccm_soft.c.obj)
 .ARM.attributes
                0x0000097e       0x39 mesh/core/libmesh_core_nrf52840_xxAA.a(beacon.c.obj)
 .ARM.attributes
                0x000009b7       0x39 mesh/core/libmesh_core_nrf52840_xxAA.a(flash_manager_internal.c.obj)
 .ARM.attributes
                0x000009f0       0x39 mesh/core/libmesh_core_nrf52840_xxAA.a(core_tx.c.obj)
 .ARM.attributes
                0x00000a29       0x39 mesh/core/libmesh_core_nrf52840_xxAA.a(net_beacon.c.obj)
 .ARM.attributes
                0x00000a62       0x39 mesh/core/libmesh_core_nrf52840_xxAA.a(advertiser.c.obj)
 .ARM.attributes
                0x00000a9b       0x39 mesh/core/libmesh_core_nrf52840_xxAA.a(bearer_handler.c.obj)
 .ARM.attributes
                0x00000ad4       0x39 mesh/core/libmesh_core_nrf52840_xxAA.a(broadcast.c.obj)
 .ARM.attributes
                0x00000b0d       0x39 mesh/core/libmesh_core_nrf52840_xxAA.a(radio_config.c.obj)
 .ARM.attributes
                0x00000b46       0x39 mesh/core/libmesh_core_nrf52840_xxAA.a(scanner.c.obj)
 .ARM.attributes
                0x00000b7f       0x39 mesh/core/libmesh_core_nrf52840_xxAA.a(internal_event.c.obj)
 .ARM.attributes
                0x00000bb8       0x39 mesh/core/libmesh_core_nrf52840_xxAA.a(aes.c.obj)
 .ARM.attributes
                0x00000bf1       0x39 mesh/core/libmesh_core_nrf52840_xxAA.a(msg_cache.c.obj)
 .ARM.attributes
                0x00000c2a       0x39 mesh/core/libmesh_core_nrf52840_xxAA.a(transport.c.obj)
 .ARM.attributes
                0x00000c63       0x39 mesh/core/libmesh_core_nrf52840_xxAA.a(packet_buffer.c.obj)
 .ARM.attributes
                0x00000c9c       0x39 mesh/core/libmesh_core_nrf52840_xxAA.a(flash_manager_defrag.c.obj)
 .ARM.attributes
                0x00000cd5       0x39 mesh/core/libmesh_core_nrf52840_xxAA.a(fifo.c.obj)
 .ARM.attributes
                0x00000d0e       0x39 mesh/core/libmesh_core_nrf52840_xxAA.a(packet_mgr.c.obj)
 .ARM.attributes
                0x00000d47       0x39 mesh/core/libmesh_core_nrf52840_xxAA.a(mesh_flash.c.obj)
 .ARM.attributes
                0x00000d80       0x39 mesh/core/libmesh_core_nrf52840_xxAA.a(queue.c.obj)
 .ARM.attributes
                0x00000db9       0x39 mesh/core/libmesh_core_nrf52840_xxAA.a(aes_cmac.c.obj)
 .ARM.attributes
                0x00000df2       0x39 mesh/core/libmesh_core_nrf52840_xxAA.a(msqueue.c.obj)
 .ARM.attributes
                0x00000e2b       0x39 mesh/core/libmesh_core_nrf52840_xxAA.a(replay_cache.c.obj)
 .ARM.attributes
                0x00000e64       0x39 mesh/core/libmesh_core_nrf52840_xxAA.a(filter_engine.c.obj)
 .ARM.attributes
                0x00000e9d       0x39 mesh/core/libmesh_core_nrf52840_xxAA.a(nrf_flash.c.obj)
 .ARM.attributes
                0x00000ed6       0x39 external/rtt/librtt_nrf52840_xxAA.a(SEGGER_RTT.c.obj)
 .ARM.attributes
                0x00000f0f       0x39 external/rtt/librtt_nrf52840_xxAA.a(SEGGER_RTT_printf.c.obj)
 .ARM.attributes
                0x00000f48       0x39 external/micro-ecc/libuECC_nrf52840_xxAA.a(uECC.c.obj)
 .ARM.attributes
                0x00000f81       0x34 c:/a/gcc_arm/6/bin/../lib/gcc/arm-none-eabi/6.3.1/../../../../arm-none-eabi/lib/thumb/v7e-m/fpv4-sp/hard\libc_nano.a(lib_a-exit.o)
 .ARM.attributes
                0x00000fb5       0x34 c:/a/gcc_arm/6/bin/../lib/gcc/arm-none-eabi/6.3.1/../../../../arm-none-eabi/lib/thumb/v7e-m/fpv4-sp/hard\libc_nano.a(lib_a-impure.o)
 .ARM.attributes
                0x00000fe9       0x34 c:/a/gcc_arm/6/bin/../lib/gcc/arm-none-eabi/6.3.1/../../../../arm-none-eabi/lib/thumb/v7e-m/fpv4-sp/hard\libc_nano.a(lib_a-init.o)
 .ARM.attributes
                0x0000101d       0x34 c:/a/gcc_arm/6/bin/../lib/gcc/arm-none-eabi/6.3.1/../../../../arm-none-eabi/lib/thumb/v7e-m/fpv4-sp/hard\libc_nano.a(lib_a-malloc.o)
 .ARM.attributes
                0x00001051       0x34 c:/a/gcc_arm/6/bin/../lib/gcc/arm-none-eabi/6.3.1/../../../../arm-none-eabi/lib/thumb/v7e-m/fpv4-sp/hard\libc_nano.a(lib_a-memcmp.o)
 .ARM.attributes
                0x00001085       0x34 c:/a/gcc_arm/6/bin/../lib/gcc/arm-none-eabi/6.3.1/../../../../arm-none-eabi/lib/thumb/v7e-m/fpv4-sp/hard\libc_nano.a(lib_a-memcpy-stub.o)
 .ARM.attributes
                0x000010b9       0x34 c:/a/gcc_arm/6/bin/../lib/gcc/arm-none-eabi/6.3.1/../../../../arm-none-eabi/lib/thumb/v7e-m/fpv4-sp/hard\libc_nano.a(lib_a-memset.o)
 .ARM.attributes
                0x000010ed       0x34 c:/a/gcc_arm/6/bin/../lib/gcc/arm-none-eabi/6.3.1/../../../../arm-none-eabi/lib/thumb/v7e-m/fpv4-sp/hard\libc_nano.a(lib_a-nano-freer.o)
 .ARM.attributes
                0x00001121       0x34 c:/a/gcc_arm/6/bin/../lib/gcc/arm-none-eabi/6.3.1/../../../../arm-none-eabi/lib/thumb/v7e-m/fpv4-sp/hard\libc_nano.a(lib_a-nano-mallocr.o)
 .ARM.attributes
                0x00001155       0x34 c:/a/gcc_arm/6/bin/../lib/gcc/arm-none-eabi/6.3.1/../../../../arm-none-eabi/lib/thumb/v7e-m/fpv4-sp/hard\libc_nano.a(lib_a-sbrkr.o)
 .ARM.attributes
                0x00001189       0x34 c:/a/gcc_arm/6/bin/../lib/gcc/arm-none-eabi/6.3.1/../../../../arm-none-eabi/lib/thumb/v7e-m/fpv4-sp/hard\libc_nano.a(lib_a-strcpy.o)
 .ARM.attributes
                0x000011bd       0x1b c:/a/gcc_arm/6/bin/../lib/gcc/arm-none-eabi/6.3.1/../../../../arm-none-eabi/lib/thumb/v7e-m/fpv4-sp/hard\libc_nano.a(lib_a-strlen.o)
 .ARM.attributes
                0x000011d8       0x34 c:/a/gcc_arm/6/bin/../lib/gcc/arm-none-eabi/6.3.1/../../../../arm-none-eabi/lib/thumb/v7e-m/fpv4-sp/hard\libc_nano.a(lib_a-strrchr.o)
 .ARM.attributes
                0x0000120c       0x34 c:/a/gcc_arm/6/bin/../lib/gcc/arm-none-eabi/6.3.1/../../../../arm-none-eabi/lib/thumb/v7e-m/fpv4-sp/hard\libc_nano.a(lib_a-mlock.o)
 .ARM.attributes
                0x00001240       0x34 c:/a/gcc_arm/6/bin/../lib/gcc/arm-none-eabi/6.3.1/../../../../arm-none-eabi/lib/thumb/v7e-m/fpv4-sp/hard\libc_nano.a(lib_a-reent.o)
 .ARM.attributes
                0x00001274       0x34 c:/a/gcc_arm/6/bin/../lib/gcc/arm-none-eabi/6.3.1/../../../../arm-none-eabi/lib/thumb/v7e-m/fpv4-sp/hard\libc_nano.a(lib_a-strchr.o)
 .ARM.attributes
                0x000012a8       0x34 c:/a/gcc_arm/6/bin/../lib/gcc/arm-none-eabi/6.3.1/thumb/v7e-m/fpv4-sp/hard/crtend.o
 .ARM.attributes
                0x000012dc       0x22 c:/a/gcc_arm/6/bin/../lib/gcc/arm-none-eabi/6.3.1/thumb/v7e-m/fpv4-sp/hard/crtn.o
 .ARM.attributes
                0x000012fe       0x34 c:/a/gcc_arm/6/bin/../lib/gcc/arm-none-eabi/6.3.1/../../../../arm-none-eabi/lib/thumb/v7e-m/fpv4-sp/hard\libnosys.a(sbrk.o)
 .ARM.attributes
                0x00001332       0x34 c:/a/gcc_arm/6/bin/../lib/gcc/arm-none-eabi/6.3.1/../../../../arm-none-eabi/lib/thumb/v7e-m/fpv4-sp/hard\libnosys.a(_exit.o)

.comment        0x00000000       0x7f
 .comment       0x00000000       0x7f examples/light_switch/server/CMakeFiles/light_switch_server_nrf52840_xxAA_s140_5.0.0-3.alpha.dir/src/main.c.obj
                                 0x80 (size before relaxing)
 .comment       0x0000007f       0x80 examples/light_switch/server/CMakeFiles/light_switch_server_nrf52840_xxAA_s140_5.0.0-3.alpha.dir/__/__/nrf_mesh_sdk.c.obj
 .comment       0x0000007f       0x80 examples/light_switch/server/CMakeFiles/light_switch_server_nrf52840_xxAA_s140_5.0.0-3.alpha.dir/__/__/hal/src/simple_hal.c.obj
 .comment       0x0000007f       0x80 examples/light_switch/server/CMakeFiles/light_switch_server_nrf52840_xxAA_s140_5.0.0-3.alpha.dir/__/__/nrf_mesh_weak.c.obj
 .comment       0x0000007f       0x80 examples/light_switch/server/CMakeFiles/light_switch_server_nrf52840_xxAA_s140_5.0.0-3.alpha.dir/__/__/__/models/simple_on_off/src/simple_on_off_server.c.obj
 .comment       0x0000007f       0x80 examples/light_switch/server/CMakeFiles/light_switch_server_nrf52840_xxAA_s140_5.0.0-3.alpha.dir/__/__/__/models/config/src/composition_data.c.obj
 .comment       0x0000007f       0x80 examples/light_switch/server/CMakeFiles/light_switch_server_nrf52840_xxAA_s140_5.0.0-3.alpha.dir/__/__/__/models/config/src/config_server.c.obj
 .comment       0x0000007f       0x80 examples/light_switch/server/CMakeFiles/light_switch_server_nrf52840_xxAA_s140_5.0.0-3.alpha.dir/__/__/__/models/config/src/packed_index_list.c.obj
 .comment       0x0000007f       0x80 examples/light_switch/server/CMakeFiles/light_switch_server_nrf52840_xxAA_s140_5.0.0-3.alpha.dir/__/__/__/models/health/src/health_server.c.obj
 .comment       0x0000007f       0x80 examples/light_switch/server/CMakeFiles/light_switch_server_nrf52840_xxAA_s140_5.0.0-3.alpha.dir/__/__/__/mesh/access/src/access_publish.c.obj
 .comment       0x0000007f       0x80 examples/light_switch/server/CMakeFiles/light_switch_server_nrf52840_xxAA_s140_5.0.0-3.alpha.dir/__/__/__/mesh/access/src/access.c.obj
 .comment       0x0000007f       0x80 examples/light_switch/server/CMakeFiles/light_switch_server_nrf52840_xxAA_s140_5.0.0-3.alpha.dir/__/__/__/mesh/access/src/access_reliable.c.obj
 .comment       0x0000007f       0x80 examples/light_switch/server/CMakeFiles/light_switch_server_nrf52840_xxAA_s140_5.0.0-3.alpha.dir/__/__/__/mesh/access/src/device_state_manager.c.obj
 .comment       0x0000007f       0x80 examples/light_switch/server/CMakeFiles/light_switch_server_nrf52840_xxAA_s140_5.0.0-3.alpha.dir/__/__/__/mesh/prov/src/prov_provisionee.c.obj
 .comment       0x0000007f       0x80 examples/light_switch/server/CMakeFiles/light_switch_server_nrf52840_xxAA_s140_5.0.0-3.alpha.dir/__/__/__/mesh/prov/src/nrf_mesh_prov.c.obj
 .comment       0x0000007f       0x80 examples/light_switch/server/CMakeFiles/light_switch_server_nrf52840_xxAA_s140_5.0.0-3.alpha.dir/__/__/__/mesh/prov/src/provisioning.c.obj
 .comment       0x0000007f       0x80 examples/light_switch/server/CMakeFiles/light_switch_server_nrf52840_xxAA_s140_5.0.0-3.alpha.dir/__/__/__/mesh/prov/src/prov_beacon.c.obj
 .comment       0x0000007f       0x80 examples/light_switch/server/CMakeFiles/light_switch_server_nrf52840_xxAA_s140_5.0.0-3.alpha.dir/__/__/__/mesh/prov/src/prov_utils.c.obj
 .comment       0x0000007f       0x80 examples/light_switch/server/CMakeFiles/light_switch_server_nrf52840_xxAA_s140_5.0.0-3.alpha.dir/__/__/__/mesh/prov/src/prov_bearer_adv.c.obj
 .comment       0x0000007f       0x80 examples/light_switch/server/CMakeFiles/light_switch_server_nrf52840_xxAA_s140_5.0.0-3.alpha.dir/__/__/__/mesh/access/src/nrf_mesh_node_config.c.obj
 .comment       0x0000007f       0x80 examples/light_switch/server/CMakeFiles/light_switch_server_nrf52840_xxAA_s140_5.0.0-3.alpha.dir/__/__/__/external/nRF5_SDK_14.0.0_3bcc1f7/components/toolchain/system_nrf52840.c.obj
 .comment       0x0000007f       0x80 mesh/core/libmesh_core_nrf52840_xxAA.a(nrf_mesh_configure.c.obj)
 .comment       0x0000007f       0x80 mesh/core/libmesh_core_nrf52840_xxAA.a(event.c.obj)
 .comment       0x0000007f       0x80 mesh/core/libmesh_core_nrf52840_xxAA.a(net_state.c.obj)
 .comment       0x0000007f       0x80 mesh/core/libmesh_core_nrf52840_xxAA.a(nrf_mesh_utils.c.obj)
 .comment       0x0000007f       0x80 mesh/core/libmesh_core_nrf52840_xxAA.a(nrf_mesh.c.obj)
 .comment       0x0000007f       0x80 mesh/core/libmesh_core_nrf52840_xxAA.a(hal.c.obj)
 .comment       0x0000007f       0x80 mesh/core/libmesh_core_nrf52840_xxAA.a(timer_scheduler.c.obj)
 .comment       0x0000007f       0x80 mesh/core/libmesh_core_nrf52840_xxAA.a(timer.c.obj)
 .comment       0x0000007f       0x80 mesh/core/libmesh_core_nrf52840_xxAA.a(ticker.c.obj)
 .comment       0x0000007f       0x80 mesh/core/libmesh_core_nrf52840_xxAA.a(rand.c.obj)
 .comment       0x0000007f       0x80 mesh/core/libmesh_core_nrf52840_xxAA.a(nrf_mesh_opt.c.obj)
 .comment       0x0000007f       0x80 mesh/core/libmesh_core_nrf52840_xxAA.a(timeslot.c.obj)
 .comment       0x0000007f       0x80 mesh/core/libmesh_core_nrf52840_xxAA.a(bearer_event.c.obj)
 .comment       0x0000007f       0x80 mesh/core/libmesh_core_nrf52840_xxAA.a(enc.c.obj)
 .comment       0x0000007f       0x80 mesh/core/libmesh_core_nrf52840_xxAA.a(network.c.obj)
 .comment       0x0000007f       0x80 mesh/core/libmesh_core_nrf52840_xxAA.a(nrf_mesh_keygen.c.obj)
 .comment       0x0000007f       0x80 mesh/core/libmesh_core_nrf52840_xxAA.a(log.c.obj)
 .comment       0x0000007f       0x80 mesh/core/libmesh_core_nrf52840_xxAA.a(flash_manager.c.obj)
 .comment       0x0000007f       0x80 mesh/core/libmesh_core_nrf52840_xxAA.a(ccm_soft.c.obj)
 .comment       0x0000007f       0x80 mesh/core/libmesh_core_nrf52840_xxAA.a(beacon.c.obj)
 .comment       0x0000007f       0x80 mesh/core/libmesh_core_nrf52840_xxAA.a(flash_manager_internal.c.obj)
 .comment       0x0000007f       0x80 mesh/core/libmesh_core_nrf52840_xxAA.a(core_tx.c.obj)
 .comment       0x0000007f       0x80 mesh/core/libmesh_core_nrf52840_xxAA.a(net_beacon.c.obj)
 .comment       0x0000007f       0x80 mesh/core/libmesh_core_nrf52840_xxAA.a(advertiser.c.obj)
 .comment       0x0000007f       0x80 mesh/core/libmesh_core_nrf52840_xxAA.a(bearer_handler.c.obj)
 .comment       0x0000007f       0x80 mesh/core/libmesh_core_nrf52840_xxAA.a(broadcast.c.obj)
 .comment       0x0000007f       0x80 mesh/core/libmesh_core_nrf52840_xxAA.a(radio_config.c.obj)
 .comment       0x0000007f       0x80 mesh/core/libmesh_core_nrf52840_xxAA.a(scanner.c.obj)
 .comment       0x0000007f       0x80 mesh/core/libmesh_core_nrf52840_xxAA.a(internal_event.c.obj)
 .comment       0x0000007f       0x80 mesh/core/libmesh_core_nrf52840_xxAA.a(aes.c.obj)
 .comment       0x0000007f       0x80 mesh/core/libmesh_core_nrf52840_xxAA.a(msg_cache.c.obj)
 .comment       0x0000007f       0x80 mesh/core/libmesh_core_nrf52840_xxAA.a(transport.c.obj)
 .comment       0x0000007f       0x80 mesh/core/libmesh_core_nrf52840_xxAA.a(packet_buffer.c.obj)
 .comment       0x0000007f       0x80 mesh/core/libmesh_core_nrf52840_xxAA.a(flash_manager_defrag.c.obj)
 .comment       0x0000007f       0x80 mesh/core/libmesh_core_nrf52840_xxAA.a(fifo.c.obj)
 .comment       0x0000007f       0x80 mesh/core/libmesh_core_nrf52840_xxAA.a(packet_mgr.c.obj)
 .comment       0x0000007f       0x80 mesh/core/libmesh_core_nrf52840_xxAA.a(mesh_flash.c.obj)
 .comment       0x0000007f       0x80 mesh/core/libmesh_core_nrf52840_xxAA.a(queue.c.obj)
 .comment       0x0000007f       0x80 mesh/core/libmesh_core_nrf52840_xxAA.a(aes_cmac.c.obj)
 .comment       0x0000007f       0x80 mesh/core/libmesh_core_nrf52840_xxAA.a(msqueue.c.obj)
 .comment       0x0000007f       0x80 mesh/core/libmesh_core_nrf52840_xxAA.a(replay_cache.c.obj)
 .comment       0x0000007f       0x80 mesh/core/libmesh_core_nrf52840_xxAA.a(filter_engine.c.obj)
 .comment       0x0000007f       0x80 mesh/core/libmesh_core_nrf52840_xxAA.a(nrf_flash.c.obj)
 .comment       0x0000007f       0x80 external/rtt/librtt_nrf52840_xxAA.a(SEGGER_RTT.c.obj)
 .comment       0x0000007f       0x80 external/rtt/librtt_nrf52840_xxAA.a(SEGGER_RTT_printf.c.obj)
 .comment       0x0000007f       0x80 external/micro-ecc/libuECC_nrf52840_xxAA.a(uECC.c.obj)

.debug_frame    0x00000000      0x2c4
 .debug_frame   0x00000000       0x28 c:/a/gcc_arm/6/bin/../lib/gcc/arm-none-eabi/6.3.1/../../../../arm-none-eabi/lib/thumb/v7e-m/fpv4-sp/hard\libc_nano.a(lib_a-exit.o)
 .debug_frame   0x00000028       0x2c c:/a/gcc_arm/6/bin/../lib/gcc/arm-none-eabi/6.3.1/../../../../arm-none-eabi/lib/thumb/v7e-m/fpv4-sp/hard\libc_nano.a(lib_a-init.o)
 .debug_frame   0x00000054       0x30 c:/a/gcc_arm/6/bin/../lib/gcc/arm-none-eabi/6.3.1/../../../../arm-none-eabi/lib/thumb/v7e-m/fpv4-sp/hard\libc_nano.a(lib_a-malloc.o)
 .debug_frame   0x00000084       0x28 c:/a/gcc_arm/6/bin/../lib/gcc/arm-none-eabi/6.3.1/../../../../arm-none-eabi/lib/thumb/v7e-m/fpv4-sp/hard\libc_nano.a(lib_a-memcmp.o)
 .debug_frame   0x000000ac       0x28 c:/a/gcc_arm/6/bin/../lib/gcc/arm-none-eabi/6.3.1/../../../../arm-none-eabi/lib/thumb/v7e-m/fpv4-sp/hard\libc_nano.a(lib_a-memcpy-stub.o)
 .debug_frame   0x000000d4       0x20 c:/a/gcc_arm/6/bin/../lib/gcc/arm-none-eabi/6.3.1/../../../../arm-none-eabi/lib/thumb/v7e-m/fpv4-sp/hard\libc_nano.a(lib_a-memset.o)
 .debug_frame   0x000000f4       0x38 c:/a/gcc_arm/6/bin/../lib/gcc/arm-none-eabi/6.3.1/../../../../arm-none-eabi/lib/thumb/v7e-m/fpv4-sp/hard\libc_nano.a(lib_a-nano-freer.o)
 .debug_frame   0x0000012c       0x2c c:/a/gcc_arm/6/bin/../lib/gcc/arm-none-eabi/6.3.1/../../../../arm-none-eabi/lib/thumb/v7e-m/fpv4-sp/hard\libc_nano.a(lib_a-nano-mallocr.o)
 .debug_frame   0x00000158       0x2c c:/a/gcc_arm/6/bin/../lib/gcc/arm-none-eabi/6.3.1/../../../../arm-none-eabi/lib/thumb/v7e-m/fpv4-sp/hard\libc_nano.a(lib_a-sbrkr.o)
 .debug_frame   0x00000184       0x20 c:/a/gcc_arm/6/bin/../lib/gcc/arm-none-eabi/6.3.1/../../../../arm-none-eabi/lib/thumb/v7e-m/fpv4-sp/hard\libc_nano.a(lib_a-strcpy.o)
 .debug_frame   0x000001a4       0x34 c:/a/gcc_arm/6/bin/../lib/gcc/arm-none-eabi/6.3.1/../../../../arm-none-eabi/lib/thumb/v7e-m/fpv4-sp/hard\libc_nano.a(lib_a-strrchr.o)
 .debug_frame   0x000001d8       0x30 c:/a/gcc_arm/6/bin/../lib/gcc/arm-none-eabi/6.3.1/../../../../arm-none-eabi/lib/thumb/v7e-m/fpv4-sp/hard\libc_nano.a(lib_a-mlock.o)
 .debug_frame   0x00000208       0x5c c:/a/gcc_arm/6/bin/../lib/gcc/arm-none-eabi/6.3.1/../../../../arm-none-eabi/lib/thumb/v7e-m/fpv4-sp/hard\libc_nano.a(lib_a-reent.o)
 .debug_frame   0x00000264       0x20 c:/a/gcc_arm/6/bin/../lib/gcc/arm-none-eabi/6.3.1/../../../../arm-none-eabi/lib/thumb/v7e-m/fpv4-sp/hard\libc_nano.a(lib_a-strchr.o)
 .debug_frame   0x00000284       0x20 c:/a/gcc_arm/6/bin/../lib/gcc/arm-none-eabi/6.3.1/../../../../arm-none-eabi/lib/thumb/v7e-m/fpv4-sp/hard\libnosys.a(sbrk.o)
 .debug_frame   0x000002a4       0x20 c:/a/gcc_arm/6/bin/../lib/gcc/arm-none-eabi/6.3.1/../../../../arm-none-eabi/lib/thumb/v7e-m/fpv4-sp/hard\libnosys.a(_exit.o)
