Archive member included to satisfy reference by file (symbol)

mesh/core/libmesh_core_nrf51422_xxAC.a(nrf_mesh_configure.c.obj)
                              examples/pb_remote/client/CMakeFiles/pb_remote_client_nrf51422_xxAC_s130_2.0.1.dir/__/__/__/mesh/prov/src/prov_beacon.c.obj (nrf_mesh_configure_device_uuid_get)
mesh/core/libmesh_core_nrf51422_xxAC.a(event.c.obj)
                              examples/pb_remote/client/CMakeFiles/pb_remote_client_nrf51422_xxAC_s130_2.0.1.dir/__/__/__/mesh/prov/src/prov_provisioner.c.obj (event_handle)
mesh/core/libmesh_core_nrf51422_xxAC.a(fifo.c.obj)
                              examples/pb_remote/client/CMakeFiles/pb_remote_client_nrf51422_xxAC_s130_2.0.1.dir/__/__/__/models/pb_remote/src/pb_remote_client.c.obj (fifo_init)
mesh/core/libmesh_core_nrf51422_xxAC.a(net_state.c.obj)
                              examples/pb_remote/client/CMakeFiles/pb_remote_client_nrf51422_xxAC_s130_2.0.1.dir/__/__/__/mesh/access/src/device_state_manager.c.obj (net_state_flash_area_get)
mesh/core/libmesh_core_nrf51422_xxAC.a(nrf_mesh_utils.c.obj)
                              examples/pb_remote/client/CMakeFiles/pb_remote_client_nrf51422_xxAC_s130_2.0.1.dir/__/__/__/mesh/prov/src/nrf_mesh_prov.c.obj (nrf_mesh_address_type_get)
mesh/core/libmesh_core_nrf51422_xxAC.a(nrf_mesh.c.obj)
                              examples/pb_remote/client/CMakeFiles/pb_remote_client_nrf51422_xxAC_s130_2.0.1.dir/__/__/nrf_mesh_sdk.c.obj (nrf_mesh_init)
mesh/core/libmesh_core_nrf51422_xxAC.a(hal.c.obj)
                              mesh/core/libmesh_core_nrf51422_xxAC.a(nrf_mesh.c.obj) (hal_lfclk_ppm_get)
mesh/core/libmesh_core_nrf51422_xxAC.a(timer_scheduler.c.obj)
                              mesh/core/libmesh_core_nrf51422_xxAC.a(nrf_mesh.c.obj) (timer_sch_init)
mesh/core/libmesh_core_nrf51422_xxAC.a(timer.c.obj)
                              mesh/core/libmesh_core_nrf51422_xxAC.a(timer_scheduler.c.obj) (timer_order_cb)
mesh/core/libmesh_core_nrf51422_xxAC.a(ticker.c.obj)
                              mesh/core/libmesh_core_nrf51422_xxAC.a(nrf_mesh.c.obj) (ticker_init)
mesh/core/libmesh_core_nrf51422_xxAC.a(rand.c.obj)
                              examples/pb_remote/client/CMakeFiles/pb_remote_client_nrf51422_xxAC_s130_2.0.1.dir/__/__/__/mesh/prov/src/prov_utils.c.obj (rand_hw_rng_get)
mesh/core/libmesh_core_nrf51422_xxAC.a(timeslot.c.obj)
                              mesh/core/libmesh_core_nrf51422_xxAC.a(nrf_mesh.c.obj) (timeslot_sd_event_handler)
mesh/core/libmesh_core_nrf51422_xxAC.a(bearer_event.c.obj)
                              mesh/core/libmesh_core_nrf51422_xxAC.a(nrf_mesh.c.obj) (bearer_event_init)
mesh/core/libmesh_core_nrf51422_xxAC.a(enc.c.obj)
                              examples/pb_remote/client/CMakeFiles/pb_remote_client_nrf51422_xxAC_s130_2.0.1.dir/__/__/__/mesh/prov/src/prov_utils.c.obj (enc_aes_cmac)
mesh/core/libmesh_core_nrf51422_xxAC.a(network.c.obj)
                              mesh/core/libmesh_core_nrf51422_xxAC.a(nrf_mesh.c.obj) (network_init)
mesh/core/libmesh_core_nrf51422_xxAC.a(nrf_mesh_keygen.c.obj)
                              examples/pb_remote/client/CMakeFiles/pb_remote_client_nrf51422_xxAC_s130_2.0.1.dir/__/__/__/mesh/access/src/device_state_manager.c.obj (nrf_mesh_keygen_aid)
mesh/core/libmesh_core_nrf51422_xxAC.a(log.c.obj)
                              examples/pb_remote/client/CMakeFiles/pb_remote_client_nrf51422_xxAC_s130_2.0.1.dir/src/main.c.obj (log_callback_rtt)
mesh/core/libmesh_core_nrf51422_xxAC.a(flash_manager.c.obj)
                              mesh/core/libmesh_core_nrf51422_xxAC.a(nrf_mesh.c.obj) (flash_manager_init)
mesh/core/libmesh_core_nrf51422_xxAC.a(ccm_soft.c.obj)
                              mesh/core/libmesh_core_nrf51422_xxAC.a(enc.c.obj) (ccm_soft_encrypt)
mesh/core/libmesh_core_nrf51422_xxAC.a(beacon.c.obj)
                              mesh/core/libmesh_core_nrf51422_xxAC.a(nrf_mesh.c.obj) (beacon_init)
mesh/core/libmesh_core_nrf51422_xxAC.a(flash_manager_internal.c.obj)
                              mesh/core/libmesh_core_nrf51422_xxAC.a(flash_manager.c.obj) (entry_get)
mesh/core/libmesh_core_nrf51422_xxAC.a(core_tx.c.obj)
                              mesh/core/libmesh_core_nrf51422_xxAC.a(nrf_mesh.c.obj) (core_tx_init)
mesh/core/libmesh_core_nrf51422_xxAC.a(net_beacon.c.obj)
                              mesh/core/libmesh_core_nrf51422_xxAC.a(network.c.obj) (net_beacon_init)
mesh/core/libmesh_core_nrf51422_xxAC.a(advertiser.c.obj)
                              mesh/core/libmesh_core_nrf51422_xxAC.a(nrf_mesh.c.obj) (advertiser_init)
mesh/core/libmesh_core_nrf51422_xxAC.a(bearer_handler.c.obj)
                              mesh/core/libmesh_core_nrf51422_xxAC.a(nrf_mesh.c.obj) (bearer_handler_init)
mesh/core/libmesh_core_nrf51422_xxAC.a(broadcast.c.obj)
                              mesh/core/libmesh_core_nrf51422_xxAC.a(advertiser.c.obj) (broadcast_send)
mesh/core/libmesh_core_nrf51422_xxAC.a(radio_config.c.obj)
                              mesh/core/libmesh_core_nrf51422_xxAC.a(broadcast.c.obj) (radio_config_reset)
mesh/core/libmesh_core_nrf51422_xxAC.a(scanner.c.obj)
                              mesh/core/libmesh_core_nrf51422_xxAC.a(bearer_handler.c.obj) (scanner_radio_start)
mesh/core/libmesh_core_nrf51422_xxAC.a(internal_event.c.obj)
                              mesh/core/libmesh_core_nrf51422_xxAC.a(network.c.obj) (internal_event_push)
mesh/core/libmesh_core_nrf51422_xxAC.a(aes.c.obj)
                              mesh/core/libmesh_core_nrf51422_xxAC.a(enc.c.obj) (aes_encrypt)
mesh/core/libmesh_core_nrf51422_xxAC.a(msg_cache.c.obj)
                              mesh/core/libmesh_core_nrf51422_xxAC.a(nrf_mesh.c.obj) (msg_cache_init)
mesh/core/libmesh_core_nrf51422_xxAC.a(transport.c.obj)
                              mesh/core/libmesh_core_nrf51422_xxAC.a(nrf_mesh.c.obj) (transport_init)
mesh/core/libmesh_core_nrf51422_xxAC.a(packet_buffer.c.obj)
                              mesh/core/libmesh_core_nrf51422_xxAC.a(flash_manager.c.obj) (packet_buffer_init)
mesh/core/libmesh_core_nrf51422_xxAC.a(flash_manager_defrag.c.obj)
                              mesh/core/libmesh_core_nrf51422_xxAC.a(flash_manager.c.obj) (flash_manager_defrag_init)
mesh/core/libmesh_core_nrf51422_xxAC.a(packet_mgr.c.obj)
                              mesh/core/libmesh_core_nrf51422_xxAC.a(nrf_mesh.c.obj) (packet_mgr_init)
mesh/core/libmesh_core_nrf51422_xxAC.a(mesh_flash.c.obj)
                              mesh/core/libmesh_core_nrf51422_xxAC.a(flash_manager.c.obj) (mesh_flash_user_callback_set)
mesh/core/libmesh_core_nrf51422_xxAC.a(queue.c.obj)
                              mesh/core/libmesh_core_nrf51422_xxAC.a(bearer_event.c.obj) (queue_init)
mesh/core/libmesh_core_nrf51422_xxAC.a(aes_cmac.c.obj)
                              mesh/core/libmesh_core_nrf51422_xxAC.a(enc.c.obj) (aes_cmac)
mesh/core/libmesh_core_nrf51422_xxAC.a(msqueue.c.obj)
                              mesh/core/libmesh_core_nrf51422_xxAC.a(mesh_flash.c.obj) (msq_get)
mesh/core/libmesh_core_nrf51422_xxAC.a(replay_cache.c.obj)
                              mesh/core/libmesh_core_nrf51422_xxAC.a(transport.c.obj) (replay_cache_add)
mesh/core/libmesh_core_nrf51422_xxAC.a(filter_engine.c.obj)
                              mesh/core/libmesh_core_nrf51422_xxAC.a(scanner.c.obj) (fen_filters_apply)
mesh/core/libmesh_core_nrf51422_xxAC.a(nrf_flash.c.obj)
                              mesh/core/libmesh_core_nrf51422_xxAC.a(mesh_flash.c.obj) (nrf_flash_erase)
external/rtt/librtt_nrf51422_xxAC.a(SEGGER_RTT.c.obj)
                              mesh/core/libmesh_core_nrf51422_xxAC.a(log.c.obj) (SEGGER_RTT_Write)
external/rtt/librtt_nrf51422_xxAC.a(SEGGER_RTT_printf.c.obj)
                              mesh/core/libmesh_core_nrf51422_xxAC.a(log.c.obj) (SEGGER_RTT_vprintf)
external/micro-ecc/libuECC_nrf51422_xxAC.a(uECC.c.obj)
                              examples/pb_remote/client/CMakeFiles/pb_remote_client_nrf51422_xxAC_s130_2.0.1.dir/__/__/__/mesh/prov/src/prov_utils.c.obj (uECC_secp256r1)
c:/a/gcc_arm/6/bin/../lib/gcc/arm-none-eabi/6.3.1/thumb/v6-m\libgcc.a(_thumb1_case_sqi.o)
                              examples/pb_remote/client/CMakeFiles/pb_remote_client_nrf51422_xxAC_s130_2.0.1.dir/__/__/__/models/pb_remote/src/pb_remote_client.c.obj (__gnu_thumb1_case_sqi)
c:/a/gcc_arm/6/bin/../lib/gcc/arm-none-eabi/6.3.1/thumb/v6-m\libgcc.a(_thumb1_case_uqi.o)
                              examples/pb_remote/client/CMakeFiles/pb_remote_client_nrf51422_xxAC_s130_2.0.1.dir/__/__/__/models/pb_remote/src/pb_remote_client.c.obj (__gnu_thumb1_case_uqi)
c:/a/gcc_arm/6/bin/../lib/gcc/arm-none-eabi/6.3.1/thumb/v6-m\libgcc.a(_thumb1_case_shi.o)
                              examples/pb_remote/client/CMakeFiles/pb_remote_client_nrf51422_xxAC_s130_2.0.1.dir/__/__/__/mesh/prov/src/prov_provisioner.c.obj (__gnu_thumb1_case_shi)
c:/a/gcc_arm/6/bin/../lib/gcc/arm-none-eabi/6.3.1/thumb/v6-m\libgcc.a(_thumb1_case_uhi.o)
                              examples/pb_remote/client/CMakeFiles/pb_remote_client_nrf51422_xxAC_s130_2.0.1.dir/src/main.c.obj (__gnu_thumb1_case_uhi)
c:/a/gcc_arm/6/bin/../lib/gcc/arm-none-eabi/6.3.1/thumb/v6-m\libgcc.a(_udivsi3.o)
                              examples/pb_remote/client/CMakeFiles/pb_remote_client_nrf51422_xxAC_s130_2.0.1.dir/__/__/__/mesh/prov/src/prov_bearer_adv.c.obj (__aeabi_uidiv)
c:/a/gcc_arm/6/bin/../lib/gcc/arm-none-eabi/6.3.1/thumb/v6-m\libgcc.a(_divsi3.o)
                              examples/pb_remote/client/CMakeFiles/pb_remote_client_nrf51422_xxAC_s130_2.0.1.dir/__/__/__/mesh/access/src/access_reliable.c.obj (__aeabi_idiv)
c:/a/gcc_arm/6/bin/../lib/gcc/arm-none-eabi/6.3.1/thumb/v6-m\libgcc.a(_dvmd_tls.o)
                              c:/a/gcc_arm/6/bin/../lib/gcc/arm-none-eabi/6.3.1/thumb/v6-m\libgcc.a(_udivsi3.o) (__aeabi_idiv0)
c:/a/gcc_arm/6/bin/../lib/gcc/arm-none-eabi/6.3.1/thumb/v6-m\libgcc.a(_muldi3.o)
                              mesh/core/libmesh_core_nrf51422_xxAC.a(timeslot.c.obj) (__aeabi_lmul)
c:/a/gcc_arm/6/bin/../lib/gcc/arm-none-eabi/6.3.1/../../../../arm-none-eabi/lib/thumb/v6-m\libc_nano.a(lib_a-exit.o)
                              c:/a/gcc_arm/6/bin/../lib/gcc/arm-none-eabi/6.3.1/../../../../arm-none-eabi/lib/thumb/v6-m/crt0.o (exit)
c:/a/gcc_arm/6/bin/../lib/gcc/arm-none-eabi/6.3.1/../../../../arm-none-eabi/lib/thumb/v6-m\libc_nano.a(lib_a-impure.o)
                              c:/a/gcc_arm/6/bin/../lib/gcc/arm-none-eabi/6.3.1/../../../../arm-none-eabi/lib/thumb/v6-m\libc_nano.a(lib_a-exit.o) (_global_impure_ptr)
c:/a/gcc_arm/6/bin/../lib/gcc/arm-none-eabi/6.3.1/../../../../arm-none-eabi/lib/thumb/v6-m\libc_nano.a(lib_a-init.o)
                              c:/a/gcc_arm/6/bin/../lib/gcc/arm-none-eabi/6.3.1/../../../../arm-none-eabi/lib/thumb/v6-m/crt0.o (__libc_init_array)
c:/a/gcc_arm/6/bin/../lib/gcc/arm-none-eabi/6.3.1/../../../../arm-none-eabi/lib/thumb/v6-m\libc_nano.a(lib_a-malloc.o)
                              mesh/core/libmesh_core_nrf51422_xxAC.a(transport.c.obj) (malloc)
c:/a/gcc_arm/6/bin/../lib/gcc/arm-none-eabi/6.3.1/../../../../arm-none-eabi/lib/thumb/v6-m\libc_nano.a(lib_a-memcmp.o)
                              examples/pb_remote/client/CMakeFiles/pb_remote_client_nrf51422_xxAC_s130_2.0.1.dir/__/__/__/mesh/prov/src/prov_utils.c.obj (memcmp)
c:/a/gcc_arm/6/bin/../lib/gcc/arm-none-eabi/6.3.1/../../../../arm-none-eabi/lib/thumb/v6-m\libc_nano.a(lib_a-memcpy-stub.o)
                              examples/pb_remote/client/CMakeFiles/pb_remote_client_nrf51422_xxAC_s130_2.0.1.dir/src/main.c.obj (memcpy)
c:/a/gcc_arm/6/bin/../lib/gcc/arm-none-eabi/6.3.1/../../../../arm-none-eabi/lib/thumb/v6-m\libc_nano.a(lib_a-memset.o)
                              c:/a/gcc_arm/6/bin/../lib/gcc/arm-none-eabi/6.3.1/../../../../arm-none-eabi/lib/thumb/v6-m/crt0.o (memset)
c:/a/gcc_arm/6/bin/../lib/gcc/arm-none-eabi/6.3.1/../../../../arm-none-eabi/lib/thumb/v6-m\libc_nano.a(lib_a-nano-freer.o)
                              c:/a/gcc_arm/6/bin/../lib/gcc/arm-none-eabi/6.3.1/../../../../arm-none-eabi/lib/thumb/v6-m\libc_nano.a(lib_a-malloc.o) (_free_r)
c:/a/gcc_arm/6/bin/../lib/gcc/arm-none-eabi/6.3.1/../../../../arm-none-eabi/lib/thumb/v6-m\libc_nano.a(lib_a-nano-mallocr.o)
                              c:/a/gcc_arm/6/bin/../lib/gcc/arm-none-eabi/6.3.1/../../../../arm-none-eabi/lib/thumb/v6-m\libc_nano.a(lib_a-malloc.o) (_malloc_r)
c:/a/gcc_arm/6/bin/../lib/gcc/arm-none-eabi/6.3.1/../../../../arm-none-eabi/lib/thumb/v6-m\libc_nano.a(lib_a-sbrkr.o)
                              c:/a/gcc_arm/6/bin/../lib/gcc/arm-none-eabi/6.3.1/../../../../arm-none-eabi/lib/thumb/v6-m\libc_nano.a(lib_a-nano-mallocr.o) (_sbrk_r)
c:/a/gcc_arm/6/bin/../lib/gcc/arm-none-eabi/6.3.1/../../../../arm-none-eabi/lib/thumb/v6-m\libc_nano.a(lib_a-strcpy.o)
                              external/rtt/librtt_nrf51422_xxAC.a(SEGGER_RTT.c.obj) (strcpy)
c:/a/gcc_arm/6/bin/../lib/gcc/arm-none-eabi/6.3.1/../../../../arm-none-eabi/lib/thumb/v6-m\libc_nano.a(lib_a-strlen.o)
                              examples/pb_remote/client/CMakeFiles/pb_remote_client_nrf51422_xxAC_s130_2.0.1.dir/__/__/__/mesh/prov/src/prov_beacon.c.obj (strlen)
c:/a/gcc_arm/6/bin/../lib/gcc/arm-none-eabi/6.3.1/../../../../arm-none-eabi/lib/thumb/v6-m\libc_nano.a(lib_a-strrchr.o)
                              examples/pb_remote/client/CMakeFiles/pb_remote_client_nrf51422_xxAC_s130_2.0.1.dir/src/main.c.obj (strrchr)
c:/a/gcc_arm/6/bin/../lib/gcc/arm-none-eabi/6.3.1/../../../../arm-none-eabi/lib/thumb/v6-m\libc_nano.a(lib_a-mlock.o)
                              c:/a/gcc_arm/6/bin/../lib/gcc/arm-none-eabi/6.3.1/../../../../arm-none-eabi/lib/thumb/v6-m\libc_nano.a(lib_a-nano-freer.o) (__malloc_lock)
c:/a/gcc_arm/6/bin/../lib/gcc/arm-none-eabi/6.3.1/../../../../arm-none-eabi/lib/thumb/v6-m\libc_nano.a(lib_a-reent.o)
                              c:/a/gcc_arm/6/bin/../lib/gcc/arm-none-eabi/6.3.1/../../../../arm-none-eabi/lib/thumb/v6-m\libc_nano.a(lib_a-sbrkr.o) (errno)
c:/a/gcc_arm/6/bin/../lib/gcc/arm-none-eabi/6.3.1/../../../../arm-none-eabi/lib/thumb/v6-m\libc_nano.a(lib_a-strchr.o)
                              c:/a/gcc_arm/6/bin/../lib/gcc/arm-none-eabi/6.3.1/../../../../arm-none-eabi/lib/thumb/v6-m\libc_nano.a(lib_a-strrchr.o) (strchr)
c:/a/gcc_arm/6/bin/../lib/gcc/arm-none-eabi/6.3.1/../../../../arm-none-eabi/lib/thumb/v6-m\libnosys.a(sbrk.o)
                              c:/a/gcc_arm/6/bin/../lib/gcc/arm-none-eabi/6.3.1/../../../../arm-none-eabi/lib/thumb/v6-m\libc_nano.a(lib_a-sbrkr.o) (_sbrk)
c:/a/gcc_arm/6/bin/../lib/gcc/arm-none-eabi/6.3.1/../../../../arm-none-eabi/lib/thumb/v6-m\libnosys.a(_exit.o)
                              c:/a/gcc_arm/6/bin/../lib/gcc/arm-none-eabi/6.3.1/../../../../arm-none-eabi/lib/thumb/v6-m\libc_nano.a(lib_a-exit.o) (_exit)

Allocating common symbols
Common symbol       size              file

nrf_nvic_state      0x8               examples/pb_remote/client/CMakeFiles/pb_remote_client_nrf51422_xxAC_s130_2.0.1.dir/__/__/nrf_mesh_sdk.c.obj
errno               0x4               c:/a/gcc_arm/6/bin/../lib/gcc/arm-none-eabi/6.3.1/../../../../arm-none-eabi/lib/thumb/v6-m\libc_nano.a(lib_a-reent.o)
m_assertion_handler
                    0x4               mesh/core/libmesh_core_nrf51422_xxAC.a(nrf_mesh.c.obj)
_SEGGER_RTT         0x78              external/rtt/librtt_nrf51422_xxAC.a(SEGGER_RTT.c.obj)

Discarded input sections

 .text          0x00000000        0x0 c:/a/gcc_arm/6/bin/../lib/gcc/arm-none-eabi/6.3.1/thumb/v6-m/crti.o
 .data          0x00000000        0x0 c:/a/gcc_arm/6/bin/../lib/gcc/arm-none-eabi/6.3.1/thumb/v6-m/crti.o
 .bss           0x00000000        0x0 c:/a/gcc_arm/6/bin/../lib/gcc/arm-none-eabi/6.3.1/thumb/v6-m/crti.o
 .data          0x00000000        0x4 c:/a/gcc_arm/6/bin/../lib/gcc/arm-none-eabi/6.3.1/thumb/v6-m/crtbegin.o
 .data          0x00000000        0x0 c:/a/gcc_arm/6/bin/../lib/gcc/arm-none-eabi/6.3.1/../../../../arm-none-eabi/lib/thumb/v6-m/crt0.o
 .bss           0x00000000        0x0 c:/a/gcc_arm/6/bin/../lib/gcc/arm-none-eabi/6.3.1/../../../../arm-none-eabi/lib/thumb/v6-m/crt0.o
 .ARM.extab     0x00000000        0x0 c:/a/gcc_arm/6/bin/../lib/gcc/arm-none-eabi/6.3.1/../../../../arm-none-eabi/lib/thumb/v6-m/crt0.o
 .text          0x00000000        0x0 examples/pb_remote/client/CMakeFiles/pb_remote_client_nrf51422_xxAC_s130_2.0.1.dir/src/main.c.obj
 .data          0x00000000        0x0 examples/pb_remote/client/CMakeFiles/pb_remote_client_nrf51422_xxAC_s130_2.0.1.dir/src/main.c.obj
 .bss           0x00000000        0x0 examples/pb_remote/client/CMakeFiles/pb_remote_client_nrf51422_xxAC_s130_2.0.1.dir/src/main.c.obj
 .text          0x00000000        0x0 examples/pb_remote/client/CMakeFiles/pb_remote_client_nrf51422_xxAC_s130_2.0.1.dir/__/__/nrf_mesh_sdk.c.obj
 .data          0x00000000        0x0 examples/pb_remote/client/CMakeFiles/pb_remote_client_nrf51422_xxAC_s130_2.0.1.dir/__/__/nrf_mesh_sdk.c.obj
 .bss           0x00000000        0x0 examples/pb_remote/client/CMakeFiles/pb_remote_client_nrf51422_xxAC_s130_2.0.1.dir/__/__/nrf_mesh_sdk.c.obj
 .text          0x00000000        0x0 examples/pb_remote/client/CMakeFiles/pb_remote_client_nrf51422_xxAC_s130_2.0.1.dir/__/__/__/models/pb_remote/src/pb_remote_client.c.obj
 .data          0x00000000        0x0 examples/pb_remote/client/CMakeFiles/pb_remote_client_nrf51422_xxAC_s130_2.0.1.dir/__/__/__/models/pb_remote/src/pb_remote_client.c.obj
 .bss           0x00000000        0x0 examples/pb_remote/client/CMakeFiles/pb_remote_client_nrf51422_xxAC_s130_2.0.1.dir/__/__/__/models/pb_remote/src/pb_remote_client.c.obj
 .text          0x00000000        0x0 examples/pb_remote/client/CMakeFiles/pb_remote_client_nrf51422_xxAC_s130_2.0.1.dir/__/__/__/mesh/prov/src/prov_provisioner.c.obj
 .data          0x00000000        0x0 examples/pb_remote/client/CMakeFiles/pb_remote_client_nrf51422_xxAC_s130_2.0.1.dir/__/__/__/mesh/prov/src/prov_provisioner.c.obj
 .bss           0x00000000        0x0 examples/pb_remote/client/CMakeFiles/pb_remote_client_nrf51422_xxAC_s130_2.0.1.dir/__/__/__/mesh/prov/src/prov_provisioner.c.obj
 .text.prov_provisioner_shared_secret
                0x00000000       0x2c examples/pb_remote/client/CMakeFiles/pb_remote_client_nrf51422_xxAC_s130_2.0.1.dir/__/__/__/mesh/prov/src/prov_provisioner.c.obj
 .text.prov_provisioner_oob_pubkey
                0x00000000       0x3c examples/pb_remote/client/CMakeFiles/pb_remote_client_nrf51422_xxAC_s130_2.0.1.dir/__/__/__/mesh/prov/src/prov_provisioner.c.obj
 .text          0x00000000        0x0 examples/pb_remote/client/CMakeFiles/pb_remote_client_nrf51422_xxAC_s130_2.0.1.dir/__/__/__/mesh/prov/src/nrf_mesh_prov.c.obj
 .data          0x00000000        0x0 examples/pb_remote/client/CMakeFiles/pb_remote_client_nrf51422_xxAC_s130_2.0.1.dir/__/__/__/mesh/prov/src/nrf_mesh_prov.c.obj
 .bss           0x00000000        0x0 examples/pb_remote/client/CMakeFiles/pb_remote_client_nrf51422_xxAC_s130_2.0.1.dir/__/__/__/mesh/prov/src/nrf_mesh_prov.c.obj
 .text.nrf_mesh_prov_listen
                0x00000000       0x26 examples/pb_remote/client/CMakeFiles/pb_remote_client_nrf51422_xxAC_s130_2.0.1.dir/__/__/__/mesh/prov/src/nrf_mesh_prov.c.obj
 .text.nrf_mesh_prov_shared_secret_provide
                0x00000000       0x1c examples/pb_remote/client/CMakeFiles/pb_remote_client_nrf51422_xxAC_s130_2.0.1.dir/__/__/__/mesh/prov/src/nrf_mesh_prov.c.obj
 .text.nrf_mesh_prov_pubkey_provide
                0x00000000       0x1c examples/pb_remote/client/CMakeFiles/pb_remote_client_nrf51422_xxAC_s130_2.0.1.dir/__/__/__/mesh/prov/src/nrf_mesh_prov.c.obj
 .text          0x00000000        0x0 examples/pb_remote/client/CMakeFiles/pb_remote_client_nrf51422_xxAC_s130_2.0.1.dir/__/__/__/mesh/prov/src/provisioning.c.obj
 .data          0x00000000        0x0 examples/pb_remote/client/CMakeFiles/pb_remote_client_nrf51422_xxAC_s130_2.0.1.dir/__/__/__/mesh/prov/src/provisioning.c.obj
 .bss           0x00000000        0x0 examples/pb_remote/client/CMakeFiles/pb_remote_client_nrf51422_xxAC_s130_2.0.1.dir/__/__/__/mesh/prov/src/provisioning.c.obj
 .text.prov_listen_start
                0x00000000       0x14 examples/pb_remote/client/CMakeFiles/pb_remote_client_nrf51422_xxAC_s130_2.0.1.dir/__/__/__/mesh/prov/src/provisioning.c.obj
 .text.prov_listen_stop
                0x00000000        0xe examples/pb_remote/client/CMakeFiles/pb_remote_client_nrf51422_xxAC_s130_2.0.1.dir/__/__/__/mesh/prov/src/provisioning.c.obj
 .text.prov_tx_capabilities
                0x00000000       0x1c examples/pb_remote/client/CMakeFiles/pb_remote_client_nrf51422_xxAC_s130_2.0.1.dir/__/__/__/mesh/prov/src/provisioning.c.obj
 .text.prov_tx_input_complete
                0x00000000       0x10 examples/pb_remote/client/CMakeFiles/pb_remote_client_nrf51422_xxAC_s130_2.0.1.dir/__/__/__/mesh/prov/src/provisioning.c.obj
 .text.prov_tx_complete
                0x00000000       0x10 examples/pb_remote/client/CMakeFiles/pb_remote_client_nrf51422_xxAC_s130_2.0.1.dir/__/__/__/mesh/prov/src/provisioning.c.obj
 .text.prov_tx_failed
                0x00000000       0x14 examples/pb_remote/client/CMakeFiles/pb_remote_client_nrf51422_xxAC_s130_2.0.1.dir/__/__/__/mesh/prov/src/provisioning.c.obj
 .text.prov_tx  0x00000000        0x8 examples/pb_remote/client/CMakeFiles/pb_remote_client_nrf51422_xxAC_s130_2.0.1.dir/__/__/__/mesh/prov/src/provisioning.c.obj
 .text          0x00000000        0x0 examples/pb_remote/client/CMakeFiles/pb_remote_client_nrf51422_xxAC_s130_2.0.1.dir/__/__/__/mesh/prov/src/prov_beacon.c.obj
 .data          0x00000000        0x0 examples/pb_remote/client/CMakeFiles/pb_remote_client_nrf51422_xxAC_s130_2.0.1.dir/__/__/__/mesh/prov/src/prov_beacon.c.obj
 .bss           0x00000000        0x0 examples/pb_remote/client/CMakeFiles/pb_remote_client_nrf51422_xxAC_s130_2.0.1.dir/__/__/__/mesh/prov/src/prov_beacon.c.obj
 .text.prov_beacon_unprov_report
                0x00000000        0xc examples/pb_remote/client/CMakeFiles/pb_remote_client_nrf51422_xxAC_s130_2.0.1.dir/__/__/__/mesh/prov/src/prov_beacon.c.obj
 .text          0x00000000        0x0 examples/pb_remote/client/CMakeFiles/pb_remote_client_nrf51422_xxAC_s130_2.0.1.dir/__/__/__/mesh/prov/src/prov_utils.c.obj
 .data          0x00000000        0x0 examples/pb_remote/client/CMakeFiles/pb_remote_client_nrf51422_xxAC_s130_2.0.1.dir/__/__/__/mesh/prov/src/prov_utils.c.obj
 .bss           0x00000000        0x0 examples/pb_remote/client/CMakeFiles/pb_remote_client_nrf51422_xxAC_s130_2.0.1.dir/__/__/__/mesh/prov/src/prov_utils.c.obj
 .text.prov_utils_opt_set
                0x00000000       0x20 examples/pb_remote/client/CMakeFiles/pb_remote_client_nrf51422_xxAC_s130_2.0.1.dir/__/__/__/mesh/prov/src/prov_utils.c.obj
 .text.prov_utils_opt_get
                0x00000000       0x1c examples/pb_remote/client/CMakeFiles/pb_remote_client_nrf51422_xxAC_s130_2.0.1.dir/__/__/__/mesh/prov/src/prov_utils.c.obj
 .text          0x00000000        0x0 examples/pb_remote/client/CMakeFiles/pb_remote_client_nrf51422_xxAC_s130_2.0.1.dir/__/__/__/mesh/prov/src/prov_bearer_adv.c.obj
 .data          0x00000000        0x0 examples/pb_remote/client/CMakeFiles/pb_remote_client_nrf51422_xxAC_s130_2.0.1.dir/__/__/__/mesh/prov/src/prov_bearer_adv.c.obj
 .bss           0x00000000        0x0 examples/pb_remote/client/CMakeFiles/pb_remote_client_nrf51422_xxAC_s130_2.0.1.dir/__/__/__/mesh/prov/src/prov_bearer_adv.c.obj
 .text          0x00000000        0x0 examples/pb_remote/client/CMakeFiles/pb_remote_client_nrf51422_xxAC_s130_2.0.1.dir/__/__/__/mesh/access/src/access_publish.c.obj
 .data          0x00000000        0x0 examples/pb_remote/client/CMakeFiles/pb_remote_client_nrf51422_xxAC_s130_2.0.1.dir/__/__/__/mesh/access/src/access_publish.c.obj
 .bss           0x00000000        0x0 examples/pb_remote/client/CMakeFiles/pb_remote_client_nrf51422_xxAC_s130_2.0.1.dir/__/__/__/mesh/access/src/access_publish.c.obj
 .text.access_publish_period_set
                0x00000000       0x84 examples/pb_remote/client/CMakeFiles/pb_remote_client_nrf51422_xxAC_s130_2.0.1.dir/__/__/__/mesh/access/src/access_publish.c.obj
 .text.access_publish_period_get
                0x00000000       0x30 examples/pb_remote/client/CMakeFiles/pb_remote_client_nrf51422_xxAC_s130_2.0.1.dir/__/__/__/mesh/access/src/access_publish.c.obj
 .text          0x00000000        0x0 examples/pb_remote/client/CMakeFiles/pb_remote_client_nrf51422_xxAC_s130_2.0.1.dir/__/__/__/mesh/access/src/access.c.obj
 .data          0x00000000        0x0 examples/pb_remote/client/CMakeFiles/pb_remote_client_nrf51422_xxAC_s130_2.0.1.dir/__/__/__/mesh/access/src/access.c.obj
 .bss           0x00000000        0x0 examples/pb_remote/client/CMakeFiles/pb_remote_client_nrf51422_xxAC_s130_2.0.1.dir/__/__/__/mesh/access/src/access.c.obj
 .text.restore_acquired_subscription
                0x00000000       0x2c examples/pb_remote/client/CMakeFiles/pb_remote_client_nrf51422_xxAC_s130_2.0.1.dir/__/__/__/mesh/access/src/access.c.obj
 .text.restore_acquired_element
                0x00000000       0x1c examples/pb_remote/client/CMakeFiles/pb_remote_client_nrf51422_xxAC_s130_2.0.1.dir/__/__/__/mesh/access/src/access.c.obj
 .text.restore_flash_data
                0x00000000       0x5c examples/pb_remote/client/CMakeFiles/pb_remote_client_nrf51422_xxAC_s130_2.0.1.dir/__/__/__/mesh/access/src/access.c.obj
 .text.access_flash_config_clear
                0x00000000       0x28 examples/pb_remote/client/CMakeFiles/pb_remote_client_nrf51422_xxAC_s130_2.0.1.dir/__/__/__/mesh/access/src/access.c.obj
 .text.access_flash_config_store
                0x00000000      0x144 examples/pb_remote/client/CMakeFiles/pb_remote_client_nrf51422_xxAC_s130_2.0.1.dir/__/__/__/mesh/access/src/access.c.obj
 .text.unlikely.bitfield_next_get.part.0.constprop.3
                0x00000000       0x34 examples/pb_remote/client/CMakeFiles/pb_remote_client_nrf51422_xxAC_s130_2.0.1.dir/__/__/__/mesh/access/src/access.c.obj
 .text.restore_acquired_model
                0x00000000       0x88 examples/pb_remote/client/CMakeFiles/pb_remote_client_nrf51422_xxAC_s130_2.0.1.dir/__/__/__/mesh/access/src/access.c.obj
 .text.access_flash_config_load
                0x00000000      0x128 examples/pb_remote/client/CMakeFiles/pb_remote_client_nrf51422_xxAC_s130_2.0.1.dir/__/__/__/mesh/access/src/access.c.obj
 .text.access_clear
                0x00000000       0x10 examples/pb_remote/client/CMakeFiles/pb_remote_client_nrf51422_xxAC_s130_2.0.1.dir/__/__/__/mesh/access/src/access.c.obj
 .text.access_model_publish_period_set
                0x00000000       0x80 examples/pb_remote/client/CMakeFiles/pb_remote_client_nrf51422_xxAC_s130_2.0.1.dir/__/__/__/mesh/access/src/access.c.obj
 .text.access_model_publish_period_get
                0x00000000       0x44 examples/pb_remote/client/CMakeFiles/pb_remote_client_nrf51422_xxAC_s130_2.0.1.dir/__/__/__/mesh/access/src/access.c.obj
 .text.access_model_subscription_list_alloc
                0x00000000       0x54 examples/pb_remote/client/CMakeFiles/pb_remote_client_nrf51422_xxAC_s130_2.0.1.dir/__/__/__/mesh/access/src/access.c.obj
 .text.access_model_subscription_lists_share
                0x00000000       0x4c examples/pb_remote/client/CMakeFiles/pb_remote_client_nrf51422_xxAC_s130_2.0.1.dir/__/__/__/mesh/access/src/access.c.obj
 .text.access_model_subscription_add
                0x00000000       0x5c examples/pb_remote/client/CMakeFiles/pb_remote_client_nrf51422_xxAC_s130_2.0.1.dir/__/__/__/mesh/access/src/access.c.obj
 .text.access_model_subscription_remove
                0x00000000       0x5c examples/pb_remote/client/CMakeFiles/pb_remote_client_nrf51422_xxAC_s130_2.0.1.dir/__/__/__/mesh/access/src/access.c.obj
 .text.access_model_subscriptions_get
                0x00000000       0x7c examples/pb_remote/client/CMakeFiles/pb_remote_client_nrf51422_xxAC_s130_2.0.1.dir/__/__/__/mesh/access/src/access.c.obj
 .text.access_model_application_unbind
                0x00000000       0x50 examples/pb_remote/client/CMakeFiles/pb_remote_client_nrf51422_xxAC_s130_2.0.1.dir/__/__/__/mesh/access/src/access.c.obj
 .text.access_model_applications_get
                0x00000000       0x54 examples/pb_remote/client/CMakeFiles/pb_remote_client_nrf51422_xxAC_s130_2.0.1.dir/__/__/__/mesh/access/src/access.c.obj
 .text.access_model_publish_application_get
                0x00000000       0x2c examples/pb_remote/client/CMakeFiles/pb_remote_client_nrf51422_xxAC_s130_2.0.1.dir/__/__/__/mesh/access/src/access.c.obj
 .text.access_default_ttl_set
                0x00000000       0x10 examples/pb_remote/client/CMakeFiles/pb_remote_client_nrf51422_xxAC_s130_2.0.1.dir/__/__/__/mesh/access/src/access.c.obj
 .text.access_default_ttl_get
                0x00000000        0xc examples/pb_remote/client/CMakeFiles/pb_remote_client_nrf51422_xxAC_s130_2.0.1.dir/__/__/__/mesh/access/src/access.c.obj
 .text.access_element_location_set
                0x00000000       0x28 examples/pb_remote/client/CMakeFiles/pb_remote_client_nrf51422_xxAC_s130_2.0.1.dir/__/__/__/mesh/access/src/access.c.obj
 .text.access_element_location_get
                0x00000000       0x1c examples/pb_remote/client/CMakeFiles/pb_remote_client_nrf51422_xxAC_s130_2.0.1.dir/__/__/__/mesh/access/src/access.c.obj
 .text.access_element_sig_model_count_get
                0x00000000       0x1c examples/pb_remote/client/CMakeFiles/pb_remote_client_nrf51422_xxAC_s130_2.0.1.dir/__/__/__/mesh/access/src/access.c.obj
 .text.access_element_vendor_model_count_get
                0x00000000       0x1c examples/pb_remote/client/CMakeFiles/pb_remote_client_nrf51422_xxAC_s130_2.0.1.dir/__/__/__/mesh/access/src/access.c.obj
 .text.access_model_id_get
                0x00000000       0x38 examples/pb_remote/client/CMakeFiles/pb_remote_client_nrf51422_xxAC_s130_2.0.1.dir/__/__/__/mesh/access/src/access.c.obj
 .text.access_handle_get
                0x00000000       0x54 examples/pb_remote/client/CMakeFiles/pb_remote_client_nrf51422_xxAC_s130_2.0.1.dir/__/__/__/mesh/access/src/access.c.obj
 .text.access_element_models_get
                0x00000000       0x60 examples/pb_remote/client/CMakeFiles/pb_remote_client_nrf51422_xxAC_s130_2.0.1.dir/__/__/__/mesh/access/src/access.c.obj
 .bss.m_metadata_stored
                0x00000000        0x1 examples/pb_remote/client/CMakeFiles/pb_remote_client_nrf51422_xxAC_s130_2.0.1.dir/__/__/__/mesh/access/src/access.c.obj
 .data.flash_clear_mem_available_struct.7932
                0x00000000       0x10 examples/pb_remote/client/CMakeFiles/pb_remote_client_nrf51422_xxAC_s130_2.0.1.dir/__/__/__/mesh/access/src/access.c.obj
 .data.flash_store_mem_available_struct.7956
                0x00000000       0x10 examples/pb_remote/client/CMakeFiles/pb_remote_client_nrf51422_xxAC_s130_2.0.1.dir/__/__/__/mesh/access/src/access.c.obj
 .rodata.multiply_de_bruijn_bit_position.6592
                0x00000000       0x20 examples/pb_remote/client/CMakeFiles/pb_remote_client_nrf51422_xxAC_s130_2.0.1.dir/__/__/__/mesh/access/src/access.c.obj
 .text          0x00000000        0x0 examples/pb_remote/client/CMakeFiles/pb_remote_client_nrf51422_xxAC_s130_2.0.1.dir/__/__/__/mesh/access/src/access_reliable.c.obj
 .data          0x00000000        0x0 examples/pb_remote/client/CMakeFiles/pb_remote_client_nrf51422_xxAC_s130_2.0.1.dir/__/__/__/mesh/access/src/access_reliable.c.obj
 .bss           0x00000000        0x0 examples/pb_remote/client/CMakeFiles/pb_remote_client_nrf51422_xxAC_s130_2.0.1.dir/__/__/__/mesh/access/src/access_reliable.c.obj
 .text.access_reliable_cancel_all
                0x00000000       0x34 examples/pb_remote/client/CMakeFiles/pb_remote_client_nrf51422_xxAC_s130_2.0.1.dir/__/__/__/mesh/access/src/access_reliable.c.obj
 .text          0x00000000        0x0 examples/pb_remote/client/CMakeFiles/pb_remote_client_nrf51422_xxAC_s130_2.0.1.dir/__/__/__/mesh/access/src/device_state_manager.c.obj
 .data          0x00000000        0x0 examples/pb_remote/client/CMakeFiles/pb_remote_client_nrf51422_xxAC_s130_2.0.1.dir/__/__/__/mesh/access/src/device_state_manager.c.obj
 .bss           0x00000000        0x0 examples/pb_remote/client/CMakeFiles/pb_remote_client_nrf51422_xxAC_s130_2.0.1.dir/__/__/__/mesh/access/src/device_state_manager.c.obj
 .text.reset_flash_area
                0x00000000       0x28 examples/pb_remote/client/CMakeFiles/pb_remote_client_nrf51422_xxAC_s130_2.0.1.dir/__/__/__/mesh/access/src/device_state_manager.c.obj
 .text.add_address_virtual
                0x00000000       0x7c examples/pb_remote/client/CMakeFiles/pb_remote_client_nrf51422_xxAC_s130_2.0.1.dir/__/__/__/mesh/access/src/device_state_manager.c.obj
 .text.address_delete_if_unused
                0x00000000       0x7c examples/pb_remote/client/CMakeFiles/pb_remote_client_nrf51422_xxAC_s130_2.0.1.dir/__/__/__/mesh/access/src/device_state_manager.c.obj
 .text.dsm_flash_config_load
                0x00000000       0xf0 examples/pb_remote/client/CMakeFiles/pb_remote_client_nrf51422_xxAC_s130_2.0.1.dir/__/__/__/mesh/access/src/device_state_manager.c.obj
 .text.dsm_has_unflashed_data
                0x00000000       0x28 examples/pb_remote/client/CMakeFiles/pb_remote_client_nrf51422_xxAC_s130_2.0.1.dir/__/__/__/mesh/access/src/device_state_manager.c.obj
 .text.dsm_clear
                0x00000000       0x68 examples/pb_remote/client/CMakeFiles/pb_remote_client_nrf51422_xxAC_s130_2.0.1.dir/__/__/__/mesh/access/src/device_state_manager.c.obj
 .text.dsm_address_publish_add_handle
                0x00000000       0x38 examples/pb_remote/client/CMakeFiles/pb_remote_client_nrf51422_xxAC_s130_2.0.1.dir/__/__/__/mesh/access/src/device_state_manager.c.obj
 .text.dsm_address_publish_virtual_add
                0x00000000        0xa examples/pb_remote/client/CMakeFiles/pb_remote_client_nrf51422_xxAC_s130_2.0.1.dir/__/__/__/mesh/access/src/device_state_manager.c.obj
 .text.dsm_address_publish_remove
                0x00000000       0x40 examples/pb_remote/client/CMakeFiles/pb_remote_client_nrf51422_xxAC_s130_2.0.1.dir/__/__/__/mesh/access/src/device_state_manager.c.obj
 .text.dsm_address_subscription_add
                0x00000000       0x14 examples/pb_remote/client/CMakeFiles/pb_remote_client_nrf51422_xxAC_s130_2.0.1.dir/__/__/__/mesh/access/src/device_state_manager.c.obj
 .text.dsm_address_subscription_virtual_add
                0x00000000        0xa examples/pb_remote/client/CMakeFiles/pb_remote_client_nrf51422_xxAC_s130_2.0.1.dir/__/__/__/mesh/access/src/device_state_manager.c.obj
 .text.dsm_address_subscription_add_handle
                0x00000000       0x38 examples/pb_remote/client/CMakeFiles/pb_remote_client_nrf51422_xxAC_s130_2.0.1.dir/__/__/__/mesh/access/src/device_state_manager.c.obj
 .text.dsm_address_subscription_count_get
                0x00000000       0x58 examples/pb_remote/client/CMakeFiles/pb_remote_client_nrf51422_xxAC_s130_2.0.1.dir/__/__/__/mesh/access/src/device_state_manager.c.obj
 .text.dsm_address_subscription_remove
                0x00000000       0x60 examples/pb_remote/client/CMakeFiles/pb_remote_client_nrf51422_xxAC_s130_2.0.1.dir/__/__/__/mesh/access/src/device_state_manager.c.obj
 .text.dsm_address_get_all
                0x00000000       0x5c examples/pb_remote/client/CMakeFiles/pb_remote_client_nrf51422_xxAC_s130_2.0.1.dir/__/__/__/mesh/access/src/device_state_manager.c.obj
 .text.dsm_net_key_index_to_subnet_handle
                0x00000000       0x1c examples/pb_remote/client/CMakeFiles/pb_remote_client_nrf51422_xxAC_s130_2.0.1.dir/__/__/__/mesh/access/src/device_state_manager.c.obj
 .text.dsm_subnet_handle_get
                0x00000000       0x14 examples/pb_remote/client/CMakeFiles/pb_remote_client_nrf51422_xxAC_s130_2.0.1.dir/__/__/__/mesh/access/src/device_state_manager.c.obj
 .text.dsm_subnet_handle_to_netkey_index
                0x00000000       0x34 examples/pb_remote/client/CMakeFiles/pb_remote_client_nrf51422_xxAC_s130_2.0.1.dir/__/__/__/mesh/access/src/device_state_manager.c.obj
 .text.dsm_app_key_index_to_appkey_handle
                0x00000000       0x1c examples/pb_remote/client/CMakeFiles/pb_remote_client_nrf51422_xxAC_s130_2.0.1.dir/__/__/__/mesh/access/src/device_state_manager.c.obj
 .text.dsm_appkey_handle_to_appkey_index
                0x00000000       0x34 examples/pb_remote/client/CMakeFiles/pb_remote_client_nrf51422_xxAC_s130_2.0.1.dir/__/__/__/mesh/access/src/device_state_manager.c.obj
 .text.dsm_subnet_update
                0x00000000       0x40 examples/pb_remote/client/CMakeFiles/pb_remote_client_nrf51422_xxAC_s130_2.0.1.dir/__/__/__/mesh/access/src/device_state_manager.c.obj
 .text.dsm_subnet_get_all
                0x00000000       0x44 examples/pb_remote/client/CMakeFiles/pb_remote_client_nrf51422_xxAC_s130_2.0.1.dir/__/__/__/mesh/access/src/device_state_manager.c.obj
 .text.dsm_devkey_delete
                0x00000000       0x44 examples/pb_remote/client/CMakeFiles/pb_remote_client_nrf51422_xxAC_s130_2.0.1.dir/__/__/__/mesh/access/src/device_state_manager.c.obj
 .text.dsm_devkey_handle_get
                0x00000000       0x30 examples/pb_remote/client/CMakeFiles/pb_remote_client_nrf51422_xxAC_s130_2.0.1.dir/__/__/__/mesh/access/src/device_state_manager.c.obj
 .text.dsm_appkey_update
                0x00000000       0x44 examples/pb_remote/client/CMakeFiles/pb_remote_client_nrf51422_xxAC_s130_2.0.1.dir/__/__/__/mesh/access/src/device_state_manager.c.obj
 .text.dsm_appkey_delete
                0x00000000       0x34 examples/pb_remote/client/CMakeFiles/pb_remote_client_nrf51422_xxAC_s130_2.0.1.dir/__/__/__/mesh/access/src/device_state_manager.c.obj
 .text.dsm_subnet_delete
                0x00000000       0xac examples/pb_remote/client/CMakeFiles/pb_remote_client_nrf51422_xxAC_s130_2.0.1.dir/__/__/__/mesh/access/src/device_state_manager.c.obj
 .text.dsm_appkey_get_all
                0x00000000       0x64 examples/pb_remote/client/CMakeFiles/pb_remote_client_nrf51422_xxAC_s130_2.0.1.dir/__/__/__/mesh/access/src/device_state_manager.c.obj
 .text.dsm_beacon_secmat_get
                0x00000000       0x34 examples/pb_remote/client/CMakeFiles/pb_remote_client_nrf51422_xxAC_s130_2.0.1.dir/__/__/__/mesh/access/src/device_state_manager.c.obj
 .text.dsm_proxy_identity_get
                0x00000000        0x4 examples/pb_remote/client/CMakeFiles/pb_remote_client_nrf51422_xxAC_s130_2.0.1.dir/__/__/__/mesh/access/src/device_state_manager.c.obj
 .data.mem_listener.8095
                0x00000000       0x10 examples/pb_remote/client/CMakeFiles/pb_remote_client_nrf51422_xxAC_s130_2.0.1.dir/__/__/__/mesh/access/src/device_state_manager.c.obj
 .text          0x00000000        0x0 examples/pb_remote/client/CMakeFiles/pb_remote_client_nrf51422_xxAC_s130_2.0.1.dir/__/__/nrf_mesh_weak.c.obj
 .data          0x00000000        0x0 examples/pb_remote/client/CMakeFiles/pb_remote_client_nrf51422_xxAC_s130_2.0.1.dir/__/__/nrf_mesh_weak.c.obj
 .bss           0x00000000        0x0 examples/pb_remote/client/CMakeFiles/pb_remote_client_nrf51422_xxAC_s130_2.0.1.dir/__/__/nrf_mesh_weak.c.obj
 .text._weak_handler_ptr
                0x00000000        0x4 examples/pb_remote/client/CMakeFiles/pb_remote_client_nrf51422_xxAC_s130_2.0.1.dir/__/__/nrf_mesh_weak.c.obj
 .text          0x00000000        0x0 examples/pb_remote/client/CMakeFiles/pb_remote_client_nrf51422_xxAC_s130_2.0.1.dir/__/__/__/external/nRF5_SDK_14.0.0_3bcc1f7/components/toolchain/system_nrf51.c.obj
 .data          0x00000000        0x0 examples/pb_remote/client/CMakeFiles/pb_remote_client_nrf51422_xxAC_s130_2.0.1.dir/__/__/__/external/nRF5_SDK_14.0.0_3bcc1f7/components/toolchain/system_nrf51.c.obj
 .bss           0x00000000        0x0 examples/pb_remote/client/CMakeFiles/pb_remote_client_nrf51422_xxAC_s130_2.0.1.dir/__/__/__/external/nRF5_SDK_14.0.0_3bcc1f7/components/toolchain/system_nrf51.c.obj
 .text.SystemCoreClockUpdate
                0x00000000       0x10 examples/pb_remote/client/CMakeFiles/pb_remote_client_nrf51422_xxAC_s130_2.0.1.dir/__/__/__/external/nRF5_SDK_14.0.0_3bcc1f7/components/toolchain/system_nrf51.c.obj
 .data.SystemCoreClock
                0x00000000        0x4 examples/pb_remote/client/CMakeFiles/pb_remote_client_nrf51422_xxAC_s130_2.0.1.dir/__/__/__/external/nRF5_SDK_14.0.0_3bcc1f7/components/toolchain/system_nrf51.c.obj
 .data          0x00000000        0x0 examples/pb_remote/client/CMakeFiles/pb_remote_client_nrf51422_xxAC_s130_2.0.1.dir/__/__/__/external/nRF5_SDK_14.0.0_3bcc1f7/components/toolchain/gcc/gcc_startup_nrf51.S.obj
 .bss           0x00000000        0x0 examples/pb_remote/client/CMakeFiles/pb_remote_client_nrf51422_xxAC_s130_2.0.1.dir/__/__/__/external/nRF5_SDK_14.0.0_3bcc1f7/components/toolchain/gcc/gcc_startup_nrf51.S.obj
 .text          0x00000000        0x0 mesh/core/libmesh_core_nrf51422_xxAC.a(nrf_mesh_configure.c.obj)
 .data          0x00000000        0x0 mesh/core/libmesh_core_nrf51422_xxAC.a(nrf_mesh_configure.c.obj)
 .bss           0x00000000        0x0 mesh/core/libmesh_core_nrf51422_xxAC.a(nrf_mesh_configure.c.obj)
 .text.nrf_mesh_configure_device_uuid_set
                0x00000000       0x14 mesh/core/libmesh_core_nrf51422_xxAC.a(nrf_mesh_configure.c.obj)
 .text          0x00000000        0x0 mesh/core/libmesh_core_nrf51422_xxAC.a(event.c.obj)
 .data          0x00000000        0x0 mesh/core/libmesh_core_nrf51422_xxAC.a(event.c.obj)
 .bss           0x00000000        0x0 mesh/core/libmesh_core_nrf51422_xxAC.a(event.c.obj)
 .text.event_handler_remove
                0x00000000       0x58 mesh/core/libmesh_core_nrf51422_xxAC.a(event.c.obj)
 .text          0x00000000        0x0 mesh/core/libmesh_core_nrf51422_xxAC.a(fifo.c.obj)
 .data          0x00000000        0x0 mesh/core/libmesh_core_nrf51422_xxAC.a(fifo.c.obj)
 .bss           0x00000000        0x0 mesh/core/libmesh_core_nrf51422_xxAC.a(fifo.c.obj)
 .text.fifo_peek_at
                0x00000000       0x5a mesh/core/libmesh_core_nrf51422_xxAC.a(fifo.c.obj)
 .text.fifo_peek
                0x00000000        0xa mesh/core/libmesh_core_nrf51422_xxAC.a(fifo.c.obj)
 .text.fifo_flush
                0x00000000        0x6 mesh/core/libmesh_core_nrf51422_xxAC.a(fifo.c.obj)
 .text.fifo_get_len
                0x00000000        0x8 mesh/core/libmesh_core_nrf51422_xxAC.a(fifo.c.obj)
 .text.fifo_is_full
                0x00000000       0x12 mesh/core/libmesh_core_nrf51422_xxAC.a(fifo.c.obj)
 .text.fifo_is_empty
                0x00000000        0xe mesh/core/libmesh_core_nrf51422_xxAC.a(fifo.c.obj)
 .text          0x00000000        0x0 mesh/core/libmesh_core_nrf51422_xxAC.a(net_state.c.obj)
 .data          0x00000000        0x0 mesh/core/libmesh_core_nrf51422_xxAC.a(net_state.c.obj)
 .bss           0x00000000        0x0 mesh/core/libmesh_core_nrf51422_xxAC.a(net_state.c.obj)
 .text.net_state_reset
                0x00000000       0x3c mesh/core/libmesh_core_nrf51422_xxAC.a(net_state.c.obj)
 .text.net_state_iv_update_test_mode_set
                0x00000000        0xc mesh/core/libmesh_core_nrf51422_xxAC.a(net_state.c.obj)
 .data.mem_listener.7351
                0x00000000       0x10 mesh/core/libmesh_core_nrf51422_xxAC.a(net_state.c.obj)
 .text          0x00000000        0x0 mesh/core/libmesh_core_nrf51422_xxAC.a(nrf_mesh_utils.c.obj)
 .data          0x00000000        0x0 mesh/core/libmesh_core_nrf51422_xxAC.a(nrf_mesh_utils.c.obj)
 .bss           0x00000000        0x0 mesh/core/libmesh_core_nrf51422_xxAC.a(nrf_mesh_utils.c.obj)
 .text.nrf_mesh_rand_get
                0x00000000       0x14 mesh/core/libmesh_core_nrf51422_xxAC.a(nrf_mesh_utils.c.obj)
 .text.nrf_mesh_gap_address_type_get
                0x00000000       0x40 mesh/core/libmesh_core_nrf51422_xxAC.a(nrf_mesh_utils.c.obj)
 .text          0x00000000        0x0 mesh/core/libmesh_core_nrf51422_xxAC.a(nrf_mesh.c.obj)
 .data          0x00000000        0x0 mesh/core/libmesh_core_nrf51422_xxAC.a(nrf_mesh.c.obj)
 .bss           0x00000000        0x0 mesh/core/libmesh_core_nrf51422_xxAC.a(nrf_mesh.c.obj)
 .text.nrf_mesh_disable
                0x00000000       0x28 mesh/core/libmesh_core_nrf51422_xxAC.a(nrf_mesh.c.obj)
 .text.nrf_mesh_evt_handler_remove
                0x00000000        0x8 mesh/core/libmesh_core_nrf51422_xxAC.a(nrf_mesh.c.obj)
 .text.nrf_mesh_rx_cb_set
                0x00000000        0xc mesh/core/libmesh_core_nrf51422_xxAC.a(nrf_mesh.c.obj)
 .text.nrf_mesh_rx_cb_clear
                0x00000000        0xc mesh/core/libmesh_core_nrf51422_xxAC.a(nrf_mesh.c.obj)
 .text          0x00000000        0x0 mesh/core/libmesh_core_nrf51422_xxAC.a(hal.c.obj)
 .data          0x00000000        0x0 mesh/core/libmesh_core_nrf51422_xxAC.a(hal.c.obj)
 .bss           0x00000000        0x0 mesh/core/libmesh_core_nrf51422_xxAC.a(hal.c.obj)
 .text.sd_power_reset_reason_clr
                0x00000000        0x4 mesh/core/libmesh_core_nrf51422_xxAC.a(hal.c.obj)
 .text.sd_power_gpregret_set
                0x00000000        0x4 mesh/core/libmesh_core_nrf51422_xxAC.a(hal.c.obj)
 .text.hal_device_reset
                0x00000000       0x2c mesh/core/libmesh_core_nrf51422_xxAC.a(hal.c.obj)
 .text          0x00000000        0x0 mesh/core/libmesh_core_nrf51422_xxAC.a(timer_scheduler.c.obj)
 .data          0x00000000        0x0 mesh/core/libmesh_core_nrf51422_xxAC.a(timer_scheduler.c.obj)
 .bss           0x00000000        0x0 mesh/core/libmesh_core_nrf51422_xxAC.a(timer_scheduler.c.obj)
 .text          0x00000000        0x0 mesh/core/libmesh_core_nrf51422_xxAC.a(timer.c.obj)
 .data          0x00000000        0x0 mesh/core/libmesh_core_nrf51422_xxAC.a(timer.c.obj)
 .bss           0x00000000        0x0 mesh/core/libmesh_core_nrf51422_xxAC.a(timer.c.obj)
 .text.timer_order_cb_ppi
                0x00000000       0xc4 mesh/core/libmesh_core_nrf51422_xxAC.a(timer.c.obj)
 .text.timer_order_ppi
                0x00000000       0x80 mesh/core/libmesh_core_nrf51422_xxAC.a(timer.c.obj)
 .text.timer_abort
                0x00000000       0x7c mesh/core/libmesh_core_nrf51422_xxAC.a(timer.c.obj)
 .text          0x00000000        0x0 mesh/core/libmesh_core_nrf51422_xxAC.a(ticker.c.obj)
 .data          0x00000000        0x0 mesh/core/libmesh_core_nrf51422_xxAC.a(ticker.c.obj)
 .bss           0x00000000        0x0 mesh/core/libmesh_core_nrf51422_xxAC.a(ticker.c.obj)
 .text.ticker_get
                0x00000000        0xc mesh/core/libmesh_core_nrf51422_xxAC.a(ticker.c.obj)
 .text          0x00000000        0x0 mesh/core/libmesh_core_nrf51422_xxAC.a(rand.c.obj)
 .data          0x00000000        0x0 mesh/core/libmesh_core_nrf51422_xxAC.a(rand.c.obj)
 .bss           0x00000000        0x0 mesh/core/libmesh_core_nrf51422_xxAC.a(rand.c.obj)
 .text          0x00000000        0x0 mesh/core/libmesh_core_nrf51422_xxAC.a(timeslot.c.obj)
 .data          0x00000000        0x0 mesh/core/libmesh_core_nrf51422_xxAC.a(timeslot.c.obj)
 .bss           0x00000000        0x0 mesh/core/libmesh_core_nrf51422_xxAC.a(timeslot.c.obj)
 .text.timeslot_end_time_get
                0x00000000       0x18 mesh/core/libmesh_core_nrf51422_xxAC.a(timeslot.c.obj)
 .text.timeslot_is_in_ts
                0x00000000        0xc mesh/core/libmesh_core_nrf51422_xxAC.a(timeslot.c.obj)
 .text.timeslot_restart
                0x00000000       0x14 mesh/core/libmesh_core_nrf51422_xxAC.a(timeslot.c.obj)
 .text          0x00000000        0x0 mesh/core/libmesh_core_nrf51422_xxAC.a(bearer_event.c.obj)
 .data          0x00000000        0x0 mesh/core/libmesh_core_nrf51422_xxAC.a(bearer_event.c.obj)
 .bss           0x00000000        0x0 mesh/core/libmesh_core_nrf51422_xxAC.a(bearer_event.c.obj)
 .text.bearer_event_generic_post
                0x00000000       0x34 mesh/core/libmesh_core_nrf51422_xxAC.a(bearer_event.c.obj)
 .text.bearer_event_timer_sch_post
                0x00000000       0x38 mesh/core/libmesh_core_nrf51422_xxAC.a(bearer_event.c.obj)
 .text          0x00000000        0x0 mesh/core/libmesh_core_nrf51422_xxAC.a(enc.c.obj)
 .data          0x00000000        0x0 mesh/core/libmesh_core_nrf51422_xxAC.a(enc.c.obj)
 .bss           0x00000000        0x0 mesh/core/libmesh_core_nrf51422_xxAC.a(enc.c.obj)
 .text.enc_key_generate
                0x00000000        0xa mesh/core/libmesh_core_nrf51422_xxAC.a(enc.c.obj)
 .text          0x00000000        0x0 mesh/core/libmesh_core_nrf51422_xxAC.a(network.c.obj)
 .data          0x00000000        0x0 mesh/core/libmesh_core_nrf51422_xxAC.a(network.c.obj)
 .bss           0x00000000        0x0 mesh/core/libmesh_core_nrf51422_xxAC.a(network.c.obj)
 .text.network_opt_set
                0x00000000       0x50 mesh/core/libmesh_core_nrf51422_xxAC.a(network.c.obj)
 .text.network_opt_get
                0x00000000       0x48 mesh/core/libmesh_core_nrf51422_xxAC.a(network.c.obj)
 .text.network_packet_discard
                0x00000000       0x40 mesh/core/libmesh_core_nrf51422_xxAC.a(network.c.obj)
 .text          0x00000000        0x0 mesh/core/libmesh_core_nrf51422_xxAC.a(nrf_mesh_keygen.c.obj)
 .data          0x00000000        0x0 mesh/core/libmesh_core_nrf51422_xxAC.a(nrf_mesh_keygen.c.obj)
 .bss           0x00000000        0x0 mesh/core/libmesh_core_nrf51422_xxAC.a(nrf_mesh_keygen.c.obj)
 .text.nrf_mesh_keygen_identitykey
                0x00000000       0x4c mesh/core/libmesh_core_nrf51422_xxAC.a(nrf_mesh_keygen.c.obj)
 .text          0x00000000        0x0 mesh/core/libmesh_core_nrf51422_xxAC.a(log.c.obj)
 .data          0x00000000        0x0 mesh/core/libmesh_core_nrf51422_xxAC.a(log.c.obj)
 .bss           0x00000000        0x0 mesh/core/libmesh_core_nrf51422_xxAC.a(log.c.obj)
 .text.log_callback_logview
                0x00000000       0x34 mesh/core/libmesh_core_nrf51422_xxAC.a(log.c.obj)
 .text.log_set_callback
                0x00000000        0xc mesh/core/libmesh_core_nrf51422_xxAC.a(log.c.obj)
 .rodata.log_callback_logview.str1.1
                0x00000000        0xf mesh/core/libmesh_core_nrf51422_xxAC.a(log.c.obj)
 .text          0x00000000        0x0 mesh/core/libmesh_core_nrf51422_xxAC.a(flash_manager.c.obj)
 .data          0x00000000        0x0 mesh/core/libmesh_core_nrf51422_xxAC.a(flash_manager.c.obj)
 .bss           0x00000000        0x0 mesh/core/libmesh_core_nrf51422_xxAC.a(flash_manager.c.obj)
 .text.flash_manager_remove
                0x00000000       0x24 mesh/core/libmesh_core_nrf51422_xxAC.a(flash_manager.c.obj)
 .text.flash_manager_entry_get
                0x00000000       0x4c mesh/core/libmesh_core_nrf51422_xxAC.a(flash_manager.c.obj)
 .text.flash_manager_entry_count_get
                0x00000000       0x5c mesh/core/libmesh_core_nrf51422_xxAC.a(flash_manager.c.obj)
 .text.flash_manager_entry_release
                0x00000000       0x10 mesh/core/libmesh_core_nrf51422_xxAC.a(flash_manager.c.obj)
 .text          0x00000000        0x0 mesh/core/libmesh_core_nrf51422_xxAC.a(ccm_soft.c.obj)
 .data          0x00000000        0x0 mesh/core/libmesh_core_nrf51422_xxAC.a(ccm_soft.c.obj)
 .bss           0x00000000        0x0 mesh/core/libmesh_core_nrf51422_xxAC.a(ccm_soft.c.obj)
 .text          0x00000000        0x0 mesh/core/libmesh_core_nrf51422_xxAC.a(beacon.c.obj)
 .data          0x00000000        0x0 mesh/core/libmesh_core_nrf51422_xxAC.a(beacon.c.obj)
 .bss           0x00000000        0x0 mesh/core/libmesh_core_nrf51422_xxAC.a(beacon.c.obj)
 .text          0x00000000        0x0 mesh/core/libmesh_core_nrf51422_xxAC.a(flash_manager_internal.c.obj)
 .data          0x00000000        0x0 mesh/core/libmesh_core_nrf51422_xxAC.a(flash_manager_internal.c.obj)
 .bss           0x00000000        0x0 mesh/core/libmesh_core_nrf51422_xxAC.a(flash_manager_internal.c.obj)
 .text          0x00000000        0x0 mesh/core/libmesh_core_nrf51422_xxAC.a(core_tx.c.obj)
 .data          0x00000000        0x0 mesh/core/libmesh_core_nrf51422_xxAC.a(core_tx.c.obj)
 .bss           0x00000000        0x0 mesh/core/libmesh_core_nrf51422_xxAC.a(core_tx.c.obj)
 .text.core_tx_adv_count_set
                0x00000000       0x40 mesh/core/libmesh_core_nrf51422_xxAC.a(core_tx.c.obj)
 .text.core_tx_adv_count_get
                0x00000000       0x2c mesh/core/libmesh_core_nrf51422_xxAC.a(core_tx.c.obj)
 .text.core_tx_adv_interval_set
                0x00000000       0x34 mesh/core/libmesh_core_nrf51422_xxAC.a(core_tx.c.obj)
 .text.core_tx_adv_interval_get
                0x00000000       0x34 mesh/core/libmesh_core_nrf51422_xxAC.a(core_tx.c.obj)
 .text.core_tx_adv_address_set
                0x00000000       0x34 mesh/core/libmesh_core_nrf51422_xxAC.a(core_tx.c.obj)
 .text          0x00000000        0x0 mesh/core/libmesh_core_nrf51422_xxAC.a(net_beacon.c.obj)
 .data          0x00000000        0x0 mesh/core/libmesh_core_nrf51422_xxAC.a(net_beacon.c.obj)
 .bss           0x00000000        0x0 mesh/core/libmesh_core_nrf51422_xxAC.a(net_beacon.c.obj)
 .text.net_beacon_state_set
                0x00000000       0x38 mesh/core/libmesh_core_nrf51422_xxAC.a(net_beacon.c.obj)
 .text.net_beacon_state_get
                0x00000000        0xc mesh/core/libmesh_core_nrf51422_xxAC.a(net_beacon.c.obj)
 .text          0x00000000        0x0 mesh/core/libmesh_core_nrf51422_xxAC.a(advertiser.c.obj)
 .data          0x00000000        0x0 mesh/core/libmesh_core_nrf51422_xxAC.a(advertiser.c.obj)
 .bss           0x00000000        0x0 mesh/core/libmesh_core_nrf51422_xxAC.a(advertiser.c.obj)
 .text.advertiser_disable
                0x00000000        0xe mesh/core/libmesh_core_nrf51422_xxAC.a(advertiser.c.obj)
 .text.advertiser_channels_set
                0x00000000       0x94 mesh/core/libmesh_core_nrf51422_xxAC.a(advertiser.c.obj)
 .text.advertiser_address_set
                0x00000000       0x58 mesh/core/libmesh_core_nrf51422_xxAC.a(advertiser.c.obj)
 .text.advertiser_config_set
                0x00000000       0x48 mesh/core/libmesh_core_nrf51422_xxAC.a(advertiser.c.obj)
 .text.advertiser_config_get
                0x00000000       0x30 mesh/core/libmesh_core_nrf51422_xxAC.a(advertiser.c.obj)
 .text          0x00000000        0x0 mesh/core/libmesh_core_nrf51422_xxAC.a(bearer_handler.c.obj)
 .data          0x00000000        0x0 mesh/core/libmesh_core_nrf51422_xxAC.a(bearer_handler.c.obj)
 .bss           0x00000000        0x0 mesh/core/libmesh_core_nrf51422_xxAC.a(bearer_handler.c.obj)
 .text.bearer_handler_stop
                0x00000000       0x20 mesh/core/libmesh_core_nrf51422_xxAC.a(bearer_handler.c.obj)
 .text.bearer_handler_action_fire
                0x00000000       0xc0 mesh/core/libmesh_core_nrf51422_xxAC.a(bearer_handler.c.obj)
 .text          0x00000000        0x0 mesh/core/libmesh_core_nrf51422_xxAC.a(broadcast.c.obj)
 .data          0x00000000        0x0 mesh/core/libmesh_core_nrf51422_xxAC.a(broadcast.c.obj)
 .bss           0x00000000        0x0 mesh/core/libmesh_core_nrf51422_xxAC.a(broadcast.c.obj)
 .text          0x00000000        0x0 mesh/core/libmesh_core_nrf51422_xxAC.a(radio_config.c.obj)
 .data          0x00000000        0x0 mesh/core/libmesh_core_nrf51422_xxAC.a(radio_config.c.obj)
 .bss           0x00000000        0x0 mesh/core/libmesh_core_nrf51422_xxAC.a(radio_config.c.obj)
 .text.radio_config_access_addr_get
                0x00000000       0x78 mesh/core/libmesh_core_nrf51422_xxAC.a(radio_config.c.obj)
 .text          0x00000000        0x0 mesh/core/libmesh_core_nrf51422_xxAC.a(scanner.c.obj)
 .data          0x00000000        0x0 mesh/core/libmesh_core_nrf51422_xxAC.a(scanner.c.obj)
 .bss           0x00000000        0x0 mesh/core/libmesh_core_nrf51422_xxAC.a(scanner.c.obj)
 .text.scanner_disable
                0x00000000       0x44 mesh/core/libmesh_core_nrf51422_xxAC.a(scanner.c.obj)
 .text.scanner_is_enabled
                0x00000000       0x14 mesh/core/libmesh_core_nrf51422_xxAC.a(scanner.c.obj)
 .text.scanner_stats_get
                0x00000000        0xc mesh/core/libmesh_core_nrf51422_xxAC.a(scanner.c.obj)
 .text.scanner_config_radio_mode_set
                0x00000000       0x10 mesh/core/libmesh_core_nrf51422_xxAC.a(scanner.c.obj)
 .text          0x00000000        0x0 mesh/core/libmesh_core_nrf51422_xxAC.a(internal_event.c.obj)
 .data          0x00000000        0x0 mesh/core/libmesh_core_nrf51422_xxAC.a(internal_event.c.obj)
 .bss           0x00000000        0x0 mesh/core/libmesh_core_nrf51422_xxAC.a(internal_event.c.obj)
 .text.internal_event_init
                0x00000000       0x40 mesh/core/libmesh_core_nrf51422_xxAC.a(internal_event.c.obj)
 .text.internal_event_pop
                0x00000000       0x20 mesh/core/libmesh_core_nrf51422_xxAC.a(internal_event.c.obj)
 .bss.m_internal_event_fifo_buffer
                0x00000000      0x100 mesh/core/libmesh_core_nrf51422_xxAC.a(internal_event.c.obj)
 .text          0x00000000        0x0 mesh/core/libmesh_core_nrf51422_xxAC.a(aes.c.obj)
 .data          0x00000000        0x0 mesh/core/libmesh_core_nrf51422_xxAC.a(aes.c.obj)
 .bss           0x00000000        0x0 mesh/core/libmesh_core_nrf51422_xxAC.a(aes.c.obj)
 .text          0x00000000        0x0 mesh/core/libmesh_core_nrf51422_xxAC.a(msg_cache.c.obj)
 .data          0x00000000        0x0 mesh/core/libmesh_core_nrf51422_xxAC.a(msg_cache.c.obj)
 .bss           0x00000000        0x0 mesh/core/libmesh_core_nrf51422_xxAC.a(msg_cache.c.obj)
 .text.msg_cache_clear
                0x00000000       0x18 mesh/core/libmesh_core_nrf51422_xxAC.a(msg_cache.c.obj)
 .text          0x00000000        0x0 mesh/core/libmesh_core_nrf51422_xxAC.a(transport.c.obj)
 .data          0x00000000        0x0 mesh/core/libmesh_core_nrf51422_xxAC.a(transport.c.obj)
 .bss           0x00000000        0x0 mesh/core/libmesh_core_nrf51422_xxAC.a(transport.c.obj)
 .text.transport_sar_mem_funcs_set
                0x00000000       0x3c mesh/core/libmesh_core_nrf51422_xxAC.a(transport.c.obj)
 .text.transport_opt_set
                0x00000000       0xcc mesh/core/libmesh_core_nrf51422_xxAC.a(transport.c.obj)
 .text.transport_opt_get
                0x00000000       0x58 mesh/core/libmesh_core_nrf51422_xxAC.a(transport.c.obj)
 .text          0x00000000        0x0 mesh/core/libmesh_core_nrf51422_xxAC.a(packet_buffer.c.obj)
 .data          0x00000000        0x0 mesh/core/libmesh_core_nrf51422_xxAC.a(packet_buffer.c.obj)
 .bss           0x00000000        0x0 mesh/core/libmesh_core_nrf51422_xxAC.a(packet_buffer.c.obj)
 .text.packet_buffer_max_packet_len_get
                0x00000000       0x38 mesh/core/libmesh_core_nrf51422_xxAC.a(packet_buffer.c.obj)
 .text          0x00000000        0x0 mesh/core/libmesh_core_nrf51422_xxAC.a(flash_manager_defrag.c.obj)
 .data          0x00000000        0x0 mesh/core/libmesh_core_nrf51422_xxAC.a(flash_manager_defrag.c.obj)
 .bss           0x00000000        0x0 mesh/core/libmesh_core_nrf51422_xxAC.a(flash_manager_defrag.c.obj)
 .text.flash_manager_defragging
                0x00000000       0x44 mesh/core/libmesh_core_nrf51422_xxAC.a(flash_manager_defrag.c.obj)
 .text          0x00000000        0x0 mesh/core/libmesh_core_nrf51422_xxAC.a(packet_mgr.c.obj)
 .data          0x00000000        0x0 mesh/core/libmesh_core_nrf51422_xxAC.a(packet_mgr.c.obj)
 .bss           0x00000000        0x0 mesh/core/libmesh_core_nrf51422_xxAC.a(packet_mgr.c.obj)
 .text.packet_mgr_alloc
                0x00000000      0x18c mesh/core/libmesh_core_nrf51422_xxAC.a(packet_mgr.c.obj)
 .text.packet_mgr_free
                0x00000000       0x6c mesh/core/libmesh_core_nrf51422_xxAC.a(packet_mgr.c.obj)
 .text.packet_mgr_get_free_space
                0x00000000       0x1c mesh/core/libmesh_core_nrf51422_xxAC.a(packet_mgr.c.obj)
 .text.packet_mgr_refcount_get
                0x00000000        0x6 mesh/core/libmesh_core_nrf51422_xxAC.a(packet_mgr.c.obj)
 .text.packet_mgr_size_get
                0x00000000        0x6 mesh/core/libmesh_core_nrf51422_xxAC.a(packet_mgr.c.obj)
 .text          0x00000000        0x0 mesh/core/libmesh_core_nrf51422_xxAC.a(mesh_flash.c.obj)
 .data          0x00000000        0x0 mesh/core/libmesh_core_nrf51422_xxAC.a(mesh_flash.c.obj)
 .bss           0x00000000        0x0 mesh/core/libmesh_core_nrf51422_xxAC.a(mesh_flash.c.obj)
 .text.mesh_flash_op_available_slots
                0x00000000       0x2c mesh/core/libmesh_core_nrf51422_xxAC.a(mesh_flash.c.obj)
 .text.mesh_flash_in_progress
                0x00000000       0x38 mesh/core/libmesh_core_nrf51422_xxAC.a(mesh_flash.c.obj)
 .text.mesh_flash_set_suspended
                0x00000000       0x90 mesh/core/libmesh_core_nrf51422_xxAC.a(mesh_flash.c.obj)
 .bss.suspend_count.7471
                0x00000000        0x4 mesh/core/libmesh_core_nrf51422_xxAC.a(mesh_flash.c.obj)
 .text          0x00000000        0x0 mesh/core/libmesh_core_nrf51422_xxAC.a(queue.c.obj)
 .data          0x00000000        0x0 mesh/core/libmesh_core_nrf51422_xxAC.a(queue.c.obj)
 .bss           0x00000000        0x0 mesh/core/libmesh_core_nrf51422_xxAC.a(queue.c.obj)
 .text          0x00000000        0x0 mesh/core/libmesh_core_nrf51422_xxAC.a(aes_cmac.c.obj)
 .data          0x00000000        0x0 mesh/core/libmesh_core_nrf51422_xxAC.a(aes_cmac.c.obj)
 .bss           0x00000000        0x0 mesh/core/libmesh_core_nrf51422_xxAC.a(aes_cmac.c.obj)
 .text          0x00000000        0x0 mesh/core/libmesh_core_nrf51422_xxAC.a(msqueue.c.obj)
 .data          0x00000000        0x0 mesh/core/libmesh_core_nrf51422_xxAC.a(msqueue.c.obj)
 .bss           0x00000000        0x0 mesh/core/libmesh_core_nrf51422_xxAC.a(msqueue.c.obj)
 .text          0x00000000        0x0 mesh/core/libmesh_core_nrf51422_xxAC.a(replay_cache.c.obj)
 .data          0x00000000        0x0 mesh/core/libmesh_core_nrf51422_xxAC.a(replay_cache.c.obj)
 .bss           0x00000000        0x0 mesh/core/libmesh_core_nrf51422_xxAC.a(replay_cache.c.obj)
 .text.replay_cache_on_iv_update
                0x00000000       0x28 mesh/core/libmesh_core_nrf51422_xxAC.a(replay_cache.c.obj)
 .text          0x00000000        0x0 mesh/core/libmesh_core_nrf51422_xxAC.a(filter_engine.c.obj)
 .data          0x00000000        0x0 mesh/core/libmesh_core_nrf51422_xxAC.a(filter_engine.c.obj)
 .bss           0x00000000        0x0 mesh/core/libmesh_core_nrf51422_xxAC.a(filter_engine.c.obj)
 .text.fen_filter_start
                0x00000000       0x74 mesh/core/libmesh_core_nrf51422_xxAC.a(filter_engine.c.obj)
 .text.fen_filter_stop
                0x00000000       0x58 mesh/core/libmesh_core_nrf51422_xxAC.a(filter_engine.c.obj)
 .text.fen_accepted_amount_get
                0x00000000        0xc mesh/core/libmesh_core_nrf51422_xxAC.a(filter_engine.c.obj)
 .text          0x00000000        0x0 mesh/core/libmesh_core_nrf51422_xxAC.a(nrf_flash.c.obj)
 .data          0x00000000        0x0 mesh/core/libmesh_core_nrf51422_xxAC.a(nrf_flash.c.obj)
 .bss           0x00000000        0x0 mesh/core/libmesh_core_nrf51422_xxAC.a(nrf_flash.c.obj)
 .text          0x00000000        0x0 external/rtt/librtt_nrf51422_xxAC.a(SEGGER_RTT.c.obj)
 .data          0x00000000        0x0 external/rtt/librtt_nrf51422_xxAC.a(SEGGER_RTT.c.obj)
 .bss           0x00000000        0x0 external/rtt/librtt_nrf51422_xxAC.a(SEGGER_RTT.c.obj)
 .text._PostTerminalSwitch.constprop.0
                0x00000000       0x20 external/rtt/librtt_nrf51422_xxAC.a(SEGGER_RTT.c.obj)
 .text.SEGGER_RTT_WriteSkipNoLock
                0x00000000       0xb0 external/rtt/librtt_nrf51422_xxAC.a(SEGGER_RTT.c.obj)
 .text.SEGGER_RTT_WriteString
                0x00000000       0x18 external/rtt/librtt_nrf51422_xxAC.a(SEGGER_RTT.c.obj)
 .text.SEGGER_RTT_WaitKey
                0x00000000        0xc external/rtt/librtt_nrf51422_xxAC.a(SEGGER_RTT.c.obj)
 .text.SEGGER_RTT_HasKey
                0x00000000       0x20 external/rtt/librtt_nrf51422_xxAC.a(SEGGER_RTT.c.obj)
 .text.SEGGER_RTT_HasData
                0x00000000       0x14 external/rtt/librtt_nrf51422_xxAC.a(SEGGER_RTT.c.obj)
 .text.SEGGER_RTT_AllocDownBuffer
                0x00000000       0x64 external/rtt/librtt_nrf51422_xxAC.a(SEGGER_RTT.c.obj)
 .text.SEGGER_RTT_AllocUpBuffer
                0x00000000       0x68 external/rtt/librtt_nrf51422_xxAC.a(SEGGER_RTT.c.obj)
 .text.SEGGER_RTT_ConfigUpBuffer
                0x00000000       0x60 external/rtt/librtt_nrf51422_xxAC.a(SEGGER_RTT.c.obj)
 .text.SEGGER_RTT_ConfigDownBuffer
                0x00000000       0x5c external/rtt/librtt_nrf51422_xxAC.a(SEGGER_RTT.c.obj)
 .text.SEGGER_RTT_SetNameUpBuffer
                0x00000000       0x3c external/rtt/librtt_nrf51422_xxAC.a(SEGGER_RTT.c.obj)
 .text.SEGGER_RTT_SetNameDownBuffer
                0x00000000       0x3c external/rtt/librtt_nrf51422_xxAC.a(SEGGER_RTT.c.obj)
 .text.SEGGER_RTT_Init
                0x00000000       0x14 external/rtt/librtt_nrf51422_xxAC.a(SEGGER_RTT.c.obj)
 .text.SEGGER_RTT_SetTerminal
                0x00000000       0x80 external/rtt/librtt_nrf51422_xxAC.a(SEGGER_RTT.c.obj)
 .text.SEGGER_RTT_TerminalOut
                0x00000000       0xa0 external/rtt/librtt_nrf51422_xxAC.a(SEGGER_RTT.c.obj)
 .bss._ActiveTerminal
                0x00000000        0x1 external/rtt/librtt_nrf51422_xxAC.a(SEGGER_RTT.c.obj)
 .rodata._aTerminalId
                0x00000000       0x10 external/rtt/librtt_nrf51422_xxAC.a(SEGGER_RTT.c.obj)
 .text          0x00000000        0x0 external/rtt/librtt_nrf51422_xxAC.a(SEGGER_RTT_printf.c.obj)
 .data          0x00000000        0x0 external/rtt/librtt_nrf51422_xxAC.a(SEGGER_RTT_printf.c.obj)
 .bss           0x00000000        0x0 external/rtt/librtt_nrf51422_xxAC.a(SEGGER_RTT_printf.c.obj)
 .text          0x00000000        0x0 external/micro-ecc/libuECC_nrf51422_xxAC.a(uECC.c.obj)
 .data          0x00000000        0x0 external/micro-ecc/libuECC_nrf51422_xxAC.a(uECC.c.obj)
 .bss           0x00000000        0x0 external/micro-ecc/libuECC_nrf51422_xxAC.a(uECC.c.obj)
 .text.uECC_vli_modMult
                0x00000000      0x128 external/micro-ecc/libuECC_nrf51422_xxAC.a(uECC.c.obj)
 .text.HMAC_init
                0x00000000       0x40 external/micro-ecc/libuECC_nrf51422_xxAC.a(uECC.c.obj)
 .text.HMAC_update
                0x00000000        0x8 external/micro-ecc/libuECC_nrf51422_xxAC.a(uECC.c.obj)
 .text.HMAC_finish
                0x00000000       0x5c external/micro-ecc/libuECC_nrf51422_xxAC.a(uECC.c.obj)
 .text.update_V
                0x00000000       0x22 external/micro-ecc/libuECC_nrf51422_xxAC.a(uECC.c.obj)
 .text.bits2int
                0x00000000       0x8c external/micro-ecc/libuECC_nrf51422_xxAC.a(uECC.c.obj)
 .text.uECC_sign_with_k
                0x00000000      0x184 external/micro-ecc/libuECC_nrf51422_xxAC.a(uECC.c.obj)
 .text.uECC_set_rng
                0x00000000        0xc external/micro-ecc/libuECC_nrf51422_xxAC.a(uECC.c.obj)
 .text.uECC_get_rng
                0x00000000        0xc external/micro-ecc/libuECC_nrf51422_xxAC.a(uECC.c.obj)
 .text.uECC_curve_private_key_size
                0x00000000       0x12 external/micro-ecc/libuECC_nrf51422_xxAC.a(uECC.c.obj)
 .text.uECC_curve_public_key_size
                0x00000000        0x8 external/micro-ecc/libuECC_nrf51422_xxAC.a(uECC.c.obj)
 .text.uECC_compute_public_key
                0x00000000       0x88 external/micro-ecc/libuECC_nrf51422_xxAC.a(uECC.c.obj)
 .text.uECC_sign
                0x00000000       0x5a external/micro-ecc/libuECC_nrf51422_xxAC.a(uECC.c.obj)
 .text.uECC_sign_deterministic
                0x00000000      0x19c external/micro-ecc/libuECC_nrf51422_xxAC.a(uECC.c.obj)
 .text.uECC_verify
                0x00000000      0x2e4 external/micro-ecc/libuECC_nrf51422_xxAC.a(uECC.c.obj)
 .data          0x00000000        0x0 c:/a/gcc_arm/6/bin/../lib/gcc/arm-none-eabi/6.3.1/thumb/v6-m\libgcc.a(_thumb1_case_sqi.o)
 .bss           0x00000000        0x0 c:/a/gcc_arm/6/bin/../lib/gcc/arm-none-eabi/6.3.1/thumb/v6-m\libgcc.a(_thumb1_case_sqi.o)
 .data          0x00000000        0x0 c:/a/gcc_arm/6/bin/../lib/gcc/arm-none-eabi/6.3.1/thumb/v6-m\libgcc.a(_thumb1_case_uqi.o)
 .bss           0x00000000        0x0 c:/a/gcc_arm/6/bin/../lib/gcc/arm-none-eabi/6.3.1/thumb/v6-m\libgcc.a(_thumb1_case_uqi.o)
 .data          0x00000000        0x0 c:/a/gcc_arm/6/bin/../lib/gcc/arm-none-eabi/6.3.1/thumb/v6-m\libgcc.a(_thumb1_case_shi.o)
 .bss           0x00000000        0x0 c:/a/gcc_arm/6/bin/../lib/gcc/arm-none-eabi/6.3.1/thumb/v6-m\libgcc.a(_thumb1_case_shi.o)
 .data          0x00000000        0x0 c:/a/gcc_arm/6/bin/../lib/gcc/arm-none-eabi/6.3.1/thumb/v6-m\libgcc.a(_thumb1_case_uhi.o)
 .bss           0x00000000        0x0 c:/a/gcc_arm/6/bin/../lib/gcc/arm-none-eabi/6.3.1/thumb/v6-m\libgcc.a(_thumb1_case_uhi.o)
 .data          0x00000000        0x0 c:/a/gcc_arm/6/bin/../lib/gcc/arm-none-eabi/6.3.1/thumb/v6-m\libgcc.a(_udivsi3.o)
 .bss           0x00000000        0x0 c:/a/gcc_arm/6/bin/../lib/gcc/arm-none-eabi/6.3.1/thumb/v6-m\libgcc.a(_udivsi3.o)
 .data          0x00000000        0x0 c:/a/gcc_arm/6/bin/../lib/gcc/arm-none-eabi/6.3.1/thumb/v6-m\libgcc.a(_divsi3.o)
 .bss           0x00000000        0x0 c:/a/gcc_arm/6/bin/../lib/gcc/arm-none-eabi/6.3.1/thumb/v6-m\libgcc.a(_divsi3.o)
 .data          0x00000000        0x0 c:/a/gcc_arm/6/bin/../lib/gcc/arm-none-eabi/6.3.1/thumb/v6-m\libgcc.a(_dvmd_tls.o)
 .bss           0x00000000        0x0 c:/a/gcc_arm/6/bin/../lib/gcc/arm-none-eabi/6.3.1/thumb/v6-m\libgcc.a(_dvmd_tls.o)
 .data          0x00000000        0x0 c:/a/gcc_arm/6/bin/../lib/gcc/arm-none-eabi/6.3.1/thumb/v6-m\libgcc.a(_muldi3.o)
 .bss           0x00000000        0x0 c:/a/gcc_arm/6/bin/../lib/gcc/arm-none-eabi/6.3.1/thumb/v6-m\libgcc.a(_muldi3.o)
 .text          0x00000000        0x0 c:/a/gcc_arm/6/bin/../lib/gcc/arm-none-eabi/6.3.1/../../../../arm-none-eabi/lib/thumb/v6-m\libc_nano.a(lib_a-exit.o)
 .data          0x00000000        0x0 c:/a/gcc_arm/6/bin/../lib/gcc/arm-none-eabi/6.3.1/../../../../arm-none-eabi/lib/thumb/v6-m\libc_nano.a(lib_a-exit.o)
 .bss           0x00000000        0x0 c:/a/gcc_arm/6/bin/../lib/gcc/arm-none-eabi/6.3.1/../../../../arm-none-eabi/lib/thumb/v6-m\libc_nano.a(lib_a-exit.o)
 .text          0x00000000        0x0 c:/a/gcc_arm/6/bin/../lib/gcc/arm-none-eabi/6.3.1/../../../../arm-none-eabi/lib/thumb/v6-m\libc_nano.a(lib_a-impure.o)
 .data          0x00000000        0x0 c:/a/gcc_arm/6/bin/../lib/gcc/arm-none-eabi/6.3.1/../../../../arm-none-eabi/lib/thumb/v6-m\libc_nano.a(lib_a-impure.o)
 .bss           0x00000000        0x0 c:/a/gcc_arm/6/bin/../lib/gcc/arm-none-eabi/6.3.1/../../../../arm-none-eabi/lib/thumb/v6-m\libc_nano.a(lib_a-impure.o)
 .text          0x00000000        0x0 c:/a/gcc_arm/6/bin/../lib/gcc/arm-none-eabi/6.3.1/../../../../arm-none-eabi/lib/thumb/v6-m\libc_nano.a(lib_a-init.o)
 .data          0x00000000        0x0 c:/a/gcc_arm/6/bin/../lib/gcc/arm-none-eabi/6.3.1/../../../../arm-none-eabi/lib/thumb/v6-m\libc_nano.a(lib_a-init.o)
 .bss           0x00000000        0x0 c:/a/gcc_arm/6/bin/../lib/gcc/arm-none-eabi/6.3.1/../../../../arm-none-eabi/lib/thumb/v6-m\libc_nano.a(lib_a-init.o)
 .text          0x00000000        0x0 c:/a/gcc_arm/6/bin/../lib/gcc/arm-none-eabi/6.3.1/../../../../arm-none-eabi/lib/thumb/v6-m\libc_nano.a(lib_a-malloc.o)
 .data          0x00000000        0x0 c:/a/gcc_arm/6/bin/../lib/gcc/arm-none-eabi/6.3.1/../../../../arm-none-eabi/lib/thumb/v6-m\libc_nano.a(lib_a-malloc.o)
 .bss           0x00000000        0x0 c:/a/gcc_arm/6/bin/../lib/gcc/arm-none-eabi/6.3.1/../../../../arm-none-eabi/lib/thumb/v6-m\libc_nano.a(lib_a-malloc.o)
 .text          0x00000000        0x0 c:/a/gcc_arm/6/bin/../lib/gcc/arm-none-eabi/6.3.1/../../../../arm-none-eabi/lib/thumb/v6-m\libc_nano.a(lib_a-memcmp.o)
 .data          0x00000000        0x0 c:/a/gcc_arm/6/bin/../lib/gcc/arm-none-eabi/6.3.1/../../../../arm-none-eabi/lib/thumb/v6-m\libc_nano.a(lib_a-memcmp.o)
 .bss           0x00000000        0x0 c:/a/gcc_arm/6/bin/../lib/gcc/arm-none-eabi/6.3.1/../../../../arm-none-eabi/lib/thumb/v6-m\libc_nano.a(lib_a-memcmp.o)
 .text          0x00000000        0x0 c:/a/gcc_arm/6/bin/../lib/gcc/arm-none-eabi/6.3.1/../../../../arm-none-eabi/lib/thumb/v6-m\libc_nano.a(lib_a-memcpy-stub.o)
 .data          0x00000000        0x0 c:/a/gcc_arm/6/bin/../lib/gcc/arm-none-eabi/6.3.1/../../../../arm-none-eabi/lib/thumb/v6-m\libc_nano.a(lib_a-memcpy-stub.o)
 .bss           0x00000000        0x0 c:/a/gcc_arm/6/bin/../lib/gcc/arm-none-eabi/6.3.1/../../../../arm-none-eabi/lib/thumb/v6-m\libc_nano.a(lib_a-memcpy-stub.o)
 .text          0x00000000        0x0 c:/a/gcc_arm/6/bin/../lib/gcc/arm-none-eabi/6.3.1/../../../../arm-none-eabi/lib/thumb/v6-m\libc_nano.a(lib_a-memset.o)
 .data          0x00000000        0x0 c:/a/gcc_arm/6/bin/../lib/gcc/arm-none-eabi/6.3.1/../../../../arm-none-eabi/lib/thumb/v6-m\libc_nano.a(lib_a-memset.o)
 .bss           0x00000000        0x0 c:/a/gcc_arm/6/bin/../lib/gcc/arm-none-eabi/6.3.1/../../../../arm-none-eabi/lib/thumb/v6-m\libc_nano.a(lib_a-memset.o)
 .text          0x00000000        0x0 c:/a/gcc_arm/6/bin/../lib/gcc/arm-none-eabi/6.3.1/../../../../arm-none-eabi/lib/thumb/v6-m\libc_nano.a(lib_a-nano-freer.o)
 .data          0x00000000        0x0 c:/a/gcc_arm/6/bin/../lib/gcc/arm-none-eabi/6.3.1/../../../../arm-none-eabi/lib/thumb/v6-m\libc_nano.a(lib_a-nano-freer.o)
 .bss           0x00000000        0x0 c:/a/gcc_arm/6/bin/../lib/gcc/arm-none-eabi/6.3.1/../../../../arm-none-eabi/lib/thumb/v6-m\libc_nano.a(lib_a-nano-freer.o)
 .text          0x00000000        0x0 c:/a/gcc_arm/6/bin/../lib/gcc/arm-none-eabi/6.3.1/../../../../arm-none-eabi/lib/thumb/v6-m\libc_nano.a(lib_a-nano-mallocr.o)
 .data          0x00000000        0x0 c:/a/gcc_arm/6/bin/../lib/gcc/arm-none-eabi/6.3.1/../../../../arm-none-eabi/lib/thumb/v6-m\libc_nano.a(lib_a-nano-mallocr.o)
 .bss           0x00000000        0x0 c:/a/gcc_arm/6/bin/../lib/gcc/arm-none-eabi/6.3.1/../../../../arm-none-eabi/lib/thumb/v6-m\libc_nano.a(lib_a-nano-mallocr.o)
 .text          0x00000000        0x0 c:/a/gcc_arm/6/bin/../lib/gcc/arm-none-eabi/6.3.1/../../../../arm-none-eabi/lib/thumb/v6-m\libc_nano.a(lib_a-sbrkr.o)
 .data          0x00000000        0x0 c:/a/gcc_arm/6/bin/../lib/gcc/arm-none-eabi/6.3.1/../../../../arm-none-eabi/lib/thumb/v6-m\libc_nano.a(lib_a-sbrkr.o)
 .bss           0x00000000        0x0 c:/a/gcc_arm/6/bin/../lib/gcc/arm-none-eabi/6.3.1/../../../../arm-none-eabi/lib/thumb/v6-m\libc_nano.a(lib_a-sbrkr.o)
 .text          0x00000000        0x0 c:/a/gcc_arm/6/bin/../lib/gcc/arm-none-eabi/6.3.1/../../../../arm-none-eabi/lib/thumb/v6-m\libc_nano.a(lib_a-strcpy.o)
 .data          0x00000000        0x0 c:/a/gcc_arm/6/bin/../lib/gcc/arm-none-eabi/6.3.1/../../../../arm-none-eabi/lib/thumb/v6-m\libc_nano.a(lib_a-strcpy.o)
 .bss           0x00000000        0x0 c:/a/gcc_arm/6/bin/../lib/gcc/arm-none-eabi/6.3.1/../../../../arm-none-eabi/lib/thumb/v6-m\libc_nano.a(lib_a-strcpy.o)
 .data          0x00000000        0x0 c:/a/gcc_arm/6/bin/../lib/gcc/arm-none-eabi/6.3.1/../../../../arm-none-eabi/lib/thumb/v6-m\libc_nano.a(lib_a-strlen.o)
 .bss           0x00000000        0x0 c:/a/gcc_arm/6/bin/../lib/gcc/arm-none-eabi/6.3.1/../../../../arm-none-eabi/lib/thumb/v6-m\libc_nano.a(lib_a-strlen.o)
 .text          0x00000000        0x0 c:/a/gcc_arm/6/bin/../lib/gcc/arm-none-eabi/6.3.1/../../../../arm-none-eabi/lib/thumb/v6-m\libc_nano.a(lib_a-strrchr.o)
 .data          0x00000000        0x0 c:/a/gcc_arm/6/bin/../lib/gcc/arm-none-eabi/6.3.1/../../../../arm-none-eabi/lib/thumb/v6-m\libc_nano.a(lib_a-strrchr.o)
 .bss           0x00000000        0x0 c:/a/gcc_arm/6/bin/../lib/gcc/arm-none-eabi/6.3.1/../../../../arm-none-eabi/lib/thumb/v6-m\libc_nano.a(lib_a-strrchr.o)
 .text          0x00000000        0x0 c:/a/gcc_arm/6/bin/../lib/gcc/arm-none-eabi/6.3.1/../../../../arm-none-eabi/lib/thumb/v6-m\libc_nano.a(lib_a-mlock.o)
 .data          0x00000000        0x0 c:/a/gcc_arm/6/bin/../lib/gcc/arm-none-eabi/6.3.1/../../../../arm-none-eabi/lib/thumb/v6-m\libc_nano.a(lib_a-mlock.o)
 .bss           0x00000000        0x0 c:/a/gcc_arm/6/bin/../lib/gcc/arm-none-eabi/6.3.1/../../../../arm-none-eabi/lib/thumb/v6-m\libc_nano.a(lib_a-mlock.o)
 .text          0x00000000        0x0 c:/a/gcc_arm/6/bin/../lib/gcc/arm-none-eabi/6.3.1/../../../../arm-none-eabi/lib/thumb/v6-m\libc_nano.a(lib_a-reent.o)
 .data          0x00000000        0x0 c:/a/gcc_arm/6/bin/../lib/gcc/arm-none-eabi/6.3.1/../../../../arm-none-eabi/lib/thumb/v6-m\libc_nano.a(lib_a-reent.o)
 .bss           0x00000000        0x0 c:/a/gcc_arm/6/bin/../lib/gcc/arm-none-eabi/6.3.1/../../../../arm-none-eabi/lib/thumb/v6-m\libc_nano.a(lib_a-reent.o)
 .text.cleanup_glue
                0x00000000       0x1a c:/a/gcc_arm/6/bin/../lib/gcc/arm-none-eabi/6.3.1/../../../../arm-none-eabi/lib/thumb/v6-m\libc_nano.a(lib_a-reent.o)
 .text._reclaim_reent
                0x00000000       0xcc c:/a/gcc_arm/6/bin/../lib/gcc/arm-none-eabi/6.3.1/../../../../arm-none-eabi/lib/thumb/v6-m\libc_nano.a(lib_a-reent.o)
 .text          0x00000000        0x0 c:/a/gcc_arm/6/bin/../lib/gcc/arm-none-eabi/6.3.1/../../../../arm-none-eabi/lib/thumb/v6-m\libc_nano.a(lib_a-strchr.o)
 .data          0x00000000        0x0 c:/a/gcc_arm/6/bin/../lib/gcc/arm-none-eabi/6.3.1/../../../../arm-none-eabi/lib/thumb/v6-m\libc_nano.a(lib_a-strchr.o)
 .bss           0x00000000        0x0 c:/a/gcc_arm/6/bin/../lib/gcc/arm-none-eabi/6.3.1/../../../../arm-none-eabi/lib/thumb/v6-m\libc_nano.a(lib_a-strchr.o)
 .text          0x00000000        0x0 c:/a/gcc_arm/6/bin/../lib/gcc/arm-none-eabi/6.3.1/thumb/v6-m/crtend.o
 .data          0x00000000        0x0 c:/a/gcc_arm/6/bin/../lib/gcc/arm-none-eabi/6.3.1/thumb/v6-m/crtend.o
 .bss           0x00000000        0x0 c:/a/gcc_arm/6/bin/../lib/gcc/arm-none-eabi/6.3.1/thumb/v6-m/crtend.o
 .text          0x00000000        0x0 c:/a/gcc_arm/6/bin/../lib/gcc/arm-none-eabi/6.3.1/thumb/v6-m/crtn.o
 .data          0x00000000        0x0 c:/a/gcc_arm/6/bin/../lib/gcc/arm-none-eabi/6.3.1/thumb/v6-m/crtn.o
 .bss           0x00000000        0x0 c:/a/gcc_arm/6/bin/../lib/gcc/arm-none-eabi/6.3.1/thumb/v6-m/crtn.o
 .text          0x00000000        0x0 c:/a/gcc_arm/6/bin/../lib/gcc/arm-none-eabi/6.3.1/../../../../arm-none-eabi/lib/thumb/v6-m\libnosys.a(sbrk.o)
 .data          0x00000000        0x0 c:/a/gcc_arm/6/bin/../lib/gcc/arm-none-eabi/6.3.1/../../../../arm-none-eabi/lib/thumb/v6-m\libnosys.a(sbrk.o)
 .bss           0x00000000        0x0 c:/a/gcc_arm/6/bin/../lib/gcc/arm-none-eabi/6.3.1/../../../../arm-none-eabi/lib/thumb/v6-m\libnosys.a(sbrk.o)
 .text          0x00000000        0x0 c:/a/gcc_arm/6/bin/../lib/gcc/arm-none-eabi/6.3.1/../../../../arm-none-eabi/lib/thumb/v6-m\libnosys.a(_exit.o)
 .data          0x00000000        0x0 c:/a/gcc_arm/6/bin/../lib/gcc/arm-none-eabi/6.3.1/../../../../arm-none-eabi/lib/thumb/v6-m\libnosys.a(_exit.o)
 .bss           0x00000000        0x0 c:/a/gcc_arm/6/bin/../lib/gcc/arm-none-eabi/6.3.1/../../../../arm-none-eabi/lib/thumb/v6-m\libnosys.a(_exit.o)

Memory Configuration

Name             Origin             Length             Attributes
FLASH            0x0001b000         0x0001f000         xr
RAM              0x200022d8         0x00005a28         xrw
*default*        0x00000000         0xffffffff

Linker script and memory map

LOAD c:/a/gcc_arm/6/bin/../lib/gcc/arm-none-eabi/6.3.1/thumb/v6-m/crti.o
LOAD c:/a/gcc_arm/6/bin/../lib/gcc/arm-none-eabi/6.3.1/thumb/v6-m/crtbegin.o
LOAD c:/a/gcc_arm/6/bin/../lib/gcc/arm-none-eabi/6.3.1/../../../../arm-none-eabi/lib/thumb/v6-m/crt0.o
LOAD examples/pb_remote/client/CMakeFiles/pb_remote_client_nrf51422_xxAC_s130_2.0.1.dir/src/main.c.obj
LOAD examples/pb_remote/client/CMakeFiles/pb_remote_client_nrf51422_xxAC_s130_2.0.1.dir/__/__/nrf_mesh_sdk.c.obj
LOAD examples/pb_remote/client/CMakeFiles/pb_remote_client_nrf51422_xxAC_s130_2.0.1.dir/__/__/__/models/pb_remote/src/pb_remote_client.c.obj
LOAD examples/pb_remote/client/CMakeFiles/pb_remote_client_nrf51422_xxAC_s130_2.0.1.dir/__/__/__/mesh/prov/src/prov_provisioner.c.obj
LOAD examples/pb_remote/client/CMakeFiles/pb_remote_client_nrf51422_xxAC_s130_2.0.1.dir/__/__/__/mesh/prov/src/nrf_mesh_prov.c.obj
LOAD examples/pb_remote/client/CMakeFiles/pb_remote_client_nrf51422_xxAC_s130_2.0.1.dir/__/__/__/mesh/prov/src/provisioning.c.obj
LOAD examples/pb_remote/client/CMakeFiles/pb_remote_client_nrf51422_xxAC_s130_2.0.1.dir/__/__/__/mesh/prov/src/prov_beacon.c.obj
LOAD examples/pb_remote/client/CMakeFiles/pb_remote_client_nrf51422_xxAC_s130_2.0.1.dir/__/__/__/mesh/prov/src/prov_utils.c.obj
LOAD examples/pb_remote/client/CMakeFiles/pb_remote_client_nrf51422_xxAC_s130_2.0.1.dir/__/__/__/mesh/prov/src/prov_bearer_adv.c.obj
LOAD examples/pb_remote/client/CMakeFiles/pb_remote_client_nrf51422_xxAC_s130_2.0.1.dir/__/__/__/mesh/access/src/access_publish.c.obj
LOAD examples/pb_remote/client/CMakeFiles/pb_remote_client_nrf51422_xxAC_s130_2.0.1.dir/__/__/__/mesh/access/src/access.c.obj
LOAD examples/pb_remote/client/CMakeFiles/pb_remote_client_nrf51422_xxAC_s130_2.0.1.dir/__/__/__/mesh/access/src/access_reliable.c.obj
LOAD examples/pb_remote/client/CMakeFiles/pb_remote_client_nrf51422_xxAC_s130_2.0.1.dir/__/__/__/mesh/access/src/device_state_manager.c.obj
LOAD examples/pb_remote/client/CMakeFiles/pb_remote_client_nrf51422_xxAC_s130_2.0.1.dir/__/__/nrf_mesh_weak.c.obj
LOAD examples/pb_remote/client/CMakeFiles/pb_remote_client_nrf51422_xxAC_s130_2.0.1.dir/__/__/__/external/nRF5_SDK_14.0.0_3bcc1f7/components/toolchain/system_nrf51.c.obj
LOAD examples/pb_remote/client/CMakeFiles/pb_remote_client_nrf51422_xxAC_s130_2.0.1.dir/__/__/__/external/nRF5_SDK_14.0.0_3bcc1f7/components/toolchain/gcc/gcc_startup_nrf51.S.obj
LOAD mesh/core/libmesh_core_nrf51422_xxAC.a
LOAD external/rtt/librtt_nrf51422_xxAC.a
LOAD external/micro-ecc/libuECC_nrf51422_xxAC.a
START GROUP
LOAD c:/a/gcc_arm/6/bin/../lib/gcc/arm-none-eabi/6.3.1/thumb/v6-m\libgcc.a
LOAD c:/a/gcc_arm/6/bin/../lib/gcc/arm-none-eabi/6.3.1/../../../../arm-none-eabi/lib/thumb/v6-m\libc_nano.a
END GROUP
START GROUP
LOAD c:/a/gcc_arm/6/bin/../lib/gcc/arm-none-eabi/6.3.1/thumb/v6-m\libgcc.a
LOAD c:/a/gcc_arm/6/bin/../lib/gcc/arm-none-eabi/6.3.1/../../../../arm-none-eabi/lib/thumb/v6-m\libc_nano.a
END GROUP
LOAD c:/a/gcc_arm/6/bin/../lib/gcc/arm-none-eabi/6.3.1/thumb/v6-m/crtend.o
LOAD c:/a/gcc_arm/6/bin/../lib/gcc/arm-none-eabi/6.3.1/thumb/v6-m/crtn.o
START GROUP
LOAD c:/a/gcc_arm/6/bin/../lib/gcc/arm-none-eabi/6.3.1/thumb/v6-m\libgcc.a
LOAD c:/a/gcc_arm/6/bin/../lib/gcc/arm-none-eabi/6.3.1/../../../../arm-none-eabi/lib/thumb/v6-m\libc.a
LOAD c:/a/gcc_arm/6/bin/../lib/gcc/arm-none-eabi/6.3.1/../../../../arm-none-eabi/lib/thumb/v6-m\libnosys.a
END GROUP

.text           0x0001b000    0x11088
 *(.isr_vector)
 .isr_vector    0x0001b000       0xc0 examples/pb_remote/client/CMakeFiles/pb_remote_client_nrf51422_xxAC_s130_2.0.1.dir/__/__/__/external/nRF5_SDK_14.0.0_3bcc1f7/components/toolchain/gcc/gcc_startup_nrf51.S.obj
                0x0001b000                __isr_vector
 *(.text*)
 .text          0x0001b0c0       0x60 c:/a/gcc_arm/6/bin/../lib/gcc/arm-none-eabi/6.3.1/thumb/v6-m/crtbegin.o
 .text          0x0001b120       0x78 c:/a/gcc_arm/6/bin/../lib/gcc/arm-none-eabi/6.3.1/../../../../arm-none-eabi/lib/thumb/v6-m/crt0.o
                0x0001b120                _start
                0x0001b120                _mainCRTStartup
 .text.mesh_evt_handler
                0x0001b198      0x3fc examples/pb_remote/client/CMakeFiles/pb_remote_client_nrf51422_xxAC_s130_2.0.1.dir/src/main.c.obj
 .text.remote_client_event_cb
                0x0001b594      0x210 examples/pb_remote/client/CMakeFiles/pb_remote_client_nrf51422_xxAC_s130_2.0.1.dir/src/main.c.obj
 .text.wait_for_valid_char
                0x0001b7a4       0x16 examples/pb_remote/client/CMakeFiles/pb_remote_client_nrf51422_xxAC_s130_2.0.1.dir/src/main.c.obj
 *fill*         0x0001b7ba        0x2 
 .text.startup.main
                0x0001b7bc      0x58c examples/pb_remote/client/CMakeFiles/pb_remote_client_nrf51422_xxAC_s130_2.0.1.dir/src/main.c.obj
                0x0001b7bc                main
 .text.sd_evt_get
                0x0001bd48        0x4 examples/pb_remote/client/CMakeFiles/pb_remote_client_nrf51422_xxAC_s130_2.0.1.dir/__/__/nrf_mesh_sdk.c.obj
 .text.sd_softdevice_enable
                0x0001bd4c        0x4 examples/pb_remote/client/CMakeFiles/pb_remote_client_nrf51422_xxAC_s130_2.0.1.dir/__/__/nrf_mesh_sdk.c.obj
 .text.sd_ble_enable
                0x0001bd50        0x4 examples/pb_remote/client/CMakeFiles/pb_remote_client_nrf51422_xxAC_s130_2.0.1.dir/__/__/nrf_mesh_sdk.c.obj
 .text.sd_ble_evt_get
                0x0001bd54        0x4 examples/pb_remote/client/CMakeFiles/pb_remote_client_nrf51422_xxAC_s130_2.0.1.dir/__/__/nrf_mesh_sdk.c.obj
 .text.sleep_forever
                0x0001bd58       0x24 examples/pb_remote/client/CMakeFiles/pb_remote_client_nrf51422_xxAC_s130_2.0.1.dir/__/__/nrf_mesh_sdk.c.obj
 .text.mesh_assert_handler
                0x0001bd7c       0x64 examples/pb_remote/client/CMakeFiles/pb_remote_client_nrf51422_xxAC_s130_2.0.1.dir/__/__/nrf_mesh_sdk.c.obj
                0x0001bd7c                mesh_assert_handler
 .text.softdevice_assert_handler
                0x0001bde0       0x7c examples/pb_remote/client/CMakeFiles/pb_remote_client_nrf51422_xxAC_s130_2.0.1.dir/__/__/nrf_mesh_sdk.c.obj
                0x0001bde0                softdevice_assert_handler
 .text.app_error_handler
                0x0001be5c       0x7c examples/pb_remote/client/CMakeFiles/pb_remote_client_nrf51422_xxAC_s130_2.0.1.dir/__/__/nrf_mesh_sdk.c.obj
                0x0001be5c                app_error_handler
 .text.HardFault_Handler
                0x0001bed8       0x60 examples/pb_remote/client/CMakeFiles/pb_remote_client_nrf51422_xxAC_s130_2.0.1.dir/__/__/nrf_mesh_sdk.c.obj
                0x0001bed8                HardFault_Handler
 .text.SWI2_IRQHandler
                0x0001bf38       0x38 examples/pb_remote/client/CMakeFiles/pb_remote_client_nrf51422_xxAC_s130_2.0.1.dir/__/__/nrf_mesh_sdk.c.obj
                0x0001bf38                SWI2_IRQHandler
 .text.mesh_softdevice_enable
                0x0001bf70      0x12c examples/pb_remote/client/CMakeFiles/pb_remote_client_nrf51422_xxAC_s130_2.0.1.dir/__/__/nrf_mesh_sdk.c.obj
                0x0001bf70                mesh_softdevice_enable
 .text.mesh_softdevice_setup
                0x0001c09c       0x80 examples/pb_remote/client/CMakeFiles/pb_remote_client_nrf51422_xxAC_s130_2.0.1.dir/__/__/nrf_mesh_sdk.c.obj
                0x0001c09c                mesh_softdevice_setup
 .text.mesh_core_setup
                0x0001c11c      0x158 examples/pb_remote/client/CMakeFiles/pb_remote_client_nrf51422_xxAC_s130_2.0.1.dir/__/__/nrf_mesh_sdk.c.obj
                0x0001c11c                mesh_core_setup
 .text.pb_if_link_open_cb
                0x0001c274        0x4 examples/pb_remote/client/CMakeFiles/pb_remote_client_nrf51422_xxAC_s130_2.0.1.dir/__/__/__/models/pb_remote/src/pb_remote_client.c.obj
 .text.pb_if_listen_start_cb
                0x0001c278        0x4 examples/pb_remote/client/CMakeFiles/pb_remote_client_nrf51422_xxAC_s130_2.0.1.dir/__/__/__/models/pb_remote/src/pb_remote_client.c.obj
 .text.pb_if_listen_stop_cb
                0x0001c27c        0x4 examples/pb_remote/client/CMakeFiles/pb_remote_client_nrf51422_xxAC_s130_2.0.1.dir/__/__/__/models/pb_remote/src/pb_remote_client.c.obj
 .text.pb_remote_client_event_unprov_number_cb
                0x0001c280       0x70 examples/pb_remote/client/CMakeFiles/pb_remote_client_nrf51422_xxAC_s130_2.0.1.dir/__/__/__/models/pb_remote/src/pb_remote_client.c.obj
 .text.status_event_push.isra.0
                0x0001c2f0       0x1a examples/pb_remote/client/CMakeFiles/pb_remote_client_nrf51422_xxAC_s130_2.0.1.dir/__/__/__/models/pb_remote/src/pb_remote_client.c.obj
 *fill*         0x0001c30a        0x2 
 .text.pb_remote_client_event_transfer_status_cb
                0x0001c30c       0xac examples/pb_remote/client/CMakeFiles/pb_remote_client_nrf51422_xxAC_s130_2.0.1.dir/__/__/__/models/pb_remote/src/pb_remote_client.c.obj
 .text.pb_remote_client_event_link_status_cb
                0x0001c3b8      0x21c examples/pb_remote/client/CMakeFiles/pb_remote_client_nrf51422_xxAC_s130_2.0.1.dir/__/__/__/models/pb_remote/src/pb_remote_client.c.obj
 .text.pb_remote_client_event_scan_status_cb
                0x0001c5d4      0x14c examples/pb_remote/client/CMakeFiles/pb_remote_client_nrf51422_xxAC_s130_2.0.1.dir/__/__/__/models/pb_remote/src/pb_remote_client.c.obj
 .text.pb_remote_client_event_tx_failed_cb
                0x0001c720       0x48 examples/pb_remote/client/CMakeFiles/pb_remote_client_nrf51422_xxAC_s130_2.0.1.dir/__/__/__/models/pb_remote/src/pb_remote_client.c.obj
 .text.send_reply.isra.8.part.9
                0x0001c768       0x18 examples/pb_remote/client/CMakeFiles/pb_remote_client_nrf51422_xxAC_s130_2.0.1.dir/__/__/__/models/pb_remote/src/pb_remote_client.c.obj
 .text.send_reliable_msg
                0x0001c780       0x28 examples/pb_remote/client/CMakeFiles/pb_remote_client_nrf51422_xxAC_s130_2.0.1.dir/__/__/__/models/pb_remote/src/pb_remote_client.c.obj
 .text.pb_remote_client_event_local_packet_cb
                0x0001c7a8       0xb4 examples/pb_remote/client/CMakeFiles/pb_remote_client_nrf51422_xxAC_s130_2.0.1.dir/__/__/__/models/pb_remote/src/pb_remote_client.c.obj
 .text.pb_remote_client_event_link_close_cb
                0x0001c85c       0x9c examples/pb_remote/client/CMakeFiles/pb_remote_client_nrf51422_xxAC_s130_2.0.1.dir/__/__/__/models/pb_remote/src/pb_remote_client.c.obj
 .text.pb_remote_client_event_scan_cancel_cb
                0x0001c8f8       0x8c examples/pb_remote/client/CMakeFiles/pb_remote_client_nrf51422_xxAC_s130_2.0.1.dir/__/__/__/models/pb_remote/src/pb_remote_client.c.obj
 .text.pb_remote_client_event_scan_start_cb
                0x0001c984       0x8c examples/pb_remote/client/CMakeFiles/pb_remote_client_nrf51422_xxAC_s130_2.0.1.dir/__/__/__/models/pb_remote/src/pb_remote_client.c.obj
 .text.pb_remote_client_event_prov_start_cb
                0x0001ca10       0x6c examples/pb_remote/client/CMakeFiles/pb_remote_client_nrf51422_xxAC_s130_2.0.1.dir/__/__/__/models/pb_remote/src/pb_remote_client.c.obj
 .text.send_reply.isra.8
                0x0001ca7c       0x12 examples/pb_remote/client/CMakeFiles/pb_remote_client_nrf51422_xxAC_s130_2.0.1.dir/__/__/__/models/pb_remote/src/pb_remote_client.c.obj
 *fill*         0x0001ca8e        0x2 
 .text.pb_remote_client_event_transfer_status_report_cb
                0x0001ca90      0x150 examples/pb_remote/client/CMakeFiles/pb_remote_client_nrf51422_xxAC_s130_2.0.1.dir/__/__/__/models/pb_remote/src/pb_remote_client.c.obj
 .text.pb_remote_client_event_unprov_uuid_cb
                0x0001cbe0       0xd8 examples/pb_remote/client/CMakeFiles/pb_remote_client_nrf51422_xxAC_s130_2.0.1.dir/__/__/__/models/pb_remote/src/pb_remote_client.c.obj
 .text.pb_remote_client_event_packet_transfer_cb
                0x0001ccb8       0xd0 examples/pb_remote/client/CMakeFiles/pb_remote_client_nrf51422_xxAC_s130_2.0.1.dir/__/__/__/models/pb_remote/src/pb_remote_client.c.obj
 .text.pb_remote_client_event_link_status_report_cb
                0x0001cd88      0x17c examples/pb_remote/client/CMakeFiles/pb_remote_client_nrf51422_xxAC_s130_2.0.1.dir/__/__/__/models/pb_remote/src/pb_remote_client.c.obj
 .text.pb_remote_client_process
                0x0001cf04      0x118 examples/pb_remote/client/CMakeFiles/pb_remote_client_nrf51422_xxAC_s130_2.0.1.dir/__/__/__/models/pb_remote/src/pb_remote_client.c.obj
 .text.pb_if_link_close_cb
                0x0001d01c       0x4c examples/pb_remote/client/CMakeFiles/pb_remote_client_nrf51422_xxAC_s130_2.0.1.dir/__/__/__/models/pb_remote/src/pb_remote_client.c.obj
 .text.client_reliable_status_cb
                0x0001d068      0x130 examples/pb_remote/client/CMakeFiles/pb_remote_client_nrf51422_xxAC_s130_2.0.1.dir/__/__/__/models/pb_remote/src/pb_remote_client.c.obj
 .text.pb_if_tx_cb
                0x0001d198       0x40 examples/pb_remote/client/CMakeFiles/pb_remote_client_nrf51422_xxAC_s130_2.0.1.dir/__/__/__/models/pb_remote/src/pb_remote_client.c.obj
 .text.remote_client_access_rx_cb
                0x0001d1d8      0x164 examples/pb_remote/client/CMakeFiles/pb_remote_client_nrf51422_xxAC_s130_2.0.1.dir/__/__/__/models/pb_remote/src/pb_remote_client.c.obj
 .text.pb_remote_client_init
                0x0001d33c       0x94 examples/pb_remote/client/CMakeFiles/pb_remote_client_nrf51422_xxAC_s130_2.0.1.dir/__/__/__/models/pb_remote/src/pb_remote_client.c.obj
                0x0001d33c                pb_remote_client_init
 .text.pb_remote_client_remote_scan_start
                0x0001d3d0       0x40 examples/pb_remote/client/CMakeFiles/pb_remote_client_nrf51422_xxAC_s130_2.0.1.dir/__/__/__/models/pb_remote/src/pb_remote_client.c.obj
                0x0001d3d0                pb_remote_client_remote_scan_start
 .text.pb_remote_client_remote_scan_cancel
                0x0001d410       0x40 examples/pb_remote/client/CMakeFiles/pb_remote_client_nrf51422_xxAC_s130_2.0.1.dir/__/__/__/models/pb_remote/src/pb_remote_client.c.obj
                0x0001d410                pb_remote_client_remote_scan_cancel
 .text.pb_remote_client_remote_provision
                0x0001d450       0x5c examples/pb_remote/client/CMakeFiles/pb_remote_client_nrf51422_xxAC_s130_2.0.1.dir/__/__/__/models/pb_remote/src/pb_remote_client.c.obj
                0x0001d450                pb_remote_client_remote_provision
 .text.send_confirmation
                0x0001d4ac       0x34 examples/pb_remote/client/CMakeFiles/pb_remote_client_nrf51422_xxAC_s130_2.0.1.dir/__/__/__/mesh/prov/src/prov_provisioner.c.obj
 .text.prov_provisioner_cb_link_closed
                0x0001d4e0       0x28 examples/pb_remote/client/CMakeFiles/pb_remote_client_nrf51422_xxAC_s130_2.0.1.dir/__/__/__/mesh/prov/src/prov_provisioner.c.obj
 .text.prov_provisioner_cb_link_established
                0x0001d508       0x44 examples/pb_remote/client/CMakeFiles/pb_remote_client_nrf51422_xxAC_s130_2.0.1.dir/__/__/__/mesh/prov/src/prov_provisioner.c.obj
 .text.prov_provisioner_cb_ack_received
                0x0001d54c       0x50 examples/pb_remote/client/CMakeFiles/pb_remote_client_nrf51422_xxAC_s130_2.0.1.dir/__/__/__/mesh/prov/src/prov_provisioner.c.obj
 .text.request_authentication
                0x0001d59c       0x98 examples/pb_remote/client/CMakeFiles/pb_remote_client_nrf51422_xxAC_s130_2.0.1.dir/__/__/__/mesh/prov/src/prov_provisioner.c.obj
 .text.prov_provisioner_pkt_in
                0x0001d634      0x2ec examples/pb_remote/client/CMakeFiles/pb_remote_client_nrf51422_xxAC_s130_2.0.1.dir/__/__/__/mesh/prov/src/prov_provisioner.c.obj
 .text.prov_provisioner_provision
                0x0001d920       0x54 examples/pb_remote/client/CMakeFiles/pb_remote_client_nrf51422_xxAC_s130_2.0.1.dir/__/__/__/mesh/prov/src/prov_provisioner.c.obj
                0x0001d920                prov_provisioner_provision
 .text.prov_provisioner_oob_use
                0x0001d974       0x8c examples/pb_remote/client/CMakeFiles/pb_remote_client_nrf51422_xxAC_s130_2.0.1.dir/__/__/__/mesh/prov/src/prov_provisioner.c.obj
                0x0001d974                prov_provisioner_oob_use
 .text.prov_provisioner_auth_data
                0x0001da00       0x4c examples/pb_remote/client/CMakeFiles/pb_remote_client_nrf51422_xxAC_s130_2.0.1.dir/__/__/__/mesh/prov/src/prov_provisioner.c.obj
                0x0001da00                prov_provisioner_auth_data
 .text.nrf_mesh_prov_init
                0x0001da4c       0x34 examples/pb_remote/client/CMakeFiles/pb_remote_client_nrf51422_xxAC_s130_2.0.1.dir/__/__/__/mesh/prov/src/nrf_mesh_prov.c.obj
                0x0001da4c                nrf_mesh_prov_init
 .text.nrf_mesh_prov_generate_keys
                0x0001da80        0x8 examples/pb_remote/client/CMakeFiles/pb_remote_client_nrf51422_xxAC_s130_2.0.1.dir/__/__/__/mesh/prov/src/nrf_mesh_prov.c.obj
                0x0001da80                nrf_mesh_prov_generate_keys
 .text.nrf_mesh_prov_provision
                0x0001da88       0x5c examples/pb_remote/client/CMakeFiles/pb_remote_client_nrf51422_xxAC_s130_2.0.1.dir/__/__/__/mesh/prov/src/nrf_mesh_prov.c.obj
                0x0001da88                nrf_mesh_prov_provision
 .text.nrf_mesh_prov_oob_use
                0x0001dae4       0x1c examples/pb_remote/client/CMakeFiles/pb_remote_client_nrf51422_xxAC_s130_2.0.1.dir/__/__/__/mesh/prov/src/nrf_mesh_prov.c.obj
                0x0001dae4                nrf_mesh_prov_oob_use
 .text.nrf_mesh_prov_auth_data_provide
                0x0001db00       0x1c examples/pb_remote/client/CMakeFiles/pb_remote_client_nrf51422_xxAC_s130_2.0.1.dir/__/__/__/mesh/prov/src/nrf_mesh_prov.c.obj
                0x0001db00                nrf_mesh_prov_auth_data_provide
 .text.send_data
                0x0001db1c       0x48 examples/pb_remote/client/CMakeFiles/pb_remote_client_nrf51422_xxAC_s130_2.0.1.dir/__/__/__/mesh/prov/src/provisioning.c.obj
 .text.prov_packet_length_valid
                0x0001db64       0x20 examples/pb_remote/client/CMakeFiles/pb_remote_client_nrf51422_xxAC_s130_2.0.1.dir/__/__/__/mesh/prov/src/provisioning.c.obj
                0x0001db64                prov_packet_length_valid
 .text.prov_init
                0x0001db84       0x34 examples/pb_remote/client/CMakeFiles/pb_remote_client_nrf51422_xxAC_s130_2.0.1.dir/__/__/__/mesh/prov/src/provisioning.c.obj
                0x0001db84                prov_init
 .text.prov_link_open
                0x0001dbb8       0x14 examples/pb_remote/client/CMakeFiles/pb_remote_client_nrf51422_xxAC_s130_2.0.1.dir/__/__/__/mesh/prov/src/provisioning.c.obj
                0x0001dbb8                prov_link_open
 .text.prov_link_close
                0x0001dbcc        0xe examples/pb_remote/client/CMakeFiles/pb_remote_client_nrf51422_xxAC_s130_2.0.1.dir/__/__/__/mesh/prov/src/provisioning.c.obj
                0x0001dbcc                prov_link_close
 .text.prov_tx_invite
                0x0001dbda       0x24 examples/pb_remote/client/CMakeFiles/pb_remote_client_nrf51422_xxAC_s130_2.0.1.dir/__/__/__/mesh/prov/src/provisioning.c.obj
                0x0001dbda                prov_tx_invite
 .text.prov_tx_start
                0x0001dbfe       0x1e examples/pb_remote/client/CMakeFiles/pb_remote_client_nrf51422_xxAC_s130_2.0.1.dir/__/__/__/mesh/prov/src/provisioning.c.obj
                0x0001dbfe                prov_tx_start
 .text.prov_tx_public_key
                0x0001dc1c       0x24 examples/pb_remote/client/CMakeFiles/pb_remote_client_nrf51422_xxAC_s130_2.0.1.dir/__/__/__/mesh/prov/src/provisioning.c.obj
                0x0001dc1c                prov_tx_public_key
 .text.prov_tx_confirmation
                0x0001dc40       0x24 examples/pb_remote/client/CMakeFiles/pb_remote_client_nrf51422_xxAC_s130_2.0.1.dir/__/__/__/mesh/prov/src/provisioning.c.obj
                0x0001dc40                prov_tx_confirmation
 .text.prov_tx_random
                0x0001dc64       0x24 examples/pb_remote/client/CMakeFiles/pb_remote_client_nrf51422_xxAC_s130_2.0.1.dir/__/__/__/mesh/prov/src/provisioning.c.obj
                0x0001dc64                prov_tx_random
 .text.prov_tx_data
                0x0001dc88        0xa examples/pb_remote/client/CMakeFiles/pb_remote_client_nrf51422_xxAC_s130_2.0.1.dir/__/__/__/mesh/prov/src/provisioning.c.obj
                0x0001dc88                prov_tx_data
 .text.prov_cb_link_opened
                0x0001dc92        0xe examples/pb_remote/client/CMakeFiles/pb_remote_client_nrf51422_xxAC_s130_2.0.1.dir/__/__/__/mesh/prov/src/provisioning.c.obj
                0x0001dc92                prov_cb_link_opened
 .text.prov_cb_link_closed
                0x0001dca0        0xe examples/pb_remote/client/CMakeFiles/pb_remote_client_nrf51422_xxAC_s130_2.0.1.dir/__/__/__/mesh/prov/src/provisioning.c.obj
                0x0001dca0                prov_cb_link_closed
 *fill*         0x0001dcae        0x2 
 .text.prov_cb_pkt_in
                0x0001dcb0       0x80 examples/pb_remote/client/CMakeFiles/pb_remote_client_nrf51422_xxAC_s130_2.0.1.dir/__/__/__/mesh/prov/src/provisioning.c.obj
                0x0001dcb0                prov_cb_pkt_in
 .text.prov_cb_ack_in
                0x0001dd30        0xe examples/pb_remote/client/CMakeFiles/pb_remote_client_nrf51422_xxAC_s130_2.0.1.dir/__/__/__/mesh/prov/src/provisioning.c.obj
                0x0001dd30                prov_cb_ack_in
 .text.prov_beacon_unprov_build
                0x0001dd3e       0x52 examples/pb_remote/client/CMakeFiles/pb_remote_client_nrf51422_xxAC_s130_2.0.1.dir/__/__/__/mesh/prov/src/prov_beacon.c.obj
                0x0001dd3e                prov_beacon_unprov_build
 .text.prov_beacon_unprov_packet_in
                0x0001dd90       0xb8 examples/pb_remote/client/CMakeFiles/pb_remote_client_nrf51422_xxAC_s130_2.0.1.dir/__/__/__/mesh/prov/src/prov_beacon.c.obj
                0x0001dd90                prov_beacon_unprov_packet_in
 .text.oob_gen_alphanumeric
                0x0001de48       0x34 examples/pb_remote/client/CMakeFiles/pb_remote_client_nrf51422_xxAC_s130_2.0.1.dir/__/__/__/mesh/prov/src/prov_utils.c.obj
 .text.oob_gen_numeric
                0x0001de7c       0x30 examples/pb_remote/client/CMakeFiles/pb_remote_client_nrf51422_xxAC_s130_2.0.1.dir/__/__/__/mesh/prov/src/prov_utils.c.obj
 .text.prov_utils_use_ecdh_offloading
                0x0001deac        0xc examples/pb_remote/client/CMakeFiles/pb_remote_client_nrf51422_xxAC_s130_2.0.1.dir/__/__/__/mesh/prov/src/prov_utils.c.obj
                0x0001deac                prov_utils_use_ecdh_offloading
 .text.prov_utils_authentication_values_derive
                0x0001deb8       0xc0 examples/pb_remote/client/CMakeFiles/pb_remote_client_nrf51422_xxAC_s130_2.0.1.dir/__/__/__/mesh/prov/src/prov_utils.c.obj
                0x0001deb8                prov_utils_authentication_values_derive
 .text.prov_utils_keys_generate
                0x0001df78       0x20 examples/pb_remote/client/CMakeFiles/pb_remote_client_nrf51422_xxAC_s130_2.0.1.dir/__/__/__/mesh/prov/src/prov_utils.c.obj
                0x0001df78                prov_utils_keys_generate
 .text.prov_utils_derive_keys
                0x0001df98       0xc0 examples/pb_remote/client/CMakeFiles/pb_remote_client_nrf51422_xxAC_s130_2.0.1.dir/__/__/__/mesh/prov/src/prov_utils.c.obj
                0x0001df98                prov_utils_derive_keys
 .text.prov_utils_calculate_shared_secret
                0x0001e058       0x3e examples/pb_remote/client/CMakeFiles/pb_remote_client_nrf51422_xxAC_s130_2.0.1.dir/__/__/__/mesh/prov/src/prov_utils.c.obj
                0x0001e058                prov_utils_calculate_shared_secret
 *fill*         0x0001e096        0x2 
 .text.prov_utils_generate_oob_data
                0x0001e098       0x9c examples/pb_remote/client/CMakeFiles/pb_remote_client_nrf51422_xxAC_s130_2.0.1.dir/__/__/__/mesh/prov/src/prov_utils.c.obj
                0x0001e098                prov_utils_generate_oob_data
 .text.prov_utils_confirmation_check
                0x0001e134       0x70 examples/pb_remote/client/CMakeFiles/pb_remote_client_nrf51422_xxAC_s130_2.0.1.dir/__/__/__/mesh/prov/src/prov_utils.c.obj
                0x0001e134                prov_utils_confirmation_check
 .text.remove_active_bearer
                0x0001e1a4       0x68 examples/pb_remote/client/CMakeFiles/pb_remote_client_nrf51422_xxAC_s130_2.0.1.dir/__/__/__/mesh/prov/src/prov_bearer_adv.c.obj
 .text.prov_bearer_adv_listen_stop
                0x0001e20c       0x38 examples/pb_remote/client/CMakeFiles/pb_remote_client_nrf51422_xxAC_s130_2.0.1.dir/__/__/__/mesh/prov/src/prov_bearer_adv.c.obj
 .text.close_link
                0x0001e244       0x6c examples/pb_remote/client/CMakeFiles/pb_remote_client_nrf51422_xxAC_s130_2.0.1.dir/__/__/__/mesh/prov/src/prov_bearer_adv.c.obj
 .text.send_packet
                0x0001e2b0       0x70 examples/pb_remote/client/CMakeFiles/pb_remote_client_nrf51422_xxAC_s130_2.0.1.dir/__/__/__/mesh/prov/src/prov_bearer_adv.c.obj
 .text.prov_buffer_tx
                0x0001e320      0x168 examples/pb_remote/client/CMakeFiles/pb_remote_client_nrf51422_xxAC_s130_2.0.1.dir/__/__/__/mesh/prov/src/prov_bearer_adv.c.obj
 .text.send_link_close
                0x0001e488       0x28 examples/pb_remote/client/CMakeFiles/pb_remote_client_nrf51422_xxAC_s130_2.0.1.dir/__/__/__/mesh/prov/src/prov_bearer_adv.c.obj
 .text.prov_bearer_adv_link_close
                0x0001e4b0       0x78 examples/pb_remote/client/CMakeFiles/pb_remote_client_nrf51422_xxAC_s130_2.0.1.dir/__/__/__/mesh/prov/src/prov_bearer_adv.c.obj
 .text.send_transaction_ack
                0x0001e528       0x24 examples/pb_remote/client/CMakeFiles/pb_remote_client_nrf51422_xxAC_s130_2.0.1.dir/__/__/__/mesh/prov/src/prov_bearer_adv.c.obj
 .text.send_link_ack
                0x0001e54c       0x26 examples/pb_remote/client/CMakeFiles/pb_remote_client_nrf51422_xxAC_s130_2.0.1.dir/__/__/__/mesh/prov/src/prov_bearer_adv.c.obj
 .text.link_timeout_cb
                0x0001e572        0xc examples/pb_remote/client/CMakeFiles/pb_remote_client_nrf51422_xxAC_s130_2.0.1.dir/__/__/__/mesh/prov/src/prov_bearer_adv.c.obj
 .text.reset_timeout_timer
                0x0001e57e       0x1a examples/pb_remote/client/CMakeFiles/pb_remote_client_nrf51422_xxAC_s130_2.0.1.dir/__/__/__/mesh/prov/src/prov_bearer_adv.c.obj
 .text.tx_complete_cb
                0x0001e598       0x24 examples/pb_remote/client/CMakeFiles/pb_remote_client_nrf51422_xxAC_s130_2.0.1.dir/__/__/__/mesh/prov/src/prov_bearer_adv.c.obj
 .text.tx_retry_cb
                0x0001e5bc       0xd4 examples/pb_remote/client/CMakeFiles/pb_remote_client_nrf51422_xxAC_s130_2.0.1.dir/__/__/__/mesh/prov/src/prov_bearer_adv.c.obj
 .text.add_active_bearer
                0x0001e690       0x88 examples/pb_remote/client/CMakeFiles/pb_remote_client_nrf51422_xxAC_s130_2.0.1.dir/__/__/__/mesh/prov/src/prov_bearer_adv.c.obj
 .text.prov_bearer_adv_link_open
                0x0001e718       0xf0 examples/pb_remote/client/CMakeFiles/pb_remote_client_nrf51422_xxAC_s130_2.0.1.dir/__/__/__/mesh/prov/src/prov_bearer_adv.c.obj
 .text.async_process
                0x0001e808       0x58 examples/pb_remote/client/CMakeFiles/pb_remote_client_nrf51422_xxAC_s130_2.0.1.dir/__/__/__/mesh/prov/src/prov_bearer_adv.c.obj
 .text.prov_bearer_adv_listen
                0x0001e860       0xf4 examples/pb_remote/client/CMakeFiles/pb_remote_client_nrf51422_xxAC_s130_2.0.1.dir/__/__/__/mesh/prov/src/prov_bearer_adv.c.obj
 .text.calculate_3GPP_CRC
                0x0001e954       0x24 examples/pb_remote/client/CMakeFiles/pb_remote_client_nrf51422_xxAC_s130_2.0.1.dir/__/__/__/mesh/prov/src/prov_bearer_adv.c.obj
                0x0001e954                calculate_3GPP_CRC
 .text.prov_bearer_adv_tx
                0x0001e978       0xac examples/pb_remote/client/CMakeFiles/pb_remote_client_nrf51422_xxAC_s130_2.0.1.dir/__/__/__/mesh/prov/src/prov_bearer_adv.c.obj
 .text.prov_buffer_rx
                0x0001ea24       0x74 examples/pb_remote/client/CMakeFiles/pb_remote_client_nrf51422_xxAC_s130_2.0.1.dir/__/__/__/mesh/prov/src/prov_bearer_adv.c.obj
 .text.prov_bearer_adv_interface_get
                0x0001ea98       0x24 examples/pb_remote/client/CMakeFiles/pb_remote_client_nrf51422_xxAC_s130_2.0.1.dir/__/__/__/mesh/prov/src/prov_bearer_adv.c.obj
                0x0001ea98                prov_bearer_adv_interface_get
 .text.prov_bearer_adv_packet_in
                0x0001eabc      0x898 examples/pb_remote/client/CMakeFiles/pb_remote_client_nrf51422_xxAC_s130_2.0.1.dir/__/__/__/mesh/prov/src/prov_bearer_adv.c.obj
                0x0001eabc                prov_bearer_adv_packet_in
 .text.add_to_publication_list
                0x0001f354       0x60 examples/pb_remote/client/CMakeFiles/pb_remote_client_nrf51422_xxAC_s130_2.0.1.dir/__/__/__/mesh/access/src/access_publish.c.obj
 .text.step_resolution_to_us
                0x0001f3b4       0x48 examples/pb_remote/client/CMakeFiles/pb_remote_client_nrf51422_xxAC_s130_2.0.1.dir/__/__/__/mesh/access/src/access_publish.c.obj
 .text.schedule_publication_timer
                0x0001f3fc      0x16c examples/pb_remote/client/CMakeFiles/pb_remote_client_nrf51422_xxAC_s130_2.0.1.dir/__/__/__/mesh/access/src/access_publish.c.obj
 .text.publish_timer_tick
                0x0001f568       0xac examples/pb_remote/client/CMakeFiles/pb_remote_client_nrf51422_xxAC_s130_2.0.1.dir/__/__/__/mesh/access/src/access_publish.c.obj
 .text.access_publish_init
                0x0001f614       0x38 examples/pb_remote/client/CMakeFiles/pb_remote_client_nrf51422_xxAC_s130_2.0.1.dir/__/__/__/mesh/access/src/access_publish.c.obj
                0x0001f614                access_publish_init
 .text.bitfield_get
                0x0001f64c       0x18 examples/pb_remote/client/CMakeFiles/pb_remote_client_nrf51422_xxAC_s130_2.0.1.dir/__/__/__/mesh/access/src/access.c.obj
 .text.is_valid_opcode
                0x0001f664       0x4c examples/pb_remote/client/CMakeFiles/pb_remote_client_nrf51422_xxAC_s130_2.0.1.dir/__/__/__/mesh/access/src/access.c.obj
 .text.model_handle_valid_and_allocated
                0x0001f6b0       0x20 examples/pb_remote/client/CMakeFiles/pb_remote_client_nrf51422_xxAC_s130_2.0.1.dir/__/__/__/mesh/access/src/access.c.obj
 .text.flash_invalidate_complete
                0x0001f6d0       0x18 examples/pb_remote/client/CMakeFiles/pb_remote_client_nrf51422_xxAC_s130_2.0.1.dir/__/__/__/mesh/access/src/access.c.obj
 .text.flash_manager_mem_available
                0x0001f6e8        0x6 examples/pb_remote/client/CMakeFiles/pb_remote_client_nrf51422_xxAC_s130_2.0.1.dir/__/__/__/mesh/access/src/access.c.obj
 *fill*         0x0001f6ee        0x2 
 .text.access_state_clear
                0x0001f6f0       0x4c examples/pb_remote/client/CMakeFiles/pb_remote_client_nrf51422_xxAC_s130_2.0.1.dir/__/__/__/mesh/access/src/access.c.obj
 .text.add_flash_manager
                0x0001f73c       0x5c examples/pb_remote/client/CMakeFiles/pb_remote_client_nrf51422_xxAC_s130_2.0.1.dir/__/__/__/mesh/access/src/access.c.obj
 .text.flash_remove_complete
                0x0001f798       0x60 examples/pb_remote/client/CMakeFiles/pb_remote_client_nrf51422_xxAC_s130_2.0.1.dir/__/__/__/mesh/access/src/access.c.obj
 .text.flash_write_complete
                0x0001f7f8       0x54 examples/pb_remote/client/CMakeFiles/pb_remote_client_nrf51422_xxAC_s130_2.0.1.dir/__/__/__/mesh/access/src/access.c.obj
 .text.handle_incoming
                0x0001f84c      0x168 examples/pb_remote/client/CMakeFiles/pb_remote_client_nrf51422_xxAC_s130_2.0.1.dir/__/__/__/mesh/access/src/access.c.obj
 .text.mesh_evt_cb
                0x0001f9b4      0x130 examples/pb_remote/client/CMakeFiles/pb_remote_client_nrf51422_xxAC_s130_2.0.1.dir/__/__/__/mesh/access/src/access.c.obj
 .text.packet_tx
                0x0001fae4      0x2f8 examples/pb_remote/client/CMakeFiles/pb_remote_client_nrf51422_xxAC_s130_2.0.1.dir/__/__/__/mesh/access/src/access.c.obj
 .text.access_init
                0x0001fddc       0x28 examples/pb_remote/client/CMakeFiles/pb_remote_client_nrf51422_xxAC_s130_2.0.1.dir/__/__/__/mesh/access/src/access.c.obj
                0x0001fddc                access_init
 .text.access_model_add
                0x0001fe04      0x1ac examples/pb_remote/client/CMakeFiles/pb_remote_client_nrf51422_xxAC_s130_2.0.1.dir/__/__/__/mesh/access/src/access.c.obj
                0x0001fe04                access_model_add
 .text.access_model_publish
                0x0001ffb0       0x14 examples/pb_remote/client/CMakeFiles/pb_remote_client_nrf51422_xxAC_s130_2.0.1.dir/__/__/__/mesh/access/src/access.c.obj
                0x0001ffb0                access_model_publish
 .text.access_model_reply
                0x0001ffc4       0x1c examples/pb_remote/client/CMakeFiles/pb_remote_client_nrf51422_xxAC_s130_2.0.1.dir/__/__/__/mesh/access/src/access.c.obj
                0x0001ffc4                access_model_reply
 .text.access_model_publish_address_set
                0x0001ffe0       0x3c examples/pb_remote/client/CMakeFiles/pb_remote_client_nrf51422_xxAC_s130_2.0.1.dir/__/__/__/mesh/access/src/access.c.obj
                0x0001ffe0                access_model_publish_address_set
 .text.access_model_publish_address_get
                0x0002001c       0x2c examples/pb_remote/client/CMakeFiles/pb_remote_client_nrf51422_xxAC_s130_2.0.1.dir/__/__/__/mesh/access/src/access.c.obj
                0x0002001c                access_model_publish_address_get
 .text.access_model_application_bind
                0x00020048       0x50 examples/pb_remote/client/CMakeFiles/pb_remote_client_nrf51422_xxAC_s130_2.0.1.dir/__/__/__/mesh/access/src/access.c.obj
                0x00020048                access_model_application_bind
 .text.access_model_publish_application_set
                0x00020098       0x3c examples/pb_remote/client/CMakeFiles/pb_remote_client_nrf51422_xxAC_s130_2.0.1.dir/__/__/__/mesh/access/src/access.c.obj
                0x00020098                access_model_publish_application_set
 .text.access_model_publish_ttl_set
                0x000200d4       0x44 examples/pb_remote/client/CMakeFiles/pb_remote_client_nrf51422_xxAC_s130_2.0.1.dir/__/__/__/mesh/access/src/access.c.obj
                0x000200d4                access_model_publish_ttl_set
 .text.access_model_publish_ttl_get
                0x00020118       0x2c examples/pb_remote/client/CMakeFiles/pb_remote_client_nrf51422_xxAC_s130_2.0.1.dir/__/__/__/mesh/access/src/access.c.obj
                0x00020118                access_model_publish_ttl_get
 .text.access_model_p_args_get
                0x00020144       0x2c examples/pb_remote/client/CMakeFiles/pb_remote_client_nrf51422_xxAC_s130_2.0.1.dir/__/__/__/mesh/access/src/access.c.obj
                0x00020144                access_model_p_args_get
 .text.remove_and_reschedule
                0x00020170       0xe0 examples/pb_remote/client/CMakeFiles/pb_remote_client_nrf51422_xxAC_s130_2.0.1.dir/__/__/__/mesh/access/src/access_reliable.c.obj
 .text.reliable_timer_cb
                0x00020250      0x150 examples/pb_remote/client/CMakeFiles/pb_remote_client_nrf51422_xxAC_s130_2.0.1.dir/__/__/__/mesh/access/src/access_reliable.c.obj
 .text.access_reliable_message_rx_cb
                0x000203a0       0x88 examples/pb_remote/client/CMakeFiles/pb_remote_client_nrf51422_xxAC_s130_2.0.1.dir/__/__/__/mesh/access/src/access_reliable.c.obj
                0x000203a0                access_reliable_message_rx_cb
 .text.access_reliable_init
                0x00020428       0x1c examples/pb_remote/client/CMakeFiles/pb_remote_client_nrf51422_xxAC_s130_2.0.1.dir/__/__/__/mesh/access/src/access_reliable.c.obj
                0x00020428                access_reliable_init
 .text.access_model_reliable_cancel
                0x00020444       0x50 examples/pb_remote/client/CMakeFiles/pb_remote_client_nrf51422_xxAC_s130_2.0.1.dir/__/__/__/mesh/access/src/access_reliable.c.obj
                0x00020444                access_model_reliable_cancel
 .text.access_model_reliable_publish
                0x00020494      0x1cc examples/pb_remote/client/CMakeFiles/pb_remote_client_nrf51422_xxAC_s130_2.0.1.dir/__/__/__/mesh/access/src/access_reliable.c.obj
                0x00020494                access_model_reliable_publish
 .text.bitfield_get
                0x00020660       0x18 examples/pb_remote/client/CMakeFiles/pb_remote_client_nrf51422_xxAC_s130_2.0.1.dir/__/__/__/mesh/access/src/device_state_manager.c.obj
 .text.bitfield_set
                0x00020678       0x16 examples/pb_remote/client/CMakeFiles/pb_remote_client_nrf51422_xxAC_s130_2.0.1.dir/__/__/__/mesh/access/src/device_state_manager.c.obj
 .text.bitfield_clear
                0x0002068e       0x16 examples/pb_remote/client/CMakeFiles/pb_remote_client_nrf51422_xxAC_s130_2.0.1.dir/__/__/__/mesh/access/src/device_state_manager.c.obj
 .text.bitfield_is_all_clear
                0x000206a4       0x3a examples/pb_remote/client/CMakeFiles/pb_remote_client_nrf51422_xxAC_s130_2.0.1.dir/__/__/__/mesh/access/src/device_state_manager.c.obj
 *fill*         0x000206de        0x2 
 .text.address_handle_virtual_valid
                0x000206e0       0x18 examples/pb_remote/client/CMakeFiles/pb_remote_client_nrf51422_xxAC_s130_2.0.1.dir/__/__/__/mesh/access/src/device_state_manager.c.obj
 .text.net_key_handle_get
                0x000206f8       0x38 examples/pb_remote/client/CMakeFiles/pb_remote_client_nrf51422_xxAC_s130_2.0.1.dir/__/__/__/mesh/access/src/device_state_manager.c.obj
 .text.dev_key_handle_get
                0x00020730       0x50 examples/pb_remote/client/CMakeFiles/pb_remote_client_nrf51422_xxAC_s130_2.0.1.dir/__/__/__/mesh/access/src/device_state_manager.c.obj
 .text.app_key_handle_get
                0x00020780       0x38 examples/pb_remote/client/CMakeFiles/pb_remote_client_nrf51422_xxAC_s130_2.0.1.dir/__/__/__/mesh/access/src/device_state_manager.c.obj
 .text.addr_nonvirtual_to_flash_entry
                0x000207b8       0x10 examples/pb_remote/client/CMakeFiles/pb_remote_client_nrf51422_xxAC_s130_2.0.1.dir/__/__/__/mesh/access/src/device_state_manager.c.obj
 .text.flash_mem_listener_callback
                0x000207c8       0x20 examples/pb_remote/client/CMakeFiles/pb_remote_client_nrf51422_xxAC_s130_2.0.1.dir/__/__/__/mesh/access/src/device_state_manager.c.obj
 .text.devkey_set
                0x000207e8       0x4c examples/pb_remote/client/CMakeFiles/pb_remote_client_nrf51422_xxAC_s130_2.0.1.dir/__/__/__/mesh/access/src/device_state_manager.c.obj
 .text.devkey_to_dsm_entry
                0x00020834       0x14 examples/pb_remote/client/CMakeFiles/pb_remote_client_nrf51422_xxAC_s130_2.0.1.dir/__/__/__/mesh/access/src/device_state_manager.c.obj
 .text.devkey_to_flash_entry
                0x00020848       0x28 examples/pb_remote/client/CMakeFiles/pb_remote_client_nrf51422_xxAC_s130_2.0.1.dir/__/__/__/mesh/access/src/device_state_manager.c.obj
 .text.appkey_to_flash_entry
                0x00020870       0x28 examples/pb_remote/client/CMakeFiles/pb_remote_client_nrf51422_xxAC_s130_2.0.1.dir/__/__/__/mesh/access/src/device_state_manager.c.obj
 .text.subnet_to_flash_entry
                0x00020898       0x20 examples/pb_remote/client/CMakeFiles/pb_remote_client_nrf51422_xxAC_s130_2.0.1.dir/__/__/__/mesh/access/src/device_state_manager.c.obj
 .text.addr_virtual_to_flash_entry
                0x000208b8       0x1c examples/pb_remote/client/CMakeFiles/pb_remote_client_nrf51422_xxAC_s130_2.0.1.dir/__/__/__/mesh/access/src/device_state_manager.c.obj
 .text.addr_unicast_to_dsm_entry
                0x000208d4       0x10 examples/pb_remote/client/CMakeFiles/pb_remote_client_nrf51422_xxAC_s130_2.0.1.dir/__/__/__/mesh/access/src/device_state_manager.c.obj
 .text.addr_unicast_to_flash_entry
                0x000208e4       0x14 examples/pb_remote/client/CMakeFiles/pb_remote_client_nrf51422_xxAC_s130_2.0.1.dir/__/__/__/mesh/access/src/device_state_manager.c.obj
 .text.appkey_set
                0x000208f8       0x74 examples/pb_remote/client/CMakeFiles/pb_remote_client_nrf51422_xxAC_s130_2.0.1.dir/__/__/__/mesh/access/src/device_state_manager.c.obj
 .text.appkey_to_dsm_entry
                0x0002096c       0x12 examples/pb_remote/client/CMakeFiles/pb_remote_client_nrf51422_xxAC_s130_2.0.1.dir/__/__/__/mesh/access/src/device_state_manager.c.obj
 *fill*         0x0002097e        0x2 
 .text.subnet_set
                0x00020980       0xa0 examples/pb_remote/client/CMakeFiles/pb_remote_client_nrf51422_xxAC_s130_2.0.1.dir/__/__/__/mesh/access/src/device_state_manager.c.obj
 .text.subnet_to_dsm_entry
                0x00020a20       0x10 examples/pb_remote/client/CMakeFiles/pb_remote_client_nrf51422_xxAC_s130_2.0.1.dir/__/__/__/mesh/access/src/device_state_manager.c.obj
 .text.virtual_address_set
                0x00020a30       0x58 examples/pb_remote/client/CMakeFiles/pb_remote_client_nrf51422_xxAC_s130_2.0.1.dir/__/__/__/mesh/access/src/device_state_manager.c.obj
 .text.addr_virtual_to_dsm_entry
                0x00020a88       0x10 examples/pb_remote/client/CMakeFiles/pb_remote_client_nrf51422_xxAC_s130_2.0.1.dir/__/__/__/mesh/access/src/device_state_manager.c.obj
 .text.flash_save
                0x00020a98       0x88 examples/pb_remote/client/CMakeFiles/pb_remote_client_nrf51422_xxAC_s130_2.0.1.dir/__/__/__/mesh/access/src/device_state_manager.c.obj
 .text.flash_invalidate
                0x00020b20       0x6c examples/pb_remote/client/CMakeFiles/pb_remote_client_nrf51422_xxAC_s130_2.0.1.dir/__/__/__/mesh/access/src/device_state_manager.c.obj
 .text.flash_update_all
                0x00020b8c       0x70 examples/pb_remote/client/CMakeFiles/pb_remote_client_nrf51422_xxAC_s130_2.0.1.dir/__/__/__/mesh/access/src/device_state_manager.c.obj
 .text.virtual_address_uuid_index_get
                0x00020bfc       0x40 examples/pb_remote/client/CMakeFiles/pb_remote_client_nrf51422_xxAC_s130_2.0.1.dir/__/__/__/mesh/access/src/device_state_manager.c.obj
 .text.get_subnet_handle
                0x00020c3c       0x38 examples/pb_remote/client/CMakeFiles/pb_remote_client_nrf51422_xxAC_s130_2.0.1.dir/__/__/__/mesh/access/src/device_state_manager.c.obj
 .text.get_app_handle
                0x00020c74       0x50 examples/pb_remote/client/CMakeFiles/pb_remote_client_nrf51422_xxAC_s130_2.0.1.dir/__/__/__/mesh/access/src/device_state_manager.c.obj
 .text.flash_operation_complete
                0x00020cc4       0x58 examples/pb_remote/client/CMakeFiles/pb_remote_client_nrf51422_xxAC_s130_2.0.1.dir/__/__/__/mesh/access/src/device_state_manager.c.obj
 .text.flash_invalidate_complete
                0x00020d1c        0xc examples/pb_remote/client/CMakeFiles/pb_remote_client_nrf51422_xxAC_s130_2.0.1.dir/__/__/__/mesh/access/src/device_state_manager.c.obj
 .text.flash_write_complete
                0x00020d28        0xc examples/pb_remote/client/CMakeFiles/pb_remote_client_nrf51422_xxAC_s130_2.0.1.dir/__/__/__/mesh/access/src/device_state_manager.c.obj
 .text.add_address.part.5
                0x00020d34      0x138 examples/pb_remote/client/CMakeFiles/pb_remote_client_nrf51422_xxAC_s130_2.0.1.dir/__/__/__/mesh/access/src/device_state_manager.c.obj
 .text.address_handle_valid
                0x00020e6c       0x28 examples/pb_remote/client/CMakeFiles/pb_remote_client_nrf51422_xxAC_s130_2.0.1.dir/__/__/__/mesh/access/src/device_state_manager.c.obj
 .text.address_handle_nonvirtual_valid
                0x00020e94       0x18 examples/pb_remote/client/CMakeFiles/pb_remote_client_nrf51422_xxAC_s130_2.0.1.dir/__/__/__/mesh/access/src/device_state_manager.c.obj
 .text.addr_nonvirtual_to_dsm_entry
                0x00020eac       0x34 examples/pb_remote/client/CMakeFiles/pb_remote_client_nrf51422_xxAC_s130_2.0.1.dir/__/__/__/mesh/access/src/device_state_manager.c.obj
 .text.dsm_flash_area_get
                0x00020ee0       0x10 examples/pb_remote/client/CMakeFiles/pb_remote_client_nrf51422_xxAC_s130_2.0.1.dir/__/__/__/mesh/access/src/device_state_manager.c.obj
                0x00020ee0                dsm_flash_area_get
 .text.build_flash_area
                0x00020ef0       0x8c examples/pb_remote/client/CMakeFiles/pb_remote_client_nrf51422_xxAC_s130_2.0.1.dir/__/__/__/mesh/access/src/device_state_manager.c.obj
 .text.dsm_init
                0x00020f7c       0x28 examples/pb_remote/client/CMakeFiles/pb_remote_client_nrf51422_xxAC_s130_2.0.1.dir/__/__/__/mesh/access/src/device_state_manager.c.obj
                0x00020f7c                dsm_init
 .text.flash_remove_complete
                0x00020fa4        0x8 examples/pb_remote/client/CMakeFiles/pb_remote_client_nrf51422_xxAC_s130_2.0.1.dir/__/__/__/mesh/access/src/device_state_manager.c.obj
 .text.dsm_local_unicast_addresses_set
                0x00020fac       0x74 examples/pb_remote/client/CMakeFiles/pb_remote_client_nrf51422_xxAC_s130_2.0.1.dir/__/__/__/mesh/access/src/device_state_manager.c.obj
                0x00020fac                dsm_local_unicast_addresses_set
 .text.dsm_local_unicast_addresses_get
                0x00021020       0x2c examples/pb_remote/client/CMakeFiles/pb_remote_client_nrf51422_xxAC_s130_2.0.1.dir/__/__/__/mesh/access/src/device_state_manager.c.obj
                0x00021020                dsm_local_unicast_addresses_get
 .text.dsm_address_publish_add
                0x0002104c       0x14 examples/pb_remote/client/CMakeFiles/pb_remote_client_nrf51422_xxAC_s130_2.0.1.dir/__/__/__/mesh/access/src/device_state_manager.c.obj
                0x0002104c                dsm_address_publish_add
 .text.dsm_address_subscription_get
                0x00021060       0x34 examples/pb_remote/client/CMakeFiles/pb_remote_client_nrf51422_xxAC_s130_2.0.1.dir/__/__/__/mesh/access/src/device_state_manager.c.obj
                0x00021060                dsm_address_subscription_get
 .text.dsm_address_get
                0x00021094       0x5c examples/pb_remote/client/CMakeFiles/pb_remote_client_nrf51422_xxAC_s130_2.0.1.dir/__/__/__/mesh/access/src/device_state_manager.c.obj
                0x00021094                dsm_address_get
 .text.dsm_address_handle_get
                0x000210f0       0x98 examples/pb_remote/client/CMakeFiles/pb_remote_client_nrf51422_xxAC_s130_2.0.1.dir/__/__/__/mesh/access/src/device_state_manager.c.obj
                0x000210f0                dsm_address_handle_get
 .text.dsm_appkey_handle_get
                0x00021188       0x14 examples/pb_remote/client/CMakeFiles/pb_remote_client_nrf51422_xxAC_s130_2.0.1.dir/__/__/__/mesh/access/src/device_state_manager.c.obj
                0x00021188                dsm_appkey_handle_get
 .text.dsm_subnet_add
                0x0002119c       0x60 examples/pb_remote/client/CMakeFiles/pb_remote_client_nrf51422_xxAC_s130_2.0.1.dir/__/__/__/mesh/access/src/device_state_manager.c.obj
                0x0002119c                dsm_subnet_add
 .text.dsm_devkey_add
                0x000211fc       0x7c examples/pb_remote/client/CMakeFiles/pb_remote_client_nrf51422_xxAC_s130_2.0.1.dir/__/__/__/mesh/access/src/device_state_manager.c.obj
                0x000211fc                dsm_devkey_add
 .text.dsm_appkey_add
                0x00021278       0x78 examples/pb_remote/client/CMakeFiles/pb_remote_client_nrf51422_xxAC_s130_2.0.1.dir/__/__/__/mesh/access/src/device_state_manager.c.obj
                0x00021278                dsm_appkey_add
 .text.dsm_tx_secmat_get
                0x000212f0       0xf8 examples/pb_remote/client/CMakeFiles/pb_remote_client_nrf51422_xxAC_s130_2.0.1.dir/__/__/__/mesh/access/src/device_state_manager.c.obj
                0x000212f0                dsm_tx_secmat_get
 .text.nrf_mesh_net_secmat_next_get
                0x000213e8       0x54 examples/pb_remote/client/CMakeFiles/pb_remote_client_nrf51422_xxAC_s130_2.0.1.dir/__/__/__/mesh/access/src/device_state_manager.c.obj
                0x000213e8                nrf_mesh_net_secmat_next_get
 .text.nrf_mesh_app_secmat_next_get
                0x0002143c       0x88 examples/pb_remote/client/CMakeFiles/pb_remote_client_nrf51422_xxAC_s130_2.0.1.dir/__/__/__/mesh/access/src/device_state_manager.c.obj
                0x0002143c                nrf_mesh_app_secmat_next_get
 .text.nrf_mesh_devkey_secmat_get
                0x000214c4       0x48 examples/pb_remote/client/CMakeFiles/pb_remote_client_nrf51422_xxAC_s130_2.0.1.dir/__/__/__/mesh/access/src/device_state_manager.c.obj
                0x000214c4                nrf_mesh_devkey_secmat_get
 .text.nrf_mesh_beacon_info_next_get
                0x0002150c       0x78 examples/pb_remote/client/CMakeFiles/pb_remote_client_nrf51422_xxAC_s130_2.0.1.dir/__/__/__/mesh/access/src/device_state_manager.c.obj
                0x0002150c                nrf_mesh_beacon_info_next_get
 .text.nrf_mesh_rx_address_get
                0x00021584       0xec examples/pb_remote/client/CMakeFiles/pb_remote_client_nrf51422_xxAC_s130_2.0.1.dir/__/__/__/mesh/access/src/device_state_manager.c.obj
                0x00021584                nrf_mesh_rx_address_get
 .text._weak_handler
                0x00021670        0x4 examples/pb_remote/client/CMakeFiles/pb_remote_client_nrf51422_xxAC_s130_2.0.1.dir/__/__/nrf_mesh_weak.c.obj
                0x00021670                nrf_mesh_dfu_init
                0x00021670                nrf_mesh_dfu_jump_to_bootloader
                0x00021670                nrf_mesh_dfu_rx
                0x00021670                nrf_mesh_dfu_bank_info_get
                0x00021670                nrf_mesh_dfu_request
                0x00021670                nrf_mesh_dfu_bank_flash
                0x00021670                _weak_handler
                0x00021670                prov_provisionee_auth_data
                0x00021670                nrf_mesh_dfu_relay
                0x00021670                prov_provisionee_shared_secret
                0x00021670                nrf_mesh_dfu_abort
                0x00021670                mesh_flash_op_execute
                0x00021670                prov_provisionee_init
                0x00021670                nrf_mesh_dfu_state_get
 .text.SystemInit
                0x00021674       0xe0 examples/pb_remote/client/CMakeFiles/pb_remote_client_nrf51422_xxAC_s130_2.0.1.dir/__/__/__/external/nRF5_SDK_14.0.0_3bcc1f7/components/toolchain/system_nrf51.c.obj
                0x00021674                SystemInit
 .text          0x00021754       0x4c examples/pb_remote/client/CMakeFiles/pb_remote_client_nrf51422_xxAC_s130_2.0.1.dir/__/__/__/external/nRF5_SDK_14.0.0_3bcc1f7/components/toolchain/gcc/gcc_startup_nrf51.S.obj
                0x00021754                Reset_Handler
                0x00021794                NMI_Handler
                0x00021798                SVC_Handler
                0x0002179a                PendSV_Handler
                0x0002179c                SysTick_Handler
                0x0002179e                GPIOTE_IRQHandler
                0x0002179e                RTC0_IRQHandler
                0x0002179e                POWER_CLOCK_IRQHandler
                0x0002179e                SPI0_TWI0_IRQHandler
                0x0002179e                LPCOMP_IRQHandler
                0x0002179e                SWI4_IRQHandler
                0x0002179e                TEMP_IRQHandler
                0x0002179e                UART0_IRQHandler
                0x0002179e                SWI5_IRQHandler
                0x0002179e                TIMER0_IRQHandler
                0x0002179e                RADIO_IRQHandler
                0x0002179e                SWI0_IRQHandler
                0x0002179e                TIMER1_IRQHandler
                0x0002179e                ECB_IRQHandler
                0x0002179e                Default_Handler
                0x0002179e                ADC_IRQHandler
                0x0002179e                SWI3_IRQHandler
                0x0002179e                CCM_AAR_IRQHandler
                0x0002179e                WDT_IRQHandler
                0x0002179e                TIMER2_IRQHandler
                0x0002179e                RNG_IRQHandler
                0x0002179e                SPI1_TWI1_IRQHandler
                0x0002179e                RTC1_IRQHandler
                0x0002179e                SWI1_IRQHandler
 .text.nrf_mesh_configure_device_uuid_reset
                0x000217a0       0x28 mesh/core/libmesh_core_nrf51422_xxAC.a(nrf_mesh_configure.c.obj)
                0x000217a0                nrf_mesh_configure_device_uuid_reset
 .text.nrf_mesh_configure_device_uuid_get
                0x000217c8        0x8 mesh/core/libmesh_core_nrf51422_xxAC.a(nrf_mesh_configure.c.obj)
                0x000217c8                nrf_mesh_configure_device_uuid_get
 .text.event_handle
                0x000217d0       0x34 mesh/core/libmesh_core_nrf51422_xxAC.a(event.c.obj)
                0x000217d0                event_handle
 .text.event_handler_add
                0x00021804       0x7c mesh/core/libmesh_core_nrf51422_xxAC.a(event.c.obj)
                0x00021804                event_handler_add
 .text.fifo_init
                0x00021880       0x5c mesh/core/libmesh_core_nrf51422_xxAC.a(fifo.c.obj)
                0x00021880                fifo_init
 .text.fifo_push
                0x000218dc       0x5c mesh/core/libmesh_core_nrf51422_xxAC.a(fifo.c.obj)
                0x000218dc                fifo_push
 .text.fifo_pop
                0x00021938       0x5c mesh/core/libmesh_core_nrf51422_xxAC.a(fifo.c.obj)
                0x00021938                fifo_pop
 .text.flash_mem_available
                0x00021994       0x20 mesh/core/libmesh_core_nrf51422_xxAC.a(net_state.c.obj)
 .text.flash_store_iv_index
                0x000219b4       0x34 mesh/core/libmesh_core_nrf51422_xxAC.a(net_state.c.obj)
 .text.seqnum_block_allocate
                0x000219e8       0x50 mesh/core/libmesh_core_nrf51422_xxAC.a(net_state.c.obj)
 .text.flash_write_complete
                0x00021a38       0x80 mesh/core/libmesh_core_nrf51422_xxAC.a(net_state.c.obj)
 .text.net_state_recover_from_flash
                0x00021ab8       0x8c mesh/core/libmesh_core_nrf51422_xxAC.a(net_state.c.obj)
                0x00021ab8                net_state_recover_from_flash
 .text.net_state_flash_area_get
                0x00021b44       0x10 mesh/core/libmesh_core_nrf51422_xxAC.a(net_state.c.obj)
                0x00021b44                net_state_flash_area_get
 .text.init_flash_storage
                0x00021b54       0x40 mesh/core/libmesh_core_nrf51422_xxAC.a(net_state.c.obj)
 .text.net_state_init
                0x00021b94       0x48 mesh/core/libmesh_core_nrf51422_xxAC.a(net_state.c.obj)
                0x00021b94                net_state_init
 .text.net_state_iv_update_start
                0x00021bdc       0x64 mesh/core/libmesh_core_nrf51422_xxAC.a(net_state.c.obj)
                0x00021bdc                net_state_iv_update_start
 .text.iv_update_trigger_if_pending
                0x00021c40       0x94 mesh/core/libmesh_core_nrf51422_xxAC.a(net_state.c.obj)
 .text.iv_update_timer_handler
                0x00021cd4       0x80 mesh/core/libmesh_core_nrf51422_xxAC.a(net_state.c.obj)
 .text.net_state_seqnum_alloc
                0x00021d54       0x68 mesh/core/libmesh_core_nrf51422_xxAC.a(net_state.c.obj)
                0x00021d54                net_state_seqnum_alloc
 .text.net_state_iv_index_lock
                0x00021dbc       0x4c mesh/core/libmesh_core_nrf51422_xxAC.a(net_state.c.obj)
                0x00021dbc                net_state_iv_index_lock
 .text.net_state_beacon_received
                0x00021e08       0x98 mesh/core/libmesh_core_nrf51422_xxAC.a(net_state.c.obj)
                0x00021e08                net_state_beacon_received
 .text.net_state_beacon_iv_index_get
                0x00021ea0        0xc mesh/core/libmesh_core_nrf51422_xxAC.a(net_state.c.obj)
                0x00021ea0                net_state_beacon_iv_index_get
 .text.net_state_tx_iv_index_get
                0x00021eac       0x14 mesh/core/libmesh_core_nrf51422_xxAC.a(net_state.c.obj)
                0x00021eac                net_state_tx_iv_index_get
 .text.net_state_rx_iv_index_get
                0x00021ec0       0x14 mesh/core/libmesh_core_nrf51422_xxAC.a(net_state.c.obj)
                0x00021ec0                net_state_rx_iv_index_get
 .text.net_state_iv_update_get
                0x00021ed4        0xc mesh/core/libmesh_core_nrf51422_xxAC.a(net_state.c.obj)
                0x00021ed4                net_state_iv_update_get
 .text.nrf_mesh_address_type_get
                0x00021ee0       0x14 mesh/core/libmesh_core_nrf51422_xxAC.a(nrf_mesh_utils.c.obj)
                0x00021ee0                nrf_mesh_address_type_get
 .text.sd_softdevice_is_enabled
                0x00021ef4        0x4 mesh/core/libmesh_core_nrf51422_xxAC.a(nrf_mesh.c.obj)
 .text.nrf_mesh_init
                0x00021ef8       0xb8 mesh/core/libmesh_core_nrf51422_xxAC.a(nrf_mesh.c.obj)
                0x00021ef8                nrf_mesh_init
 .text.nrf_mesh_enable
                0x00021fb0       0x4c mesh/core/libmesh_core_nrf51422_xxAC.a(nrf_mesh.c.obj)
                0x00021fb0                nrf_mesh_enable
 .text.nrf_mesh_packet_send
                0x00021ffc        0x8 mesh/core/libmesh_core_nrf51422_xxAC.a(nrf_mesh.c.obj)
                0x00021ffc                nrf_mesh_packet_send
 .text.nrf_mesh_process
                0x00022004      0x1c4 mesh/core/libmesh_core_nrf51422_xxAC.a(nrf_mesh.c.obj)
                0x00022004                nrf_mesh_process
 .text.nrf_mesh_on_ble_evt
                0x000221c8        0x4 mesh/core/libmesh_core_nrf51422_xxAC.a(nrf_mesh.c.obj)
                0x000221c8                nrf_mesh_on_ble_evt
 .text.nrf_mesh_on_sd_evt
                0x000221cc        0xa mesh/core/libmesh_core_nrf51422_xxAC.a(nrf_mesh.c.obj)
                0x000221cc                nrf_mesh_on_sd_evt
 .text.nrf_mesh_evt_handler_add
                0x000221d6        0x8 mesh/core/libmesh_core_nrf51422_xxAC.a(nrf_mesh.c.obj)
                0x000221d6                nrf_mesh_evt_handler_add
 *fill*         0x000221de        0x2 
 .text.hal_lfclk_ppm_get
                0x000221e0       0x14 mesh/core/libmesh_core_nrf51422_xxAC.a(hal.c.obj)
                0x000221e0                hal_lfclk_ppm_get
 .text.add_to_add_list
                0x000221f4       0x4c mesh/core/libmesh_core_nrf51422_xxAC.a(timer_scheduler.c.obj)
 .text.process_dirty_events
                0x00022240       0x64 mesh/core/libmesh_core_nrf51422_xxAC.a(timer_scheduler.c.obj)
 .text.timer_cb
                0x000222a4       0x10 mesh/core/libmesh_core_nrf51422_xxAC.a(timer_scheduler.c.obj)
 .text.add_evt.constprop.0
                0x000222b4       0x70 mesh/core/libmesh_core_nrf51422_xxAC.a(timer_scheduler.c.obj)
 .text.process_add_list
                0x00022324       0x4c mesh/core/libmesh_core_nrf51422_xxAC.a(timer_scheduler.c.obj)
 .text.flag_event_cb
                0x00022370      0x104 mesh/core/libmesh_core_nrf51422_xxAC.a(timer_scheduler.c.obj)
 .text.timer_sch_init
                0x00022474       0x24 mesh/core/libmesh_core_nrf51422_xxAC.a(timer_scheduler.c.obj)
                0x00022474                timer_sch_init
 .text.timer_sch_schedule
                0x00022498       0x54 mesh/core/libmesh_core_nrf51422_xxAC.a(timer_scheduler.c.obj)
                0x00022498                timer_sch_schedule
 .text.timer_sch_abort
                0x000224ec       0x68 mesh/core/libmesh_core_nrf51422_xxAC.a(timer_scheduler.c.obj)
                0x000224ec                timer_sch_abort
 .text.timer_sch_reschedule
                0x00022554       0x78 mesh/core/libmesh_core_nrf51422_xxAC.a(timer_scheduler.c.obj)
                0x00022554                timer_sch_reschedule
 .text.timer_mut_unlock
                0x000225cc       0x10 mesh/core/libmesh_core_nrf51422_xxAC.a(timer.c.obj)
 .text.timer_order_cb
                0x000225dc       0x90 mesh/core/libmesh_core_nrf51422_xxAC.a(timer.c.obj)
                0x000225dc                timer_order_cb
 .text.timer_now
                0x0002266c       0x54 mesh/core/libmesh_core_nrf51422_xxAC.a(timer.c.obj)
                0x0002266c                timer_now
 .text.timer_event_handler
                0x000226c0       0x94 mesh/core/libmesh_core_nrf51422_xxAC.a(timer.c.obj)
                0x000226c0                timer_event_handler
 .text.timer_on_ts_begin
                0x00022754      0x104 mesh/core/libmesh_core_nrf51422_xxAC.a(timer.c.obj)
                0x00022754                timer_on_ts_begin
 .text.timer_on_ts_end
                0x00022858       0x64 mesh/core/libmesh_core_nrf51422_xxAC.a(timer.c.obj)
                0x00022858                timer_on_ts_end
 .text.timer_cb
                0x000228bc       0x10 mesh/core/libmesh_core_nrf51422_xxAC.a(ticker.c.obj)
 .text.ticker_init
                0x000228cc       0x38 mesh/core/libmesh_core_nrf51422_xxAC.a(ticker.c.obj)
                0x000228cc                ticker_init
 .text.sd_rand_application_bytes_available_get
                0x00022904        0x4 mesh/core/libmesh_core_nrf51422_xxAC.a(rand.c.obj)
 .text.sd_rand_application_vector_get
                0x00022908        0x4 mesh/core/libmesh_core_nrf51422_xxAC.a(rand.c.obj)
 .text.rand_prng_get
                0x0002290c       0x2e mesh/core/libmesh_core_nrf51422_xxAC.a(rand.c.obj)
                0x0002290c                rand_prng_get
 *fill*         0x0002293a        0x2 
 .text.rand_hw_rng_get
                0x0002293c       0x4c mesh/core/libmesh_core_nrf51422_xxAC.a(rand.c.obj)
                0x0002293c                rand_hw_rng_get
 .text.rand_prng_seed
                0x00022988       0x30 mesh/core/libmesh_core_nrf51422_xxAC.a(rand.c.obj)
                0x00022988                rand_prng_seed
 .text.sd_radio_session_open
                0x000229b8        0x4 mesh/core/libmesh_core_nrf51422_xxAC.a(timeslot.c.obj)
 .text.sd_radio_session_close
                0x000229bc        0x4 mesh/core/libmesh_core_nrf51422_xxAC.a(timeslot.c.obj)
 .text.sd_radio_request
                0x000229c0        0x4 mesh/core/libmesh_core_nrf51422_xxAC.a(timeslot.c.obj)
 .text.end_timer_handler
                0x000229c4       0x2c mesh/core/libmesh_core_nrf51422_xxAC.a(timeslot.c.obj)
 .text.get_end_time.constprop.10
                0x000229f0       0x28 mesh/core/libmesh_core_nrf51422_xxAC.a(timeslot.c.obj)
 .text.handle_extend_end.constprop.3
                0x00022a18       0xc4 mesh/core/libmesh_core_nrf51422_xxAC.a(timeslot.c.obj)
 .text.radio_signal_callback
                0x00022adc      0x160 mesh/core/libmesh_core_nrf51422_xxAC.a(timeslot.c.obj)
 .text.timeslot_sd_event_handler
                0x00022c3c       0x48 mesh/core/libmesh_core_nrf51422_xxAC.a(timeslot.c.obj)
                0x00022c3c                timeslot_sd_event_handler
 .text.timeslot_init
                0x00022c84       0x4c mesh/core/libmesh_core_nrf51422_xxAC.a(timeslot.c.obj)
                0x00022c84                timeslot_init
 .text.timeslot_start
                0x00022cd0       0x1c mesh/core/libmesh_core_nrf51422_xxAC.a(timeslot.c.obj)
                0x00022cd0                timeslot_start
 .text.timeslot_end_is_pending
                0x00022cec       0x2c mesh/core/libmesh_core_nrf51422_xxAC.a(timeslot.c.obj)
                0x00022cec                timeslot_end_is_pending
 .text.timeslot_start_time_get
                0x00022d18        0xc mesh/core/libmesh_core_nrf51422_xxAC.a(timeslot.c.obj)
                0x00022d18                timeslot_start_time_get
 .text.timeslot_remaining_time_get
                0x00022d24       0x24 mesh/core/libmesh_core_nrf51422_xxAC.a(timeslot.c.obj)
                0x00022d24                timeslot_remaining_time_get
 .text.timeslot_is_in_cb
                0x00022d48        0xc mesh/core/libmesh_core_nrf51422_xxAC.a(timeslot.c.obj)
                0x00022d48                timeslot_is_in_cb
 .text.timeslot_trigger
                0x00022d54       0x28 mesh/core/libmesh_core_nrf51422_xxAC.a(timeslot.c.obj)
                0x00022d54                timeslot_trigger
 .text.timeslot_stop
                0x00022d7c       0x14 mesh/core/libmesh_core_nrf51422_xxAC.a(timeslot.c.obj)
                0x00022d7c                timeslot_stop
 .text.timeslot_state_lock
                0x00022d90       0x2c mesh/core/libmesh_core_nrf51422_xxAC.a(timeslot.c.obj)
                0x00022d90                timeslot_state_lock
 .text.evt_push
                0x00022dbc       0x24 mesh/core/libmesh_core_nrf51422_xxAC.a(bearer_event.c.obj)
 .text.QDEC_IRQHandler
                0x00022de0       0xc4 mesh/core/libmesh_core_nrf51422_xxAC.a(bearer_event.c.obj)
                0x00022de0                QDEC_IRQHandler
 .text.bearer_event_init
                0x00022ea4       0x48 mesh/core/libmesh_core_nrf51422_xxAC.a(bearer_event.c.obj)
                0x00022ea4                bearer_event_init
 .text.bearer_event_timer_post
                0x00022eec       0x34 mesh/core/libmesh_core_nrf51422_xxAC.a(bearer_event.c.obj)
                0x00022eec                bearer_event_timer_post
 .text.bearer_event_critical_section_begin
                0x00022f20       0x48 mesh/core/libmesh_core_nrf51422_xxAC.a(bearer_event.c.obj)
                0x00022f20                bearer_event_critical_section_begin
 .text.bearer_event_critical_section_end
                0x00022f68       0x48 mesh/core/libmesh_core_nrf51422_xxAC.a(bearer_event.c.obj)
                0x00022f68                bearer_event_critical_section_end
 .text.bearer_event_flag_add
                0x00022fb0       0x54 mesh/core/libmesh_core_nrf51422_xxAC.a(bearer_event.c.obj)
                0x00022fb0                bearer_event_flag_add
 .text.bearer_event_flag_set
                0x00023004       0x58 mesh/core/libmesh_core_nrf51422_xxAC.a(bearer_event.c.obj)
                0x00023004                bearer_event_flag_set
 .text.bearer_event_sequential_add
                0x0002305c       0x4c mesh/core/libmesh_core_nrf51422_xxAC.a(bearer_event.c.obj)
                0x0002305c                bearer_event_sequential_add
 .text.bearer_event_sequential_post
                0x000230a8       0x68 mesh/core/libmesh_core_nrf51422_xxAC.a(bearer_event.c.obj)
                0x000230a8                bearer_event_sequential_post
 .text.bearer_event_sequential_pending
                0x00023110       0x20 mesh/core/libmesh_core_nrf51422_xxAC.a(bearer_event.c.obj)
                0x00023110                bearer_event_sequential_pending
 .text.enc_aes_encrypt
                0x00023130        0x8 mesh/core/libmesh_core_nrf51422_xxAC.a(enc.c.obj)
                0x00023130                enc_aes_encrypt
 .text.enc_aes_cmac
                0x00023138        0x8 mesh/core/libmesh_core_nrf51422_xxAC.a(enc.c.obj)
                0x00023138                enc_aes_cmac
 .text.enc_aes_ccm_encrypt
                0x00023140        0x8 mesh/core/libmesh_core_nrf51422_xxAC.a(enc.c.obj)
                0x00023140                enc_aes_ccm_encrypt
 .text.enc_aes_ccm_decrypt
                0x00023148        0x8 mesh/core/libmesh_core_nrf51422_xxAC.a(enc.c.obj)
                0x00023148                enc_aes_ccm_decrypt
 .text.enc_nonce_generate
                0x00023150       0xd8 mesh/core/libmesh_core_nrf51422_xxAC.a(enc.c.obj)
                0x00023150                enc_nonce_generate
 .text.enc_s1   0x00023228       0x3c mesh/core/libmesh_core_nrf51422_xxAC.a(enc.c.obj)
                0x00023228                enc_s1
 .text.enc_k1   0x00023264       0x58 mesh/core/libmesh_core_nrf51422_xxAC.a(enc.c.obj)
                0x00023264                enc_k1
 .text.enc_k2   0x000232bc      0x110 mesh/core/libmesh_core_nrf51422_xxAC.a(enc.c.obj)
                0x000232bc                enc_k2
 .text.enc_k3   0x000233cc       0x70 mesh/core/libmesh_core_nrf51422_xxAC.a(enc.c.obj)
                0x000233cc                enc_k3
 .text.enc_k4   0x0002343c       0x74 mesh/core/libmesh_core_nrf51422_xxAC.a(enc.c.obj)
                0x0002343c                enc_k4
 .text.header_transfuscate
                0x000234b0       0x58 mesh/core/libmesh_core_nrf51422_xxAC.a(network.c.obj)
 .text.allocate_packet
                0x00023508      0x140 mesh/core/libmesh_core_nrf51422_xxAC.a(network.c.obj)
 .text.network_init
                0x00023648       0x2c mesh/core/libmesh_core_nrf51422_xxAC.a(network.c.obj)
                0x00023648                network_init
 .text.network_packet_alloc
                0x00023674       0x58 mesh/core/libmesh_core_nrf51422_xxAC.a(network.c.obj)
                0x00023674                network_packet_alloc
 .text.network_packet_send
                0x000236cc      0x154 mesh/core/libmesh_core_nrf51422_xxAC.a(network.c.obj)
                0x000236cc                network_packet_send
 .text.network_packet_in
                0x00023820      0x484 mesh/core/libmesh_core_nrf51422_xxAC.a(network.c.obj)
                0x00023820                network_packet_in
 .text.nrf_mesh_keygen_aid
                0x00023ca4       0x16 mesh/core/libmesh_core_nrf51422_xxAC.a(nrf_mesh_keygen.c.obj)
                0x00023ca4                nrf_mesh_keygen_aid
 .text.nrf_mesh_keygen_network_secmat
                0x00023cba       0x20 mesh/core/libmesh_core_nrf51422_xxAC.a(nrf_mesh_keygen.c.obj)
                0x00023cba                nrf_mesh_keygen_network_secmat
 *fill*         0x00023cda        0x2 
 .text.nrf_mesh_keygen_beacon_secmat
                0x00023cdc       0x54 mesh/core/libmesh_core_nrf51422_xxAC.a(nrf_mesh_keygen.c.obj)
                0x00023cdc                nrf_mesh_keygen_beacon_secmat
 .text.nrf_mesh_keygen_virtual_address
                0x00023d30       0x50 mesh/core/libmesh_core_nrf51422_xxAC.a(nrf_mesh_keygen.c.obj)
                0x00023d30                nrf_mesh_keygen_virtual_address
 .text.log_callback_rtt
                0x00023d80       0x28 mesh/core/libmesh_core_nrf51422_xxAC.a(log.c.obj)
                0x00023d80                log_callback_rtt
 .text.log_init
                0x00023da8       0x1c mesh/core/libmesh_core_nrf51422_xxAC.a(log.c.obj)
                0x00023da8                log_init
 .text.log_vprintf
                0x00023dc4       0x1c mesh/core/libmesh_core_nrf51422_xxAC.a(log.c.obj)
                0x00023dc4                log_vprintf
 .text.log_printf
                0x00023de0       0x16 mesh/core/libmesh_core_nrf51422_xxAC.a(log.c.obj)
                0x00023de0                log_printf
 .text.get_area_end
                0x00023df6        0xc mesh/core/libmesh_core_nrf51422_xxAC.a(flash_manager.c.obj)
 *fill*         0x00023e02        0x2 
 .text.handle_matches_filter
                0x00023e04       0x28 mesh/core/libmesh_core_nrf51422_xxAC.a(flash_manager.c.obj)
 .text.get_packet_buffer
                0x00023e2c       0x30 mesh/core/libmesh_core_nrf51422_xxAC.a(flash_manager.c.obj)
 .text.get_entry_action
                0x00023e5c       0x30 mesh/core/libmesh_core_nrf51422_xxAC.a(flash_manager.c.obj)
 .text.flash_area_is_blank
                0x00023e8c       0x50 mesh/core/libmesh_core_nrf51422_xxAC.a(flash_manager.c.obj)
 .text.flash    0x00023edc       0x1e mesh/core/libmesh_core_nrf51422_xxAC.a(flash_manager.c.obj)
 *fill*         0x00023efa        0x2 
 .text.free_packet_buffer
                0x00023efc       0x4c mesh/core/libmesh_core_nrf51422_xxAC.a(flash_manager.c.obj)
 .text.reserve_action_buffer
                0x00023f48       0x20 mesh/core/libmesh_core_nrf51422_xxAC.a(flash_manager.c.obj)
 .text.commit_action_buffer
                0x00023f68       0x18 mesh/core/libmesh_core_nrf51422_xxAC.a(flash_manager.c.obj)
 .text.schedule_processing
                0x00023f80       0x10 mesh/core/libmesh_core_nrf51422_xxAC.a(flash_manager.c.obj)
 .text.get_next_entry
                0x00023f90       0x44 mesh/core/libmesh_core_nrf51422_xxAC.a(flash_manager.c.obj)
 .text.get_last_entry.isra.1
                0x00023fd4       0x34 mesh/core/libmesh_core_nrf51422_xxAC.a(flash_manager.c.obj)
 .text.process_action_queue
                0x00024008      0x49c mesh/core/libmesh_core_nrf51422_xxAC.a(flash_manager.c.obj)
 .text.flash_op_ended_callback
                0x000244a4       0x24 mesh/core/libmesh_core_nrf51422_xxAC.a(flash_manager.c.obj)
 .text.flash_manager_init
                0x000244c8       0x68 mesh/core/libmesh_core_nrf51422_xxAC.a(flash_manager.c.obj)
                0x000244c8                flash_manager_init
 .text.flash_manager_entry_next_get
                0x00024530       0x74 mesh/core/libmesh_core_nrf51422_xxAC.a(flash_manager.c.obj)
                0x00024530                flash_manager_entry_next_get
 .text.flash_manager_entry_alloc
                0x000245a4       0x88 mesh/core/libmesh_core_nrf51422_xxAC.a(flash_manager.c.obj)
                0x000245a4                flash_manager_entry_alloc
 .text.flash_manager_entry_commit
                0x0002462c       0x10 mesh/core/libmesh_core_nrf51422_xxAC.a(flash_manager.c.obj)
                0x0002462c                flash_manager_entry_commit
 .text.flash_manager_entry_invalidate
                0x0002463c       0x70 mesh/core/libmesh_core_nrf51422_xxAC.a(flash_manager.c.obj)
                0x0002463c                flash_manager_entry_invalidate
 .text.flash_manager_add
                0x000246ac      0x250 mesh/core/libmesh_core_nrf51422_xxAC.a(flash_manager.c.obj)
                0x000246ac                flash_manager_add
 .text.flash_manager_mem_listener_register
                0x000248fc       0x48 mesh/core/libmesh_core_nrf51422_xxAC.a(flash_manager.c.obj)
                0x000248fc                flash_manager_mem_listener_register
 .text.flash_manager_is_stable
                0x00024944       0x24 mesh/core/libmesh_core_nrf51422_xxAC.a(flash_manager.c.obj)
                0x00024944                flash_manager_is_stable
 .text.flash_manager_on_defrag_end
                0x00024968       0x5c mesh/core/libmesh_core_nrf51422_xxAC.a(flash_manager.c.obj)
                0x00024968                flash_manager_on_defrag_end
 .text.flash_manager_recovery_page_get
                0x000249c4        0x8 mesh/core/libmesh_core_nrf51422_xxAC.a(flash_manager.c.obj)
                0x000249c4                flash_manager_recovery_page_get
 .text.utils_xor
                0x000249cc       0x16 mesh/core/libmesh_core_nrf51422_xxAC.a(ccm_soft.c.obj)
 .text.ccm_soft_authenticate_blocks
                0x000249e2       0x66 mesh/core/libmesh_core_nrf51422_xxAC.a(ccm_soft.c.obj)
 .text.utils_reverse_memcpy.constprop.0
                0x00024a48        0xa mesh/core/libmesh_core_nrf51422_xxAC.a(ccm_soft.c.obj)
 .text.ccm_soft_authenticate
                0x00024a52       0x94 mesh/core/libmesh_core_nrf51422_xxAC.a(ccm_soft.c.obj)
 .text.ccm_soft_crypt
                0x00024ae6       0x58 mesh/core/libmesh_core_nrf51422_xxAC.a(ccm_soft.c.obj)
 .text.ccm_soft_encrypt
                0x00024b3e       0x6e mesh/core/libmesh_core_nrf51422_xxAC.a(ccm_soft.c.obj)
                0x00024b3e                ccm_soft_encrypt
 .text.ccm_soft_decrypt
                0x00024bac      0x10c mesh/core/libmesh_core_nrf51422_xxAC.a(ccm_soft.c.obj)
                0x00024bac                ccm_soft_decrypt
 .text.beacon_init
                0x00024cb8       0x4c mesh/core/libmesh_core_nrf51422_xxAC.a(beacon.c.obj)
                0x00024cb8                beacon_init
 .text.beacon_create
                0x00024d04       0x46 mesh/core/libmesh_core_nrf51422_xxAC.a(beacon.c.obj)
                0x00024d04                beacon_create
 *fill*         0x00024d4a        0x2 
 .text.beacon_tx
                0x00024d4c       0x40 mesh/core/libmesh_core_nrf51422_xxAC.a(beacon.c.obj)
                0x00024d4c                beacon_tx
 .text.beacon_packet_in
                0x00024d8c      0x164 mesh/core/libmesh_core_nrf51422_xxAC.a(beacon.c.obj)
                0x00024d8c                beacon_packet_in
 .text.entry_get
                0x00024ef0       0x80 mesh/core/libmesh_core_nrf51422_xxAC.a(flash_manager_internal.c.obj)
                0x00024ef0                entry_get
 .text.adv_tx_complete_callback
                0x00024f70       0x50 mesh/core/libmesh_core_nrf51422_xxAC.a(core_tx.c.obj)
 .text.core_tx_init
                0x00024fc0       0x4c mesh/core/libmesh_core_nrf51422_xxAC.a(core_tx.c.obj)
                0x00024fc0                core_tx_init
 .text.core_tx_complete_cb_set
                0x0002500c        0xc mesh/core/libmesh_core_nrf51422_xxAC.a(core_tx.c.obj)
                0x0002500c                core_tx_complete_cb_set
 .text.core_tx_packet_alloc
                0x00025018       0xa4 mesh/core/libmesh_core_nrf51422_xxAC.a(core_tx.c.obj)
                0x00025018                core_tx_packet_alloc
 .text.core_tx_packet_send
                0x000250bc       0x78 mesh/core/libmesh_core_nrf51422_xxAC.a(core_tx.c.obj)
                0x000250bc                core_tx_packet_send
 .text.core_tx_packet_discard
                0x00025134       0x78 mesh/core/libmesh_core_nrf51422_xxAC.a(core_tx.c.obj)
                0x00025134                core_tx_packet_discard
 .text.network_beacon_tx_cb
                0x000251ac       0xf0 mesh/core/libmesh_core_nrf51422_xxAC.a(net_beacon.c.obj)
 .text.net_beacon_init
                0x0002529c       0x5c mesh/core/libmesh_core_nrf51422_xxAC.a(net_beacon.c.obj)
                0x0002529c                net_beacon_init
 .text.net_beacon_packet_in
                0x000252f8       0xd8 mesh/core/libmesh_core_nrf51422_xxAC.a(net_beacon.c.obj)
                0x000252f8                net_beacon_packet_in
 .text.set_gap_addr_type
                0x000253d0       0x30 mesh/core/libmesh_core_nrf51422_xxAC.a(advertiser.c.obj)
 .text.tx_complete_event_callback
                0x00025400       0x44 mesh/core/libmesh_core_nrf51422_xxAC.a(advertiser.c.obj)
 .text.broadcast_complete_cb
                0x00025444       0x68 mesh/core/libmesh_core_nrf51422_xxAC.a(advertiser.c.obj)
 .text.schedule_first_time
                0x000254ac       0x28 mesh/core/libmesh_core_nrf51422_xxAC.a(advertiser.c.obj)
 .text.timeout_event
                0x000254d4      0x12c mesh/core/libmesh_core_nrf51422_xxAC.a(advertiser.c.obj)
 .text.advertiser_init
                0x00025600       0x10 mesh/core/libmesh_core_nrf51422_xxAC.a(advertiser.c.obj)
                0x00025600                advertiser_init
 .text.advertiser_enable
                0x00025610       0x2c mesh/core/libmesh_core_nrf51422_xxAC.a(advertiser.c.obj)
                0x00025610                advertiser_enable
 .text.advertiser_packet_alloc
                0x0002563c       0xac mesh/core/libmesh_core_nrf51422_xxAC.a(advertiser.c.obj)
                0x0002563c                advertiser_packet_alloc
 .text.advertiser_packet_send
                0x000256e8       0x74 mesh/core/libmesh_core_nrf51422_xxAC.a(advertiser.c.obj)
                0x000256e8                advertiser_packet_send
 .text.advertiser_packet_discard
                0x0002575c       0x2c mesh/core/libmesh_core_nrf51422_xxAC.a(advertiser.c.obj)
                0x0002575c                advertiser_packet_discard
 .text.advertiser_interval_set
                0x00025788       0x68 mesh/core/libmesh_core_nrf51422_xxAC.a(advertiser.c.obj)
                0x00025788                advertiser_interval_set
 .text.advertiser_flush
                0x000257f0       0x22 mesh/core/libmesh_core_nrf51422_xxAC.a(advertiser.c.obj)
                0x000257f0                advertiser_flush
 *fill*         0x00025812        0x2 
 .text.advertiser_address_default_get
                0x00025814       0x30 mesh/core/libmesh_core_nrf51422_xxAC.a(advertiser.c.obj)
                0x00025814                advertiser_address_default_get
 .text.advertiser_instance_init
                0x00025844       0xb4 mesh/core/libmesh_core_nrf51422_xxAC.a(advertiser.c.obj)
                0x00025844                advertiser_instance_init
 .text.action_switch
                0x000258f8       0xc4 mesh/core/libmesh_core_nrf51422_xxAC.a(bearer_handler.c.obj)
 .text.bearer_handler_init
                0x000259bc       0x2c mesh/core/libmesh_core_nrf51422_xxAC.a(bearer_handler.c.obj)
                0x000259bc                bearer_handler_init
 .text.bearer_handler_start
                0x000259e8       0x1c mesh/core/libmesh_core_nrf51422_xxAC.a(bearer_handler.c.obj)
                0x000259e8                bearer_handler_start
 .text.bearer_handler_action_enqueue
                0x00025a04       0x9c mesh/core/libmesh_core_nrf51422_xxAC.a(bearer_handler.c.obj)
                0x00025a04                bearer_handler_action_enqueue
 .text.bearer_handler_action_end
                0x00025aa0       0x7c mesh/core/libmesh_core_nrf51422_xxAC.a(bearer_handler.c.obj)
                0x00025aa0                bearer_handler_action_end
 .text.bearer_handler_radio_irq_handler
                0x00025b1c       0x6c mesh/core/libmesh_core_nrf51422_xxAC.a(bearer_handler.c.obj)
                0x00025b1c                bearer_handler_radio_irq_handler
 .text.bearer_handler_timer_irq_handler
                0x00025b88       0x30 mesh/core/libmesh_core_nrf51422_xxAC.a(bearer_handler.c.obj)
                0x00025b88                bearer_handler_timer_irq_handler
 .text.bearer_handler_on_ts_begin
                0x00025bb8       0x4c mesh/core/libmesh_core_nrf51422_xxAC.a(bearer_handler.c.obj)
                0x00025bb8                bearer_handler_on_ts_begin
 .text.bearer_handler_on_ts_end
                0x00025c04       0x50 mesh/core/libmesh_core_nrf51422_xxAC.a(bearer_handler.c.obj)
                0x00025c04                bearer_handler_on_ts_end
 .text.radio_irq_handler
                0x00025c54       0xbc mesh/core/libmesh_core_nrf51422_xxAC.a(broadcast.c.obj)
 .text.broadcast_start
                0x00025d10       0x98 mesh/core/libmesh_core_nrf51422_xxAC.a(broadcast.c.obj)
 .text.broadcast_send
                0x00025da8       0x80 mesh/core/libmesh_core_nrf51422_xxAC.a(broadcast.c.obj)
                0x00025da8                broadcast_send
 .text.radio_config_reset
                0x00025e28       0x48 mesh/core/libmesh_core_nrf51422_xxAC.a(radio_config.c.obj)
                0x00025e28                radio_config_reset
 .text.radio_config_channel_set
                0x00025e70       0x3c mesh/core/libmesh_core_nrf51422_xxAC.a(radio_config.c.obj)
                0x00025e70                radio_config_channel_set
 .text.radio_config_config
                0x00025eac       0xb0 mesh/core/libmesh_core_nrf51422_xxAC.a(radio_config.c.obj)
                0x00025eac                radio_config_config
 .text.radio_config_access_addr_set
                0x00025f5c       0x74 mesh/core/libmesh_core_nrf51422_xxAC.a(radio_config.c.obj)
                0x00025f5c                radio_config_access_addr_set
 .text.radio_trigger
                0x00025fd0       0x24 mesh/core/libmesh_core_nrf51422_xxAC.a(scanner.c.obj)
 .text.scan_window_end
                0x00025ff4       0x14 mesh/core/libmesh_core_nrf51422_xxAC.a(scanner.c.obj)
 .text.scan_window_start
                0x00026008       0x28 mesh/core/libmesh_core_nrf51422_xxAC.a(scanner.c.obj)
 .text.radio_configure
                0x00026030       0x88 mesh/core/libmesh_core_nrf51422_xxAC.a(scanner.c.obj)
 .text.radio_set_packet
                0x000260b8       0x58 mesh/core/libmesh_core_nrf51422_xxAC.a(scanner.c.obj)
 .text.radio_start
                0x00026110       0x54 mesh/core/libmesh_core_nrf51422_xxAC.a(scanner.c.obj)
 .text.radio_stop
                0x00026164       0x38 mesh/core/libmesh_core_nrf51422_xxAC.a(scanner.c.obj)
 .text.schedule_timers
                0x0002619c       0x34 mesh/core/libmesh_core_nrf51422_xxAC.a(scanner.c.obj)
 .text.scanner_radio_start
                0x000261d0       0x28 mesh/core/libmesh_core_nrf51422_xxAC.a(scanner.c.obj)
                0x000261d0                scanner_radio_start
 .text.scanner_radio_stop
                0x000261f8       0x14 mesh/core/libmesh_core_nrf51422_xxAC.a(scanner.c.obj)
                0x000261f8                scanner_radio_stop
 .text.scanner_radio_irq_handler
                0x0002620c      0x124 mesh/core/libmesh_core_nrf51422_xxAC.a(scanner.c.obj)
                0x0002620c                scanner_radio_irq_handler
 .text.scanner_enable
                0x00026330       0x34 mesh/core/libmesh_core_nrf51422_xxAC.a(scanner.c.obj)
                0x00026330                scanner_enable
 .text.scanner_packet_release
                0x00026364       0x38 mesh/core/libmesh_core_nrf51422_xxAC.a(scanner.c.obj)
                0x00026364                scanner_packet_release
 .text.scanner_rx
                0x0002639c       0x34 mesh/core/libmesh_core_nrf51422_xxAC.a(scanner.c.obj)
                0x0002639c                scanner_rx
 .text.scanner_config_scan_time_set
                0x000263d0       0x6c mesh/core/libmesh_core_nrf51422_xxAC.a(scanner.c.obj)
                0x000263d0                scanner_config_scan_time_set
 .text.scanner_config_channels_set
                0x0002643c       0x68 mesh/core/libmesh_core_nrf51422_xxAC.a(scanner.c.obj)
                0x0002643c                scanner_config_channels_set
 .text.scanner_config_access_addresses_set
                0x000264a4       0x44 mesh/core/libmesh_core_nrf51422_xxAC.a(scanner.c.obj)
                0x000264a4                scanner_config_access_addresses_set
 .text.scanner_config_reset
                0x000264e8       0x44 mesh/core/libmesh_core_nrf51422_xxAC.a(scanner.c.obj)
                0x000264e8                scanner_config_reset
 .text.scanner_init
                0x0002652c       0x48 mesh/core/libmesh_core_nrf51422_xxAC.a(scanner.c.obj)
                0x0002652c                scanner_init
 .text.internal_event_push
                0x00026574       0x30 mesh/core/libmesh_core_nrf51422_xxAC.a(internal_event.c.obj)
                0x00026574                internal_event_push
 .text.sd_ecb_block_encrypt
                0x000265a4        0x4 mesh/core/libmesh_core_nrf51422_xxAC.a(aes.c.obj)
 .text.aes_encrypt
                0x000265a8       0x30 mesh/core/libmesh_core_nrf51422_xxAC.a(aes.c.obj)
                0x000265a8                aes_encrypt
 .text.msg_cache_init
                0x000265d8       0x28 mesh/core/libmesh_core_nrf51422_xxAC.a(msg_cache.c.obj)
                0x000265d8                msg_cache_init
 .text.msg_cache_entry_exists
                0x00026600       0x40 mesh/core/libmesh_core_nrf51422_xxAC.a(msg_cache.c.obj)
                0x00026600                msg_cache_entry_exists
 .text.msg_cache_entry_add
                0x00026640       0x2c mesh/core/libmesh_core_nrf51422_xxAC.a(msg_cache.c.obj)
                0x00026640                msg_cache_entry_add
 .text.block_ack_full
                0x0002666c       0x2c mesh/core/libmesh_core_nrf51422_xxAC.a(transport.c.obj)
 .text.seqauth_sequence_number_get
                0x00026698       0x18 mesh/core/libmesh_core_nrf51422_xxAC.a(transport.c.obj)
 .text.sar_rx_session_mark_as_handled
                0x000266b0       0x54 mesh/core/libmesh_core_nrf51422_xxAC.a(transport.c.obj)
 .text.sar_ctx_find
                0x00026704       0x40 mesh/core/libmesh_core_nrf51422_xxAC.a(transport.c.obj)
 .text.m_send_sar_cancel_event
                0x00026744       0x26 mesh/core/libmesh_core_nrf51422_xxAC.a(transport.c.obj)
 *fill*         0x0002676a        0x2 
 .text.tx_complete
                0x0002676c       0x30 mesh/core/libmesh_core_nrf51422_xxAC.a(transport.c.obj)
 .text.upper_trs_packet_alloc
                0x0002679c       0x30 mesh/core/libmesh_core_nrf51422_xxAC.a(transport.c.obj)
 .text.upper_trs_packet_encrypt
                0x000267cc       0xc4 mesh/core/libmesh_core_nrf51422_xxAC.a(transport.c.obj)
 .text.sar_ctx_free
                0x00026890       0x38 mesh/core/libmesh_core_nrf51422_xxAC.a(transport.c.obj)
 .text.sar_ctx_tx_complete
                0x000268c8       0x3c mesh/core/libmesh_core_nrf51422_xxAC.a(transport.c.obj)
 .text.sar_ctx_cancel
                0x00026904      0x110 mesh/core/libmesh_core_nrf51422_xxAC.a(transport.c.obj)
 .text.abort_timeout
                0x00026a14        0xc mesh/core/libmesh_core_nrf51422_xxAC.a(transport.c.obj)
 .text.sar_ctx_alloc
                0x00026a20       0xc4 mesh/core/libmesh_core_nrf51422_xxAC.a(transport.c.obj)
 .text.test_transport_decrypt
                0x00026ae4       0x90 mesh/core/libmesh_core_nrf51422_xxAC.a(transport.c.obj)
 .text.upper_transport_access_packet_in
                0x00026b74      0x290 mesh/core/libmesh_core_nrf51422_xxAC.a(transport.c.obj)
 .text.trs_packet_header_build
                0x00026e04       0x96 mesh/core/libmesh_core_nrf51422_xxAC.a(transport.c.obj)
 *fill*         0x00026e9a        0x2 
 .text.trs_sar_packet_out
                0x00026e9c       0xc4 mesh/core/libmesh_core_nrf51422_xxAC.a(transport.c.obj)
 .text.retry_timeout
                0x00026f60       0x54 mesh/core/libmesh_core_nrf51422_xxAC.a(transport.c.obj)
 .text.sar_ack_send
                0x00026fb4      0x11c mesh/core/libmesh_core_nrf51422_xxAC.a(transport.c.obj)
 .text.ack_timeout
                0x000270d0       0x3c mesh/core/libmesh_core_nrf51422_xxAC.a(transport.c.obj)
 .text.tx_retry_timer_reset
                0x0002710c       0x50 mesh/core/libmesh_core_nrf51422_xxAC.a(transport.c.obj)
 .text.upper_transport_packet_in
                0x0002715c      0x174 mesh/core/libmesh_core_nrf51422_xxAC.a(transport.c.obj)
 .text.transport_sar_process
                0x000272d0       0x78 mesh/core/libmesh_core_nrf51422_xxAC.a(transport.c.obj)
 .text.transport_sar_mem_funcs_reset
                0x00027348       0x2c mesh/core/libmesh_core_nrf51422_xxAC.a(transport.c.obj)
                0x00027348                transport_sar_mem_funcs_reset
 .text.transport_init
                0x00027374       0x74 mesh/core/libmesh_core_nrf51422_xxAC.a(transport.c.obj)
                0x00027374                transport_init
 .text.transport_packet_in
                0x000273e8      0x4f0 mesh/core/libmesh_core_nrf51422_xxAC.a(transport.c.obj)
                0x000273e8                transport_packet_in
 .text.transport_tx
                0x000278d8      0x2b8 mesh/core/libmesh_core_nrf51422_xxAC.a(transport.c.obj)
                0x000278d8                transport_tx
 .text.m_adjust_desired_packet_length
                0x00027b90       0x34 mesh/core/libmesh_core_nrf51422_xxAC.a(packet_buffer.c.obj)
 .text.m_index_increment.part.0
                0x00027bc4       0x18 mesh/core/libmesh_core_nrf51422_xxAC.a(packet_buffer.c.obj)
 .text.m_free_popped_packet
                0x00027bdc       0x64 mesh/core/libmesh_core_nrf51422_xxAC.a(packet_buffer.c.obj)
 .text.free_skipped_packets
                0x00027c40       0x1c mesh/core/libmesh_core_nrf51422_xxAC.a(packet_buffer.c.obj)
 .text.packet_buffer_init
                0x00027c5c       0xe0 mesh/core/libmesh_core_nrf51422_xxAC.a(packet_buffer.c.obj)
                0x00027c5c                packet_buffer_init
 .text.packet_buffer_flush
                0x00027d3c       0x60 mesh/core/libmesh_core_nrf51422_xxAC.a(packet_buffer.c.obj)
                0x00027d3c                packet_buffer_flush
 .text.packet_buffer_reserve
                0x00027d9c      0x11c mesh/core/libmesh_core_nrf51422_xxAC.a(packet_buffer.c.obj)
                0x00027d9c                packet_buffer_reserve
 .text.packet_buffer_commit
                0x00027eb8      0x10c mesh/core/libmesh_core_nrf51422_xxAC.a(packet_buffer.c.obj)
                0x00027eb8                packet_buffer_commit
 .text.packet_buffer_pop
                0x00027fc4       0x64 mesh/core/libmesh_core_nrf51422_xxAC.a(packet_buffer.c.obj)
                0x00027fc4                packet_buffer_pop
 .text.packet_buffer_can_pop
                0x00028028       0x2c mesh/core/libmesh_core_nrf51422_xxAC.a(packet_buffer.c.obj)
                0x00028028                packet_buffer_can_pop
 .text.packet_buffer_packets_ready_to_pop
                0x00028054       0x58 mesh/core/libmesh_core_nrf51422_xxAC.a(packet_buffer.c.obj)
                0x00028054                packet_buffer_packets_ready_to_pop
 .text.packet_buffer_free
                0x000280ac       0x94 mesh/core/libmesh_core_nrf51422_xxAC.a(packet_buffer.c.obj)
                0x000280ac                packet_buffer_free
 .text.get_last_page
                0x00028140       0x14 mesh/core/libmesh_core_nrf51422_xxAC.a(flash_manager_defrag.c.obj)
 .text.defrag_on_end
                0x00028154       0x1c mesh/core/libmesh_core_nrf51422_xxAC.a(flash_manager_defrag.c.obj)
 .text.execute_procedure_step
                0x00028170       0xac mesh/core/libmesh_core_nrf51422_xxAC.a(flash_manager_defrag.c.obj)
 .text.get_next_entry
                0x0002821c       0x44 mesh/core/libmesh_core_nrf51422_xxAC.a(flash_manager_defrag.c.obj)
 .text.get_next_data_entry
                0x00028260       0x24 mesh/core/libmesh_core_nrf51422_xxAC.a(flash_manager_defrag.c.obj)
 .text.on_flash_op_end
                0x00028284       0x34 mesh/core/libmesh_core_nrf51422_xxAC.a(flash_manager_defrag.c.obj)
 .text.check_for_invalid_entries
                0x000282b8       0x3c mesh/core/libmesh_core_nrf51422_xxAC.a(flash_manager_defrag.c.obj)
 .text.erase_recovery_area
                0x000282f4       0x30 mesh/core/libmesh_core_nrf51422_xxAC.a(flash_manager_defrag.c.obj)
 .text.flash.constprop.6
                0x00028324       0x20 mesh/core/libmesh_core_nrf51422_xxAC.a(flash_manager_defrag.c.obj)
 .text.seal_storage_page
                0x00028344       0x58 mesh/core/libmesh_core_nrf51422_xxAC.a(flash_manager_defrag.c.obj)
 .text.invalidate_duplicate_entries
                0x0002839c       0x88 mesh/core/libmesh_core_nrf51422_xxAC.a(flash_manager_defrag.c.obj)
 .text.copy_metadata
                0x00028424       0x40 mesh/core/libmesh_core_nrf51422_xxAC.a(flash_manager_defrag.c.obj)
 .text.write_defrag_start_pointer
                0x00028464       0x20 mesh/core/libmesh_core_nrf51422_xxAC.a(flash_manager_defrag.c.obj)
 .text.write_back
                0x00028484       0x2c mesh/core/libmesh_core_nrf51422_xxAC.a(flash_manager_defrag.c.obj)
 .text.post_process
                0x000284b0       0x44 mesh/core/libmesh_core_nrf51422_xxAC.a(flash_manager_defrag.c.obj)
 .text.backup_entries
                0x000284f4      0x128 mesh/core/libmesh_core_nrf51422_xxAC.a(flash_manager_defrag.c.obj)
 .text.erase_source
                0x0002861c       0x30 mesh/core/libmesh_core_nrf51422_xxAC.a(flash_manager_defrag.c.obj)
 .text.flash_manager_defrag_init
                0x0002864c       0xa0 mesh/core/libmesh_core_nrf51422_xxAC.a(flash_manager_defrag.c.obj)
                0x0002864c                flash_manager_defrag_init
 .text.flash_manager_defrag_is_running
                0x000286ec       0x10 mesh/core/libmesh_core_nrf51422_xxAC.a(flash_manager_defrag.c.obj)
                0x000286ec                flash_manager_defrag_is_running
 .text.flash_manager_defrag
                0x000286fc       0xdc mesh/core/libmesh_core_nrf51422_xxAC.a(flash_manager_defrag.c.obj)
                0x000286fc                flash_manager_defrag
 .text.flash_manager_defrag_recovery_page_get
                0x000287d8        0xc mesh/core/libmesh_core_nrf51422_xxAC.a(flash_manager_defrag.c.obj)
                0x000287d8                flash_manager_defrag_recovery_page_get
 .text.packet_mgr_init
                0x000287e4       0x54 mesh/core/libmesh_core_nrf51422_xxAC.a(packet_mgr.c.obj)
                0x000287e4                packet_mgr_init
 .text.send_end_events
                0x00028838       0x80 mesh/core/libmesh_core_nrf51422_xxAC.a(mesh_flash.c.obj)
 .text.flash_op_schedule
                0x000288b8       0xa0 mesh/core/libmesh_core_nrf51422_xxAC.a(mesh_flash.c.obj)
 .text.flash_op_start
                0x00028958      0x178 mesh/core/libmesh_core_nrf51422_xxAC.a(mesh_flash.c.obj)
 .text.mesh_flash_init
                0x00028ad0       0x94 mesh/core/libmesh_core_nrf51422_xxAC.a(mesh_flash.c.obj)
                0x00028ad0                mesh_flash_init
 .text.mesh_flash_user_callback_set
                0x00028b64       0x30 mesh/core/libmesh_core_nrf51422_xxAC.a(mesh_flash.c.obj)
                0x00028b64                mesh_flash_user_callback_set
 .text.mesh_flash_op_push
                0x00028b94      0x140 mesh/core/libmesh_core_nrf51422_xxAC.a(mesh_flash.c.obj)
                0x00028b94                mesh_flash_op_push
 .text.queue_init
                0x00028cd4       0x24 mesh/core/libmesh_core_nrf51422_xxAC.a(queue.c.obj)
                0x00028cd4                queue_init
 .text.queue_push
                0x00028cf8       0x54 mesh/core/libmesh_core_nrf51422_xxAC.a(queue.c.obj)
                0x00028cf8                queue_push
 .text.queue_pop
                0x00028d4c       0x3c mesh/core/libmesh_core_nrf51422_xxAC.a(queue.c.obj)
                0x00028d4c                queue_pop
 .text.queue_peek
                0x00028d88       0x20 mesh/core/libmesh_core_nrf51422_xxAC.a(queue.c.obj)
                0x00028d88                queue_peek
 .text.my_xor.constprop.1
                0x00028da8       0x12 mesh/core/libmesh_core_nrf51422_xxAC.a(aes_cmac.c.obj)
 .text.utils_lshift.constprop.2
                0x00028dba       0x18 mesh/core/libmesh_core_nrf51422_xxAC.a(aes_cmac.c.obj)
 *fill*         0x00028dd2        0x2 
 .text.aes_cmac_subkey_generate
                0x00028dd4       0x64 mesh/core/libmesh_core_nrf51422_xxAC.a(aes_cmac.c.obj)
                0x00028dd4                aes_cmac_subkey_generate
 .text.aes_cmac
                0x00028e38       0xc0 mesh/core/libmesh_core_nrf51422_xxAC.a(aes_cmac.c.obj)
                0x00028e38                aes_cmac
 .text.stage_get_available
                0x00028ef8       0x26 mesh/core/libmesh_core_nrf51422_xxAC.a(msqueue.c.obj)
 *fill*         0x00028f1e        0x2 
 .text.msq_get  0x00028f20       0x54 mesh/core/libmesh_core_nrf51422_xxAC.a(msqueue.c.obj)
                0x00028f20                msq_get
 .text.msq_move
                0x00028f74       0x4c mesh/core/libmesh_core_nrf51422_xxAC.a(msqueue.c.obj)
                0x00028f74                msq_move
 .text.msq_reset
                0x00028fc0       0x30 mesh/core/libmesh_core_nrf51422_xxAC.a(msqueue.c.obj)
                0x00028fc0                msq_reset
 .text.msq_init
                0x00028ff0       0x88 mesh/core/libmesh_core_nrf51422_xxAC.a(msqueue.c.obj)
                0x00028ff0                msq_init
 .text.msq_available
                0x00029078       0x40 mesh/core/libmesh_core_nrf51422_xxAC.a(msqueue.c.obj)
                0x00029078                msq_available
 .text.replay_cache_add
                0x000290b8       0x68 mesh/core/libmesh_core_nrf51422_xxAC.a(replay_cache.c.obj)
                0x000290b8                replay_cache_add
 .text.replay_cache_has_room
                0x00029120       0x38 mesh/core/libmesh_core_nrf51422_xxAC.a(replay_cache.c.obj)
                0x00029120                replay_cache_has_room
 .text.replay_cache_has_elem
                0x00029158       0x38 mesh/core/libmesh_core_nrf51422_xxAC.a(replay_cache.c.obj)
                0x00029158                replay_cache_has_elem
 .text.replay_cache_clear
                0x00029190       0x28 mesh/core/libmesh_core_nrf51422_xxAC.a(replay_cache.c.obj)
                0x00029190                replay_cache_clear
 .text.replay_cache_init
                0x000291b8        0x8 mesh/core/libmesh_core_nrf51422_xxAC.a(replay_cache.c.obj)
                0x000291b8                replay_cache_init
 .text.fen_filters_apply
                0x000291c0       0x34 mesh/core/libmesh_core_nrf51422_xxAC.a(filter_engine.c.obj)
                0x000291c0                fen_filters_apply
 .text.wait_for_ready
                0x000291f4       0x14 mesh/core/libmesh_core_nrf51422_xxAC.a(nrf_flash.c.obj)
 .text.nrf_flash_erase
                0x00029208       0x58 mesh/core/libmesh_core_nrf51422_xxAC.a(nrf_flash.c.obj)
                0x00029208                nrf_flash_erase
 .text.nrf_flash_write
                0x00029260       0x5c mesh/core/libmesh_core_nrf51422_xxAC.a(nrf_flash.c.obj)
                0x00029260                nrf_flash_write
 .text._GetAvailWriteSpace
                0x000292bc       0x12 external/rtt/librtt_nrf51422_xxAC.a(SEGGER_RTT.c.obj)
 .text._WriteNoCheck
                0x000292ce       0x38 external/rtt/librtt_nrf51422_xxAC.a(SEGGER_RTT.c.obj)
 .text._WriteBlocking
                0x00029306       0x5a external/rtt/librtt_nrf51422_xxAC.a(SEGGER_RTT.c.obj)
 .text._DoInit  0x00029360       0x64 external/rtt/librtt_nrf51422_xxAC.a(SEGGER_RTT.c.obj)
 .text.SEGGER_RTT_ReadNoLock
                0x000293c4       0xa4 external/rtt/librtt_nrf51422_xxAC.a(SEGGER_RTT.c.obj)
                0x000293c4                SEGGER_RTT_ReadNoLock
 .text.SEGGER_RTT_Read
                0x00029468       0x1a external/rtt/librtt_nrf51422_xxAC.a(SEGGER_RTT.c.obj)
                0x00029468                SEGGER_RTT_Read
 *fill*         0x00029482        0x2 
 .text.SEGGER_RTT_WriteNoLock
                0x00029484       0x6c external/rtt/librtt_nrf51422_xxAC.a(SEGGER_RTT.c.obj)
                0x00029484                SEGGER_RTT_WriteNoLock
 .text.SEGGER_RTT_Write
                0x000294f0       0x34 external/rtt/librtt_nrf51422_xxAC.a(SEGGER_RTT.c.obj)
                0x000294f0                SEGGER_RTT_Write
 .text.SEGGER_RTT_GetKey
                0x00029524       0x1e external/rtt/librtt_nrf51422_xxAC.a(SEGGER_RTT.c.obj)
                0x00029524                SEGGER_RTT_GetKey
 .text._StoreChar
                0x00029542       0x3e external/rtt/librtt_nrf51422_xxAC.a(SEGGER_RTT_printf.c.obj)
 .text._PrintUnsigned
                0x00029580       0xe0 external/rtt/librtt_nrf51422_xxAC.a(SEGGER_RTT_printf.c.obj)
 .text.SEGGER_RTT_vprintf
                0x00029660      0x25c external/rtt/librtt_nrf51422_xxAC.a(SEGGER_RTT_printf.c.obj)
                0x00029660                SEGGER_RTT_vprintf
 .text.SEGGER_RTT_printf
                0x000298bc       0x18 external/rtt/librtt_nrf51422_xxAC.a(SEGGER_RTT_printf.c.obj)
                0x000298bc                SEGGER_RTT_printf
 .text.uECC_vli_mult
                0x000298d4       0x90 external/micro-ecc/libuECC_nrf51422_xxAC.a(uECC.c.obj)
 .text.uECC_vli_clear
                0x00029964       0x16 external/micro-ecc/libuECC_nrf51422_xxAC.a(uECC.c.obj)
 .text.uECC_vli_isZero
                0x0002997a       0x1c external/micro-ecc/libuECC_nrf51422_xxAC.a(uECC.c.obj)
 .text.uECC_vli_testBit
                0x00029996       0x12 external/micro-ecc/libuECC_nrf51422_xxAC.a(uECC.c.obj)
 .text.uECC_vli_numBits
                0x000299a8       0x40 external/micro-ecc/libuECC_nrf51422_xxAC.a(uECC.c.obj)
 .text.uECC_vli_set
                0x000299e8       0x16 external/micro-ecc/libuECC_nrf51422_xxAC.a(uECC.c.obj)
 .text.uECC_vli_cmp_unsafe
                0x000299fe       0x24 external/micro-ecc/libuECC_nrf51422_xxAC.a(uECC.c.obj)
 .text.uECC_vli_rshift1
                0x00029a22       0x1e external/micro-ecc/libuECC_nrf51422_xxAC.a(uECC.c.obj)
 .text.uECC_vli_modMult_fast
                0x00029a40       0x20 external/micro-ecc/libuECC_nrf51422_xxAC.a(uECC.c.obj)
 .text.uECC_vli_modSquare_fast
                0x00029a60        0xc external/micro-ecc/libuECC_nrf51422_xxAC.a(uECC.c.obj)
 .text.apply_z  0x00029a6c       0x3e external/micro-ecc/libuECC_nrf51422_xxAC.a(uECC.c.obj)
 .text.uECC_vli_nativeToBytes
                0x00029aaa       0x24 external/micro-ecc/libuECC_nrf51422_xxAC.a(uECC.c.obj)
 .text.uECC_vli_bytesToNative
                0x00029ace       0x44 external/micro-ecc/libuECC_nrf51422_xxAC.a(uECC.c.obj)
 .text.default_RNG
                0x00029b12        0xc external/micro-ecc/libuECC_nrf51422_xxAC.a(uECC.c.obj)
 .text.uECC_vli_add.isra.0
                0x00029b1e       0x4a external/micro-ecc/libuECC_nrf51422_xxAC.a(uECC.c.obj)
 .text.regularize_k
                0x00029b68       0x52 external/micro-ecc/libuECC_nrf51422_xxAC.a(uECC.c.obj)
 .text.uECC_vli_sub.isra.1
                0x00029bba       0x4c external/micro-ecc/libuECC_nrf51422_xxAC.a(uECC.c.obj)
 .text.uECC_vli_cmp
                0x00029c06       0x2a external/micro-ecc/libuECC_nrf51422_xxAC.a(uECC.c.obj)
 .text.uECC_generate_random_int
                0x00029c30       0x78 external/micro-ecc/libuECC_nrf51422_xxAC.a(uECC.c.obj)
 .text.uECC_vli_modAdd
                0x00029ca8       0x2e external/micro-ecc/libuECC_nrf51422_xxAC.a(uECC.c.obj)
 *fill*         0x00029cd6        0x2 
 .text.vli_mmod_fast_secp256r1
                0x00029cd8      0x19c external/micro-ecc/libuECC_nrf51422_xxAC.a(uECC.c.obj)
 .text.uECC_vli_modSub.isra.2
                0x00029e74       0x1a external/micro-ecc/libuECC_nrf51422_xxAC.a(uECC.c.obj)
 *fill*         0x00029e8e        0x2 
 .text.double_jacobian_default
                0x00029e90      0x14c external/micro-ecc/libuECC_nrf51422_xxAC.a(uECC.c.obj)
 .text.x_side_default
                0x00029fdc       0x58 external/micro-ecc/libuECC_nrf51422_xxAC.a(uECC.c.obj)
 .text.XYcZ_add
                0x0002a034       0xbe external/micro-ecc/libuECC_nrf51422_xxAC.a(uECC.c.obj)
 .text.XYcZ_addC
                0x0002a0f2      0x10c external/micro-ecc/libuECC_nrf51422_xxAC.a(uECC.c.obj)
 *fill*         0x0002a1fe        0x2 
 .text.vli_modInv_update
                0x0002a200       0x3c external/micro-ecc/libuECC_nrf51422_xxAC.a(uECC.c.obj)
 .text.uECC_vli_modInv
                0x0002a23c      0x10a external/micro-ecc/libuECC_nrf51422_xxAC.a(uECC.c.obj)
 .text.EccPoint_mult
                0x0002a346      0x19c external/micro-ecc/libuECC_nrf51422_xxAC.a(uECC.c.obj)
 .text.EccPoint_compute_public_key
                0x0002a4e2       0x4c external/micro-ecc/libuECC_nrf51422_xxAC.a(uECC.c.obj)
 *fill*         0x0002a52e        0x2 
 .text.uECC_secp256r1
                0x0002a530        0x8 external/micro-ecc/libuECC_nrf51422_xxAC.a(uECC.c.obj)
                0x0002a530                uECC_secp256r1
 .text.uECC_make_key
                0x0002a538       0x84 external/micro-ecc/libuECC_nrf51422_xxAC.a(uECC.c.obj)
                0x0002a538                uECC_make_key
 .text.uECC_shared_secret
                0x0002a5bc       0xc0 external/micro-ecc/libuECC_nrf51422_xxAC.a(uECC.c.obj)
                0x0002a5bc                uECC_shared_secret
 .text.uECC_valid_point
                0x0002a67c       0x86 external/micro-ecc/libuECC_nrf51422_xxAC.a(uECC.c.obj)
                0x0002a67c                uECC_valid_point
 .text.uECC_valid_public_key
                0x0002a702       0x32 external/micro-ecc/libuECC_nrf51422_xxAC.a(uECC.c.obj)
                0x0002a702                uECC_valid_public_key
 .text          0x0002a734       0x14 c:/a/gcc_arm/6/bin/../lib/gcc/arm-none-eabi/6.3.1/thumb/v6-m\libgcc.a(_thumb1_case_sqi.o)
                0x0002a734                __gnu_thumb1_case_sqi
 .text          0x0002a748       0x14 c:/a/gcc_arm/6/bin/../lib/gcc/arm-none-eabi/6.3.1/thumb/v6-m\libgcc.a(_thumb1_case_uqi.o)
                0x0002a748                __gnu_thumb1_case_uqi
 .text          0x0002a75c       0x14 c:/a/gcc_arm/6/bin/../lib/gcc/arm-none-eabi/6.3.1/thumb/v6-m\libgcc.a(_thumb1_case_shi.o)
                0x0002a75c                __gnu_thumb1_case_shi
 .text          0x0002a770       0x14 c:/a/gcc_arm/6/bin/../lib/gcc/arm-none-eabi/6.3.1/thumb/v6-m\libgcc.a(_thumb1_case_uhi.o)
                0x0002a770                __gnu_thumb1_case_uhi
 .text          0x0002a784      0x114 c:/a/gcc_arm/6/bin/../lib/gcc/arm-none-eabi/6.3.1/thumb/v6-m\libgcc.a(_udivsi3.o)
                0x0002a784                __aeabi_uidiv
                0x0002a784                __udivsi3
                0x0002a890                __aeabi_uidivmod
 .text          0x0002a898      0x1d4 c:/a/gcc_arm/6/bin/../lib/gcc/arm-none-eabi/6.3.1/thumb/v6-m\libgcc.a(_divsi3.o)
                0x0002a898                __divsi3
                0x0002a898                __aeabi_idiv
                0x0002aa64                __aeabi_idivmod
 .text          0x0002aa6c        0x4 c:/a/gcc_arm/6/bin/../lib/gcc/arm-none-eabi/6.3.1/thumb/v6-m\libgcc.a(_dvmd_tls.o)
                0x0002aa6c                __aeabi_idiv0
                0x0002aa6c                __aeabi_ldiv0
 .text          0x0002aa70       0x54 c:/a/gcc_arm/6/bin/../lib/gcc/arm-none-eabi/6.3.1/thumb/v6-m\libgcc.a(_muldi3.o)
                0x0002aa70                __muldi3
                0x0002aa70                __aeabi_lmul
 .text.exit     0x0002aac4       0x2c c:/a/gcc_arm/6/bin/../lib/gcc/arm-none-eabi/6.3.1/../../../../arm-none-eabi/lib/thumb/v6-m\libc_nano.a(lib_a-exit.o)
                0x0002aac4                exit
 .text.__libc_init_array
                0x0002aaf0       0x48 c:/a/gcc_arm/6/bin/../lib/gcc/arm-none-eabi/6.3.1/../../../../arm-none-eabi/lib/thumb/v6-m\libc_nano.a(lib_a-init.o)
                0x0002aaf0                __libc_init_array
 .text.malloc   0x0002ab38       0x14 c:/a/gcc_arm/6/bin/../lib/gcc/arm-none-eabi/6.3.1/../../../../arm-none-eabi/lib/thumb/v6-m\libc_nano.a(lib_a-malloc.o)
                0x0002ab38                malloc
 .text.free     0x0002ab4c       0x14 c:/a/gcc_arm/6/bin/../lib/gcc/arm-none-eabi/6.3.1/../../../../arm-none-eabi/lib/thumb/v6-m\libc_nano.a(lib_a-malloc.o)
                0x0002ab4c                free
 .text.memcmp   0x0002ab60       0x1e c:/a/gcc_arm/6/bin/../lib/gcc/arm-none-eabi/6.3.1/../../../../arm-none-eabi/lib/thumb/v6-m\libc_nano.a(lib_a-memcmp.o)
                0x0002ab60                memcmp
 .text.memcpy   0x0002ab7e       0x12 c:/a/gcc_arm/6/bin/../lib/gcc/arm-none-eabi/6.3.1/../../../../arm-none-eabi/lib/thumb/v6-m\libc_nano.a(lib_a-memcpy-stub.o)
                0x0002ab7e                memcpy
 .text.memset   0x0002ab90       0x10 c:/a/gcc_arm/6/bin/../lib/gcc/arm-none-eabi/6.3.1/../../../../arm-none-eabi/lib/thumb/v6-m\libc_nano.a(lib_a-memset.o)
                0x0002ab90                memset
 .text._free_r  0x0002aba0       0x94 c:/a/gcc_arm/6/bin/../lib/gcc/arm-none-eabi/6.3.1/../../../../arm-none-eabi/lib/thumb/v6-m\libc_nano.a(lib_a-nano-freer.o)
                0x0002aba0                _free_r
 .text._malloc_r
                0x0002ac34       0xbc c:/a/gcc_arm/6/bin/../lib/gcc/arm-none-eabi/6.3.1/../../../../arm-none-eabi/lib/thumb/v6-m\libc_nano.a(lib_a-nano-mallocr.o)
                0x0002ac34                _malloc_r
 .text._sbrk_r  0x0002acf0       0x24 c:/a/gcc_arm/6/bin/../lib/gcc/arm-none-eabi/6.3.1/../../../../arm-none-eabi/lib/thumb/v6-m\libc_nano.a(lib_a-sbrkr.o)
                0x0002acf0                _sbrk_r
 .text.strcpy   0x0002ad14       0x10 c:/a/gcc_arm/6/bin/../lib/gcc/arm-none-eabi/6.3.1/../../../../arm-none-eabi/lib/thumb/v6-m\libc_nano.a(lib_a-strcpy.o)
                0x0002ad14                strcpy
 .text          0x0002ad24        0xe c:/a/gcc_arm/6/bin/../lib/gcc/arm-none-eabi/6.3.1/../../../../arm-none-eabi/lib/thumb/v6-m\libc_nano.a(lib_a-strlen.o)
                0x0002ad24                strlen
 .text.strrchr  0x0002ad32       0x24 c:/a/gcc_arm/6/bin/../lib/gcc/arm-none-eabi/6.3.1/../../../../arm-none-eabi/lib/thumb/v6-m\libc_nano.a(lib_a-strrchr.o)
                0x0002ad32                strrchr
 .text.__malloc_lock
                0x0002ad56        0x2 c:/a/gcc_arm/6/bin/../lib/gcc/arm-none-eabi/6.3.1/../../../../arm-none-eabi/lib/thumb/v6-m\libc_nano.a(lib_a-mlock.o)
                0x0002ad56                __malloc_lock
 .text.__malloc_unlock
                0x0002ad58        0x2 c:/a/gcc_arm/6/bin/../lib/gcc/arm-none-eabi/6.3.1/../../../../arm-none-eabi/lib/thumb/v6-m\libc_nano.a(lib_a-mlock.o)
                0x0002ad58                __malloc_unlock
 .text.strchr   0x0002ad5a       0x1c c:/a/gcc_arm/6/bin/../lib/gcc/arm-none-eabi/6.3.1/../../../../arm-none-eabi/lib/thumb/v6-m\libc_nano.a(lib_a-strchr.o)
                0x0002ad5a                strchr
 *fill*         0x0002ad76        0x2 
 .text._sbrk    0x0002ad78       0x1c c:/a/gcc_arm/6/bin/../lib/gcc/arm-none-eabi/6.3.1/../../../../arm-none-eabi/lib/thumb/v6-m\libnosys.a(sbrk.o)
                0x0002ad78                _sbrk
 .text._exit    0x0002ad94        0x4 c:/a/gcc_arm/6/bin/../lib/gcc/arm-none-eabi/6.3.1/../../../../arm-none-eabi/lib/thumb/v6-m\libnosys.a(_exit.o)
                0x0002ad94                _exit
 *(.init)
 .init          0x0002ad98        0x4 c:/a/gcc_arm/6/bin/../lib/gcc/arm-none-eabi/6.3.1/thumb/v6-m/crti.o
                0x0002ad98                _init
 .init          0x0002ad9c        0x8 c:/a/gcc_arm/6/bin/../lib/gcc/arm-none-eabi/6.3.1/thumb/v6-m/crtn.o
 *(.fini)
 .fini          0x0002ada4        0x4 c:/a/gcc_arm/6/bin/../lib/gcc/arm-none-eabi/6.3.1/thumb/v6-m/crti.o
                0x0002ada4                _fini
 .fini          0x0002ada8        0x8 c:/a/gcc_arm/6/bin/../lib/gcc/arm-none-eabi/6.3.1/thumb/v6-m/crtn.o
 *crtbegin.o(.ctors)
 *crtbegin?.o(.ctors)
 *(EXCLUDE_FILE(*crtend.o *crtend?.o) .ctors)
 *(SORT(.ctors.*))
 *(.ctors)
 *crtbegin.o(.dtors)
 *crtbegin?.o(.dtors)
 *(EXCLUDE_FILE(*crtend.o *crtend?.o) .dtors)
 *(SORT(.dtors.*))
 *(.dtors)
 *(.rodata*)
 .rodata        0x0002adb0       0x14 examples/pb_remote/client/CMakeFiles/pb_remote_client_nrf51422_xxAC_s130_2.0.1.dir/src/main.c.obj
 .rodata.USAGE_STRING
                0x0002adc4      0x11b examples/pb_remote/client/CMakeFiles/pb_remote_client_nrf51422_xxAC_s130_2.0.1.dir/src/main.c.obj
                0x0002adc4                USAGE_STRING
 .rodata.m_netkey
                0x0002aedf       0x10 examples/pb_remote/client/CMakeFiles/pb_remote_client_nrf51422_xxAC_s130_2.0.1.dir/src/main.c.obj
 .rodata.main.str1.1
                0x0002aeef      0x14d examples/pb_remote/client/CMakeFiles/pb_remote_client_nrf51422_xxAC_s130_2.0.1.dir/src/main.c.obj
 .rodata.mesh_evt_handler.str1.1
                0x0002b03c      0x12a examples/pb_remote/client/CMakeFiles/pb_remote_client_nrf51422_xxAC_s130_2.0.1.dir/src/main.c.obj
 .rodata.remote_client_event_cb.str1.1
                0x0002b166       0x73 examples/pb_remote/client/CMakeFiles/pb_remote_client_nrf51422_xxAC_s130_2.0.1.dir/src/main.c.obj
 .rodata.HardFault_Handler.str1.1
                0x0002b1d9        0xe examples/pb_remote/client/CMakeFiles/pb_remote_client_nrf51422_xxAC_s130_2.0.1.dir/__/__/nrf_mesh_sdk.c.obj
 .rodata.app_error_handler.str1.1
                0x0002b1e7       0x1d examples/pb_remote/client/CMakeFiles/pb_remote_client_nrf51422_xxAC_s130_2.0.1.dir/__/__/nrf_mesh_sdk.c.obj
 .rodata.mesh_assert_handler.str1.1
                0x0002b204       0x34 examples/pb_remote/client/CMakeFiles/pb_remote_client_nrf51422_xxAC_s130_2.0.1.dir/__/__/nrf_mesh_sdk.c.obj
 .rodata.mesh_core_setup.str1.1
                0x0002b238       0x47 examples/pb_remote/client/CMakeFiles/pb_remote_client_nrf51422_xxAC_s130_2.0.1.dir/__/__/nrf_mesh_sdk.c.obj
 .rodata.mesh_softdevice_enable.str1.1
                0x0002b27f       0x65 examples/pb_remote/client/CMakeFiles/pb_remote_client_nrf51422_xxAC_s130_2.0.1.dir/__/__/nrf_mesh_sdk.c.obj
 .rodata.softdevice_assert_handler.str1.1
                0x0002b2e4       0x1d examples/pb_remote/client/CMakeFiles/pb_remote_client_nrf51422_xxAC_s130_2.0.1.dir/__/__/nrf_mesh_sdk.c.obj
 *fill*         0x0002b301        0x1 
 .rodata        0x0002b302       0x2a examples/pb_remote/client/CMakeFiles/pb_remote_client_nrf51422_xxAC_s130_2.0.1.dir/__/__/__/models/pb_remote/src/pb_remote_client.c.obj
 .rodata.client_reliable_status_cb.str1.1
                0x0002b32c       0x3f examples/pb_remote/client/CMakeFiles/pb_remote_client_nrf51422_xxAC_s130_2.0.1.dir/__/__/__/models/pb_remote/src/pb_remote_client.c.obj
 *fill*         0x0002b36b        0x1 
 .rodata.m_opcode_handlers
                0x0002b36c       0x38 examples/pb_remote/client/CMakeFiles/pb_remote_client_nrf51422_xxAC_s130_2.0.1.dir/__/__/__/models/pb_remote/src/pb_remote_client.c.obj
 .rodata.m_pb_remote_client_event_handler_callbacks
                0x0002b3a4       0x38 examples/pb_remote/client/CMakeFiles/pb_remote_client_nrf51422_xxAC_s130_2.0.1.dir/__/__/__/models/pb_remote/src/pb_remote_client.c.obj
                0x0002b3a4                m_pb_remote_client_event_handler_callbacks
 .rodata.m_prov_interface
                0x0002b3dc       0x14 examples/pb_remote/client/CMakeFiles/pb_remote_client_nrf51422_xxAC_s130_2.0.1.dir/__/__/__/models/pb_remote/src/pb_remote_client.c.obj
                0x0002b3dc                m_prov_interface
 .rodata.pb_remote_client_event_link_close_cb.str1.1
                0x0002b3f0       0x2a examples/pb_remote/client/CMakeFiles/pb_remote_client_nrf51422_xxAC_s130_2.0.1.dir/__/__/__/models/pb_remote/src/pb_remote_client.c.obj
 .rodata.pb_remote_client_event_link_status_cb.str1.1
                0x0002b41a       0x62 examples/pb_remote/client/CMakeFiles/pb_remote_client_nrf51422_xxAC_s130_2.0.1.dir/__/__/__/models/pb_remote/src/pb_remote_client.c.obj
 .rodata.pb_remote_client_event_link_status_report_cb.str1.1
                0x0002b47c       0x4f examples/pb_remote/client/CMakeFiles/pb_remote_client_nrf51422_xxAC_s130_2.0.1.dir/__/__/__/models/pb_remote/src/pb_remote_client.c.obj
 .rodata.pb_remote_client_event_local_packet_cb.str1.1
                0x0002b4cb       0x1c examples/pb_remote/client/CMakeFiles/pb_remote_client_nrf51422_xxAC_s130_2.0.1.dir/__/__/__/models/pb_remote/src/pb_remote_client.c.obj
 .rodata.pb_remote_client_event_packet_transfer_cb.str1.1
                0x0002b4e7       0x2d examples/pb_remote/client/CMakeFiles/pb_remote_client_nrf51422_xxAC_s130_2.0.1.dir/__/__/__/models/pb_remote/src/pb_remote_client.c.obj
 .rodata.pb_remote_client_event_scan_cancel_cb.str1.1
                0x0002b514       0x1e examples/pb_remote/client/CMakeFiles/pb_remote_client_nrf51422_xxAC_s130_2.0.1.dir/__/__/__/models/pb_remote/src/pb_remote_client.c.obj
 .rodata.pb_remote_client_event_scan_start_cb.str1.1
                0x0002b532       0x1d examples/pb_remote/client/CMakeFiles/pb_remote_client_nrf51422_xxAC_s130_2.0.1.dir/__/__/__/models/pb_remote/src/pb_remote_client.c.obj
 .rodata.pb_remote_client_event_scan_status_cb.str1.1
                0x0002b54f       0x62 examples/pb_remote/client/CMakeFiles/pb_remote_client_nrf51422_xxAC_s130_2.0.1.dir/__/__/__/models/pb_remote/src/pb_remote_client.c.obj
 .rodata.pb_remote_client_event_transfer_status_cb.str1.1
                0x0002b5b1       0x25 examples/pb_remote/client/CMakeFiles/pb_remote_client_nrf51422_xxAC_s130_2.0.1.dir/__/__/__/models/pb_remote/src/pb_remote_client.c.obj
 .rodata.pb_remote_client_event_transfer_status_report_cb.str1.1
                0x0002b5d6       0x41 examples/pb_remote/client/CMakeFiles/pb_remote_client_nrf51422_xxAC_s130_2.0.1.dir/__/__/__/models/pb_remote/src/pb_remote_client.c.obj
 .rodata.pb_remote_client_event_unprov_number_cb.str1.1
                0x0002b617       0x56 examples/pb_remote/client/CMakeFiles/pb_remote_client_nrf51422_xxAC_s130_2.0.1.dir/__/__/__/models/pb_remote/src/pb_remote_client.c.obj
 .rodata.pb_remote_client_event_unprov_uuid_cb.str1.1
                0x0002b66d       0x24 examples/pb_remote/client/CMakeFiles/pb_remote_client_nrf51422_xxAC_s130_2.0.1.dir/__/__/__/models/pb_remote/src/pb_remote_client.c.obj
 .rodata.pb_remote_client_process.str1.1
                0x0002b691       0x23 examples/pb_remote/client/CMakeFiles/pb_remote_client_nrf51422_xxAC_s130_2.0.1.dir/__/__/__/models/pb_remote/src/pb_remote_client.c.obj
 .rodata.m_prov_callbacks
                0x0002b6b4       0x10 examples/pb_remote/client/CMakeFiles/pb_remote_client_nrf51422_xxAC_s130_2.0.1.dir/__/__/__/mesh/prov/src/prov_provisioner.c.obj
 .rodata.pdu_sizes.8283
                0x0002b6c4        0xa examples/pb_remote/client/CMakeFiles/pb_remote_client_nrf51422_xxAC_s130_2.0.1.dir/__/__/__/mesh/prov/src/provisioning.c.obj
 .rodata.prov_cb_pkt_in.str1.1
                0x0002b6ce       0x34 examples/pb_remote/client/CMakeFiles/pb_remote_client_nrf51422_xxAC_s130_2.0.1.dir/__/__/__/mesh/prov/src/provisioning.c.obj
 .rodata.alphanumeric.8387
                0x0002b702       0x25 examples/pb_remote/client/CMakeFiles/pb_remote_client_nrf51422_xxAC_s130_2.0.1.dir/__/__/__/mesh/prov/src/prov_utils.c.obj
 *fill*         0x0002b727        0x1 
 .rodata.numeric_max.8381
                0x0002b728       0x24 examples/pb_remote/client/CMakeFiles/pb_remote_client_nrf51422_xxAC_s130_2.0.1.dir/__/__/__/mesh/prov/src/prov_utils.c.obj
 .rodata.prov_utils_authentication_values_derive.str1.1
                0x0002b74c        0x5 examples/pb_remote/client/CMakeFiles/pb_remote_client_nrf51422_xxAC_s130_2.0.1.dir/__/__/__/mesh/prov/src/prov_utils.c.obj
 .rodata.prov_utils_derive_keys.str1.1
                0x0002b751        0xf examples/pb_remote/client/CMakeFiles/pb_remote_client_nrf51422_xxAC_s130_2.0.1.dir/__/__/__/mesh/prov/src/prov_utils.c.obj
 .rodata.add_active_bearer.str1.1
                0x0002b760       0x2c examples/pb_remote/client/CMakeFiles/pb_remote_client_nrf51422_xxAC_s130_2.0.1.dir/__/__/__/mesh/prov/src/prov_bearer_adv.c.obj
 .rodata.crctable.8145
                0x0002b78c      0x100 examples/pb_remote/client/CMakeFiles/pb_remote_client_nrf51422_xxAC_s130_2.0.1.dir/__/__/__/mesh/prov/src/prov_bearer_adv.c.obj
 .rodata.interface.8374
                0x0002b88c       0x14 examples/pb_remote/client/CMakeFiles/pb_remote_client_nrf51422_xxAC_s130_2.0.1.dir/__/__/__/mesh/prov/src/prov_bearer_adv.c.obj
 .rodata.prov_bearer_adv_packet_in.str1.1
                0x0002b8a0      0x26e examples/pb_remote/client/CMakeFiles/pb_remote_client_nrf51422_xxAC_s130_2.0.1.dir/__/__/__/mesh/prov/src/prov_bearer_adv.c.obj
 .rodata.tx_retry_cb.str1.1
                0x0002bb0e       0x37 examples/pb_remote/client/CMakeFiles/pb_remote_client_nrf51422_xxAC_s130_2.0.1.dir/__/__/__/mesh/prov/src/prov_bearer_adv.c.obj
 .rodata.mesh_evt_cb.str1.1
                0x0002bb45       0x2f examples/pb_remote/client/CMakeFiles/pb_remote_client_nrf51422_xxAC_s130_2.0.1.dir/__/__/__/mesh/access/src/access.c.obj
 .rodata.packet_tx.str1.1
                0x0002bb74       0x13 examples/pb_remote/client/CMakeFiles/pb_remote_client_nrf51422_xxAC_s130_2.0.1.dir/__/__/__/mesh/access/src/access.c.obj
 *fill*         0x0002bb87        0x1 
 .rodata.m_flash_groups
                0x0002bb88       0xc0 examples/pb_remote/client/CMakeFiles/pb_remote_client_nrf51422_xxAC_s130_2.0.1.dir/__/__/__/mesh/access/src/device_state_manager.c.obj
 .rodata.types_lookup.6415
                0x0002bc48        0x4 mesh/core/libmesh_core_nrf51422_xxAC.a(nrf_mesh_utils.c.obj)
 .rodata.nrf_mesh_process.str1.1
                0x0002bc4c       0x70 mesh/core/libmesh_core_nrf51422_xxAC.a(nrf_mesh.c.obj)
 .rodata.CSWTCH.9
                0x0002bcbc       0x10 mesh/core/libmesh_core_nrf51422_xxAC.a(hal.c.obj)
 .rodata        0x0002bccc       0x15 mesh/core/libmesh_core_nrf51422_xxAC.a(enc.c.obj)
 .rodata.network_packet_in.str1.1
                0x0002bce1       0x40 mesh/core/libmesh_core_nrf51422_xxAC.a(network.c.obj)
                                 0x48 (size before relaxing)
 .rodata.network_packet_send.str1.1
                0x0002bd21       0x49 mesh/core/libmesh_core_nrf51422_xxAC.a(network.c.obj)
 .rodata        0x0002bd6a        0x7 mesh/core/libmesh_core_nrf51422_xxAC.a(nrf_mesh_keygen.c.obj)
 .rodata.log_callback_rtt.str1.1
                0x0002bd71       0x15 mesh/core/libmesh_core_nrf51422_xxAC.a(log.c.obj)
 .rodata.str1.1
                0x0002bd86       0x11 mesh/core/libmesh_core_nrf51422_xxAC.a(log.c.obj)
 *fill*         0x0002bd97        0x1 
 .rodata.INVALID_HEADER
                0x0002bd98        0x4 mesh/core/libmesh_core_nrf51422_xxAC.a(flash_manager.c.obj)
                0x0002bd98                INVALID_HEADER
 .rodata.PADDING_HEADER
                0x0002bd9c        0x4 mesh/core/libmesh_core_nrf51422_xxAC.a(flash_manager.c.obj)
                0x0002bd9c                PADDING_HEADER
 .rodata.SEAL_HEADER
                0x0002bda0        0x4 mesh/core/libmesh_core_nrf51422_xxAC.a(flash_manager.c.obj)
                0x0002bda0                SEAL_HEADER
 .rodata.process_action_queue.str1.1
                0x0002bda4       0x21 mesh/core/libmesh_core_nrf51422_xxAC.a(flash_manager.c.obj)
                                 0x4f (size before relaxing)
 .rodata.beacon_packet_in.str1.1
                0x0002bdc5       0x51 mesh/core/libmesh_core_nrf51422_xxAC.a(beacon.c.obj)
                                 0x59 (size before relaxing)
 .rodata.net_beacon_init.str1.1
                0x0002be16        0x5 mesh/core/libmesh_core_nrf51422_xxAC.a(net_beacon.c.obj)
 .rodata.radio_mode_to_us_per_byte.6787
                0x0002be1b        0x4 mesh/core/libmesh_core_nrf51422_xxAC.a(broadcast.c.obj)
 .rodata.channel_rf_offsets.6049
                0x0002be1f       0x28 mesh/core/libmesh_core_nrf51422_xxAC.a(radio_config.c.obj)
 .rodata        0x0002be47        0x3 mesh/core/libmesh_core_nrf51422_xxAC.a(scanner.c.obj)
 .rodata.sar_ctx_cancel.str1.1
                0x0002be4a       0x35 mesh/core/libmesh_core_nrf51422_xxAC.a(transport.c.obj)
                                 0x63 (size before relaxing)
 .rodata.test_transport_decrypt.str1.1
                0x0002be7f       0x13 mesh/core/libmesh_core_nrf51422_xxAC.a(transport.c.obj)
 .rodata.transport_packet_in.str1.1
                0x0002be92       0x24 mesh/core/libmesh_core_nrf51422_xxAC.a(transport.c.obj)
 .rodata.transport_tx.str1.1
                0x0002beb6       0x2c mesh/core/libmesh_core_nrf51422_xxAC.a(transport.c.obj)
                                 0x34 (size before relaxing)
 .rodata.upper_transport_access_packet_in.str1.1
                0x0002bee2       0x29 mesh/core/libmesh_core_nrf51422_xxAC.a(transport.c.obj)
 .rodata.upper_transport_packet_in.str1.1
                0x0002bf0b       0x2e mesh/core/libmesh_core_nrf51422_xxAC.a(transport.c.obj)
 .rodata.flash_manager_defrag.str1.1
                0x0002bf39       0x28 mesh/core/libmesh_core_nrf51422_xxAC.a(flash_manager_defrag.c.obj)
                                 0x56 (size before relaxing)
 *fill*         0x0002bf61        0x3 
 .rodata.m_procedure_steps
                0x0002bf64       0x28 mesh/core/libmesh_core_nrf51422_xxAC.a(flash_manager_defrag.c.obj)
 .rodata.m_all_operations
                0x0002bf8c       0x10 mesh/core/libmesh_core_nrf51422_xxAC.a(mesh_flash.c.obj)
 .rodata.Rb.5039
                0x0002bf9c       0x10 mesh/core/libmesh_core_nrf51422_xxAC.a(aes_cmac.c.obj)
 .rodata._DoInit.str1.1
                0x0002bfac       0x14 external/rtt/librtt_nrf51422_xxAC.a(SEGGER_RTT.c.obj)
 .rodata._aV2C.4374
                0x0002bfc0       0x10 external/rtt/librtt_nrf51422_xxAC.a(SEGGER_RTT_printf.c.obj)
 .rodata.curve_secp256r1
                0x0002bfd0       0xb0 external/micro-ecc/libuECC_nrf51422_xxAC.a(uECC.c.obj)
 .rodata._global_impure_ptr
                0x0002c080        0x4 c:/a/gcc_arm/6/bin/../lib/gcc/arm-none-eabi/6.3.1/../../../../arm-none-eabi/lib/thumb/v6-m\libc_nano.a(lib_a-impure.o)
                0x0002c080                _global_impure_ptr
 *(.eh_frame*)
 .eh_frame      0x0002c084        0x0 c:/a/gcc_arm/6/bin/../lib/gcc/arm-none-eabi/6.3.1/thumb/v6-m/crtbegin.o
 .eh_frame      0x0002c084        0x4 c:/a/gcc_arm/6/bin/../lib/gcc/arm-none-eabi/6.3.1/thumb/v6-m/crtend.o

.glue_7         0x0002c088        0x0
 .glue_7        0x0002c088        0x0 linker stubs

.glue_7t        0x0002c088        0x0
 .glue_7t       0x0002c088        0x0 linker stubs

.vfp11_veneer   0x0002c088        0x0
 .vfp11_veneer  0x0002c088        0x0 linker stubs

.v4_bx          0x0002c088        0x0
 .v4_bx         0x0002c088        0x0 linker stubs

.iplt           0x0002c088        0x0
 .iplt          0x0002c088        0x0 c:/a/gcc_arm/6/bin/../lib/gcc/arm-none-eabi/6.3.1/thumb/v6-m/crtbegin.o

.ARM.extab
 *(.ARM.extab* .gnu.linkonce.armextab.*)
                0x0002c088                __exidx_start = .

.ARM.exidx      0x0002c088        0x8
 *(.ARM.exidx* .gnu.linkonce.armexidx.*)
 .ARM.exidx     0x0002c088        0x8 c:/a/gcc_arm/6/bin/../lib/gcc/arm-none-eabi/6.3.1/../../../../arm-none-eabi/lib/thumb/v6-m/crt0.o
                0x0002c090                __exidx_end = .
                0x0002c090                __etext = .

.rel.dyn        0x0002c090        0x0
 .rel.iplt      0x0002c090        0x0 c:/a/gcc_arm/6/bin/../lib/gcc/arm-none-eabi/6.3.1/thumb/v6-m/crtbegin.o

.data           0x200022d8       0xe0 load address 0x0002c090
                0x200022d8                __data_start__ = .
 *(vtable)
 *(.data*)
 .data.m_next_unprov_address
                0x200022d8        0x2 examples/pb_remote/client/CMakeFiles/pb_remote_client_nrf51422_xxAC_s130_2.0.1.dir/src/main.c.obj
 .data.m_unprov_report
                0x200022da        0x1 examples/pb_remote/client/CMakeFiles/pb_remote_client_nrf51422_xxAC_s130_2.0.1.dir/__/__/__/mesh/prov/src/prov_beacon.c.obj
 *fill*         0x200022db        0x1 
 .data.m_async_process_flag
                0x200022dc        0x4 examples/pb_remote/client/CMakeFiles/pb_remote_client_nrf51422_xxAC_s130_2.0.1.dir/__/__/__/mesh/prov/src/prov_bearer_adv.c.obj
 .data.flash_add_mem_available_struct.7843
                0x200022e0       0x10 examples/pb_remote/client/CMakeFiles/pb_remote_client_nrf51422_xxAC_s130_2.0.1.dir/__/__/__/mesh/access/src/access.c.obj
 .data.m_default_ttl
                0x200022f0        0x1 examples/pb_remote/client/CMakeFiles/pb_remote_client_nrf51422_xxAC_s130_2.0.1.dir/__/__/__/mesh/access/src/access.c.obj
 *fill*         0x200022f1        0x3 
 .data.mem_listener.8121
                0x200022f4       0x10 examples/pb_remote/client/CMakeFiles/pb_remote_client_nrf51422_xxAC_s130_2.0.1.dir/__/__/__/mesh/access/src/device_state_manager.c.obj
 .data.mem_listener.7315
                0x20002304       0x10 mesh/core/libmesh_core_nrf51422_xxAC.a(net_state.c.obj)
 .data.mem_listener.7320
                0x20002314       0x10 mesh/core/libmesh_core_nrf51422_xxAC.a(net_state.c.obj)
 .data.mem_listener.7334
                0x20002324       0x10 mesh/core/libmesh_core_nrf51422_xxAC.a(net_state.c.obj)
 .data.g_log_debug_level
                0x20002334        0x4 mesh/core/libmesh_core_nrf51422_xxAC.a(log.c.obj)
                0x20002334                g_log_debug_level
 .data.g_log_debug_msk
                0x20002338        0x4 mesh/core/libmesh_core_nrf51422_xxAC.a(log.c.obj)
                0x20002338                g_log_debug_msk
 .data.g_log_hex_digits
                0x2000233c        0x4 mesh/core/libmesh_core_nrf51422_xxAC.a(log.c.obj)
                0x2000233c                g_log_hex_digits
 .data.m_log_callback
                0x20002340        0x4 mesh/core/libmesh_core_nrf51422_xxAC.a(log.c.obj)
                0x20002340                m_log_callback
 .data.g_rng_function
                0x20002344        0x4 external/micro-ecc/libuECC_nrf51422_xxAC.a(uECC.c.obj)
 .data._impure_ptr
                0x20002348        0x4 c:/a/gcc_arm/6/bin/../lib/gcc/arm-none-eabi/6.3.1/../../../../arm-none-eabi/lib/thumb/v6-m\libc_nano.a(lib_a-impure.o)
                0x20002348                _impure_ptr
 .data.impure_data
                0x2000234c       0x60 c:/a/gcc_arm/6/bin/../lib/gcc/arm-none-eabi/6.3.1/../../../../arm-none-eabi/lib/thumb/v6-m\libc_nano.a(lib_a-impure.o)
                0x200023ac                . = ALIGN (0x4)
                0x200023ac                PROVIDE (__preinit_array_start, .)
 *(.preinit_array)
                0x200023ac                PROVIDE (__preinit_array_end, .)
                0x200023ac                . = ALIGN (0x4)
                0x200023ac                PROVIDE (__init_array_start, .)
 *(SORT(.init_array.*))
 *(.init_array)
 .init_array    0x200023ac        0x4 c:/a/gcc_arm/6/bin/../lib/gcc/arm-none-eabi/6.3.1/thumb/v6-m/crtbegin.o
                0x200023b0                PROVIDE (__init_array_end, .)
                0x200023b0                . = ALIGN (0x4)
                [!provide]                PROVIDE (__fini_array_start, .)
 *(SORT(.fini_array.*))
 *(.fini_array)
 .fini_array    0x200023b0        0x4 c:/a/gcc_arm/6/bin/../lib/gcc/arm-none-eabi/6.3.1/thumb/v6-m/crtbegin.o
                [!provide]                PROVIDE (__fini_array_end, .)
 *(.jcr*)
 .jcr           0x200023b4        0x0 c:/a/gcc_arm/6/bin/../lib/gcc/arm-none-eabi/6.3.1/thumb/v6-m/crtbegin.o
 .jcr           0x200023b4        0x4 c:/a/gcc_arm/6/bin/../lib/gcc/arm-none-eabi/6.3.1/thumb/v6-m/crtend.o
                0x200023b8                . = ALIGN (0x4)
                0x200023b8                __data_end__ = .

.igot.plt       0x200023b8        0x0 load address 0x0002c170
 .igot.plt      0x200023b8        0x0 c:/a/gcc_arm/6/bin/../lib/gcc/arm-none-eabi/6.3.1/thumb/v6-m/crtbegin.o

.bss            0x200023b8     0x2eb0 load address 0x0002c170
                0x200023b8                . = ALIGN (0x4)
                0x200023b8                __bss_start__ = .
 *(.bss*)
 .bss           0x200023b8       0x1c c:/a/gcc_arm/6/bin/../lib/gcc/arm-none-eabi/6.3.1/thumb/v6-m/crtbegin.o
 .bss.m_appkey_handles
                0x200023d4        0x2 examples/pb_remote/client/CMakeFiles/pb_remote_client_nrf51422_xxAC_s130_2.0.1.dir/src/main.c.obj
 .bss.m_device_address_handles
                0x200023d6        0x8 examples/pb_remote/client/CMakeFiles/pb_remote_client_nrf51422_xxAC_s130_2.0.1.dir/src/main.c.obj
 .bss.m_device_state
                0x200023de        0x1 examples/pb_remote/client/CMakeFiles/pb_remote_client_nrf51422_xxAC_s130_2.0.1.dir/src/main.c.obj
 *fill*         0x200023df        0x1 
 .bss.m_devkey_handles
                0x200023e0        0xa examples/pb_remote/client/CMakeFiles/pb_remote_client_nrf51422_xxAC_s130_2.0.1.dir/src/main.c.obj
 *fill*         0x200023ea        0x2 
 .bss.m_evt_handler
                0x200023ec        0x8 examples/pb_remote/client/CMakeFiles/pb_remote_client_nrf51422_xxAC_s130_2.0.1.dir/src/main.c.obj
 .bss.m_netkey_handles
                0x200023f4        0x2 examples/pb_remote/client/CMakeFiles/pb_remote_client_nrf51422_xxAC_s130_2.0.1.dir/src/main.c.obj
 .bss.m_next_unprov_index
                0x200023f6        0x1 examples/pb_remote/client/CMakeFiles/pb_remote_client_nrf51422_xxAC_s130_2.0.1.dir/src/main.c.obj
 *fill*         0x200023f7        0x1 
 .bss.m_num_elements_of_last_guy
                0x200023f8        0x2 examples/pb_remote/client/CMakeFiles/pb_remote_client_nrf51422_xxAC_s130_2.0.1.dir/src/main.c.obj
 .bss.m_private_key
                0x200023fa       0x20 examples/pb_remote/client/CMakeFiles/pb_remote_client_nrf51422_xxAC_s130_2.0.1.dir/src/main.c.obj
 *fill*         0x2000241a        0x2 
 .bss.m_prov_ctx
                0x2000241c      0x2fc examples/pb_remote/client/CMakeFiles/pb_remote_client_nrf51422_xxAC_s130_2.0.1.dir/src/main.c.obj
 .bss.m_public_key
                0x20002718       0x40 examples/pb_remote/client/CMakeFiles/pb_remote_client_nrf51422_xxAC_s130_2.0.1.dir/src/main.c.obj
 .bss.m_remote_client
                0x20002758       0x2c examples/pb_remote/client/CMakeFiles/pb_remote_client_nrf51422_xxAC_s130_2.0.1.dir/src/main.c.obj
 .bss.m_ble_evt_buffer
                0x20002784       0x47 examples/pb_remote/client/CMakeFiles/pb_remote_client_nrf51422_xxAC_s130_2.0.1.dir/__/__/nrf_mesh_sdk.c.obj
 .bss.m_is_interrupting
                0x200027cb        0x1 examples/pb_remote/client/CMakeFiles/pb_remote_client_nrf51422_xxAC_s130_2.0.1.dir/__/__/__/models/pb_remote/src/pb_remote_client.c.obj
 .bss.m_packet  0x200027cc       0x41 examples/pb_remote/client/CMakeFiles/pb_remote_client_nrf51422_xxAC_s130_2.0.1.dir/__/__/__/models/pb_remote/src/pb_remote_client.c.obj
 *fill*         0x2000280d        0x3 
 .bss.m_pbr_client_event_queue
                0x20002810       0x14 examples/pb_remote/client/CMakeFiles/pb_remote_client_nrf51422_xxAC_s130_2.0.1.dir/__/__/__/models/pb_remote/src/pb_remote_client.c.obj
 .bss.m_pbr_client_event_queue_buffer
                0x20002824       0x90 examples/pb_remote/client/CMakeFiles/pb_remote_client_nrf51422_xxAC_s130_2.0.1.dir/__/__/__/models/pb_remote/src/pb_remote_client.c.obj
 .bss.mp_pb_remote_client_model
                0x200028b4        0x4 examples/pb_remote/client/CMakeFiles/pb_remote_client_nrf51422_xxAC_s130_2.0.1.dir/__/__/__/models/pb_remote/src/pb_remote_client.c.obj
 .bss.m_offload_ecdh
                0x200028b8        0x1 examples/pb_remote/client/CMakeFiles/pb_remote_client_nrf51422_xxAC_s130_2.0.1.dir/__/__/__/mesh/prov/src/prov_utils.c.obj
 *fill*         0x200028b9        0x3 
 .bss.mp_bearer_head
                0x200028bc        0x4 examples/pb_remote/client/CMakeFiles/pb_remote_client_nrf51422_xxAC_s130_2.0.1.dir/__/__/__/mesh/prov/src/prov_bearer_adv.c.obj
 .bss.m_publish_timer
                0x200028c0       0x18 examples/pb_remote/client/CMakeFiles/pb_remote_client_nrf51422_xxAC_s130_2.0.1.dir/__/__/__/mesh/access/src/access_publish.c.obj
 .bss.m_publish_timer_counter
                0x200028d8        0x4 examples/pb_remote/client/CMakeFiles/pb_remote_client_nrf51422_xxAC_s130_2.0.1.dir/__/__/__/mesh/access/src/access_publish.c.obj
 .bss.m_publish_timer_running
                0x200028dc        0x1 examples/pb_remote/client/CMakeFiles/pb_remote_client_nrf51422_xxAC_s130_2.0.1.dir/__/__/__/mesh/access/src/access_publish.c.obj
 .bss.m_timer_resolution
                0x200028dd        0x1 examples/pb_remote/client/CMakeFiles/pb_remote_client_nrf51422_xxAC_s130_2.0.1.dir/__/__/__/mesh/access/src/access_publish.c.obj
 *fill*         0x200028de        0x2 
 .bss.mp_publication_list
                0x200028e0        0x4 examples/pb_remote/client/CMakeFiles/pb_remote_client_nrf51422_xxAC_s130_2.0.1.dir/__/__/__/mesh/access/src/access_publish.c.obj
 .bss.m_element_pool
                0x200028e4        0x6 examples/pb_remote/client/CMakeFiles/pb_remote_client_nrf51422_xxAC_s130_2.0.1.dir/__/__/__/mesh/access/src/access.c.obj
 *fill*         0x200028ea        0x2 
 .bss.m_evt_handler
                0x200028ec        0x8 examples/pb_remote/client/CMakeFiles/pb_remote_client_nrf51422_xxAC_s130_2.0.1.dir/__/__/__/mesh/access/src/access.c.obj
 .bss.m_flash_manager
                0x200028f4       0x24 examples/pb_remote/client/CMakeFiles/pb_remote_client_nrf51422_xxAC_s130_2.0.1.dir/__/__/__/mesh/access/src/access.c.obj
 .bss.m_flash_not_ready
                0x20002918        0x1 examples/pb_remote/client/CMakeFiles/pb_remote_client_nrf51422_xxAC_s130_2.0.1.dir/__/__/__/mesh/access/src/access.c.obj
 *fill*         0x20002919        0x3 
 .bss.m_model_pool
                0x2000291c       0x68 examples/pb_remote/client/CMakeFiles/pb_remote_client_nrf51422_xxAC_s130_2.0.1.dir/__/__/__/mesh/access/src/access.c.obj
 .bss.m_subscription_list_pool
                0x20002984       0x10 examples/pb_remote/client/CMakeFiles/pb_remote_client_nrf51422_xxAC_s130_2.0.1.dir/__/__/__/mesh/access/src/access.c.obj
 .bss.m_reliable
                0x20002994       0x6c examples/pb_remote/client/CMakeFiles/pb_remote_client_nrf51422_xxAC_s130_2.0.1.dir/__/__/__/mesh/access/src/access_reliable.c.obj
 .bss.m_addr_nonvirtual_allocated
                0x20002a00        0x4 examples/pb_remote/client/CMakeFiles/pb_remote_client_nrf51422_xxAC_s130_2.0.1.dir/__/__/__/mesh/access/src/device_state_manager.c.obj
 .bss.m_addr_nonvirtual_needs_flashing
                0x20002a04        0x4 examples/pb_remote/client/CMakeFiles/pb_remote_client_nrf51422_xxAC_s130_2.0.1.dir/__/__/__/mesh/access/src/device_state_manager.c.obj
 .bss.m_addr_unicast_allocated
                0x20002a08        0x4 examples/pb_remote/client/CMakeFiles/pb_remote_client_nrf51422_xxAC_s130_2.0.1.dir/__/__/__/mesh/access/src/device_state_manager.c.obj
 .bss.m_addr_unicast_needs_flashing
                0x20002a0c        0x4 examples/pb_remote/client/CMakeFiles/pb_remote_client_nrf51422_xxAC_s130_2.0.1.dir/__/__/__/mesh/access/src/device_state_manager.c.obj
 .bss.m_addr_virtual_allocated
                0x20002a10        0x4 examples/pb_remote/client/CMakeFiles/pb_remote_client_nrf51422_xxAC_s130_2.0.1.dir/__/__/__/mesh/access/src/device_state_manager.c.obj
 .bss.m_addr_virtual_needs_flashing
                0x20002a14        0x4 examples/pb_remote/client/CMakeFiles/pb_remote_client_nrf51422_xxAC_s130_2.0.1.dir/__/__/__/mesh/access/src/device_state_manager.c.obj
 .bss.m_addresses
                0x20002a18       0x10 examples/pb_remote/client/CMakeFiles/pb_remote_client_nrf51422_xxAC_s130_2.0.1.dir/__/__/__/mesh/access/src/device_state_manager.c.obj
 .bss.m_appkey_allocated
                0x20002a28        0x4 examples/pb_remote/client/CMakeFiles/pb_remote_client_nrf51422_xxAC_s130_2.0.1.dir/__/__/__/mesh/access/src/device_state_manager.c.obj
 .bss.m_appkey_needs_flashing
                0x20002a2c        0x4 examples/pb_remote/client/CMakeFiles/pb_remote_client_nrf51422_xxAC_s130_2.0.1.dir/__/__/__/mesh/access/src/device_state_manager.c.obj
 .bss.m_appkeys
                0x20002a30       0x16 examples/pb_remote/client/CMakeFiles/pb_remote_client_nrf51422_xxAC_s130_2.0.1.dir/__/__/__/mesh/access/src/device_state_manager.c.obj
 *fill*         0x20002a46        0x2 
 .bss.m_devkey_allocated
                0x20002a48        0x4 examples/pb_remote/client/CMakeFiles/pb_remote_client_nrf51422_xxAC_s130_2.0.1.dir/__/__/__/mesh/access/src/device_state_manager.c.obj
 .bss.m_devkey_needs_flashing
                0x20002a4c        0x4 examples/pb_remote/client/CMakeFiles/pb_remote_client_nrf51422_xxAC_s130_2.0.1.dir/__/__/__/mesh/access/src/device_state_manager.c.obj
 .bss.m_devkeys
                0x20002a50       0x6e examples/pb_remote/client/CMakeFiles/pb_remote_client_nrf51422_xxAC_s130_2.0.1.dir/__/__/__/mesh/access/src/device_state_manager.c.obj
 .bss.m_flash_is_available
                0x20002abe        0x1 examples/pb_remote/client/CMakeFiles/pb_remote_client_nrf51422_xxAC_s130_2.0.1.dir/__/__/__/mesh/access/src/device_state_manager.c.obj
 *fill*         0x20002abf        0x1 
 .bss.m_flash_manager
                0x20002ac0       0x24 examples/pb_remote/client/CMakeFiles/pb_remote_client_nrf51422_xxAC_s130_2.0.1.dir/__/__/__/mesh/access/src/device_state_manager.c.obj
 .bss.m_flash_mem_listener_update_all
                0x20002ae4       0x10 examples/pb_remote/client/CMakeFiles/pb_remote_client_nrf51422_xxAC_s130_2.0.1.dir/__/__/__/mesh/access/src/device_state_manager.c.obj
 .bss.m_has_primary_subnet
                0x20002af4        0x1 examples/pb_remote/client/CMakeFiles/pb_remote_client_nrf51422_xxAC_s130_2.0.1.dir/__/__/__/mesh/access/src/device_state_manager.c.obj
 *fill*         0x20002af5        0x1 
 .bss.m_local_unicast_addr
                0x20002af6        0x4 examples/pb_remote/client/CMakeFiles/pb_remote_client_nrf51422_xxAC_s130_2.0.1.dir/__/__/__/mesh/access/src/device_state_manager.c.obj
 *fill*         0x20002afa        0x2 
 .bss.m_subnet_allocated
                0x20002afc        0x4 examples/pb_remote/client/CMakeFiles/pb_remote_client_nrf51422_xxAC_s130_2.0.1.dir/__/__/__/mesh/access/src/device_state_manager.c.obj
 .bss.m_subnet_needs_flashing
                0x20002b00        0x4 examples/pb_remote/client/CMakeFiles/pb_remote_client_nrf51422_xxAC_s130_2.0.1.dir/__/__/__/mesh/access/src/device_state_manager.c.obj
 .bss.m_subnets
                0x20002b04       0x5c examples/pb_remote/client/CMakeFiles/pb_remote_client_nrf51422_xxAC_s130_2.0.1.dir/__/__/__/mesh/access/src/device_state_manager.c.obj
 .bss.m_virtual_addresses
                0x20002b60       0x14 examples/pb_remote/client/CMakeFiles/pb_remote_client_nrf51422_xxAC_s130_2.0.1.dir/__/__/__/mesh/access/src/device_state_manager.c.obj
 .bss.m_uuid    0x20002b74       0x10 mesh/core/libmesh_core_nrf51422_xxAC.a(nrf_mesh_configure.c.obj)
 .bss.mp_evt_handlers_head
                0x20002b84        0x4 mesh/core/libmesh_core_nrf51422_xxAC.a(event.c.obj)
 .bss.lock_count.7374
                0x20002b88        0x4 mesh/core/libmesh_core_nrf51422_xxAC.a(net_state.c.obj)
 .bss.m_flash_manager
                0x20002b8c       0x24 mesh/core/libmesh_core_nrf51422_xxAC.a(net_state.c.obj)
 .bss.m_iv_update_timer
                0x20002bb0       0x18 mesh/core/libmesh_core_nrf51422_xxAC.a(net_state.c.obj)
 .bss.m_net_state
                0x20002bc8       0x14 mesh/core/libmesh_core_nrf51422_xxAC.a(net_state.c.obj)
 .bss.m_seqnum_allocation_in_progress
                0x20002bdc        0x1 mesh/core/libmesh_core_nrf51422_xxAC.a(net_state.c.obj)
 .bss.m_test_mode
                0x20002bdd        0x1 mesh/core/libmesh_core_nrf51422_xxAC.a(net_state.c.obj)
 .bss.m_is_enabled
                0x20002bde        0x1 mesh/core/libmesh_core_nrf51422_xxAC.a(nrf_mesh.c.obj)
 .bss.m_is_initialized
                0x20002bdf        0x1 mesh/core/libmesh_core_nrf51422_xxAC.a(nrf_mesh.c.obj)
 .bss.m_rx_cb   0x20002be0        0x4 mesh/core/libmesh_core_nrf51422_xxAC.a(nrf_mesh.c.obj)
 .bss.m_event_flag
                0x20002be4        0x4 mesh/core/libmesh_core_nrf51422_xxAC.a(timer_scheduler.c.obj)
 .bss.m_scheduler
                0x20002be8       0x10 mesh/core/libmesh_core_nrf51422_xxAC.a(timer_scheduler.c.obj)
 .bss.m_attributes
                0x20002bf8        0x3 mesh/core/libmesh_core_nrf51422_xxAC.a(timer.c.obj)
 *fill*         0x20002bfb        0x1 
 .bss.m_callbacks
                0x20002bfc        0xc mesh/core/libmesh_core_nrf51422_xxAC.a(timer.c.obj)
 .bss.m_is_in_ts
                0x20002c08        0x1 mesh/core/libmesh_core_nrf51422_xxAC.a(timer.c.obj)
 *fill*         0x20002c09        0x3 
 .bss.m_reference_time
                0x20002c0c        0x4 mesh/core/libmesh_core_nrf51422_xxAC.a(timer.c.obj)
 .bss.m_timeouts
                0x20002c10        0xc mesh/core/libmesh_core_nrf51422_xxAC.a(timer.c.obj)
 .bss.m_timer_mut
                0x20002c1c        0x4 mesh/core/libmesh_core_nrf51422_xxAC.a(timer.c.obj)
 .bss.m_ts_end_time
                0x20002c20        0x4 mesh/core/libmesh_core_nrf51422_xxAC.a(timer.c.obj)
 .bss.mp_ppi_tasks
                0x20002c24        0xc mesh/core/libmesh_core_nrf51422_xxAC.a(timer.c.obj)
 .bss.m_current_time
                0x20002c30        0x4 mesh/core/libmesh_core_nrf51422_xxAC.a(ticker.c.obj)
 .bss.m_timer   0x20002c34       0x18 mesh/core/libmesh_core_nrf51422_xxAC.a(ticker.c.obj)
 .bss.m_current_timeslot
                0x20002c4c       0x1c mesh/core/libmesh_core_nrf51422_xxAC.a(timeslot.c.obj)
 .bss.m_lfclk_ppm
                0x20002c68        0x4 mesh/core/libmesh_core_nrf51422_xxAC.a(timeslot.c.obj)
 .bss.m_radio_request_earliest
                0x20002c6c       0x10 mesh/core/libmesh_core_nrf51422_xxAC.a(timeslot.c.obj)
 .bss.m_state_lock
                0x20002c7c        0x1 mesh/core/libmesh_core_nrf51422_xxAC.a(timeslot.c.obj)
 .bss.m_timeslot_forced_command
                0x20002c7d        0x1 mesh/core/libmesh_core_nrf51422_xxAC.a(timeslot.c.obj)
 *fill*         0x20002c7e        0x2 
 .bss.s_last_rtc_value.6639
                0x20002c80        0x8 mesh/core/libmesh_core_nrf51422_xxAC.a(timeslot.c.obj)
 .bss.m_bearer_event_fifo
                0x20002c88       0x14 mesh/core/libmesh_core_nrf51422_xxAC.a(bearer_event.c.obj)
 .bss.m_bearer_event_fifo_buffer
                0x20002c9c      0x100 mesh/core/libmesh_core_nrf51422_xxAC.a(bearer_event.c.obj)
 .bss.m_critical
                0x20002d9c        0x4 mesh/core/libmesh_core_nrf51422_xxAC.a(bearer_event.c.obj)
 .bss.m_flag_count
                0x20002da0        0x4 mesh/core/libmesh_core_nrf51422_xxAC.a(bearer_event.c.obj)
 .bss.m_flag_event_callbacks
                0x20002da4       0x18 mesh/core/libmesh_core_nrf51422_xxAC.a(bearer_event.c.obj)
 .bss.m_flags   0x20002dbc        0x4 mesh/core/libmesh_core_nrf51422_xxAC.a(bearer_event.c.obj)
 .bss.m_sequential_event_queue
                0x20002dc0        0x8 mesh/core/libmesh_core_nrf51422_xxAC.a(bearer_event.c.obj)
 .bss.m_relay_check_cb
                0x20002dc8        0x4 mesh/core/libmesh_core_nrf51422_xxAC.a(network.c.obj)
 .bss.m_relay_enable
                0x20002dcc        0x1 mesh/core/libmesh_core_nrf51422_xxAC.a(network.c.obj)
 *fill*         0x20002dcd        0x3 
 .bss.m_action_queue
                0x20002dd0        0xc mesh/core/libmesh_core_nrf51422_xxAC.a(flash_manager.c.obj)
 .bss.m_action_queue_buffer
                0x20002ddc      0x104 mesh/core/libmesh_core_nrf51422_xxAC.a(flash_manager.c.obj)
 .bss.m_action_state
                0x20002ee0        0x1 mesh/core/libmesh_core_nrf51422_xxAC.a(flash_manager.c.obj)
 *fill*         0x20002ee1        0x3 
 .bss.m_memory_listener_queue
                0x20002ee4        0x8 mesh/core/libmesh_core_nrf51422_xxAC.a(flash_manager.c.obj)
 .bss.m_processing_flag
                0x20002eec        0x4 mesh/core/libmesh_core_nrf51422_xxAC.a(flash_manager.c.obj)
 .bss.m_state   0x20002ef0        0x1 mesh/core/libmesh_core_nrf51422_xxAC.a(flash_manager.c.obj)
 *fill*         0x20002ef1        0x1 
 .bss.m_token   0x20002ef2        0x2 mesh/core/libmesh_core_nrf51422_xxAC.a(flash_manager.c.obj)
 .bss.p_current.8491
                0x20002ef4        0x4 mesh/core/libmesh_core_nrf51422_xxAC.a(flash_manager.c.obj)
 .bss.result.8492
                0x20002ef8        0x1 mesh/core/libmesh_core_nrf51422_xxAC.a(flash_manager.c.obj)
 *fill*         0x20002ef9        0x3 
 .bss.m_adv_buffer
                0x20002efc       0x68 mesh/core/libmesh_core_nrf51422_xxAC.a(beacon.c.obj)
 .bss.m_advertiser
                0x20002f64       0x94 mesh/core/libmesh_core_nrf51422_xxAC.a(beacon.c.obj)
 .bss.m_adv_tx_count
                0x20002ff8        0x8 mesh/core/libmesh_core_nrf51422_xxAC.a(core_tx.c.obj)
 .bss.m_advertisers
                0x20003000      0x128 mesh/core/libmesh_core_nrf51422_xxAC.a(core_tx.c.obj)
 .bss.m_originator_adv_packet_buffer
                0x20003128      0x100 mesh/core/libmesh_core_nrf51422_xxAC.a(core_tx.c.obj)
 .bss.m_relay_adv_packet_buffer
                0x20003228       0x80 mesh/core/libmesh_core_nrf51422_xxAC.a(core_tx.c.obj)
 .bss.m_tx_complete_callback
                0x200032a8        0x4 mesh/core/libmesh_core_nrf51422_xxAC.a(core_tx.c.obj)
 .bss.m_beacon_salt
                0x200032ac       0x10 mesh/core/libmesh_core_nrf51422_xxAC.a(net_beacon.c.obj)
 .bss.m_enabled
                0x200032bc        0x1 mesh/core/libmesh_core_nrf51422_xxAC.a(net_beacon.c.obj)
 *fill*         0x200032bd        0x3 
 .bss.m_tx_event
                0x200032c0       0x18 mesh/core/libmesh_core_nrf51422_xxAC.a(net_beacon.c.obj)
 .bss.m_adv_prng
                0x200032d8       0x10 mesh/core/libmesh_core_nrf51422_xxAC.a(advertiser.c.obj)
 .bss.m_action_queue
                0x200032e8        0x8 mesh/core/libmesh_core_nrf51422_xxAC.a(bearer_handler.c.obj)
 .bss.m_end_time
                0x200032f0        0x4 mesh/core/libmesh_core_nrf51422_xxAC.a(bearer_handler.c.obj)
 .bss.m_scanner_is_active
                0x200032f4        0x1 mesh/core/libmesh_core_nrf51422_xxAC.a(bearer_handler.c.obj)
 .bss.m_stopped
                0x200032f5        0x1 mesh/core/libmesh_core_nrf51422_xxAC.a(bearer_handler.c.obj)
 *fill*         0x200032f6        0x2 
 .bss.mp_action
                0x200032f8        0x4 mesh/core/libmesh_core_nrf51422_xxAC.a(bearer_handler.c.obj)
 .bss.m_next_channel_index
                0x200032fc        0x1 mesh/core/libmesh_core_nrf51422_xxAC.a(broadcast.c.obj)
 *fill*         0x200032fd        0x3 
 .bss.m_scanner
                0x20003300      0x284 mesh/core/libmesh_core_nrf51422_xxAC.a(scanner.c.obj)
 .bss.m_internal_event_fifo
                0x20003584       0x14 mesh/core/libmesh_core_nrf51422_xxAC.a(internal_event.c.obj)
 .bss.m_internal_event_initialized
                0x20003598        0x1 mesh/core/libmesh_core_nrf51422_xxAC.a(internal_event.c.obj)
 *fill*         0x20003599        0x3 
 .bss.m_report_cb
                0x2000359c        0x4 mesh/core/libmesh_core_nrf51422_xxAC.a(internal_event.c.obj)
 .bss.m_msg_cache
                0x200035a0      0x100 mesh/core/libmesh_core_nrf51422_xxAC.a(msg_cache.c.obj)
 .bss.m_msg_cache_head
                0x200036a0        0x4 mesh/core/libmesh_core_nrf51422_xxAC.a(msg_cache.c.obj)
 .bss.m_sar_alloc
                0x200036a4        0x4 mesh/core/libmesh_core_nrf51422_xxAC.a(transport.c.obj)
 .bss.m_sar_process_flag
                0x200036a8        0x4 mesh/core/libmesh_core_nrf51422_xxAC.a(transport.c.obj)
 .bss.m_sar_release
                0x200036ac        0x4 mesh/core/libmesh_core_nrf51422_xxAC.a(transport.c.obj)
 .bss.m_sar_session_cache
                0x200036b0       0x40 mesh/core/libmesh_core_nrf51422_xxAC.a(transport.c.obj)
 .bss.m_sar_session_cache_head
                0x200036f0        0x4 mesh/core/libmesh_core_nrf51422_xxAC.a(transport.c.obj)
 .bss.m_trs_config
                0x200036f4       0x18 mesh/core/libmesh_core_nrf51422_xxAC.a(transport.c.obj)
 .bss.m_trs_sar_sessions
                0x2000370c      0x1b0 mesh/core/libmesh_core_nrf51422_xxAC.a(transport.c.obj)
 .bss.m_defrag  0x200038bc       0x1c mesh/core/libmesh_core_nrf51422_xxAC.a(flash_manager_defrag.c.obj)
 .bss.m_token   0x200038d8        0x2 mesh/core/libmesh_core_nrf51422_xxAC.a(flash_manager_defrag.c.obj)
 *fill*         0x200038da        0x2 
 .bss.mp_recovery_area
                0x200038dc        0x4 mesh/core/libmesh_core_nrf51422_xxAC.a(flash_manager_defrag.c.obj)
 .bss.p_null_ptr.7544
                0x200038e0        0x4 mesh/core/libmesh_core_nrf51422_xxAC.a(flash_manager_defrag.c.obj)
 .bss.m_pool    0x200038e4     0x1000 mesh/core/libmesh_core_nrf51422_xxAC.a(packet_mgr.c.obj)
 .bss.mp_free_head
                0x200048e4        0x4 mesh/core/libmesh_core_nrf51422_xxAC.a(packet_mgr.c.obj)
 .bss.m_event_flag
                0x200048e8        0x4 mesh/core/libmesh_core_nrf51422_xxAC.a(mesh_flash.c.obj)
 .bss.m_suspended
                0x200048ec        0x1 mesh/core/libmesh_core_nrf51422_xxAC.a(mesh_flash.c.obj)
 *fill*         0x200048ed        0x3 
 .bss.m_users   0x200048f0      0x228 mesh/core/libmesh_core_nrf51422_xxAC.a(mesh_flash.c.obj)
 .bss.m_128buf  0x20004b18       0x10 mesh/core/libmesh_core_nrf51422_xxAC.a(aes_cmac.c.obj)
 .bss.m_subkey1
                0x20004b28       0x10 mesh/core/libmesh_core_nrf51422_xxAC.a(aes_cmac.c.obj)
 .bss.m_subkey2
                0x20004b38       0x10 mesh/core/libmesh_core_nrf51422_xxAC.a(aes_cmac.c.obj)
 .bss.m_cache_full
                0x20004b48        0x1 mesh/core/libmesh_core_nrf51422_xxAC.a(replay_cache.c.obj)
 .bss.m_cache_index
                0x20004b49        0x1 mesh/core/libmesh_core_nrf51422_xxAC.a(replay_cache.c.obj)
 *fill*         0x20004b4a        0x2 
 .bss.m_replay_cache
                0x20004b4c      0x200 mesh/core/libmesh_core_nrf51422_xxAC.a(replay_cache.c.obj)
 .bss.m_accepted_amount
                0x20004d4c        0x4 mesh/core/libmesh_core_nrf51422_xxAC.a(filter_engine.c.obj)
 .bss.m_filter_list_head
                0x20004d50        0x4 mesh/core/libmesh_core_nrf51422_xxAC.a(filter_engine.c.obj)
 .bss._acDownBuffer
                0x20004d54       0x80 external/rtt/librtt_nrf51422_xxAC.a(SEGGER_RTT.c.obj)
 .bss._acUpBuffer
                0x20004dd4      0x400 external/rtt/librtt_nrf51422_xxAC.a(SEGGER_RTT.c.obj)
 .bss.__malloc_free_list
                0x200051d4        0x4 c:/a/gcc_arm/6/bin/../lib/gcc/arm-none-eabi/6.3.1/../../../../arm-none-eabi/lib/thumb/v6-m\libc_nano.a(lib_a-nano-mallocr.o)
                0x200051d4                __malloc_free_list
 .bss.__malloc_sbrk_start
                0x200051d8        0x4 c:/a/gcc_arm/6/bin/../lib/gcc/arm-none-eabi/6.3.1/../../../../arm-none-eabi/lib/thumb/v6-m\libc_nano.a(lib_a-nano-mallocr.o)
                0x200051d8                __malloc_sbrk_start
 .bss.heap_end.4116
                0x200051dc        0x4 c:/a/gcc_arm/6/bin/../lib/gcc/arm-none-eabi/6.3.1/../../../../arm-none-eabi/lib/thumb/v6-m\libnosys.a(sbrk.o)
 *(COMMON)
 COMMON         0x200051e0        0x8 examples/pb_remote/client/CMakeFiles/pb_remote_client_nrf51422_xxAC_s130_2.0.1.dir/__/__/nrf_mesh_sdk.c.obj
                0x200051e0                nrf_nvic_state
 COMMON         0x200051e8        0x4 mesh/core/libmesh_core_nrf51422_xxAC.a(nrf_mesh.c.obj)
                0x200051e8                m_assertion_handler
 COMMON         0x200051ec       0x78 external/rtt/librtt_nrf51422_xxAC.a(SEGGER_RTT.c.obj)
                0x200051ec                _SEGGER_RTT
 COMMON         0x20005264        0x4 c:/a/gcc_arm/6/bin/../lib/gcc/arm-none-eabi/6.3.1/../../../../arm-none-eabi/lib/thumb/v6-m\libc_nano.a(lib_a-reent.o)
                0x20005264                errno
                0x20005268                . = ALIGN (0x4)
                0x20005268                __bss_end__ = .

.heap           0x20005268      0x800
                0x20005268                __HeapBase = .
                0x20005268                __end__ = .
                0x20005268                PROVIDE (end, .)
 *(.heap*)
 .heap          0x20005268      0x800 examples/pb_remote/client/CMakeFiles/pb_remote_client_nrf51422_xxAC_s130_2.0.1.dir/__/__/__/external/nRF5_SDK_14.0.0_3bcc1f7/components/toolchain/gcc/gcc_startup_nrf51.S.obj
                0x20005a68                __HeapLimit = .

.stack_dummy    0x20005268      0x800
 *(.stack*)
 .stack         0x20005268      0x800 examples/pb_remote/client/CMakeFiles/pb_remote_client_nrf51422_xxAC_s130_2.0.1.dir/__/__/__/external/nRF5_SDK_14.0.0_3bcc1f7/components/toolchain/gcc/gcc_startup_nrf51.S.obj
                0x20007d00                __StackTop = (ORIGIN (RAM) + LENGTH (RAM))
                0x20007500                __StackLimit = (__StackTop - SIZEOF (.stack_dummy))
                0x20007d00                PROVIDE (__stack, __StackTop)
                0x00000001                ASSERT ((__StackLimit >= __HeapLimit), region RAM overflowed with stack)
OUTPUT(examples\pb_remote\client\pb_remote_client_nrf51422_xxAC_s130_2.0.1.elf elf32-littlearm)

.ARM.attributes
                0x00000000       0x28
 .ARM.attributes
                0x00000000       0x1e c:/a/gcc_arm/6/bin/../lib/gcc/arm-none-eabi/6.3.1/thumb/v6-m/crti.o
 .ARM.attributes
                0x0000001e       0x2c c:/a/gcc_arm/6/bin/../lib/gcc/arm-none-eabi/6.3.1/thumb/v6-m/crtbegin.o
 .ARM.attributes
                0x0000004a       0x1b c:/a/gcc_arm/6/bin/../lib/gcc/arm-none-eabi/6.3.1/../../../../arm-none-eabi/lib/thumb/v6-m/crt0.o
 .ARM.attributes
                0x00000065       0x31 examples/pb_remote/client/CMakeFiles/pb_remote_client_nrf51422_xxAC_s130_2.0.1.dir/src/main.c.obj
 .ARM.attributes
                0x00000096       0x31 examples/pb_remote/client/CMakeFiles/pb_remote_client_nrf51422_xxAC_s130_2.0.1.dir/__/__/nrf_mesh_sdk.c.obj
 .ARM.attributes
                0x000000c7       0x31 examples/pb_remote/client/CMakeFiles/pb_remote_client_nrf51422_xxAC_s130_2.0.1.dir/__/__/__/models/pb_remote/src/pb_remote_client.c.obj
 .ARM.attributes
                0x000000f8       0x31 examples/pb_remote/client/CMakeFiles/pb_remote_client_nrf51422_xxAC_s130_2.0.1.dir/__/__/__/mesh/prov/src/prov_provisioner.c.obj
 .ARM.attributes
                0x00000129       0x31 examples/pb_remote/client/CMakeFiles/pb_remote_client_nrf51422_xxAC_s130_2.0.1.dir/__/__/__/mesh/prov/src/nrf_mesh_prov.c.obj
 .ARM.attributes
                0x0000015a       0x31 examples/pb_remote/client/CMakeFiles/pb_remote_client_nrf51422_xxAC_s130_2.0.1.dir/__/__/__/mesh/prov/src/provisioning.c.obj
 .ARM.attributes
                0x0000018b       0x31 examples/pb_remote/client/CMakeFiles/pb_remote_client_nrf51422_xxAC_s130_2.0.1.dir/__/__/__/mesh/prov/src/prov_beacon.c.obj
 .ARM.attributes
                0x000001bc       0x31 examples/pb_remote/client/CMakeFiles/pb_remote_client_nrf51422_xxAC_s130_2.0.1.dir/__/__/__/mesh/prov/src/prov_utils.c.obj
 .ARM.attributes
                0x000001ed       0x31 examples/pb_remote/client/CMakeFiles/pb_remote_client_nrf51422_xxAC_s130_2.0.1.dir/__/__/__/mesh/prov/src/prov_bearer_adv.c.obj
 .ARM.attributes
                0x0000021e       0x31 examples/pb_remote/client/CMakeFiles/pb_remote_client_nrf51422_xxAC_s130_2.0.1.dir/__/__/__/mesh/access/src/access_publish.c.obj
 .ARM.attributes
                0x0000024f       0x31 examples/pb_remote/client/CMakeFiles/pb_remote_client_nrf51422_xxAC_s130_2.0.1.dir/__/__/__/mesh/access/src/access.c.obj
 .ARM.attributes
                0x00000280       0x31 examples/pb_remote/client/CMakeFiles/pb_remote_client_nrf51422_xxAC_s130_2.0.1.dir/__/__/__/mesh/access/src/access_reliable.c.obj
 .ARM.attributes
                0x000002b1       0x31 examples/pb_remote/client/CMakeFiles/pb_remote_client_nrf51422_xxAC_s130_2.0.1.dir/__/__/__/mesh/access/src/device_state_manager.c.obj
 .ARM.attributes
                0x000002e2       0x31 examples/pb_remote/client/CMakeFiles/pb_remote_client_nrf51422_xxAC_s130_2.0.1.dir/__/__/nrf_mesh_weak.c.obj
 .ARM.attributes
                0x00000313       0x31 examples/pb_remote/client/CMakeFiles/pb_remote_client_nrf51422_xxAC_s130_2.0.1.dir/__/__/__/external/nRF5_SDK_14.0.0_3bcc1f7/components/toolchain/system_nrf51.c.obj
 .ARM.attributes
                0x00000344       0x1b examples/pb_remote/client/CMakeFiles/pb_remote_client_nrf51422_xxAC_s130_2.0.1.dir/__/__/__/external/nRF5_SDK_14.0.0_3bcc1f7/components/toolchain/gcc/gcc_startup_nrf51.S.obj
 .ARM.attributes
                0x0000035f       0x31 mesh/core/libmesh_core_nrf51422_xxAC.a(nrf_mesh_configure.c.obj)
 .ARM.attributes
                0x00000390       0x31 mesh/core/libmesh_core_nrf51422_xxAC.a(event.c.obj)
 .ARM.attributes
                0x000003c1       0x31 mesh/core/libmesh_core_nrf51422_xxAC.a(fifo.c.obj)
 .ARM.attributes
                0x000003f2       0x31 mesh/core/libmesh_core_nrf51422_xxAC.a(net_state.c.obj)
 .ARM.attributes
                0x00000423       0x31 mesh/core/libmesh_core_nrf51422_xxAC.a(nrf_mesh_utils.c.obj)
 .ARM.attributes
                0x00000454       0x31 mesh/core/libmesh_core_nrf51422_xxAC.a(nrf_mesh.c.obj)
 .ARM.attributes
                0x00000485       0x31 mesh/core/libmesh_core_nrf51422_xxAC.a(hal.c.obj)
 .ARM.attributes
                0x000004b6       0x31 mesh/core/libmesh_core_nrf51422_xxAC.a(timer_scheduler.c.obj)
 .ARM.attributes
                0x000004e7       0x31 mesh/core/libmesh_core_nrf51422_xxAC.a(timer.c.obj)
 .ARM.attributes
                0x00000518       0x31 mesh/core/libmesh_core_nrf51422_xxAC.a(ticker.c.obj)
 .ARM.attributes
                0x00000549       0x31 mesh/core/libmesh_core_nrf51422_xxAC.a(rand.c.obj)
 .ARM.attributes
                0x0000057a       0x31 mesh/core/libmesh_core_nrf51422_xxAC.a(timeslot.c.obj)
 .ARM.attributes
                0x000005ab       0x31 mesh/core/libmesh_core_nrf51422_xxAC.a(bearer_event.c.obj)
 .ARM.attributes
                0x000005dc       0x31 mesh/core/libmesh_core_nrf51422_xxAC.a(enc.c.obj)
 .ARM.attributes
                0x0000060d       0x31 mesh/core/libmesh_core_nrf51422_xxAC.a(network.c.obj)
 .ARM.attributes
                0x0000063e       0x31 mesh/core/libmesh_core_nrf51422_xxAC.a(nrf_mesh_keygen.c.obj)
 .ARM.attributes
                0x0000066f       0x31 mesh/core/libmesh_core_nrf51422_xxAC.a(log.c.obj)
 .ARM.attributes
                0x000006a0       0x31 mesh/core/libmesh_core_nrf51422_xxAC.a(flash_manager.c.obj)
 .ARM.attributes
                0x000006d1       0x31 mesh/core/libmesh_core_nrf51422_xxAC.a(ccm_soft.c.obj)
 .ARM.attributes
                0x00000702       0x31 mesh/core/libmesh_core_nrf51422_xxAC.a(beacon.c.obj)
 .ARM.attributes
                0x00000733       0x31 mesh/core/libmesh_core_nrf51422_xxAC.a(flash_manager_internal.c.obj)
 .ARM.attributes
                0x00000764       0x31 mesh/core/libmesh_core_nrf51422_xxAC.a(core_tx.c.obj)
 .ARM.attributes
                0x00000795       0x31 mesh/core/libmesh_core_nrf51422_xxAC.a(net_beacon.c.obj)
 .ARM.attributes
                0x000007c6       0x31 mesh/core/libmesh_core_nrf51422_xxAC.a(advertiser.c.obj)
 .ARM.attributes
                0x000007f7       0x31 mesh/core/libmesh_core_nrf51422_xxAC.a(bearer_handler.c.obj)
 .ARM.attributes
                0x00000828       0x31 mesh/core/libmesh_core_nrf51422_xxAC.a(broadcast.c.obj)
 .ARM.attributes
                0x00000859       0x31 mesh/core/libmesh_core_nrf51422_xxAC.a(radio_config.c.obj)
 .ARM.attributes
                0x0000088a       0x31 mesh/core/libmesh_core_nrf51422_xxAC.a(scanner.c.obj)
 .ARM.attributes
                0x000008bb       0x31 mesh/core/libmesh_core_nrf51422_xxAC.a(internal_event.c.obj)
 .ARM.attributes
                0x000008ec       0x31 mesh/core/libmesh_core_nrf51422_xxAC.a(aes.c.obj)
 .ARM.attributes
                0x0000091d       0x31 mesh/core/libmesh_core_nrf51422_xxAC.a(msg_cache.c.obj)
 .ARM.attributes
                0x0000094e       0x31 mesh/core/libmesh_core_nrf51422_xxAC.a(transport.c.obj)
 .ARM.attributes
                0x0000097f       0x31 mesh/core/libmesh_core_nrf51422_xxAC.a(packet_buffer.c.obj)
 .ARM.attributes
                0x000009b0       0x31 mesh/core/libmesh_core_nrf51422_xxAC.a(flash_manager_defrag.c.obj)
 .ARM.attributes
                0x000009e1       0x31 mesh/core/libmesh_core_nrf51422_xxAC.a(packet_mgr.c.obj)
 .ARM.attributes
                0x00000a12       0x31 mesh/core/libmesh_core_nrf51422_xxAC.a(mesh_flash.c.obj)
 .ARM.attributes
                0x00000a43       0x31 mesh/core/libmesh_core_nrf51422_xxAC.a(queue.c.obj)
 .ARM.attributes
                0x00000a74       0x31 mesh/core/libmesh_core_nrf51422_xxAC.a(aes_cmac.c.obj)
 .ARM.attributes
                0x00000aa5       0x31 mesh/core/libmesh_core_nrf51422_xxAC.a(msqueue.c.obj)
 .ARM.attributes
                0x00000ad6       0x31 mesh/core/libmesh_core_nrf51422_xxAC.a(replay_cache.c.obj)
 .ARM.attributes
                0x00000b07       0x31 mesh/core/libmesh_core_nrf51422_xxAC.a(filter_engine.c.obj)
 .ARM.attributes
                0x00000b38       0x31 mesh/core/libmesh_core_nrf51422_xxAC.a(nrf_flash.c.obj)
 .ARM.attributes
                0x00000b69       0x31 external/rtt/librtt_nrf51422_xxAC.a(SEGGER_RTT.c.obj)
 .ARM.attributes
                0x00000b9a       0x31 external/rtt/librtt_nrf51422_xxAC.a(SEGGER_RTT_printf.c.obj)
 .ARM.attributes
                0x00000bcb       0x31 external/micro-ecc/libuECC_nrf51422_xxAC.a(uECC.c.obj)
 .ARM.attributes
                0x00000bfc       0x1e c:/a/gcc_arm/6/bin/../lib/gcc/arm-none-eabi/6.3.1/thumb/v6-m\libgcc.a(_thumb1_case_sqi.o)
 .ARM.attributes
                0x00000c1a       0x1e c:/a/gcc_arm/6/bin/../lib/gcc/arm-none-eabi/6.3.1/thumb/v6-m\libgcc.a(_thumb1_case_uqi.o)
 .ARM.attributes
                0x00000c38       0x1e c:/a/gcc_arm/6/bin/../lib/gcc/arm-none-eabi/6.3.1/thumb/v6-m\libgcc.a(_thumb1_case_shi.o)
 .ARM.attributes
                0x00000c56       0x1e c:/a/gcc_arm/6/bin/../lib/gcc/arm-none-eabi/6.3.1/thumb/v6-m\libgcc.a(_thumb1_case_uhi.o)
 .ARM.attributes
                0x00000c74       0x1e c:/a/gcc_arm/6/bin/../lib/gcc/arm-none-eabi/6.3.1/thumb/v6-m\libgcc.a(_udivsi3.o)
 .ARM.attributes
                0x00000c92       0x1e c:/a/gcc_arm/6/bin/../lib/gcc/arm-none-eabi/6.3.1/thumb/v6-m\libgcc.a(_divsi3.o)
 .ARM.attributes
                0x00000cb0       0x1e c:/a/gcc_arm/6/bin/../lib/gcc/arm-none-eabi/6.3.1/thumb/v6-m\libgcc.a(_dvmd_tls.o)
 .ARM.attributes
                0x00000cce       0x2c c:/a/gcc_arm/6/bin/../lib/gcc/arm-none-eabi/6.3.1/thumb/v6-m\libgcc.a(_muldi3.o)
 .ARM.attributes
                0x00000cfa       0x2c c:/a/gcc_arm/6/bin/../lib/gcc/arm-none-eabi/6.3.1/../../../../arm-none-eabi/lib/thumb/v6-m\libc_nano.a(lib_a-exit.o)
 .ARM.attributes
                0x00000d26       0x2c c:/a/gcc_arm/6/bin/../lib/gcc/arm-none-eabi/6.3.1/../../../../arm-none-eabi/lib/thumb/v6-m\libc_nano.a(lib_a-impure.o)
 .ARM.attributes
                0x00000d52       0x2c c:/a/gcc_arm/6/bin/../lib/gcc/arm-none-eabi/6.3.1/../../../../arm-none-eabi/lib/thumb/v6-m\libc_nano.a(lib_a-init.o)
 .ARM.attributes
                0x00000d7e       0x2c c:/a/gcc_arm/6/bin/../lib/gcc/arm-none-eabi/6.3.1/../../../../arm-none-eabi/lib/thumb/v6-m\libc_nano.a(lib_a-malloc.o)
 .ARM.attributes
                0x00000daa       0x2c c:/a/gcc_arm/6/bin/../lib/gcc/arm-none-eabi/6.3.1/../../../../arm-none-eabi/lib/thumb/v6-m\libc_nano.a(lib_a-memcmp.o)
 .ARM.attributes
                0x00000dd6       0x2c c:/a/gcc_arm/6/bin/../lib/gcc/arm-none-eabi/6.3.1/../../../../arm-none-eabi/lib/thumb/v6-m\libc_nano.a(lib_a-memcpy-stub.o)
 .ARM.attributes
                0x00000e02       0x2c c:/a/gcc_arm/6/bin/../lib/gcc/arm-none-eabi/6.3.1/../../../../arm-none-eabi/lib/thumb/v6-m\libc_nano.a(lib_a-memset.o)
 .ARM.attributes
                0x00000e2e       0x2c c:/a/gcc_arm/6/bin/../lib/gcc/arm-none-eabi/6.3.1/../../../../arm-none-eabi/lib/thumb/v6-m\libc_nano.a(lib_a-nano-freer.o)
 .ARM.attributes
                0x00000e5a       0x2c c:/a/gcc_arm/6/bin/../lib/gcc/arm-none-eabi/6.3.1/../../../../arm-none-eabi/lib/thumb/v6-m\libc_nano.a(lib_a-nano-mallocr.o)
 .ARM.attributes
                0x00000e86       0x2c c:/a/gcc_arm/6/bin/../lib/gcc/arm-none-eabi/6.3.1/../../../../arm-none-eabi/lib/thumb/v6-m\libc_nano.a(lib_a-sbrkr.o)
 .ARM.attributes
                0x00000eb2       0x2c c:/a/gcc_arm/6/bin/../lib/gcc/arm-none-eabi/6.3.1/../../../../arm-none-eabi/lib/thumb/v6-m\libc_nano.a(lib_a-strcpy.o)
 .ARM.attributes
                0x00000ede       0x1c c:/a/gcc_arm/6/bin/../lib/gcc/arm-none-eabi/6.3.1/../../../../arm-none-eabi/lib/thumb/v6-m\libc_nano.a(lib_a-strlen.o)
 .ARM.attributes
                0x00000efa       0x2c c:/a/gcc_arm/6/bin/../lib/gcc/arm-none-eabi/6.3.1/../../../../arm-none-eabi/lib/thumb/v6-m\libc_nano.a(lib_a-strrchr.o)
 .ARM.attributes
                0x00000f26       0x2c c:/a/gcc_arm/6/bin/../lib/gcc/arm-none-eabi/6.3.1/../../../../arm-none-eabi/lib/thumb/v6-m\libc_nano.a(lib_a-mlock.o)
 .ARM.attributes
                0x00000f52       0x2c c:/a/gcc_arm/6/bin/../lib/gcc/arm-none-eabi/6.3.1/../../../../arm-none-eabi/lib/thumb/v6-m\libc_nano.a(lib_a-reent.o)
 .ARM.attributes
                0x00000f7e       0x2c c:/a/gcc_arm/6/bin/../lib/gcc/arm-none-eabi/6.3.1/../../../../arm-none-eabi/lib/thumb/v6-m\libc_nano.a(lib_a-strchr.o)
 .ARM.attributes
                0x00000faa       0x2c c:/a/gcc_arm/6/bin/../lib/gcc/arm-none-eabi/6.3.1/thumb/v6-m/crtend.o
 .ARM.attributes
                0x00000fd6       0x1e c:/a/gcc_arm/6/bin/../lib/gcc/arm-none-eabi/6.3.1/thumb/v6-m/crtn.o
 .ARM.attributes
                0x00000ff4       0x2c c:/a/gcc_arm/6/bin/../lib/gcc/arm-none-eabi/6.3.1/../../../../arm-none-eabi/lib/thumb/v6-m\libnosys.a(sbrk.o)
 .ARM.attributes
                0x00001020       0x2c c:/a/gcc_arm/6/bin/../lib/gcc/arm-none-eabi/6.3.1/../../../../arm-none-eabi/lib/thumb/v6-m\libnosys.a(_exit.o)

.comment        0x00000000       0x7f
 .comment       0x00000000       0x7f examples/pb_remote/client/CMakeFiles/pb_remote_client_nrf51422_xxAC_s130_2.0.1.dir/src/main.c.obj
                                 0x80 (size before relaxing)
 .comment       0x0000007f       0x80 examples/pb_remote/client/CMakeFiles/pb_remote_client_nrf51422_xxAC_s130_2.0.1.dir/__/__/nrf_mesh_sdk.c.obj
 .comment       0x0000007f       0x80 examples/pb_remote/client/CMakeFiles/pb_remote_client_nrf51422_xxAC_s130_2.0.1.dir/__/__/__/models/pb_remote/src/pb_remote_client.c.obj
 .comment       0x0000007f       0x80 examples/pb_remote/client/CMakeFiles/pb_remote_client_nrf51422_xxAC_s130_2.0.1.dir/__/__/__/mesh/prov/src/prov_provisioner.c.obj
 .comment       0x0000007f       0x80 examples/pb_remote/client/CMakeFiles/pb_remote_client_nrf51422_xxAC_s130_2.0.1.dir/__/__/__/mesh/prov/src/nrf_mesh_prov.c.obj
 .comment       0x0000007f       0x80 examples/pb_remote/client/CMakeFiles/pb_remote_client_nrf51422_xxAC_s130_2.0.1.dir/__/__/__/mesh/prov/src/provisioning.c.obj
 .comment       0x0000007f       0x80 examples/pb_remote/client/CMakeFiles/pb_remote_client_nrf51422_xxAC_s130_2.0.1.dir/__/__/__/mesh/prov/src/prov_beacon.c.obj
 .comment       0x0000007f       0x80 examples/pb_remote/client/CMakeFiles/pb_remote_client_nrf51422_xxAC_s130_2.0.1.dir/__/__/__/mesh/prov/src/prov_utils.c.obj
 .comment       0x0000007f       0x80 examples/pb_remote/client/CMakeFiles/pb_remote_client_nrf51422_xxAC_s130_2.0.1.dir/__/__/__/mesh/prov/src/prov_bearer_adv.c.obj
 .comment       0x0000007f       0x80 examples/pb_remote/client/CMakeFiles/pb_remote_client_nrf51422_xxAC_s130_2.0.1.dir/__/__/__/mesh/access/src/access_publish.c.obj
 .comment       0x0000007f       0x80 examples/pb_remote/client/CMakeFiles/pb_remote_client_nrf51422_xxAC_s130_2.0.1.dir/__/__/__/mesh/access/src/access.c.obj
 .comment       0x0000007f       0x80 examples/pb_remote/client/CMakeFiles/pb_remote_client_nrf51422_xxAC_s130_2.0.1.dir/__/__/__/mesh/access/src/access_reliable.c.obj
 .comment       0x0000007f       0x80 examples/pb_remote/client/CMakeFiles/pb_remote_client_nrf51422_xxAC_s130_2.0.1.dir/__/__/__/mesh/access/src/device_state_manager.c.obj
 .comment       0x0000007f       0x80 examples/pb_remote/client/CMakeFiles/pb_remote_client_nrf51422_xxAC_s130_2.0.1.dir/__/__/nrf_mesh_weak.c.obj
 .comment       0x0000007f       0x80 examples/pb_remote/client/CMakeFiles/pb_remote_client_nrf51422_xxAC_s130_2.0.1.dir/__/__/__/external/nRF5_SDK_14.0.0_3bcc1f7/components/toolchain/system_nrf51.c.obj
 .comment       0x0000007f       0x80 mesh/core/libmesh_core_nrf51422_xxAC.a(nrf_mesh_configure.c.obj)
 .comment       0x0000007f       0x80 mesh/core/libmesh_core_nrf51422_xxAC.a(event.c.obj)
 .comment       0x0000007f       0x80 mesh/core/libmesh_core_nrf51422_xxAC.a(fifo.c.obj)
 .comment       0x0000007f       0x80 mesh/core/libmesh_core_nrf51422_xxAC.a(net_state.c.obj)
 .comment       0x0000007f       0x80 mesh/core/libmesh_core_nrf51422_xxAC.a(nrf_mesh_utils.c.obj)
 .comment       0x0000007f       0x80 mesh/core/libmesh_core_nrf51422_xxAC.a(nrf_mesh.c.obj)
 .comment       0x0000007f       0x80 mesh/core/libmesh_core_nrf51422_xxAC.a(hal.c.obj)
 .comment       0x0000007f       0x80 mesh/core/libmesh_core_nrf51422_xxAC.a(timer_scheduler.c.obj)
 .comment       0x0000007f       0x80 mesh/core/libmesh_core_nrf51422_xxAC.a(timer.c.obj)
 .comment       0x0000007f       0x80 mesh/core/libmesh_core_nrf51422_xxAC.a(ticker.c.obj)
 .comment       0x0000007f       0x80 mesh/core/libmesh_core_nrf51422_xxAC.a(rand.c.obj)
 .comment       0x0000007f       0x80 mesh/core/libmesh_core_nrf51422_xxAC.a(timeslot.c.obj)
 .comment       0x0000007f       0x80 mesh/core/libmesh_core_nrf51422_xxAC.a(bearer_event.c.obj)
 .comment       0x0000007f       0x80 mesh/core/libmesh_core_nrf51422_xxAC.a(enc.c.obj)
 .comment       0x0000007f       0x80 mesh/core/libmesh_core_nrf51422_xxAC.a(network.c.obj)
 .comment       0x0000007f       0x80 mesh/core/libmesh_core_nrf51422_xxAC.a(nrf_mesh_keygen.c.obj)
 .comment       0x0000007f       0x80 mesh/core/libmesh_core_nrf51422_xxAC.a(log.c.obj)
 .comment       0x0000007f       0x80 mesh/core/libmesh_core_nrf51422_xxAC.a(flash_manager.c.obj)
 .comment       0x0000007f       0x80 mesh/core/libmesh_core_nrf51422_xxAC.a(ccm_soft.c.obj)
 .comment       0x0000007f       0x80 mesh/core/libmesh_core_nrf51422_xxAC.a(beacon.c.obj)
 .comment       0x0000007f       0x80 mesh/core/libmesh_core_nrf51422_xxAC.a(flash_manager_internal.c.obj)
 .comment       0x0000007f       0x80 mesh/core/libmesh_core_nrf51422_xxAC.a(core_tx.c.obj)
 .comment       0x0000007f       0x80 mesh/core/libmesh_core_nrf51422_xxAC.a(net_beacon.c.obj)
 .comment       0x0000007f       0x80 mesh/core/libmesh_core_nrf51422_xxAC.a(advertiser.c.obj)
 .comment       0x0000007f       0x80 mesh/core/libmesh_core_nrf51422_xxAC.a(bearer_handler.c.obj)
 .comment       0x0000007f       0x80 mesh/core/libmesh_core_nrf51422_xxAC.a(broadcast.c.obj)
 .comment       0x0000007f       0x80 mesh/core/libmesh_core_nrf51422_xxAC.a(radio_config.c.obj)
 .comment       0x0000007f       0x80 mesh/core/libmesh_core_nrf51422_xxAC.a(scanner.c.obj)
 .comment       0x0000007f       0x80 mesh/core/libmesh_core_nrf51422_xxAC.a(internal_event.c.obj)
 .comment       0x0000007f       0x80 mesh/core/libmesh_core_nrf51422_xxAC.a(aes.c.obj)
 .comment       0x0000007f       0x80 mesh/core/libmesh_core_nrf51422_xxAC.a(msg_cache.c.obj)
 .comment       0x0000007f       0x80 mesh/core/libmesh_core_nrf51422_xxAC.a(transport.c.obj)
 .comment       0x0000007f       0x80 mesh/core/libmesh_core_nrf51422_xxAC.a(packet_buffer.c.obj)
 .comment       0x0000007f       0x80 mesh/core/libmesh_core_nrf51422_xxAC.a(flash_manager_defrag.c.obj)
 .comment       0x0000007f       0x80 mesh/core/libmesh_core_nrf51422_xxAC.a(packet_mgr.c.obj)
 .comment       0x0000007f       0x80 mesh/core/libmesh_core_nrf51422_xxAC.a(mesh_flash.c.obj)
 .comment       0x0000007f       0x80 mesh/core/libmesh_core_nrf51422_xxAC.a(queue.c.obj)
 .comment       0x0000007f       0x80 mesh/core/libmesh_core_nrf51422_xxAC.a(aes_cmac.c.obj)
 .comment       0x0000007f       0x80 mesh/core/libmesh_core_nrf51422_xxAC.a(msqueue.c.obj)
 .comment       0x0000007f       0x80 mesh/core/libmesh_core_nrf51422_xxAC.a(replay_cache.c.obj)
 .comment       0x0000007f       0x80 mesh/core/libmesh_core_nrf51422_xxAC.a(filter_engine.c.obj)
 .comment       0x0000007f       0x80 mesh/core/libmesh_core_nrf51422_xxAC.a(nrf_flash.c.obj)
 .comment       0x0000007f       0x80 external/rtt/librtt_nrf51422_xxAC.a(SEGGER_RTT.c.obj)
 .comment       0x0000007f       0x80 external/rtt/librtt_nrf51422_xxAC.a(SEGGER_RTT_printf.c.obj)
 .comment       0x0000007f       0x80 external/micro-ecc/libuECC_nrf51422_xxAC.a(uECC.c.obj)

.debug_frame    0x00000000      0x324
 .debug_frame   0x00000000       0x20 c:/a/gcc_arm/6/bin/../lib/gcc/arm-none-eabi/6.3.1/thumb/v6-m\libgcc.a(_udivsi3.o)
 .debug_frame   0x00000020       0x20 c:/a/gcc_arm/6/bin/../lib/gcc/arm-none-eabi/6.3.1/thumb/v6-m\libgcc.a(_divsi3.o)
 .debug_frame   0x00000040       0x34 c:/a/gcc_arm/6/bin/../lib/gcc/arm-none-eabi/6.3.1/thumb/v6-m\libgcc.a(_muldi3.o)
 .debug_frame   0x00000074       0x28 c:/a/gcc_arm/6/bin/../lib/gcc/arm-none-eabi/6.3.1/../../../../arm-none-eabi/lib/thumb/v6-m\libc_nano.a(lib_a-exit.o)
 .debug_frame   0x0000009c       0x2c c:/a/gcc_arm/6/bin/../lib/gcc/arm-none-eabi/6.3.1/../../../../arm-none-eabi/lib/thumb/v6-m\libc_nano.a(lib_a-init.o)
 .debug_frame   0x000000c8       0x40 c:/a/gcc_arm/6/bin/../lib/gcc/arm-none-eabi/6.3.1/../../../../arm-none-eabi/lib/thumb/v6-m\libc_nano.a(lib_a-malloc.o)
 .debug_frame   0x00000108       0x2c c:/a/gcc_arm/6/bin/../lib/gcc/arm-none-eabi/6.3.1/../../../../arm-none-eabi/lib/thumb/v6-m\libc_nano.a(lib_a-memcmp.o)
 .debug_frame   0x00000134       0x28 c:/a/gcc_arm/6/bin/../lib/gcc/arm-none-eabi/6.3.1/../../../../arm-none-eabi/lib/thumb/v6-m\libc_nano.a(lib_a-memcpy-stub.o)
 .debug_frame   0x0000015c       0x20 c:/a/gcc_arm/6/bin/../lib/gcc/arm-none-eabi/6.3.1/../../../../arm-none-eabi/lib/thumb/v6-m\libc_nano.a(lib_a-memset.o)
 .debug_frame   0x0000017c       0x2c c:/a/gcc_arm/6/bin/../lib/gcc/arm-none-eabi/6.3.1/../../../../arm-none-eabi/lib/thumb/v6-m\libc_nano.a(lib_a-nano-freer.o)
 .debug_frame   0x000001a8       0x2c c:/a/gcc_arm/6/bin/../lib/gcc/arm-none-eabi/6.3.1/../../../../arm-none-eabi/lib/thumb/v6-m\libc_nano.a(lib_a-nano-mallocr.o)
 .debug_frame   0x000001d4       0x2c c:/a/gcc_arm/6/bin/../lib/gcc/arm-none-eabi/6.3.1/../../../../arm-none-eabi/lib/thumb/v6-m\libc_nano.a(lib_a-sbrkr.o)
 .debug_frame   0x00000200       0x20 c:/a/gcc_arm/6/bin/../lib/gcc/arm-none-eabi/6.3.1/../../../../arm-none-eabi/lib/thumb/v6-m\libc_nano.a(lib_a-strcpy.o)
 .debug_frame   0x00000220       0x2c c:/a/gcc_arm/6/bin/../lib/gcc/arm-none-eabi/6.3.1/../../../../arm-none-eabi/lib/thumb/v6-m\libc_nano.a(lib_a-strrchr.o)
 .debug_frame   0x0000024c       0x30 c:/a/gcc_arm/6/bin/../lib/gcc/arm-none-eabi/6.3.1/../../../../arm-none-eabi/lib/thumb/v6-m\libc_nano.a(lib_a-mlock.o)
 .debug_frame   0x0000027c       0x48 c:/a/gcc_arm/6/bin/../lib/gcc/arm-none-eabi/6.3.1/../../../../arm-none-eabi/lib/thumb/v6-m\libc_nano.a(lib_a-reent.o)
 .debug_frame   0x000002c4       0x20 c:/a/gcc_arm/6/bin/../lib/gcc/arm-none-eabi/6.3.1/../../../../arm-none-eabi/lib/thumb/v6-m\libc_nano.a(lib_a-strchr.o)
 .debug_frame   0x000002e4       0x20 c:/a/gcc_arm/6/bin/../lib/gcc/arm-none-eabi/6.3.1/../../../../arm-none-eabi/lib/thumb/v6-m\libnosys.a(sbrk.o)
 .debug_frame   0x00000304       0x20 c:/a/gcc_arm/6/bin/../lib/gcc/arm-none-eabi/6.3.1/../../../../arm-none-eabi/lib/thumb/v6-m\libnosys.a(_exit.o)
