Archive member included to satisfy reference by file (symbol)

mesh/core/libmesh_core_nrf52832_xxAA.a(nrf_mesh_configure.c.obj)
                              examples/pb_remote/client/CMakeFiles/pb_remote_client_nrf52832_xxAA_s132_5.0.0.dir/__/__/__/mesh/prov/src/prov_beacon.c.obj (nrf_mesh_configure_device_uuid_get)
mesh/core/libmesh_core_nrf52832_xxAA.a(event.c.obj)
                              examples/pb_remote/client/CMakeFiles/pb_remote_client_nrf52832_xxAA_s132_5.0.0.dir/__/__/__/mesh/prov/src/prov_provisioner.c.obj (event_handle)
mesh/core/libmesh_core_nrf52832_xxAA.a(fifo.c.obj)
                              examples/pb_remote/client/CMakeFiles/pb_remote_client_nrf52832_xxAA_s132_5.0.0.dir/__/__/__/models/pb_remote/src/pb_remote_client.c.obj (fifo_init)
mesh/core/libmesh_core_nrf52832_xxAA.a(net_state.c.obj)
                              examples/pb_remote/client/CMakeFiles/pb_remote_client_nrf52832_xxAA_s132_5.0.0.dir/__/__/__/mesh/access/src/device_state_manager.c.obj (net_state_flash_area_get)
mesh/core/libmesh_core_nrf52832_xxAA.a(nrf_mesh_utils.c.obj)
                              examples/pb_remote/client/CMakeFiles/pb_remote_client_nrf52832_xxAA_s132_5.0.0.dir/__/__/__/mesh/prov/src/nrf_mesh_prov.c.obj (nrf_mesh_address_type_get)
mesh/core/libmesh_core_nrf52832_xxAA.a(nrf_mesh.c.obj)
                              examples/pb_remote/client/CMakeFiles/pb_remote_client_nrf52832_xxAA_s132_5.0.0.dir/__/__/nrf_mesh_sdk.c.obj (nrf_mesh_init)
mesh/core/libmesh_core_nrf52832_xxAA.a(hal.c.obj)
                              mesh/core/libmesh_core_nrf52832_xxAA.a(nrf_mesh.c.obj) (hal_lfclk_ppm_get)
mesh/core/libmesh_core_nrf52832_xxAA.a(timer_scheduler.c.obj)
                              mesh/core/libmesh_core_nrf52832_xxAA.a(nrf_mesh.c.obj) (timer_sch_init)
mesh/core/libmesh_core_nrf52832_xxAA.a(timer.c.obj)
                              mesh/core/libmesh_core_nrf52832_xxAA.a(timer_scheduler.c.obj) (timer_order_cb)
mesh/core/libmesh_core_nrf52832_xxAA.a(ticker.c.obj)
                              mesh/core/libmesh_core_nrf52832_xxAA.a(nrf_mesh.c.obj) (ticker_init)
mesh/core/libmesh_core_nrf52832_xxAA.a(rand.c.obj)
                              examples/pb_remote/client/CMakeFiles/pb_remote_client_nrf52832_xxAA_s132_5.0.0.dir/__/__/__/mesh/prov/src/prov_utils.c.obj (rand_hw_rng_get)
mesh/core/libmesh_core_nrf52832_xxAA.a(timeslot.c.obj)
                              mesh/core/libmesh_core_nrf52832_xxAA.a(nrf_mesh.c.obj) (timeslot_sd_event_handler)
mesh/core/libmesh_core_nrf52832_xxAA.a(bearer_event.c.obj)
                              mesh/core/libmesh_core_nrf52832_xxAA.a(nrf_mesh.c.obj) (bearer_event_init)
mesh/core/libmesh_core_nrf52832_xxAA.a(enc.c.obj)
                              examples/pb_remote/client/CMakeFiles/pb_remote_client_nrf52832_xxAA_s132_5.0.0.dir/__/__/__/mesh/prov/src/prov_utils.c.obj (enc_aes_cmac)
mesh/core/libmesh_core_nrf52832_xxAA.a(network.c.obj)
                              mesh/core/libmesh_core_nrf52832_xxAA.a(nrf_mesh.c.obj) (network_init)
mesh/core/libmesh_core_nrf52832_xxAA.a(nrf_mesh_keygen.c.obj)
                              examples/pb_remote/client/CMakeFiles/pb_remote_client_nrf52832_xxAA_s132_5.0.0.dir/__/__/__/mesh/access/src/device_state_manager.c.obj (nrf_mesh_keygen_aid)
mesh/core/libmesh_core_nrf52832_xxAA.a(log.c.obj)
                              examples/pb_remote/client/CMakeFiles/pb_remote_client_nrf52832_xxAA_s132_5.0.0.dir/src/main.c.obj (log_callback_rtt)
mesh/core/libmesh_core_nrf52832_xxAA.a(flash_manager.c.obj)
                              mesh/core/libmesh_core_nrf52832_xxAA.a(nrf_mesh.c.obj) (flash_manager_init)
mesh/core/libmesh_core_nrf52832_xxAA.a(ccm_soft.c.obj)
                              mesh/core/libmesh_core_nrf52832_xxAA.a(enc.c.obj) (ccm_soft_encrypt)
mesh/core/libmesh_core_nrf52832_xxAA.a(beacon.c.obj)
                              mesh/core/libmesh_core_nrf52832_xxAA.a(nrf_mesh.c.obj) (beacon_init)
mesh/core/libmesh_core_nrf52832_xxAA.a(flash_manager_internal.c.obj)
                              mesh/core/libmesh_core_nrf52832_xxAA.a(flash_manager.c.obj) (entry_get)
mesh/core/libmesh_core_nrf52832_xxAA.a(core_tx.c.obj)
                              mesh/core/libmesh_core_nrf52832_xxAA.a(nrf_mesh.c.obj) (core_tx_init)
mesh/core/libmesh_core_nrf52832_xxAA.a(net_beacon.c.obj)
                              mesh/core/libmesh_core_nrf52832_xxAA.a(network.c.obj) (net_beacon_init)
mesh/core/libmesh_core_nrf52832_xxAA.a(advertiser.c.obj)
                              mesh/core/libmesh_core_nrf52832_xxAA.a(nrf_mesh.c.obj) (advertiser_init)
mesh/core/libmesh_core_nrf52832_xxAA.a(bearer_handler.c.obj)
                              mesh/core/libmesh_core_nrf52832_xxAA.a(nrf_mesh.c.obj) (bearer_handler_init)
mesh/core/libmesh_core_nrf52832_xxAA.a(broadcast.c.obj)
                              mesh/core/libmesh_core_nrf52832_xxAA.a(advertiser.c.obj) (broadcast_send)
mesh/core/libmesh_core_nrf52832_xxAA.a(radio_config.c.obj)
                              mesh/core/libmesh_core_nrf52832_xxAA.a(broadcast.c.obj) (radio_config_reset)
mesh/core/libmesh_core_nrf52832_xxAA.a(scanner.c.obj)
                              mesh/core/libmesh_core_nrf52832_xxAA.a(bearer_handler.c.obj) (scanner_radio_start)
mesh/core/libmesh_core_nrf52832_xxAA.a(internal_event.c.obj)
                              mesh/core/libmesh_core_nrf52832_xxAA.a(network.c.obj) (internal_event_push)
mesh/core/libmesh_core_nrf52832_xxAA.a(aes.c.obj)
                              mesh/core/libmesh_core_nrf52832_xxAA.a(enc.c.obj) (aes_encrypt)
mesh/core/libmesh_core_nrf52832_xxAA.a(msg_cache.c.obj)
                              mesh/core/libmesh_core_nrf52832_xxAA.a(nrf_mesh.c.obj) (msg_cache_init)
mesh/core/libmesh_core_nrf52832_xxAA.a(transport.c.obj)
                              mesh/core/libmesh_core_nrf52832_xxAA.a(nrf_mesh.c.obj) (transport_init)
mesh/core/libmesh_core_nrf52832_xxAA.a(packet_buffer.c.obj)
                              mesh/core/libmesh_core_nrf52832_xxAA.a(flash_manager.c.obj) (packet_buffer_init)
mesh/core/libmesh_core_nrf52832_xxAA.a(flash_manager_defrag.c.obj)
                              mesh/core/libmesh_core_nrf52832_xxAA.a(flash_manager.c.obj) (flash_manager_defrag_init)
mesh/core/libmesh_core_nrf52832_xxAA.a(packet_mgr.c.obj)
                              mesh/core/libmesh_core_nrf52832_xxAA.a(nrf_mesh.c.obj) (packet_mgr_init)
mesh/core/libmesh_core_nrf52832_xxAA.a(mesh_flash.c.obj)
                              mesh/core/libmesh_core_nrf52832_xxAA.a(flash_manager.c.obj) (mesh_flash_user_callback_set)
mesh/core/libmesh_core_nrf52832_xxAA.a(queue.c.obj)
                              mesh/core/libmesh_core_nrf52832_xxAA.a(bearer_event.c.obj) (queue_init)
mesh/core/libmesh_core_nrf52832_xxAA.a(aes_cmac.c.obj)
                              mesh/core/libmesh_core_nrf52832_xxAA.a(enc.c.obj) (aes_cmac)
mesh/core/libmesh_core_nrf52832_xxAA.a(msqueue.c.obj)
                              mesh/core/libmesh_core_nrf52832_xxAA.a(mesh_flash.c.obj) (msq_get)
mesh/core/libmesh_core_nrf52832_xxAA.a(replay_cache.c.obj)
                              mesh/core/libmesh_core_nrf52832_xxAA.a(transport.c.obj) (replay_cache_add)
mesh/core/libmesh_core_nrf52832_xxAA.a(filter_engine.c.obj)
                              mesh/core/libmesh_core_nrf52832_xxAA.a(scanner.c.obj) (fen_filters_apply)
mesh/core/libmesh_core_nrf52832_xxAA.a(nrf_flash.c.obj)
                              mesh/core/libmesh_core_nrf52832_xxAA.a(mesh_flash.c.obj) (nrf_flash_erase)
external/rtt/librtt_nrf52832_xxAA.a(SEGGER_RTT.c.obj)
                              mesh/core/libmesh_core_nrf52832_xxAA.a(log.c.obj) (SEGGER_RTT_Write)
external/rtt/librtt_nrf52832_xxAA.a(SEGGER_RTT_printf.c.obj)
                              mesh/core/libmesh_core_nrf52832_xxAA.a(log.c.obj) (SEGGER_RTT_vprintf)
external/micro-ecc/libuECC_nrf52832_xxAA.a(uECC.c.obj)
                              examples/pb_remote/client/CMakeFiles/pb_remote_client_nrf52832_xxAA_s132_5.0.0.dir/__/__/__/mesh/prov/src/prov_utils.c.obj (uECC_secp256r1)
c:/a/gcc_arm/6/bin/../lib/gcc/arm-none-eabi/6.3.1/../../../../arm-none-eabi/lib/thumb/v7e-m/fpv4-sp/hard\libc_nano.a(lib_a-exit.o)
                              c:/a/gcc_arm/6/bin/../lib/gcc/arm-none-eabi/6.3.1/../../../../arm-none-eabi/lib/thumb/v7e-m/fpv4-sp/hard/crt0.o (exit)
c:/a/gcc_arm/6/bin/../lib/gcc/arm-none-eabi/6.3.1/../../../../arm-none-eabi/lib/thumb/v7e-m/fpv4-sp/hard\libc_nano.a(lib_a-impure.o)
                              c:/a/gcc_arm/6/bin/../lib/gcc/arm-none-eabi/6.3.1/../../../../arm-none-eabi/lib/thumb/v7e-m/fpv4-sp/hard\libc_nano.a(lib_a-exit.o) (_global_impure_ptr)
c:/a/gcc_arm/6/bin/../lib/gcc/arm-none-eabi/6.3.1/../../../../arm-none-eabi/lib/thumb/v7e-m/fpv4-sp/hard\libc_nano.a(lib_a-init.o)
                              c:/a/gcc_arm/6/bin/../lib/gcc/arm-none-eabi/6.3.1/../../../../arm-none-eabi/lib/thumb/v7e-m/fpv4-sp/hard/crt0.o (__libc_init_array)
c:/a/gcc_arm/6/bin/../lib/gcc/arm-none-eabi/6.3.1/../../../../arm-none-eabi/lib/thumb/v7e-m/fpv4-sp/hard\libc_nano.a(lib_a-malloc.o)
                              mesh/core/libmesh_core_nrf52832_xxAA.a(transport.c.obj) (malloc)
c:/a/gcc_arm/6/bin/../lib/gcc/arm-none-eabi/6.3.1/../../../../arm-none-eabi/lib/thumb/v7e-m/fpv4-sp/hard\libc_nano.a(lib_a-memcmp.o)
                              examples/pb_remote/client/CMakeFiles/pb_remote_client_nrf52832_xxAA_s132_5.0.0.dir/__/__/__/mesh/prov/src/prov_utils.c.obj (memcmp)
c:/a/gcc_arm/6/bin/../lib/gcc/arm-none-eabi/6.3.1/../../../../arm-none-eabi/lib/thumb/v7e-m/fpv4-sp/hard\libc_nano.a(lib_a-memcpy-stub.o)
                              examples/pb_remote/client/CMakeFiles/pb_remote_client_nrf52832_xxAA_s132_5.0.0.dir/__/__/__/models/pb_remote/src/pb_remote_client.c.obj (memcpy)
c:/a/gcc_arm/6/bin/../lib/gcc/arm-none-eabi/6.3.1/../../../../arm-none-eabi/lib/thumb/v7e-m/fpv4-sp/hard\libc_nano.a(lib_a-memset.o)
                              c:/a/gcc_arm/6/bin/../lib/gcc/arm-none-eabi/6.3.1/../../../../arm-none-eabi/lib/thumb/v7e-m/fpv4-sp/hard/crt0.o (memset)
c:/a/gcc_arm/6/bin/../lib/gcc/arm-none-eabi/6.3.1/../../../../arm-none-eabi/lib/thumb/v7e-m/fpv4-sp/hard\libc_nano.a(lib_a-nano-freer.o)
                              c:/a/gcc_arm/6/bin/../lib/gcc/arm-none-eabi/6.3.1/../../../../arm-none-eabi/lib/thumb/v7e-m/fpv4-sp/hard\libc_nano.a(lib_a-malloc.o) (_free_r)
c:/a/gcc_arm/6/bin/../lib/gcc/arm-none-eabi/6.3.1/../../../../arm-none-eabi/lib/thumb/v7e-m/fpv4-sp/hard\libc_nano.a(lib_a-nano-mallocr.o)
                              c:/a/gcc_arm/6/bin/../lib/gcc/arm-none-eabi/6.3.1/../../../../arm-none-eabi/lib/thumb/v7e-m/fpv4-sp/hard\libc_nano.a(lib_a-malloc.o) (_malloc_r)
c:/a/gcc_arm/6/bin/../lib/gcc/arm-none-eabi/6.3.1/../../../../arm-none-eabi/lib/thumb/v7e-m/fpv4-sp/hard\libc_nano.a(lib_a-sbrkr.o)
                              c:/a/gcc_arm/6/bin/../lib/gcc/arm-none-eabi/6.3.1/../../../../arm-none-eabi/lib/thumb/v7e-m/fpv4-sp/hard\libc_nano.a(lib_a-nano-mallocr.o) (_sbrk_r)
c:/a/gcc_arm/6/bin/../lib/gcc/arm-none-eabi/6.3.1/../../../../arm-none-eabi/lib/thumb/v7e-m/fpv4-sp/hard\libc_nano.a(lib_a-strcpy.o)
                              external/rtt/librtt_nrf52832_xxAA.a(SEGGER_RTT.c.obj) (strcpy)
c:/a/gcc_arm/6/bin/../lib/gcc/arm-none-eabi/6.3.1/../../../../arm-none-eabi/lib/thumb/v7e-m/fpv4-sp/hard\libc_nano.a(lib_a-strlen.o)
                              examples/pb_remote/client/CMakeFiles/pb_remote_client_nrf52832_xxAA_s132_5.0.0.dir/__/__/__/mesh/prov/src/prov_beacon.c.obj (strlen)
c:/a/gcc_arm/6/bin/../lib/gcc/arm-none-eabi/6.3.1/../../../../arm-none-eabi/lib/thumb/v7e-m/fpv4-sp/hard\libc_nano.a(lib_a-strrchr.o)
                              examples/pb_remote/client/CMakeFiles/pb_remote_client_nrf52832_xxAA_s132_5.0.0.dir/src/main.c.obj (strrchr)
c:/a/gcc_arm/6/bin/../lib/gcc/arm-none-eabi/6.3.1/../../../../arm-none-eabi/lib/thumb/v7e-m/fpv4-sp/hard\libc_nano.a(lib_a-mlock.o)
                              c:/a/gcc_arm/6/bin/../lib/gcc/arm-none-eabi/6.3.1/../../../../arm-none-eabi/lib/thumb/v7e-m/fpv4-sp/hard\libc_nano.a(lib_a-nano-freer.o) (__malloc_lock)
c:/a/gcc_arm/6/bin/../lib/gcc/arm-none-eabi/6.3.1/../../../../arm-none-eabi/lib/thumb/v7e-m/fpv4-sp/hard\libc_nano.a(lib_a-reent.o)
                              c:/a/gcc_arm/6/bin/../lib/gcc/arm-none-eabi/6.3.1/../../../../arm-none-eabi/lib/thumb/v7e-m/fpv4-sp/hard\libc_nano.a(lib_a-sbrkr.o) (errno)
c:/a/gcc_arm/6/bin/../lib/gcc/arm-none-eabi/6.3.1/../../../../arm-none-eabi/lib/thumb/v7e-m/fpv4-sp/hard\libc_nano.a(lib_a-strchr.o)
                              c:/a/gcc_arm/6/bin/../lib/gcc/arm-none-eabi/6.3.1/../../../../arm-none-eabi/lib/thumb/v7e-m/fpv4-sp/hard\libc_nano.a(lib_a-strrchr.o) (strchr)
c:/a/gcc_arm/6/bin/../lib/gcc/arm-none-eabi/6.3.1/../../../../arm-none-eabi/lib/thumb/v7e-m/fpv4-sp/hard\libnosys.a(sbrk.o)
                              c:/a/gcc_arm/6/bin/../lib/gcc/arm-none-eabi/6.3.1/../../../../arm-none-eabi/lib/thumb/v7e-m/fpv4-sp/hard\libc_nano.a(lib_a-sbrkr.o) (_sbrk)
c:/a/gcc_arm/6/bin/../lib/gcc/arm-none-eabi/6.3.1/../../../../arm-none-eabi/lib/thumb/v7e-m/fpv4-sp/hard\libnosys.a(_exit.o)
                              c:/a/gcc_arm/6/bin/../lib/gcc/arm-none-eabi/6.3.1/../../../../arm-none-eabi/lib/thumb/v7e-m/fpv4-sp/hard\libc_nano.a(lib_a-exit.o) (_exit)

Allocating common symbols
Common symbol       size              file

nrf_nvic_state      0xc               examples/pb_remote/client/CMakeFiles/pb_remote_client_nrf52832_xxAA_s132_5.0.0.dir/__/__/nrf_mesh_sdk.c.obj
errno               0x4               c:/a/gcc_arm/6/bin/../lib/gcc/arm-none-eabi/6.3.1/../../../../arm-none-eabi/lib/thumb/v7e-m/fpv4-sp/hard\libc_nano.a(lib_a-reent.o)
m_assertion_handler
                    0x4               mesh/core/libmesh_core_nrf52832_xxAA.a(nrf_mesh.c.obj)
_SEGGER_RTT         0x78              external/rtt/librtt_nrf52832_xxAA.a(SEGGER_RTT.c.obj)

Discarded input sections

 .text          0x00000000        0x0 c:/a/gcc_arm/6/bin/../lib/gcc/arm-none-eabi/6.3.1/thumb/v7e-m/fpv4-sp/hard/crti.o
 .data          0x00000000        0x0 c:/a/gcc_arm/6/bin/../lib/gcc/arm-none-eabi/6.3.1/thumb/v7e-m/fpv4-sp/hard/crti.o
 .bss           0x00000000        0x0 c:/a/gcc_arm/6/bin/../lib/gcc/arm-none-eabi/6.3.1/thumb/v7e-m/fpv4-sp/hard/crti.o
 .data          0x00000000        0x4 c:/a/gcc_arm/6/bin/../lib/gcc/arm-none-eabi/6.3.1/thumb/v7e-m/fpv4-sp/hard/crtbegin.o
 .data          0x00000000        0x0 c:/a/gcc_arm/6/bin/../lib/gcc/arm-none-eabi/6.3.1/../../../../arm-none-eabi/lib/thumb/v7e-m/fpv4-sp/hard/crt0.o
 .bss           0x00000000        0x0 c:/a/gcc_arm/6/bin/../lib/gcc/arm-none-eabi/6.3.1/../../../../arm-none-eabi/lib/thumb/v7e-m/fpv4-sp/hard/crt0.o
 .ARM.extab     0x00000000        0x0 c:/a/gcc_arm/6/bin/../lib/gcc/arm-none-eabi/6.3.1/../../../../arm-none-eabi/lib/thumb/v7e-m/fpv4-sp/hard/crt0.o
 .text          0x00000000        0x0 examples/pb_remote/client/CMakeFiles/pb_remote_client_nrf52832_xxAA_s132_5.0.0.dir/src/main.c.obj
 .data          0x00000000        0x0 examples/pb_remote/client/CMakeFiles/pb_remote_client_nrf52832_xxAA_s132_5.0.0.dir/src/main.c.obj
 .bss           0x00000000        0x0 examples/pb_remote/client/CMakeFiles/pb_remote_client_nrf52832_xxAA_s132_5.0.0.dir/src/main.c.obj
 .text          0x00000000        0x0 examples/pb_remote/client/CMakeFiles/pb_remote_client_nrf52832_xxAA_s132_5.0.0.dir/__/__/nrf_mesh_sdk.c.obj
 .data          0x00000000        0x0 examples/pb_remote/client/CMakeFiles/pb_remote_client_nrf52832_xxAA_s132_5.0.0.dir/__/__/nrf_mesh_sdk.c.obj
 .bss           0x00000000        0x0 examples/pb_remote/client/CMakeFiles/pb_remote_client_nrf52832_xxAA_s132_5.0.0.dir/__/__/nrf_mesh_sdk.c.obj
 .text          0x00000000        0x0 examples/pb_remote/client/CMakeFiles/pb_remote_client_nrf52832_xxAA_s132_5.0.0.dir/__/__/__/models/pb_remote/src/pb_remote_client.c.obj
 .data          0x00000000        0x0 examples/pb_remote/client/CMakeFiles/pb_remote_client_nrf52832_xxAA_s132_5.0.0.dir/__/__/__/models/pb_remote/src/pb_remote_client.c.obj
 .bss           0x00000000        0x0 examples/pb_remote/client/CMakeFiles/pb_remote_client_nrf52832_xxAA_s132_5.0.0.dir/__/__/__/models/pb_remote/src/pb_remote_client.c.obj
 .text          0x00000000        0x0 examples/pb_remote/client/CMakeFiles/pb_remote_client_nrf52832_xxAA_s132_5.0.0.dir/__/__/__/mesh/prov/src/prov_provisioner.c.obj
 .data          0x00000000        0x0 examples/pb_remote/client/CMakeFiles/pb_remote_client_nrf52832_xxAA_s132_5.0.0.dir/__/__/__/mesh/prov/src/prov_provisioner.c.obj
 .bss           0x00000000        0x0 examples/pb_remote/client/CMakeFiles/pb_remote_client_nrf52832_xxAA_s132_5.0.0.dir/__/__/__/mesh/prov/src/prov_provisioner.c.obj
 .text.prov_provisioner_shared_secret
                0x00000000       0x2a examples/pb_remote/client/CMakeFiles/pb_remote_client_nrf52832_xxAA_s132_5.0.0.dir/__/__/__/mesh/prov/src/prov_provisioner.c.obj
 .text.prov_provisioner_oob_pubkey
                0x00000000       0x34 examples/pb_remote/client/CMakeFiles/pb_remote_client_nrf52832_xxAA_s132_5.0.0.dir/__/__/__/mesh/prov/src/prov_provisioner.c.obj
 .text          0x00000000        0x0 examples/pb_remote/client/CMakeFiles/pb_remote_client_nrf52832_xxAA_s132_5.0.0.dir/__/__/__/mesh/prov/src/nrf_mesh_prov.c.obj
 .data          0x00000000        0x0 examples/pb_remote/client/CMakeFiles/pb_remote_client_nrf52832_xxAA_s132_5.0.0.dir/__/__/__/mesh/prov/src/nrf_mesh_prov.c.obj
 .bss           0x00000000        0x0 examples/pb_remote/client/CMakeFiles/pb_remote_client_nrf52832_xxAA_s132_5.0.0.dir/__/__/__/mesh/prov/src/nrf_mesh_prov.c.obj
 .text.nrf_mesh_prov_listen
                0x00000000       0x24 examples/pb_remote/client/CMakeFiles/pb_remote_client_nrf52832_xxAA_s132_5.0.0.dir/__/__/__/mesh/prov/src/nrf_mesh_prov.c.obj
 .text.nrf_mesh_prov_shared_secret_provide
                0x00000000        0xe examples/pb_remote/client/CMakeFiles/pb_remote_client_nrf52832_xxAA_s132_5.0.0.dir/__/__/__/mesh/prov/src/nrf_mesh_prov.c.obj
 .text.nrf_mesh_prov_pubkey_provide
                0x00000000       0x10 examples/pb_remote/client/CMakeFiles/pb_remote_client_nrf52832_xxAA_s132_5.0.0.dir/__/__/__/mesh/prov/src/nrf_mesh_prov.c.obj
 .text          0x00000000        0x0 examples/pb_remote/client/CMakeFiles/pb_remote_client_nrf52832_xxAA_s132_5.0.0.dir/__/__/__/mesh/prov/src/provisioning.c.obj
 .data          0x00000000        0x0 examples/pb_remote/client/CMakeFiles/pb_remote_client_nrf52832_xxAA_s132_5.0.0.dir/__/__/__/mesh/prov/src/provisioning.c.obj
 .bss           0x00000000        0x0 examples/pb_remote/client/CMakeFiles/pb_remote_client_nrf52832_xxAA_s132_5.0.0.dir/__/__/__/mesh/prov/src/provisioning.c.obj
 .text.prov_listen_start
                0x00000000       0x14 examples/pb_remote/client/CMakeFiles/pb_remote_client_nrf52832_xxAA_s132_5.0.0.dir/__/__/__/mesh/prov/src/provisioning.c.obj
 .text.prov_listen_stop
                0x00000000        0x8 examples/pb_remote/client/CMakeFiles/pb_remote_client_nrf52832_xxAA_s132_5.0.0.dir/__/__/__/mesh/prov/src/provisioning.c.obj
 .text.prov_tx_capabilities
                0x00000000       0x1e examples/pb_remote/client/CMakeFiles/pb_remote_client_nrf52832_xxAA_s132_5.0.0.dir/__/__/__/mesh/prov/src/provisioning.c.obj
 .text.prov_tx_input_complete
                0x00000000       0x16 examples/pb_remote/client/CMakeFiles/pb_remote_client_nrf52832_xxAA_s132_5.0.0.dir/__/__/__/mesh/prov/src/provisioning.c.obj
 .text.prov_tx_complete
                0x00000000       0x16 examples/pb_remote/client/CMakeFiles/pb_remote_client_nrf52832_xxAA_s132_5.0.0.dir/__/__/__/mesh/prov/src/provisioning.c.obj
 .text.prov_tx_failed
                0x00000000       0x1a examples/pb_remote/client/CMakeFiles/pb_remote_client_nrf52832_xxAA_s132_5.0.0.dir/__/__/__/mesh/prov/src/provisioning.c.obj
 .text.prov_tx  0x00000000        0x4 examples/pb_remote/client/CMakeFiles/pb_remote_client_nrf52832_xxAA_s132_5.0.0.dir/__/__/__/mesh/prov/src/provisioning.c.obj
 .text          0x00000000        0x0 examples/pb_remote/client/CMakeFiles/pb_remote_client_nrf52832_xxAA_s132_5.0.0.dir/__/__/__/mesh/prov/src/prov_beacon.c.obj
 .data          0x00000000        0x0 examples/pb_remote/client/CMakeFiles/pb_remote_client_nrf52832_xxAA_s132_5.0.0.dir/__/__/__/mesh/prov/src/prov_beacon.c.obj
 .bss           0x00000000        0x0 examples/pb_remote/client/CMakeFiles/pb_remote_client_nrf52832_xxAA_s132_5.0.0.dir/__/__/__/mesh/prov/src/prov_beacon.c.obj
 .text.prov_beacon_unprov_report
                0x00000000        0xc examples/pb_remote/client/CMakeFiles/pb_remote_client_nrf52832_xxAA_s132_5.0.0.dir/__/__/__/mesh/prov/src/prov_beacon.c.obj
 .text          0x00000000        0x0 examples/pb_remote/client/CMakeFiles/pb_remote_client_nrf52832_xxAA_s132_5.0.0.dir/__/__/__/mesh/prov/src/prov_utils.c.obj
 .data          0x00000000        0x0 examples/pb_remote/client/CMakeFiles/pb_remote_client_nrf52832_xxAA_s132_5.0.0.dir/__/__/__/mesh/prov/src/prov_utils.c.obj
 .bss           0x00000000        0x0 examples/pb_remote/client/CMakeFiles/pb_remote_client_nrf52832_xxAA_s132_5.0.0.dir/__/__/__/mesh/prov/src/prov_utils.c.obj
 .text.prov_utils_opt_set
                0x00000000       0x20 examples/pb_remote/client/CMakeFiles/pb_remote_client_nrf52832_xxAA_s132_5.0.0.dir/__/__/__/mesh/prov/src/prov_utils.c.obj
 .text.prov_utils_opt_get
                0x00000000       0x1c examples/pb_remote/client/CMakeFiles/pb_remote_client_nrf52832_xxAA_s132_5.0.0.dir/__/__/__/mesh/prov/src/prov_utils.c.obj
 .text          0x00000000        0x0 examples/pb_remote/client/CMakeFiles/pb_remote_client_nrf52832_xxAA_s132_5.0.0.dir/__/__/__/mesh/prov/src/prov_bearer_adv.c.obj
 .data          0x00000000        0x0 examples/pb_remote/client/CMakeFiles/pb_remote_client_nrf52832_xxAA_s132_5.0.0.dir/__/__/__/mesh/prov/src/prov_bearer_adv.c.obj
 .bss           0x00000000        0x0 examples/pb_remote/client/CMakeFiles/pb_remote_client_nrf52832_xxAA_s132_5.0.0.dir/__/__/__/mesh/prov/src/prov_bearer_adv.c.obj
 .text          0x00000000        0x0 examples/pb_remote/client/CMakeFiles/pb_remote_client_nrf52832_xxAA_s132_5.0.0.dir/__/__/__/mesh/access/src/access_publish.c.obj
 .data          0x00000000        0x0 examples/pb_remote/client/CMakeFiles/pb_remote_client_nrf52832_xxAA_s132_5.0.0.dir/__/__/__/mesh/access/src/access_publish.c.obj
 .bss           0x00000000        0x0 examples/pb_remote/client/CMakeFiles/pb_remote_client_nrf52832_xxAA_s132_5.0.0.dir/__/__/__/mesh/access/src/access_publish.c.obj
 .text.access_publish_period_set
                0x00000000       0x6c examples/pb_remote/client/CMakeFiles/pb_remote_client_nrf52832_xxAA_s132_5.0.0.dir/__/__/__/mesh/access/src/access_publish.c.obj
 .text.access_publish_period_get
                0x00000000       0x30 examples/pb_remote/client/CMakeFiles/pb_remote_client_nrf52832_xxAA_s132_5.0.0.dir/__/__/__/mesh/access/src/access_publish.c.obj
 .text          0x00000000        0x0 examples/pb_remote/client/CMakeFiles/pb_remote_client_nrf52832_xxAA_s132_5.0.0.dir/__/__/__/mesh/access/src/access.c.obj
 .data          0x00000000        0x0 examples/pb_remote/client/CMakeFiles/pb_remote_client_nrf52832_xxAA_s132_5.0.0.dir/__/__/__/mesh/access/src/access.c.obj
 .bss           0x00000000        0x0 examples/pb_remote/client/CMakeFiles/pb_remote_client_nrf52832_xxAA_s132_5.0.0.dir/__/__/__/mesh/access/src/access.c.obj
 .text.restore_acquired_subscription
                0x00000000       0x30 examples/pb_remote/client/CMakeFiles/pb_remote_client_nrf52832_xxAA_s132_5.0.0.dir/__/__/__/mesh/access/src/access.c.obj
 .text.restore_acquired_element
                0x00000000       0x1c examples/pb_remote/client/CMakeFiles/pb_remote_client_nrf52832_xxAA_s132_5.0.0.dir/__/__/__/mesh/access/src/access.c.obj
 .text.restore_flash_data
                0x00000000       0x5c examples/pb_remote/client/CMakeFiles/pb_remote_client_nrf52832_xxAA_s132_5.0.0.dir/__/__/__/mesh/access/src/access.c.obj
 .text.access_flash_config_clear
                0x00000000       0x28 examples/pb_remote/client/CMakeFiles/pb_remote_client_nrf52832_xxAA_s132_5.0.0.dir/__/__/__/mesh/access/src/access.c.obj
 .text.access_flash_config_store
                0x00000000      0x14c examples/pb_remote/client/CMakeFiles/pb_remote_client_nrf52832_xxAA_s132_5.0.0.dir/__/__/__/mesh/access/src/access.c.obj
 .text.unlikely.bitfield_next_get.part.0.constprop.3
                0x00000000       0x34 examples/pb_remote/client/CMakeFiles/pb_remote_client_nrf52832_xxAA_s132_5.0.0.dir/__/__/__/mesh/access/src/access.c.obj
 .text.restore_acquired_model
                0x00000000       0x94 examples/pb_remote/client/CMakeFiles/pb_remote_client_nrf52832_xxAA_s132_5.0.0.dir/__/__/__/mesh/access/src/access.c.obj
 .text.access_flash_config_load
                0x00000000      0x128 examples/pb_remote/client/CMakeFiles/pb_remote_client_nrf52832_xxAA_s132_5.0.0.dir/__/__/__/mesh/access/src/access.c.obj
 .text.access_clear
                0x00000000       0x12 examples/pb_remote/client/CMakeFiles/pb_remote_client_nrf52832_xxAA_s132_5.0.0.dir/__/__/__/mesh/access/src/access.c.obj
 .text.access_model_publish_period_set
                0x00000000       0x6c examples/pb_remote/client/CMakeFiles/pb_remote_client_nrf52832_xxAA_s132_5.0.0.dir/__/__/__/mesh/access/src/access.c.obj
 .text.access_model_publish_period_get
                0x00000000       0x3c examples/pb_remote/client/CMakeFiles/pb_remote_client_nrf52832_xxAA_s132_5.0.0.dir/__/__/__/mesh/access/src/access.c.obj
 .text.access_model_subscription_list_alloc
                0x00000000       0x50 examples/pb_remote/client/CMakeFiles/pb_remote_client_nrf52832_xxAA_s132_5.0.0.dir/__/__/__/mesh/access/src/access.c.obj
 .text.access_model_subscription_lists_share
                0x00000000       0x4c examples/pb_remote/client/CMakeFiles/pb_remote_client_nrf52832_xxAA_s132_5.0.0.dir/__/__/__/mesh/access/src/access.c.obj
 .text.access_model_subscription_add
                0x00000000       0x60 examples/pb_remote/client/CMakeFiles/pb_remote_client_nrf52832_xxAA_s132_5.0.0.dir/__/__/__/mesh/access/src/access.c.obj
 .text.access_model_subscription_remove
                0x00000000       0x60 examples/pb_remote/client/CMakeFiles/pb_remote_client_nrf52832_xxAA_s132_5.0.0.dir/__/__/__/mesh/access/src/access.c.obj
 .text.access_model_subscriptions_get
                0x00000000       0x80 examples/pb_remote/client/CMakeFiles/pb_remote_client_nrf52832_xxAA_s132_5.0.0.dir/__/__/__/mesh/access/src/access.c.obj
 .text.access_model_application_unbind
                0x00000000       0x50 examples/pb_remote/client/CMakeFiles/pb_remote_client_nrf52832_xxAA_s132_5.0.0.dir/__/__/__/mesh/access/src/access.c.obj
 .text.access_model_applications_get
                0x00000000       0x58 examples/pb_remote/client/CMakeFiles/pb_remote_client_nrf52832_xxAA_s132_5.0.0.dir/__/__/__/mesh/access/src/access.c.obj
 .text.access_model_publish_application_get
                0x00000000       0x28 examples/pb_remote/client/CMakeFiles/pb_remote_client_nrf52832_xxAA_s132_5.0.0.dir/__/__/__/mesh/access/src/access.c.obj
 .text.access_default_ttl_set
                0x00000000       0x10 examples/pb_remote/client/CMakeFiles/pb_remote_client_nrf52832_xxAA_s132_5.0.0.dir/__/__/__/mesh/access/src/access.c.obj
 .text.access_default_ttl_get
                0x00000000        0xc examples/pb_remote/client/CMakeFiles/pb_remote_client_nrf52832_xxAA_s132_5.0.0.dir/__/__/__/mesh/access/src/access.c.obj
 .text.access_element_location_set
                0x00000000       0x20 examples/pb_remote/client/CMakeFiles/pb_remote_client_nrf52832_xxAA_s132_5.0.0.dir/__/__/__/mesh/access/src/access.c.obj
 .text.access_element_location_get
                0x00000000       0x18 examples/pb_remote/client/CMakeFiles/pb_remote_client_nrf52832_xxAA_s132_5.0.0.dir/__/__/__/mesh/access/src/access.c.obj
 .text.access_element_sig_model_count_get
                0x00000000       0x18 examples/pb_remote/client/CMakeFiles/pb_remote_client_nrf52832_xxAA_s132_5.0.0.dir/__/__/__/mesh/access/src/access.c.obj
 .text.access_element_vendor_model_count_get
                0x00000000       0x18 examples/pb_remote/client/CMakeFiles/pb_remote_client_nrf52832_xxAA_s132_5.0.0.dir/__/__/__/mesh/access/src/access.c.obj
 .text.access_model_id_get
                0x00000000       0x2c examples/pb_remote/client/CMakeFiles/pb_remote_client_nrf52832_xxAA_s132_5.0.0.dir/__/__/__/mesh/access/src/access.c.obj
 .text.access_handle_get
                0x00000000       0x54 examples/pb_remote/client/CMakeFiles/pb_remote_client_nrf52832_xxAA_s132_5.0.0.dir/__/__/__/mesh/access/src/access.c.obj
 .text.access_element_models_get
                0x00000000       0x48 examples/pb_remote/client/CMakeFiles/pb_remote_client_nrf52832_xxAA_s132_5.0.0.dir/__/__/__/mesh/access/src/access.c.obj
 .bss.m_metadata_stored
                0x00000000        0x1 examples/pb_remote/client/CMakeFiles/pb_remote_client_nrf52832_xxAA_s132_5.0.0.dir/__/__/__/mesh/access/src/access.c.obj
 .data.flash_clear_mem_available_struct.10464
                0x00000000       0x10 examples/pb_remote/client/CMakeFiles/pb_remote_client_nrf52832_xxAA_s132_5.0.0.dir/__/__/__/mesh/access/src/access.c.obj
 .data.flash_store_mem_available_struct.10488
                0x00000000       0x10 examples/pb_remote/client/CMakeFiles/pb_remote_client_nrf52832_xxAA_s132_5.0.0.dir/__/__/__/mesh/access/src/access.c.obj
 .rodata.multiply_de_bruijn_bit_position.9124
                0x00000000       0x20 examples/pb_remote/client/CMakeFiles/pb_remote_client_nrf52832_xxAA_s132_5.0.0.dir/__/__/__/mesh/access/src/access.c.obj
 .text          0x00000000        0x0 examples/pb_remote/client/CMakeFiles/pb_remote_client_nrf52832_xxAA_s132_5.0.0.dir/__/__/__/mesh/access/src/access_reliable.c.obj
 .data          0x00000000        0x0 examples/pb_remote/client/CMakeFiles/pb_remote_client_nrf52832_xxAA_s132_5.0.0.dir/__/__/__/mesh/access/src/access_reliable.c.obj
 .bss           0x00000000        0x0 examples/pb_remote/client/CMakeFiles/pb_remote_client_nrf52832_xxAA_s132_5.0.0.dir/__/__/__/mesh/access/src/access_reliable.c.obj
 .text.access_reliable_cancel_all
                0x00000000       0x34 examples/pb_remote/client/CMakeFiles/pb_remote_client_nrf52832_xxAA_s132_5.0.0.dir/__/__/__/mesh/access/src/access_reliable.c.obj
 .text          0x00000000        0x0 examples/pb_remote/client/CMakeFiles/pb_remote_client_nrf52832_xxAA_s132_5.0.0.dir/__/__/__/mesh/access/src/device_state_manager.c.obj
 .data          0x00000000        0x0 examples/pb_remote/client/CMakeFiles/pb_remote_client_nrf52832_xxAA_s132_5.0.0.dir/__/__/__/mesh/access/src/device_state_manager.c.obj
 .bss           0x00000000        0x0 examples/pb_remote/client/CMakeFiles/pb_remote_client_nrf52832_xxAA_s132_5.0.0.dir/__/__/__/mesh/access/src/device_state_manager.c.obj
 .text.reset_flash_area
                0x00000000       0x28 examples/pb_remote/client/CMakeFiles/pb_remote_client_nrf52832_xxAA_s132_5.0.0.dir/__/__/__/mesh/access/src/device_state_manager.c.obj
 .text.add_address_virtual
                0x00000000       0x70 examples/pb_remote/client/CMakeFiles/pb_remote_client_nrf52832_xxAA_s132_5.0.0.dir/__/__/__/mesh/access/src/device_state_manager.c.obj
 .text.address_delete_if_unused
                0x00000000       0x78 examples/pb_remote/client/CMakeFiles/pb_remote_client_nrf52832_xxAA_s132_5.0.0.dir/__/__/__/mesh/access/src/device_state_manager.c.obj
 .text.dsm_flash_config_load
                0x00000000      0x114 examples/pb_remote/client/CMakeFiles/pb_remote_client_nrf52832_xxAA_s132_5.0.0.dir/__/__/__/mesh/access/src/device_state_manager.c.obj
 .text.dsm_has_unflashed_data
                0x00000000       0x24 examples/pb_remote/client/CMakeFiles/pb_remote_client_nrf52832_xxAA_s132_5.0.0.dir/__/__/__/mesh/access/src/device_state_manager.c.obj
 .text.dsm_clear
                0x00000000       0x6c examples/pb_remote/client/CMakeFiles/pb_remote_client_nrf52832_xxAA_s132_5.0.0.dir/__/__/__/mesh/access/src/device_state_manager.c.obj
 .text.dsm_address_publish_add_handle
                0x00000000       0x38 examples/pb_remote/client/CMakeFiles/pb_remote_client_nrf52832_xxAA_s132_5.0.0.dir/__/__/__/mesh/access/src/device_state_manager.c.obj
 .text.dsm_address_publish_virtual_add
                0x00000000        0x6 examples/pb_remote/client/CMakeFiles/pb_remote_client_nrf52832_xxAA_s132_5.0.0.dir/__/__/__/mesh/access/src/device_state_manager.c.obj
 .text.dsm_address_publish_remove
                0x00000000       0x40 examples/pb_remote/client/CMakeFiles/pb_remote_client_nrf52832_xxAA_s132_5.0.0.dir/__/__/__/mesh/access/src/device_state_manager.c.obj
 .text.dsm_address_subscription_add
                0x00000000        0xc examples/pb_remote/client/CMakeFiles/pb_remote_client_nrf52832_xxAA_s132_5.0.0.dir/__/__/__/mesh/access/src/device_state_manager.c.obj
 .text.dsm_address_subscription_virtual_add
                0x00000000        0x6 examples/pb_remote/client/CMakeFiles/pb_remote_client_nrf52832_xxAA_s132_5.0.0.dir/__/__/__/mesh/access/src/device_state_manager.c.obj
 .text.dsm_address_subscription_add_handle
                0x00000000       0x38 examples/pb_remote/client/CMakeFiles/pb_remote_client_nrf52832_xxAA_s132_5.0.0.dir/__/__/__/mesh/access/src/device_state_manager.c.obj
 .text.dsm_address_subscription_count_get
                0x00000000       0x58 examples/pb_remote/client/CMakeFiles/pb_remote_client_nrf52832_xxAA_s132_5.0.0.dir/__/__/__/mesh/access/src/device_state_manager.c.obj
 .text.dsm_address_subscription_remove
                0x00000000       0x58 examples/pb_remote/client/CMakeFiles/pb_remote_client_nrf52832_xxAA_s132_5.0.0.dir/__/__/__/mesh/access/src/device_state_manager.c.obj
 .text.dsm_address_get_all
                0x00000000       0x64 examples/pb_remote/client/CMakeFiles/pb_remote_client_nrf52832_xxAA_s132_5.0.0.dir/__/__/__/mesh/access/src/device_state_manager.c.obj
 .text.dsm_net_key_index_to_subnet_handle
                0x00000000       0x1c examples/pb_remote/client/CMakeFiles/pb_remote_client_nrf52832_xxAA_s132_5.0.0.dir/__/__/__/mesh/access/src/device_state_manager.c.obj
 .text.dsm_subnet_handle_get
                0x00000000        0xc examples/pb_remote/client/CMakeFiles/pb_remote_client_nrf52832_xxAA_s132_5.0.0.dir/__/__/__/mesh/access/src/device_state_manager.c.obj
 .text.dsm_subnet_handle_to_netkey_index
                0x00000000       0x30 examples/pb_remote/client/CMakeFiles/pb_remote_client_nrf52832_xxAA_s132_5.0.0.dir/__/__/__/mesh/access/src/device_state_manager.c.obj
 .text.dsm_app_key_index_to_appkey_handle
                0x00000000       0x1c examples/pb_remote/client/CMakeFiles/pb_remote_client_nrf52832_xxAA_s132_5.0.0.dir/__/__/__/mesh/access/src/device_state_manager.c.obj
 .text.dsm_appkey_handle_to_appkey_index
                0x00000000       0x30 examples/pb_remote/client/CMakeFiles/pb_remote_client_nrf52832_xxAA_s132_5.0.0.dir/__/__/__/mesh/access/src/device_state_manager.c.obj
 .text.dsm_subnet_update
                0x00000000       0x3c examples/pb_remote/client/CMakeFiles/pb_remote_client_nrf52832_xxAA_s132_5.0.0.dir/__/__/__/mesh/access/src/device_state_manager.c.obj
 .text.dsm_subnet_get_all
                0x00000000       0x3c examples/pb_remote/client/CMakeFiles/pb_remote_client_nrf52832_xxAA_s132_5.0.0.dir/__/__/__/mesh/access/src/device_state_manager.c.obj
 .text.dsm_devkey_delete
                0x00000000       0x40 examples/pb_remote/client/CMakeFiles/pb_remote_client_nrf52832_xxAA_s132_5.0.0.dir/__/__/__/mesh/access/src/device_state_manager.c.obj
 .text.dsm_devkey_handle_get
                0x00000000       0x34 examples/pb_remote/client/CMakeFiles/pb_remote_client_nrf52832_xxAA_s132_5.0.0.dir/__/__/__/mesh/access/src/device_state_manager.c.obj
 .text.dsm_appkey_update
                0x00000000       0x40 examples/pb_remote/client/CMakeFiles/pb_remote_client_nrf52832_xxAA_s132_5.0.0.dir/__/__/__/mesh/access/src/device_state_manager.c.obj
 .text.dsm_appkey_delete
                0x00000000       0x2c examples/pb_remote/client/CMakeFiles/pb_remote_client_nrf52832_xxAA_s132_5.0.0.dir/__/__/__/mesh/access/src/device_state_manager.c.obj
 .text.dsm_subnet_delete
                0x00000000       0x94 examples/pb_remote/client/CMakeFiles/pb_remote_client_nrf52832_xxAA_s132_5.0.0.dir/__/__/__/mesh/access/src/device_state_manager.c.obj
 .text.dsm_appkey_get_all
                0x00000000       0x58 examples/pb_remote/client/CMakeFiles/pb_remote_client_nrf52832_xxAA_s132_5.0.0.dir/__/__/__/mesh/access/src/device_state_manager.c.obj
 .text.dsm_beacon_secmat_get
                0x00000000       0x2c examples/pb_remote/client/CMakeFiles/pb_remote_client_nrf52832_xxAA_s132_5.0.0.dir/__/__/__/mesh/access/src/device_state_manager.c.obj
 .text.dsm_proxy_identity_get
                0x00000000        0x4 examples/pb_remote/client/CMakeFiles/pb_remote_client_nrf52832_xxAA_s132_5.0.0.dir/__/__/__/mesh/access/src/device_state_manager.c.obj
 .data.mem_listener.10627
                0x00000000       0x10 examples/pb_remote/client/CMakeFiles/pb_remote_client_nrf52832_xxAA_s132_5.0.0.dir/__/__/__/mesh/access/src/device_state_manager.c.obj
 .text          0x00000000        0x0 examples/pb_remote/client/CMakeFiles/pb_remote_client_nrf52832_xxAA_s132_5.0.0.dir/__/__/nrf_mesh_weak.c.obj
 .data          0x00000000        0x0 examples/pb_remote/client/CMakeFiles/pb_remote_client_nrf52832_xxAA_s132_5.0.0.dir/__/__/nrf_mesh_weak.c.obj
 .bss           0x00000000        0x0 examples/pb_remote/client/CMakeFiles/pb_remote_client_nrf52832_xxAA_s132_5.0.0.dir/__/__/nrf_mesh_weak.c.obj
 .text._weak_handler_ptr
                0x00000000        0x4 examples/pb_remote/client/CMakeFiles/pb_remote_client_nrf52832_xxAA_s132_5.0.0.dir/__/__/nrf_mesh_weak.c.obj
 .text          0x00000000        0x0 examples/pb_remote/client/CMakeFiles/pb_remote_client_nrf52832_xxAA_s132_5.0.0.dir/__/__/__/external/nRF5_SDK_14.0.0_3bcc1f7/components/toolchain/system_nrf52.c.obj
 .data          0x00000000        0x0 examples/pb_remote/client/CMakeFiles/pb_remote_client_nrf52832_xxAA_s132_5.0.0.dir/__/__/__/external/nRF5_SDK_14.0.0_3bcc1f7/components/toolchain/system_nrf52.c.obj
 .bss           0x00000000        0x0 examples/pb_remote/client/CMakeFiles/pb_remote_client_nrf52832_xxAA_s132_5.0.0.dir/__/__/__/external/nRF5_SDK_14.0.0_3bcc1f7/components/toolchain/system_nrf52.c.obj
 .text.SystemCoreClockUpdate
                0x00000000       0x10 examples/pb_remote/client/CMakeFiles/pb_remote_client_nrf52832_xxAA_s132_5.0.0.dir/__/__/__/external/nRF5_SDK_14.0.0_3bcc1f7/components/toolchain/system_nrf52.c.obj
 .data          0x00000000        0x0 examples/pb_remote/client/CMakeFiles/pb_remote_client_nrf52832_xxAA_s132_5.0.0.dir/__/__/__/external/nRF5_SDK_14.0.0_3bcc1f7/components/toolchain/gcc/gcc_startup_nrf52.S.obj
 .bss           0x00000000        0x0 examples/pb_remote/client/CMakeFiles/pb_remote_client_nrf52832_xxAA_s132_5.0.0.dir/__/__/__/external/nRF5_SDK_14.0.0_3bcc1f7/components/toolchain/gcc/gcc_startup_nrf52.S.obj
 .text          0x00000000        0x0 mesh/core/libmesh_core_nrf52832_xxAA.a(nrf_mesh_configure.c.obj)
 .data          0x00000000        0x0 mesh/core/libmesh_core_nrf52832_xxAA.a(nrf_mesh_configure.c.obj)
 .bss           0x00000000        0x0 mesh/core/libmesh_core_nrf52832_xxAA.a(nrf_mesh_configure.c.obj)
 .text.nrf_mesh_configure_device_uuid_set
                0x00000000       0x10 mesh/core/libmesh_core_nrf52832_xxAA.a(nrf_mesh_configure.c.obj)
 .text          0x00000000        0x0 mesh/core/libmesh_core_nrf52832_xxAA.a(event.c.obj)
 .data          0x00000000        0x0 mesh/core/libmesh_core_nrf52832_xxAA.a(event.c.obj)
 .bss           0x00000000        0x0 mesh/core/libmesh_core_nrf52832_xxAA.a(event.c.obj)
 .text.event_handler_remove
                0x00000000       0x58 mesh/core/libmesh_core_nrf52832_xxAA.a(event.c.obj)
 .text          0x00000000        0x0 mesh/core/libmesh_core_nrf52832_xxAA.a(fifo.c.obj)
 .data          0x00000000        0x0 mesh/core/libmesh_core_nrf52832_xxAA.a(fifo.c.obj)
 .bss           0x00000000        0x0 mesh/core/libmesh_core_nrf52832_xxAA.a(fifo.c.obj)
 .text.fifo_peek_at
                0x00000000       0x50 mesh/core/libmesh_core_nrf52832_xxAA.a(fifo.c.obj)
 .text.fifo_peek
                0x00000000        0x6 mesh/core/libmesh_core_nrf52832_xxAA.a(fifo.c.obj)
 .text.fifo_flush
                0x00000000        0x6 mesh/core/libmesh_core_nrf52832_xxAA.a(fifo.c.obj)
 .text.fifo_get_len
                0x00000000        0x8 mesh/core/libmesh_core_nrf52832_xxAA.a(fifo.c.obj)
 .text.fifo_is_full
                0x00000000       0x10 mesh/core/libmesh_core_nrf52832_xxAA.a(fifo.c.obj)
 .text.fifo_is_empty
                0x00000000        0xc mesh/core/libmesh_core_nrf52832_xxAA.a(fifo.c.obj)
 .text          0x00000000        0x0 mesh/core/libmesh_core_nrf52832_xxAA.a(net_state.c.obj)
 .data          0x00000000        0x0 mesh/core/libmesh_core_nrf52832_xxAA.a(net_state.c.obj)
 .bss           0x00000000        0x0 mesh/core/libmesh_core_nrf52832_xxAA.a(net_state.c.obj)
 .text.net_state_reset
                0x00000000       0x3c mesh/core/libmesh_core_nrf52832_xxAA.a(net_state.c.obj)
 .text.net_state_iv_update_test_mode_set
                0x00000000        0xc mesh/core/libmesh_core_nrf52832_xxAA.a(net_state.c.obj)
 .data.mem_listener.9883
                0x00000000       0x10 mesh/core/libmesh_core_nrf52832_xxAA.a(net_state.c.obj)
 .text          0x00000000        0x0 mesh/core/libmesh_core_nrf52832_xxAA.a(nrf_mesh_utils.c.obj)
 .data          0x00000000        0x0 mesh/core/libmesh_core_nrf52832_xxAA.a(nrf_mesh_utils.c.obj)
 .bss           0x00000000        0x0 mesh/core/libmesh_core_nrf52832_xxAA.a(nrf_mesh_utils.c.obj)
 .text.nrf_mesh_rand_get
                0x00000000       0x10 mesh/core/libmesh_core_nrf52832_xxAA.a(nrf_mesh_utils.c.obj)
 .text.nrf_mesh_gap_address_type_get
                0x00000000       0x3c mesh/core/libmesh_core_nrf52832_xxAA.a(nrf_mesh_utils.c.obj)
 .text          0x00000000        0x0 mesh/core/libmesh_core_nrf52832_xxAA.a(nrf_mesh.c.obj)
 .data          0x00000000        0x0 mesh/core/libmesh_core_nrf52832_xxAA.a(nrf_mesh.c.obj)
 .bss           0x00000000        0x0 mesh/core/libmesh_core_nrf52832_xxAA.a(nrf_mesh.c.obj)
 .text.nrf_mesh_disable
                0x00000000       0x28 mesh/core/libmesh_core_nrf52832_xxAA.a(nrf_mesh.c.obj)
 .text.nrf_mesh_evt_handler_remove
                0x00000000        0x4 mesh/core/libmesh_core_nrf52832_xxAA.a(nrf_mesh.c.obj)
 .text.nrf_mesh_rx_cb_set
                0x00000000        0xc mesh/core/libmesh_core_nrf52832_xxAA.a(nrf_mesh.c.obj)
 .text.nrf_mesh_rx_cb_clear
                0x00000000        0xc mesh/core/libmesh_core_nrf52832_xxAA.a(nrf_mesh.c.obj)
 .text          0x00000000        0x0 mesh/core/libmesh_core_nrf52832_xxAA.a(hal.c.obj)
 .data          0x00000000        0x0 mesh/core/libmesh_core_nrf52832_xxAA.a(hal.c.obj)
 .bss           0x00000000        0x0 mesh/core/libmesh_core_nrf52832_xxAA.a(hal.c.obj)
 .text.sd_power_reset_reason_clr
                0x00000000        0x4 mesh/core/libmesh_core_nrf52832_xxAA.a(hal.c.obj)
 .text.sd_power_gpregret_set
                0x00000000        0x4 mesh/core/libmesh_core_nrf52832_xxAA.a(hal.c.obj)
 .text.hal_device_reset
                0x00000000       0x38 mesh/core/libmesh_core_nrf52832_xxAA.a(hal.c.obj)
 .text          0x00000000        0x0 mesh/core/libmesh_core_nrf52832_xxAA.a(timer_scheduler.c.obj)
 .data          0x00000000        0x0 mesh/core/libmesh_core_nrf52832_xxAA.a(timer_scheduler.c.obj)
 .bss           0x00000000        0x0 mesh/core/libmesh_core_nrf52832_xxAA.a(timer_scheduler.c.obj)
 .text          0x00000000        0x0 mesh/core/libmesh_core_nrf52832_xxAA.a(timer.c.obj)
 .data          0x00000000        0x0 mesh/core/libmesh_core_nrf52832_xxAA.a(timer.c.obj)
 .bss           0x00000000        0x0 mesh/core/libmesh_core_nrf52832_xxAA.a(timer.c.obj)
 .text.timer_order_cb_ppi
                0x00000000       0xc4 mesh/core/libmesh_core_nrf52832_xxAA.a(timer.c.obj)
 .text.timer_order_ppi
                0x00000000       0x84 mesh/core/libmesh_core_nrf52832_xxAA.a(timer.c.obj)
 .text.timer_abort
                0x00000000       0x78 mesh/core/libmesh_core_nrf52832_xxAA.a(timer.c.obj)
 .text          0x00000000        0x0 mesh/core/libmesh_core_nrf52832_xxAA.a(ticker.c.obj)
 .data          0x00000000        0x0 mesh/core/libmesh_core_nrf52832_xxAA.a(ticker.c.obj)
 .bss           0x00000000        0x0 mesh/core/libmesh_core_nrf52832_xxAA.a(ticker.c.obj)
 .text.ticker_get
                0x00000000        0xc mesh/core/libmesh_core_nrf52832_xxAA.a(ticker.c.obj)
 .text          0x00000000        0x0 mesh/core/libmesh_core_nrf52832_xxAA.a(rand.c.obj)
 .data          0x00000000        0x0 mesh/core/libmesh_core_nrf52832_xxAA.a(rand.c.obj)
 .bss           0x00000000        0x0 mesh/core/libmesh_core_nrf52832_xxAA.a(rand.c.obj)
 .text          0x00000000        0x0 mesh/core/libmesh_core_nrf52832_xxAA.a(timeslot.c.obj)
 .data          0x00000000        0x0 mesh/core/libmesh_core_nrf52832_xxAA.a(timeslot.c.obj)
 .bss           0x00000000        0x0 mesh/core/libmesh_core_nrf52832_xxAA.a(timeslot.c.obj)
 .text.timeslot_end_time_get
                0x00000000       0x10 mesh/core/libmesh_core_nrf52832_xxAA.a(timeslot.c.obj)
 .text.timeslot_is_in_ts
                0x00000000        0xc mesh/core/libmesh_core_nrf52832_xxAA.a(timeslot.c.obj)
 .text.timeslot_restart
                0x00000000       0x10 mesh/core/libmesh_core_nrf52832_xxAA.a(timeslot.c.obj)
 .text          0x00000000        0x0 mesh/core/libmesh_core_nrf52832_xxAA.a(bearer_event.c.obj)
 .data          0x00000000        0x0 mesh/core/libmesh_core_nrf52832_xxAA.a(bearer_event.c.obj)
 .bss           0x00000000        0x0 mesh/core/libmesh_core_nrf52832_xxAA.a(bearer_event.c.obj)
 .text.bearer_event_generic_post
                0x00000000       0x30 mesh/core/libmesh_core_nrf52832_xxAA.a(bearer_event.c.obj)
 .text.bearer_event_timer_sch_post
                0x00000000       0x34 mesh/core/libmesh_core_nrf52832_xxAA.a(bearer_event.c.obj)
 .text          0x00000000        0x0 mesh/core/libmesh_core_nrf52832_xxAA.a(enc.c.obj)
 .data          0x00000000        0x0 mesh/core/libmesh_core_nrf52832_xxAA.a(enc.c.obj)
 .bss           0x00000000        0x0 mesh/core/libmesh_core_nrf52832_xxAA.a(enc.c.obj)
 .text.enc_key_generate
                0x00000000        0x6 mesh/core/libmesh_core_nrf52832_xxAA.a(enc.c.obj)
 .text          0x00000000        0x0 mesh/core/libmesh_core_nrf52832_xxAA.a(network.c.obj)
 .data          0x00000000        0x0 mesh/core/libmesh_core_nrf52832_xxAA.a(network.c.obj)
 .bss           0x00000000        0x0 mesh/core/libmesh_core_nrf52832_xxAA.a(network.c.obj)
 .text.network_opt_set
                0x00000000       0x54 mesh/core/libmesh_core_nrf52832_xxAA.a(network.c.obj)
 .text.network_opt_get
                0x00000000       0x48 mesh/core/libmesh_core_nrf52832_xxAA.a(network.c.obj)
 .text.network_packet_discard
                0x00000000       0x3c mesh/core/libmesh_core_nrf52832_xxAA.a(network.c.obj)
 .text          0x00000000        0x0 mesh/core/libmesh_core_nrf52832_xxAA.a(nrf_mesh_keygen.c.obj)
 .data          0x00000000        0x0 mesh/core/libmesh_core_nrf52832_xxAA.a(nrf_mesh_keygen.c.obj)
 .bss           0x00000000        0x0 mesh/core/libmesh_core_nrf52832_xxAA.a(nrf_mesh_keygen.c.obj)
 .text.nrf_mesh_keygen_identitykey
                0x00000000       0x4c mesh/core/libmesh_core_nrf52832_xxAA.a(nrf_mesh_keygen.c.obj)
 .text          0x00000000        0x0 mesh/core/libmesh_core_nrf52832_xxAA.a(log.c.obj)
 .data          0x00000000        0x0 mesh/core/libmesh_core_nrf52832_xxAA.a(log.c.obj)
 .bss           0x00000000        0x0 mesh/core/libmesh_core_nrf52832_xxAA.a(log.c.obj)
 .text.log_callback_logview
                0x00000000       0x38 mesh/core/libmesh_core_nrf52832_xxAA.a(log.c.obj)
 .text.log_set_callback
                0x00000000        0xc mesh/core/libmesh_core_nrf52832_xxAA.a(log.c.obj)
 .rodata.log_callback_logview.str1.1
                0x00000000        0xf mesh/core/libmesh_core_nrf52832_xxAA.a(log.c.obj)
 .text          0x00000000        0x0 mesh/core/libmesh_core_nrf52832_xxAA.a(flash_manager.c.obj)
 .data          0x00000000        0x0 mesh/core/libmesh_core_nrf52832_xxAA.a(flash_manager.c.obj)
 .bss           0x00000000        0x0 mesh/core/libmesh_core_nrf52832_xxAA.a(flash_manager.c.obj)
 .text.flash_manager_remove
                0x00000000       0x24 mesh/core/libmesh_core_nrf52832_xxAA.a(flash_manager.c.obj)
 .text.flash_manager_entry_get
                0x00000000       0x48 mesh/core/libmesh_core_nrf52832_xxAA.a(flash_manager.c.obj)
 .text.flash_manager_entry_count_get
                0x00000000       0x5c mesh/core/libmesh_core_nrf52832_xxAA.a(flash_manager.c.obj)
 .text.flash_manager_entry_release
                0x00000000       0x12 mesh/core/libmesh_core_nrf52832_xxAA.a(flash_manager.c.obj)
 .text          0x00000000        0x0 mesh/core/libmesh_core_nrf52832_xxAA.a(ccm_soft.c.obj)
 .data          0x00000000        0x0 mesh/core/libmesh_core_nrf52832_xxAA.a(ccm_soft.c.obj)
 .bss           0x00000000        0x0 mesh/core/libmesh_core_nrf52832_xxAA.a(ccm_soft.c.obj)
 .text          0x00000000        0x0 mesh/core/libmesh_core_nrf52832_xxAA.a(beacon.c.obj)
 .data          0x00000000        0x0 mesh/core/libmesh_core_nrf52832_xxAA.a(beacon.c.obj)
 .bss           0x00000000        0x0 mesh/core/libmesh_core_nrf52832_xxAA.a(beacon.c.obj)
 .text          0x00000000        0x0 mesh/core/libmesh_core_nrf52832_xxAA.a(flash_manager_internal.c.obj)
 .data          0x00000000        0x0 mesh/core/libmesh_core_nrf52832_xxAA.a(flash_manager_internal.c.obj)
 .bss           0x00000000        0x0 mesh/core/libmesh_core_nrf52832_xxAA.a(flash_manager_internal.c.obj)
 .text          0x00000000        0x0 mesh/core/libmesh_core_nrf52832_xxAA.a(core_tx.c.obj)
 .data          0x00000000        0x0 mesh/core/libmesh_core_nrf52832_xxAA.a(core_tx.c.obj)
 .bss           0x00000000        0x0 mesh/core/libmesh_core_nrf52832_xxAA.a(core_tx.c.obj)
 .text.core_tx_adv_count_set
                0x00000000       0x38 mesh/core/libmesh_core_nrf52832_xxAA.a(core_tx.c.obj)
 .text.core_tx_adv_count_get
                0x00000000       0x28 mesh/core/libmesh_core_nrf52832_xxAA.a(core_tx.c.obj)
 .text.core_tx_adv_interval_set
                0x00000000       0x34 mesh/core/libmesh_core_nrf52832_xxAA.a(core_tx.c.obj)
 .text.core_tx_adv_interval_get
                0x00000000       0x34 mesh/core/libmesh_core_nrf52832_xxAA.a(core_tx.c.obj)
 .text.core_tx_adv_address_set
                0x00000000       0x34 mesh/core/libmesh_core_nrf52832_xxAA.a(core_tx.c.obj)
 .text          0x00000000        0x0 mesh/core/libmesh_core_nrf52832_xxAA.a(net_beacon.c.obj)
 .data          0x00000000        0x0 mesh/core/libmesh_core_nrf52832_xxAA.a(net_beacon.c.obj)
 .bss           0x00000000        0x0 mesh/core/libmesh_core_nrf52832_xxAA.a(net_beacon.c.obj)
 .text.net_beacon_state_set
                0x00000000       0x34 mesh/core/libmesh_core_nrf52832_xxAA.a(net_beacon.c.obj)
 .text.net_beacon_state_get
                0x00000000        0xc mesh/core/libmesh_core_nrf52832_xxAA.a(net_beacon.c.obj)
 .text          0x00000000        0x0 mesh/core/libmesh_core_nrf52832_xxAA.a(advertiser.c.obj)
 .data          0x00000000        0x0 mesh/core/libmesh_core_nrf52832_xxAA.a(advertiser.c.obj)
 .bss           0x00000000        0x0 mesh/core/libmesh_core_nrf52832_xxAA.a(advertiser.c.obj)
 .text.advertiser_disable
                0x00000000        0xa mesh/core/libmesh_core_nrf52832_xxAA.a(advertiser.c.obj)
 .text.advertiser_channels_set
                0x00000000       0x84 mesh/core/libmesh_core_nrf52832_xxAA.a(advertiser.c.obj)
 .text.advertiser_address_set
                0x00000000       0x50 mesh/core/libmesh_core_nrf52832_xxAA.a(advertiser.c.obj)
 .text.advertiser_config_set
                0x00000000       0x44 mesh/core/libmesh_core_nrf52832_xxAA.a(advertiser.c.obj)
 .text.advertiser_config_get
                0x00000000       0x2c mesh/core/libmesh_core_nrf52832_xxAA.a(advertiser.c.obj)
 .text          0x00000000        0x0 mesh/core/libmesh_core_nrf52832_xxAA.a(bearer_handler.c.obj)
 .data          0x00000000        0x0 mesh/core/libmesh_core_nrf52832_xxAA.a(bearer_handler.c.obj)
 .bss           0x00000000        0x0 mesh/core/libmesh_core_nrf52832_xxAA.a(bearer_handler.c.obj)
 .text.bearer_handler_stop
                0x00000000       0x20 mesh/core/libmesh_core_nrf52832_xxAA.a(bearer_handler.c.obj)
 .text.bearer_handler_action_fire
                0x00000000       0xb0 mesh/core/libmesh_core_nrf52832_xxAA.a(bearer_handler.c.obj)
 .text          0x00000000        0x0 mesh/core/libmesh_core_nrf52832_xxAA.a(broadcast.c.obj)
 .data          0x00000000        0x0 mesh/core/libmesh_core_nrf52832_xxAA.a(broadcast.c.obj)
 .bss           0x00000000        0x0 mesh/core/libmesh_core_nrf52832_xxAA.a(broadcast.c.obj)
 .text          0x00000000        0x0 mesh/core/libmesh_core_nrf52832_xxAA.a(radio_config.c.obj)
 .data          0x00000000        0x0 mesh/core/libmesh_core_nrf52832_xxAA.a(radio_config.c.obj)
 .bss           0x00000000        0x0 mesh/core/libmesh_core_nrf52832_xxAA.a(radio_config.c.obj)
 .text.radio_config_access_addr_get
                0x00000000       0x64 mesh/core/libmesh_core_nrf52832_xxAA.a(radio_config.c.obj)
 .text          0x00000000        0x0 mesh/core/libmesh_core_nrf52832_xxAA.a(scanner.c.obj)
 .data          0x00000000        0x0 mesh/core/libmesh_core_nrf52832_xxAA.a(scanner.c.obj)
 .bss           0x00000000        0x0 mesh/core/libmesh_core_nrf52832_xxAA.a(scanner.c.obj)
 .text.scanner_disable
                0x00000000       0x48 mesh/core/libmesh_core_nrf52832_xxAA.a(scanner.c.obj)
 .text.scanner_is_enabled
                0x00000000       0x10 mesh/core/libmesh_core_nrf52832_xxAA.a(scanner.c.obj)
 .text.scanner_stats_get
                0x00000000        0x8 mesh/core/libmesh_core_nrf52832_xxAA.a(scanner.c.obj)
 .text.scanner_config_radio_mode_set
                0x00000000       0x10 mesh/core/libmesh_core_nrf52832_xxAA.a(scanner.c.obj)
 .text          0x00000000        0x0 mesh/core/libmesh_core_nrf52832_xxAA.a(internal_event.c.obj)
 .data          0x00000000        0x0 mesh/core/libmesh_core_nrf52832_xxAA.a(internal_event.c.obj)
 .bss           0x00000000        0x0 mesh/core/libmesh_core_nrf52832_xxAA.a(internal_event.c.obj)
 .text.internal_event_init
                0x00000000       0x40 mesh/core/libmesh_core_nrf52832_xxAA.a(internal_event.c.obj)
 .text.internal_event_pop
                0x00000000       0x1c mesh/core/libmesh_core_nrf52832_xxAA.a(internal_event.c.obj)
 .bss.m_internal_event_fifo_buffer
                0x00000000      0x100 mesh/core/libmesh_core_nrf52832_xxAA.a(internal_event.c.obj)
 .text          0x00000000        0x0 mesh/core/libmesh_core_nrf52832_xxAA.a(aes.c.obj)
 .data          0x00000000        0x0 mesh/core/libmesh_core_nrf52832_xxAA.a(aes.c.obj)
 .bss           0x00000000        0x0 mesh/core/libmesh_core_nrf52832_xxAA.a(aes.c.obj)
 .text          0x00000000        0x0 mesh/core/libmesh_core_nrf52832_xxAA.a(msg_cache.c.obj)
 .data          0x00000000        0x0 mesh/core/libmesh_core_nrf52832_xxAA.a(msg_cache.c.obj)
 .bss           0x00000000        0x0 mesh/core/libmesh_core_nrf52832_xxAA.a(msg_cache.c.obj)
 .text.msg_cache_clear
                0x00000000       0x18 mesh/core/libmesh_core_nrf52832_xxAA.a(msg_cache.c.obj)
 .text          0x00000000        0x0 mesh/core/libmesh_core_nrf52832_xxAA.a(transport.c.obj)
 .data          0x00000000        0x0 mesh/core/libmesh_core_nrf52832_xxAA.a(transport.c.obj)
 .bss           0x00000000        0x0 mesh/core/libmesh_core_nrf52832_xxAA.a(transport.c.obj)
 .text.transport_sar_mem_funcs_set
                0x00000000       0x44 mesh/core/libmesh_core_nrf52832_xxAA.a(transport.c.obj)
 .text.transport_opt_set
                0x00000000       0xd0 mesh/core/libmesh_core_nrf52832_xxAA.a(transport.c.obj)
 .text.transport_opt_get
                0x00000000       0x68 mesh/core/libmesh_core_nrf52832_xxAA.a(transport.c.obj)
 .text          0x00000000        0x0 mesh/core/libmesh_core_nrf52832_xxAA.a(packet_buffer.c.obj)
 .data          0x00000000        0x0 mesh/core/libmesh_core_nrf52832_xxAA.a(packet_buffer.c.obj)
 .bss           0x00000000        0x0 mesh/core/libmesh_core_nrf52832_xxAA.a(packet_buffer.c.obj)
 .text.packet_buffer_max_packet_len_get
                0x00000000       0x34 mesh/core/libmesh_core_nrf52832_xxAA.a(packet_buffer.c.obj)
 .text          0x00000000        0x0 mesh/core/libmesh_core_nrf52832_xxAA.a(flash_manager_defrag.c.obj)
 .data          0x00000000        0x0 mesh/core/libmesh_core_nrf52832_xxAA.a(flash_manager_defrag.c.obj)
 .bss           0x00000000        0x0 mesh/core/libmesh_core_nrf52832_xxAA.a(flash_manager_defrag.c.obj)
 .text.flash_manager_defragging
                0x00000000       0x44 mesh/core/libmesh_core_nrf52832_xxAA.a(flash_manager_defrag.c.obj)
 .text          0x00000000        0x0 mesh/core/libmesh_core_nrf52832_xxAA.a(packet_mgr.c.obj)
 .data          0x00000000        0x0 mesh/core/libmesh_core_nrf52832_xxAA.a(packet_mgr.c.obj)
 .bss           0x00000000        0x0 mesh/core/libmesh_core_nrf52832_xxAA.a(packet_mgr.c.obj)
 .text.packet_mgr_alloc
                0x00000000      0x19c mesh/core/libmesh_core_nrf52832_xxAA.a(packet_mgr.c.obj)
 .text.packet_mgr_free
                0x00000000       0x6c mesh/core/libmesh_core_nrf52832_xxAA.a(packet_mgr.c.obj)
 .text.packet_mgr_get_free_space
                0x00000000       0x1c mesh/core/libmesh_core_nrf52832_xxAA.a(packet_mgr.c.obj)
 .text.packet_mgr_refcount_get
                0x00000000        0x6 mesh/core/libmesh_core_nrf52832_xxAA.a(packet_mgr.c.obj)
 .text.packet_mgr_size_get
                0x00000000        0x6 mesh/core/libmesh_core_nrf52832_xxAA.a(packet_mgr.c.obj)
 .text          0x00000000        0x0 mesh/core/libmesh_core_nrf52832_xxAA.a(mesh_flash.c.obj)
 .data          0x00000000        0x0 mesh/core/libmesh_core_nrf52832_xxAA.a(mesh_flash.c.obj)
 .bss           0x00000000        0x0 mesh/core/libmesh_core_nrf52832_xxAA.a(mesh_flash.c.obj)
 .text.mesh_flash_op_available_slots
                0x00000000       0x2c mesh/core/libmesh_core_nrf52832_xxAA.a(mesh_flash.c.obj)
 .text.mesh_flash_in_progress
                0x00000000       0x34 mesh/core/libmesh_core_nrf52832_xxAA.a(mesh_flash.c.obj)
 .text.mesh_flash_set_suspended
                0x00000000       0x80 mesh/core/libmesh_core_nrf52832_xxAA.a(mesh_flash.c.obj)
 .bss.suspend_count.10003
                0x00000000        0x4 mesh/core/libmesh_core_nrf52832_xxAA.a(mesh_flash.c.obj)
 .text          0x00000000        0x0 mesh/core/libmesh_core_nrf52832_xxAA.a(queue.c.obj)
 .data          0x00000000        0x0 mesh/core/libmesh_core_nrf52832_xxAA.a(queue.c.obj)
 .bss           0x00000000        0x0 mesh/core/libmesh_core_nrf52832_xxAA.a(queue.c.obj)
 .text          0x00000000        0x0 mesh/core/libmesh_core_nrf52832_xxAA.a(aes_cmac.c.obj)
 .data          0x00000000        0x0 mesh/core/libmesh_core_nrf52832_xxAA.a(aes_cmac.c.obj)
 .bss           0x00000000        0x0 mesh/core/libmesh_core_nrf52832_xxAA.a(aes_cmac.c.obj)
 .text          0x00000000        0x0 mesh/core/libmesh_core_nrf52832_xxAA.a(msqueue.c.obj)
 .data          0x00000000        0x0 mesh/core/libmesh_core_nrf52832_xxAA.a(msqueue.c.obj)
 .bss           0x00000000        0x0 mesh/core/libmesh_core_nrf52832_xxAA.a(msqueue.c.obj)
 .text          0x00000000        0x0 mesh/core/libmesh_core_nrf52832_xxAA.a(replay_cache.c.obj)
 .data          0x00000000        0x0 mesh/core/libmesh_core_nrf52832_xxAA.a(replay_cache.c.obj)
 .bss           0x00000000        0x0 mesh/core/libmesh_core_nrf52832_xxAA.a(replay_cache.c.obj)
 .text.replay_cache_on_iv_update
                0x00000000       0x24 mesh/core/libmesh_core_nrf52832_xxAA.a(replay_cache.c.obj)
 .text          0x00000000        0x0 mesh/core/libmesh_core_nrf52832_xxAA.a(filter_engine.c.obj)
 .data          0x00000000        0x0 mesh/core/libmesh_core_nrf52832_xxAA.a(filter_engine.c.obj)
 .bss           0x00000000        0x0 mesh/core/libmesh_core_nrf52832_xxAA.a(filter_engine.c.obj)
 .text.fen_filter_start
                0x00000000       0x68 mesh/core/libmesh_core_nrf52832_xxAA.a(filter_engine.c.obj)
 .text.fen_filter_stop
                0x00000000       0x5c mesh/core/libmesh_core_nrf52832_xxAA.a(filter_engine.c.obj)
 .text.fen_accepted_amount_get
                0x00000000        0xc mesh/core/libmesh_core_nrf52832_xxAA.a(filter_engine.c.obj)
 .text          0x00000000        0x0 mesh/core/libmesh_core_nrf52832_xxAA.a(nrf_flash.c.obj)
 .data          0x00000000        0x0 mesh/core/libmesh_core_nrf52832_xxAA.a(nrf_flash.c.obj)
 .bss           0x00000000        0x0 mesh/core/libmesh_core_nrf52832_xxAA.a(nrf_flash.c.obj)
 .text          0x00000000        0x0 external/rtt/librtt_nrf52832_xxAA.a(SEGGER_RTT.c.obj)
 .data          0x00000000        0x0 external/rtt/librtt_nrf52832_xxAA.a(SEGGER_RTT.c.obj)
 .bss           0x00000000        0x0 external/rtt/librtt_nrf52832_xxAA.a(SEGGER_RTT.c.obj)
 .text._PostTerminalSwitch.constprop.0
                0x00000000       0x28 external/rtt/librtt_nrf52832_xxAA.a(SEGGER_RTT.c.obj)
 .text.SEGGER_RTT_WriteSkipNoLock
                0x00000000       0xb4 external/rtt/librtt_nrf52832_xxAA.a(SEGGER_RTT.c.obj)
 .text.SEGGER_RTT_WriteString
                0x00000000       0x1a external/rtt/librtt_nrf52832_xxAA.a(SEGGER_RTT.c.obj)
 .text.SEGGER_RTT_WaitKey
                0x00000000        0xc external/rtt/librtt_nrf52832_xxAA.a(SEGGER_RTT.c.obj)
 .text.SEGGER_RTT_HasKey
                0x00000000       0x1c external/rtt/librtt_nrf52832_xxAA.a(SEGGER_RTT.c.obj)
 .text.SEGGER_RTT_HasData
                0x00000000       0x14 external/rtt/librtt_nrf52832_xxAA.a(SEGGER_RTT.c.obj)
 .text.SEGGER_RTT_AllocDownBuffer
                0x00000000       0x68 external/rtt/librtt_nrf52832_xxAA.a(SEGGER_RTT.c.obj)
 .text.SEGGER_RTT_AllocUpBuffer
                0x00000000       0x70 external/rtt/librtt_nrf52832_xxAA.a(SEGGER_RTT.c.obj)
 .text.SEGGER_RTT_ConfigUpBuffer
                0x00000000       0x68 external/rtt/librtt_nrf52832_xxAA.a(SEGGER_RTT.c.obj)
 .text.SEGGER_RTT_ConfigDownBuffer
                0x00000000       0x60 external/rtt/librtt_nrf52832_xxAA.a(SEGGER_RTT.c.obj)
 .text.SEGGER_RTT_SetNameUpBuffer
                0x00000000       0x3c external/rtt/librtt_nrf52832_xxAA.a(SEGGER_RTT.c.obj)
 .text.SEGGER_RTT_SetNameDownBuffer
                0x00000000       0x3c external/rtt/librtt_nrf52832_xxAA.a(SEGGER_RTT.c.obj)
 .text.SEGGER_RTT_Init
                0x00000000       0x10 external/rtt/librtt_nrf52832_xxAA.a(SEGGER_RTT.c.obj)
 .text.SEGGER_RTT_SetTerminal
                0x00000000       0x84 external/rtt/librtt_nrf52832_xxAA.a(SEGGER_RTT.c.obj)
 .text.SEGGER_RTT_TerminalOut
                0x00000000       0xa0 external/rtt/librtt_nrf52832_xxAA.a(SEGGER_RTT.c.obj)
 .bss._ActiveTerminal
                0x00000000        0x1 external/rtt/librtt_nrf52832_xxAA.a(SEGGER_RTT.c.obj)
 .rodata._aTerminalId
                0x00000000       0x10 external/rtt/librtt_nrf52832_xxAA.a(SEGGER_RTT.c.obj)
 .text          0x00000000        0x0 external/rtt/librtt_nrf52832_xxAA.a(SEGGER_RTT_printf.c.obj)
 .data          0x00000000        0x0 external/rtt/librtt_nrf52832_xxAA.a(SEGGER_RTT_printf.c.obj)
 .bss           0x00000000        0x0 external/rtt/librtt_nrf52832_xxAA.a(SEGGER_RTT_printf.c.obj)
 .text          0x00000000        0x0 external/micro-ecc/libuECC_nrf52832_xxAA.a(uECC.c.obj)
 .data          0x00000000        0x0 external/micro-ecc/libuECC_nrf52832_xxAA.a(uECC.c.obj)
 .bss           0x00000000        0x0 external/micro-ecc/libuECC_nrf52832_xxAA.a(uECC.c.obj)
 .text.uECC_vli_modMult
                0x00000000      0x148 external/micro-ecc/libuECC_nrf52832_xxAA.a(uECC.c.obj)
 .text.HMAC_init
                0x00000000       0x46 external/micro-ecc/libuECC_nrf52832_xxAA.a(uECC.c.obj)
 .text.HMAC_update
                0x00000000        0x4 external/micro-ecc/libuECC_nrf52832_xxAA.a(uECC.c.obj)
 .text.HMAC_finish
                0x00000000       0x62 external/micro-ecc/libuECC_nrf52832_xxAA.a(uECC.c.obj)
 .text.update_V
                0x00000000       0x24 external/micro-ecc/libuECC_nrf52832_xxAA.a(uECC.c.obj)
 .text.bits2int
                0x00000000       0x88 external/micro-ecc/libuECC_nrf52832_xxAA.a(uECC.c.obj)
 .text.uECC_sign_with_k
                0x00000000      0x17c external/micro-ecc/libuECC_nrf52832_xxAA.a(uECC.c.obj)
 .text.uECC_set_rng
                0x00000000        0xc external/micro-ecc/libuECC_nrf52832_xxAA.a(uECC.c.obj)
 .text.uECC_get_rng
                0x00000000        0xc external/micro-ecc/libuECC_nrf52832_xxAA.a(uECC.c.obj)
 .text.uECC_curve_private_key_size
                0x00000000        0xe external/micro-ecc/libuECC_nrf52832_xxAA.a(uECC.c.obj)
 .text.uECC_curve_public_key_size
                0x00000000        0x8 external/micro-ecc/libuECC_nrf52832_xxAA.a(uECC.c.obj)
 .text.uECC_compute_public_key
                0x00000000       0x7e external/micro-ecc/libuECC_nrf52832_xxAA.a(uECC.c.obj)
 .text.uECC_sign
                0x00000000       0x56 external/micro-ecc/libuECC_nrf52832_xxAA.a(uECC.c.obj)
 .text.uECC_sign_deterministic
                0x00000000      0x192 external/micro-ecc/libuECC_nrf52832_xxAA.a(uECC.c.obj)
 .text.uECC_verify
                0x00000000      0x2f0 external/micro-ecc/libuECC_nrf52832_xxAA.a(uECC.c.obj)
 .text          0x00000000        0x0 c:/a/gcc_arm/6/bin/../lib/gcc/arm-none-eabi/6.3.1/../../../../arm-none-eabi/lib/thumb/v7e-m/fpv4-sp/hard\libc_nano.a(lib_a-exit.o)
 .data          0x00000000        0x0 c:/a/gcc_arm/6/bin/../lib/gcc/arm-none-eabi/6.3.1/../../../../arm-none-eabi/lib/thumb/v7e-m/fpv4-sp/hard\libc_nano.a(lib_a-exit.o)
 .bss           0x00000000        0x0 c:/a/gcc_arm/6/bin/../lib/gcc/arm-none-eabi/6.3.1/../../../../arm-none-eabi/lib/thumb/v7e-m/fpv4-sp/hard\libc_nano.a(lib_a-exit.o)
 .text          0x00000000        0x0 c:/a/gcc_arm/6/bin/../lib/gcc/arm-none-eabi/6.3.1/../../../../arm-none-eabi/lib/thumb/v7e-m/fpv4-sp/hard\libc_nano.a(lib_a-impure.o)
 .data          0x00000000        0x0 c:/a/gcc_arm/6/bin/../lib/gcc/arm-none-eabi/6.3.1/../../../../arm-none-eabi/lib/thumb/v7e-m/fpv4-sp/hard\libc_nano.a(lib_a-impure.o)
 .bss           0x00000000        0x0 c:/a/gcc_arm/6/bin/../lib/gcc/arm-none-eabi/6.3.1/../../../../arm-none-eabi/lib/thumb/v7e-m/fpv4-sp/hard\libc_nano.a(lib_a-impure.o)
 .text          0x00000000        0x0 c:/a/gcc_arm/6/bin/../lib/gcc/arm-none-eabi/6.3.1/../../../../arm-none-eabi/lib/thumb/v7e-m/fpv4-sp/hard\libc_nano.a(lib_a-init.o)
 .data          0x00000000        0x0 c:/a/gcc_arm/6/bin/../lib/gcc/arm-none-eabi/6.3.1/../../../../arm-none-eabi/lib/thumb/v7e-m/fpv4-sp/hard\libc_nano.a(lib_a-init.o)
 .bss           0x00000000        0x0 c:/a/gcc_arm/6/bin/../lib/gcc/arm-none-eabi/6.3.1/../../../../arm-none-eabi/lib/thumb/v7e-m/fpv4-sp/hard\libc_nano.a(lib_a-init.o)
 .text          0x00000000        0x0 c:/a/gcc_arm/6/bin/../lib/gcc/arm-none-eabi/6.3.1/../../../../arm-none-eabi/lib/thumb/v7e-m/fpv4-sp/hard\libc_nano.a(lib_a-malloc.o)
 .data          0x00000000        0x0 c:/a/gcc_arm/6/bin/../lib/gcc/arm-none-eabi/6.3.1/../../../../arm-none-eabi/lib/thumb/v7e-m/fpv4-sp/hard\libc_nano.a(lib_a-malloc.o)
 .bss           0x00000000        0x0 c:/a/gcc_arm/6/bin/../lib/gcc/arm-none-eabi/6.3.1/../../../../arm-none-eabi/lib/thumb/v7e-m/fpv4-sp/hard\libc_nano.a(lib_a-malloc.o)
 .text          0x00000000        0x0 c:/a/gcc_arm/6/bin/../lib/gcc/arm-none-eabi/6.3.1/../../../../arm-none-eabi/lib/thumb/v7e-m/fpv4-sp/hard\libc_nano.a(lib_a-memcmp.o)
 .data          0x00000000        0x0 c:/a/gcc_arm/6/bin/../lib/gcc/arm-none-eabi/6.3.1/../../../../arm-none-eabi/lib/thumb/v7e-m/fpv4-sp/hard\libc_nano.a(lib_a-memcmp.o)
 .bss           0x00000000        0x0 c:/a/gcc_arm/6/bin/../lib/gcc/arm-none-eabi/6.3.1/../../../../arm-none-eabi/lib/thumb/v7e-m/fpv4-sp/hard\libc_nano.a(lib_a-memcmp.o)
 .text          0x00000000        0x0 c:/a/gcc_arm/6/bin/../lib/gcc/arm-none-eabi/6.3.1/../../../../arm-none-eabi/lib/thumb/v7e-m/fpv4-sp/hard\libc_nano.a(lib_a-memcpy-stub.o)
 .data          0x00000000        0x0 c:/a/gcc_arm/6/bin/../lib/gcc/arm-none-eabi/6.3.1/../../../../arm-none-eabi/lib/thumb/v7e-m/fpv4-sp/hard\libc_nano.a(lib_a-memcpy-stub.o)
 .bss           0x00000000        0x0 c:/a/gcc_arm/6/bin/../lib/gcc/arm-none-eabi/6.3.1/../../../../arm-none-eabi/lib/thumb/v7e-m/fpv4-sp/hard\libc_nano.a(lib_a-memcpy-stub.o)
 .text          0x00000000        0x0 c:/a/gcc_arm/6/bin/../lib/gcc/arm-none-eabi/6.3.1/../../../../arm-none-eabi/lib/thumb/v7e-m/fpv4-sp/hard\libc_nano.a(lib_a-memset.o)
 .data          0x00000000        0x0 c:/a/gcc_arm/6/bin/../lib/gcc/arm-none-eabi/6.3.1/../../../../arm-none-eabi/lib/thumb/v7e-m/fpv4-sp/hard\libc_nano.a(lib_a-memset.o)
 .bss           0x00000000        0x0 c:/a/gcc_arm/6/bin/../lib/gcc/arm-none-eabi/6.3.1/../../../../arm-none-eabi/lib/thumb/v7e-m/fpv4-sp/hard\libc_nano.a(lib_a-memset.o)
 .text          0x00000000        0x0 c:/a/gcc_arm/6/bin/../lib/gcc/arm-none-eabi/6.3.1/../../../../arm-none-eabi/lib/thumb/v7e-m/fpv4-sp/hard\libc_nano.a(lib_a-nano-freer.o)
 .data          0x00000000        0x0 c:/a/gcc_arm/6/bin/../lib/gcc/arm-none-eabi/6.3.1/../../../../arm-none-eabi/lib/thumb/v7e-m/fpv4-sp/hard\libc_nano.a(lib_a-nano-freer.o)
 .bss           0x00000000        0x0 c:/a/gcc_arm/6/bin/../lib/gcc/arm-none-eabi/6.3.1/../../../../arm-none-eabi/lib/thumb/v7e-m/fpv4-sp/hard\libc_nano.a(lib_a-nano-freer.o)
 .text          0x00000000        0x0 c:/a/gcc_arm/6/bin/../lib/gcc/arm-none-eabi/6.3.1/../../../../arm-none-eabi/lib/thumb/v7e-m/fpv4-sp/hard\libc_nano.a(lib_a-nano-mallocr.o)
 .data          0x00000000        0x0 c:/a/gcc_arm/6/bin/../lib/gcc/arm-none-eabi/6.3.1/../../../../arm-none-eabi/lib/thumb/v7e-m/fpv4-sp/hard\libc_nano.a(lib_a-nano-mallocr.o)
 .bss           0x00000000        0x0 c:/a/gcc_arm/6/bin/../lib/gcc/arm-none-eabi/6.3.1/../../../../arm-none-eabi/lib/thumb/v7e-m/fpv4-sp/hard\libc_nano.a(lib_a-nano-mallocr.o)
 .text          0x00000000        0x0 c:/a/gcc_arm/6/bin/../lib/gcc/arm-none-eabi/6.3.1/../../../../arm-none-eabi/lib/thumb/v7e-m/fpv4-sp/hard\libc_nano.a(lib_a-sbrkr.o)
 .data          0x00000000        0x0 c:/a/gcc_arm/6/bin/../lib/gcc/arm-none-eabi/6.3.1/../../../../arm-none-eabi/lib/thumb/v7e-m/fpv4-sp/hard\libc_nano.a(lib_a-sbrkr.o)
 .bss           0x00000000        0x0 c:/a/gcc_arm/6/bin/../lib/gcc/arm-none-eabi/6.3.1/../../../../arm-none-eabi/lib/thumb/v7e-m/fpv4-sp/hard\libc_nano.a(lib_a-sbrkr.o)
 .text          0x00000000        0x0 c:/a/gcc_arm/6/bin/../lib/gcc/arm-none-eabi/6.3.1/../../../../arm-none-eabi/lib/thumb/v7e-m/fpv4-sp/hard\libc_nano.a(lib_a-strcpy.o)
 .data          0x00000000        0x0 c:/a/gcc_arm/6/bin/../lib/gcc/arm-none-eabi/6.3.1/../../../../arm-none-eabi/lib/thumb/v7e-m/fpv4-sp/hard\libc_nano.a(lib_a-strcpy.o)
 .bss           0x00000000        0x0 c:/a/gcc_arm/6/bin/../lib/gcc/arm-none-eabi/6.3.1/../../../../arm-none-eabi/lib/thumb/v7e-m/fpv4-sp/hard\libc_nano.a(lib_a-strcpy.o)
 .data          0x00000000        0x0 c:/a/gcc_arm/6/bin/../lib/gcc/arm-none-eabi/6.3.1/../../../../arm-none-eabi/lib/thumb/v7e-m/fpv4-sp/hard\libc_nano.a(lib_a-strlen.o)
 .bss           0x00000000        0x0 c:/a/gcc_arm/6/bin/../lib/gcc/arm-none-eabi/6.3.1/../../../../arm-none-eabi/lib/thumb/v7e-m/fpv4-sp/hard\libc_nano.a(lib_a-strlen.o)
 .text          0x00000000        0x0 c:/a/gcc_arm/6/bin/../lib/gcc/arm-none-eabi/6.3.1/../../../../arm-none-eabi/lib/thumb/v7e-m/fpv4-sp/hard\libc_nano.a(lib_a-strrchr.o)
 .data          0x00000000        0x0 c:/a/gcc_arm/6/bin/../lib/gcc/arm-none-eabi/6.3.1/../../../../arm-none-eabi/lib/thumb/v7e-m/fpv4-sp/hard\libc_nano.a(lib_a-strrchr.o)
 .bss           0x00000000        0x0 c:/a/gcc_arm/6/bin/../lib/gcc/arm-none-eabi/6.3.1/../../../../arm-none-eabi/lib/thumb/v7e-m/fpv4-sp/hard\libc_nano.a(lib_a-strrchr.o)
 .text          0x00000000        0x0 c:/a/gcc_arm/6/bin/../lib/gcc/arm-none-eabi/6.3.1/../../../../arm-none-eabi/lib/thumb/v7e-m/fpv4-sp/hard\libc_nano.a(lib_a-mlock.o)
 .data          0x00000000        0x0 c:/a/gcc_arm/6/bin/../lib/gcc/arm-none-eabi/6.3.1/../../../../arm-none-eabi/lib/thumb/v7e-m/fpv4-sp/hard\libc_nano.a(lib_a-mlock.o)
 .bss           0x00000000        0x0 c:/a/gcc_arm/6/bin/../lib/gcc/arm-none-eabi/6.3.1/../../../../arm-none-eabi/lib/thumb/v7e-m/fpv4-sp/hard\libc_nano.a(lib_a-mlock.o)
 .text          0x00000000        0x0 c:/a/gcc_arm/6/bin/../lib/gcc/arm-none-eabi/6.3.1/../../../../arm-none-eabi/lib/thumb/v7e-m/fpv4-sp/hard\libc_nano.a(lib_a-reent.o)
 .data          0x00000000        0x0 c:/a/gcc_arm/6/bin/../lib/gcc/arm-none-eabi/6.3.1/../../../../arm-none-eabi/lib/thumb/v7e-m/fpv4-sp/hard\libc_nano.a(lib_a-reent.o)
 .bss           0x00000000        0x0 c:/a/gcc_arm/6/bin/../lib/gcc/arm-none-eabi/6.3.1/../../../../arm-none-eabi/lib/thumb/v7e-m/fpv4-sp/hard\libc_nano.a(lib_a-reent.o)
 .text.cleanup_glue
                0x00000000       0x1a c:/a/gcc_arm/6/bin/../lib/gcc/arm-none-eabi/6.3.1/../../../../arm-none-eabi/lib/thumb/v7e-m/fpv4-sp/hard\libc_nano.a(lib_a-reent.o)
 .text._reclaim_reent
                0x00000000       0xb8 c:/a/gcc_arm/6/bin/../lib/gcc/arm-none-eabi/6.3.1/../../../../arm-none-eabi/lib/thumb/v7e-m/fpv4-sp/hard\libc_nano.a(lib_a-reent.o)
 .text          0x00000000        0x0 c:/a/gcc_arm/6/bin/../lib/gcc/arm-none-eabi/6.3.1/../../../../arm-none-eabi/lib/thumb/v7e-m/fpv4-sp/hard\libc_nano.a(lib_a-strchr.o)
 .data          0x00000000        0x0 c:/a/gcc_arm/6/bin/../lib/gcc/arm-none-eabi/6.3.1/../../../../arm-none-eabi/lib/thumb/v7e-m/fpv4-sp/hard\libc_nano.a(lib_a-strchr.o)
 .bss           0x00000000        0x0 c:/a/gcc_arm/6/bin/../lib/gcc/arm-none-eabi/6.3.1/../../../../arm-none-eabi/lib/thumb/v7e-m/fpv4-sp/hard\libc_nano.a(lib_a-strchr.o)
 .text          0x00000000        0x0 c:/a/gcc_arm/6/bin/../lib/gcc/arm-none-eabi/6.3.1/thumb/v7e-m/fpv4-sp/hard/crtend.o
 .data          0x00000000        0x0 c:/a/gcc_arm/6/bin/../lib/gcc/arm-none-eabi/6.3.1/thumb/v7e-m/fpv4-sp/hard/crtend.o
 .bss           0x00000000        0x0 c:/a/gcc_arm/6/bin/../lib/gcc/arm-none-eabi/6.3.1/thumb/v7e-m/fpv4-sp/hard/crtend.o
 .text          0x00000000        0x0 c:/a/gcc_arm/6/bin/../lib/gcc/arm-none-eabi/6.3.1/thumb/v7e-m/fpv4-sp/hard/crtn.o
 .data          0x00000000        0x0 c:/a/gcc_arm/6/bin/../lib/gcc/arm-none-eabi/6.3.1/thumb/v7e-m/fpv4-sp/hard/crtn.o
 .bss           0x00000000        0x0 c:/a/gcc_arm/6/bin/../lib/gcc/arm-none-eabi/6.3.1/thumb/v7e-m/fpv4-sp/hard/crtn.o
 .text          0x00000000        0x0 c:/a/gcc_arm/6/bin/../lib/gcc/arm-none-eabi/6.3.1/../../../../arm-none-eabi/lib/thumb/v7e-m/fpv4-sp/hard\libnosys.a(sbrk.o)
 .data          0x00000000        0x0 c:/a/gcc_arm/6/bin/../lib/gcc/arm-none-eabi/6.3.1/../../../../arm-none-eabi/lib/thumb/v7e-m/fpv4-sp/hard\libnosys.a(sbrk.o)
 .bss           0x00000000        0x0 c:/a/gcc_arm/6/bin/../lib/gcc/arm-none-eabi/6.3.1/../../../../arm-none-eabi/lib/thumb/v7e-m/fpv4-sp/hard\libnosys.a(sbrk.o)
 .text          0x00000000        0x0 c:/a/gcc_arm/6/bin/../lib/gcc/arm-none-eabi/6.3.1/../../../../arm-none-eabi/lib/thumb/v7e-m/fpv4-sp/hard\libnosys.a(_exit.o)
 .data          0x00000000        0x0 c:/a/gcc_arm/6/bin/../lib/gcc/arm-none-eabi/6.3.1/../../../../arm-none-eabi/lib/thumb/v7e-m/fpv4-sp/hard\libnosys.a(_exit.o)
 .bss           0x00000000        0x0 c:/a/gcc_arm/6/bin/../lib/gcc/arm-none-eabi/6.3.1/../../../../arm-none-eabi/lib/thumb/v7e-m/fpv4-sp/hard\libnosys.a(_exit.o)

Memory Configuration

Name             Origin             Length             Attributes
FLASH            0x00023000         0x0005d000         xr
RAM              0x200031b0         0x0000ce50         xrw
*default*        0x00000000         0xffffffff

Linker script and memory map

LOAD c:/a/gcc_arm/6/bin/../lib/gcc/arm-none-eabi/6.3.1/thumb/v7e-m/fpv4-sp/hard/crti.o
LOAD c:/a/gcc_arm/6/bin/../lib/gcc/arm-none-eabi/6.3.1/thumb/v7e-m/fpv4-sp/hard/crtbegin.o
LOAD c:/a/gcc_arm/6/bin/../lib/gcc/arm-none-eabi/6.3.1/../../../../arm-none-eabi/lib/thumb/v7e-m/fpv4-sp/hard/crt0.o
LOAD examples/pb_remote/client/CMakeFiles/pb_remote_client_nrf52832_xxAA_s132_5.0.0.dir/src/main.c.obj
LOAD examples/pb_remote/client/CMakeFiles/pb_remote_client_nrf52832_xxAA_s132_5.0.0.dir/__/__/nrf_mesh_sdk.c.obj
LOAD examples/pb_remote/client/CMakeFiles/pb_remote_client_nrf52832_xxAA_s132_5.0.0.dir/__/__/__/models/pb_remote/src/pb_remote_client.c.obj
LOAD examples/pb_remote/client/CMakeFiles/pb_remote_client_nrf52832_xxAA_s132_5.0.0.dir/__/__/__/mesh/prov/src/prov_provisioner.c.obj
LOAD examples/pb_remote/client/CMakeFiles/pb_remote_client_nrf52832_xxAA_s132_5.0.0.dir/__/__/__/mesh/prov/src/nrf_mesh_prov.c.obj
LOAD examples/pb_remote/client/CMakeFiles/pb_remote_client_nrf52832_xxAA_s132_5.0.0.dir/__/__/__/mesh/prov/src/provisioning.c.obj
LOAD examples/pb_remote/client/CMakeFiles/pb_remote_client_nrf52832_xxAA_s132_5.0.0.dir/__/__/__/mesh/prov/src/prov_beacon.c.obj
LOAD examples/pb_remote/client/CMakeFiles/pb_remote_client_nrf52832_xxAA_s132_5.0.0.dir/__/__/__/mesh/prov/src/prov_utils.c.obj
LOAD examples/pb_remote/client/CMakeFiles/pb_remote_client_nrf52832_xxAA_s132_5.0.0.dir/__/__/__/mesh/prov/src/prov_bearer_adv.c.obj
LOAD examples/pb_remote/client/CMakeFiles/pb_remote_client_nrf52832_xxAA_s132_5.0.0.dir/__/__/__/mesh/access/src/access_publish.c.obj
LOAD examples/pb_remote/client/CMakeFiles/pb_remote_client_nrf52832_xxAA_s132_5.0.0.dir/__/__/__/mesh/access/src/access.c.obj
LOAD examples/pb_remote/client/CMakeFiles/pb_remote_client_nrf52832_xxAA_s132_5.0.0.dir/__/__/__/mesh/access/src/access_reliable.c.obj
LOAD examples/pb_remote/client/CMakeFiles/pb_remote_client_nrf52832_xxAA_s132_5.0.0.dir/__/__/__/mesh/access/src/device_state_manager.c.obj
LOAD examples/pb_remote/client/CMakeFiles/pb_remote_client_nrf52832_xxAA_s132_5.0.0.dir/__/__/nrf_mesh_weak.c.obj
LOAD examples/pb_remote/client/CMakeFiles/pb_remote_client_nrf52832_xxAA_s132_5.0.0.dir/__/__/__/external/nRF5_SDK_14.0.0_3bcc1f7/components/toolchain/system_nrf52.c.obj
LOAD examples/pb_remote/client/CMakeFiles/pb_remote_client_nrf52832_xxAA_s132_5.0.0.dir/__/__/__/external/nRF5_SDK_14.0.0_3bcc1f7/components/toolchain/gcc/gcc_startup_nrf52.S.obj
LOAD mesh/core/libmesh_core_nrf52832_xxAA.a
LOAD external/rtt/librtt_nrf52832_xxAA.a
LOAD external/micro-ecc/libuECC_nrf52832_xxAA.a
START GROUP
LOAD c:/a/gcc_arm/6/bin/../lib/gcc/arm-none-eabi/6.3.1/thumb/v7e-m/fpv4-sp/hard\libgcc.a
LOAD c:/a/gcc_arm/6/bin/../lib/gcc/arm-none-eabi/6.3.1/../../../../arm-none-eabi/lib/thumb/v7e-m/fpv4-sp/hard\libc_nano.a
END GROUP
START GROUP
LOAD c:/a/gcc_arm/6/bin/../lib/gcc/arm-none-eabi/6.3.1/thumb/v7e-m/fpv4-sp/hard\libgcc.a
LOAD c:/a/gcc_arm/6/bin/../lib/gcc/arm-none-eabi/6.3.1/../../../../arm-none-eabi/lib/thumb/v7e-m/fpv4-sp/hard\libc_nano.a
END GROUP
LOAD c:/a/gcc_arm/6/bin/../lib/gcc/arm-none-eabi/6.3.1/thumb/v7e-m/fpv4-sp/hard/crtend.o
LOAD c:/a/gcc_arm/6/bin/../lib/gcc/arm-none-eabi/6.3.1/thumb/v7e-m/fpv4-sp/hard/crtn.o
START GROUP
LOAD c:/a/gcc_arm/6/bin/../lib/gcc/arm-none-eabi/6.3.1/thumb/v7e-m/fpv4-sp/hard\libgcc.a
LOAD c:/a/gcc_arm/6/bin/../lib/gcc/arm-none-eabi/6.3.1/../../../../arm-none-eabi/lib/thumb/v7e-m/fpv4-sp/hard\libc.a
LOAD c:/a/gcc_arm/6/bin/../lib/gcc/arm-none-eabi/6.3.1/../../../../arm-none-eabi/lib/thumb/v7e-m/fpv4-sp/hard\libnosys.a
END GROUP

.text           0x00023000    0x10790
 *(.isr_vector)
 .isr_vector    0x00023000      0x200 examples/pb_remote/client/CMakeFiles/pb_remote_client_nrf52832_xxAA_s132_5.0.0.dir/__/__/__/external/nRF5_SDK_14.0.0_3bcc1f7/components/toolchain/gcc/gcc_startup_nrf52.S.obj
                0x00023000                __isr_vector
 *(.text*)
 .text          0x00023200       0x6c c:/a/gcc_arm/6/bin/../lib/gcc/arm-none-eabi/6.3.1/thumb/v7e-m/fpv4-sp/hard/crtbegin.o
 .text          0x0002326c       0x74 c:/a/gcc_arm/6/bin/../lib/gcc/arm-none-eabi/6.3.1/../../../../arm-none-eabi/lib/thumb/v7e-m/fpv4-sp/hard/crt0.o
                0x0002326c                _start
                0x0002326c                _mainCRTStartup
 .text.mesh_evt_handler
                0x000232e0      0x400 examples/pb_remote/client/CMakeFiles/pb_remote_client_nrf52832_xxAA_s132_5.0.0.dir/src/main.c.obj
 .text.remote_client_event_cb
                0x000236e0      0x1fc examples/pb_remote/client/CMakeFiles/pb_remote_client_nrf52832_xxAA_s132_5.0.0.dir/src/main.c.obj
 .text.wait_for_valid_char
                0x000238dc       0x16 examples/pb_remote/client/CMakeFiles/pb_remote_client_nrf52832_xxAA_s132_5.0.0.dir/src/main.c.obj
 *fill*         0x000238f2        0x2 
 .text.startup.main
                0x000238f4      0x58c examples/pb_remote/client/CMakeFiles/pb_remote_client_nrf52832_xxAA_s132_5.0.0.dir/src/main.c.obj
                0x000238f4                main
 .text.sd_evt_get
                0x00023e80        0x4 examples/pb_remote/client/CMakeFiles/pb_remote_client_nrf52832_xxAA_s132_5.0.0.dir/__/__/nrf_mesh_sdk.c.obj
 .text.sd_softdevice_enable
                0x00023e84        0x4 examples/pb_remote/client/CMakeFiles/pb_remote_client_nrf52832_xxAA_s132_5.0.0.dir/__/__/nrf_mesh_sdk.c.obj
 .text.sd_ble_enable
                0x00023e88        0x4 examples/pb_remote/client/CMakeFiles/pb_remote_client_nrf52832_xxAA_s132_5.0.0.dir/__/__/nrf_mesh_sdk.c.obj
 .text.sd_ble_evt_get
                0x00023e8c        0x4 examples/pb_remote/client/CMakeFiles/pb_remote_client_nrf52832_xxAA_s132_5.0.0.dir/__/__/nrf_mesh_sdk.c.obj
 .text.sleep_forever
                0x00023e90       0x1c examples/pb_remote/client/CMakeFiles/pb_remote_client_nrf52832_xxAA_s132_5.0.0.dir/__/__/nrf_mesh_sdk.c.obj
 .text.mesh_assert_handler
                0x00023eac       0x64 examples/pb_remote/client/CMakeFiles/pb_remote_client_nrf52832_xxAA_s132_5.0.0.dir/__/__/nrf_mesh_sdk.c.obj
                0x00023eac                mesh_assert_handler
 .text.softdevice_assert_handler
                0x00023f10       0x74 examples/pb_remote/client/CMakeFiles/pb_remote_client_nrf52832_xxAA_s132_5.0.0.dir/__/__/nrf_mesh_sdk.c.obj
                0x00023f10                softdevice_assert_handler
 .text.app_error_handler
                0x00023f84       0x74 examples/pb_remote/client/CMakeFiles/pb_remote_client_nrf52832_xxAA_s132_5.0.0.dir/__/__/nrf_mesh_sdk.c.obj
                0x00023f84                app_error_handler
 .text.HardFault_Handler
                0x00023ff8       0x60 examples/pb_remote/client/CMakeFiles/pb_remote_client_nrf52832_xxAA_s132_5.0.0.dir/__/__/nrf_mesh_sdk.c.obj
                0x00023ff8                HardFault_Handler
 .text.SWI2_EGU2_IRQHandler
                0x00024058       0x3c examples/pb_remote/client/CMakeFiles/pb_remote_client_nrf52832_xxAA_s132_5.0.0.dir/__/__/nrf_mesh_sdk.c.obj
                0x00024058                SWI2_EGU2_IRQHandler
 .text.mesh_softdevice_enable
                0x00024094      0x124 examples/pb_remote/client/CMakeFiles/pb_remote_client_nrf52832_xxAA_s132_5.0.0.dir/__/__/nrf_mesh_sdk.c.obj
                0x00024094                mesh_softdevice_enable
 .text.mesh_softdevice_setup
                0x000241b8       0x78 examples/pb_remote/client/CMakeFiles/pb_remote_client_nrf52832_xxAA_s132_5.0.0.dir/__/__/nrf_mesh_sdk.c.obj
                0x000241b8                mesh_softdevice_setup
 .text.mesh_core_setup
                0x00024230      0x150 examples/pb_remote/client/CMakeFiles/pb_remote_client_nrf52832_xxAA_s132_5.0.0.dir/__/__/nrf_mesh_sdk.c.obj
                0x00024230                mesh_core_setup
 .text.pb_if_link_open_cb
                0x00024380        0x4 examples/pb_remote/client/CMakeFiles/pb_remote_client_nrf52832_xxAA_s132_5.0.0.dir/__/__/__/models/pb_remote/src/pb_remote_client.c.obj
 .text.pb_if_listen_start_cb
                0x00024384        0x4 examples/pb_remote/client/CMakeFiles/pb_remote_client_nrf52832_xxAA_s132_5.0.0.dir/__/__/__/models/pb_remote/src/pb_remote_client.c.obj
 .text.pb_if_listen_stop_cb
                0x00024388        0x4 examples/pb_remote/client/CMakeFiles/pb_remote_client_nrf52832_xxAA_s132_5.0.0.dir/__/__/__/models/pb_remote/src/pb_remote_client.c.obj
 .text.pb_remote_client_event_unprov_number_cb
                0x0002438c       0x6c examples/pb_remote/client/CMakeFiles/pb_remote_client_nrf52832_xxAA_s132_5.0.0.dir/__/__/__/models/pb_remote/src/pb_remote_client.c.obj
 .text.status_event_push.isra.0
                0x000243f8       0x1a examples/pb_remote/client/CMakeFiles/pb_remote_client_nrf52832_xxAA_s132_5.0.0.dir/__/__/__/models/pb_remote/src/pb_remote_client.c.obj
 *fill*         0x00024412        0x2 
 .text.pb_remote_client_event_transfer_status_cb
                0x00024414       0xa4 examples/pb_remote/client/CMakeFiles/pb_remote_client_nrf52832_xxAA_s132_5.0.0.dir/__/__/__/models/pb_remote/src/pb_remote_client.c.obj
 .text.pb_remote_client_event_link_status_cb
                0x000244b8      0x218 examples/pb_remote/client/CMakeFiles/pb_remote_client_nrf52832_xxAA_s132_5.0.0.dir/__/__/__/models/pb_remote/src/pb_remote_client.c.obj
 .text.pb_remote_client_event_scan_status_cb
                0x000246d0      0x140 examples/pb_remote/client/CMakeFiles/pb_remote_client_nrf52832_xxAA_s132_5.0.0.dir/__/__/__/models/pb_remote/src/pb_remote_client.c.obj
 .text.pb_remote_client_event_tx_failed_cb
                0x00024810       0x44 examples/pb_remote/client/CMakeFiles/pb_remote_client_nrf52832_xxAA_s132_5.0.0.dir/__/__/__/models/pb_remote/src/pb_remote_client.c.obj
 .text.send_reply.isra.8.part.9
                0x00024854       0x14 examples/pb_remote/client/CMakeFiles/pb_remote_client_nrf52832_xxAA_s132_5.0.0.dir/__/__/__/models/pb_remote/src/pb_remote_client.c.obj
 .text.send_reliable_msg
                0x00024868       0x2c examples/pb_remote/client/CMakeFiles/pb_remote_client_nrf52832_xxAA_s132_5.0.0.dir/__/__/__/models/pb_remote/src/pb_remote_client.c.obj
 .text.pb_remote_client_event_local_packet_cb
                0x00024894       0xac examples/pb_remote/client/CMakeFiles/pb_remote_client_nrf52832_xxAA_s132_5.0.0.dir/__/__/__/models/pb_remote/src/pb_remote_client.c.obj
 .text.pb_remote_client_event_link_close_cb
                0x00024940       0x90 examples/pb_remote/client/CMakeFiles/pb_remote_client_nrf52832_xxAA_s132_5.0.0.dir/__/__/__/models/pb_remote/src/pb_remote_client.c.obj
 .text.pb_remote_client_event_scan_cancel_cb
                0x000249d0       0x84 examples/pb_remote/client/CMakeFiles/pb_remote_client_nrf52832_xxAA_s132_5.0.0.dir/__/__/__/models/pb_remote/src/pb_remote_client.c.obj
 .text.pb_remote_client_event_scan_start_cb
                0x00024a54       0x84 examples/pb_remote/client/CMakeFiles/pb_remote_client_nrf52832_xxAA_s132_5.0.0.dir/__/__/__/models/pb_remote/src/pb_remote_client.c.obj
 .text.pb_remote_client_event_prov_start_cb
                0x00024ad8       0x60 examples/pb_remote/client/CMakeFiles/pb_remote_client_nrf52832_xxAA_s132_5.0.0.dir/__/__/__/models/pb_remote/src/pb_remote_client.c.obj
 .text.send_reply.isra.8
                0x00024b38       0x16 examples/pb_remote/client/CMakeFiles/pb_remote_client_nrf52832_xxAA_s132_5.0.0.dir/__/__/__/models/pb_remote/src/pb_remote_client.c.obj
 *fill*         0x00024b4e        0x2 
 .text.pb_remote_client_event_transfer_status_report_cb
                0x00024b50      0x144 examples/pb_remote/client/CMakeFiles/pb_remote_client_nrf52832_xxAA_s132_5.0.0.dir/__/__/__/models/pb_remote/src/pb_remote_client.c.obj
 .text.pb_remote_client_event_unprov_uuid_cb
                0x00024c94       0xd4 examples/pb_remote/client/CMakeFiles/pb_remote_client_nrf52832_xxAA_s132_5.0.0.dir/__/__/__/models/pb_remote/src/pb_remote_client.c.obj
 .text.pb_remote_client_event_packet_transfer_cb
                0x00024d68       0xcc examples/pb_remote/client/CMakeFiles/pb_remote_client_nrf52832_xxAA_s132_5.0.0.dir/__/__/__/models/pb_remote/src/pb_remote_client.c.obj
 .text.pb_remote_client_event_link_status_report_cb
                0x00024e34      0x170 examples/pb_remote/client/CMakeFiles/pb_remote_client_nrf52832_xxAA_s132_5.0.0.dir/__/__/__/models/pb_remote/src/pb_remote_client.c.obj
 .text.pb_remote_client_process
                0x00024fa4      0x10c examples/pb_remote/client/CMakeFiles/pb_remote_client_nrf52832_xxAA_s132_5.0.0.dir/__/__/__/models/pb_remote/src/pb_remote_client.c.obj
 .text.pb_if_link_close_cb
                0x000250b0       0x4c examples/pb_remote/client/CMakeFiles/pb_remote_client_nrf52832_xxAA_s132_5.0.0.dir/__/__/__/models/pb_remote/src/pb_remote_client.c.obj
 .text.client_reliable_status_cb
                0x000250fc      0x11c examples/pb_remote/client/CMakeFiles/pb_remote_client_nrf52832_xxAA_s132_5.0.0.dir/__/__/__/models/pb_remote/src/pb_remote_client.c.obj
 .text.pb_if_tx_cb
                0x00025218       0x40 examples/pb_remote/client/CMakeFiles/pb_remote_client_nrf52832_xxAA_s132_5.0.0.dir/__/__/__/models/pb_remote/src/pb_remote_client.c.obj
 .text.remote_client_access_rx_cb
                0x00025258      0x170 examples/pb_remote/client/CMakeFiles/pb_remote_client_nrf52832_xxAA_s132_5.0.0.dir/__/__/__/models/pb_remote/src/pb_remote_client.c.obj
 .text.pb_remote_client_init
                0x000253c8       0x94 examples/pb_remote/client/CMakeFiles/pb_remote_client_nrf52832_xxAA_s132_5.0.0.dir/__/__/__/models/pb_remote/src/pb_remote_client.c.obj
                0x000253c8                pb_remote_client_init
 .text.pb_remote_client_remote_scan_start
                0x0002545c       0x44 examples/pb_remote/client/CMakeFiles/pb_remote_client_nrf52832_xxAA_s132_5.0.0.dir/__/__/__/models/pb_remote/src/pb_remote_client.c.obj
                0x0002545c                pb_remote_client_remote_scan_start
 .text.pb_remote_client_remote_scan_cancel
                0x000254a0       0x44 examples/pb_remote/client/CMakeFiles/pb_remote_client_nrf52832_xxAA_s132_5.0.0.dir/__/__/__/models/pb_remote/src/pb_remote_client.c.obj
                0x000254a0                pb_remote_client_remote_scan_cancel
 .text.pb_remote_client_remote_provision
                0x000254e4       0x60 examples/pb_remote/client/CMakeFiles/pb_remote_client_nrf52832_xxAA_s132_5.0.0.dir/__/__/__/models/pb_remote/src/pb_remote_client.c.obj
                0x000254e4                pb_remote_client_remote_provision
 .text.send_confirmation
                0x00025544       0x26 examples/pb_remote/client/CMakeFiles/pb_remote_client_nrf52832_xxAA_s132_5.0.0.dir/__/__/__/mesh/prov/src/prov_provisioner.c.obj
 .text.prov_provisioner_cb_link_closed
                0x0002556a       0x28 examples/pb_remote/client/CMakeFiles/pb_remote_client_nrf52832_xxAA_s132_5.0.0.dir/__/__/__/mesh/prov/src/prov_provisioner.c.obj
 .text.prov_provisioner_cb_link_established
                0x00025592       0x3e examples/pb_remote/client/CMakeFiles/pb_remote_client_nrf52832_xxAA_s132_5.0.0.dir/__/__/__/mesh/prov/src/prov_provisioner.c.obj
 .text.prov_provisioner_cb_ack_received
                0x000255d0       0x48 examples/pb_remote/client/CMakeFiles/pb_remote_client_nrf52832_xxAA_s132_5.0.0.dir/__/__/__/mesh/prov/src/prov_provisioner.c.obj
 .text.request_authentication
                0x00025618       0x8c examples/pb_remote/client/CMakeFiles/pb_remote_client_nrf52832_xxAA_s132_5.0.0.dir/__/__/__/mesh/prov/src/prov_provisioner.c.obj
 .text.prov_provisioner_pkt_in
                0x000256a4      0x28c examples/pb_remote/client/CMakeFiles/pb_remote_client_nrf52832_xxAA_s132_5.0.0.dir/__/__/__/mesh/prov/src/prov_provisioner.c.obj
 .text.prov_provisioner_provision
                0x00025930       0x48 examples/pb_remote/client/CMakeFiles/pb_remote_client_nrf52832_xxAA_s132_5.0.0.dir/__/__/__/mesh/prov/src/prov_provisioner.c.obj
                0x00025930                prov_provisioner_provision
 .text.prov_provisioner_oob_use
                0x00025978       0x7a examples/pb_remote/client/CMakeFiles/pb_remote_client_nrf52832_xxAA_s132_5.0.0.dir/__/__/__/mesh/prov/src/prov_provisioner.c.obj
                0x00025978                prov_provisioner_oob_use
 .text.prov_provisioner_auth_data
                0x000259f2       0x44 examples/pb_remote/client/CMakeFiles/pb_remote_client_nrf52832_xxAA_s132_5.0.0.dir/__/__/__/mesh/prov/src/prov_provisioner.c.obj
                0x000259f2                prov_provisioner_auth_data
 .text.nrf_mesh_prov_init
                0x00025a36       0x24 examples/pb_remote/client/CMakeFiles/pb_remote_client_nrf52832_xxAA_s132_5.0.0.dir/__/__/__/mesh/prov/src/nrf_mesh_prov.c.obj
                0x00025a36                nrf_mesh_prov_init
 .text.nrf_mesh_prov_generate_keys
                0x00025a5a        0x4 examples/pb_remote/client/CMakeFiles/pb_remote_client_nrf52832_xxAA_s132_5.0.0.dir/__/__/__/mesh/prov/src/nrf_mesh_prov.c.obj
                0x00025a5a                nrf_mesh_prov_generate_keys
 .text.nrf_mesh_prov_provision
                0x00025a5e       0x4e examples/pb_remote/client/CMakeFiles/pb_remote_client_nrf52832_xxAA_s132_5.0.0.dir/__/__/__/mesh/prov/src/nrf_mesh_prov.c.obj
                0x00025a5e                nrf_mesh_prov_provision
 .text.nrf_mesh_prov_oob_use
                0x00025aac        0xe examples/pb_remote/client/CMakeFiles/pb_remote_client_nrf52832_xxAA_s132_5.0.0.dir/__/__/__/mesh/prov/src/nrf_mesh_prov.c.obj
                0x00025aac                nrf_mesh_prov_oob_use
 .text.nrf_mesh_prov_auth_data_provide
                0x00025aba        0xe examples/pb_remote/client/CMakeFiles/pb_remote_client_nrf52832_xxAA_s132_5.0.0.dir/__/__/__/mesh/prov/src/nrf_mesh_prov.c.obj
                0x00025aba                nrf_mesh_prov_auth_data_provide
 .text.send_data
                0x00025ac8       0x40 examples/pb_remote/client/CMakeFiles/pb_remote_client_nrf52832_xxAA_s132_5.0.0.dir/__/__/__/mesh/prov/src/provisioning.c.obj
 .text.prov_packet_length_valid
                0x00025b08       0x1c examples/pb_remote/client/CMakeFiles/pb_remote_client_nrf52832_xxAA_s132_5.0.0.dir/__/__/__/mesh/prov/src/provisioning.c.obj
                0x00025b08                prov_packet_length_valid
 .text.prov_init
                0x00025b24       0x2c examples/pb_remote/client/CMakeFiles/pb_remote_client_nrf52832_xxAA_s132_5.0.0.dir/__/__/__/mesh/prov/src/provisioning.c.obj
                0x00025b24                prov_init
 .text.prov_link_open
                0x00025b50       0x14 examples/pb_remote/client/CMakeFiles/pb_remote_client_nrf52832_xxAA_s132_5.0.0.dir/__/__/__/mesh/prov/src/provisioning.c.obj
                0x00025b50                prov_link_open
 .text.prov_link_close
                0x00025b64        0x8 examples/pb_remote/client/CMakeFiles/pb_remote_client_nrf52832_xxAA_s132_5.0.0.dir/__/__/__/mesh/prov/src/provisioning.c.obj
                0x00025b64                prov_link_close
 .text.prov_tx_invite
                0x00025b6c       0x28 examples/pb_remote/client/CMakeFiles/pb_remote_client_nrf52832_xxAA_s132_5.0.0.dir/__/__/__/mesh/prov/src/provisioning.c.obj
                0x00025b6c                prov_tx_invite
 .text.prov_tx_start
                0x00025b94       0x20 examples/pb_remote/client/CMakeFiles/pb_remote_client_nrf52832_xxAA_s132_5.0.0.dir/__/__/__/mesh/prov/src/provisioning.c.obj
                0x00025b94                prov_tx_start
 .text.prov_tx_public_key
                0x00025bb4       0x26 examples/pb_remote/client/CMakeFiles/pb_remote_client_nrf52832_xxAA_s132_5.0.0.dir/__/__/__/mesh/prov/src/provisioning.c.obj
                0x00025bb4                prov_tx_public_key
 .text.prov_tx_confirmation
                0x00025bda       0x26 examples/pb_remote/client/CMakeFiles/pb_remote_client_nrf52832_xxAA_s132_5.0.0.dir/__/__/__/mesh/prov/src/provisioning.c.obj
                0x00025bda                prov_tx_confirmation
 .text.prov_tx_random
                0x00025c00       0x26 examples/pb_remote/client/CMakeFiles/pb_remote_client_nrf52832_xxAA_s132_5.0.0.dir/__/__/__/mesh/prov/src/provisioning.c.obj
                0x00025c00                prov_tx_random
 .text.prov_tx_data
                0x00025c26        0x6 examples/pb_remote/client/CMakeFiles/pb_remote_client_nrf52832_xxAA_s132_5.0.0.dir/__/__/__/mesh/prov/src/provisioning.c.obj
                0x00025c26                prov_tx_data
 .text.prov_cb_link_opened
                0x00025c2c        0x8 examples/pb_remote/client/CMakeFiles/pb_remote_client_nrf52832_xxAA_s132_5.0.0.dir/__/__/__/mesh/prov/src/provisioning.c.obj
                0x00025c2c                prov_cb_link_opened
 .text.prov_cb_link_closed
                0x00025c34        0x8 examples/pb_remote/client/CMakeFiles/pb_remote_client_nrf52832_xxAA_s132_5.0.0.dir/__/__/__/mesh/prov/src/provisioning.c.obj
                0x00025c34                prov_cb_link_closed
 .text.prov_cb_pkt_in
                0x00025c3c       0x7c examples/pb_remote/client/CMakeFiles/pb_remote_client_nrf52832_xxAA_s132_5.0.0.dir/__/__/__/mesh/prov/src/provisioning.c.obj
                0x00025c3c                prov_cb_pkt_in
 .text.prov_cb_ack_in
                0x00025cb8        0x8 examples/pb_remote/client/CMakeFiles/pb_remote_client_nrf52832_xxAA_s132_5.0.0.dir/__/__/__/mesh/prov/src/provisioning.c.obj
                0x00025cb8                prov_cb_ack_in
 .text.prov_beacon_unprov_build
                0x00025cc0       0x54 examples/pb_remote/client/CMakeFiles/pb_remote_client_nrf52832_xxAA_s132_5.0.0.dir/__/__/__/mesh/prov/src/prov_beacon.c.obj
                0x00025cc0                prov_beacon_unprov_build
 .text.prov_beacon_unprov_packet_in
                0x00025d14       0xb0 examples/pb_remote/client/CMakeFiles/pb_remote_client_nrf52832_xxAA_s132_5.0.0.dir/__/__/__/mesh/prov/src/prov_beacon.c.obj
                0x00025d14                prov_beacon_unprov_packet_in
 .text.oob_gen_alphanumeric
                0x00025dc4       0x34 examples/pb_remote/client/CMakeFiles/pb_remote_client_nrf52832_xxAA_s132_5.0.0.dir/__/__/__/mesh/prov/src/prov_utils.c.obj
 .text.oob_gen_numeric
                0x00025df8       0x3c examples/pb_remote/client/CMakeFiles/pb_remote_client_nrf52832_xxAA_s132_5.0.0.dir/__/__/__/mesh/prov/src/prov_utils.c.obj
 .text.prov_utils_use_ecdh_offloading
                0x00025e34        0xc examples/pb_remote/client/CMakeFiles/pb_remote_client_nrf52832_xxAA_s132_5.0.0.dir/__/__/__/mesh/prov/src/prov_utils.c.obj
                0x00025e34                prov_utils_use_ecdh_offloading
 .text.prov_utils_authentication_values_derive
                0x00025e40       0xa4 examples/pb_remote/client/CMakeFiles/pb_remote_client_nrf52832_xxAA_s132_5.0.0.dir/__/__/__/mesh/prov/src/prov_utils.c.obj
                0x00025e40                prov_utils_authentication_values_derive
 .text.prov_utils_keys_generate
                0x00025ee4       0x1e examples/pb_remote/client/CMakeFiles/pb_remote_client_nrf52832_xxAA_s132_5.0.0.dir/__/__/__/mesh/prov/src/prov_utils.c.obj
                0x00025ee4                prov_utils_keys_generate
 *fill*         0x00025f02        0x2 
 .text.prov_utils_derive_keys
                0x00025f04       0xb0 examples/pb_remote/client/CMakeFiles/pb_remote_client_nrf52832_xxAA_s132_5.0.0.dir/__/__/__/mesh/prov/src/prov_utils.c.obj
                0x00025f04                prov_utils_derive_keys
 .text.prov_utils_calculate_shared_secret
                0x00025fb4       0x38 examples/pb_remote/client/CMakeFiles/pb_remote_client_nrf52832_xxAA_s132_5.0.0.dir/__/__/__/mesh/prov/src/prov_utils.c.obj
                0x00025fb4                prov_utils_calculate_shared_secret
 .text.prov_utils_generate_oob_data
                0x00025fec       0x9c examples/pb_remote/client/CMakeFiles/pb_remote_client_nrf52832_xxAA_s132_5.0.0.dir/__/__/__/mesh/prov/src/prov_utils.c.obj
                0x00025fec                prov_utils_generate_oob_data
 .text.prov_utils_confirmation_check
                0x00026088       0x5c examples/pb_remote/client/CMakeFiles/pb_remote_client_nrf52832_xxAA_s132_5.0.0.dir/__/__/__/mesh/prov/src/prov_utils.c.obj
                0x00026088                prov_utils_confirmation_check
 .text.remove_active_bearer
                0x000260e4       0x60 examples/pb_remote/client/CMakeFiles/pb_remote_client_nrf52832_xxAA_s132_5.0.0.dir/__/__/__/mesh/prov/src/prov_bearer_adv.c.obj
 .text.prov_bearer_adv_listen_stop
                0x00026144       0x38 examples/pb_remote/client/CMakeFiles/pb_remote_client_nrf52832_xxAA_s132_5.0.0.dir/__/__/__/mesh/prov/src/prov_bearer_adv.c.obj
 .text.close_link
                0x0002617c       0x68 examples/pb_remote/client/CMakeFiles/pb_remote_client_nrf52832_xxAA_s132_5.0.0.dir/__/__/__/mesh/prov/src/prov_bearer_adv.c.obj
 .text.send_packet
                0x000261e4       0x6c examples/pb_remote/client/CMakeFiles/pb_remote_client_nrf52832_xxAA_s132_5.0.0.dir/__/__/__/mesh/prov/src/prov_bearer_adv.c.obj
 .text.prov_buffer_tx
                0x00026250      0x158 examples/pb_remote/client/CMakeFiles/pb_remote_client_nrf52832_xxAA_s132_5.0.0.dir/__/__/__/mesh/prov/src/prov_bearer_adv.c.obj
 .text.send_link_close
                0x000263a8       0x38 examples/pb_remote/client/CMakeFiles/pb_remote_client_nrf52832_xxAA_s132_5.0.0.dir/__/__/__/mesh/prov/src/prov_bearer_adv.c.obj
 .text.prov_bearer_adv_link_close
                0x000263e0       0x70 examples/pb_remote/client/CMakeFiles/pb_remote_client_nrf52832_xxAA_s132_5.0.0.dir/__/__/__/mesh/prov/src/prov_bearer_adv.c.obj
 .text.send_transaction_ack
                0x00026450       0x24 examples/pb_remote/client/CMakeFiles/pb_remote_client_nrf52832_xxAA_s132_5.0.0.dir/__/__/__/mesh/prov/src/prov_bearer_adv.c.obj
 .text.send_link_ack
                0x00026474       0x32 examples/pb_remote/client/CMakeFiles/pb_remote_client_nrf52832_xxAA_s132_5.0.0.dir/__/__/__/mesh/prov/src/prov_bearer_adv.c.obj
 .text.link_timeout_cb
                0x000264a6        0x8 examples/pb_remote/client/CMakeFiles/pb_remote_client_nrf52832_xxAA_s132_5.0.0.dir/__/__/__/mesh/prov/src/prov_bearer_adv.c.obj
 .text.reset_timeout_timer
                0x000264ae       0x1a examples/pb_remote/client/CMakeFiles/pb_remote_client_nrf52832_xxAA_s132_5.0.0.dir/__/__/__/mesh/prov/src/prov_bearer_adv.c.obj
 .text.tx_complete_cb
                0x000264c8       0x1c examples/pb_remote/client/CMakeFiles/pb_remote_client_nrf52832_xxAA_s132_5.0.0.dir/__/__/__/mesh/prov/src/prov_bearer_adv.c.obj
 .text.tx_retry_cb
                0x000264e4       0xcc examples/pb_remote/client/CMakeFiles/pb_remote_client_nrf52832_xxAA_s132_5.0.0.dir/__/__/__/mesh/prov/src/prov_bearer_adv.c.obj
 .text.add_active_bearer
                0x000265b0       0x80 examples/pb_remote/client/CMakeFiles/pb_remote_client_nrf52832_xxAA_s132_5.0.0.dir/__/__/__/mesh/prov/src/prov_bearer_adv.c.obj
 .text.prov_bearer_adv_link_open
                0x00026630       0xf0 examples/pb_remote/client/CMakeFiles/pb_remote_client_nrf52832_xxAA_s132_5.0.0.dir/__/__/__/mesh/prov/src/prov_bearer_adv.c.obj
 .text.async_process
                0x00026720       0x50 examples/pb_remote/client/CMakeFiles/pb_remote_client_nrf52832_xxAA_s132_5.0.0.dir/__/__/__/mesh/prov/src/prov_bearer_adv.c.obj
 .text.prov_bearer_adv_listen
                0x00026770       0xe8 examples/pb_remote/client/CMakeFiles/pb_remote_client_nrf52832_xxAA_s132_5.0.0.dir/__/__/__/mesh/prov/src/prov_bearer_adv.c.obj
 .text.calculate_3GPP_CRC
                0x00026858       0x24 examples/pb_remote/client/CMakeFiles/pb_remote_client_nrf52832_xxAA_s132_5.0.0.dir/__/__/__/mesh/prov/src/prov_bearer_adv.c.obj
                0x00026858                calculate_3GPP_CRC
 .text.prov_bearer_adv_tx
                0x0002687c       0xac examples/pb_remote/client/CMakeFiles/pb_remote_client_nrf52832_xxAA_s132_5.0.0.dir/__/__/__/mesh/prov/src/prov_bearer_adv.c.obj
 .text.prov_buffer_rx
                0x00026928       0x74 examples/pb_remote/client/CMakeFiles/pb_remote_client_nrf52832_xxAA_s132_5.0.0.dir/__/__/__/mesh/prov/src/prov_bearer_adv.c.obj
 .text.prov_bearer_adv_interface_get
                0x0002699c       0x24 examples/pb_remote/client/CMakeFiles/pb_remote_client_nrf52832_xxAA_s132_5.0.0.dir/__/__/__/mesh/prov/src/prov_bearer_adv.c.obj
                0x0002699c                prov_bearer_adv_interface_get
 .text.prov_bearer_adv_packet_in
                0x000269c0      0x80c examples/pb_remote/client/CMakeFiles/pb_remote_client_nrf52832_xxAA_s132_5.0.0.dir/__/__/__/mesh/prov/src/prov_bearer_adv.c.obj
                0x000269c0                prov_bearer_adv_packet_in
 .text.add_to_publication_list
                0x000271cc       0x84 examples/pb_remote/client/CMakeFiles/pb_remote_client_nrf52832_xxAA_s132_5.0.0.dir/__/__/__/mesh/access/src/access_publish.c.obj
 .text.step_resolution_to_us
                0x00027250       0x44 examples/pb_remote/client/CMakeFiles/pb_remote_client_nrf52832_xxAA_s132_5.0.0.dir/__/__/__/mesh/access/src/access_publish.c.obj
 .text.schedule_publication_timer
                0x00027294      0x184 examples/pb_remote/client/CMakeFiles/pb_remote_client_nrf52832_xxAA_s132_5.0.0.dir/__/__/__/mesh/access/src/access_publish.c.obj
 .text.publish_timer_tick
                0x00027418       0xbc examples/pb_remote/client/CMakeFiles/pb_remote_client_nrf52832_xxAA_s132_5.0.0.dir/__/__/__/mesh/access/src/access_publish.c.obj
 .text.access_publish_init
                0x000274d4       0x38 examples/pb_remote/client/CMakeFiles/pb_remote_client_nrf52832_xxAA_s132_5.0.0.dir/__/__/__/mesh/access/src/access_publish.c.obj
                0x000274d4                access_publish_init
 .text.bitfield_get
                0x0002750c       0x1a examples/pb_remote/client/CMakeFiles/pb_remote_client_nrf52832_xxAA_s132_5.0.0.dir/__/__/__/mesh/access/src/access.c.obj
 .text.is_valid_opcode
                0x00027526       0x42 examples/pb_remote/client/CMakeFiles/pb_remote_client_nrf52832_xxAA_s132_5.0.0.dir/__/__/__/mesh/access/src/access.c.obj
 .text.model_handle_valid_and_allocated
                0x00027568       0x20 examples/pb_remote/client/CMakeFiles/pb_remote_client_nrf52832_xxAA_s132_5.0.0.dir/__/__/__/mesh/access/src/access.c.obj
 .text.flash_invalidate_complete
                0x00027588       0x14 examples/pb_remote/client/CMakeFiles/pb_remote_client_nrf52832_xxAA_s132_5.0.0.dir/__/__/__/mesh/access/src/access.c.obj
 .text.flash_manager_mem_available
                0x0002759c        0x2 examples/pb_remote/client/CMakeFiles/pb_remote_client_nrf52832_xxAA_s132_5.0.0.dir/__/__/__/mesh/access/src/access.c.obj
 *fill*         0x0002759e        0x2 
 .text.access_state_clear
                0x000275a0       0x4c examples/pb_remote/client/CMakeFiles/pb_remote_client_nrf52832_xxAA_s132_5.0.0.dir/__/__/__/mesh/access/src/access.c.obj
 .text.add_flash_manager
                0x000275ec       0x58 examples/pb_remote/client/CMakeFiles/pb_remote_client_nrf52832_xxAA_s132_5.0.0.dir/__/__/__/mesh/access/src/access.c.obj
 .text.flash_remove_complete
                0x00027644       0x5c examples/pb_remote/client/CMakeFiles/pb_remote_client_nrf52832_xxAA_s132_5.0.0.dir/__/__/__/mesh/access/src/access.c.obj
 .text.flash_write_complete
                0x000276a0       0x54 examples/pb_remote/client/CMakeFiles/pb_remote_client_nrf52832_xxAA_s132_5.0.0.dir/__/__/__/mesh/access/src/access.c.obj
 .text.handle_incoming
                0x000276f4      0x158 examples/pb_remote/client/CMakeFiles/pb_remote_client_nrf52832_xxAA_s132_5.0.0.dir/__/__/__/mesh/access/src/access.c.obj
 .text.mesh_evt_cb
                0x0002784c      0x134 examples/pb_remote/client/CMakeFiles/pb_remote_client_nrf52832_xxAA_s132_5.0.0.dir/__/__/__/mesh/access/src/access.c.obj
 .text.packet_tx
                0x00027980      0x2c0 examples/pb_remote/client/CMakeFiles/pb_remote_client_nrf52832_xxAA_s132_5.0.0.dir/__/__/__/mesh/access/src/access.c.obj
 .text.access_init
                0x00027c40       0x28 examples/pb_remote/client/CMakeFiles/pb_remote_client_nrf52832_xxAA_s132_5.0.0.dir/__/__/__/mesh/access/src/access.c.obj
                0x00027c40                access_init
 .text.access_model_add
                0x00027c68      0x1b4 examples/pb_remote/client/CMakeFiles/pb_remote_client_nrf52832_xxAA_s132_5.0.0.dir/__/__/__/mesh/access/src/access.c.obj
                0x00027c68                access_model_add
 .text.access_model_publish
                0x00027e1c        0xc examples/pb_remote/client/CMakeFiles/pb_remote_client_nrf52832_xxAA_s132_5.0.0.dir/__/__/__/mesh/access/src/access.c.obj
                0x00027e1c                access_model_publish
 .text.access_model_reply
                0x00027e28       0x12 examples/pb_remote/client/CMakeFiles/pb_remote_client_nrf52832_xxAA_s132_5.0.0.dir/__/__/__/mesh/access/src/access.c.obj
                0x00027e28                access_model_reply
 *fill*         0x00027e3a        0x2 
 .text.access_model_publish_address_set
                0x00027e3c       0x3c examples/pb_remote/client/CMakeFiles/pb_remote_client_nrf52832_xxAA_s132_5.0.0.dir/__/__/__/mesh/access/src/access.c.obj
                0x00027e3c                access_model_publish_address_set
 .text.access_model_publish_address_get
                0x00027e78       0x28 examples/pb_remote/client/CMakeFiles/pb_remote_client_nrf52832_xxAA_s132_5.0.0.dir/__/__/__/mesh/access/src/access.c.obj
                0x00027e78                access_model_publish_address_get
 .text.access_model_application_bind
                0x00027ea0       0x50 examples/pb_remote/client/CMakeFiles/pb_remote_client_nrf52832_xxAA_s132_5.0.0.dir/__/__/__/mesh/access/src/access.c.obj
                0x00027ea0                access_model_application_bind
 .text.access_model_publish_application_set
                0x00027ef0       0x3c examples/pb_remote/client/CMakeFiles/pb_remote_client_nrf52832_xxAA_s132_5.0.0.dir/__/__/__/mesh/access/src/access.c.obj
                0x00027ef0                access_model_publish_application_set
 .text.access_model_publish_ttl_set
                0x00027f2c       0x40 examples/pb_remote/client/CMakeFiles/pb_remote_client_nrf52832_xxAA_s132_5.0.0.dir/__/__/__/mesh/access/src/access.c.obj
                0x00027f2c                access_model_publish_ttl_set
 .text.access_model_publish_ttl_get
                0x00027f6c       0x28 examples/pb_remote/client/CMakeFiles/pb_remote_client_nrf52832_xxAA_s132_5.0.0.dir/__/__/__/mesh/access/src/access.c.obj
                0x00027f6c                access_model_publish_ttl_get
 .text.access_model_p_args_get
                0x00027f94       0x28 examples/pb_remote/client/CMakeFiles/pb_remote_client_nrf52832_xxAA_s132_5.0.0.dir/__/__/__/mesh/access/src/access.c.obj
                0x00027f94                access_model_p_args_get
 .text.remove_and_reschedule
                0x00027fbc       0xd8 examples/pb_remote/client/CMakeFiles/pb_remote_client_nrf52832_xxAA_s132_5.0.0.dir/__/__/__/mesh/access/src/access_reliable.c.obj
 .text.reliable_timer_cb
                0x00028094      0x148 examples/pb_remote/client/CMakeFiles/pb_remote_client_nrf52832_xxAA_s132_5.0.0.dir/__/__/__/mesh/access/src/access_reliable.c.obj
 .text.access_reliable_message_rx_cb
                0x000281dc       0x84 examples/pb_remote/client/CMakeFiles/pb_remote_client_nrf52832_xxAA_s132_5.0.0.dir/__/__/__/mesh/access/src/access_reliable.c.obj
                0x000281dc                access_reliable_message_rx_cb
 .text.access_reliable_init
                0x00028260       0x1c examples/pb_remote/client/CMakeFiles/pb_remote_client_nrf52832_xxAA_s132_5.0.0.dir/__/__/__/mesh/access/src/access_reliable.c.obj
                0x00028260                access_reliable_init
 .text.access_model_reliable_cancel
                0x0002827c       0x4c examples/pb_remote/client/CMakeFiles/pb_remote_client_nrf52832_xxAA_s132_5.0.0.dir/__/__/__/mesh/access/src/access_reliable.c.obj
                0x0002827c                access_model_reliable_cancel
 .text.access_model_reliable_publish
                0x000282c8      0x1b8 examples/pb_remote/client/CMakeFiles/pb_remote_client_nrf52832_xxAA_s132_5.0.0.dir/__/__/__/mesh/access/src/access_reliable.c.obj
                0x000282c8                access_model_reliable_publish
 .text.bitfield_get
                0x00028480       0x1a examples/pb_remote/client/CMakeFiles/pb_remote_client_nrf52832_xxAA_s132_5.0.0.dir/__/__/__/mesh/access/src/device_state_manager.c.obj
 .text.bitfield_set
                0x0002849a       0x18 examples/pb_remote/client/CMakeFiles/pb_remote_client_nrf52832_xxAA_s132_5.0.0.dir/__/__/__/mesh/access/src/device_state_manager.c.obj
 .text.bitfield_clear
                0x000284b2       0x1a examples/pb_remote/client/CMakeFiles/pb_remote_client_nrf52832_xxAA_s132_5.0.0.dir/__/__/__/mesh/access/src/device_state_manager.c.obj
 .text.bitfield_is_all_clear
                0x000284cc       0x3c examples/pb_remote/client/CMakeFiles/pb_remote_client_nrf52832_xxAA_s132_5.0.0.dir/__/__/__/mesh/access/src/device_state_manager.c.obj
 .text.address_handle_virtual_valid
                0x00028508       0x14 examples/pb_remote/client/CMakeFiles/pb_remote_client_nrf52832_xxAA_s132_5.0.0.dir/__/__/__/mesh/access/src/device_state_manager.c.obj
 .text.net_key_handle_get
                0x0002851c       0x38 examples/pb_remote/client/CMakeFiles/pb_remote_client_nrf52832_xxAA_s132_5.0.0.dir/__/__/__/mesh/access/src/device_state_manager.c.obj
 .text.dev_key_handle_get
                0x00028554       0x58 examples/pb_remote/client/CMakeFiles/pb_remote_client_nrf52832_xxAA_s132_5.0.0.dir/__/__/__/mesh/access/src/device_state_manager.c.obj
 .text.app_key_handle_get
                0x000285ac       0x38 examples/pb_remote/client/CMakeFiles/pb_remote_client_nrf52832_xxAA_s132_5.0.0.dir/__/__/__/mesh/access/src/device_state_manager.c.obj
 .text.addr_nonvirtual_to_flash_entry
                0x000285e4       0x10 examples/pb_remote/client/CMakeFiles/pb_remote_client_nrf52832_xxAA_s132_5.0.0.dir/__/__/__/mesh/access/src/device_state_manager.c.obj
 .text.flash_mem_listener_callback
                0x000285f4       0x20 examples/pb_remote/client/CMakeFiles/pb_remote_client_nrf52832_xxAA_s132_5.0.0.dir/__/__/__/mesh/access/src/device_state_manager.c.obj
 .text.devkey_set
                0x00028614       0x4c examples/pb_remote/client/CMakeFiles/pb_remote_client_nrf52832_xxAA_s132_5.0.0.dir/__/__/__/mesh/access/src/device_state_manager.c.obj
 .text.devkey_to_dsm_entry
                0x00028660       0x16 examples/pb_remote/client/CMakeFiles/pb_remote_client_nrf52832_xxAA_s132_5.0.0.dir/__/__/__/mesh/access/src/device_state_manager.c.obj
 *fill*         0x00028676        0x2 
 .text.devkey_to_flash_entry
                0x00028678       0x28 examples/pb_remote/client/CMakeFiles/pb_remote_client_nrf52832_xxAA_s132_5.0.0.dir/__/__/__/mesh/access/src/device_state_manager.c.obj
 .text.appkey_to_flash_entry
                0x000286a0       0x28 examples/pb_remote/client/CMakeFiles/pb_remote_client_nrf52832_xxAA_s132_5.0.0.dir/__/__/__/mesh/access/src/device_state_manager.c.obj
 .text.subnet_to_flash_entry
                0x000286c8       0x20 examples/pb_remote/client/CMakeFiles/pb_remote_client_nrf52832_xxAA_s132_5.0.0.dir/__/__/__/mesh/access/src/device_state_manager.c.obj
 .text.addr_virtual_to_flash_entry
                0x000286e8       0x18 examples/pb_remote/client/CMakeFiles/pb_remote_client_nrf52832_xxAA_s132_5.0.0.dir/__/__/__/mesh/access/src/device_state_manager.c.obj
 .text.addr_unicast_to_dsm_entry
                0x00028700        0xc examples/pb_remote/client/CMakeFiles/pb_remote_client_nrf52832_xxAA_s132_5.0.0.dir/__/__/__/mesh/access/src/device_state_manager.c.obj
 .text.addr_unicast_to_flash_entry
                0x0002870c       0x10 examples/pb_remote/client/CMakeFiles/pb_remote_client_nrf52832_xxAA_s132_5.0.0.dir/__/__/__/mesh/access/src/device_state_manager.c.obj
 .text.appkey_set
                0x0002871c       0x6c examples/pb_remote/client/CMakeFiles/pb_remote_client_nrf52832_xxAA_s132_5.0.0.dir/__/__/__/mesh/access/src/device_state_manager.c.obj
 .text.appkey_to_dsm_entry
                0x00028788       0x14 examples/pb_remote/client/CMakeFiles/pb_remote_client_nrf52832_xxAA_s132_5.0.0.dir/__/__/__/mesh/access/src/device_state_manager.c.obj
 .text.subnet_set
                0x0002879c       0x94 examples/pb_remote/client/CMakeFiles/pb_remote_client_nrf52832_xxAA_s132_5.0.0.dir/__/__/__/mesh/access/src/device_state_manager.c.obj
 .text.subnet_to_dsm_entry
                0x00028830        0xc examples/pb_remote/client/CMakeFiles/pb_remote_client_nrf52832_xxAA_s132_5.0.0.dir/__/__/__/mesh/access/src/device_state_manager.c.obj
 .text.virtual_address_set
                0x0002883c       0x54 examples/pb_remote/client/CMakeFiles/pb_remote_client_nrf52832_xxAA_s132_5.0.0.dir/__/__/__/mesh/access/src/device_state_manager.c.obj
 .text.addr_virtual_to_dsm_entry
                0x00028890        0xc examples/pb_remote/client/CMakeFiles/pb_remote_client_nrf52832_xxAA_s132_5.0.0.dir/__/__/__/mesh/access/src/device_state_manager.c.obj
 .text.flash_save
                0x0002889c       0x84 examples/pb_remote/client/CMakeFiles/pb_remote_client_nrf52832_xxAA_s132_5.0.0.dir/__/__/__/mesh/access/src/device_state_manager.c.obj
 .text.flash_invalidate
                0x00028920       0x68 examples/pb_remote/client/CMakeFiles/pb_remote_client_nrf52832_xxAA_s132_5.0.0.dir/__/__/__/mesh/access/src/device_state_manager.c.obj
 .text.flash_update_all
                0x00028988       0x6c examples/pb_remote/client/CMakeFiles/pb_remote_client_nrf52832_xxAA_s132_5.0.0.dir/__/__/__/mesh/access/src/device_state_manager.c.obj
 .text.virtual_address_uuid_index_get
                0x000289f4       0x3c examples/pb_remote/client/CMakeFiles/pb_remote_client_nrf52832_xxAA_s132_5.0.0.dir/__/__/__/mesh/access/src/device_state_manager.c.obj
 .text.get_subnet_handle
                0x00028a30       0x30 examples/pb_remote/client/CMakeFiles/pb_remote_client_nrf52832_xxAA_s132_5.0.0.dir/__/__/__/mesh/access/src/device_state_manager.c.obj
 .text.get_app_handle
                0x00028a60       0x4c examples/pb_remote/client/CMakeFiles/pb_remote_client_nrf52832_xxAA_s132_5.0.0.dir/__/__/__/mesh/access/src/device_state_manager.c.obj
 .text.flash_operation_complete
                0x00028aac       0x58 examples/pb_remote/client/CMakeFiles/pb_remote_client_nrf52832_xxAA_s132_5.0.0.dir/__/__/__/mesh/access/src/device_state_manager.c.obj
 .text.flash_invalidate_complete
                0x00028b04        0x8 examples/pb_remote/client/CMakeFiles/pb_remote_client_nrf52832_xxAA_s132_5.0.0.dir/__/__/__/mesh/access/src/device_state_manager.c.obj
 .text.flash_write_complete
                0x00028b0c        0x8 examples/pb_remote/client/CMakeFiles/pb_remote_client_nrf52832_xxAA_s132_5.0.0.dir/__/__/__/mesh/access/src/device_state_manager.c.obj
 .text.add_address.part.5
                0x00028b14      0x144 examples/pb_remote/client/CMakeFiles/pb_remote_client_nrf52832_xxAA_s132_5.0.0.dir/__/__/__/mesh/access/src/device_state_manager.c.obj
 .text.address_handle_valid
                0x00028c58       0x28 examples/pb_remote/client/CMakeFiles/pb_remote_client_nrf52832_xxAA_s132_5.0.0.dir/__/__/__/mesh/access/src/device_state_manager.c.obj
 .text.address_handle_nonvirtual_valid
                0x00028c80       0x14 examples/pb_remote/client/CMakeFiles/pb_remote_client_nrf52832_xxAA_s132_5.0.0.dir/__/__/__/mesh/access/src/device_state_manager.c.obj
 .text.addr_nonvirtual_to_dsm_entry
                0x00028c94       0x38 examples/pb_remote/client/CMakeFiles/pb_remote_client_nrf52832_xxAA_s132_5.0.0.dir/__/__/__/mesh/access/src/device_state_manager.c.obj
 .text.dsm_flash_area_get
                0x00028ccc        0xc examples/pb_remote/client/CMakeFiles/pb_remote_client_nrf52832_xxAA_s132_5.0.0.dir/__/__/__/mesh/access/src/device_state_manager.c.obj
                0x00028ccc                dsm_flash_area_get
 .text.build_flash_area
                0x00028cd8       0x8c examples/pb_remote/client/CMakeFiles/pb_remote_client_nrf52832_xxAA_s132_5.0.0.dir/__/__/__/mesh/access/src/device_state_manager.c.obj
 .text.dsm_init
                0x00028d64       0x24 examples/pb_remote/client/CMakeFiles/pb_remote_client_nrf52832_xxAA_s132_5.0.0.dir/__/__/__/mesh/access/src/device_state_manager.c.obj
                0x00028d64                dsm_init
 .text.flash_remove_complete
                0x00028d88        0x4 examples/pb_remote/client/CMakeFiles/pb_remote_client_nrf52832_xxAA_s132_5.0.0.dir/__/__/__/mesh/access/src/device_state_manager.c.obj
 .text.dsm_local_unicast_addresses_set
                0x00028d8c       0x74 examples/pb_remote/client/CMakeFiles/pb_remote_client_nrf52832_xxAA_s132_5.0.0.dir/__/__/__/mesh/access/src/device_state_manager.c.obj
                0x00028d8c                dsm_local_unicast_addresses_set
 .text.dsm_local_unicast_addresses_get
                0x00028e00       0x2c examples/pb_remote/client/CMakeFiles/pb_remote_client_nrf52832_xxAA_s132_5.0.0.dir/__/__/__/mesh/access/src/device_state_manager.c.obj
                0x00028e00                dsm_local_unicast_addresses_get
 .text.dsm_address_publish_add
                0x00028e2c        0xc examples/pb_remote/client/CMakeFiles/pb_remote_client_nrf52832_xxAA_s132_5.0.0.dir/__/__/__/mesh/access/src/device_state_manager.c.obj
                0x00028e2c                dsm_address_publish_add
 .text.dsm_address_subscription_get
                0x00028e38       0x34 examples/pb_remote/client/CMakeFiles/pb_remote_client_nrf52832_xxAA_s132_5.0.0.dir/__/__/__/mesh/access/src/device_state_manager.c.obj
                0x00028e38                dsm_address_subscription_get
 .text.dsm_address_get
                0x00028e6c       0x5c examples/pb_remote/client/CMakeFiles/pb_remote_client_nrf52832_xxAA_s132_5.0.0.dir/__/__/__/mesh/access/src/device_state_manager.c.obj
                0x00028e6c                dsm_address_get
 .text.dsm_address_handle_get
                0x00028ec8       0x98 examples/pb_remote/client/CMakeFiles/pb_remote_client_nrf52832_xxAA_s132_5.0.0.dir/__/__/__/mesh/access/src/device_state_manager.c.obj
                0x00028ec8                dsm_address_handle_get
 .text.dsm_appkey_handle_get
                0x00028f60        0xc examples/pb_remote/client/CMakeFiles/pb_remote_client_nrf52832_xxAA_s132_5.0.0.dir/__/__/__/mesh/access/src/device_state_manager.c.obj
                0x00028f60                dsm_appkey_handle_get
 .text.dsm_subnet_add
                0x00028f6c       0x58 examples/pb_remote/client/CMakeFiles/pb_remote_client_nrf52832_xxAA_s132_5.0.0.dir/__/__/__/mesh/access/src/device_state_manager.c.obj
                0x00028f6c                dsm_subnet_add
 .text.dsm_devkey_add
                0x00028fc4       0x78 examples/pb_remote/client/CMakeFiles/pb_remote_client_nrf52832_xxAA_s132_5.0.0.dir/__/__/__/mesh/access/src/device_state_manager.c.obj
                0x00028fc4                dsm_devkey_add
 .text.dsm_appkey_add
                0x0002903c       0x70 examples/pb_remote/client/CMakeFiles/pb_remote_client_nrf52832_xxAA_s132_5.0.0.dir/__/__/__/mesh/access/src/device_state_manager.c.obj
                0x0002903c                dsm_appkey_add
 .text.dsm_tx_secmat_get
                0x000290ac       0xe8 examples/pb_remote/client/CMakeFiles/pb_remote_client_nrf52832_xxAA_s132_5.0.0.dir/__/__/__/mesh/access/src/device_state_manager.c.obj
                0x000290ac                dsm_tx_secmat_get
 .text.nrf_mesh_net_secmat_next_get
                0x00029194       0x50 examples/pb_remote/client/CMakeFiles/pb_remote_client_nrf52832_xxAA_s132_5.0.0.dir/__/__/__/mesh/access/src/device_state_manager.c.obj
                0x00029194                nrf_mesh_net_secmat_next_get
 .text.nrf_mesh_app_secmat_next_get
                0x000291e4       0x84 examples/pb_remote/client/CMakeFiles/pb_remote_client_nrf52832_xxAA_s132_5.0.0.dir/__/__/__/mesh/access/src/device_state_manager.c.obj
                0x000291e4                nrf_mesh_app_secmat_next_get
 .text.nrf_mesh_devkey_secmat_get
                0x00029268       0x44 examples/pb_remote/client/CMakeFiles/pb_remote_client_nrf52832_xxAA_s132_5.0.0.dir/__/__/__/mesh/access/src/device_state_manager.c.obj
                0x00029268                nrf_mesh_devkey_secmat_get
 .text.nrf_mesh_beacon_info_next_get
                0x000292ac       0x74 examples/pb_remote/client/CMakeFiles/pb_remote_client_nrf52832_xxAA_s132_5.0.0.dir/__/__/__/mesh/access/src/device_state_manager.c.obj
                0x000292ac                nrf_mesh_beacon_info_next_get
 .text.nrf_mesh_rx_address_get
                0x00029320       0xfc examples/pb_remote/client/CMakeFiles/pb_remote_client_nrf52832_xxAA_s132_5.0.0.dir/__/__/__/mesh/access/src/device_state_manager.c.obj
                0x00029320                nrf_mesh_rx_address_get
 .text._weak_handler
                0x0002941c        0x4 examples/pb_remote/client/CMakeFiles/pb_remote_client_nrf52832_xxAA_s132_5.0.0.dir/__/__/nrf_mesh_weak.c.obj
                0x0002941c                nrf_mesh_dfu_init
                0x0002941c                nrf_mesh_dfu_jump_to_bootloader
                0x0002941c                nrf_mesh_dfu_rx
                0x0002941c                nrf_mesh_dfu_bank_info_get
                0x0002941c                nrf_mesh_dfu_request
                0x0002941c                nrf_mesh_dfu_bank_flash
                0x0002941c                _weak_handler
                0x0002941c                prov_provisionee_auth_data
                0x0002941c                nrf_mesh_dfu_relay
                0x0002941c                prov_provisionee_shared_secret
                0x0002941c                nrf_mesh_dfu_abort
                0x0002941c                mesh_flash_op_execute
                0x0002941c                prov_provisionee_init
                0x0002941c                nrf_mesh_dfu_state_get
 .text.errata_57
                0x00029420       0x34 examples/pb_remote/client/CMakeFiles/pb_remote_client_nrf52832_xxAA_s132_5.0.0.dir/__/__/__/external/nRF5_SDK_14.0.0_3bcc1f7/components/toolchain/system_nrf52.c.obj
 .text.errata_136
                0x00029454       0x40 examples/pb_remote/client/CMakeFiles/pb_remote_client_nrf52832_xxAA_s132_5.0.0.dir/__/__/__/external/nRF5_SDK_14.0.0_3bcc1f7/components/toolchain/system_nrf52.c.obj
 .text.SystemInit
                0x00029494      0x238 examples/pb_remote/client/CMakeFiles/pb_remote_client_nrf52832_xxAA_s132_5.0.0.dir/__/__/__/external/nRF5_SDK_14.0.0_3bcc1f7/components/toolchain/system_nrf52.c.obj
                0x00029494                SystemInit
 .text          0x000296cc       0x3c examples/pb_remote/client/CMakeFiles/pb_remote_client_nrf52832_xxAA_s132_5.0.0.dir/__/__/__/external/nRF5_SDK_14.0.0_3bcc1f7/components/toolchain/gcc/gcc_startup_nrf52.S.obj
                0x000296cc                Reset_Handler
                0x000296f4                NMI_Handler
                0x000296f8                MemoryManagement_Handler
                0x000296fa                BusFault_Handler
                0x000296fc                UsageFault_Handler
                0x000296fe                SVC_Handler
                0x00029700                DebugMon_Handler
                0x00029702                PendSV_Handler
                0x00029704                SysTick_Handler
                0x00029706                POWER_CLOCK_IRQHandler
                0x00029706                RADIO_IRQHandler
                0x00029706                PDM_IRQHandler
                0x00029706                TEMP_IRQHandler
                0x00029706                TIMER3_IRQHandler
                0x00029706                FPU_IRQHandler
                0x00029706                SPIM0_SPIS0_TWIM0_TWIS0_SPI0_TWI0_IRQHandler
                0x00029706                PWM1_IRQHandler
                0x00029706                UARTE0_UART0_IRQHandler
                0x00029706                TIMER4_IRQHandler
                0x00029706                RTC0_IRQHandler
                0x00029706                SWI4_EGU4_IRQHandler
                0x00029706                TIMER0_IRQHandler
                0x00029706                GPIOTE_IRQHandler
                0x00029706                TIMER1_IRQHandler
                0x00029706                PWM2_IRQHandler
                0x00029706                ECB_IRQHandler
                0x00029706                SPIM1_SPIS1_TWIM1_TWIS1_SPI1_TWI1_IRQHandler
                0x00029706                Default_Handler
                0x00029706                SAADC_IRQHandler
                0x00029706                CCM_AAR_IRQHandler
                0x00029706                WDT_IRQHandler
                0x00029706                I2S_IRQHandler
                0x00029706                SWI5_EGU5_IRQHandler
                0x00029706                RNG_IRQHandler
                0x00029706                RTC2_IRQHandler
                0x00029706                PWM0_IRQHandler
                0x00029706                SWI3_EGU3_IRQHandler
                0x00029706                RTC1_IRQHandler
                0x00029706                SWI1_EGU1_IRQHandler
                0x00029706                SPIM2_SPIS2_SPI2_IRQHandler
                0x00029706                NFCT_IRQHandler
                0x00029706                SWI0_EGU0_IRQHandler
                0x00029706                MWU_IRQHandler
                0x00029706                TIMER2_IRQHandler
                0x00029706                COMP_LPCOMP_IRQHandler
 .text.nrf_mesh_configure_device_uuid_reset
                0x00029708       0x28 mesh/core/libmesh_core_nrf52832_xxAA.a(nrf_mesh_configure.c.obj)
                0x00029708                nrf_mesh_configure_device_uuid_reset
 .text.nrf_mesh_configure_device_uuid_get
                0x00029730        0x8 mesh/core/libmesh_core_nrf52832_xxAA.a(nrf_mesh_configure.c.obj)
                0x00029730                nrf_mesh_configure_device_uuid_get
 .text.event_handle
                0x00029738       0x30 mesh/core/libmesh_core_nrf52832_xxAA.a(event.c.obj)
                0x00029738                event_handle
 .text.event_handler_add
                0x00029768       0x78 mesh/core/libmesh_core_nrf52832_xxAA.a(event.c.obj)
                0x00029768                event_handler_add
 .text.fifo_init
                0x000297e0       0x50 mesh/core/libmesh_core_nrf52832_xxAA.a(fifo.c.obj)
                0x000297e0                fifo_init
 .text.fifo_push
                0x00029830       0x50 mesh/core/libmesh_core_nrf52832_xxAA.a(fifo.c.obj)
                0x00029830                fifo_push
 .text.fifo_pop
                0x00029880       0x52 mesh/core/libmesh_core_nrf52832_xxAA.a(fifo.c.obj)
                0x00029880                fifo_pop
 *fill*         0x000298d2        0x2 
 .text.flash_mem_available
                0x000298d4       0x20 mesh/core/libmesh_core_nrf52832_xxAA.a(net_state.c.obj)
 .text.flash_store_iv_index
                0x000298f4       0x38 mesh/core/libmesh_core_nrf52832_xxAA.a(net_state.c.obj)
 .text.seqnum_block_allocate
                0x0002992c       0x48 mesh/core/libmesh_core_nrf52832_xxAA.a(net_state.c.obj)
 .text.flash_write_complete
                0x00029974       0x78 mesh/core/libmesh_core_nrf52832_xxAA.a(net_state.c.obj)
 .text.net_state_recover_from_flash
                0x000299ec       0x84 mesh/core/libmesh_core_nrf52832_xxAA.a(net_state.c.obj)
                0x000299ec                net_state_recover_from_flash
 .text.net_state_flash_area_get
                0x00029a70        0xc mesh/core/libmesh_core_nrf52832_xxAA.a(net_state.c.obj)
                0x00029a70                net_state_flash_area_get
 .text.init_flash_storage
                0x00029a7c       0x40 mesh/core/libmesh_core_nrf52832_xxAA.a(net_state.c.obj)
 .text.net_state_init
                0x00029abc       0x48 mesh/core/libmesh_core_nrf52832_xxAA.a(net_state.c.obj)
                0x00029abc                net_state_init
 .text.net_state_iv_update_start
                0x00029b04       0x64 mesh/core/libmesh_core_nrf52832_xxAA.a(net_state.c.obj)
                0x00029b04                net_state_iv_update_start
 .text.iv_update_trigger_if_pending
                0x00029b68       0x8c mesh/core/libmesh_core_nrf52832_xxAA.a(net_state.c.obj)
 .text.iv_update_timer_handler
                0x00029bf4       0x74 mesh/core/libmesh_core_nrf52832_xxAA.a(net_state.c.obj)
 .text.net_state_seqnum_alloc
                0x00029c68       0x68 mesh/core/libmesh_core_nrf52832_xxAA.a(net_state.c.obj)
                0x00029c68                net_state_seqnum_alloc
 .text.net_state_iv_index_lock
                0x00029cd0       0x48 mesh/core/libmesh_core_nrf52832_xxAA.a(net_state.c.obj)
                0x00029cd0                net_state_iv_index_lock
 .text.net_state_beacon_received
                0x00029d18       0x94 mesh/core/libmesh_core_nrf52832_xxAA.a(net_state.c.obj)
                0x00029d18                net_state_beacon_received
 .text.net_state_beacon_iv_index_get
                0x00029dac        0xc mesh/core/libmesh_core_nrf52832_xxAA.a(net_state.c.obj)
                0x00029dac                net_state_beacon_iv_index_get
 .text.net_state_tx_iv_index_get
                0x00029db8       0x14 mesh/core/libmesh_core_nrf52832_xxAA.a(net_state.c.obj)
                0x00029db8                net_state_tx_iv_index_get
 .text.net_state_rx_iv_index_get
                0x00029dcc       0x18 mesh/core/libmesh_core_nrf52832_xxAA.a(net_state.c.obj)
                0x00029dcc                net_state_rx_iv_index_get
 .text.net_state_iv_update_get
                0x00029de4        0xc mesh/core/libmesh_core_nrf52832_xxAA.a(net_state.c.obj)
                0x00029de4                net_state_iv_update_get
 .text.nrf_mesh_address_type_get
                0x00029df0       0x10 mesh/core/libmesh_core_nrf52832_xxAA.a(nrf_mesh_utils.c.obj)
                0x00029df0                nrf_mesh_address_type_get
 .text.sd_softdevice_is_enabled
                0x00029e00        0x4 mesh/core/libmesh_core_nrf52832_xxAA.a(nrf_mesh.c.obj)
 .text.nrf_mesh_init
                0x00029e04       0xb0 mesh/core/libmesh_core_nrf52832_xxAA.a(nrf_mesh.c.obj)
                0x00029e04                nrf_mesh_init
 .text.nrf_mesh_enable
                0x00029eb4       0x48 mesh/core/libmesh_core_nrf52832_xxAA.a(nrf_mesh.c.obj)
                0x00029eb4                nrf_mesh_enable
 .text.nrf_mesh_packet_send
                0x00029efc        0x4 mesh/core/libmesh_core_nrf52832_xxAA.a(nrf_mesh.c.obj)
                0x00029efc                nrf_mesh_packet_send
 .text.nrf_mesh_process
                0x00029f00      0x1c0 mesh/core/libmesh_core_nrf52832_xxAA.a(nrf_mesh.c.obj)
                0x00029f00                nrf_mesh_process
 .text.nrf_mesh_on_ble_evt
                0x0002a0c0        0x4 mesh/core/libmesh_core_nrf52832_xxAA.a(nrf_mesh.c.obj)
                0x0002a0c0                nrf_mesh_on_ble_evt
 .text.nrf_mesh_on_sd_evt
                0x0002a0c4        0xa mesh/core/libmesh_core_nrf52832_xxAA.a(nrf_mesh.c.obj)
                0x0002a0c4                nrf_mesh_on_sd_evt
 .text.nrf_mesh_evt_handler_add
                0x0002a0ce        0x4 mesh/core/libmesh_core_nrf52832_xxAA.a(nrf_mesh.c.obj)
                0x0002a0ce                nrf_mesh_evt_handler_add
 *fill*         0x0002a0d2        0x2 
 .text.hal_lfclk_ppm_get
                0x0002a0d4       0x14 mesh/core/libmesh_core_nrf52832_xxAA.a(hal.c.obj)
                0x0002a0d4                hal_lfclk_ppm_get
 .text.add_to_add_list
                0x0002a0e8       0x44 mesh/core/libmesh_core_nrf52832_xxAA.a(timer_scheduler.c.obj)
 .text.process_dirty_events
                0x0002a12c       0x6c mesh/core/libmesh_core_nrf52832_xxAA.a(timer_scheduler.c.obj)
 .text.timer_cb
                0x0002a198        0xc mesh/core/libmesh_core_nrf52832_xxAA.a(timer_scheduler.c.obj)
 .text.add_evt.constprop.0
                0x0002a1a4       0x68 mesh/core/libmesh_core_nrf52832_xxAA.a(timer_scheduler.c.obj)
 .text.process_add_list
                0x0002a20c       0x48 mesh/core/libmesh_core_nrf52832_xxAA.a(timer_scheduler.c.obj)
 .text.flag_event_cb
                0x0002a254      0x104 mesh/core/libmesh_core_nrf52832_xxAA.a(timer_scheduler.c.obj)
 .text.timer_sch_init
                0x0002a358       0x24 mesh/core/libmesh_core_nrf52832_xxAA.a(timer_scheduler.c.obj)
                0x0002a358                timer_sch_init
 .text.timer_sch_schedule
                0x0002a37c       0x50 mesh/core/libmesh_core_nrf52832_xxAA.a(timer_scheduler.c.obj)
                0x0002a37c                timer_sch_schedule
 .text.timer_sch_abort
                0x0002a3cc       0x64 mesh/core/libmesh_core_nrf52832_xxAA.a(timer_scheduler.c.obj)
                0x0002a3cc                timer_sch_abort
 .text.timer_sch_reschedule
                0x0002a430       0x70 mesh/core/libmesh_core_nrf52832_xxAA.a(timer_scheduler.c.obj)
                0x0002a430                timer_sch_reschedule
 .text.timer_mut_unlock
                0x0002a4a0       0x10 mesh/core/libmesh_core_nrf52832_xxAA.a(timer.c.obj)
 .text.timer_order_cb
                0x0002a4b0       0x94 mesh/core/libmesh_core_nrf52832_xxAA.a(timer.c.obj)
                0x0002a4b0                timer_order_cb
 .text.timer_now
                0x0002a544       0x48 mesh/core/libmesh_core_nrf52832_xxAA.a(timer.c.obj)
                0x0002a544                timer_now
 .text.timer_event_handler
                0x0002a58c       0x90 mesh/core/libmesh_core_nrf52832_xxAA.a(timer.c.obj)
                0x0002a58c                timer_event_handler
 .text.timer_on_ts_begin
                0x0002a61c       0xfc mesh/core/libmesh_core_nrf52832_xxAA.a(timer.c.obj)
                0x0002a61c                timer_on_ts_begin
 .text.timer_on_ts_end
                0x0002a718       0x60 mesh/core/libmesh_core_nrf52832_xxAA.a(timer.c.obj)
                0x0002a718                timer_on_ts_end
 .text.timer_cb
                0x0002a778       0x10 mesh/core/libmesh_core_nrf52832_xxAA.a(ticker.c.obj)
 .text.ticker_init
                0x0002a788       0x3c mesh/core/libmesh_core_nrf52832_xxAA.a(ticker.c.obj)
                0x0002a788                ticker_init
 .text.sd_rand_application_bytes_available_get
                0x0002a7c4        0x4 mesh/core/libmesh_core_nrf52832_xxAA.a(rand.c.obj)
 .text.sd_rand_application_vector_get
                0x0002a7c8        0x4 mesh/core/libmesh_core_nrf52832_xxAA.a(rand.c.obj)
 .text.rand_prng_get
                0x0002a7cc       0x22 mesh/core/libmesh_core_nrf52832_xxAA.a(rand.c.obj)
                0x0002a7cc                rand_prng_get
 *fill*         0x0002a7ee        0x2 
 .text.rand_hw_rng_get
                0x0002a7f0       0x50 mesh/core/libmesh_core_nrf52832_xxAA.a(rand.c.obj)
                0x0002a7f0                rand_hw_rng_get
 .text.rand_prng_seed
                0x0002a840       0x34 mesh/core/libmesh_core_nrf52832_xxAA.a(rand.c.obj)
                0x0002a840                rand_prng_seed
 .text.sd_radio_session_open
                0x0002a874        0x4 mesh/core/libmesh_core_nrf52832_xxAA.a(timeslot.c.obj)
 .text.sd_radio_session_close
                0x0002a878        0x4 mesh/core/libmesh_core_nrf52832_xxAA.a(timeslot.c.obj)
 .text.sd_radio_request
                0x0002a87c        0x4 mesh/core/libmesh_core_nrf52832_xxAA.a(timeslot.c.obj)
 .text.end_timer_handler
                0x0002a880       0x24 mesh/core/libmesh_core_nrf52832_xxAA.a(timeslot.c.obj)
 .text.get_end_time.constprop.10
                0x0002a8a4       0x28 mesh/core/libmesh_core_nrf52832_xxAA.a(timeslot.c.obj)
 .text.handle_extend_end.constprop.3
                0x0002a8cc       0xc0 mesh/core/libmesh_core_nrf52832_xxAA.a(timeslot.c.obj)
 .text.radio_signal_callback
                0x0002a98c      0x14c mesh/core/libmesh_core_nrf52832_xxAA.a(timeslot.c.obj)
 .text.timeslot_sd_event_handler
                0x0002aad8       0x44 mesh/core/libmesh_core_nrf52832_xxAA.a(timeslot.c.obj)
                0x0002aad8                timeslot_sd_event_handler
 .text.timeslot_init
                0x0002ab1c       0x48 mesh/core/libmesh_core_nrf52832_xxAA.a(timeslot.c.obj)
                0x0002ab1c                timeslot_init
 .text.timeslot_start
                0x0002ab64       0x20 mesh/core/libmesh_core_nrf52832_xxAA.a(timeslot.c.obj)
                0x0002ab64                timeslot_start
 .text.timeslot_end_is_pending
                0x0002ab84       0x24 mesh/core/libmesh_core_nrf52832_xxAA.a(timeslot.c.obj)
                0x0002ab84                timeslot_end_is_pending
 .text.timeslot_start_time_get
                0x0002aba8        0xc mesh/core/libmesh_core_nrf52832_xxAA.a(timeslot.c.obj)
                0x0002aba8                timeslot_start_time_get
 .text.timeslot_remaining_time_get
                0x0002abb4       0x20 mesh/core/libmesh_core_nrf52832_xxAA.a(timeslot.c.obj)
                0x0002abb4                timeslot_remaining_time_get
 .text.timeslot_is_in_cb
                0x0002abd4        0xc mesh/core/libmesh_core_nrf52832_xxAA.a(timeslot.c.obj)
                0x0002abd4                timeslot_is_in_cb
 .text.timeslot_trigger
                0x0002abe0       0x24 mesh/core/libmesh_core_nrf52832_xxAA.a(timeslot.c.obj)
                0x0002abe0                timeslot_trigger
 .text.timeslot_stop
                0x0002ac04       0x10 mesh/core/libmesh_core_nrf52832_xxAA.a(timeslot.c.obj)
                0x0002ac04                timeslot_stop
 .text.timeslot_state_lock
                0x0002ac14       0x28 mesh/core/libmesh_core_nrf52832_xxAA.a(timeslot.c.obj)
                0x0002ac14                timeslot_state_lock
 .text.evt_push
                0x0002ac3c       0x24 mesh/core/libmesh_core_nrf52832_xxAA.a(bearer_event.c.obj)
 .text.QDEC_IRQHandler
                0x0002ac60       0xc4 mesh/core/libmesh_core_nrf52832_xxAA.a(bearer_event.c.obj)
                0x0002ac60                QDEC_IRQHandler
 .text.bearer_event_init
                0x0002ad24       0x38 mesh/core/libmesh_core_nrf52832_xxAA.a(bearer_event.c.obj)
                0x0002ad24                bearer_event_init
 .text.bearer_event_timer_post
                0x0002ad5c       0x30 mesh/core/libmesh_core_nrf52832_xxAA.a(bearer_event.c.obj)
                0x0002ad5c                bearer_event_timer_post
 .text.bearer_event_critical_section_begin
                0x0002ad8c       0x44 mesh/core/libmesh_core_nrf52832_xxAA.a(bearer_event.c.obj)
                0x0002ad8c                bearer_event_critical_section_begin
 .text.bearer_event_critical_section_end
                0x0002add0       0x40 mesh/core/libmesh_core_nrf52832_xxAA.a(bearer_event.c.obj)
                0x0002add0                bearer_event_critical_section_end
 .text.bearer_event_flag_add
                0x0002ae10       0x50 mesh/core/libmesh_core_nrf52832_xxAA.a(bearer_event.c.obj)
                0x0002ae10                bearer_event_flag_add
 .text.bearer_event_flag_set
                0x0002ae60       0x58 mesh/core/libmesh_core_nrf52832_xxAA.a(bearer_event.c.obj)
                0x0002ae60                bearer_event_flag_set
 .text.bearer_event_sequential_add
                0x0002aeb8       0x44 mesh/core/libmesh_core_nrf52832_xxAA.a(bearer_event.c.obj)
                0x0002aeb8                bearer_event_sequential_add
 .text.bearer_event_sequential_post
                0x0002aefc       0x64 mesh/core/libmesh_core_nrf52832_xxAA.a(bearer_event.c.obj)
                0x0002aefc                bearer_event_sequential_post
 .text.bearer_event_sequential_pending
                0x0002af60       0x1c mesh/core/libmesh_core_nrf52832_xxAA.a(bearer_event.c.obj)
                0x0002af60                bearer_event_sequential_pending
 .text.enc_aes_encrypt
                0x0002af7c        0x4 mesh/core/libmesh_core_nrf52832_xxAA.a(enc.c.obj)
                0x0002af7c                enc_aes_encrypt
 .text.enc_aes_cmac
                0x0002af80        0x4 mesh/core/libmesh_core_nrf52832_xxAA.a(enc.c.obj)
                0x0002af80                enc_aes_cmac
 .text.enc_aes_ccm_encrypt
                0x0002af84        0x4 mesh/core/libmesh_core_nrf52832_xxAA.a(enc.c.obj)
                0x0002af84                enc_aes_ccm_encrypt
 .text.enc_aes_ccm_decrypt
                0x0002af88        0x4 mesh/core/libmesh_core_nrf52832_xxAA.a(enc.c.obj)
                0x0002af88                enc_aes_ccm_decrypt
 .text.enc_nonce_generate
                0x0002af8c       0xb8 mesh/core/libmesh_core_nrf52832_xxAA.a(enc.c.obj)
                0x0002af8c                enc_nonce_generate
 .text.enc_s1   0x0002b044       0x38 mesh/core/libmesh_core_nrf52832_xxAA.a(enc.c.obj)
                0x0002b044                enc_s1
 .text.enc_k1   0x0002b07c       0x48 mesh/core/libmesh_core_nrf52832_xxAA.a(enc.c.obj)
                0x0002b07c                enc_k1
 .text.enc_k2   0x0002b0c4       0xd8 mesh/core/libmesh_core_nrf52832_xxAA.a(enc.c.obj)
                0x0002b0c4                enc_k2
 .text.enc_k3   0x0002b19c       0x68 mesh/core/libmesh_core_nrf52832_xxAA.a(enc.c.obj)
                0x0002b19c                enc_k3
 .text.enc_k4   0x0002b204       0x60 mesh/core/libmesh_core_nrf52832_xxAA.a(enc.c.obj)
                0x0002b204                enc_k4
 .text.header_transfuscate
                0x0002b264       0x54 mesh/core/libmesh_core_nrf52832_xxAA.a(network.c.obj)
 .text.allocate_packet
                0x0002b2b8      0x14c mesh/core/libmesh_core_nrf52832_xxAA.a(network.c.obj)
 .text.network_init
                0x0002b404       0x2c mesh/core/libmesh_core_nrf52832_xxAA.a(network.c.obj)
                0x0002b404                network_init
 .text.network_packet_alloc
                0x0002b430       0x50 mesh/core/libmesh_core_nrf52832_xxAA.a(network.c.obj)
                0x0002b430                network_packet_alloc
 .text.network_packet_send
                0x0002b480      0x140 mesh/core/libmesh_core_nrf52832_xxAA.a(network.c.obj)
                0x0002b480                network_packet_send
 .text.network_packet_in
                0x0002b5c0      0x450 mesh/core/libmesh_core_nrf52832_xxAA.a(network.c.obj)
                0x0002b5c0                network_packet_in
 .text.nrf_mesh_keygen_aid
                0x0002ba10       0x12 mesh/core/libmesh_core_nrf52832_xxAA.a(nrf_mesh_keygen.c.obj)
                0x0002ba10                nrf_mesh_keygen_aid
 .text.nrf_mesh_keygen_network_secmat
                0x0002ba22       0x20 mesh/core/libmesh_core_nrf52832_xxAA.a(nrf_mesh_keygen.c.obj)
                0x0002ba22                nrf_mesh_keygen_network_secmat
 *fill*         0x0002ba42        0x2 
 .text.nrf_mesh_keygen_beacon_secmat
                0x0002ba44       0x50 mesh/core/libmesh_core_nrf52832_xxAA.a(nrf_mesh_keygen.c.obj)
                0x0002ba44                nrf_mesh_keygen_beacon_secmat
 .text.nrf_mesh_keygen_virtual_address
                0x0002ba94       0x50 mesh/core/libmesh_core_nrf52832_xxAA.a(nrf_mesh_keygen.c.obj)
                0x0002ba94                nrf_mesh_keygen_virtual_address
 .text.log_callback_rtt
                0x0002bae4       0x2c mesh/core/libmesh_core_nrf52832_xxAA.a(log.c.obj)
                0x0002bae4                log_callback_rtt
 .text.log_init
                0x0002bb10       0x1c mesh/core/libmesh_core_nrf52832_xxAA.a(log.c.obj)
                0x0002bb10                log_init
 .text.log_vprintf
                0x0002bb2c       0x18 mesh/core/libmesh_core_nrf52832_xxAA.a(log.c.obj)
                0x0002bb2c                log_vprintf
 .text.log_printf
                0x0002bb44       0x18 mesh/core/libmesh_core_nrf52832_xxAA.a(log.c.obj)
                0x0002bb44                log_printf
 .text.get_area_end
                0x0002bb5c        0xc mesh/core/libmesh_core_nrf52832_xxAA.a(flash_manager.c.obj)
 .text.handle_matches_filter
                0x0002bb68       0x26 mesh/core/libmesh_core_nrf52832_xxAA.a(flash_manager.c.obj)
 *fill*         0x0002bb8e        0x2 
 .text.get_packet_buffer
                0x0002bb90       0x2c mesh/core/libmesh_core_nrf52832_xxAA.a(flash_manager.c.obj)
 .text.get_entry_action
                0x0002bbbc       0x30 mesh/core/libmesh_core_nrf52832_xxAA.a(flash_manager.c.obj)
 .text.flash_area_is_blank
                0x0002bbec       0x48 mesh/core/libmesh_core_nrf52832_xxAA.a(flash_manager.c.obj)
 .text.flash    0x0002bc34       0x1c mesh/core/libmesh_core_nrf52832_xxAA.a(flash_manager.c.obj)
 .text.free_packet_buffer
                0x0002bc50       0x54 mesh/core/libmesh_core_nrf52832_xxAA.a(flash_manager.c.obj)
 .text.reserve_action_buffer
                0x0002bca4       0x24 mesh/core/libmesh_core_nrf52832_xxAA.a(flash_manager.c.obj)
 .text.commit_action_buffer
                0x0002bcc8       0x18 mesh/core/libmesh_core_nrf52832_xxAA.a(flash_manager.c.obj)
 .text.schedule_processing
                0x0002bce0        0xc mesh/core/libmesh_core_nrf52832_xxAA.a(flash_manager.c.obj)
 .text.get_next_entry
                0x0002bcec       0x40 mesh/core/libmesh_core_nrf52832_xxAA.a(flash_manager.c.obj)
 .text.get_last_entry.isra.1
                0x0002bd2c       0x30 mesh/core/libmesh_core_nrf52832_xxAA.a(flash_manager.c.obj)
 .text.process_action_queue
                0x0002bd5c      0x4e0 mesh/core/libmesh_core_nrf52832_xxAA.a(flash_manager.c.obj)
 .text.flash_op_ended_callback
                0x0002c23c       0x24 mesh/core/libmesh_core_nrf52832_xxAA.a(flash_manager.c.obj)
 .text.flash_manager_init
                0x0002c260       0x68 mesh/core/libmesh_core_nrf52832_xxAA.a(flash_manager.c.obj)
                0x0002c260                flash_manager_init
 .text.flash_manager_entry_next_get
                0x0002c2c8       0x6c mesh/core/libmesh_core_nrf52832_xxAA.a(flash_manager.c.obj)
                0x0002c2c8                flash_manager_entry_next_get
 .text.flash_manager_entry_alloc
                0x0002c334       0x78 mesh/core/libmesh_core_nrf52832_xxAA.a(flash_manager.c.obj)
                0x0002c334                flash_manager_entry_alloc
 .text.flash_manager_entry_commit
                0x0002c3ac       0x12 mesh/core/libmesh_core_nrf52832_xxAA.a(flash_manager.c.obj)
                0x0002c3ac                flash_manager_entry_commit
 *fill*         0x0002c3be        0x2 
 .text.flash_manager_entry_invalidate
                0x0002c3c0       0x64 mesh/core/libmesh_core_nrf52832_xxAA.a(flash_manager.c.obj)
                0x0002c3c0                flash_manager_entry_invalidate
 .text.flash_manager_add
                0x0002c424      0x248 mesh/core/libmesh_core_nrf52832_xxAA.a(flash_manager.c.obj)
                0x0002c424                flash_manager_add
 .text.flash_manager_mem_listener_register
                0x0002c66c       0x44 mesh/core/libmesh_core_nrf52832_xxAA.a(flash_manager.c.obj)
                0x0002c66c                flash_manager_mem_listener_register
 .text.flash_manager_is_stable
                0x0002c6b0       0x24 mesh/core/libmesh_core_nrf52832_xxAA.a(flash_manager.c.obj)
                0x0002c6b0                flash_manager_is_stable
 .text.flash_manager_on_defrag_end
                0x0002c6d4       0x58 mesh/core/libmesh_core_nrf52832_xxAA.a(flash_manager.c.obj)
                0x0002c6d4                flash_manager_on_defrag_end
 .text.flash_manager_recovery_page_get
                0x0002c72c        0x4 mesh/core/libmesh_core_nrf52832_xxAA.a(flash_manager.c.obj)
                0x0002c72c                flash_manager_recovery_page_get
 .text.utils_xor
                0x0002c730       0x14 mesh/core/libmesh_core_nrf52832_xxAA.a(ccm_soft.c.obj)
 .text.ccm_soft_authenticate_blocks
                0x0002c744       0x68 mesh/core/libmesh_core_nrf52832_xxAA.a(ccm_soft.c.obj)
 .text.utils_reverse_memcpy.constprop.0
                0x0002c7ac        0xa mesh/core/libmesh_core_nrf52832_xxAA.a(ccm_soft.c.obj)
 .text.ccm_soft_authenticate
                0x0002c7b6       0xa0 mesh/core/libmesh_core_nrf52832_xxAA.a(ccm_soft.c.obj)
 .text.ccm_soft_crypt
                0x0002c856       0x6c mesh/core/libmesh_core_nrf52832_xxAA.a(ccm_soft.c.obj)
 .text.ccm_soft_encrypt
                0x0002c8c2       0x70 mesh/core/libmesh_core_nrf52832_xxAA.a(ccm_soft.c.obj)
                0x0002c8c2                ccm_soft_encrypt
 .text.ccm_soft_decrypt
                0x0002c932       0xfe mesh/core/libmesh_core_nrf52832_xxAA.a(ccm_soft.c.obj)
                0x0002c932                ccm_soft_decrypt
 .text.beacon_init
                0x0002ca30       0x48 mesh/core/libmesh_core_nrf52832_xxAA.a(beacon.c.obj)
                0x0002ca30                beacon_init
 .text.beacon_create
                0x0002ca78       0x46 mesh/core/libmesh_core_nrf52832_xxAA.a(beacon.c.obj)
                0x0002ca78                beacon_create
 *fill*         0x0002cabe        0x2 
 .text.beacon_tx
                0x0002cac0       0x3c mesh/core/libmesh_core_nrf52832_xxAA.a(beacon.c.obj)
                0x0002cac0                beacon_tx
 .text.beacon_packet_in
                0x0002cafc      0x160 mesh/core/libmesh_core_nrf52832_xxAA.a(beacon.c.obj)
                0x0002cafc                beacon_packet_in
 .text.entry_get
                0x0002cc5c       0x88 mesh/core/libmesh_core_nrf52832_xxAA.a(flash_manager_internal.c.obj)
                0x0002cc5c                entry_get
 .text.adv_tx_complete_callback
                0x0002cce4       0x50 mesh/core/libmesh_core_nrf52832_xxAA.a(core_tx.c.obj)
 .text.core_tx_init
                0x0002cd34       0x4c mesh/core/libmesh_core_nrf52832_xxAA.a(core_tx.c.obj)
                0x0002cd34                core_tx_init
 .text.core_tx_complete_cb_set
                0x0002cd80        0xc mesh/core/libmesh_core_nrf52832_xxAA.a(core_tx.c.obj)
                0x0002cd80                core_tx_complete_cb_set
 .text.core_tx_packet_alloc
                0x0002cd8c       0x98 mesh/core/libmesh_core_nrf52832_xxAA.a(core_tx.c.obj)
                0x0002cd8c                core_tx_packet_alloc
 .text.core_tx_packet_send
                0x0002ce24       0x6c mesh/core/libmesh_core_nrf52832_xxAA.a(core_tx.c.obj)
                0x0002ce24                core_tx_packet_send
 .text.core_tx_packet_discard
                0x0002ce90       0x6c mesh/core/libmesh_core_nrf52832_xxAA.a(core_tx.c.obj)
                0x0002ce90                core_tx_packet_discard
 .text.network_beacon_tx_cb
                0x0002cefc       0xe0 mesh/core/libmesh_core_nrf52832_xxAA.a(net_beacon.c.obj)
 .text.net_beacon_init
                0x0002cfdc       0x60 mesh/core/libmesh_core_nrf52832_xxAA.a(net_beacon.c.obj)
                0x0002cfdc                net_beacon_init
 .text.net_beacon_packet_in
                0x0002d03c       0xb8 mesh/core/libmesh_core_nrf52832_xxAA.a(net_beacon.c.obj)
                0x0002d03c                net_beacon_packet_in
 .text.set_gap_addr_type
                0x0002d0f4       0x34 mesh/core/libmesh_core_nrf52832_xxAA.a(advertiser.c.obj)
 .text.tx_complete_event_callback
                0x0002d128       0x3c mesh/core/libmesh_core_nrf52832_xxAA.a(advertiser.c.obj)
 .text.broadcast_complete_cb
                0x0002d164       0x64 mesh/core/libmesh_core_nrf52832_xxAA.a(advertiser.c.obj)
 .text.schedule_first_time
                0x0002d1c8       0x28 mesh/core/libmesh_core_nrf52832_xxAA.a(advertiser.c.obj)
 .text.timeout_event
                0x0002d1f0      0x130 mesh/core/libmesh_core_nrf52832_xxAA.a(advertiser.c.obj)
 .text.advertiser_init
                0x0002d320        0xc mesh/core/libmesh_core_nrf52832_xxAA.a(advertiser.c.obj)
                0x0002d320                advertiser_init
 .text.advertiser_enable
                0x0002d32c       0x2a mesh/core/libmesh_core_nrf52832_xxAA.a(advertiser.c.obj)
                0x0002d32c                advertiser_enable
 *fill*         0x0002d356        0x2 
 .text.advertiser_packet_alloc
                0x0002d358       0x94 mesh/core/libmesh_core_nrf52832_xxAA.a(advertiser.c.obj)
                0x0002d358                advertiser_packet_alloc
 .text.advertiser_packet_send
                0x0002d3ec       0x78 mesh/core/libmesh_core_nrf52832_xxAA.a(advertiser.c.obj)
                0x0002d3ec                advertiser_packet_send
 .text.advertiser_packet_discard
                0x0002d464       0x2c mesh/core/libmesh_core_nrf52832_xxAA.a(advertiser.c.obj)
                0x0002d464                advertiser_packet_discard
 .text.advertiser_interval_set
                0x0002d490       0x68 mesh/core/libmesh_core_nrf52832_xxAA.a(advertiser.c.obj)
                0x0002d490                advertiser_interval_set
 .text.advertiser_flush
                0x0002d4f8       0x1e mesh/core/libmesh_core_nrf52832_xxAA.a(advertiser.c.obj)
                0x0002d4f8                advertiser_flush
 *fill*         0x0002d516        0x2 
 .text.advertiser_address_default_get
                0x0002d518       0x38 mesh/core/libmesh_core_nrf52832_xxAA.a(advertiser.c.obj)
                0x0002d518                advertiser_address_default_get
 .text.advertiser_instance_init
                0x0002d550       0xbc mesh/core/libmesh_core_nrf52832_xxAA.a(advertiser.c.obj)
                0x0002d550                advertiser_instance_init
 .text.action_switch
                0x0002d60c       0xc0 mesh/core/libmesh_core_nrf52832_xxAA.a(bearer_handler.c.obj)
 .text.bearer_handler_init
                0x0002d6cc       0x2c mesh/core/libmesh_core_nrf52832_xxAA.a(bearer_handler.c.obj)
                0x0002d6cc                bearer_handler_init
 .text.bearer_handler_start
                0x0002d6f8       0x1c mesh/core/libmesh_core_nrf52832_xxAA.a(bearer_handler.c.obj)
                0x0002d6f8                bearer_handler_start
 .text.bearer_handler_action_enqueue
                0x0002d714       0x94 mesh/core/libmesh_core_nrf52832_xxAA.a(bearer_handler.c.obj)
                0x0002d714                bearer_handler_action_enqueue
 .text.bearer_handler_action_end
                0x0002d7a8       0x78 mesh/core/libmesh_core_nrf52832_xxAA.a(bearer_handler.c.obj)
                0x0002d7a8                bearer_handler_action_end
 .text.bearer_handler_radio_irq_handler
                0x0002d820       0x64 mesh/core/libmesh_core_nrf52832_xxAA.a(bearer_handler.c.obj)
                0x0002d820                bearer_handler_radio_irq_handler
 .text.bearer_handler_timer_irq_handler
                0x0002d884       0x30 mesh/core/libmesh_core_nrf52832_xxAA.a(bearer_handler.c.obj)
                0x0002d884                bearer_handler_timer_irq_handler
 .text.bearer_handler_on_ts_begin
                0x0002d8b4       0x44 mesh/core/libmesh_core_nrf52832_xxAA.a(bearer_handler.c.obj)
                0x0002d8b4                bearer_handler_on_ts_begin
 .text.bearer_handler_on_ts_end
                0x0002d8f8       0x48 mesh/core/libmesh_core_nrf52832_xxAA.a(bearer_handler.c.obj)
                0x0002d8f8                bearer_handler_on_ts_end
 .text.radio_irq_handler
                0x0002d940       0xb0 mesh/core/libmesh_core_nrf52832_xxAA.a(broadcast.c.obj)
 .text.broadcast_start
                0x0002d9f0       0x8c mesh/core/libmesh_core_nrf52832_xxAA.a(broadcast.c.obj)
 .text.broadcast_send
                0x0002da7c       0x80 mesh/core/libmesh_core_nrf52832_xxAA.a(broadcast.c.obj)
                0x0002da7c                broadcast_send
 .text.radio_config_reset
                0x0002dafc       0x34 mesh/core/libmesh_core_nrf52832_xxAA.a(radio_config.c.obj)
                0x0002dafc                radio_config_reset
 .text.radio_config_channel_set
                0x0002db30       0x34 mesh/core/libmesh_core_nrf52832_xxAA.a(radio_config.c.obj)
                0x0002db30                radio_config_channel_set
 .text.radio_config_config
                0x0002db64       0x80 mesh/core/libmesh_core_nrf52832_xxAA.a(radio_config.c.obj)
                0x0002db64                radio_config_config
 .text.radio_config_access_addr_set
                0x0002dbe4       0x68 mesh/core/libmesh_core_nrf52832_xxAA.a(radio_config.c.obj)
                0x0002dbe4                radio_config_access_addr_set
 .text.radio_trigger
                0x0002dc4c       0x24 mesh/core/libmesh_core_nrf52832_xxAA.a(scanner.c.obj)
 .text.scan_window_end
                0x0002dc70       0x10 mesh/core/libmesh_core_nrf52832_xxAA.a(scanner.c.obj)
 .text.scan_window_start
                0x0002dc80       0x24 mesh/core/libmesh_core_nrf52832_xxAA.a(scanner.c.obj)
 .text.radio_configure
                0x0002dca4       0x78 mesh/core/libmesh_core_nrf52832_xxAA.a(scanner.c.obj)
 .text.radio_set_packet
                0x0002dd1c       0x50 mesh/core/libmesh_core_nrf52832_xxAA.a(scanner.c.obj)
 .text.radio_start
                0x0002dd6c       0x4c mesh/core/libmesh_core_nrf52832_xxAA.a(scanner.c.obj)
 .text.radio_stop
                0x0002ddb8       0x30 mesh/core/libmesh_core_nrf52832_xxAA.a(scanner.c.obj)
 .text.schedule_timers
                0x0002dde8       0x38 mesh/core/libmesh_core_nrf52832_xxAA.a(scanner.c.obj)
 .text.scanner_radio_start
                0x0002de20       0x28 mesh/core/libmesh_core_nrf52832_xxAA.a(scanner.c.obj)
                0x0002de20                scanner_radio_start
 .text.scanner_radio_stop
                0x0002de48       0x10 mesh/core/libmesh_core_nrf52832_xxAA.a(scanner.c.obj)
                0x0002de48                scanner_radio_stop
 .text.scanner_radio_irq_handler
                0x0002de58      0x124 mesh/core/libmesh_core_nrf52832_xxAA.a(scanner.c.obj)
                0x0002de58                scanner_radio_irq_handler
 .text.scanner_enable
                0x0002df7c       0x30 mesh/core/libmesh_core_nrf52832_xxAA.a(scanner.c.obj)
                0x0002df7c                scanner_enable
 .text.scanner_packet_release
                0x0002dfac       0x38 mesh/core/libmesh_core_nrf52832_xxAA.a(scanner.c.obj)
                0x0002dfac                scanner_packet_release
 .text.scanner_rx
                0x0002dfe4       0x30 mesh/core/libmesh_core_nrf52832_xxAA.a(scanner.c.obj)
                0x0002dfe4                scanner_rx
 .text.scanner_config_scan_time_set
                0x0002e014       0x68 mesh/core/libmesh_core_nrf52832_xxAA.a(scanner.c.obj)
                0x0002e014                scanner_config_scan_time_set
 .text.scanner_config_channels_set
                0x0002e07c       0x64 mesh/core/libmesh_core_nrf52832_xxAA.a(scanner.c.obj)
                0x0002e07c                scanner_config_channels_set
 .text.scanner_config_access_addresses_set
                0x0002e0e0       0x44 mesh/core/libmesh_core_nrf52832_xxAA.a(scanner.c.obj)
                0x0002e0e0                scanner_config_access_addresses_set
 .text.scanner_config_reset
                0x0002e124       0x50 mesh/core/libmesh_core_nrf52832_xxAA.a(scanner.c.obj)
                0x0002e124                scanner_config_reset
 .text.scanner_init
                0x0002e174       0x48 mesh/core/libmesh_core_nrf52832_xxAA.a(scanner.c.obj)
                0x0002e174                scanner_init
 .text.internal_event_push
                0x0002e1bc       0x28 mesh/core/libmesh_core_nrf52832_xxAA.a(internal_event.c.obj)
                0x0002e1bc                internal_event_push
 .text.sd_ecb_block_encrypt
                0x0002e1e4        0x4 mesh/core/libmesh_core_nrf52832_xxAA.a(aes.c.obj)
 .text.aes_encrypt
                0x0002e1e8       0x32 mesh/core/libmesh_core_nrf52832_xxAA.a(aes.c.obj)
                0x0002e1e8                aes_encrypt
 *fill*         0x0002e21a        0x2 
 .text.msg_cache_init
                0x0002e21c       0x24 mesh/core/libmesh_core_nrf52832_xxAA.a(msg_cache.c.obj)
                0x0002e21c                msg_cache_init
 .text.msg_cache_entry_exists
                0x0002e240       0x3c mesh/core/libmesh_core_nrf52832_xxAA.a(msg_cache.c.obj)
                0x0002e240                msg_cache_entry_exists
 .text.msg_cache_entry_add
                0x0002e27c       0x2c mesh/core/libmesh_core_nrf52832_xxAA.a(msg_cache.c.obj)
                0x0002e27c                msg_cache_entry_add
 .text.block_ack_full
                0x0002e2a8       0x28 mesh/core/libmesh_core_nrf52832_xxAA.a(transport.c.obj)
 .text.seqauth_sequence_number_get
                0x0002e2d0       0x12 mesh/core/libmesh_core_nrf52832_xxAA.a(transport.c.obj)
 *fill*         0x0002e2e2        0x2 
 .text.sar_rx_session_mark_as_handled
                0x0002e2e4       0x54 mesh/core/libmesh_core_nrf52832_xxAA.a(transport.c.obj)
 .text.sar_ctx_find
                0x0002e338       0x3c mesh/core/libmesh_core_nrf52832_xxAA.a(transport.c.obj)
 .text.m_send_sar_cancel_event
                0x0002e374       0x28 mesh/core/libmesh_core_nrf52832_xxAA.a(transport.c.obj)
 .text.tx_complete
                0x0002e39c       0x34 mesh/core/libmesh_core_nrf52832_xxAA.a(transport.c.obj)
 .text.upper_trs_packet_alloc
                0x0002e3d0       0x2e mesh/core/libmesh_core_nrf52832_xxAA.a(transport.c.obj)
 *fill*         0x0002e3fe        0x2 
 .text.upper_trs_packet_encrypt
                0x0002e400       0xbc mesh/core/libmesh_core_nrf52832_xxAA.a(transport.c.obj)
 .text.sar_ctx_free
                0x0002e4bc       0x3c mesh/core/libmesh_core_nrf52832_xxAA.a(transport.c.obj)
 .text.sar_ctx_tx_complete
                0x0002e4f8       0x3c mesh/core/libmesh_core_nrf52832_xxAA.a(transport.c.obj)
 .text.sar_ctx_cancel
                0x0002e534      0x108 mesh/core/libmesh_core_nrf52832_xxAA.a(transport.c.obj)
 .text.abort_timeout
                0x0002e63c        0x8 mesh/core/libmesh_core_nrf52832_xxAA.a(transport.c.obj)
 .text.sar_ctx_alloc
                0x0002e644       0xb8 mesh/core/libmesh_core_nrf52832_xxAA.a(transport.c.obj)
 .text.test_transport_decrypt
                0x0002e6fc       0x88 mesh/core/libmesh_core_nrf52832_xxAA.a(transport.c.obj)
 .text.upper_transport_access_packet_in
                0x0002e784      0x28c mesh/core/libmesh_core_nrf52832_xxAA.a(transport.c.obj)
 .text.trs_packet_header_build
                0x0002ea10       0xa6 mesh/core/libmesh_core_nrf52832_xxAA.a(transport.c.obj)
 *fill*         0x0002eab6        0x2 
 .text.trs_sar_packet_out
                0x0002eab8       0xbc mesh/core/libmesh_core_nrf52832_xxAA.a(transport.c.obj)
 .text.retry_timeout
                0x0002eb74       0x54 mesh/core/libmesh_core_nrf52832_xxAA.a(transport.c.obj)
 .text.sar_ack_send
                0x0002ebc8      0x128 mesh/core/libmesh_core_nrf52832_xxAA.a(transport.c.obj)
 .text.ack_timeout
                0x0002ecf0       0x34 mesh/core/libmesh_core_nrf52832_xxAA.a(transport.c.obj)
 .text.tx_retry_timer_reset
                0x0002ed24       0x50 mesh/core/libmesh_core_nrf52832_xxAA.a(transport.c.obj)
 .text.upper_transport_packet_in
                0x0002ed74      0x164 mesh/core/libmesh_core_nrf52832_xxAA.a(transport.c.obj)
 .text.transport_sar_process
                0x0002eed8       0x70 mesh/core/libmesh_core_nrf52832_xxAA.a(transport.c.obj)
 .text.transport_sar_mem_funcs_reset
                0x0002ef48       0x28 mesh/core/libmesh_core_nrf52832_xxAA.a(transport.c.obj)
                0x0002ef48                transport_sar_mem_funcs_reset
 .text.transport_init
                0x0002ef70       0x78 mesh/core/libmesh_core_nrf52832_xxAA.a(transport.c.obj)
                0x0002ef70                transport_init
 .text.transport_packet_in
                0x0002efe8      0x4f4 mesh/core/libmesh_core_nrf52832_xxAA.a(transport.c.obj)
                0x0002efe8                transport_packet_in
 .text.transport_tx
                0x0002f4dc      0x2ac mesh/core/libmesh_core_nrf52832_xxAA.a(transport.c.obj)
                0x0002f4dc                transport_tx
 .text.m_adjust_desired_packet_length
                0x0002f788       0x34 mesh/core/libmesh_core_nrf52832_xxAA.a(packet_buffer.c.obj)
 .text.m_index_increment.part.0
                0x0002f7bc       0x14 mesh/core/libmesh_core_nrf52832_xxAA.a(packet_buffer.c.obj)
 .text.m_free_popped_packet
                0x0002f7d0       0x60 mesh/core/libmesh_core_nrf52832_xxAA.a(packet_buffer.c.obj)
 .text.free_skipped_packets
                0x0002f830       0x1c mesh/core/libmesh_core_nrf52832_xxAA.a(packet_buffer.c.obj)
 .text.packet_buffer_init
                0x0002f84c       0xe0 mesh/core/libmesh_core_nrf52832_xxAA.a(packet_buffer.c.obj)
                0x0002f84c                packet_buffer_init
 .text.packet_buffer_flush
                0x0002f92c       0x5e mesh/core/libmesh_core_nrf52832_xxAA.a(packet_buffer.c.obj)
                0x0002f92c                packet_buffer_flush
 *fill*         0x0002f98a        0x2 
 .text.packet_buffer_reserve
                0x0002f98c      0x11c mesh/core/libmesh_core_nrf52832_xxAA.a(packet_buffer.c.obj)
                0x0002f98c                packet_buffer_reserve
 .text.packet_buffer_commit
                0x0002faa8      0x104 mesh/core/libmesh_core_nrf52832_xxAA.a(packet_buffer.c.obj)
                0x0002faa8                packet_buffer_commit
 .text.packet_buffer_pop
                0x0002fbac       0x58 mesh/core/libmesh_core_nrf52832_xxAA.a(packet_buffer.c.obj)
                0x0002fbac                packet_buffer_pop
 .text.packet_buffer_can_pop
                0x0002fc04       0x28 mesh/core/libmesh_core_nrf52832_xxAA.a(packet_buffer.c.obj)
                0x0002fc04                packet_buffer_can_pop
 .text.packet_buffer_packets_ready_to_pop
                0x0002fc2c       0x58 mesh/core/libmesh_core_nrf52832_xxAA.a(packet_buffer.c.obj)
                0x0002fc2c                packet_buffer_packets_ready_to_pop
 .text.packet_buffer_free
                0x0002fc84       0x8c mesh/core/libmesh_core_nrf52832_xxAA.a(packet_buffer.c.obj)
                0x0002fc84                packet_buffer_free
 .text.get_last_page
                0x0002fd10       0x14 mesh/core/libmesh_core_nrf52832_xxAA.a(flash_manager_defrag.c.obj)
 .text.defrag_on_end
                0x0002fd24       0x1c mesh/core/libmesh_core_nrf52832_xxAA.a(flash_manager_defrag.c.obj)
 .text.execute_procedure_step
                0x0002fd40       0xa0 mesh/core/libmesh_core_nrf52832_xxAA.a(flash_manager_defrag.c.obj)
 .text.get_next_entry
                0x0002fde0       0x40 mesh/core/libmesh_core_nrf52832_xxAA.a(flash_manager_defrag.c.obj)
 .text.get_next_data_entry
                0x0002fe20       0x20 mesh/core/libmesh_core_nrf52832_xxAA.a(flash_manager_defrag.c.obj)
 .text.on_flash_op_end
                0x0002fe40       0x30 mesh/core/libmesh_core_nrf52832_xxAA.a(flash_manager_defrag.c.obj)
 .text.check_for_invalid_entries
                0x0002fe70       0x38 mesh/core/libmesh_core_nrf52832_xxAA.a(flash_manager_defrag.c.obj)
 .text.erase_recovery_area
                0x0002fea8       0x34 mesh/core/libmesh_core_nrf52832_xxAA.a(flash_manager_defrag.c.obj)
 .text.flash.constprop.6
                0x0002fedc       0x24 mesh/core/libmesh_core_nrf52832_xxAA.a(flash_manager_defrag.c.obj)
 .text.seal_storage_page
                0x0002ff00       0x50 mesh/core/libmesh_core_nrf52832_xxAA.a(flash_manager_defrag.c.obj)
 .text.invalidate_duplicate_entries
                0x0002ff50       0x9c mesh/core/libmesh_core_nrf52832_xxAA.a(flash_manager_defrag.c.obj)
 .text.copy_metadata
                0x0002ffec       0x3c mesh/core/libmesh_core_nrf52832_xxAA.a(flash_manager_defrag.c.obj)
 .text.write_defrag_start_pointer
                0x00030028       0x20 mesh/core/libmesh_core_nrf52832_xxAA.a(flash_manager_defrag.c.obj)
 .text.write_back
                0x00030048       0x28 mesh/core/libmesh_core_nrf52832_xxAA.a(flash_manager_defrag.c.obj)
 .text.post_process
                0x00030070       0x40 mesh/core/libmesh_core_nrf52832_xxAA.a(flash_manager_defrag.c.obj)
 .text.backup_entries
                0x000300b0      0x118 mesh/core/libmesh_core_nrf52832_xxAA.a(flash_manager_defrag.c.obj)
 .text.erase_source
                0x000301c8       0x34 mesh/core/libmesh_core_nrf52832_xxAA.a(flash_manager_defrag.c.obj)
 .text.flash_manager_defrag_init
                0x000301fc       0x94 mesh/core/libmesh_core_nrf52832_xxAA.a(flash_manager_defrag.c.obj)
                0x000301fc                flash_manager_defrag_init
 .text.flash_manager_defrag_is_running
                0x00030290       0x10 mesh/core/libmesh_core_nrf52832_xxAA.a(flash_manager_defrag.c.obj)
                0x00030290                flash_manager_defrag_is_running
 .text.flash_manager_defrag
                0x000302a0       0xd8 mesh/core/libmesh_core_nrf52832_xxAA.a(flash_manager_defrag.c.obj)
                0x000302a0                flash_manager_defrag
 .text.flash_manager_defrag_recovery_page_get
                0x00030378        0xc mesh/core/libmesh_core_nrf52832_xxAA.a(flash_manager_defrag.c.obj)
                0x00030378                flash_manager_defrag_recovery_page_get
 .text.packet_mgr_init
                0x00030384       0x4c mesh/core/libmesh_core_nrf52832_xxAA.a(packet_mgr.c.obj)
                0x00030384                packet_mgr_init
 .text.send_end_events
                0x000303d0       0x80 mesh/core/libmesh_core_nrf52832_xxAA.a(mesh_flash.c.obj)
 .text.flash_op_schedule
                0x00030450       0x9c mesh/core/libmesh_core_nrf52832_xxAA.a(mesh_flash.c.obj)
 .text.flash_op_start
                0x000304ec      0x170 mesh/core/libmesh_core_nrf52832_xxAA.a(mesh_flash.c.obj)
 .text.mesh_flash_init
                0x0003065c       0x88 mesh/core/libmesh_core_nrf52832_xxAA.a(mesh_flash.c.obj)
                0x0003065c                mesh_flash_init
 .text.mesh_flash_user_callback_set
                0x000306e4       0x2c mesh/core/libmesh_core_nrf52832_xxAA.a(mesh_flash.c.obj)
                0x000306e4                mesh_flash_user_callback_set
 .text.mesh_flash_op_push
                0x00030710      0x128 mesh/core/libmesh_core_nrf52832_xxAA.a(mesh_flash.c.obj)
                0x00030710                mesh_flash_op_push
 .text.queue_init
                0x00030838       0x20 mesh/core/libmesh_core_nrf52832_xxAA.a(queue.c.obj)
                0x00030838                queue_init
 .text.queue_push
                0x00030858       0x48 mesh/core/libmesh_core_nrf52832_xxAA.a(queue.c.obj)
                0x00030858                queue_push
 .text.queue_pop
                0x000308a0       0x34 mesh/core/libmesh_core_nrf52832_xxAA.a(queue.c.obj)
                0x000308a0                queue_pop
 .text.queue_peek
                0x000308d4       0x1c mesh/core/libmesh_core_nrf52832_xxAA.a(queue.c.obj)
                0x000308d4                queue_peek
 .text.my_xor.constprop.1
                0x000308f0       0x20 mesh/core/libmesh_core_nrf52832_xxAA.a(aes_cmac.c.obj)
 .text.utils_lshift.constprop.2
                0x00030910       0x24 mesh/core/libmesh_core_nrf52832_xxAA.a(aes_cmac.c.obj)
 .text.aes_cmac_subkey_generate
                0x00030934       0x6c mesh/core/libmesh_core_nrf52832_xxAA.a(aes_cmac.c.obj)
                0x00030934                aes_cmac_subkey_generate
 .text.aes_cmac
                0x000309a0       0xbc mesh/core/libmesh_core_nrf52832_xxAA.a(aes_cmac.c.obj)
                0x000309a0                aes_cmac
 .text.stage_get_available
                0x00030a5c       0x24 mesh/core/libmesh_core_nrf52832_xxAA.a(msqueue.c.obj)
 .text.msq_get  0x00030a80       0x4c mesh/core/libmesh_core_nrf52832_xxAA.a(msqueue.c.obj)
                0x00030a80                msq_get
 .text.msq_move
                0x00030acc       0x44 mesh/core/libmesh_core_nrf52832_xxAA.a(msqueue.c.obj)
                0x00030acc                msq_move
 .text.msq_reset
                0x00030b10       0x2c mesh/core/libmesh_core_nrf52832_xxAA.a(msqueue.c.obj)
                0x00030b10                msq_reset
 .text.msq_init
                0x00030b3c       0x78 mesh/core/libmesh_core_nrf52832_xxAA.a(msqueue.c.obj)
                0x00030b3c                msq_init
 .text.msq_available
                0x00030bb4       0x3c mesh/core/libmesh_core_nrf52832_xxAA.a(msqueue.c.obj)
                0x00030bb4                msq_available
 .text.replay_cache_add
                0x00030bf0       0x60 mesh/core/libmesh_core_nrf52832_xxAA.a(replay_cache.c.obj)
                0x00030bf0                replay_cache_add
 .text.replay_cache_has_room
                0x00030c50       0x38 mesh/core/libmesh_core_nrf52832_xxAA.a(replay_cache.c.obj)
                0x00030c50                replay_cache_has_room
 .text.replay_cache_has_elem
                0x00030c88       0x38 mesh/core/libmesh_core_nrf52832_xxAA.a(replay_cache.c.obj)
                0x00030c88                replay_cache_has_elem
 .text.replay_cache_clear
                0x00030cc0       0x28 mesh/core/libmesh_core_nrf52832_xxAA.a(replay_cache.c.obj)
                0x00030cc0                replay_cache_clear
 .text.replay_cache_init
                0x00030ce8        0x4 mesh/core/libmesh_core_nrf52832_xxAA.a(replay_cache.c.obj)
                0x00030ce8                replay_cache_init
 .text.fen_filters_apply
                0x00030cec       0x34 mesh/core/libmesh_core_nrf52832_xxAA.a(filter_engine.c.obj)
                0x00030cec                fen_filters_apply
 .text.wait_for_ready
                0x00030d20       0x10 mesh/core/libmesh_core_nrf52832_xxAA.a(nrf_flash.c.obj)
 .text.nrf_flash_erase
                0x00030d30       0x50 mesh/core/libmesh_core_nrf52832_xxAA.a(nrf_flash.c.obj)
                0x00030d30                nrf_flash_erase
 .text.nrf_flash_write
                0x00030d80       0x50 mesh/core/libmesh_core_nrf52832_xxAA.a(nrf_flash.c.obj)
                0x00030d80                nrf_flash_write
 .text._GetAvailWriteSpace
                0x00030dd0       0x1c external/rtt/librtt_nrf52832_xxAA.a(SEGGER_RTT.c.obj)
 .text._WriteNoCheck
                0x00030dec       0x3c external/rtt/librtt_nrf52832_xxAA.a(SEGGER_RTT.c.obj)
 .text._WriteBlocking
                0x00030e28       0x52 external/rtt/librtt_nrf52832_xxAA.a(SEGGER_RTT.c.obj)
 *fill*         0x00030e7a        0x2 
 .text._DoInit  0x00030e7c       0x60 external/rtt/librtt_nrf52832_xxAA.a(SEGGER_RTT.c.obj)
 .text.SEGGER_RTT_ReadNoLock
                0x00030edc       0x88 external/rtt/librtt_nrf52832_xxAA.a(SEGGER_RTT.c.obj)
                0x00030edc                SEGGER_RTT_ReadNoLock
 .text.SEGGER_RTT_Read
                0x00030f64       0x1c external/rtt/librtt_nrf52832_xxAA.a(SEGGER_RTT.c.obj)
                0x00030f64                SEGGER_RTT_Read
 .text.SEGGER_RTT_WriteNoLock
                0x00030f80       0x68 external/rtt/librtt_nrf52832_xxAA.a(SEGGER_RTT.c.obj)
                0x00030f80                SEGGER_RTT_WriteNoLock
 .text.SEGGER_RTT_Write
                0x00030fe8       0x34 external/rtt/librtt_nrf52832_xxAA.a(SEGGER_RTT.c.obj)
                0x00030fe8                SEGGER_RTT_Write
 .text.SEGGER_RTT_GetKey
                0x0003101c       0x20 external/rtt/librtt_nrf52832_xxAA.a(SEGGER_RTT.c.obj)
                0x0003101c                SEGGER_RTT_GetKey
 .text._StoreChar
                0x0003103c       0x3e external/rtt/librtt_nrf52832_xxAA.a(SEGGER_RTT_printf.c.obj)
 *fill*         0x0003107a        0x2 
 .text._PrintUnsigned
                0x0003107c       0xd0 external/rtt/librtt_nrf52832_xxAA.a(SEGGER_RTT_printf.c.obj)
 .text.SEGGER_RTT_vprintf
                0x0003114c      0x246 external/rtt/librtt_nrf52832_xxAA.a(SEGGER_RTT_printf.c.obj)
                0x0003114c                SEGGER_RTT_vprintf
 .text.SEGGER_RTT_printf
                0x00031392       0x1e external/rtt/librtt_nrf52832_xxAA.a(SEGGER_RTT_printf.c.obj)
                0x00031392                SEGGER_RTT_printf
 .text.uECC_vli_mult
                0x000313b0       0x64 external/micro-ecc/libuECC_nrf52832_xxAA.a(uECC.c.obj)
 .text.uECC_vli_clear
                0x00031414       0x16 external/micro-ecc/libuECC_nrf52832_xxAA.a(uECC.c.obj)
 .text.uECC_vli_isZero
                0x0003142a       0x1e external/micro-ecc/libuECC_nrf52832_xxAA.a(uECC.c.obj)
 .text.uECC_vli_testBit
                0x00031448       0x14 external/micro-ecc/libuECC_nrf52832_xxAA.a(uECC.c.obj)
 .text.uECC_vli_numBits
                0x0003145c       0x3a external/micro-ecc/libuECC_nrf52832_xxAA.a(uECC.c.obj)
 .text.uECC_vli_set
                0x00031496       0x18 external/micro-ecc/libuECC_nrf52832_xxAA.a(uECC.c.obj)
 .text.uECC_vli_cmp_unsafe
                0x000314ae       0x28 external/micro-ecc/libuECC_nrf52832_xxAA.a(uECC.c.obj)
 .text.uECC_vli_rshift1
                0x000314d6       0x1c external/micro-ecc/libuECC_nrf52832_xxAA.a(uECC.c.obj)
 .text.uECC_vli_modMult_fast
                0x000314f2       0x20 external/micro-ecc/libuECC_nrf52832_xxAA.a(uECC.c.obj)
 .text.uECC_vli_modSquare_fast
                0x00031512        0x8 external/micro-ecc/libuECC_nrf52832_xxAA.a(uECC.c.obj)
 .text.apply_z  0x0003151a       0x3e external/micro-ecc/libuECC_nrf52832_xxAA.a(uECC.c.obj)
 .text.uECC_vli_nativeToBytes
                0x00031558       0x28 external/micro-ecc/libuECC_nrf52832_xxAA.a(uECC.c.obj)
 .text.uECC_vli_bytesToNative
                0x00031580       0x40 external/micro-ecc/libuECC_nrf52832_xxAA.a(uECC.c.obj)
 .text.default_RNG
                0x000315c0        0xc external/micro-ecc/libuECC_nrf52832_xxAA.a(uECC.c.obj)
 .text.uECC_vli_add.isra.0
                0x000315cc       0x4a external/micro-ecc/libuECC_nrf52832_xxAA.a(uECC.c.obj)
 .text.regularize_k
                0x00031616       0x50 external/micro-ecc/libuECC_nrf52832_xxAA.a(uECC.c.obj)
 .text.uECC_vli_sub.isra.1
                0x00031666       0x4e external/micro-ecc/libuECC_nrf52832_xxAA.a(uECC.c.obj)
 .text.uECC_vli_cmp
                0x000316b4       0x30 external/micro-ecc/libuECC_nrf52832_xxAA.a(uECC.c.obj)
 .text.uECC_generate_random_int
                0x000316e4       0x78 external/micro-ecc/libuECC_nrf52832_xxAA.a(uECC.c.obj)
 .text.uECC_vli_modAdd
                0x0003175c       0x2e external/micro-ecc/libuECC_nrf52832_xxAA.a(uECC.c.obj)
 *fill*         0x0003178a        0x2 
 .text.vli_mmod_fast_secp256r1
                0x0003178c      0x194 external/micro-ecc/libuECC_nrf52832_xxAA.a(uECC.c.obj)
 .text.uECC_vli_modSub.isra.2
                0x00031920       0x1c external/micro-ecc/libuECC_nrf52832_xxAA.a(uECC.c.obj)
 .text.double_jacobian_default
                0x0003193c      0x14a external/micro-ecc/libuECC_nrf52832_xxAA.a(uECC.c.obj)
 .text.x_side_default
                0x00031a86       0x5a external/micro-ecc/libuECC_nrf52832_xxAA.a(uECC.c.obj)
 .text.XYcZ_add
                0x00031ae0       0xbc external/micro-ecc/libuECC_nrf52832_xxAA.a(uECC.c.obj)
 .text.XYcZ_addC
                0x00031b9c      0x10a external/micro-ecc/libuECC_nrf52832_xxAA.a(uECC.c.obj)
 .text.vli_modInv_update
                0x00031ca6       0x36 external/micro-ecc/libuECC_nrf52832_xxAA.a(uECC.c.obj)
 .text.uECC_vli_modInv
                0x00031cdc      0x102 external/micro-ecc/libuECC_nrf52832_xxAA.a(uECC.c.obj)
 .text.EccPoint_mult
                0x00031dde      0x19e external/micro-ecc/libuECC_nrf52832_xxAA.a(uECC.c.obj)
 .text.EccPoint_compute_public_key
                0x00031f7c       0x54 external/micro-ecc/libuECC_nrf52832_xxAA.a(uECC.c.obj)
 .text.uECC_secp256r1
                0x00031fd0        0x8 external/micro-ecc/libuECC_nrf52832_xxAA.a(uECC.c.obj)
                0x00031fd0                uECC_secp256r1
 .text.uECC_make_key
                0x00031fd8       0x7e external/micro-ecc/libuECC_nrf52832_xxAA.a(uECC.c.obj)
                0x00031fd8                uECC_make_key
 *fill*         0x00032056        0x2 
 .text.uECC_shared_secret
                0x00032058       0xbc external/micro-ecc/libuECC_nrf52832_xxAA.a(uECC.c.obj)
                0x00032058                uECC_shared_secret
 .text.uECC_valid_point
                0x00032114       0x86 external/micro-ecc/libuECC_nrf52832_xxAA.a(uECC.c.obj)
                0x00032114                uECC_valid_point
 .text.uECC_valid_public_key
                0x0003219a       0x32 external/micro-ecc/libuECC_nrf52832_xxAA.a(uECC.c.obj)
                0x0003219a                uECC_valid_public_key
 .text.exit     0x000321cc       0x28 c:/a/gcc_arm/6/bin/../lib/gcc/arm-none-eabi/6.3.1/../../../../arm-none-eabi/lib/thumb/v7e-m/fpv4-sp/hard\libc_nano.a(lib_a-exit.o)
                0x000321cc                exit
 .text.__libc_init_array
                0x000321f4       0x48 c:/a/gcc_arm/6/bin/../lib/gcc/arm-none-eabi/6.3.1/../../../../arm-none-eabi/lib/thumb/v7e-m/fpv4-sp/hard\libc_nano.a(lib_a-init.o)
                0x000321f4                __libc_init_array
 .text.malloc   0x0003223c       0x10 c:/a/gcc_arm/6/bin/../lib/gcc/arm-none-eabi/6.3.1/../../../../arm-none-eabi/lib/thumb/v7e-m/fpv4-sp/hard\libc_nano.a(lib_a-malloc.o)
                0x0003223c                malloc
 .text.free     0x0003224c       0x10 c:/a/gcc_arm/6/bin/../lib/gcc/arm-none-eabi/6.3.1/../../../../arm-none-eabi/lib/thumb/v7e-m/fpv4-sp/hard\libc_nano.a(lib_a-malloc.o)
                0x0003224c                free
 .text.memcmp   0x0003225c       0x1e c:/a/gcc_arm/6/bin/../lib/gcc/arm-none-eabi/6.3.1/../../../../arm-none-eabi/lib/thumb/v7e-m/fpv4-sp/hard\libc_nano.a(lib_a-memcmp.o)
                0x0003225c                memcmp
 .text.memcpy   0x0003227a       0x16 c:/a/gcc_arm/6/bin/../lib/gcc/arm-none-eabi/6.3.1/../../../../arm-none-eabi/lib/thumb/v7e-m/fpv4-sp/hard\libc_nano.a(lib_a-memcpy-stub.o)
                0x0003227a                memcpy
 .text.memset   0x00032290       0x10 c:/a/gcc_arm/6/bin/../lib/gcc/arm-none-eabi/6.3.1/../../../../arm-none-eabi/lib/thumb/v7e-m/fpv4-sp/hard\libc_nano.a(lib_a-memset.o)
                0x00032290                memset
 .text._free_r  0x000322a0       0x9c c:/a/gcc_arm/6/bin/../lib/gcc/arm-none-eabi/6.3.1/../../../../arm-none-eabi/lib/thumb/v7e-m/fpv4-sp/hard\libc_nano.a(lib_a-nano-freer.o)
                0x000322a0                _free_r
 .text._malloc_r
                0x0003233c       0xbc c:/a/gcc_arm/6/bin/../lib/gcc/arm-none-eabi/6.3.1/../../../../arm-none-eabi/lib/thumb/v7e-m/fpv4-sp/hard\libc_nano.a(lib_a-nano-mallocr.o)
                0x0003233c                _malloc_r
 .text._sbrk_r  0x000323f8       0x20 c:/a/gcc_arm/6/bin/../lib/gcc/arm-none-eabi/6.3.1/../../../../arm-none-eabi/lib/thumb/v7e-m/fpv4-sp/hard\libc_nano.a(lib_a-sbrkr.o)
                0x000323f8                _sbrk_r
 .text.strcpy   0x00032418       0x10 c:/a/gcc_arm/6/bin/../lib/gcc/arm-none-eabi/6.3.1/../../../../arm-none-eabi/lib/thumb/v7e-m/fpv4-sp/hard\libc_nano.a(lib_a-strcpy.o)
                0x00032418                strcpy
 .text          0x00032428       0x10 c:/a/gcc_arm/6/bin/../lib/gcc/arm-none-eabi/6.3.1/../../../../arm-none-eabi/lib/thumb/v7e-m/fpv4-sp/hard\libc_nano.a(lib_a-strlen.o)
                0x00032428                strlen
 .text.strrchr  0x00032438       0x26 c:/a/gcc_arm/6/bin/../lib/gcc/arm-none-eabi/6.3.1/../../../../arm-none-eabi/lib/thumb/v7e-m/fpv4-sp/hard\libc_nano.a(lib_a-strrchr.o)
                0x00032438                strrchr
 .text.__malloc_lock
                0x0003245e        0x2 c:/a/gcc_arm/6/bin/../lib/gcc/arm-none-eabi/6.3.1/../../../../arm-none-eabi/lib/thumb/v7e-m/fpv4-sp/hard\libc_nano.a(lib_a-mlock.o)
                0x0003245e                __malloc_lock
 .text.__malloc_unlock
                0x00032460        0x2 c:/a/gcc_arm/6/bin/../lib/gcc/arm-none-eabi/6.3.1/../../../../arm-none-eabi/lib/thumb/v7e-m/fpv4-sp/hard\libc_nano.a(lib_a-mlock.o)
                0x00032460                __malloc_unlock
 .text.strchr   0x00032462       0x1c c:/a/gcc_arm/6/bin/../lib/gcc/arm-none-eabi/6.3.1/../../../../arm-none-eabi/lib/thumb/v7e-m/fpv4-sp/hard\libc_nano.a(lib_a-strchr.o)
                0x00032462                strchr
 *fill*         0x0003247e        0x2 
 .text._sbrk    0x00032480       0x1c c:/a/gcc_arm/6/bin/../lib/gcc/arm-none-eabi/6.3.1/../../../../arm-none-eabi/lib/thumb/v7e-m/fpv4-sp/hard\libnosys.a(sbrk.o)
                0x00032480                _sbrk
 .text._exit    0x0003249c        0x4 c:/a/gcc_arm/6/bin/../lib/gcc/arm-none-eabi/6.3.1/../../../../arm-none-eabi/lib/thumb/v7e-m/fpv4-sp/hard\libnosys.a(_exit.o)
                0x0003249c                _exit
 *(.init)
 .init          0x000324a0        0x4 c:/a/gcc_arm/6/bin/../lib/gcc/arm-none-eabi/6.3.1/thumb/v7e-m/fpv4-sp/hard/crti.o
                0x000324a0                _init
 .init          0x000324a4        0x8 c:/a/gcc_arm/6/bin/../lib/gcc/arm-none-eabi/6.3.1/thumb/v7e-m/fpv4-sp/hard/crtn.o
 *(.fini)
 .fini          0x000324ac        0x4 c:/a/gcc_arm/6/bin/../lib/gcc/arm-none-eabi/6.3.1/thumb/v7e-m/fpv4-sp/hard/crti.o
                0x000324ac                _fini
 .fini          0x000324b0        0x8 c:/a/gcc_arm/6/bin/../lib/gcc/arm-none-eabi/6.3.1/thumb/v7e-m/fpv4-sp/hard/crtn.o
 *crtbegin.o(.ctors)
 *crtbegin?.o(.ctors)
 *(EXCLUDE_FILE(*crtend.o *crtend?.o) .ctors)
 *(SORT(.ctors.*))
 *(.ctors)
 *crtbegin.o(.dtors)
 *crtbegin?.o(.dtors)
 *(EXCLUDE_FILE(*crtend.o *crtend?.o) .dtors)
 *(SORT(.dtors.*))
 *(.dtors)
 *(.rodata*)
 .rodata        0x000324b8       0x14 examples/pb_remote/client/CMakeFiles/pb_remote_client_nrf52832_xxAA_s132_5.0.0.dir/src/main.c.obj
 .rodata.USAGE_STRING
                0x000324cc      0x11b examples/pb_remote/client/CMakeFiles/pb_remote_client_nrf52832_xxAA_s132_5.0.0.dir/src/main.c.obj
                0x000324cc                USAGE_STRING
 .rodata.m_netkey
                0x000325e7       0x10 examples/pb_remote/client/CMakeFiles/pb_remote_client_nrf52832_xxAA_s132_5.0.0.dir/src/main.c.obj
 .rodata.main.str1.1
                0x000325f7      0x14d examples/pb_remote/client/CMakeFiles/pb_remote_client_nrf52832_xxAA_s132_5.0.0.dir/src/main.c.obj
 .rodata.mesh_evt_handler.str1.1
                0x00032744      0x12a examples/pb_remote/client/CMakeFiles/pb_remote_client_nrf52832_xxAA_s132_5.0.0.dir/src/main.c.obj
 .rodata.remote_client_event_cb.str1.1
                0x0003286e       0x73 examples/pb_remote/client/CMakeFiles/pb_remote_client_nrf52832_xxAA_s132_5.0.0.dir/src/main.c.obj
 .rodata.HardFault_Handler.str1.1
                0x000328e1        0xe examples/pb_remote/client/CMakeFiles/pb_remote_client_nrf52832_xxAA_s132_5.0.0.dir/__/__/nrf_mesh_sdk.c.obj
 .rodata.app_error_handler.str1.1
                0x000328ef       0x1d examples/pb_remote/client/CMakeFiles/pb_remote_client_nrf52832_xxAA_s132_5.0.0.dir/__/__/nrf_mesh_sdk.c.obj
 .rodata.mesh_assert_handler.str1.1
                0x0003290c       0x34 examples/pb_remote/client/CMakeFiles/pb_remote_client_nrf52832_xxAA_s132_5.0.0.dir/__/__/nrf_mesh_sdk.c.obj
 .rodata.mesh_core_setup.str1.1
                0x00032940       0x47 examples/pb_remote/client/CMakeFiles/pb_remote_client_nrf52832_xxAA_s132_5.0.0.dir/__/__/nrf_mesh_sdk.c.obj
 .rodata.mesh_softdevice_enable.str1.1
                0x00032987       0x65 examples/pb_remote/client/CMakeFiles/pb_remote_client_nrf52832_xxAA_s132_5.0.0.dir/__/__/nrf_mesh_sdk.c.obj
 .rodata.softdevice_assert_handler.str1.1
                0x000329ec       0x1d examples/pb_remote/client/CMakeFiles/pb_remote_client_nrf52832_xxAA_s132_5.0.0.dir/__/__/nrf_mesh_sdk.c.obj
 *fill*         0x00032a09        0x1 
 .rodata        0x00032a0a       0x2a examples/pb_remote/client/CMakeFiles/pb_remote_client_nrf52832_xxAA_s132_5.0.0.dir/__/__/__/models/pb_remote/src/pb_remote_client.c.obj
 .rodata.client_reliable_status_cb.str1.1
                0x00032a34       0x3f examples/pb_remote/client/CMakeFiles/pb_remote_client_nrf52832_xxAA_s132_5.0.0.dir/__/__/__/models/pb_remote/src/pb_remote_client.c.obj
 *fill*         0x00032a73        0x1 
 .rodata.m_opcode_handlers
                0x00032a74       0x38 examples/pb_remote/client/CMakeFiles/pb_remote_client_nrf52832_xxAA_s132_5.0.0.dir/__/__/__/models/pb_remote/src/pb_remote_client.c.obj
 .rodata.m_pb_remote_client_event_handler_callbacks
                0x00032aac       0x38 examples/pb_remote/client/CMakeFiles/pb_remote_client_nrf52832_xxAA_s132_5.0.0.dir/__/__/__/models/pb_remote/src/pb_remote_client.c.obj
                0x00032aac                m_pb_remote_client_event_handler_callbacks
 .rodata.m_prov_interface
                0x00032ae4       0x14 examples/pb_remote/client/CMakeFiles/pb_remote_client_nrf52832_xxAA_s132_5.0.0.dir/__/__/__/models/pb_remote/src/pb_remote_client.c.obj
                0x00032ae4                m_prov_interface
 .rodata.pb_remote_client_event_link_close_cb.str1.1
                0x00032af8       0x2a examples/pb_remote/client/CMakeFiles/pb_remote_client_nrf52832_xxAA_s132_5.0.0.dir/__/__/__/models/pb_remote/src/pb_remote_client.c.obj
 .rodata.pb_remote_client_event_link_status_cb.str1.1
                0x00032b22       0x62 examples/pb_remote/client/CMakeFiles/pb_remote_client_nrf52832_xxAA_s132_5.0.0.dir/__/__/__/models/pb_remote/src/pb_remote_client.c.obj
 .rodata.pb_remote_client_event_link_status_report_cb.str1.1
                0x00032b84       0x4f examples/pb_remote/client/CMakeFiles/pb_remote_client_nrf52832_xxAA_s132_5.0.0.dir/__/__/__/models/pb_remote/src/pb_remote_client.c.obj
 .rodata.pb_remote_client_event_local_packet_cb.str1.1
                0x00032bd3       0x1c examples/pb_remote/client/CMakeFiles/pb_remote_client_nrf52832_xxAA_s132_5.0.0.dir/__/__/__/models/pb_remote/src/pb_remote_client.c.obj
 .rodata.pb_remote_client_event_packet_transfer_cb.str1.1
                0x00032bef       0x2d examples/pb_remote/client/CMakeFiles/pb_remote_client_nrf52832_xxAA_s132_5.0.0.dir/__/__/__/models/pb_remote/src/pb_remote_client.c.obj
 .rodata.pb_remote_client_event_scan_cancel_cb.str1.1
                0x00032c1c       0x1e examples/pb_remote/client/CMakeFiles/pb_remote_client_nrf52832_xxAA_s132_5.0.0.dir/__/__/__/models/pb_remote/src/pb_remote_client.c.obj
 .rodata.pb_remote_client_event_scan_start_cb.str1.1
                0x00032c3a       0x1d examples/pb_remote/client/CMakeFiles/pb_remote_client_nrf52832_xxAA_s132_5.0.0.dir/__/__/__/models/pb_remote/src/pb_remote_client.c.obj
 .rodata.pb_remote_client_event_scan_status_cb.str1.1
                0x00032c57       0x62 examples/pb_remote/client/CMakeFiles/pb_remote_client_nrf52832_xxAA_s132_5.0.0.dir/__/__/__/models/pb_remote/src/pb_remote_client.c.obj
 .rodata.pb_remote_client_event_transfer_status_cb.str1.1
                0x00032cb9       0x25 examples/pb_remote/client/CMakeFiles/pb_remote_client_nrf52832_xxAA_s132_5.0.0.dir/__/__/__/models/pb_remote/src/pb_remote_client.c.obj
 .rodata.pb_remote_client_event_transfer_status_report_cb.str1.1
                0x00032cde       0x41 examples/pb_remote/client/CMakeFiles/pb_remote_client_nrf52832_xxAA_s132_5.0.0.dir/__/__/__/models/pb_remote/src/pb_remote_client.c.obj
 .rodata.pb_remote_client_event_unprov_number_cb.str1.1
                0x00032d1f       0x56 examples/pb_remote/client/CMakeFiles/pb_remote_client_nrf52832_xxAA_s132_5.0.0.dir/__/__/__/models/pb_remote/src/pb_remote_client.c.obj
 .rodata.pb_remote_client_event_unprov_uuid_cb.str1.1
                0x00032d75       0x24 examples/pb_remote/client/CMakeFiles/pb_remote_client_nrf52832_xxAA_s132_5.0.0.dir/__/__/__/models/pb_remote/src/pb_remote_client.c.obj
 .rodata.pb_remote_client_process.str1.1
                0x00032d99       0x23 examples/pb_remote/client/CMakeFiles/pb_remote_client_nrf52832_xxAA_s132_5.0.0.dir/__/__/__/models/pb_remote/src/pb_remote_client.c.obj
 .rodata.m_prov_callbacks
                0x00032dbc       0x10 examples/pb_remote/client/CMakeFiles/pb_remote_client_nrf52832_xxAA_s132_5.0.0.dir/__/__/__/mesh/prov/src/prov_provisioner.c.obj
 .rodata.pdu_sizes.10819
                0x00032dcc        0xa examples/pb_remote/client/CMakeFiles/pb_remote_client_nrf52832_xxAA_s132_5.0.0.dir/__/__/__/mesh/prov/src/provisioning.c.obj
 .rodata.prov_cb_pkt_in.str1.1
                0x00032dd6       0x34 examples/pb_remote/client/CMakeFiles/pb_remote_client_nrf52832_xxAA_s132_5.0.0.dir/__/__/__/mesh/prov/src/provisioning.c.obj
 .rodata.alphanumeric.10923
                0x00032e0a       0x25 examples/pb_remote/client/CMakeFiles/pb_remote_client_nrf52832_xxAA_s132_5.0.0.dir/__/__/__/mesh/prov/src/prov_utils.c.obj
 *fill*         0x00032e2f        0x1 
 .rodata.numeric_max.10917
                0x00032e30       0x24 examples/pb_remote/client/CMakeFiles/pb_remote_client_nrf52832_xxAA_s132_5.0.0.dir/__/__/__/mesh/prov/src/prov_utils.c.obj
 .rodata.prov_utils_authentication_values_derive.str1.1
                0x00032e54        0x5 examples/pb_remote/client/CMakeFiles/pb_remote_client_nrf52832_xxAA_s132_5.0.0.dir/__/__/__/mesh/prov/src/prov_utils.c.obj
 .rodata.prov_utils_derive_keys.str1.1
                0x00032e59        0xf examples/pb_remote/client/CMakeFiles/pb_remote_client_nrf52832_xxAA_s132_5.0.0.dir/__/__/__/mesh/prov/src/prov_utils.c.obj
 .rodata.add_active_bearer.str1.1
                0x00032e68       0x2c examples/pb_remote/client/CMakeFiles/pb_remote_client_nrf52832_xxAA_s132_5.0.0.dir/__/__/__/mesh/prov/src/prov_bearer_adv.c.obj
 .rodata.crctable.10681
                0x00032e94      0x100 examples/pb_remote/client/CMakeFiles/pb_remote_client_nrf52832_xxAA_s132_5.0.0.dir/__/__/__/mesh/prov/src/prov_bearer_adv.c.obj
 .rodata.interface.10910
                0x00032f94       0x14 examples/pb_remote/client/CMakeFiles/pb_remote_client_nrf52832_xxAA_s132_5.0.0.dir/__/__/__/mesh/prov/src/prov_bearer_adv.c.obj
 .rodata.prov_bearer_adv_packet_in.str1.1
                0x00032fa8      0x26e examples/pb_remote/client/CMakeFiles/pb_remote_client_nrf52832_xxAA_s132_5.0.0.dir/__/__/__/mesh/prov/src/prov_bearer_adv.c.obj
 .rodata.tx_retry_cb.str1.1
                0x00033216       0x37 examples/pb_remote/client/CMakeFiles/pb_remote_client_nrf52832_xxAA_s132_5.0.0.dir/__/__/__/mesh/prov/src/prov_bearer_adv.c.obj
 .rodata.mesh_evt_cb.str1.1
                0x0003324d       0x2f examples/pb_remote/client/CMakeFiles/pb_remote_client_nrf52832_xxAA_s132_5.0.0.dir/__/__/__/mesh/access/src/access.c.obj
 .rodata.packet_tx.str1.1
                0x0003327c       0x13 examples/pb_remote/client/CMakeFiles/pb_remote_client_nrf52832_xxAA_s132_5.0.0.dir/__/__/__/mesh/access/src/access.c.obj
 *fill*         0x0003328f        0x1 
 .rodata.m_flash_groups
                0x00033290       0xc0 examples/pb_remote/client/CMakeFiles/pb_remote_client_nrf52832_xxAA_s132_5.0.0.dir/__/__/__/mesh/access/src/device_state_manager.c.obj
 .rodata.types_lookup.8947
                0x00033350        0x4 mesh/core/libmesh_core_nrf52832_xxAA.a(nrf_mesh_utils.c.obj)
 .rodata.nrf_mesh_process.str1.1
                0x00033354       0x70 mesh/core/libmesh_core_nrf52832_xxAA.a(nrf_mesh.c.obj)
 .rodata.CSWTCH.9
                0x000333c4       0x10 mesh/core/libmesh_core_nrf52832_xxAA.a(hal.c.obj)
 .rodata        0x000333d4       0x15 mesh/core/libmesh_core_nrf52832_xxAA.a(enc.c.obj)
 .rodata.network_packet_in.str1.1
                0x000333e9       0x40 mesh/core/libmesh_core_nrf52832_xxAA.a(network.c.obj)
                                 0x48 (size before relaxing)
 .rodata.network_packet_send.str1.1
                0x00033429       0x49 mesh/core/libmesh_core_nrf52832_xxAA.a(network.c.obj)
 .rodata        0x00033472        0x7 mesh/core/libmesh_core_nrf52832_xxAA.a(nrf_mesh_keygen.c.obj)
 .rodata.log_callback_rtt.str1.1
                0x00033479       0x15 mesh/core/libmesh_core_nrf52832_xxAA.a(log.c.obj)
 .rodata.str1.1
                0x0003348e       0x11 mesh/core/libmesh_core_nrf52832_xxAA.a(log.c.obj)
 *fill*         0x0003349f        0x1 
 .rodata.INVALID_HEADER
                0x000334a0        0x4 mesh/core/libmesh_core_nrf52832_xxAA.a(flash_manager.c.obj)
                0x000334a0                INVALID_HEADER
 .rodata.PADDING_HEADER
                0x000334a4        0x4 mesh/core/libmesh_core_nrf52832_xxAA.a(flash_manager.c.obj)
                0x000334a4                PADDING_HEADER
 .rodata.SEAL_HEADER
                0x000334a8        0x4 mesh/core/libmesh_core_nrf52832_xxAA.a(flash_manager.c.obj)
                0x000334a8                SEAL_HEADER
 .rodata.process_action_queue.str1.1
                0x000334ac       0x21 mesh/core/libmesh_core_nrf52832_xxAA.a(flash_manager.c.obj)
                                 0x4f (size before relaxing)
 .rodata.beacon_packet_in.str1.1
                0x000334cd       0x51 mesh/core/libmesh_core_nrf52832_xxAA.a(beacon.c.obj)
                                 0x59 (size before relaxing)
 .rodata.net_beacon_init.str1.1
                0x0003351e        0x5 mesh/core/libmesh_core_nrf52832_xxAA.a(net_beacon.c.obj)
 .rodata.radio_mode_to_us_per_byte.9323
                0x00033523        0x6 mesh/core/libmesh_core_nrf52832_xxAA.a(broadcast.c.obj)
 .rodata.channel_rf_offsets.8585
                0x00033529       0x28 mesh/core/libmesh_core_nrf52832_xxAA.a(radio_config.c.obj)
 .rodata        0x00033551        0x3 mesh/core/libmesh_core_nrf52832_xxAA.a(scanner.c.obj)
 .rodata.sar_ctx_cancel.str1.1
                0x00033554       0x35 mesh/core/libmesh_core_nrf52832_xxAA.a(transport.c.obj)
                                 0x63 (size before relaxing)
 .rodata.test_transport_decrypt.str1.1
                0x00033589       0x13 mesh/core/libmesh_core_nrf52832_xxAA.a(transport.c.obj)
 .rodata.transport_packet_in.str1.1
                0x0003359c       0x24 mesh/core/libmesh_core_nrf52832_xxAA.a(transport.c.obj)
 .rodata.transport_tx.str1.1
                0x000335c0       0x2c mesh/core/libmesh_core_nrf52832_xxAA.a(transport.c.obj)
                                 0x34 (size before relaxing)
 .rodata.upper_transport_access_packet_in.str1.1
                0x000335ec       0x29 mesh/core/libmesh_core_nrf52832_xxAA.a(transport.c.obj)
 .rodata.upper_transport_packet_in.str1.1
                0x00033615       0x2e mesh/core/libmesh_core_nrf52832_xxAA.a(transport.c.obj)
 .rodata.flash_manager_defrag.str1.1
                0x00033643       0x28 mesh/core/libmesh_core_nrf52832_xxAA.a(flash_manager_defrag.c.obj)
                                 0x56 (size before relaxing)
 *fill*         0x0003366b        0x1 
 .rodata.m_procedure_steps
                0x0003366c       0x28 mesh/core/libmesh_core_nrf52832_xxAA.a(flash_manager_defrag.c.obj)
 .rodata.m_all_operations
                0x00033694       0x10 mesh/core/libmesh_core_nrf52832_xxAA.a(mesh_flash.c.obj)
 .rodata.Rb.7341
                0x000336a4       0x10 mesh/core/libmesh_core_nrf52832_xxAA.a(aes_cmac.c.obj)
 .rodata._DoInit.str1.1
                0x000336b4       0x14 external/rtt/librtt_nrf52832_xxAA.a(SEGGER_RTT.c.obj)
 .rodata._aV2C.5497
                0x000336c8       0x10 external/rtt/librtt_nrf52832_xxAA.a(SEGGER_RTT_printf.c.obj)
 .rodata.curve_secp256r1
                0x000336d8       0xb0 external/micro-ecc/libuECC_nrf52832_xxAA.a(uECC.c.obj)
 .rodata._global_impure_ptr
                0x00033788        0x4 c:/a/gcc_arm/6/bin/../lib/gcc/arm-none-eabi/6.3.1/../../../../arm-none-eabi/lib/thumb/v7e-m/fpv4-sp/hard\libc_nano.a(lib_a-impure.o)
                0x00033788                _global_impure_ptr
 *(.eh_frame*)
 .eh_frame      0x0003378c        0x0 c:/a/gcc_arm/6/bin/../lib/gcc/arm-none-eabi/6.3.1/thumb/v7e-m/fpv4-sp/hard/crtbegin.o
 .eh_frame      0x0003378c        0x4 c:/a/gcc_arm/6/bin/../lib/gcc/arm-none-eabi/6.3.1/thumb/v7e-m/fpv4-sp/hard/crtend.o

.glue_7         0x00033790        0x0
 .glue_7        0x00033790        0x0 linker stubs

.glue_7t        0x00033790        0x0
 .glue_7t       0x00033790        0x0 linker stubs

.vfp11_veneer   0x00033790        0x0
 .vfp11_veneer  0x00033790        0x0 linker stubs

.v4_bx          0x00033790        0x0
 .v4_bx         0x00033790        0x0 linker stubs

.iplt           0x00033790        0x0
 .iplt          0x00033790        0x0 c:/a/gcc_arm/6/bin/../lib/gcc/arm-none-eabi/6.3.1/thumb/v7e-m/fpv4-sp/hard/crtbegin.o

.ARM.extab
 *(.ARM.extab* .gnu.linkonce.armextab.*)
                0x00033790                __exidx_start = .

.ARM.exidx      0x00033790        0x8
 *(.ARM.exidx* .gnu.linkonce.armexidx.*)
 .ARM.exidx     0x00033790        0x8 c:/a/gcc_arm/6/bin/../lib/gcc/arm-none-eabi/6.3.1/../../../../arm-none-eabi/lib/thumb/v7e-m/fpv4-sp/hard/crt0.o
                0x00033798                __exidx_end = .
                0x00033798                __etext = .

.rel.dyn        0x00033798        0x0
 .rel.iplt      0x00033798        0x0 c:/a/gcc_arm/6/bin/../lib/gcc/arm-none-eabi/6.3.1/thumb/v7e-m/fpv4-sp/hard/crtbegin.o

.data           0x200031b0       0xe4 load address 0x00033798
                0x200031b0                __data_start__ = .
 *(vtable)
 *(.data*)
 .data.m_next_unprov_address
                0x200031b0        0x2 examples/pb_remote/client/CMakeFiles/pb_remote_client_nrf52832_xxAA_s132_5.0.0.dir/src/main.c.obj
 .data.m_unprov_report
                0x200031b2        0x1 examples/pb_remote/client/CMakeFiles/pb_remote_client_nrf52832_xxAA_s132_5.0.0.dir/__/__/__/mesh/prov/src/prov_beacon.c.obj
 *fill*         0x200031b3        0x1 
 .data.m_async_process_flag
                0x200031b4        0x4 examples/pb_remote/client/CMakeFiles/pb_remote_client_nrf52832_xxAA_s132_5.0.0.dir/__/__/__/mesh/prov/src/prov_bearer_adv.c.obj
 .data.flash_add_mem_available_struct.10375
                0x200031b8       0x10 examples/pb_remote/client/CMakeFiles/pb_remote_client_nrf52832_xxAA_s132_5.0.0.dir/__/__/__/mesh/access/src/access.c.obj
 .data.m_default_ttl
                0x200031c8        0x1 examples/pb_remote/client/CMakeFiles/pb_remote_client_nrf52832_xxAA_s132_5.0.0.dir/__/__/__/mesh/access/src/access.c.obj
 *fill*         0x200031c9        0x3 
 .data.mem_listener.10653
                0x200031cc       0x10 examples/pb_remote/client/CMakeFiles/pb_remote_client_nrf52832_xxAA_s132_5.0.0.dir/__/__/__/mesh/access/src/device_state_manager.c.obj
 .data.SystemCoreClock
                0x200031dc        0x4 examples/pb_remote/client/CMakeFiles/pb_remote_client_nrf52832_xxAA_s132_5.0.0.dir/__/__/__/external/nRF5_SDK_14.0.0_3bcc1f7/components/toolchain/system_nrf52.c.obj
                0x200031dc                SystemCoreClock
 .data.mem_listener.9847
                0x200031e0       0x10 mesh/core/libmesh_core_nrf52832_xxAA.a(net_state.c.obj)
 .data.mem_listener.9852
                0x200031f0       0x10 mesh/core/libmesh_core_nrf52832_xxAA.a(net_state.c.obj)
 .data.mem_listener.9866
                0x20003200       0x10 mesh/core/libmesh_core_nrf52832_xxAA.a(net_state.c.obj)
 .data.g_log_debug_level
                0x20003210        0x4 mesh/core/libmesh_core_nrf52832_xxAA.a(log.c.obj)
                0x20003210                g_log_debug_level
 .data.g_log_debug_msk
                0x20003214        0x4 mesh/core/libmesh_core_nrf52832_xxAA.a(log.c.obj)
                0x20003214                g_log_debug_msk
 .data.g_log_hex_digits
                0x20003218        0x4 mesh/core/libmesh_core_nrf52832_xxAA.a(log.c.obj)
                0x20003218                g_log_hex_digits
 .data.m_log_callback
                0x2000321c        0x4 mesh/core/libmesh_core_nrf52832_xxAA.a(log.c.obj)
                0x2000321c                m_log_callback
 .data.g_rng_function
                0x20003220        0x4 external/micro-ecc/libuECC_nrf52832_xxAA.a(uECC.c.obj)
 .data._impure_ptr
                0x20003224        0x4 c:/a/gcc_arm/6/bin/../lib/gcc/arm-none-eabi/6.3.1/../../../../arm-none-eabi/lib/thumb/v7e-m/fpv4-sp/hard\libc_nano.a(lib_a-impure.o)
                0x20003224                _impure_ptr
 .data.impure_data
                0x20003228       0x60 c:/a/gcc_arm/6/bin/../lib/gcc/arm-none-eabi/6.3.1/../../../../arm-none-eabi/lib/thumb/v7e-m/fpv4-sp/hard\libc_nano.a(lib_a-impure.o)
                0x20003288                . = ALIGN (0x4)
                0x20003288                PROVIDE (__preinit_array_start, .)
 *(.preinit_array)
                0x20003288                PROVIDE (__preinit_array_end, .)
                0x20003288                . = ALIGN (0x4)
                0x20003288                PROVIDE (__init_array_start, .)
 *(SORT(.init_array.*))
 *(.init_array)
 .init_array    0x20003288        0x4 c:/a/gcc_arm/6/bin/../lib/gcc/arm-none-eabi/6.3.1/thumb/v7e-m/fpv4-sp/hard/crtbegin.o
                0x2000328c                PROVIDE (__init_array_end, .)
                0x2000328c                . = ALIGN (0x4)
                [!provide]                PROVIDE (__fini_array_start, .)
 *(SORT(.fini_array.*))
 *(.fini_array)
 .fini_array    0x2000328c        0x4 c:/a/gcc_arm/6/bin/../lib/gcc/arm-none-eabi/6.3.1/thumb/v7e-m/fpv4-sp/hard/crtbegin.o
                [!provide]                PROVIDE (__fini_array_end, .)
 *(.jcr*)
 .jcr           0x20003290        0x0 c:/a/gcc_arm/6/bin/../lib/gcc/arm-none-eabi/6.3.1/thumb/v7e-m/fpv4-sp/hard/crtbegin.o
 .jcr           0x20003290        0x4 c:/a/gcc_arm/6/bin/../lib/gcc/arm-none-eabi/6.3.1/thumb/v7e-m/fpv4-sp/hard/crtend.o
                0x20003294                . = ALIGN (0x4)
                0x20003294                __data_end__ = .

.igot.plt       0x20003294        0x0 load address 0x0003387c
 .igot.plt      0x20003294        0x0 c:/a/gcc_arm/6/bin/../lib/gcc/arm-none-eabi/6.3.1/thumb/v7e-m/fpv4-sp/hard/crtbegin.o

.bss            0x20003298     0x2ebc load address 0x00033880
                0x20003298                . = ALIGN (0x4)
                0x20003298                __bss_start__ = .
 *(.bss*)
 .bss           0x20003298       0x1c c:/a/gcc_arm/6/bin/../lib/gcc/arm-none-eabi/6.3.1/thumb/v7e-m/fpv4-sp/hard/crtbegin.o
 .bss.m_appkey_handles
                0x200032b4        0x2 examples/pb_remote/client/CMakeFiles/pb_remote_client_nrf52832_xxAA_s132_5.0.0.dir/src/main.c.obj
 .bss.m_device_address_handles
                0x200032b6        0x8 examples/pb_remote/client/CMakeFiles/pb_remote_client_nrf52832_xxAA_s132_5.0.0.dir/src/main.c.obj
 .bss.m_device_state
                0x200032be        0x1 examples/pb_remote/client/CMakeFiles/pb_remote_client_nrf52832_xxAA_s132_5.0.0.dir/src/main.c.obj
 *fill*         0x200032bf        0x1 
 .bss.m_devkey_handles
                0x200032c0        0xa examples/pb_remote/client/CMakeFiles/pb_remote_client_nrf52832_xxAA_s132_5.0.0.dir/src/main.c.obj
 *fill*         0x200032ca        0x2 
 .bss.m_evt_handler
                0x200032cc        0x8 examples/pb_remote/client/CMakeFiles/pb_remote_client_nrf52832_xxAA_s132_5.0.0.dir/src/main.c.obj
 .bss.m_netkey_handles
                0x200032d4        0x2 examples/pb_remote/client/CMakeFiles/pb_remote_client_nrf52832_xxAA_s132_5.0.0.dir/src/main.c.obj
 .bss.m_next_unprov_index
                0x200032d6        0x1 examples/pb_remote/client/CMakeFiles/pb_remote_client_nrf52832_xxAA_s132_5.0.0.dir/src/main.c.obj
 *fill*         0x200032d7        0x1 
 .bss.m_num_elements_of_last_guy
                0x200032d8        0x2 examples/pb_remote/client/CMakeFiles/pb_remote_client_nrf52832_xxAA_s132_5.0.0.dir/src/main.c.obj
 .bss.m_private_key
                0x200032da       0x20 examples/pb_remote/client/CMakeFiles/pb_remote_client_nrf52832_xxAA_s132_5.0.0.dir/src/main.c.obj
 *fill*         0x200032fa        0x2 
 .bss.m_prov_ctx
                0x200032fc      0x2fc examples/pb_remote/client/CMakeFiles/pb_remote_client_nrf52832_xxAA_s132_5.0.0.dir/src/main.c.obj
 .bss.m_public_key
                0x200035f8       0x40 examples/pb_remote/client/CMakeFiles/pb_remote_client_nrf52832_xxAA_s132_5.0.0.dir/src/main.c.obj
 .bss.m_remote_client
                0x20003638       0x2c examples/pb_remote/client/CMakeFiles/pb_remote_client_nrf52832_xxAA_s132_5.0.0.dir/src/main.c.obj
 .bss.m_ble_evt_buffer
                0x20003664       0x4f examples/pb_remote/client/CMakeFiles/pb_remote_client_nrf52832_xxAA_s132_5.0.0.dir/__/__/nrf_mesh_sdk.c.obj
 .bss.m_is_interrupting
                0x200036b3        0x1 examples/pb_remote/client/CMakeFiles/pb_remote_client_nrf52832_xxAA_s132_5.0.0.dir/__/__/__/models/pb_remote/src/pb_remote_client.c.obj
 .bss.m_packet  0x200036b4       0x41 examples/pb_remote/client/CMakeFiles/pb_remote_client_nrf52832_xxAA_s132_5.0.0.dir/__/__/__/models/pb_remote/src/pb_remote_client.c.obj
 *fill*         0x200036f5        0x3 
 .bss.m_pbr_client_event_queue
                0x200036f8       0x14 examples/pb_remote/client/CMakeFiles/pb_remote_client_nrf52832_xxAA_s132_5.0.0.dir/__/__/__/models/pb_remote/src/pb_remote_client.c.obj
 .bss.m_pbr_client_event_queue_buffer
                0x2000370c       0x90 examples/pb_remote/client/CMakeFiles/pb_remote_client_nrf52832_xxAA_s132_5.0.0.dir/__/__/__/models/pb_remote/src/pb_remote_client.c.obj
 .bss.mp_pb_remote_client_model
                0x2000379c        0x4 examples/pb_remote/client/CMakeFiles/pb_remote_client_nrf52832_xxAA_s132_5.0.0.dir/__/__/__/models/pb_remote/src/pb_remote_client.c.obj
 .bss.m_offload_ecdh
                0x200037a0        0x1 examples/pb_remote/client/CMakeFiles/pb_remote_client_nrf52832_xxAA_s132_5.0.0.dir/__/__/__/mesh/prov/src/prov_utils.c.obj
 *fill*         0x200037a1        0x3 
 .bss.mp_bearer_head
                0x200037a4        0x4 examples/pb_remote/client/CMakeFiles/pb_remote_client_nrf52832_xxAA_s132_5.0.0.dir/__/__/__/mesh/prov/src/prov_bearer_adv.c.obj
 .bss.m_publish_timer
                0x200037a8       0x18 examples/pb_remote/client/CMakeFiles/pb_remote_client_nrf52832_xxAA_s132_5.0.0.dir/__/__/__/mesh/access/src/access_publish.c.obj
 .bss.m_publish_timer_counter
                0x200037c0        0x4 examples/pb_remote/client/CMakeFiles/pb_remote_client_nrf52832_xxAA_s132_5.0.0.dir/__/__/__/mesh/access/src/access_publish.c.obj
 .bss.m_publish_timer_running
                0x200037c4        0x1 examples/pb_remote/client/CMakeFiles/pb_remote_client_nrf52832_xxAA_s132_5.0.0.dir/__/__/__/mesh/access/src/access_publish.c.obj
 .bss.m_timer_resolution
                0x200037c5        0x1 examples/pb_remote/client/CMakeFiles/pb_remote_client_nrf52832_xxAA_s132_5.0.0.dir/__/__/__/mesh/access/src/access_publish.c.obj
 *fill*         0x200037c6        0x2 
 .bss.mp_publication_list
                0x200037c8        0x4 examples/pb_remote/client/CMakeFiles/pb_remote_client_nrf52832_xxAA_s132_5.0.0.dir/__/__/__/mesh/access/src/access_publish.c.obj
 .bss.m_element_pool
                0x200037cc        0x6 examples/pb_remote/client/CMakeFiles/pb_remote_client_nrf52832_xxAA_s132_5.0.0.dir/__/__/__/mesh/access/src/access.c.obj
 *fill*         0x200037d2        0x2 
 .bss.m_evt_handler
                0x200037d4        0x8 examples/pb_remote/client/CMakeFiles/pb_remote_client_nrf52832_xxAA_s132_5.0.0.dir/__/__/__/mesh/access/src/access.c.obj
 .bss.m_flash_manager
                0x200037dc       0x24 examples/pb_remote/client/CMakeFiles/pb_remote_client_nrf52832_xxAA_s132_5.0.0.dir/__/__/__/mesh/access/src/access.c.obj
 .bss.m_flash_not_ready
                0x20003800        0x1 examples/pb_remote/client/CMakeFiles/pb_remote_client_nrf52832_xxAA_s132_5.0.0.dir/__/__/__/mesh/access/src/access.c.obj
 *fill*         0x20003801        0x3 
 .bss.m_model_pool
                0x20003804       0x68 examples/pb_remote/client/CMakeFiles/pb_remote_client_nrf52832_xxAA_s132_5.0.0.dir/__/__/__/mesh/access/src/access.c.obj
 .bss.m_subscription_list_pool
                0x2000386c       0x10 examples/pb_remote/client/CMakeFiles/pb_remote_client_nrf52832_xxAA_s132_5.0.0.dir/__/__/__/mesh/access/src/access.c.obj
 .bss.m_reliable
                0x2000387c       0x6c examples/pb_remote/client/CMakeFiles/pb_remote_client_nrf52832_xxAA_s132_5.0.0.dir/__/__/__/mesh/access/src/access_reliable.c.obj
 .bss.m_addr_nonvirtual_allocated
                0x200038e8        0x4 examples/pb_remote/client/CMakeFiles/pb_remote_client_nrf52832_xxAA_s132_5.0.0.dir/__/__/__/mesh/access/src/device_state_manager.c.obj
 .bss.m_addr_nonvirtual_needs_flashing
                0x200038ec        0x4 examples/pb_remote/client/CMakeFiles/pb_remote_client_nrf52832_xxAA_s132_5.0.0.dir/__/__/__/mesh/access/src/device_state_manager.c.obj
 .bss.m_addr_unicast_allocated
                0x200038f0        0x4 examples/pb_remote/client/CMakeFiles/pb_remote_client_nrf52832_xxAA_s132_5.0.0.dir/__/__/__/mesh/access/src/device_state_manager.c.obj
 .bss.m_addr_unicast_needs_flashing
                0x200038f4        0x4 examples/pb_remote/client/CMakeFiles/pb_remote_client_nrf52832_xxAA_s132_5.0.0.dir/__/__/__/mesh/access/src/device_state_manager.c.obj
 .bss.m_addr_virtual_allocated
                0x200038f8        0x4 examples/pb_remote/client/CMakeFiles/pb_remote_client_nrf52832_xxAA_s132_5.0.0.dir/__/__/__/mesh/access/src/device_state_manager.c.obj
 .bss.m_addr_virtual_needs_flashing
                0x200038fc        0x4 examples/pb_remote/client/CMakeFiles/pb_remote_client_nrf52832_xxAA_s132_5.0.0.dir/__/__/__/mesh/access/src/device_state_manager.c.obj
 .bss.m_addresses
                0x20003900       0x10 examples/pb_remote/client/CMakeFiles/pb_remote_client_nrf52832_xxAA_s132_5.0.0.dir/__/__/__/mesh/access/src/device_state_manager.c.obj
 .bss.m_appkey_allocated
                0x20003910        0x4 examples/pb_remote/client/CMakeFiles/pb_remote_client_nrf52832_xxAA_s132_5.0.0.dir/__/__/__/mesh/access/src/device_state_manager.c.obj
 .bss.m_appkey_needs_flashing
                0x20003914        0x4 examples/pb_remote/client/CMakeFiles/pb_remote_client_nrf52832_xxAA_s132_5.0.0.dir/__/__/__/mesh/access/src/device_state_manager.c.obj
 .bss.m_appkeys
                0x20003918       0x16 examples/pb_remote/client/CMakeFiles/pb_remote_client_nrf52832_xxAA_s132_5.0.0.dir/__/__/__/mesh/access/src/device_state_manager.c.obj
 *fill*         0x2000392e        0x2 
 .bss.m_devkey_allocated
                0x20003930        0x4 examples/pb_remote/client/CMakeFiles/pb_remote_client_nrf52832_xxAA_s132_5.0.0.dir/__/__/__/mesh/access/src/device_state_manager.c.obj
 .bss.m_devkey_needs_flashing
                0x20003934        0x4 examples/pb_remote/client/CMakeFiles/pb_remote_client_nrf52832_xxAA_s132_5.0.0.dir/__/__/__/mesh/access/src/device_state_manager.c.obj
 .bss.m_devkeys
                0x20003938       0x6e examples/pb_remote/client/CMakeFiles/pb_remote_client_nrf52832_xxAA_s132_5.0.0.dir/__/__/__/mesh/access/src/device_state_manager.c.obj
 .bss.m_flash_is_available
                0x200039a6        0x1 examples/pb_remote/client/CMakeFiles/pb_remote_client_nrf52832_xxAA_s132_5.0.0.dir/__/__/__/mesh/access/src/device_state_manager.c.obj
 *fill*         0x200039a7        0x1 
 .bss.m_flash_manager
                0x200039a8       0x24 examples/pb_remote/client/CMakeFiles/pb_remote_client_nrf52832_xxAA_s132_5.0.0.dir/__/__/__/mesh/access/src/device_state_manager.c.obj
 .bss.m_flash_mem_listener_update_all
                0x200039cc       0x10 examples/pb_remote/client/CMakeFiles/pb_remote_client_nrf52832_xxAA_s132_5.0.0.dir/__/__/__/mesh/access/src/device_state_manager.c.obj
 .bss.m_has_primary_subnet
                0x200039dc        0x1 examples/pb_remote/client/CMakeFiles/pb_remote_client_nrf52832_xxAA_s132_5.0.0.dir/__/__/__/mesh/access/src/device_state_manager.c.obj
 *fill*         0x200039dd        0x1 
 .bss.m_local_unicast_addr
                0x200039de        0x4 examples/pb_remote/client/CMakeFiles/pb_remote_client_nrf52832_xxAA_s132_5.0.0.dir/__/__/__/mesh/access/src/device_state_manager.c.obj
 *fill*         0x200039e2        0x2 
 .bss.m_subnet_allocated
                0x200039e4        0x4 examples/pb_remote/client/CMakeFiles/pb_remote_client_nrf52832_xxAA_s132_5.0.0.dir/__/__/__/mesh/access/src/device_state_manager.c.obj
 .bss.m_subnet_needs_flashing
                0x200039e8        0x4 examples/pb_remote/client/CMakeFiles/pb_remote_client_nrf52832_xxAA_s132_5.0.0.dir/__/__/__/mesh/access/src/device_state_manager.c.obj
 .bss.m_subnets
                0x200039ec       0x5c examples/pb_remote/client/CMakeFiles/pb_remote_client_nrf52832_xxAA_s132_5.0.0.dir/__/__/__/mesh/access/src/device_state_manager.c.obj
 .bss.m_virtual_addresses
                0x20003a48       0x14 examples/pb_remote/client/CMakeFiles/pb_remote_client_nrf52832_xxAA_s132_5.0.0.dir/__/__/__/mesh/access/src/device_state_manager.c.obj
 .bss.m_uuid    0x20003a5c       0x10 mesh/core/libmesh_core_nrf52832_xxAA.a(nrf_mesh_configure.c.obj)
 .bss.mp_evt_handlers_head
                0x20003a6c        0x4 mesh/core/libmesh_core_nrf52832_xxAA.a(event.c.obj)
 .bss.lock_count.9906
                0x20003a70        0x4 mesh/core/libmesh_core_nrf52832_xxAA.a(net_state.c.obj)
 .bss.m_flash_manager
                0x20003a74       0x24 mesh/core/libmesh_core_nrf52832_xxAA.a(net_state.c.obj)
 .bss.m_iv_update_timer
                0x20003a98       0x18 mesh/core/libmesh_core_nrf52832_xxAA.a(net_state.c.obj)
 .bss.m_net_state
                0x20003ab0       0x14 mesh/core/libmesh_core_nrf52832_xxAA.a(net_state.c.obj)
 .bss.m_seqnum_allocation_in_progress
                0x20003ac4        0x1 mesh/core/libmesh_core_nrf52832_xxAA.a(net_state.c.obj)
 .bss.m_test_mode
                0x20003ac5        0x1 mesh/core/libmesh_core_nrf52832_xxAA.a(net_state.c.obj)
 .bss.m_is_enabled
                0x20003ac6        0x1 mesh/core/libmesh_core_nrf52832_xxAA.a(nrf_mesh.c.obj)
 .bss.m_is_initialized
                0x20003ac7        0x1 mesh/core/libmesh_core_nrf52832_xxAA.a(nrf_mesh.c.obj)
 .bss.m_rx_cb   0x20003ac8        0x4 mesh/core/libmesh_core_nrf52832_xxAA.a(nrf_mesh.c.obj)
 .bss.m_event_flag
                0x20003acc        0x4 mesh/core/libmesh_core_nrf52832_xxAA.a(timer_scheduler.c.obj)
 .bss.m_scheduler
                0x20003ad0       0x10 mesh/core/libmesh_core_nrf52832_xxAA.a(timer_scheduler.c.obj)
 .bss.m_attributes
                0x20003ae0        0x3 mesh/core/libmesh_core_nrf52832_xxAA.a(timer.c.obj)
 *fill*         0x20003ae3        0x1 
 .bss.m_callbacks
                0x20003ae4        0xc mesh/core/libmesh_core_nrf52832_xxAA.a(timer.c.obj)
 .bss.m_is_in_ts
                0x20003af0        0x1 mesh/core/libmesh_core_nrf52832_xxAA.a(timer.c.obj)
 *fill*         0x20003af1        0x3 
 .bss.m_reference_time
                0x20003af4        0x4 mesh/core/libmesh_core_nrf52832_xxAA.a(timer.c.obj)
 .bss.m_timeouts
                0x20003af8        0xc mesh/core/libmesh_core_nrf52832_xxAA.a(timer.c.obj)
 .bss.m_timer_mut
                0x20003b04        0x4 mesh/core/libmesh_core_nrf52832_xxAA.a(timer.c.obj)
 .bss.m_ts_end_time
                0x20003b08        0x4 mesh/core/libmesh_core_nrf52832_xxAA.a(timer.c.obj)
 .bss.mp_ppi_tasks
                0x20003b0c        0xc mesh/core/libmesh_core_nrf52832_xxAA.a(timer.c.obj)
 .bss.m_current_time
                0x20003b18        0x4 mesh/core/libmesh_core_nrf52832_xxAA.a(ticker.c.obj)
 .bss.m_timer   0x20003b1c       0x18 mesh/core/libmesh_core_nrf52832_xxAA.a(ticker.c.obj)
 .bss.m_current_timeslot
                0x20003b34       0x1c mesh/core/libmesh_core_nrf52832_xxAA.a(timeslot.c.obj)
 .bss.m_lfclk_ppm
                0x20003b50        0x4 mesh/core/libmesh_core_nrf52832_xxAA.a(timeslot.c.obj)
 .bss.m_radio_request_earliest
                0x20003b54       0x10 mesh/core/libmesh_core_nrf52832_xxAA.a(timeslot.c.obj)
 .bss.m_state_lock
                0x20003b64        0x1 mesh/core/libmesh_core_nrf52832_xxAA.a(timeslot.c.obj)
 .bss.m_timeslot_forced_command
                0x20003b65        0x1 mesh/core/libmesh_core_nrf52832_xxAA.a(timeslot.c.obj)
 *fill*         0x20003b66        0x2 
 .bss.s_last_rtc_value.9171
                0x20003b68        0x8 mesh/core/libmesh_core_nrf52832_xxAA.a(timeslot.c.obj)
 .bss.m_bearer_event_fifo
                0x20003b70       0x14 mesh/core/libmesh_core_nrf52832_xxAA.a(bearer_event.c.obj)
 .bss.m_bearer_event_fifo_buffer
                0x20003b84      0x100 mesh/core/libmesh_core_nrf52832_xxAA.a(bearer_event.c.obj)
 .bss.m_critical
                0x20003c84        0x4 mesh/core/libmesh_core_nrf52832_xxAA.a(bearer_event.c.obj)
 .bss.m_flag_count
                0x20003c88        0x4 mesh/core/libmesh_core_nrf52832_xxAA.a(bearer_event.c.obj)
 .bss.m_flag_event_callbacks
                0x20003c8c       0x18 mesh/core/libmesh_core_nrf52832_xxAA.a(bearer_event.c.obj)
 .bss.m_flags   0x20003ca4        0x4 mesh/core/libmesh_core_nrf52832_xxAA.a(bearer_event.c.obj)
 .bss.m_sequential_event_queue
                0x20003ca8        0x8 mesh/core/libmesh_core_nrf52832_xxAA.a(bearer_event.c.obj)
 .bss.m_relay_check_cb
                0x20003cb0        0x4 mesh/core/libmesh_core_nrf52832_xxAA.a(network.c.obj)
 .bss.m_relay_enable
                0x20003cb4        0x1 mesh/core/libmesh_core_nrf52832_xxAA.a(network.c.obj)
 *fill*         0x20003cb5        0x3 
 .bss.m_action_queue
                0x20003cb8        0xc mesh/core/libmesh_core_nrf52832_xxAA.a(flash_manager.c.obj)
 .bss.m_action_queue_buffer
                0x20003cc4      0x104 mesh/core/libmesh_core_nrf52832_xxAA.a(flash_manager.c.obj)
 .bss.m_action_state
                0x20003dc8        0x1 mesh/core/libmesh_core_nrf52832_xxAA.a(flash_manager.c.obj)
 *fill*         0x20003dc9        0x3 
 .bss.m_memory_listener_queue
                0x20003dcc        0x8 mesh/core/libmesh_core_nrf52832_xxAA.a(flash_manager.c.obj)
 .bss.m_processing_flag
                0x20003dd4        0x4 mesh/core/libmesh_core_nrf52832_xxAA.a(flash_manager.c.obj)
 .bss.m_state   0x20003dd8        0x1 mesh/core/libmesh_core_nrf52832_xxAA.a(flash_manager.c.obj)
 *fill*         0x20003dd9        0x1 
 .bss.m_token   0x20003dda        0x2 mesh/core/libmesh_core_nrf52832_xxAA.a(flash_manager.c.obj)
 .bss.p_current.11023
                0x20003ddc        0x4 mesh/core/libmesh_core_nrf52832_xxAA.a(flash_manager.c.obj)
 .bss.result.11024
                0x20003de0        0x1 mesh/core/libmesh_core_nrf52832_xxAA.a(flash_manager.c.obj)
 *fill*         0x20003de1        0x3 
 .bss.m_adv_buffer
                0x20003de4       0x68 mesh/core/libmesh_core_nrf52832_xxAA.a(beacon.c.obj)
 .bss.m_advertiser
                0x20003e4c       0x94 mesh/core/libmesh_core_nrf52832_xxAA.a(beacon.c.obj)
 .bss.m_adv_tx_count
                0x20003ee0        0x8 mesh/core/libmesh_core_nrf52832_xxAA.a(core_tx.c.obj)
 .bss.m_advertisers
                0x20003ee8      0x128 mesh/core/libmesh_core_nrf52832_xxAA.a(core_tx.c.obj)
 .bss.m_originator_adv_packet_buffer
                0x20004010      0x100 mesh/core/libmesh_core_nrf52832_xxAA.a(core_tx.c.obj)
 .bss.m_relay_adv_packet_buffer
                0x20004110       0x80 mesh/core/libmesh_core_nrf52832_xxAA.a(core_tx.c.obj)
 .bss.m_tx_complete_callback
                0x20004190        0x4 mesh/core/libmesh_core_nrf52832_xxAA.a(core_tx.c.obj)
 .bss.m_beacon_salt
                0x20004194       0x10 mesh/core/libmesh_core_nrf52832_xxAA.a(net_beacon.c.obj)
 .bss.m_enabled
                0x200041a4        0x1 mesh/core/libmesh_core_nrf52832_xxAA.a(net_beacon.c.obj)
 *fill*         0x200041a5        0x3 
 .bss.m_tx_event
                0x200041a8       0x18 mesh/core/libmesh_core_nrf52832_xxAA.a(net_beacon.c.obj)
 .bss.m_adv_prng
                0x200041c0       0x10 mesh/core/libmesh_core_nrf52832_xxAA.a(advertiser.c.obj)
 .bss.m_action_queue
                0x200041d0        0x8 mesh/core/libmesh_core_nrf52832_xxAA.a(bearer_handler.c.obj)
 .bss.m_end_time
                0x200041d8        0x4 mesh/core/libmesh_core_nrf52832_xxAA.a(bearer_handler.c.obj)
 .bss.m_scanner_is_active
                0x200041dc        0x1 mesh/core/libmesh_core_nrf52832_xxAA.a(bearer_handler.c.obj)
 .bss.m_stopped
                0x200041dd        0x1 mesh/core/libmesh_core_nrf52832_xxAA.a(bearer_handler.c.obj)
 *fill*         0x200041de        0x2 
 .bss.mp_action
                0x200041e0        0x4 mesh/core/libmesh_core_nrf52832_xxAA.a(bearer_handler.c.obj)
 .bss.m_next_channel_index
                0x200041e4        0x1 mesh/core/libmesh_core_nrf52832_xxAA.a(broadcast.c.obj)
 *fill*         0x200041e5        0x3 
 .bss.m_scanner
                0x200041e8      0x284 mesh/core/libmesh_core_nrf52832_xxAA.a(scanner.c.obj)
 .bss.m_internal_event_fifo
                0x2000446c       0x14 mesh/core/libmesh_core_nrf52832_xxAA.a(internal_event.c.obj)
 .bss.m_internal_event_initialized
                0x20004480        0x1 mesh/core/libmesh_core_nrf52832_xxAA.a(internal_event.c.obj)
 *fill*         0x20004481        0x3 
 .bss.m_report_cb
                0x20004484        0x4 mesh/core/libmesh_core_nrf52832_xxAA.a(internal_event.c.obj)
 .bss.m_msg_cache
                0x20004488      0x100 mesh/core/libmesh_core_nrf52832_xxAA.a(msg_cache.c.obj)
 .bss.m_msg_cache_head
                0x20004588        0x4 mesh/core/libmesh_core_nrf52832_xxAA.a(msg_cache.c.obj)
 .bss.m_sar_alloc
                0x2000458c        0x4 mesh/core/libmesh_core_nrf52832_xxAA.a(transport.c.obj)
 .bss.m_sar_process_flag
                0x20004590        0x4 mesh/core/libmesh_core_nrf52832_xxAA.a(transport.c.obj)
 .bss.m_sar_release
                0x20004594        0x4 mesh/core/libmesh_core_nrf52832_xxAA.a(transport.c.obj)
 .bss.m_sar_session_cache
                0x20004598       0x40 mesh/core/libmesh_core_nrf52832_xxAA.a(transport.c.obj)
 .bss.m_sar_session_cache_head
                0x200045d8        0x4 mesh/core/libmesh_core_nrf52832_xxAA.a(transport.c.obj)
 .bss.m_trs_config
                0x200045dc       0x18 mesh/core/libmesh_core_nrf52832_xxAA.a(transport.c.obj)
 .bss.m_trs_sar_sessions
                0x200045f4      0x1b0 mesh/core/libmesh_core_nrf52832_xxAA.a(transport.c.obj)
 .bss.m_defrag  0x200047a4       0x1c mesh/core/libmesh_core_nrf52832_xxAA.a(flash_manager_defrag.c.obj)
 .bss.m_token   0x200047c0        0x2 mesh/core/libmesh_core_nrf52832_xxAA.a(flash_manager_defrag.c.obj)
 *fill*         0x200047c2        0x2 
 .bss.mp_recovery_area
                0x200047c4        0x4 mesh/core/libmesh_core_nrf52832_xxAA.a(flash_manager_defrag.c.obj)
 .bss.p_null_ptr.10076
                0x200047c8        0x4 mesh/core/libmesh_core_nrf52832_xxAA.a(flash_manager_defrag.c.obj)
 .bss.m_pool    0x200047cc     0x1000 mesh/core/libmesh_core_nrf52832_xxAA.a(packet_mgr.c.obj)
 .bss.mp_free_head
                0x200057cc        0x4 mesh/core/libmesh_core_nrf52832_xxAA.a(packet_mgr.c.obj)
 .bss.m_event_flag
                0x200057d0        0x4 mesh/core/libmesh_core_nrf52832_xxAA.a(mesh_flash.c.obj)
 .bss.m_suspended
                0x200057d4        0x1 mesh/core/libmesh_core_nrf52832_xxAA.a(mesh_flash.c.obj)
 *fill*         0x200057d5        0x3 
 .bss.m_users   0x200057d8      0x228 mesh/core/libmesh_core_nrf52832_xxAA.a(mesh_flash.c.obj)
 .bss.m_128buf  0x20005a00       0x10 mesh/core/libmesh_core_nrf52832_xxAA.a(aes_cmac.c.obj)
 .bss.m_subkey1
                0x20005a10       0x10 mesh/core/libmesh_core_nrf52832_xxAA.a(aes_cmac.c.obj)
 .bss.m_subkey2
                0x20005a20       0x10 mesh/core/libmesh_core_nrf52832_xxAA.a(aes_cmac.c.obj)
 .bss.m_cache_full
                0x20005a30        0x1 mesh/core/libmesh_core_nrf52832_xxAA.a(replay_cache.c.obj)
 .bss.m_cache_index
                0x20005a31        0x1 mesh/core/libmesh_core_nrf52832_xxAA.a(replay_cache.c.obj)
 *fill*         0x20005a32        0x2 
 .bss.m_replay_cache
                0x20005a34      0x200 mesh/core/libmesh_core_nrf52832_xxAA.a(replay_cache.c.obj)
 .bss.m_accepted_amount
                0x20005c34        0x4 mesh/core/libmesh_core_nrf52832_xxAA.a(filter_engine.c.obj)
 .bss.m_filter_list_head
                0x20005c38        0x4 mesh/core/libmesh_core_nrf52832_xxAA.a(filter_engine.c.obj)
 .bss._acDownBuffer
                0x20005c3c       0x80 external/rtt/librtt_nrf52832_xxAA.a(SEGGER_RTT.c.obj)
 .bss._acUpBuffer
                0x20005cbc      0x400 external/rtt/librtt_nrf52832_xxAA.a(SEGGER_RTT.c.obj)
 .bss.__malloc_free_list
                0x200060bc        0x4 c:/a/gcc_arm/6/bin/../lib/gcc/arm-none-eabi/6.3.1/../../../../arm-none-eabi/lib/thumb/v7e-m/fpv4-sp/hard\libc_nano.a(lib_a-nano-mallocr.o)
                0x200060bc                __malloc_free_list
 .bss.__malloc_sbrk_start
                0x200060c0        0x4 c:/a/gcc_arm/6/bin/../lib/gcc/arm-none-eabi/6.3.1/../../../../arm-none-eabi/lib/thumb/v7e-m/fpv4-sp/hard\libc_nano.a(lib_a-nano-mallocr.o)
                0x200060c0                __malloc_sbrk_start
 .bss.heap_end.5239
                0x200060c4        0x4 c:/a/gcc_arm/6/bin/../lib/gcc/arm-none-eabi/6.3.1/../../../../arm-none-eabi/lib/thumb/v7e-m/fpv4-sp/hard\libnosys.a(sbrk.o)
 *(COMMON)
 COMMON         0x200060c8        0xc examples/pb_remote/client/CMakeFiles/pb_remote_client_nrf52832_xxAA_s132_5.0.0.dir/__/__/nrf_mesh_sdk.c.obj
                0x200060c8                nrf_nvic_state
 COMMON         0x200060d4        0x4 mesh/core/libmesh_core_nrf52832_xxAA.a(nrf_mesh.c.obj)
                0x200060d4                m_assertion_handler
 COMMON         0x200060d8       0x78 external/rtt/librtt_nrf52832_xxAA.a(SEGGER_RTT.c.obj)
                0x200060d8                _SEGGER_RTT
 COMMON         0x20006150        0x4 c:/a/gcc_arm/6/bin/../lib/gcc/arm-none-eabi/6.3.1/../../../../arm-none-eabi/lib/thumb/v7e-m/fpv4-sp/hard\libc_nano.a(lib_a-reent.o)
                0x20006150                errno
                0x20006154                . = ALIGN (0x4)
                0x20006154                __bss_end__ = .

.heap           0x20006158     0x2000
                0x20006158                __HeapBase = .
                0x20006158                __end__ = .
                0x20006158                PROVIDE (end, .)
 *(.heap*)
 .heap          0x20006158     0x2000 examples/pb_remote/client/CMakeFiles/pb_remote_client_nrf52832_xxAA_s132_5.0.0.dir/__/__/__/external/nRF5_SDK_14.0.0_3bcc1f7/components/toolchain/gcc/gcc_startup_nrf52.S.obj
                0x20008158                __HeapLimit = .

.stack_dummy    0x20006158     0x2000
 *(.stack*)
 .stack         0x20006158     0x2000 examples/pb_remote/client/CMakeFiles/pb_remote_client_nrf52832_xxAA_s132_5.0.0.dir/__/__/__/external/nRF5_SDK_14.0.0_3bcc1f7/components/toolchain/gcc/gcc_startup_nrf52.S.obj
                0x20010000                __StackTop = (ORIGIN (RAM) + LENGTH (RAM))
                0x2000e000                __StackLimit = (__StackTop - SIZEOF (.stack_dummy))
                0x20010000                PROVIDE (__stack, __StackTop)
                0x00000001                ASSERT ((__StackLimit >= __HeapLimit), region RAM overflowed with stack)
OUTPUT(examples\pb_remote\client\pb_remote_client_nrf52832_xxAA_s132_5.0.0.elf elf32-littlearm)

.ARM.attributes
                0x00000000       0x30
 .ARM.attributes
                0x00000000       0x22 c:/a/gcc_arm/6/bin/../lib/gcc/arm-none-eabi/6.3.1/thumb/v7e-m/fpv4-sp/hard/crti.o
 .ARM.attributes
                0x00000022       0x34 c:/a/gcc_arm/6/bin/../lib/gcc/arm-none-eabi/6.3.1/thumb/v7e-m/fpv4-sp/hard/crtbegin.o
 .ARM.attributes
                0x00000056       0x20 c:/a/gcc_arm/6/bin/../lib/gcc/arm-none-eabi/6.3.1/../../../../arm-none-eabi/lib/thumb/v7e-m/fpv4-sp/hard/crt0.o
 .ARM.attributes
                0x00000076       0x39 examples/pb_remote/client/CMakeFiles/pb_remote_client_nrf52832_xxAA_s132_5.0.0.dir/src/main.c.obj
 .ARM.attributes
                0x000000af       0x39 examples/pb_remote/client/CMakeFiles/pb_remote_client_nrf52832_xxAA_s132_5.0.0.dir/__/__/nrf_mesh_sdk.c.obj
 .ARM.attributes
                0x000000e8       0x39 examples/pb_remote/client/CMakeFiles/pb_remote_client_nrf52832_xxAA_s132_5.0.0.dir/__/__/__/models/pb_remote/src/pb_remote_client.c.obj
 .ARM.attributes
                0x00000121       0x39 examples/pb_remote/client/CMakeFiles/pb_remote_client_nrf52832_xxAA_s132_5.0.0.dir/__/__/__/mesh/prov/src/prov_provisioner.c.obj
 .ARM.attributes
                0x0000015a       0x39 examples/pb_remote/client/CMakeFiles/pb_remote_client_nrf52832_xxAA_s132_5.0.0.dir/__/__/__/mesh/prov/src/nrf_mesh_prov.c.obj
 .ARM.attributes
                0x00000193       0x39 examples/pb_remote/client/CMakeFiles/pb_remote_client_nrf52832_xxAA_s132_5.0.0.dir/__/__/__/mesh/prov/src/provisioning.c.obj
 .ARM.attributes
                0x000001cc       0x39 examples/pb_remote/client/CMakeFiles/pb_remote_client_nrf52832_xxAA_s132_5.0.0.dir/__/__/__/mesh/prov/src/prov_beacon.c.obj
 .ARM.attributes
                0x00000205       0x39 examples/pb_remote/client/CMakeFiles/pb_remote_client_nrf52832_xxAA_s132_5.0.0.dir/__/__/__/mesh/prov/src/prov_utils.c.obj
 .ARM.attributes
                0x0000023e       0x39 examples/pb_remote/client/CMakeFiles/pb_remote_client_nrf52832_xxAA_s132_5.0.0.dir/__/__/__/mesh/prov/src/prov_bearer_adv.c.obj
 .ARM.attributes
                0x00000277       0x39 examples/pb_remote/client/CMakeFiles/pb_remote_client_nrf52832_xxAA_s132_5.0.0.dir/__/__/__/mesh/access/src/access_publish.c.obj
 .ARM.attributes
                0x000002b0       0x39 examples/pb_remote/client/CMakeFiles/pb_remote_client_nrf52832_xxAA_s132_5.0.0.dir/__/__/__/mesh/access/src/access.c.obj
 .ARM.attributes
                0x000002e9       0x39 examples/pb_remote/client/CMakeFiles/pb_remote_client_nrf52832_xxAA_s132_5.0.0.dir/__/__/__/mesh/access/src/access_reliable.c.obj
 .ARM.attributes
                0x00000322       0x39 examples/pb_remote/client/CMakeFiles/pb_remote_client_nrf52832_xxAA_s132_5.0.0.dir/__/__/__/mesh/access/src/device_state_manager.c.obj
 .ARM.attributes
                0x0000035b       0x39 examples/pb_remote/client/CMakeFiles/pb_remote_client_nrf52832_xxAA_s132_5.0.0.dir/__/__/nrf_mesh_weak.c.obj
 .ARM.attributes
                0x00000394       0x39 examples/pb_remote/client/CMakeFiles/pb_remote_client_nrf52832_xxAA_s132_5.0.0.dir/__/__/__/external/nRF5_SDK_14.0.0_3bcc1f7/components/toolchain/system_nrf52.c.obj
 .ARM.attributes
                0x000003cd       0x20 examples/pb_remote/client/CMakeFiles/pb_remote_client_nrf52832_xxAA_s132_5.0.0.dir/__/__/__/external/nRF5_SDK_14.0.0_3bcc1f7/components/toolchain/gcc/gcc_startup_nrf52.S.obj
 .ARM.attributes
                0x000003ed       0x39 mesh/core/libmesh_core_nrf52832_xxAA.a(nrf_mesh_configure.c.obj)
 .ARM.attributes
                0x00000426       0x39 mesh/core/libmesh_core_nrf52832_xxAA.a(event.c.obj)
 .ARM.attributes
                0x0000045f       0x39 mesh/core/libmesh_core_nrf52832_xxAA.a(fifo.c.obj)
 .ARM.attributes
                0x00000498       0x39 mesh/core/libmesh_core_nrf52832_xxAA.a(net_state.c.obj)
 .ARM.attributes
                0x000004d1       0x39 mesh/core/libmesh_core_nrf52832_xxAA.a(nrf_mesh_utils.c.obj)
 .ARM.attributes
                0x0000050a       0x39 mesh/core/libmesh_core_nrf52832_xxAA.a(nrf_mesh.c.obj)
 .ARM.attributes
                0x00000543       0x39 mesh/core/libmesh_core_nrf52832_xxAA.a(hal.c.obj)
 .ARM.attributes
                0x0000057c       0x39 mesh/core/libmesh_core_nrf52832_xxAA.a(timer_scheduler.c.obj)
 .ARM.attributes
                0x000005b5       0x39 mesh/core/libmesh_core_nrf52832_xxAA.a(timer.c.obj)
 .ARM.attributes
                0x000005ee       0x39 mesh/core/libmesh_core_nrf52832_xxAA.a(ticker.c.obj)
 .ARM.attributes
                0x00000627       0x39 mesh/core/libmesh_core_nrf52832_xxAA.a(rand.c.obj)
 .ARM.attributes
                0x00000660       0x39 mesh/core/libmesh_core_nrf52832_xxAA.a(timeslot.c.obj)
 .ARM.attributes
                0x00000699       0x39 mesh/core/libmesh_core_nrf52832_xxAA.a(bearer_event.c.obj)
 .ARM.attributes
                0x000006d2       0x39 mesh/core/libmesh_core_nrf52832_xxAA.a(enc.c.obj)
 .ARM.attributes
                0x0000070b       0x39 mesh/core/libmesh_core_nrf52832_xxAA.a(network.c.obj)
 .ARM.attributes
                0x00000744       0x39 mesh/core/libmesh_core_nrf52832_xxAA.a(nrf_mesh_keygen.c.obj)
 .ARM.attributes
                0x0000077d       0x39 mesh/core/libmesh_core_nrf52832_xxAA.a(log.c.obj)
 .ARM.attributes
                0x000007b6       0x39 mesh/core/libmesh_core_nrf52832_xxAA.a(flash_manager.c.obj)
 .ARM.attributes
                0x000007ef       0x39 mesh/core/libmesh_core_nrf52832_xxAA.a(ccm_soft.c.obj)
 .ARM.attributes
                0x00000828       0x39 mesh/core/libmesh_core_nrf52832_xxAA.a(beacon.c.obj)
 .ARM.attributes
                0x00000861       0x39 mesh/core/libmesh_core_nrf52832_xxAA.a(flash_manager_internal.c.obj)
 .ARM.attributes
                0x0000089a       0x39 mesh/core/libmesh_core_nrf52832_xxAA.a(core_tx.c.obj)
 .ARM.attributes
                0x000008d3       0x39 mesh/core/libmesh_core_nrf52832_xxAA.a(net_beacon.c.obj)
 .ARM.attributes
                0x0000090c       0x39 mesh/core/libmesh_core_nrf52832_xxAA.a(advertiser.c.obj)
 .ARM.attributes
                0x00000945       0x39 mesh/core/libmesh_core_nrf52832_xxAA.a(bearer_handler.c.obj)
 .ARM.attributes
                0x0000097e       0x39 mesh/core/libmesh_core_nrf52832_xxAA.a(broadcast.c.obj)
 .ARM.attributes
                0x000009b7       0x39 mesh/core/libmesh_core_nrf52832_xxAA.a(radio_config.c.obj)
 .ARM.attributes
                0x000009f0       0x39 mesh/core/libmesh_core_nrf52832_xxAA.a(scanner.c.obj)
 .ARM.attributes
                0x00000a29       0x39 mesh/core/libmesh_core_nrf52832_xxAA.a(internal_event.c.obj)
 .ARM.attributes
                0x00000a62       0x39 mesh/core/libmesh_core_nrf52832_xxAA.a(aes.c.obj)
 .ARM.attributes
                0x00000a9b       0x39 mesh/core/libmesh_core_nrf52832_xxAA.a(msg_cache.c.obj)
 .ARM.attributes
                0x00000ad4       0x39 mesh/core/libmesh_core_nrf52832_xxAA.a(transport.c.obj)
 .ARM.attributes
                0x00000b0d       0x39 mesh/core/libmesh_core_nrf52832_xxAA.a(packet_buffer.c.obj)
 .ARM.attributes
                0x00000b46       0x39 mesh/core/libmesh_core_nrf52832_xxAA.a(flash_manager_defrag.c.obj)
 .ARM.attributes
                0x00000b7f       0x39 mesh/core/libmesh_core_nrf52832_xxAA.a(packet_mgr.c.obj)
 .ARM.attributes
                0x00000bb8       0x39 mesh/core/libmesh_core_nrf52832_xxAA.a(mesh_flash.c.obj)
 .ARM.attributes
                0x00000bf1       0x39 mesh/core/libmesh_core_nrf52832_xxAA.a(queue.c.obj)
 .ARM.attributes
                0x00000c2a       0x39 mesh/core/libmesh_core_nrf52832_xxAA.a(aes_cmac.c.obj)
 .ARM.attributes
                0x00000c63       0x39 mesh/core/libmesh_core_nrf52832_xxAA.a(msqueue.c.obj)
 .ARM.attributes
                0x00000c9c       0x39 mesh/core/libmesh_core_nrf52832_xxAA.a(replay_cache.c.obj)
 .ARM.attributes
                0x00000cd5       0x39 mesh/core/libmesh_core_nrf52832_xxAA.a(filter_engine.c.obj)
 .ARM.attributes
                0x00000d0e       0x39 mesh/core/libmesh_core_nrf52832_xxAA.a(nrf_flash.c.obj)
 .ARM.attributes
                0x00000d47       0x39 external/rtt/librtt_nrf52832_xxAA.a(SEGGER_RTT.c.obj)
 .ARM.attributes
                0x00000d80       0x39 external/rtt/librtt_nrf52832_xxAA.a(SEGGER_RTT_printf.c.obj)
 .ARM.attributes
                0x00000db9       0x39 external/micro-ecc/libuECC_nrf52832_xxAA.a(uECC.c.obj)
 .ARM.attributes
                0x00000df2       0x34 c:/a/gcc_arm/6/bin/../lib/gcc/arm-none-eabi/6.3.1/../../../../arm-none-eabi/lib/thumb/v7e-m/fpv4-sp/hard\libc_nano.a(lib_a-exit.o)
 .ARM.attributes
                0x00000e26       0x34 c:/a/gcc_arm/6/bin/../lib/gcc/arm-none-eabi/6.3.1/../../../../arm-none-eabi/lib/thumb/v7e-m/fpv4-sp/hard\libc_nano.a(lib_a-impure.o)
 .ARM.attributes
                0x00000e5a       0x34 c:/a/gcc_arm/6/bin/../lib/gcc/arm-none-eabi/6.3.1/../../../../arm-none-eabi/lib/thumb/v7e-m/fpv4-sp/hard\libc_nano.a(lib_a-init.o)
 .ARM.attributes
                0x00000e8e       0x34 c:/a/gcc_arm/6/bin/../lib/gcc/arm-none-eabi/6.3.1/../../../../arm-none-eabi/lib/thumb/v7e-m/fpv4-sp/hard\libc_nano.a(lib_a-malloc.o)
 .ARM.attributes
                0x00000ec2       0x34 c:/a/gcc_arm/6/bin/../lib/gcc/arm-none-eabi/6.3.1/../../../../arm-none-eabi/lib/thumb/v7e-m/fpv4-sp/hard\libc_nano.a(lib_a-memcmp.o)
 .ARM.attributes
                0x00000ef6       0x34 c:/a/gcc_arm/6/bin/../lib/gcc/arm-none-eabi/6.3.1/../../../../arm-none-eabi/lib/thumb/v7e-m/fpv4-sp/hard\libc_nano.a(lib_a-memcpy-stub.o)
 .ARM.attributes
                0x00000f2a       0x34 c:/a/gcc_arm/6/bin/../lib/gcc/arm-none-eabi/6.3.1/../../../../arm-none-eabi/lib/thumb/v7e-m/fpv4-sp/hard\libc_nano.a(lib_a-memset.o)
 .ARM.attributes
                0x00000f5e       0x34 c:/a/gcc_arm/6/bin/../lib/gcc/arm-none-eabi/6.3.1/../../../../arm-none-eabi/lib/thumb/v7e-m/fpv4-sp/hard\libc_nano.a(lib_a-nano-freer.o)
 .ARM.attributes
                0x00000f92       0x34 c:/a/gcc_arm/6/bin/../lib/gcc/arm-none-eabi/6.3.1/../../../../arm-none-eabi/lib/thumb/v7e-m/fpv4-sp/hard\libc_nano.a(lib_a-nano-mallocr.o)
 .ARM.attributes
                0x00000fc6       0x34 c:/a/gcc_arm/6/bin/../lib/gcc/arm-none-eabi/6.3.1/../../../../arm-none-eabi/lib/thumb/v7e-m/fpv4-sp/hard\libc_nano.a(lib_a-sbrkr.o)
 .ARM.attributes
                0x00000ffa       0x34 c:/a/gcc_arm/6/bin/../lib/gcc/arm-none-eabi/6.3.1/../../../../arm-none-eabi/lib/thumb/v7e-m/fpv4-sp/hard\libc_nano.a(lib_a-strcpy.o)
 .ARM.attributes
                0x0000102e       0x1b c:/a/gcc_arm/6/bin/../lib/gcc/arm-none-eabi/6.3.1/../../../../arm-none-eabi/lib/thumb/v7e-m/fpv4-sp/hard\libc_nano.a(lib_a-strlen.o)
 .ARM.attributes
                0x00001049       0x34 c:/a/gcc_arm/6/bin/../lib/gcc/arm-none-eabi/6.3.1/../../../../arm-none-eabi/lib/thumb/v7e-m/fpv4-sp/hard\libc_nano.a(lib_a-strrchr.o)
 .ARM.attributes
                0x0000107d       0x34 c:/a/gcc_arm/6/bin/../lib/gcc/arm-none-eabi/6.3.1/../../../../arm-none-eabi/lib/thumb/v7e-m/fpv4-sp/hard\libc_nano.a(lib_a-mlock.o)
 .ARM.attributes
                0x000010b1       0x34 c:/a/gcc_arm/6/bin/../lib/gcc/arm-none-eabi/6.3.1/../../../../arm-none-eabi/lib/thumb/v7e-m/fpv4-sp/hard\libc_nano.a(lib_a-reent.o)
 .ARM.attributes
                0x000010e5       0x34 c:/a/gcc_arm/6/bin/../lib/gcc/arm-none-eabi/6.3.1/../../../../arm-none-eabi/lib/thumb/v7e-m/fpv4-sp/hard\libc_nano.a(lib_a-strchr.o)
 .ARM.attributes
                0x00001119       0x34 c:/a/gcc_arm/6/bin/../lib/gcc/arm-none-eabi/6.3.1/thumb/v7e-m/fpv4-sp/hard/crtend.o
 .ARM.attributes
                0x0000114d       0x22 c:/a/gcc_arm/6/bin/../lib/gcc/arm-none-eabi/6.3.1/thumb/v7e-m/fpv4-sp/hard/crtn.o
 .ARM.attributes
                0x0000116f       0x34 c:/a/gcc_arm/6/bin/../lib/gcc/arm-none-eabi/6.3.1/../../../../arm-none-eabi/lib/thumb/v7e-m/fpv4-sp/hard\libnosys.a(sbrk.o)
 .ARM.attributes
                0x000011a3       0x34 c:/a/gcc_arm/6/bin/../lib/gcc/arm-none-eabi/6.3.1/../../../../arm-none-eabi/lib/thumb/v7e-m/fpv4-sp/hard\libnosys.a(_exit.o)

.comment        0x00000000       0x7f
 .comment       0x00000000       0x7f examples/pb_remote/client/CMakeFiles/pb_remote_client_nrf52832_xxAA_s132_5.0.0.dir/src/main.c.obj
                                 0x80 (size before relaxing)
 .comment       0x0000007f       0x80 examples/pb_remote/client/CMakeFiles/pb_remote_client_nrf52832_xxAA_s132_5.0.0.dir/__/__/nrf_mesh_sdk.c.obj
 .comment       0x0000007f       0x80 examples/pb_remote/client/CMakeFiles/pb_remote_client_nrf52832_xxAA_s132_5.0.0.dir/__/__/__/models/pb_remote/src/pb_remote_client.c.obj
 .comment       0x0000007f       0x80 examples/pb_remote/client/CMakeFiles/pb_remote_client_nrf52832_xxAA_s132_5.0.0.dir/__/__/__/mesh/prov/src/prov_provisioner.c.obj
 .comment       0x0000007f       0x80 examples/pb_remote/client/CMakeFiles/pb_remote_client_nrf52832_xxAA_s132_5.0.0.dir/__/__/__/mesh/prov/src/nrf_mesh_prov.c.obj
 .comment       0x0000007f       0x80 examples/pb_remote/client/CMakeFiles/pb_remote_client_nrf52832_xxAA_s132_5.0.0.dir/__/__/__/mesh/prov/src/provisioning.c.obj
 .comment       0x0000007f       0x80 examples/pb_remote/client/CMakeFiles/pb_remote_client_nrf52832_xxAA_s132_5.0.0.dir/__/__/__/mesh/prov/src/prov_beacon.c.obj
 .comment       0x0000007f       0x80 examples/pb_remote/client/CMakeFiles/pb_remote_client_nrf52832_xxAA_s132_5.0.0.dir/__/__/__/mesh/prov/src/prov_utils.c.obj
 .comment       0x0000007f       0x80 examples/pb_remote/client/CMakeFiles/pb_remote_client_nrf52832_xxAA_s132_5.0.0.dir/__/__/__/mesh/prov/src/prov_bearer_adv.c.obj
 .comment       0x0000007f       0x80 examples/pb_remote/client/CMakeFiles/pb_remote_client_nrf52832_xxAA_s132_5.0.0.dir/__/__/__/mesh/access/src/access_publish.c.obj
 .comment       0x0000007f       0x80 examples/pb_remote/client/CMakeFiles/pb_remote_client_nrf52832_xxAA_s132_5.0.0.dir/__/__/__/mesh/access/src/access.c.obj
 .comment       0x0000007f       0x80 examples/pb_remote/client/CMakeFiles/pb_remote_client_nrf52832_xxAA_s132_5.0.0.dir/__/__/__/mesh/access/src/access_reliable.c.obj
 .comment       0x0000007f       0x80 examples/pb_remote/client/CMakeFiles/pb_remote_client_nrf52832_xxAA_s132_5.0.0.dir/__/__/__/mesh/access/src/device_state_manager.c.obj
 .comment       0x0000007f       0x80 examples/pb_remote/client/CMakeFiles/pb_remote_client_nrf52832_xxAA_s132_5.0.0.dir/__/__/nrf_mesh_weak.c.obj
 .comment       0x0000007f       0x80 examples/pb_remote/client/CMakeFiles/pb_remote_client_nrf52832_xxAA_s132_5.0.0.dir/__/__/__/external/nRF5_SDK_14.0.0_3bcc1f7/components/toolchain/system_nrf52.c.obj
 .comment       0x0000007f       0x80 mesh/core/libmesh_core_nrf52832_xxAA.a(nrf_mesh_configure.c.obj)
 .comment       0x0000007f       0x80 mesh/core/libmesh_core_nrf52832_xxAA.a(event.c.obj)
 .comment       0x0000007f       0x80 mesh/core/libmesh_core_nrf52832_xxAA.a(fifo.c.obj)
 .comment       0x0000007f       0x80 mesh/core/libmesh_core_nrf52832_xxAA.a(net_state.c.obj)
 .comment       0x0000007f       0x80 mesh/core/libmesh_core_nrf52832_xxAA.a(nrf_mesh_utils.c.obj)
 .comment       0x0000007f       0x80 mesh/core/libmesh_core_nrf52832_xxAA.a(nrf_mesh.c.obj)
 .comment       0x0000007f       0x80 mesh/core/libmesh_core_nrf52832_xxAA.a(hal.c.obj)
 .comment       0x0000007f       0x80 mesh/core/libmesh_core_nrf52832_xxAA.a(timer_scheduler.c.obj)
 .comment       0x0000007f       0x80 mesh/core/libmesh_core_nrf52832_xxAA.a(timer.c.obj)
 .comment       0x0000007f       0x80 mesh/core/libmesh_core_nrf52832_xxAA.a(ticker.c.obj)
 .comment       0x0000007f       0x80 mesh/core/libmesh_core_nrf52832_xxAA.a(rand.c.obj)
 .comment       0x0000007f       0x80 mesh/core/libmesh_core_nrf52832_xxAA.a(timeslot.c.obj)
 .comment       0x0000007f       0x80 mesh/core/libmesh_core_nrf52832_xxAA.a(bearer_event.c.obj)
 .comment       0x0000007f       0x80 mesh/core/libmesh_core_nrf52832_xxAA.a(enc.c.obj)
 .comment       0x0000007f       0x80 mesh/core/libmesh_core_nrf52832_xxAA.a(network.c.obj)
 .comment       0x0000007f       0x80 mesh/core/libmesh_core_nrf52832_xxAA.a(nrf_mesh_keygen.c.obj)
 .comment       0x0000007f       0x80 mesh/core/libmesh_core_nrf52832_xxAA.a(log.c.obj)
 .comment       0x0000007f       0x80 mesh/core/libmesh_core_nrf52832_xxAA.a(flash_manager.c.obj)
 .comment       0x0000007f       0x80 mesh/core/libmesh_core_nrf52832_xxAA.a(ccm_soft.c.obj)
 .comment       0x0000007f       0x80 mesh/core/libmesh_core_nrf52832_xxAA.a(beacon.c.obj)
 .comment       0x0000007f       0x80 mesh/core/libmesh_core_nrf52832_xxAA.a(flash_manager_internal.c.obj)
 .comment       0x0000007f       0x80 mesh/core/libmesh_core_nrf52832_xxAA.a(core_tx.c.obj)
 .comment       0x0000007f       0x80 mesh/core/libmesh_core_nrf52832_xxAA.a(net_beacon.c.obj)
 .comment       0x0000007f       0x80 mesh/core/libmesh_core_nrf52832_xxAA.a(advertiser.c.obj)
 .comment       0x0000007f       0x80 mesh/core/libmesh_core_nrf52832_xxAA.a(bearer_handler.c.obj)
 .comment       0x0000007f       0x80 mesh/core/libmesh_core_nrf52832_xxAA.a(broadcast.c.obj)
 .comment       0x0000007f       0x80 mesh/core/libmesh_core_nrf52832_xxAA.a(radio_config.c.obj)
 .comment       0x0000007f       0x80 mesh/core/libmesh_core_nrf52832_xxAA.a(scanner.c.obj)
 .comment       0x0000007f       0x80 mesh/core/libmesh_core_nrf52832_xxAA.a(internal_event.c.obj)
 .comment       0x0000007f       0x80 mesh/core/libmesh_core_nrf52832_xxAA.a(aes.c.obj)
 .comment       0x0000007f       0x80 mesh/core/libmesh_core_nrf52832_xxAA.a(msg_cache.c.obj)
 .comment       0x0000007f       0x80 mesh/core/libmesh_core_nrf52832_xxAA.a(transport.c.obj)
 .comment       0x0000007f       0x80 mesh/core/libmesh_core_nrf52832_xxAA.a(packet_buffer.c.obj)
 .comment       0x0000007f       0x80 mesh/core/libmesh_core_nrf52832_xxAA.a(flash_manager_defrag.c.obj)
 .comment       0x0000007f       0x80 mesh/core/libmesh_core_nrf52832_xxAA.a(packet_mgr.c.obj)
 .comment       0x0000007f       0x80 mesh/core/libmesh_core_nrf52832_xxAA.a(mesh_flash.c.obj)
 .comment       0x0000007f       0x80 mesh/core/libmesh_core_nrf52832_xxAA.a(queue.c.obj)
 .comment       0x0000007f       0x80 mesh/core/libmesh_core_nrf52832_xxAA.a(aes_cmac.c.obj)
 .comment       0x0000007f       0x80 mesh/core/libmesh_core_nrf52832_xxAA.a(msqueue.c.obj)
 .comment       0x0000007f       0x80 mesh/core/libmesh_core_nrf52832_xxAA.a(replay_cache.c.obj)
 .comment       0x0000007f       0x80 mesh/core/libmesh_core_nrf52832_xxAA.a(filter_engine.c.obj)
 .comment       0x0000007f       0x80 mesh/core/libmesh_core_nrf52832_xxAA.a(nrf_flash.c.obj)
 .comment       0x0000007f       0x80 external/rtt/librtt_nrf52832_xxAA.a(SEGGER_RTT.c.obj)
 .comment       0x0000007f       0x80 external/rtt/librtt_nrf52832_xxAA.a(SEGGER_RTT_printf.c.obj)
 .comment       0x0000007f       0x80 external/micro-ecc/libuECC_nrf52832_xxAA.a(uECC.c.obj)

.debug_frame    0x00000000      0x2c4
 .debug_frame   0x00000000       0x28 c:/a/gcc_arm/6/bin/../lib/gcc/arm-none-eabi/6.3.1/../../../../arm-none-eabi/lib/thumb/v7e-m/fpv4-sp/hard\libc_nano.a(lib_a-exit.o)
 .debug_frame   0x00000028       0x2c c:/a/gcc_arm/6/bin/../lib/gcc/arm-none-eabi/6.3.1/../../../../arm-none-eabi/lib/thumb/v7e-m/fpv4-sp/hard\libc_nano.a(lib_a-init.o)
 .debug_frame   0x00000054       0x30 c:/a/gcc_arm/6/bin/../lib/gcc/arm-none-eabi/6.3.1/../../../../arm-none-eabi/lib/thumb/v7e-m/fpv4-sp/hard\libc_nano.a(lib_a-malloc.o)
 .debug_frame   0x00000084       0x28 c:/a/gcc_arm/6/bin/../lib/gcc/arm-none-eabi/6.3.1/../../../../arm-none-eabi/lib/thumb/v7e-m/fpv4-sp/hard\libc_nano.a(lib_a-memcmp.o)
 .debug_frame   0x000000ac       0x28 c:/a/gcc_arm/6/bin/../lib/gcc/arm-none-eabi/6.3.1/../../../../arm-none-eabi/lib/thumb/v7e-m/fpv4-sp/hard\libc_nano.a(lib_a-memcpy-stub.o)
 .debug_frame   0x000000d4       0x20 c:/a/gcc_arm/6/bin/../lib/gcc/arm-none-eabi/6.3.1/../../../../arm-none-eabi/lib/thumb/v7e-m/fpv4-sp/hard\libc_nano.a(lib_a-memset.o)
 .debug_frame   0x000000f4       0x38 c:/a/gcc_arm/6/bin/../lib/gcc/arm-none-eabi/6.3.1/../../../../arm-none-eabi/lib/thumb/v7e-m/fpv4-sp/hard\libc_nano.a(lib_a-nano-freer.o)
 .debug_frame   0x0000012c       0x2c c:/a/gcc_arm/6/bin/../lib/gcc/arm-none-eabi/6.3.1/../../../../arm-none-eabi/lib/thumb/v7e-m/fpv4-sp/hard\libc_nano.a(lib_a-nano-mallocr.o)
 .debug_frame   0x00000158       0x2c c:/a/gcc_arm/6/bin/../lib/gcc/arm-none-eabi/6.3.1/../../../../arm-none-eabi/lib/thumb/v7e-m/fpv4-sp/hard\libc_nano.a(lib_a-sbrkr.o)
 .debug_frame   0x00000184       0x20 c:/a/gcc_arm/6/bin/../lib/gcc/arm-none-eabi/6.3.1/../../../../arm-none-eabi/lib/thumb/v7e-m/fpv4-sp/hard\libc_nano.a(lib_a-strcpy.o)
 .debug_frame   0x000001a4       0x34 c:/a/gcc_arm/6/bin/../lib/gcc/arm-none-eabi/6.3.1/../../../../arm-none-eabi/lib/thumb/v7e-m/fpv4-sp/hard\libc_nano.a(lib_a-strrchr.o)
 .debug_frame   0x000001d8       0x30 c:/a/gcc_arm/6/bin/../lib/gcc/arm-none-eabi/6.3.1/../../../../arm-none-eabi/lib/thumb/v7e-m/fpv4-sp/hard\libc_nano.a(lib_a-mlock.o)
 .debug_frame   0x00000208       0x5c c:/a/gcc_arm/6/bin/../lib/gcc/arm-none-eabi/6.3.1/../../../../arm-none-eabi/lib/thumb/v7e-m/fpv4-sp/hard\libc_nano.a(lib_a-reent.o)
 .debug_frame   0x00000264       0x20 c:/a/gcc_arm/6/bin/../lib/gcc/arm-none-eabi/6.3.1/../../../../arm-none-eabi/lib/thumb/v7e-m/fpv4-sp/hard\libc_nano.a(lib_a-strchr.o)
 .debug_frame   0x00000284       0x20 c:/a/gcc_arm/6/bin/../lib/gcc/arm-none-eabi/6.3.1/../../../../arm-none-eabi/lib/thumb/v7e-m/fpv4-sp/hard\libnosys.a(sbrk.o)
 .debug_frame   0x000002a4       0x20 c:/a/gcc_arm/6/bin/../lib/gcc/arm-none-eabi/6.3.1/../../../../arm-none-eabi/lib/thumb/v7e-m/fpv4-sp/hard\libnosys.a(_exit.o)
