Archive member included to satisfy reference by file (symbol)

mesh/core/libmesh_core_nrf52832_xxAA.a(nrf_mesh_configure.c.obj)
                              examples/pb_remote/server/CMakeFiles/pb_remote_server_nrf52832_xxAA_s132_5.0.0.dir/__/__/__/mesh/prov/src/prov_beacon.c.obj (nrf_mesh_configure_device_uuid_get)
mesh/core/libmesh_core_nrf52832_xxAA.a(event.c.obj)
                              examples/pb_remote/server/CMakeFiles/pb_remote_server_nrf52832_xxAA_s132_5.0.0.dir/__/__/__/mesh/prov/src/prov_provisionee.c.obj (event_handle)
mesh/core/libmesh_core_nrf52832_xxAA.a(fifo.c.obj)
                              examples/pb_remote/server/CMakeFiles/pb_remote_server_nrf52832_xxAA_s132_5.0.0.dir/__/__/__/models/pb_remote/src/pb_remote_server.c.obj (fifo_init)
mesh/core/libmesh_core_nrf52832_xxAA.a(net_state.c.obj)
                              examples/pb_remote/server/CMakeFiles/pb_remote_server_nrf52832_xxAA_s132_5.0.0.dir/__/__/__/mesh/access/src/device_state_manager.c.obj (net_state_flash_area_get)
mesh/core/libmesh_core_nrf52832_xxAA.a(nrf_mesh_utils.c.obj)
                              examples/pb_remote/server/CMakeFiles/pb_remote_server_nrf52832_xxAA_s132_5.0.0.dir/__/__/__/mesh/prov/src/prov_provisionee.c.obj (nrf_mesh_address_type_get)
mesh/core/libmesh_core_nrf52832_xxAA.a(nrf_mesh.c.obj)
                              examples/pb_remote/server/CMakeFiles/pb_remote_server_nrf52832_xxAA_s132_5.0.0.dir/__/__/nrf_mesh_sdk.c.obj (nrf_mesh_init)
mesh/core/libmesh_core_nrf52832_xxAA.a(hal.c.obj)
                              mesh/core/libmesh_core_nrf52832_xxAA.a(nrf_mesh.c.obj) (hal_lfclk_ppm_get)
mesh/core/libmesh_core_nrf52832_xxAA.a(timer_scheduler.c.obj)
                              mesh/core/libmesh_core_nrf52832_xxAA.a(nrf_mesh.c.obj) (timer_sch_init)
mesh/core/libmesh_core_nrf52832_xxAA.a(timer.c.obj)
                              mesh/core/libmesh_core_nrf52832_xxAA.a(timer_scheduler.c.obj) (timer_order_cb)
mesh/core/libmesh_core_nrf52832_xxAA.a(ticker.c.obj)
                              mesh/core/libmesh_core_nrf52832_xxAA.a(nrf_mesh.c.obj) (ticker_init)
mesh/core/libmesh_core_nrf52832_xxAA.a(rand.c.obj)
                              examples/pb_remote/server/CMakeFiles/pb_remote_server_nrf52832_xxAA_s132_5.0.0.dir/__/__/__/mesh/prov/src/prov_utils.c.obj (rand_hw_rng_get)
mesh/core/libmesh_core_nrf52832_xxAA.a(timeslot.c.obj)
                              mesh/core/libmesh_core_nrf52832_xxAA.a(nrf_mesh.c.obj) (timeslot_sd_event_handler)
mesh/core/libmesh_core_nrf52832_xxAA.a(bearer_event.c.obj)
                              mesh/core/libmesh_core_nrf52832_xxAA.a(nrf_mesh.c.obj) (bearer_event_init)
mesh/core/libmesh_core_nrf52832_xxAA.a(enc.c.obj)
                              examples/pb_remote/server/CMakeFiles/pb_remote_server_nrf52832_xxAA_s132_5.0.0.dir/__/__/__/mesh/prov/src/prov_utils.c.obj (enc_aes_cmac)
mesh/core/libmesh_core_nrf52832_xxAA.a(network.c.obj)
                              mesh/core/libmesh_core_nrf52832_xxAA.a(nrf_mesh.c.obj) (network_init)
mesh/core/libmesh_core_nrf52832_xxAA.a(nrf_mesh_keygen.c.obj)
                              examples/pb_remote/server/CMakeFiles/pb_remote_server_nrf52832_xxAA_s132_5.0.0.dir/__/__/__/mesh/access/src/device_state_manager.c.obj (nrf_mesh_keygen_aid)
mesh/core/libmesh_core_nrf52832_xxAA.a(log.c.obj)
                              examples/pb_remote/server/CMakeFiles/pb_remote_server_nrf52832_xxAA_s132_5.0.0.dir/src/main.c.obj (log_callback_rtt)
mesh/core/libmesh_core_nrf52832_xxAA.a(flash_manager.c.obj)
                              mesh/core/libmesh_core_nrf52832_xxAA.a(nrf_mesh.c.obj) (flash_manager_init)
mesh/core/libmesh_core_nrf52832_xxAA.a(ccm_soft.c.obj)
                              mesh/core/libmesh_core_nrf52832_xxAA.a(enc.c.obj) (ccm_soft_encrypt)
mesh/core/libmesh_core_nrf52832_xxAA.a(beacon.c.obj)
                              mesh/core/libmesh_core_nrf52832_xxAA.a(nrf_mesh.c.obj) (beacon_init)
mesh/core/libmesh_core_nrf52832_xxAA.a(flash_manager_internal.c.obj)
                              mesh/core/libmesh_core_nrf52832_xxAA.a(flash_manager.c.obj) (entry_get)
mesh/core/libmesh_core_nrf52832_xxAA.a(core_tx.c.obj)
                              mesh/core/libmesh_core_nrf52832_xxAA.a(nrf_mesh.c.obj) (core_tx_init)
mesh/core/libmesh_core_nrf52832_xxAA.a(net_beacon.c.obj)
                              mesh/core/libmesh_core_nrf52832_xxAA.a(network.c.obj) (net_beacon_init)
mesh/core/libmesh_core_nrf52832_xxAA.a(advertiser.c.obj)
                              mesh/core/libmesh_core_nrf52832_xxAA.a(nrf_mesh.c.obj) (advertiser_init)
mesh/core/libmesh_core_nrf52832_xxAA.a(bearer_handler.c.obj)
                              mesh/core/libmesh_core_nrf52832_xxAA.a(nrf_mesh.c.obj) (bearer_handler_init)
mesh/core/libmesh_core_nrf52832_xxAA.a(broadcast.c.obj)
                              mesh/core/libmesh_core_nrf52832_xxAA.a(advertiser.c.obj) (broadcast_send)
mesh/core/libmesh_core_nrf52832_xxAA.a(radio_config.c.obj)
                              mesh/core/libmesh_core_nrf52832_xxAA.a(broadcast.c.obj) (radio_config_reset)
mesh/core/libmesh_core_nrf52832_xxAA.a(scanner.c.obj)
                              mesh/core/libmesh_core_nrf52832_xxAA.a(bearer_handler.c.obj) (scanner_radio_start)
mesh/core/libmesh_core_nrf52832_xxAA.a(internal_event.c.obj)
                              mesh/core/libmesh_core_nrf52832_xxAA.a(network.c.obj) (internal_event_push)
mesh/core/libmesh_core_nrf52832_xxAA.a(aes.c.obj)
                              mesh/core/libmesh_core_nrf52832_xxAA.a(enc.c.obj) (aes_encrypt)
mesh/core/libmesh_core_nrf52832_xxAA.a(msg_cache.c.obj)
                              mesh/core/libmesh_core_nrf52832_xxAA.a(nrf_mesh.c.obj) (msg_cache_init)
mesh/core/libmesh_core_nrf52832_xxAA.a(transport.c.obj)
                              mesh/core/libmesh_core_nrf52832_xxAA.a(nrf_mesh.c.obj) (transport_init)
mesh/core/libmesh_core_nrf52832_xxAA.a(packet_buffer.c.obj)
                              mesh/core/libmesh_core_nrf52832_xxAA.a(flash_manager.c.obj) (packet_buffer_init)
mesh/core/libmesh_core_nrf52832_xxAA.a(flash_manager_defrag.c.obj)
                              mesh/core/libmesh_core_nrf52832_xxAA.a(flash_manager.c.obj) (flash_manager_defrag_init)
mesh/core/libmesh_core_nrf52832_xxAA.a(packet_mgr.c.obj)
                              mesh/core/libmesh_core_nrf52832_xxAA.a(nrf_mesh.c.obj) (packet_mgr_init)
mesh/core/libmesh_core_nrf52832_xxAA.a(mesh_flash.c.obj)
                              mesh/core/libmesh_core_nrf52832_xxAA.a(flash_manager.c.obj) (mesh_flash_user_callback_set)
mesh/core/libmesh_core_nrf52832_xxAA.a(queue.c.obj)
                              mesh/core/libmesh_core_nrf52832_xxAA.a(bearer_event.c.obj) (queue_init)
mesh/core/libmesh_core_nrf52832_xxAA.a(aes_cmac.c.obj)
                              mesh/core/libmesh_core_nrf52832_xxAA.a(enc.c.obj) (aes_cmac)
mesh/core/libmesh_core_nrf52832_xxAA.a(msqueue.c.obj)
                              mesh/core/libmesh_core_nrf52832_xxAA.a(mesh_flash.c.obj) (msq_get)
mesh/core/libmesh_core_nrf52832_xxAA.a(replay_cache.c.obj)
                              mesh/core/libmesh_core_nrf52832_xxAA.a(transport.c.obj) (replay_cache_add)
mesh/core/libmesh_core_nrf52832_xxAA.a(filter_engine.c.obj)
                              mesh/core/libmesh_core_nrf52832_xxAA.a(scanner.c.obj) (fen_filters_apply)
mesh/core/libmesh_core_nrf52832_xxAA.a(nrf_flash.c.obj)
                              mesh/core/libmesh_core_nrf52832_xxAA.a(mesh_flash.c.obj) (nrf_flash_erase)
external/rtt/librtt_nrf52832_xxAA.a(SEGGER_RTT.c.obj)
                              mesh/core/libmesh_core_nrf52832_xxAA.a(log.c.obj) (SEGGER_RTT_Write)
external/rtt/librtt_nrf52832_xxAA.a(SEGGER_RTT_printf.c.obj)
                              mesh/core/libmesh_core_nrf52832_xxAA.a(log.c.obj) (SEGGER_RTT_vprintf)
external/micro-ecc/libuECC_nrf52832_xxAA.a(uECC.c.obj)
                              examples/pb_remote/server/CMakeFiles/pb_remote_server_nrf52832_xxAA_s132_5.0.0.dir/__/__/__/mesh/prov/src/prov_utils.c.obj (uECC_secp256r1)
c:/a/gcc_arm/6/bin/../lib/gcc/arm-none-eabi/6.3.1/../../../../arm-none-eabi/lib/thumb/v7e-m/fpv4-sp/hard\libc_nano.a(lib_a-exit.o)
                              c:/a/gcc_arm/6/bin/../lib/gcc/arm-none-eabi/6.3.1/../../../../arm-none-eabi/lib/thumb/v7e-m/fpv4-sp/hard/crt0.o (exit)
c:/a/gcc_arm/6/bin/../lib/gcc/arm-none-eabi/6.3.1/../../../../arm-none-eabi/lib/thumb/v7e-m/fpv4-sp/hard\libc_nano.a(lib_a-impure.o)
                              c:/a/gcc_arm/6/bin/../lib/gcc/arm-none-eabi/6.3.1/../../../../arm-none-eabi/lib/thumb/v7e-m/fpv4-sp/hard\libc_nano.a(lib_a-exit.o) (_global_impure_ptr)
c:/a/gcc_arm/6/bin/../lib/gcc/arm-none-eabi/6.3.1/../../../../arm-none-eabi/lib/thumb/v7e-m/fpv4-sp/hard\libc_nano.a(lib_a-init.o)
                              c:/a/gcc_arm/6/bin/../lib/gcc/arm-none-eabi/6.3.1/../../../../arm-none-eabi/lib/thumb/v7e-m/fpv4-sp/hard/crt0.o (__libc_init_array)
c:/a/gcc_arm/6/bin/../lib/gcc/arm-none-eabi/6.3.1/../../../../arm-none-eabi/lib/thumb/v7e-m/fpv4-sp/hard\libc_nano.a(lib_a-malloc.o)
                              mesh/core/libmesh_core_nrf52832_xxAA.a(transport.c.obj) (malloc)
c:/a/gcc_arm/6/bin/../lib/gcc/arm-none-eabi/6.3.1/../../../../arm-none-eabi/lib/thumb/v7e-m/fpv4-sp/hard\libc_nano.a(lib_a-memcmp.o)
                              examples/pb_remote/server/CMakeFiles/pb_remote_server_nrf52832_xxAA_s132_5.0.0.dir/__/__/__/mesh/prov/src/prov_utils.c.obj (memcmp)
c:/a/gcc_arm/6/bin/../lib/gcc/arm-none-eabi/6.3.1/../../../../arm-none-eabi/lib/thumb/v7e-m/fpv4-sp/hard\libc_nano.a(lib_a-memcpy-stub.o)
                              examples/pb_remote/server/CMakeFiles/pb_remote_server_nrf52832_xxAA_s132_5.0.0.dir/__/__/__/mesh/prov/src/prov_provisionee.c.obj (memcpy)
c:/a/gcc_arm/6/bin/../lib/gcc/arm-none-eabi/6.3.1/../../../../arm-none-eabi/lib/thumb/v7e-m/fpv4-sp/hard\libc_nano.a(lib_a-memset.o)
                              c:/a/gcc_arm/6/bin/../lib/gcc/arm-none-eabi/6.3.1/../../../../arm-none-eabi/lib/thumb/v7e-m/fpv4-sp/hard/crt0.o (memset)
c:/a/gcc_arm/6/bin/../lib/gcc/arm-none-eabi/6.3.1/../../../../arm-none-eabi/lib/thumb/v7e-m/fpv4-sp/hard\libc_nano.a(lib_a-nano-freer.o)
                              c:/a/gcc_arm/6/bin/../lib/gcc/arm-none-eabi/6.3.1/../../../../arm-none-eabi/lib/thumb/v7e-m/fpv4-sp/hard\libc_nano.a(lib_a-malloc.o) (_free_r)
c:/a/gcc_arm/6/bin/../lib/gcc/arm-none-eabi/6.3.1/../../../../arm-none-eabi/lib/thumb/v7e-m/fpv4-sp/hard\libc_nano.a(lib_a-nano-mallocr.o)
                              c:/a/gcc_arm/6/bin/../lib/gcc/arm-none-eabi/6.3.1/../../../../arm-none-eabi/lib/thumb/v7e-m/fpv4-sp/hard\libc_nano.a(lib_a-malloc.o) (_malloc_r)
c:/a/gcc_arm/6/bin/../lib/gcc/arm-none-eabi/6.3.1/../../../../arm-none-eabi/lib/thumb/v7e-m/fpv4-sp/hard\libc_nano.a(lib_a-sbrkr.o)
                              c:/a/gcc_arm/6/bin/../lib/gcc/arm-none-eabi/6.3.1/../../../../arm-none-eabi/lib/thumb/v7e-m/fpv4-sp/hard\libc_nano.a(lib_a-nano-mallocr.o) (_sbrk_r)
c:/a/gcc_arm/6/bin/../lib/gcc/arm-none-eabi/6.3.1/../../../../arm-none-eabi/lib/thumb/v7e-m/fpv4-sp/hard\libc_nano.a(lib_a-strcpy.o)
                              external/rtt/librtt_nrf52832_xxAA.a(SEGGER_RTT.c.obj) (strcpy)
c:/a/gcc_arm/6/bin/../lib/gcc/arm-none-eabi/6.3.1/../../../../arm-none-eabi/lib/thumb/v7e-m/fpv4-sp/hard\libc_nano.a(lib_a-strlen.o)
                              examples/pb_remote/server/CMakeFiles/pb_remote_server_nrf52832_xxAA_s132_5.0.0.dir/__/__/__/mesh/prov/src/prov_beacon.c.obj (strlen)
c:/a/gcc_arm/6/bin/../lib/gcc/arm-none-eabi/6.3.1/../../../../arm-none-eabi/lib/thumb/v7e-m/fpv4-sp/hard\libc_nano.a(lib_a-strrchr.o)
                              examples/pb_remote/server/CMakeFiles/pb_remote_server_nrf52832_xxAA_s132_5.0.0.dir/src/main.c.obj (strrchr)
c:/a/gcc_arm/6/bin/../lib/gcc/arm-none-eabi/6.3.1/../../../../arm-none-eabi/lib/thumb/v7e-m/fpv4-sp/hard\libc_nano.a(lib_a-mlock.o)
                              c:/a/gcc_arm/6/bin/../lib/gcc/arm-none-eabi/6.3.1/../../../../arm-none-eabi/lib/thumb/v7e-m/fpv4-sp/hard\libc_nano.a(lib_a-nano-freer.o) (__malloc_lock)
c:/a/gcc_arm/6/bin/../lib/gcc/arm-none-eabi/6.3.1/../../../../arm-none-eabi/lib/thumb/v7e-m/fpv4-sp/hard\libc_nano.a(lib_a-reent.o)
                              c:/a/gcc_arm/6/bin/../lib/gcc/arm-none-eabi/6.3.1/../../../../arm-none-eabi/lib/thumb/v7e-m/fpv4-sp/hard\libc_nano.a(lib_a-sbrkr.o) (errno)
c:/a/gcc_arm/6/bin/../lib/gcc/arm-none-eabi/6.3.1/../../../../arm-none-eabi/lib/thumb/v7e-m/fpv4-sp/hard\libc_nano.a(lib_a-strchr.o)
                              c:/a/gcc_arm/6/bin/../lib/gcc/arm-none-eabi/6.3.1/../../../../arm-none-eabi/lib/thumb/v7e-m/fpv4-sp/hard\libc_nano.a(lib_a-strrchr.o) (strchr)
c:/a/gcc_arm/6/bin/../lib/gcc/arm-none-eabi/6.3.1/../../../../arm-none-eabi/lib/thumb/v7e-m/fpv4-sp/hard\libnosys.a(sbrk.o)
                              c:/a/gcc_arm/6/bin/../lib/gcc/arm-none-eabi/6.3.1/../../../../arm-none-eabi/lib/thumb/v7e-m/fpv4-sp/hard\libc_nano.a(lib_a-sbrkr.o) (_sbrk)
c:/a/gcc_arm/6/bin/../lib/gcc/arm-none-eabi/6.3.1/../../../../arm-none-eabi/lib/thumb/v7e-m/fpv4-sp/hard\libnosys.a(_exit.o)
                              c:/a/gcc_arm/6/bin/../lib/gcc/arm-none-eabi/6.3.1/../../../../arm-none-eabi/lib/thumb/v7e-m/fpv4-sp/hard\libc_nano.a(lib_a-exit.o) (_exit)

Allocating common symbols
Common symbol       size              file

nrf_nvic_state      0xc               examples/pb_remote/server/CMakeFiles/pb_remote_server_nrf52832_xxAA_s132_5.0.0.dir/__/__/nrf_mesh_sdk.c.obj
errno               0x4               c:/a/gcc_arm/6/bin/../lib/gcc/arm-none-eabi/6.3.1/../../../../arm-none-eabi/lib/thumb/v7e-m/fpv4-sp/hard\libc_nano.a(lib_a-reent.o)
m_assertion_handler
                    0x4               mesh/core/libmesh_core_nrf52832_xxAA.a(nrf_mesh.c.obj)
_SEGGER_RTT         0x78              external/rtt/librtt_nrf52832_xxAA.a(SEGGER_RTT.c.obj)

Discarded input sections

 .text          0x00000000        0x0 c:/a/gcc_arm/6/bin/../lib/gcc/arm-none-eabi/6.3.1/thumb/v7e-m/fpv4-sp/hard/crti.o
 .data          0x00000000        0x0 c:/a/gcc_arm/6/bin/../lib/gcc/arm-none-eabi/6.3.1/thumb/v7e-m/fpv4-sp/hard/crti.o
 .bss           0x00000000        0x0 c:/a/gcc_arm/6/bin/../lib/gcc/arm-none-eabi/6.3.1/thumb/v7e-m/fpv4-sp/hard/crti.o
 .data          0x00000000        0x4 c:/a/gcc_arm/6/bin/../lib/gcc/arm-none-eabi/6.3.1/thumb/v7e-m/fpv4-sp/hard/crtbegin.o
 .data          0x00000000        0x0 c:/a/gcc_arm/6/bin/../lib/gcc/arm-none-eabi/6.3.1/../../../../arm-none-eabi/lib/thumb/v7e-m/fpv4-sp/hard/crt0.o
 .bss           0x00000000        0x0 c:/a/gcc_arm/6/bin/../lib/gcc/arm-none-eabi/6.3.1/../../../../arm-none-eabi/lib/thumb/v7e-m/fpv4-sp/hard/crt0.o
 .ARM.extab     0x00000000        0x0 c:/a/gcc_arm/6/bin/../lib/gcc/arm-none-eabi/6.3.1/../../../../arm-none-eabi/lib/thumb/v7e-m/fpv4-sp/hard/crt0.o
 .text          0x00000000        0x0 examples/pb_remote/server/CMakeFiles/pb_remote_server_nrf52832_xxAA_s132_5.0.0.dir/src/main.c.obj
 .data          0x00000000        0x0 examples/pb_remote/server/CMakeFiles/pb_remote_server_nrf52832_xxAA_s132_5.0.0.dir/src/main.c.obj
 .bss           0x00000000        0x0 examples/pb_remote/server/CMakeFiles/pb_remote_server_nrf52832_xxAA_s132_5.0.0.dir/src/main.c.obj
 .text          0x00000000        0x0 examples/pb_remote/server/CMakeFiles/pb_remote_server_nrf52832_xxAA_s132_5.0.0.dir/__/__/nrf_mesh_sdk.c.obj
 .data          0x00000000        0x0 examples/pb_remote/server/CMakeFiles/pb_remote_server_nrf52832_xxAA_s132_5.0.0.dir/__/__/nrf_mesh_sdk.c.obj
 .bss           0x00000000        0x0 examples/pb_remote/server/CMakeFiles/pb_remote_server_nrf52832_xxAA_s132_5.0.0.dir/__/__/nrf_mesh_sdk.c.obj
 .text          0x00000000        0x0 examples/pb_remote/server/CMakeFiles/pb_remote_server_nrf52832_xxAA_s132_5.0.0.dir/__/__/nrf_mesh_weak.c.obj
 .data          0x00000000        0x0 examples/pb_remote/server/CMakeFiles/pb_remote_server_nrf52832_xxAA_s132_5.0.0.dir/__/__/nrf_mesh_weak.c.obj
 .bss           0x00000000        0x0 examples/pb_remote/server/CMakeFiles/pb_remote_server_nrf52832_xxAA_s132_5.0.0.dir/__/__/nrf_mesh_weak.c.obj
 .text._weak_handler_ptr
                0x00000000        0x4 examples/pb_remote/server/CMakeFiles/pb_remote_server_nrf52832_xxAA_s132_5.0.0.dir/__/__/nrf_mesh_weak.c.obj
 .text          0x00000000        0x0 examples/pb_remote/server/CMakeFiles/pb_remote_server_nrf52832_xxAA_s132_5.0.0.dir/__/__/__/mesh/prov/src/prov_provisionee.c.obj
 .data          0x00000000        0x0 examples/pb_remote/server/CMakeFiles/pb_remote_server_nrf52832_xxAA_s132_5.0.0.dir/__/__/__/mesh/prov/src/prov_provisionee.c.obj
 .bss           0x00000000        0x0 examples/pb_remote/server/CMakeFiles/pb_remote_server_nrf52832_xxAA_s132_5.0.0.dir/__/__/__/mesh/prov/src/prov_provisionee.c.obj
 .text.prov_provisionee_shared_secret
                0x00000000       0x2a examples/pb_remote/server/CMakeFiles/pb_remote_server_nrf52832_xxAA_s132_5.0.0.dir/__/__/__/mesh/prov/src/prov_provisionee.c.obj
 .text          0x00000000        0x0 examples/pb_remote/server/CMakeFiles/pb_remote_server_nrf52832_xxAA_s132_5.0.0.dir/__/__/__/mesh/prov/src/nrf_mesh_prov.c.obj
 .data          0x00000000        0x0 examples/pb_remote/server/CMakeFiles/pb_remote_server_nrf52832_xxAA_s132_5.0.0.dir/__/__/__/mesh/prov/src/nrf_mesh_prov.c.obj
 .bss           0x00000000        0x0 examples/pb_remote/server/CMakeFiles/pb_remote_server_nrf52832_xxAA_s132_5.0.0.dir/__/__/__/mesh/prov/src/nrf_mesh_prov.c.obj
 .text.nrf_mesh_prov_provision
                0x00000000       0x4e examples/pb_remote/server/CMakeFiles/pb_remote_server_nrf52832_xxAA_s132_5.0.0.dir/__/__/__/mesh/prov/src/nrf_mesh_prov.c.obj
 .text.nrf_mesh_prov_oob_use
                0x00000000        0xe examples/pb_remote/server/CMakeFiles/pb_remote_server_nrf52832_xxAA_s132_5.0.0.dir/__/__/__/mesh/prov/src/nrf_mesh_prov.c.obj
 .text.nrf_mesh_prov_shared_secret_provide
                0x00000000        0xe examples/pb_remote/server/CMakeFiles/pb_remote_server_nrf52832_xxAA_s132_5.0.0.dir/__/__/__/mesh/prov/src/nrf_mesh_prov.c.obj
 .text.nrf_mesh_prov_pubkey_provide
                0x00000000       0x10 examples/pb_remote/server/CMakeFiles/pb_remote_server_nrf52832_xxAA_s132_5.0.0.dir/__/__/__/mesh/prov/src/nrf_mesh_prov.c.obj
 .text          0x00000000        0x0 examples/pb_remote/server/CMakeFiles/pb_remote_server_nrf52832_xxAA_s132_5.0.0.dir/__/__/__/mesh/prov/src/provisioning.c.obj
 .data          0x00000000        0x0 examples/pb_remote/server/CMakeFiles/pb_remote_server_nrf52832_xxAA_s132_5.0.0.dir/__/__/__/mesh/prov/src/provisioning.c.obj
 .bss           0x00000000        0x0 examples/pb_remote/server/CMakeFiles/pb_remote_server_nrf52832_xxAA_s132_5.0.0.dir/__/__/__/mesh/prov/src/provisioning.c.obj
 .text.prov_listen_stop
                0x00000000        0x8 examples/pb_remote/server/CMakeFiles/pb_remote_server_nrf52832_xxAA_s132_5.0.0.dir/__/__/__/mesh/prov/src/provisioning.c.obj
 .text.prov_tx_invite
                0x00000000       0x28 examples/pb_remote/server/CMakeFiles/pb_remote_server_nrf52832_xxAA_s132_5.0.0.dir/__/__/__/mesh/prov/src/provisioning.c.obj
 .text.prov_tx_start
                0x00000000       0x20 examples/pb_remote/server/CMakeFiles/pb_remote_server_nrf52832_xxAA_s132_5.0.0.dir/__/__/__/mesh/prov/src/provisioning.c.obj
 .text.prov_tx_data
                0x00000000        0x6 examples/pb_remote/server/CMakeFiles/pb_remote_server_nrf52832_xxAA_s132_5.0.0.dir/__/__/__/mesh/prov/src/provisioning.c.obj
 .text          0x00000000        0x0 examples/pb_remote/server/CMakeFiles/pb_remote_server_nrf52832_xxAA_s132_5.0.0.dir/__/__/__/mesh/prov/src/prov_beacon.c.obj
 .data          0x00000000        0x0 examples/pb_remote/server/CMakeFiles/pb_remote_server_nrf52832_xxAA_s132_5.0.0.dir/__/__/__/mesh/prov/src/prov_beacon.c.obj
 .bss           0x00000000        0x0 examples/pb_remote/server/CMakeFiles/pb_remote_server_nrf52832_xxAA_s132_5.0.0.dir/__/__/__/mesh/prov/src/prov_beacon.c.obj
 .text.prov_beacon_unprov_report
                0x00000000        0xc examples/pb_remote/server/CMakeFiles/pb_remote_server_nrf52832_xxAA_s132_5.0.0.dir/__/__/__/mesh/prov/src/prov_beacon.c.obj
 .text          0x00000000        0x0 examples/pb_remote/server/CMakeFiles/pb_remote_server_nrf52832_xxAA_s132_5.0.0.dir/__/__/__/mesh/prov/src/prov_utils.c.obj
 .data          0x00000000        0x0 examples/pb_remote/server/CMakeFiles/pb_remote_server_nrf52832_xxAA_s132_5.0.0.dir/__/__/__/mesh/prov/src/prov_utils.c.obj
 .bss           0x00000000        0x0 examples/pb_remote/server/CMakeFiles/pb_remote_server_nrf52832_xxAA_s132_5.0.0.dir/__/__/__/mesh/prov/src/prov_utils.c.obj
 .text.prov_utils_opt_set
                0x00000000       0x20 examples/pb_remote/server/CMakeFiles/pb_remote_server_nrf52832_xxAA_s132_5.0.0.dir/__/__/__/mesh/prov/src/prov_utils.c.obj
 .text.prov_utils_opt_get
                0x00000000       0x1c examples/pb_remote/server/CMakeFiles/pb_remote_server_nrf52832_xxAA_s132_5.0.0.dir/__/__/__/mesh/prov/src/prov_utils.c.obj
 .text          0x00000000        0x0 examples/pb_remote/server/CMakeFiles/pb_remote_server_nrf52832_xxAA_s132_5.0.0.dir/__/__/__/mesh/prov/src/prov_bearer_adv.c.obj
 .data          0x00000000        0x0 examples/pb_remote/server/CMakeFiles/pb_remote_server_nrf52832_xxAA_s132_5.0.0.dir/__/__/__/mesh/prov/src/prov_bearer_adv.c.obj
 .bss           0x00000000        0x0 examples/pb_remote/server/CMakeFiles/pb_remote_server_nrf52832_xxAA_s132_5.0.0.dir/__/__/__/mesh/prov/src/prov_bearer_adv.c.obj
 .text          0x00000000        0x0 examples/pb_remote/server/CMakeFiles/pb_remote_server_nrf52832_xxAA_s132_5.0.0.dir/__/__/__/models/pb_remote/src/pb_remote_server.c.obj
 .data          0x00000000        0x0 examples/pb_remote/server/CMakeFiles/pb_remote_server_nrf52832_xxAA_s132_5.0.0.dir/__/__/__/models/pb_remote/src/pb_remote_server.c.obj
 .bss           0x00000000        0x0 examples/pb_remote/server/CMakeFiles/pb_remote_server_nrf52832_xxAA_s132_5.0.0.dir/__/__/__/models/pb_remote/src/pb_remote_server.c.obj
 .text.pb_remote_server_disable
                0x00000000        0xa examples/pb_remote/server/CMakeFiles/pb_remote_server_nrf52832_xxAA_s132_5.0.0.dir/__/__/__/models/pb_remote/src/pb_remote_server.c.obj
 .text.pb_remote_server_return_to_scan_set
                0x00000000        0xe examples/pb_remote/server/CMakeFiles/pb_remote_server_nrf52832_xxAA_s132_5.0.0.dir/__/__/__/models/pb_remote/src/pb_remote_server.c.obj
 .text          0x00000000        0x0 examples/pb_remote/server/CMakeFiles/pb_remote_server_nrf52832_xxAA_s132_5.0.0.dir/__/__/__/mesh/access/src/access_publish.c.obj
 .data          0x00000000        0x0 examples/pb_remote/server/CMakeFiles/pb_remote_server_nrf52832_xxAA_s132_5.0.0.dir/__/__/__/mesh/access/src/access_publish.c.obj
 .bss           0x00000000        0x0 examples/pb_remote/server/CMakeFiles/pb_remote_server_nrf52832_xxAA_s132_5.0.0.dir/__/__/__/mesh/access/src/access_publish.c.obj
 .text.access_publish_period_set
                0x00000000       0x6c examples/pb_remote/server/CMakeFiles/pb_remote_server_nrf52832_xxAA_s132_5.0.0.dir/__/__/__/mesh/access/src/access_publish.c.obj
 .text.access_publish_period_get
                0x00000000       0x30 examples/pb_remote/server/CMakeFiles/pb_remote_server_nrf52832_xxAA_s132_5.0.0.dir/__/__/__/mesh/access/src/access_publish.c.obj
 .text          0x00000000        0x0 examples/pb_remote/server/CMakeFiles/pb_remote_server_nrf52832_xxAA_s132_5.0.0.dir/__/__/__/mesh/access/src/access.c.obj
 .data          0x00000000        0x0 examples/pb_remote/server/CMakeFiles/pb_remote_server_nrf52832_xxAA_s132_5.0.0.dir/__/__/__/mesh/access/src/access.c.obj
 .bss           0x00000000        0x0 examples/pb_remote/server/CMakeFiles/pb_remote_server_nrf52832_xxAA_s132_5.0.0.dir/__/__/__/mesh/access/src/access.c.obj
 .text.restore_acquired_subscription
                0x00000000       0x30 examples/pb_remote/server/CMakeFiles/pb_remote_server_nrf52832_xxAA_s132_5.0.0.dir/__/__/__/mesh/access/src/access.c.obj
 .text.restore_acquired_element
                0x00000000       0x1c examples/pb_remote/server/CMakeFiles/pb_remote_server_nrf52832_xxAA_s132_5.0.0.dir/__/__/__/mesh/access/src/access.c.obj
 .text.restore_flash_data
                0x00000000       0x5c examples/pb_remote/server/CMakeFiles/pb_remote_server_nrf52832_xxAA_s132_5.0.0.dir/__/__/__/mesh/access/src/access.c.obj
 .text.access_flash_config_clear
                0x00000000       0x28 examples/pb_remote/server/CMakeFiles/pb_remote_server_nrf52832_xxAA_s132_5.0.0.dir/__/__/__/mesh/access/src/access.c.obj
 .text.access_flash_config_store
                0x00000000      0x14c examples/pb_remote/server/CMakeFiles/pb_remote_server_nrf52832_xxAA_s132_5.0.0.dir/__/__/__/mesh/access/src/access.c.obj
 .text.unlikely.bitfield_next_get.part.0.constprop.3
                0x00000000       0x34 examples/pb_remote/server/CMakeFiles/pb_remote_server_nrf52832_xxAA_s132_5.0.0.dir/__/__/__/mesh/access/src/access.c.obj
 .text.restore_acquired_model
                0x00000000       0x94 examples/pb_remote/server/CMakeFiles/pb_remote_server_nrf52832_xxAA_s132_5.0.0.dir/__/__/__/mesh/access/src/access.c.obj
 .text.access_flash_config_load
                0x00000000      0x128 examples/pb_remote/server/CMakeFiles/pb_remote_server_nrf52832_xxAA_s132_5.0.0.dir/__/__/__/mesh/access/src/access.c.obj
 .text.access_clear
                0x00000000       0x12 examples/pb_remote/server/CMakeFiles/pb_remote_server_nrf52832_xxAA_s132_5.0.0.dir/__/__/__/mesh/access/src/access.c.obj
 .text.access_model_publish_period_set
                0x00000000       0x6c examples/pb_remote/server/CMakeFiles/pb_remote_server_nrf52832_xxAA_s132_5.0.0.dir/__/__/__/mesh/access/src/access.c.obj
 .text.access_model_publish_period_get
                0x00000000       0x3c examples/pb_remote/server/CMakeFiles/pb_remote_server_nrf52832_xxAA_s132_5.0.0.dir/__/__/__/mesh/access/src/access.c.obj
 .text.access_model_subscription_list_alloc
                0x00000000       0x50 examples/pb_remote/server/CMakeFiles/pb_remote_server_nrf52832_xxAA_s132_5.0.0.dir/__/__/__/mesh/access/src/access.c.obj
 .text.access_model_subscription_lists_share
                0x00000000       0x4c examples/pb_remote/server/CMakeFiles/pb_remote_server_nrf52832_xxAA_s132_5.0.0.dir/__/__/__/mesh/access/src/access.c.obj
 .text.access_model_subscription_add
                0x00000000       0x60 examples/pb_remote/server/CMakeFiles/pb_remote_server_nrf52832_xxAA_s132_5.0.0.dir/__/__/__/mesh/access/src/access.c.obj
 .text.access_model_subscription_remove
                0x00000000       0x60 examples/pb_remote/server/CMakeFiles/pb_remote_server_nrf52832_xxAA_s132_5.0.0.dir/__/__/__/mesh/access/src/access.c.obj
 .text.access_model_subscriptions_get
                0x00000000       0x80 examples/pb_remote/server/CMakeFiles/pb_remote_server_nrf52832_xxAA_s132_5.0.0.dir/__/__/__/mesh/access/src/access.c.obj
 .text.access_model_application_unbind
                0x00000000       0x50 examples/pb_remote/server/CMakeFiles/pb_remote_server_nrf52832_xxAA_s132_5.0.0.dir/__/__/__/mesh/access/src/access.c.obj
 .text.access_model_applications_get
                0x00000000       0x58 examples/pb_remote/server/CMakeFiles/pb_remote_server_nrf52832_xxAA_s132_5.0.0.dir/__/__/__/mesh/access/src/access.c.obj
 .text.access_model_publish_application_get
                0x00000000       0x28 examples/pb_remote/server/CMakeFiles/pb_remote_server_nrf52832_xxAA_s132_5.0.0.dir/__/__/__/mesh/access/src/access.c.obj
 .text.access_default_ttl_set
                0x00000000       0x10 examples/pb_remote/server/CMakeFiles/pb_remote_server_nrf52832_xxAA_s132_5.0.0.dir/__/__/__/mesh/access/src/access.c.obj
 .text.access_default_ttl_get
                0x00000000        0xc examples/pb_remote/server/CMakeFiles/pb_remote_server_nrf52832_xxAA_s132_5.0.0.dir/__/__/__/mesh/access/src/access.c.obj
 .text.access_element_location_set
                0x00000000       0x20 examples/pb_remote/server/CMakeFiles/pb_remote_server_nrf52832_xxAA_s132_5.0.0.dir/__/__/__/mesh/access/src/access.c.obj
 .text.access_element_location_get
                0x00000000       0x18 examples/pb_remote/server/CMakeFiles/pb_remote_server_nrf52832_xxAA_s132_5.0.0.dir/__/__/__/mesh/access/src/access.c.obj
 .text.access_element_sig_model_count_get
                0x00000000       0x18 examples/pb_remote/server/CMakeFiles/pb_remote_server_nrf52832_xxAA_s132_5.0.0.dir/__/__/__/mesh/access/src/access.c.obj
 .text.access_element_vendor_model_count_get
                0x00000000       0x18 examples/pb_remote/server/CMakeFiles/pb_remote_server_nrf52832_xxAA_s132_5.0.0.dir/__/__/__/mesh/access/src/access.c.obj
 .text.access_model_id_get
                0x00000000       0x2c examples/pb_remote/server/CMakeFiles/pb_remote_server_nrf52832_xxAA_s132_5.0.0.dir/__/__/__/mesh/access/src/access.c.obj
 .text.access_handle_get
                0x00000000       0x54 examples/pb_remote/server/CMakeFiles/pb_remote_server_nrf52832_xxAA_s132_5.0.0.dir/__/__/__/mesh/access/src/access.c.obj
 .text.access_element_models_get
                0x00000000       0x48 examples/pb_remote/server/CMakeFiles/pb_remote_server_nrf52832_xxAA_s132_5.0.0.dir/__/__/__/mesh/access/src/access.c.obj
 .bss.m_metadata_stored
                0x00000000        0x1 examples/pb_remote/server/CMakeFiles/pb_remote_server_nrf52832_xxAA_s132_5.0.0.dir/__/__/__/mesh/access/src/access.c.obj
 .data.flash_clear_mem_available_struct.10464
                0x00000000       0x10 examples/pb_remote/server/CMakeFiles/pb_remote_server_nrf52832_xxAA_s132_5.0.0.dir/__/__/__/mesh/access/src/access.c.obj
 .data.flash_store_mem_available_struct.10488
                0x00000000       0x10 examples/pb_remote/server/CMakeFiles/pb_remote_server_nrf52832_xxAA_s132_5.0.0.dir/__/__/__/mesh/access/src/access.c.obj
 .rodata.multiply_de_bruijn_bit_position.9124
                0x00000000       0x20 examples/pb_remote/server/CMakeFiles/pb_remote_server_nrf52832_xxAA_s132_5.0.0.dir/__/__/__/mesh/access/src/access.c.obj
 .text          0x00000000        0x0 examples/pb_remote/server/CMakeFiles/pb_remote_server_nrf52832_xxAA_s132_5.0.0.dir/__/__/__/mesh/access/src/access_reliable.c.obj
 .data          0x00000000        0x0 examples/pb_remote/server/CMakeFiles/pb_remote_server_nrf52832_xxAA_s132_5.0.0.dir/__/__/__/mesh/access/src/access_reliable.c.obj
 .bss           0x00000000        0x0 examples/pb_remote/server/CMakeFiles/pb_remote_server_nrf52832_xxAA_s132_5.0.0.dir/__/__/__/mesh/access/src/access_reliable.c.obj
 .text.access_reliable_cancel_all
                0x00000000       0x34 examples/pb_remote/server/CMakeFiles/pb_remote_server_nrf52832_xxAA_s132_5.0.0.dir/__/__/__/mesh/access/src/access_reliable.c.obj
 .text          0x00000000        0x0 examples/pb_remote/server/CMakeFiles/pb_remote_server_nrf52832_xxAA_s132_5.0.0.dir/__/__/__/mesh/access/src/device_state_manager.c.obj
 .data          0x00000000        0x0 examples/pb_remote/server/CMakeFiles/pb_remote_server_nrf52832_xxAA_s132_5.0.0.dir/__/__/__/mesh/access/src/device_state_manager.c.obj
 .bss           0x00000000        0x0 examples/pb_remote/server/CMakeFiles/pb_remote_server_nrf52832_xxAA_s132_5.0.0.dir/__/__/__/mesh/access/src/device_state_manager.c.obj
 .text.reset_flash_area
                0x00000000       0x28 examples/pb_remote/server/CMakeFiles/pb_remote_server_nrf52832_xxAA_s132_5.0.0.dir/__/__/__/mesh/access/src/device_state_manager.c.obj
 .text.add_address_virtual
                0x00000000       0x70 examples/pb_remote/server/CMakeFiles/pb_remote_server_nrf52832_xxAA_s132_5.0.0.dir/__/__/__/mesh/access/src/device_state_manager.c.obj
 .text.address_delete_if_unused
                0x00000000       0x78 examples/pb_remote/server/CMakeFiles/pb_remote_server_nrf52832_xxAA_s132_5.0.0.dir/__/__/__/mesh/access/src/device_state_manager.c.obj
 .text.dsm_flash_config_load
                0x00000000      0x114 examples/pb_remote/server/CMakeFiles/pb_remote_server_nrf52832_xxAA_s132_5.0.0.dir/__/__/__/mesh/access/src/device_state_manager.c.obj
 .text.dsm_has_unflashed_data
                0x00000000       0x24 examples/pb_remote/server/CMakeFiles/pb_remote_server_nrf52832_xxAA_s132_5.0.0.dir/__/__/__/mesh/access/src/device_state_manager.c.obj
 .text.dsm_clear
                0x00000000       0x6c examples/pb_remote/server/CMakeFiles/pb_remote_server_nrf52832_xxAA_s132_5.0.0.dir/__/__/__/mesh/access/src/device_state_manager.c.obj
 .text.dsm_address_publish_add_handle
                0x00000000       0x38 examples/pb_remote/server/CMakeFiles/pb_remote_server_nrf52832_xxAA_s132_5.0.0.dir/__/__/__/mesh/access/src/device_state_manager.c.obj
 .text.dsm_address_publish_virtual_add
                0x00000000        0x6 examples/pb_remote/server/CMakeFiles/pb_remote_server_nrf52832_xxAA_s132_5.0.0.dir/__/__/__/mesh/access/src/device_state_manager.c.obj
 .text.dsm_address_publish_remove
                0x00000000       0x40 examples/pb_remote/server/CMakeFiles/pb_remote_server_nrf52832_xxAA_s132_5.0.0.dir/__/__/__/mesh/access/src/device_state_manager.c.obj
 .text.dsm_address_subscription_add
                0x00000000        0xc examples/pb_remote/server/CMakeFiles/pb_remote_server_nrf52832_xxAA_s132_5.0.0.dir/__/__/__/mesh/access/src/device_state_manager.c.obj
 .text.dsm_address_subscription_virtual_add
                0x00000000        0x6 examples/pb_remote/server/CMakeFiles/pb_remote_server_nrf52832_xxAA_s132_5.0.0.dir/__/__/__/mesh/access/src/device_state_manager.c.obj
 .text.dsm_address_subscription_add_handle
                0x00000000       0x38 examples/pb_remote/server/CMakeFiles/pb_remote_server_nrf52832_xxAA_s132_5.0.0.dir/__/__/__/mesh/access/src/device_state_manager.c.obj
 .text.dsm_address_subscription_count_get
                0x00000000       0x58 examples/pb_remote/server/CMakeFiles/pb_remote_server_nrf52832_xxAA_s132_5.0.0.dir/__/__/__/mesh/access/src/device_state_manager.c.obj
 .text.dsm_address_subscription_remove
                0x00000000       0x58 examples/pb_remote/server/CMakeFiles/pb_remote_server_nrf52832_xxAA_s132_5.0.0.dir/__/__/__/mesh/access/src/device_state_manager.c.obj
 .text.dsm_address_get_all
                0x00000000       0x64 examples/pb_remote/server/CMakeFiles/pb_remote_server_nrf52832_xxAA_s132_5.0.0.dir/__/__/__/mesh/access/src/device_state_manager.c.obj
 .text.dsm_net_key_index_to_subnet_handle
                0x00000000       0x1c examples/pb_remote/server/CMakeFiles/pb_remote_server_nrf52832_xxAA_s132_5.0.0.dir/__/__/__/mesh/access/src/device_state_manager.c.obj
 .text.dsm_subnet_handle_get
                0x00000000        0xc examples/pb_remote/server/CMakeFiles/pb_remote_server_nrf52832_xxAA_s132_5.0.0.dir/__/__/__/mesh/access/src/device_state_manager.c.obj
 .text.dsm_subnet_handle_to_netkey_index
                0x00000000       0x30 examples/pb_remote/server/CMakeFiles/pb_remote_server_nrf52832_xxAA_s132_5.0.0.dir/__/__/__/mesh/access/src/device_state_manager.c.obj
 .text.dsm_app_key_index_to_appkey_handle
                0x00000000       0x1c examples/pb_remote/server/CMakeFiles/pb_remote_server_nrf52832_xxAA_s132_5.0.0.dir/__/__/__/mesh/access/src/device_state_manager.c.obj
 .text.dsm_appkey_handle_to_appkey_index
                0x00000000       0x30 examples/pb_remote/server/CMakeFiles/pb_remote_server_nrf52832_xxAA_s132_5.0.0.dir/__/__/__/mesh/access/src/device_state_manager.c.obj
 .text.dsm_subnet_update
                0x00000000       0x3c examples/pb_remote/server/CMakeFiles/pb_remote_server_nrf52832_xxAA_s132_5.0.0.dir/__/__/__/mesh/access/src/device_state_manager.c.obj
 .text.dsm_subnet_get_all
                0x00000000       0x3c examples/pb_remote/server/CMakeFiles/pb_remote_server_nrf52832_xxAA_s132_5.0.0.dir/__/__/__/mesh/access/src/device_state_manager.c.obj
 .text.dsm_devkey_delete
                0x00000000       0x38 examples/pb_remote/server/CMakeFiles/pb_remote_server_nrf52832_xxAA_s132_5.0.0.dir/__/__/__/mesh/access/src/device_state_manager.c.obj
 .text.dsm_devkey_handle_get
                0x00000000       0x34 examples/pb_remote/server/CMakeFiles/pb_remote_server_nrf52832_xxAA_s132_5.0.0.dir/__/__/__/mesh/access/src/device_state_manager.c.obj
 .text.dsm_appkey_update
                0x00000000       0x40 examples/pb_remote/server/CMakeFiles/pb_remote_server_nrf52832_xxAA_s132_5.0.0.dir/__/__/__/mesh/access/src/device_state_manager.c.obj
 .text.dsm_appkey_delete
                0x00000000       0x2c examples/pb_remote/server/CMakeFiles/pb_remote_server_nrf52832_xxAA_s132_5.0.0.dir/__/__/__/mesh/access/src/device_state_manager.c.obj
 .text.dsm_subnet_delete
                0x00000000       0x84 examples/pb_remote/server/CMakeFiles/pb_remote_server_nrf52832_xxAA_s132_5.0.0.dir/__/__/__/mesh/access/src/device_state_manager.c.obj
 .text.dsm_appkey_get_all
                0x00000000       0x58 examples/pb_remote/server/CMakeFiles/pb_remote_server_nrf52832_xxAA_s132_5.0.0.dir/__/__/__/mesh/access/src/device_state_manager.c.obj
 .text.dsm_beacon_secmat_get
                0x00000000       0x2c examples/pb_remote/server/CMakeFiles/pb_remote_server_nrf52832_xxAA_s132_5.0.0.dir/__/__/__/mesh/access/src/device_state_manager.c.obj
 .text.dsm_proxy_identity_get
                0x00000000        0x4 examples/pb_remote/server/CMakeFiles/pb_remote_server_nrf52832_xxAA_s132_5.0.0.dir/__/__/__/mesh/access/src/device_state_manager.c.obj
 .data.mem_listener.10627
                0x00000000       0x10 examples/pb_remote/server/CMakeFiles/pb_remote_server_nrf52832_xxAA_s132_5.0.0.dir/__/__/__/mesh/access/src/device_state_manager.c.obj
 .text          0x00000000        0x0 examples/pb_remote/server/CMakeFiles/pb_remote_server_nrf52832_xxAA_s132_5.0.0.dir/__/__/__/external/nRF5_SDK_14.0.0_3bcc1f7/components/toolchain/system_nrf52.c.obj
 .data          0x00000000        0x0 examples/pb_remote/server/CMakeFiles/pb_remote_server_nrf52832_xxAA_s132_5.0.0.dir/__/__/__/external/nRF5_SDK_14.0.0_3bcc1f7/components/toolchain/system_nrf52.c.obj
 .bss           0x00000000        0x0 examples/pb_remote/server/CMakeFiles/pb_remote_server_nrf52832_xxAA_s132_5.0.0.dir/__/__/__/external/nRF5_SDK_14.0.0_3bcc1f7/components/toolchain/system_nrf52.c.obj
 .text.SystemCoreClockUpdate
                0x00000000       0x10 examples/pb_remote/server/CMakeFiles/pb_remote_server_nrf52832_xxAA_s132_5.0.0.dir/__/__/__/external/nRF5_SDK_14.0.0_3bcc1f7/components/toolchain/system_nrf52.c.obj
 .data          0x00000000        0x0 examples/pb_remote/server/CMakeFiles/pb_remote_server_nrf52832_xxAA_s132_5.0.0.dir/__/__/__/external/nRF5_SDK_14.0.0_3bcc1f7/components/toolchain/gcc/gcc_startup_nrf52.S.obj
 .bss           0x00000000        0x0 examples/pb_remote/server/CMakeFiles/pb_remote_server_nrf52832_xxAA_s132_5.0.0.dir/__/__/__/external/nRF5_SDK_14.0.0_3bcc1f7/components/toolchain/gcc/gcc_startup_nrf52.S.obj
 .text          0x00000000        0x0 mesh/core/libmesh_core_nrf52832_xxAA.a(nrf_mesh_configure.c.obj)
 .data          0x00000000        0x0 mesh/core/libmesh_core_nrf52832_xxAA.a(nrf_mesh_configure.c.obj)
 .bss           0x00000000        0x0 mesh/core/libmesh_core_nrf52832_xxAA.a(nrf_mesh_configure.c.obj)
 .text.nrf_mesh_configure_device_uuid_set
                0x00000000       0x10 mesh/core/libmesh_core_nrf52832_xxAA.a(nrf_mesh_configure.c.obj)
 .text          0x00000000        0x0 mesh/core/libmesh_core_nrf52832_xxAA.a(event.c.obj)
 .data          0x00000000        0x0 mesh/core/libmesh_core_nrf52832_xxAA.a(event.c.obj)
 .bss           0x00000000        0x0 mesh/core/libmesh_core_nrf52832_xxAA.a(event.c.obj)
 .text.event_handler_remove
                0x00000000       0x58 mesh/core/libmesh_core_nrf52832_xxAA.a(event.c.obj)
 .text          0x00000000        0x0 mesh/core/libmesh_core_nrf52832_xxAA.a(fifo.c.obj)
 .data          0x00000000        0x0 mesh/core/libmesh_core_nrf52832_xxAA.a(fifo.c.obj)
 .bss           0x00000000        0x0 mesh/core/libmesh_core_nrf52832_xxAA.a(fifo.c.obj)
 .text.fifo_peek_at
                0x00000000       0x50 mesh/core/libmesh_core_nrf52832_xxAA.a(fifo.c.obj)
 .text.fifo_peek
                0x00000000        0x6 mesh/core/libmesh_core_nrf52832_xxAA.a(fifo.c.obj)
 .text.fifo_is_full
                0x00000000       0x10 mesh/core/libmesh_core_nrf52832_xxAA.a(fifo.c.obj)
 .text.fifo_is_empty
                0x00000000        0xc mesh/core/libmesh_core_nrf52832_xxAA.a(fifo.c.obj)
 .text          0x00000000        0x0 mesh/core/libmesh_core_nrf52832_xxAA.a(net_state.c.obj)
 .data          0x00000000        0x0 mesh/core/libmesh_core_nrf52832_xxAA.a(net_state.c.obj)
 .bss           0x00000000        0x0 mesh/core/libmesh_core_nrf52832_xxAA.a(net_state.c.obj)
 .text.net_state_reset
                0x00000000       0x3c mesh/core/libmesh_core_nrf52832_xxAA.a(net_state.c.obj)
 .text.net_state_iv_update_test_mode_set
                0x00000000        0xc mesh/core/libmesh_core_nrf52832_xxAA.a(net_state.c.obj)
 .data.mem_listener.9883
                0x00000000       0x10 mesh/core/libmesh_core_nrf52832_xxAA.a(net_state.c.obj)
 .text          0x00000000        0x0 mesh/core/libmesh_core_nrf52832_xxAA.a(nrf_mesh_utils.c.obj)
 .data          0x00000000        0x0 mesh/core/libmesh_core_nrf52832_xxAA.a(nrf_mesh_utils.c.obj)
 .bss           0x00000000        0x0 mesh/core/libmesh_core_nrf52832_xxAA.a(nrf_mesh_utils.c.obj)
 .text.nrf_mesh_rand_get
                0x00000000       0x10 mesh/core/libmesh_core_nrf52832_xxAA.a(nrf_mesh_utils.c.obj)
 .text.nrf_mesh_gap_address_type_get
                0x00000000       0x3c mesh/core/libmesh_core_nrf52832_xxAA.a(nrf_mesh_utils.c.obj)
 .text          0x00000000        0x0 mesh/core/libmesh_core_nrf52832_xxAA.a(nrf_mesh.c.obj)
 .data          0x00000000        0x0 mesh/core/libmesh_core_nrf52832_xxAA.a(nrf_mesh.c.obj)
 .bss           0x00000000        0x0 mesh/core/libmesh_core_nrf52832_xxAA.a(nrf_mesh.c.obj)
 .text.nrf_mesh_disable
                0x00000000       0x28 mesh/core/libmesh_core_nrf52832_xxAA.a(nrf_mesh.c.obj)
 .text.nrf_mesh_evt_handler_remove
                0x00000000        0x4 mesh/core/libmesh_core_nrf52832_xxAA.a(nrf_mesh.c.obj)
 .text.nrf_mesh_rx_cb_set
                0x00000000        0xc mesh/core/libmesh_core_nrf52832_xxAA.a(nrf_mesh.c.obj)
 .text.nrf_mesh_rx_cb_clear
                0x00000000        0xc mesh/core/libmesh_core_nrf52832_xxAA.a(nrf_mesh.c.obj)
 .text          0x00000000        0x0 mesh/core/libmesh_core_nrf52832_xxAA.a(hal.c.obj)
 .data          0x00000000        0x0 mesh/core/libmesh_core_nrf52832_xxAA.a(hal.c.obj)
 .bss           0x00000000        0x0 mesh/core/libmesh_core_nrf52832_xxAA.a(hal.c.obj)
 .text.sd_power_reset_reason_clr
                0x00000000        0x4 mesh/core/libmesh_core_nrf52832_xxAA.a(hal.c.obj)
 .text.sd_power_gpregret_set
                0x00000000        0x4 mesh/core/libmesh_core_nrf52832_xxAA.a(hal.c.obj)
 .text.hal_device_reset
                0x00000000       0x38 mesh/core/libmesh_core_nrf52832_xxAA.a(hal.c.obj)
 .text          0x00000000        0x0 mesh/core/libmesh_core_nrf52832_xxAA.a(timer_scheduler.c.obj)
 .data          0x00000000        0x0 mesh/core/libmesh_core_nrf52832_xxAA.a(timer_scheduler.c.obj)
 .bss           0x00000000        0x0 mesh/core/libmesh_core_nrf52832_xxAA.a(timer_scheduler.c.obj)
 .text          0x00000000        0x0 mesh/core/libmesh_core_nrf52832_xxAA.a(timer.c.obj)
 .data          0x00000000        0x0 mesh/core/libmesh_core_nrf52832_xxAA.a(timer.c.obj)
 .bss           0x00000000        0x0 mesh/core/libmesh_core_nrf52832_xxAA.a(timer.c.obj)
 .text.timer_order_cb_ppi
                0x00000000       0xc4 mesh/core/libmesh_core_nrf52832_xxAA.a(timer.c.obj)
 .text.timer_order_ppi
                0x00000000       0x84 mesh/core/libmesh_core_nrf52832_xxAA.a(timer.c.obj)
 .text.timer_abort
                0x00000000       0x78 mesh/core/libmesh_core_nrf52832_xxAA.a(timer.c.obj)
 .text          0x00000000        0x0 mesh/core/libmesh_core_nrf52832_xxAA.a(ticker.c.obj)
 .data          0x00000000        0x0 mesh/core/libmesh_core_nrf52832_xxAA.a(ticker.c.obj)
 .bss           0x00000000        0x0 mesh/core/libmesh_core_nrf52832_xxAA.a(ticker.c.obj)
 .text.ticker_get
                0x00000000        0xc mesh/core/libmesh_core_nrf52832_xxAA.a(ticker.c.obj)
 .text          0x00000000        0x0 mesh/core/libmesh_core_nrf52832_xxAA.a(rand.c.obj)
 .data          0x00000000        0x0 mesh/core/libmesh_core_nrf52832_xxAA.a(rand.c.obj)
 .bss           0x00000000        0x0 mesh/core/libmesh_core_nrf52832_xxAA.a(rand.c.obj)
 .text          0x00000000        0x0 mesh/core/libmesh_core_nrf52832_xxAA.a(timeslot.c.obj)
 .data          0x00000000        0x0 mesh/core/libmesh_core_nrf52832_xxAA.a(timeslot.c.obj)
 .bss           0x00000000        0x0 mesh/core/libmesh_core_nrf52832_xxAA.a(timeslot.c.obj)
 .text.timeslot_end_time_get
                0x00000000       0x10 mesh/core/libmesh_core_nrf52832_xxAA.a(timeslot.c.obj)
 .text.timeslot_is_in_ts
                0x00000000        0xc mesh/core/libmesh_core_nrf52832_xxAA.a(timeslot.c.obj)
 .text.timeslot_restart
                0x00000000       0x10 mesh/core/libmesh_core_nrf52832_xxAA.a(timeslot.c.obj)
 .text          0x00000000        0x0 mesh/core/libmesh_core_nrf52832_xxAA.a(bearer_event.c.obj)
 .data          0x00000000        0x0 mesh/core/libmesh_core_nrf52832_xxAA.a(bearer_event.c.obj)
 .bss           0x00000000        0x0 mesh/core/libmesh_core_nrf52832_xxAA.a(bearer_event.c.obj)
 .text.bearer_event_generic_post
                0x00000000       0x30 mesh/core/libmesh_core_nrf52832_xxAA.a(bearer_event.c.obj)
 .text.bearer_event_timer_sch_post
                0x00000000       0x34 mesh/core/libmesh_core_nrf52832_xxAA.a(bearer_event.c.obj)
 .text          0x00000000        0x0 mesh/core/libmesh_core_nrf52832_xxAA.a(enc.c.obj)
 .data          0x00000000        0x0 mesh/core/libmesh_core_nrf52832_xxAA.a(enc.c.obj)
 .bss           0x00000000        0x0 mesh/core/libmesh_core_nrf52832_xxAA.a(enc.c.obj)
 .text.enc_key_generate
                0x00000000        0x6 mesh/core/libmesh_core_nrf52832_xxAA.a(enc.c.obj)
 .text          0x00000000        0x0 mesh/core/libmesh_core_nrf52832_xxAA.a(network.c.obj)
 .data          0x00000000        0x0 mesh/core/libmesh_core_nrf52832_xxAA.a(network.c.obj)
 .bss           0x00000000        0x0 mesh/core/libmesh_core_nrf52832_xxAA.a(network.c.obj)
 .text.network_opt_set
                0x00000000       0x54 mesh/core/libmesh_core_nrf52832_xxAA.a(network.c.obj)
 .text.network_opt_get
                0x00000000       0x48 mesh/core/libmesh_core_nrf52832_xxAA.a(network.c.obj)
 .text.network_packet_discard
                0x00000000       0x3c mesh/core/libmesh_core_nrf52832_xxAA.a(network.c.obj)
 .text          0x00000000        0x0 mesh/core/libmesh_core_nrf52832_xxAA.a(nrf_mesh_keygen.c.obj)
 .data          0x00000000        0x0 mesh/core/libmesh_core_nrf52832_xxAA.a(nrf_mesh_keygen.c.obj)
 .bss           0x00000000        0x0 mesh/core/libmesh_core_nrf52832_xxAA.a(nrf_mesh_keygen.c.obj)
 .text.nrf_mesh_keygen_identitykey
                0x00000000       0x4c mesh/core/libmesh_core_nrf52832_xxAA.a(nrf_mesh_keygen.c.obj)
 .text          0x00000000        0x0 mesh/core/libmesh_core_nrf52832_xxAA.a(log.c.obj)
 .data          0x00000000        0x0 mesh/core/libmesh_core_nrf52832_xxAA.a(log.c.obj)
 .bss           0x00000000        0x0 mesh/core/libmesh_core_nrf52832_xxAA.a(log.c.obj)
 .text.log_callback_logview
                0x00000000       0x38 mesh/core/libmesh_core_nrf52832_xxAA.a(log.c.obj)
 .text.log_set_callback
                0x00000000        0xc mesh/core/libmesh_core_nrf52832_xxAA.a(log.c.obj)
 .rodata.log_callback_logview.str1.1
                0x00000000        0xf mesh/core/libmesh_core_nrf52832_xxAA.a(log.c.obj)
 .text          0x00000000        0x0 mesh/core/libmesh_core_nrf52832_xxAA.a(flash_manager.c.obj)
 .data          0x00000000        0x0 mesh/core/libmesh_core_nrf52832_xxAA.a(flash_manager.c.obj)
 .bss           0x00000000        0x0 mesh/core/libmesh_core_nrf52832_xxAA.a(flash_manager.c.obj)
 .text.flash_manager_remove
                0x00000000       0x24 mesh/core/libmesh_core_nrf52832_xxAA.a(flash_manager.c.obj)
 .text.flash_manager_entry_get
                0x00000000       0x48 mesh/core/libmesh_core_nrf52832_xxAA.a(flash_manager.c.obj)
 .text.flash_manager_entry_count_get
                0x00000000       0x5c mesh/core/libmesh_core_nrf52832_xxAA.a(flash_manager.c.obj)
 .text.flash_manager_entry_release
                0x00000000       0x12 mesh/core/libmesh_core_nrf52832_xxAA.a(flash_manager.c.obj)
 .text          0x00000000        0x0 mesh/core/libmesh_core_nrf52832_xxAA.a(ccm_soft.c.obj)
 .data          0x00000000        0x0 mesh/core/libmesh_core_nrf52832_xxAA.a(ccm_soft.c.obj)
 .bss           0x00000000        0x0 mesh/core/libmesh_core_nrf52832_xxAA.a(ccm_soft.c.obj)
 .text          0x00000000        0x0 mesh/core/libmesh_core_nrf52832_xxAA.a(beacon.c.obj)
 .data          0x00000000        0x0 mesh/core/libmesh_core_nrf52832_xxAA.a(beacon.c.obj)
 .bss           0x00000000        0x0 mesh/core/libmesh_core_nrf52832_xxAA.a(beacon.c.obj)
 .text          0x00000000        0x0 mesh/core/libmesh_core_nrf52832_xxAA.a(flash_manager_internal.c.obj)
 .data          0x00000000        0x0 mesh/core/libmesh_core_nrf52832_xxAA.a(flash_manager_internal.c.obj)
 .bss           0x00000000        0x0 mesh/core/libmesh_core_nrf52832_xxAA.a(flash_manager_internal.c.obj)
 .text          0x00000000        0x0 mesh/core/libmesh_core_nrf52832_xxAA.a(core_tx.c.obj)
 .data          0x00000000        0x0 mesh/core/libmesh_core_nrf52832_xxAA.a(core_tx.c.obj)
 .bss           0x00000000        0x0 mesh/core/libmesh_core_nrf52832_xxAA.a(core_tx.c.obj)
 .text.core_tx_adv_count_set
                0x00000000       0x38 mesh/core/libmesh_core_nrf52832_xxAA.a(core_tx.c.obj)
 .text.core_tx_adv_count_get
                0x00000000       0x28 mesh/core/libmesh_core_nrf52832_xxAA.a(core_tx.c.obj)
 .text.core_tx_adv_interval_set
                0x00000000       0x34 mesh/core/libmesh_core_nrf52832_xxAA.a(core_tx.c.obj)
 .text.core_tx_adv_interval_get
                0x00000000       0x34 mesh/core/libmesh_core_nrf52832_xxAA.a(core_tx.c.obj)
 .text.core_tx_adv_address_set
                0x00000000       0x34 mesh/core/libmesh_core_nrf52832_xxAA.a(core_tx.c.obj)
 .text          0x00000000        0x0 mesh/core/libmesh_core_nrf52832_xxAA.a(net_beacon.c.obj)
 .data          0x00000000        0x0 mesh/core/libmesh_core_nrf52832_xxAA.a(net_beacon.c.obj)
 .bss           0x00000000        0x0 mesh/core/libmesh_core_nrf52832_xxAA.a(net_beacon.c.obj)
 .text.net_beacon_state_set
                0x00000000       0x34 mesh/core/libmesh_core_nrf52832_xxAA.a(net_beacon.c.obj)
 .text.net_beacon_state_get
                0x00000000        0xc mesh/core/libmesh_core_nrf52832_xxAA.a(net_beacon.c.obj)
 .text          0x00000000        0x0 mesh/core/libmesh_core_nrf52832_xxAA.a(advertiser.c.obj)
 .data          0x00000000        0x0 mesh/core/libmesh_core_nrf52832_xxAA.a(advertiser.c.obj)
 .bss           0x00000000        0x0 mesh/core/libmesh_core_nrf52832_xxAA.a(advertiser.c.obj)
 .text.advertiser_disable
                0x00000000        0xa mesh/core/libmesh_core_nrf52832_xxAA.a(advertiser.c.obj)
 .text.advertiser_channels_set
                0x00000000       0x84 mesh/core/libmesh_core_nrf52832_xxAA.a(advertiser.c.obj)
 .text.advertiser_address_set
                0x00000000       0x50 mesh/core/libmesh_core_nrf52832_xxAA.a(advertiser.c.obj)
 .text.advertiser_config_set
                0x00000000       0x44 mesh/core/libmesh_core_nrf52832_xxAA.a(advertiser.c.obj)
 .text.advertiser_config_get
                0x00000000       0x2c mesh/core/libmesh_core_nrf52832_xxAA.a(advertiser.c.obj)
 .text          0x00000000        0x0 mesh/core/libmesh_core_nrf52832_xxAA.a(bearer_handler.c.obj)
 .data          0x00000000        0x0 mesh/core/libmesh_core_nrf52832_xxAA.a(bearer_handler.c.obj)
 .bss           0x00000000        0x0 mesh/core/libmesh_core_nrf52832_xxAA.a(bearer_handler.c.obj)
 .text.bearer_handler_stop
                0x00000000       0x20 mesh/core/libmesh_core_nrf52832_xxAA.a(bearer_handler.c.obj)
 .text.bearer_handler_action_fire
                0x00000000       0xb0 mesh/core/libmesh_core_nrf52832_xxAA.a(bearer_handler.c.obj)
 .text          0x00000000        0x0 mesh/core/libmesh_core_nrf52832_xxAA.a(broadcast.c.obj)
 .data          0x00000000        0x0 mesh/core/libmesh_core_nrf52832_xxAA.a(broadcast.c.obj)
 .bss           0x00000000        0x0 mesh/core/libmesh_core_nrf52832_xxAA.a(broadcast.c.obj)
 .text          0x00000000        0x0 mesh/core/libmesh_core_nrf52832_xxAA.a(radio_config.c.obj)
 .data          0x00000000        0x0 mesh/core/libmesh_core_nrf52832_xxAA.a(radio_config.c.obj)
 .bss           0x00000000        0x0 mesh/core/libmesh_core_nrf52832_xxAA.a(radio_config.c.obj)
 .text.radio_config_access_addr_get
                0x00000000       0x64 mesh/core/libmesh_core_nrf52832_xxAA.a(radio_config.c.obj)
 .text          0x00000000        0x0 mesh/core/libmesh_core_nrf52832_xxAA.a(scanner.c.obj)
 .data          0x00000000        0x0 mesh/core/libmesh_core_nrf52832_xxAA.a(scanner.c.obj)
 .bss           0x00000000        0x0 mesh/core/libmesh_core_nrf52832_xxAA.a(scanner.c.obj)
 .text.scanner_disable
                0x00000000       0x48 mesh/core/libmesh_core_nrf52832_xxAA.a(scanner.c.obj)
 .text.scanner_is_enabled
                0x00000000       0x10 mesh/core/libmesh_core_nrf52832_xxAA.a(scanner.c.obj)
 .text.scanner_stats_get
                0x00000000        0x8 mesh/core/libmesh_core_nrf52832_xxAA.a(scanner.c.obj)
 .text.scanner_config_radio_mode_set
                0x00000000       0x10 mesh/core/libmesh_core_nrf52832_xxAA.a(scanner.c.obj)
 .text          0x00000000        0x0 mesh/core/libmesh_core_nrf52832_xxAA.a(internal_event.c.obj)
 .data          0x00000000        0x0 mesh/core/libmesh_core_nrf52832_xxAA.a(internal_event.c.obj)
 .bss           0x00000000        0x0 mesh/core/libmesh_core_nrf52832_xxAA.a(internal_event.c.obj)
 .text.internal_event_init
                0x00000000       0x40 mesh/core/libmesh_core_nrf52832_xxAA.a(internal_event.c.obj)
 .text.internal_event_pop
                0x00000000       0x1c mesh/core/libmesh_core_nrf52832_xxAA.a(internal_event.c.obj)
 .bss.m_internal_event_fifo_buffer
                0x00000000      0x100 mesh/core/libmesh_core_nrf52832_xxAA.a(internal_event.c.obj)
 .text          0x00000000        0x0 mesh/core/libmesh_core_nrf52832_xxAA.a(aes.c.obj)
 .data          0x00000000        0x0 mesh/core/libmesh_core_nrf52832_xxAA.a(aes.c.obj)
 .bss           0x00000000        0x0 mesh/core/libmesh_core_nrf52832_xxAA.a(aes.c.obj)
 .text          0x00000000        0x0 mesh/core/libmesh_core_nrf52832_xxAA.a(msg_cache.c.obj)
 .data          0x00000000        0x0 mesh/core/libmesh_core_nrf52832_xxAA.a(msg_cache.c.obj)
 .bss           0x00000000        0x0 mesh/core/libmesh_core_nrf52832_xxAA.a(msg_cache.c.obj)
 .text.msg_cache_clear
                0x00000000       0x18 mesh/core/libmesh_core_nrf52832_xxAA.a(msg_cache.c.obj)
 .text          0x00000000        0x0 mesh/core/libmesh_core_nrf52832_xxAA.a(transport.c.obj)
 .data          0x00000000        0x0 mesh/core/libmesh_core_nrf52832_xxAA.a(transport.c.obj)
 .bss           0x00000000        0x0 mesh/core/libmesh_core_nrf52832_xxAA.a(transport.c.obj)
 .text.transport_sar_mem_funcs_set
                0x00000000       0x44 mesh/core/libmesh_core_nrf52832_xxAA.a(transport.c.obj)
 .text.transport_opt_set
                0x00000000       0xd0 mesh/core/libmesh_core_nrf52832_xxAA.a(transport.c.obj)
 .text.transport_opt_get
                0x00000000       0x68 mesh/core/libmesh_core_nrf52832_xxAA.a(transport.c.obj)
 .text          0x00000000        0x0 mesh/core/libmesh_core_nrf52832_xxAA.a(packet_buffer.c.obj)
 .data          0x00000000        0x0 mesh/core/libmesh_core_nrf52832_xxAA.a(packet_buffer.c.obj)
 .bss           0x00000000        0x0 mesh/core/libmesh_core_nrf52832_xxAA.a(packet_buffer.c.obj)
 .text.packet_buffer_max_packet_len_get
                0x00000000       0x34 mesh/core/libmesh_core_nrf52832_xxAA.a(packet_buffer.c.obj)
 .text          0x00000000        0x0 mesh/core/libmesh_core_nrf52832_xxAA.a(flash_manager_defrag.c.obj)
 .data          0x00000000        0x0 mesh/core/libmesh_core_nrf52832_xxAA.a(flash_manager_defrag.c.obj)
 .bss           0x00000000        0x0 mesh/core/libmesh_core_nrf52832_xxAA.a(flash_manager_defrag.c.obj)
 .text.flash_manager_defragging
                0x00000000       0x44 mesh/core/libmesh_core_nrf52832_xxAA.a(flash_manager_defrag.c.obj)
 .text          0x00000000        0x0 mesh/core/libmesh_core_nrf52832_xxAA.a(packet_mgr.c.obj)
 .data          0x00000000        0x0 mesh/core/libmesh_core_nrf52832_xxAA.a(packet_mgr.c.obj)
 .bss           0x00000000        0x0 mesh/core/libmesh_core_nrf52832_xxAA.a(packet_mgr.c.obj)
 .text.packet_mgr_alloc
                0x00000000      0x19c mesh/core/libmesh_core_nrf52832_xxAA.a(packet_mgr.c.obj)
 .text.packet_mgr_free
                0x00000000       0x6c mesh/core/libmesh_core_nrf52832_xxAA.a(packet_mgr.c.obj)
 .text.packet_mgr_get_free_space
                0x00000000       0x1c mesh/core/libmesh_core_nrf52832_xxAA.a(packet_mgr.c.obj)
 .text.packet_mgr_refcount_get
                0x00000000        0x6 mesh/core/libmesh_core_nrf52832_xxAA.a(packet_mgr.c.obj)
 .text.packet_mgr_size_get
                0x00000000        0x6 mesh/core/libmesh_core_nrf52832_xxAA.a(packet_mgr.c.obj)
 .text          0x00000000        0x0 mesh/core/libmesh_core_nrf52832_xxAA.a(mesh_flash.c.obj)
 .data          0x00000000        0x0 mesh/core/libmesh_core_nrf52832_xxAA.a(mesh_flash.c.obj)
 .bss           0x00000000        0x0 mesh/core/libmesh_core_nrf52832_xxAA.a(mesh_flash.c.obj)
 .text.mesh_flash_op_available_slots
                0x00000000       0x2c mesh/core/libmesh_core_nrf52832_xxAA.a(mesh_flash.c.obj)
 .text.mesh_flash_in_progress
                0x00000000       0x34 mesh/core/libmesh_core_nrf52832_xxAA.a(mesh_flash.c.obj)
 .text.mesh_flash_set_suspended
                0x00000000       0x80 mesh/core/libmesh_core_nrf52832_xxAA.a(mesh_flash.c.obj)
 .bss.suspend_count.10003
                0x00000000        0x4 mesh/core/libmesh_core_nrf52832_xxAA.a(mesh_flash.c.obj)
 .text          0x00000000        0x0 mesh/core/libmesh_core_nrf52832_xxAA.a(queue.c.obj)
 .data          0x00000000        0x0 mesh/core/libmesh_core_nrf52832_xxAA.a(queue.c.obj)
 .bss           0x00000000        0x0 mesh/core/libmesh_core_nrf52832_xxAA.a(queue.c.obj)
 .text          0x00000000        0x0 mesh/core/libmesh_core_nrf52832_xxAA.a(aes_cmac.c.obj)
 .data          0x00000000        0x0 mesh/core/libmesh_core_nrf52832_xxAA.a(aes_cmac.c.obj)
 .bss           0x00000000        0x0 mesh/core/libmesh_core_nrf52832_xxAA.a(aes_cmac.c.obj)
 .text          0x00000000        0x0 mesh/core/libmesh_core_nrf52832_xxAA.a(msqueue.c.obj)
 .data          0x00000000        0x0 mesh/core/libmesh_core_nrf52832_xxAA.a(msqueue.c.obj)
 .bss           0x00000000        0x0 mesh/core/libmesh_core_nrf52832_xxAA.a(msqueue.c.obj)
 .text          0x00000000        0x0 mesh/core/libmesh_core_nrf52832_xxAA.a(replay_cache.c.obj)
 .data          0x00000000        0x0 mesh/core/libmesh_core_nrf52832_xxAA.a(replay_cache.c.obj)
 .bss           0x00000000        0x0 mesh/core/libmesh_core_nrf52832_xxAA.a(replay_cache.c.obj)
 .text.replay_cache_on_iv_update
                0x00000000       0x24 mesh/core/libmesh_core_nrf52832_xxAA.a(replay_cache.c.obj)
 .text          0x00000000        0x0 mesh/core/libmesh_core_nrf52832_xxAA.a(filter_engine.c.obj)
 .data          0x00000000        0x0 mesh/core/libmesh_core_nrf52832_xxAA.a(filter_engine.c.obj)
 .bss           0x00000000        0x0 mesh/core/libmesh_core_nrf52832_xxAA.a(filter_engine.c.obj)
 .text.fen_filter_start
                0x00000000       0x68 mesh/core/libmesh_core_nrf52832_xxAA.a(filter_engine.c.obj)
 .text.fen_filter_stop
                0x00000000       0x5c mesh/core/libmesh_core_nrf52832_xxAA.a(filter_engine.c.obj)
 .text.fen_accepted_amount_get
                0x00000000        0xc mesh/core/libmesh_core_nrf52832_xxAA.a(filter_engine.c.obj)
 .text          0x00000000        0x0 mesh/core/libmesh_core_nrf52832_xxAA.a(nrf_flash.c.obj)
 .data          0x00000000        0x0 mesh/core/libmesh_core_nrf52832_xxAA.a(nrf_flash.c.obj)
 .bss           0x00000000        0x0 mesh/core/libmesh_core_nrf52832_xxAA.a(nrf_flash.c.obj)
 .text          0x00000000        0x0 external/rtt/librtt_nrf52832_xxAA.a(SEGGER_RTT.c.obj)
 .data          0x00000000        0x0 external/rtt/librtt_nrf52832_xxAA.a(SEGGER_RTT.c.obj)
 .bss           0x00000000        0x0 external/rtt/librtt_nrf52832_xxAA.a(SEGGER_RTT.c.obj)
 .text._PostTerminalSwitch.constprop.0
                0x00000000       0x28 external/rtt/librtt_nrf52832_xxAA.a(SEGGER_RTT.c.obj)
 .text.SEGGER_RTT_ReadNoLock
                0x00000000       0x88 external/rtt/librtt_nrf52832_xxAA.a(SEGGER_RTT.c.obj)
 .text.SEGGER_RTT_Read
                0x00000000       0x1c external/rtt/librtt_nrf52832_xxAA.a(SEGGER_RTT.c.obj)
 .text.SEGGER_RTT_WriteSkipNoLock
                0x00000000       0xb4 external/rtt/librtt_nrf52832_xxAA.a(SEGGER_RTT.c.obj)
 .text.SEGGER_RTT_WriteString
                0x00000000       0x1a external/rtt/librtt_nrf52832_xxAA.a(SEGGER_RTT.c.obj)
 .text.SEGGER_RTT_GetKey
                0x00000000       0x20 external/rtt/librtt_nrf52832_xxAA.a(SEGGER_RTT.c.obj)
 .text.SEGGER_RTT_WaitKey
                0x00000000        0xc external/rtt/librtt_nrf52832_xxAA.a(SEGGER_RTT.c.obj)
 .text.SEGGER_RTT_HasKey
                0x00000000       0x1c external/rtt/librtt_nrf52832_xxAA.a(SEGGER_RTT.c.obj)
 .text.SEGGER_RTT_HasData
                0x00000000       0x14 external/rtt/librtt_nrf52832_xxAA.a(SEGGER_RTT.c.obj)
 .text.SEGGER_RTT_AllocDownBuffer
                0x00000000       0x68 external/rtt/librtt_nrf52832_xxAA.a(SEGGER_RTT.c.obj)
 .text.SEGGER_RTT_AllocUpBuffer
                0x00000000       0x70 external/rtt/librtt_nrf52832_xxAA.a(SEGGER_RTT.c.obj)
 .text.SEGGER_RTT_ConfigUpBuffer
                0x00000000       0x68 external/rtt/librtt_nrf52832_xxAA.a(SEGGER_RTT.c.obj)
 .text.SEGGER_RTT_ConfigDownBuffer
                0x00000000       0x60 external/rtt/librtt_nrf52832_xxAA.a(SEGGER_RTT.c.obj)
 .text.SEGGER_RTT_SetNameUpBuffer
                0x00000000       0x3c external/rtt/librtt_nrf52832_xxAA.a(SEGGER_RTT.c.obj)
 .text.SEGGER_RTT_SetNameDownBuffer
                0x00000000       0x3c external/rtt/librtt_nrf52832_xxAA.a(SEGGER_RTT.c.obj)
 .text.SEGGER_RTT_Init
                0x00000000       0x10 external/rtt/librtt_nrf52832_xxAA.a(SEGGER_RTT.c.obj)
 .text.SEGGER_RTT_SetTerminal
                0x00000000       0x84 external/rtt/librtt_nrf52832_xxAA.a(SEGGER_RTT.c.obj)
 .text.SEGGER_RTT_TerminalOut
                0x00000000       0xa0 external/rtt/librtt_nrf52832_xxAA.a(SEGGER_RTT.c.obj)
 .bss._ActiveTerminal
                0x00000000        0x1 external/rtt/librtt_nrf52832_xxAA.a(SEGGER_RTT.c.obj)
 .rodata._aTerminalId
                0x00000000       0x10 external/rtt/librtt_nrf52832_xxAA.a(SEGGER_RTT.c.obj)
 .text          0x00000000        0x0 external/rtt/librtt_nrf52832_xxAA.a(SEGGER_RTT_printf.c.obj)
 .data          0x00000000        0x0 external/rtt/librtt_nrf52832_xxAA.a(SEGGER_RTT_printf.c.obj)
 .bss           0x00000000        0x0 external/rtt/librtt_nrf52832_xxAA.a(SEGGER_RTT_printf.c.obj)
 .text          0x00000000        0x0 external/micro-ecc/libuECC_nrf52832_xxAA.a(uECC.c.obj)
 .data          0x00000000        0x0 external/micro-ecc/libuECC_nrf52832_xxAA.a(uECC.c.obj)
 .bss           0x00000000        0x0 external/micro-ecc/libuECC_nrf52832_xxAA.a(uECC.c.obj)
 .text.uECC_vli_modMult
                0x00000000      0x148 external/micro-ecc/libuECC_nrf52832_xxAA.a(uECC.c.obj)
 .text.HMAC_init
                0x00000000       0x46 external/micro-ecc/libuECC_nrf52832_xxAA.a(uECC.c.obj)
 .text.HMAC_update
                0x00000000        0x4 external/micro-ecc/libuECC_nrf52832_xxAA.a(uECC.c.obj)
 .text.HMAC_finish
                0x00000000       0x62 external/micro-ecc/libuECC_nrf52832_xxAA.a(uECC.c.obj)
 .text.update_V
                0x00000000       0x24 external/micro-ecc/libuECC_nrf52832_xxAA.a(uECC.c.obj)
 .text.bits2int
                0x00000000       0x88 external/micro-ecc/libuECC_nrf52832_xxAA.a(uECC.c.obj)
 .text.uECC_sign_with_k
                0x00000000      0x17c external/micro-ecc/libuECC_nrf52832_xxAA.a(uECC.c.obj)
 .text.uECC_set_rng
                0x00000000        0xc external/micro-ecc/libuECC_nrf52832_xxAA.a(uECC.c.obj)
 .text.uECC_get_rng
                0x00000000        0xc external/micro-ecc/libuECC_nrf52832_xxAA.a(uECC.c.obj)
 .text.uECC_curve_private_key_size
                0x00000000        0xe external/micro-ecc/libuECC_nrf52832_xxAA.a(uECC.c.obj)
 .text.uECC_curve_public_key_size
                0x00000000        0x8 external/micro-ecc/libuECC_nrf52832_xxAA.a(uECC.c.obj)
 .text.uECC_compute_public_key
                0x00000000       0x7e external/micro-ecc/libuECC_nrf52832_xxAA.a(uECC.c.obj)
 .text.uECC_sign
                0x00000000       0x56 external/micro-ecc/libuECC_nrf52832_xxAA.a(uECC.c.obj)
 .text.uECC_sign_deterministic
                0x00000000      0x192 external/micro-ecc/libuECC_nrf52832_xxAA.a(uECC.c.obj)
 .text.uECC_verify
                0x00000000      0x2f0 external/micro-ecc/libuECC_nrf52832_xxAA.a(uECC.c.obj)
 .text          0x00000000        0x0 c:/a/gcc_arm/6/bin/../lib/gcc/arm-none-eabi/6.3.1/../../../../arm-none-eabi/lib/thumb/v7e-m/fpv4-sp/hard\libc_nano.a(lib_a-exit.o)
 .data          0x00000000        0x0 c:/a/gcc_arm/6/bin/../lib/gcc/arm-none-eabi/6.3.1/../../../../arm-none-eabi/lib/thumb/v7e-m/fpv4-sp/hard\libc_nano.a(lib_a-exit.o)
 .bss           0x00000000        0x0 c:/a/gcc_arm/6/bin/../lib/gcc/arm-none-eabi/6.3.1/../../../../arm-none-eabi/lib/thumb/v7e-m/fpv4-sp/hard\libc_nano.a(lib_a-exit.o)
 .text          0x00000000        0x0 c:/a/gcc_arm/6/bin/../lib/gcc/arm-none-eabi/6.3.1/../../../../arm-none-eabi/lib/thumb/v7e-m/fpv4-sp/hard\libc_nano.a(lib_a-impure.o)
 .data          0x00000000        0x0 c:/a/gcc_arm/6/bin/../lib/gcc/arm-none-eabi/6.3.1/../../../../arm-none-eabi/lib/thumb/v7e-m/fpv4-sp/hard\libc_nano.a(lib_a-impure.o)
 .bss           0x00000000        0x0 c:/a/gcc_arm/6/bin/../lib/gcc/arm-none-eabi/6.3.1/../../../../arm-none-eabi/lib/thumb/v7e-m/fpv4-sp/hard\libc_nano.a(lib_a-impure.o)
 .text          0x00000000        0x0 c:/a/gcc_arm/6/bin/../lib/gcc/arm-none-eabi/6.3.1/../../../../arm-none-eabi/lib/thumb/v7e-m/fpv4-sp/hard\libc_nano.a(lib_a-init.o)
 .data          0x00000000        0x0 c:/a/gcc_arm/6/bin/../lib/gcc/arm-none-eabi/6.3.1/../../../../arm-none-eabi/lib/thumb/v7e-m/fpv4-sp/hard\libc_nano.a(lib_a-init.o)
 .bss           0x00000000        0x0 c:/a/gcc_arm/6/bin/../lib/gcc/arm-none-eabi/6.3.1/../../../../arm-none-eabi/lib/thumb/v7e-m/fpv4-sp/hard\libc_nano.a(lib_a-init.o)
 .text          0x00000000        0x0 c:/a/gcc_arm/6/bin/../lib/gcc/arm-none-eabi/6.3.1/../../../../arm-none-eabi/lib/thumb/v7e-m/fpv4-sp/hard\libc_nano.a(lib_a-malloc.o)
 .data          0x00000000        0x0 c:/a/gcc_arm/6/bin/../lib/gcc/arm-none-eabi/6.3.1/../../../../arm-none-eabi/lib/thumb/v7e-m/fpv4-sp/hard\libc_nano.a(lib_a-malloc.o)
 .bss           0x00000000        0x0 c:/a/gcc_arm/6/bin/../lib/gcc/arm-none-eabi/6.3.1/../../../../arm-none-eabi/lib/thumb/v7e-m/fpv4-sp/hard\libc_nano.a(lib_a-malloc.o)
 .text          0x00000000        0x0 c:/a/gcc_arm/6/bin/../lib/gcc/arm-none-eabi/6.3.1/../../../../arm-none-eabi/lib/thumb/v7e-m/fpv4-sp/hard\libc_nano.a(lib_a-memcmp.o)
 .data          0x00000000        0x0 c:/a/gcc_arm/6/bin/../lib/gcc/arm-none-eabi/6.3.1/../../../../arm-none-eabi/lib/thumb/v7e-m/fpv4-sp/hard\libc_nano.a(lib_a-memcmp.o)
 .bss           0x00000000        0x0 c:/a/gcc_arm/6/bin/../lib/gcc/arm-none-eabi/6.3.1/../../../../arm-none-eabi/lib/thumb/v7e-m/fpv4-sp/hard\libc_nano.a(lib_a-memcmp.o)
 .text          0x00000000        0x0 c:/a/gcc_arm/6/bin/../lib/gcc/arm-none-eabi/6.3.1/../../../../arm-none-eabi/lib/thumb/v7e-m/fpv4-sp/hard\libc_nano.a(lib_a-memcpy-stub.o)
 .data          0x00000000        0x0 c:/a/gcc_arm/6/bin/../lib/gcc/arm-none-eabi/6.3.1/../../../../arm-none-eabi/lib/thumb/v7e-m/fpv4-sp/hard\libc_nano.a(lib_a-memcpy-stub.o)
 .bss           0x00000000        0x0 c:/a/gcc_arm/6/bin/../lib/gcc/arm-none-eabi/6.3.1/../../../../arm-none-eabi/lib/thumb/v7e-m/fpv4-sp/hard\libc_nano.a(lib_a-memcpy-stub.o)
 .text          0x00000000        0x0 c:/a/gcc_arm/6/bin/../lib/gcc/arm-none-eabi/6.3.1/../../../../arm-none-eabi/lib/thumb/v7e-m/fpv4-sp/hard\libc_nano.a(lib_a-memset.o)
 .data          0x00000000        0x0 c:/a/gcc_arm/6/bin/../lib/gcc/arm-none-eabi/6.3.1/../../../../arm-none-eabi/lib/thumb/v7e-m/fpv4-sp/hard\libc_nano.a(lib_a-memset.o)
 .bss           0x00000000        0x0 c:/a/gcc_arm/6/bin/../lib/gcc/arm-none-eabi/6.3.1/../../../../arm-none-eabi/lib/thumb/v7e-m/fpv4-sp/hard\libc_nano.a(lib_a-memset.o)
 .text          0x00000000        0x0 c:/a/gcc_arm/6/bin/../lib/gcc/arm-none-eabi/6.3.1/../../../../arm-none-eabi/lib/thumb/v7e-m/fpv4-sp/hard\libc_nano.a(lib_a-nano-freer.o)
 .data          0x00000000        0x0 c:/a/gcc_arm/6/bin/../lib/gcc/arm-none-eabi/6.3.1/../../../../arm-none-eabi/lib/thumb/v7e-m/fpv4-sp/hard\libc_nano.a(lib_a-nano-freer.o)
 .bss           0x00000000        0x0 c:/a/gcc_arm/6/bin/../lib/gcc/arm-none-eabi/6.3.1/../../../../arm-none-eabi/lib/thumb/v7e-m/fpv4-sp/hard\libc_nano.a(lib_a-nano-freer.o)
 .text          0x00000000        0x0 c:/a/gcc_arm/6/bin/../lib/gcc/arm-none-eabi/6.3.1/../../../../arm-none-eabi/lib/thumb/v7e-m/fpv4-sp/hard\libc_nano.a(lib_a-nano-mallocr.o)
 .data          0x00000000        0x0 c:/a/gcc_arm/6/bin/../lib/gcc/arm-none-eabi/6.3.1/../../../../arm-none-eabi/lib/thumb/v7e-m/fpv4-sp/hard\libc_nano.a(lib_a-nano-mallocr.o)
 .bss           0x00000000        0x0 c:/a/gcc_arm/6/bin/../lib/gcc/arm-none-eabi/6.3.1/../../../../arm-none-eabi/lib/thumb/v7e-m/fpv4-sp/hard\libc_nano.a(lib_a-nano-mallocr.o)
 .text          0x00000000        0x0 c:/a/gcc_arm/6/bin/../lib/gcc/arm-none-eabi/6.3.1/../../../../arm-none-eabi/lib/thumb/v7e-m/fpv4-sp/hard\libc_nano.a(lib_a-sbrkr.o)
 .data          0x00000000        0x0 c:/a/gcc_arm/6/bin/../lib/gcc/arm-none-eabi/6.3.1/../../../../arm-none-eabi/lib/thumb/v7e-m/fpv4-sp/hard\libc_nano.a(lib_a-sbrkr.o)
 .bss           0x00000000        0x0 c:/a/gcc_arm/6/bin/../lib/gcc/arm-none-eabi/6.3.1/../../../../arm-none-eabi/lib/thumb/v7e-m/fpv4-sp/hard\libc_nano.a(lib_a-sbrkr.o)
 .text          0x00000000        0x0 c:/a/gcc_arm/6/bin/../lib/gcc/arm-none-eabi/6.3.1/../../../../arm-none-eabi/lib/thumb/v7e-m/fpv4-sp/hard\libc_nano.a(lib_a-strcpy.o)
 .data          0x00000000        0x0 c:/a/gcc_arm/6/bin/../lib/gcc/arm-none-eabi/6.3.1/../../../../arm-none-eabi/lib/thumb/v7e-m/fpv4-sp/hard\libc_nano.a(lib_a-strcpy.o)
 .bss           0x00000000        0x0 c:/a/gcc_arm/6/bin/../lib/gcc/arm-none-eabi/6.3.1/../../../../arm-none-eabi/lib/thumb/v7e-m/fpv4-sp/hard\libc_nano.a(lib_a-strcpy.o)
 .data          0x00000000        0x0 c:/a/gcc_arm/6/bin/../lib/gcc/arm-none-eabi/6.3.1/../../../../arm-none-eabi/lib/thumb/v7e-m/fpv4-sp/hard\libc_nano.a(lib_a-strlen.o)
 .bss           0x00000000        0x0 c:/a/gcc_arm/6/bin/../lib/gcc/arm-none-eabi/6.3.1/../../../../arm-none-eabi/lib/thumb/v7e-m/fpv4-sp/hard\libc_nano.a(lib_a-strlen.o)
 .text          0x00000000        0x0 c:/a/gcc_arm/6/bin/../lib/gcc/arm-none-eabi/6.3.1/../../../../arm-none-eabi/lib/thumb/v7e-m/fpv4-sp/hard\libc_nano.a(lib_a-strrchr.o)
 .data          0x00000000        0x0 c:/a/gcc_arm/6/bin/../lib/gcc/arm-none-eabi/6.3.1/../../../../arm-none-eabi/lib/thumb/v7e-m/fpv4-sp/hard\libc_nano.a(lib_a-strrchr.o)
 .bss           0x00000000        0x0 c:/a/gcc_arm/6/bin/../lib/gcc/arm-none-eabi/6.3.1/../../../../arm-none-eabi/lib/thumb/v7e-m/fpv4-sp/hard\libc_nano.a(lib_a-strrchr.o)
 .text          0x00000000        0x0 c:/a/gcc_arm/6/bin/../lib/gcc/arm-none-eabi/6.3.1/../../../../arm-none-eabi/lib/thumb/v7e-m/fpv4-sp/hard\libc_nano.a(lib_a-mlock.o)
 .data          0x00000000        0x0 c:/a/gcc_arm/6/bin/../lib/gcc/arm-none-eabi/6.3.1/../../../../arm-none-eabi/lib/thumb/v7e-m/fpv4-sp/hard\libc_nano.a(lib_a-mlock.o)
 .bss           0x00000000        0x0 c:/a/gcc_arm/6/bin/../lib/gcc/arm-none-eabi/6.3.1/../../../../arm-none-eabi/lib/thumb/v7e-m/fpv4-sp/hard\libc_nano.a(lib_a-mlock.o)
 .text          0x00000000        0x0 c:/a/gcc_arm/6/bin/../lib/gcc/arm-none-eabi/6.3.1/../../../../arm-none-eabi/lib/thumb/v7e-m/fpv4-sp/hard\libc_nano.a(lib_a-reent.o)
 .data          0x00000000        0x0 c:/a/gcc_arm/6/bin/../lib/gcc/arm-none-eabi/6.3.1/../../../../arm-none-eabi/lib/thumb/v7e-m/fpv4-sp/hard\libc_nano.a(lib_a-reent.o)
 .bss           0x00000000        0x0 c:/a/gcc_arm/6/bin/../lib/gcc/arm-none-eabi/6.3.1/../../../../arm-none-eabi/lib/thumb/v7e-m/fpv4-sp/hard\libc_nano.a(lib_a-reent.o)
 .text.cleanup_glue
                0x00000000       0x1a c:/a/gcc_arm/6/bin/../lib/gcc/arm-none-eabi/6.3.1/../../../../arm-none-eabi/lib/thumb/v7e-m/fpv4-sp/hard\libc_nano.a(lib_a-reent.o)
 .text._reclaim_reent
                0x00000000       0xb8 c:/a/gcc_arm/6/bin/../lib/gcc/arm-none-eabi/6.3.1/../../../../arm-none-eabi/lib/thumb/v7e-m/fpv4-sp/hard\libc_nano.a(lib_a-reent.o)
 .text          0x00000000        0x0 c:/a/gcc_arm/6/bin/../lib/gcc/arm-none-eabi/6.3.1/../../../../arm-none-eabi/lib/thumb/v7e-m/fpv4-sp/hard\libc_nano.a(lib_a-strchr.o)
 .data          0x00000000        0x0 c:/a/gcc_arm/6/bin/../lib/gcc/arm-none-eabi/6.3.1/../../../../arm-none-eabi/lib/thumb/v7e-m/fpv4-sp/hard\libc_nano.a(lib_a-strchr.o)
 .bss           0x00000000        0x0 c:/a/gcc_arm/6/bin/../lib/gcc/arm-none-eabi/6.3.1/../../../../arm-none-eabi/lib/thumb/v7e-m/fpv4-sp/hard\libc_nano.a(lib_a-strchr.o)
 .text          0x00000000        0x0 c:/a/gcc_arm/6/bin/../lib/gcc/arm-none-eabi/6.3.1/thumb/v7e-m/fpv4-sp/hard/crtend.o
 .data          0x00000000        0x0 c:/a/gcc_arm/6/bin/../lib/gcc/arm-none-eabi/6.3.1/thumb/v7e-m/fpv4-sp/hard/crtend.o
 .bss           0x00000000        0x0 c:/a/gcc_arm/6/bin/../lib/gcc/arm-none-eabi/6.3.1/thumb/v7e-m/fpv4-sp/hard/crtend.o
 .text          0x00000000        0x0 c:/a/gcc_arm/6/bin/../lib/gcc/arm-none-eabi/6.3.1/thumb/v7e-m/fpv4-sp/hard/crtn.o
 .data          0x00000000        0x0 c:/a/gcc_arm/6/bin/../lib/gcc/arm-none-eabi/6.3.1/thumb/v7e-m/fpv4-sp/hard/crtn.o
 .bss           0x00000000        0x0 c:/a/gcc_arm/6/bin/../lib/gcc/arm-none-eabi/6.3.1/thumb/v7e-m/fpv4-sp/hard/crtn.o
 .text          0x00000000        0x0 c:/a/gcc_arm/6/bin/../lib/gcc/arm-none-eabi/6.3.1/../../../../arm-none-eabi/lib/thumb/v7e-m/fpv4-sp/hard\libnosys.a(sbrk.o)
 .data          0x00000000        0x0 c:/a/gcc_arm/6/bin/../lib/gcc/arm-none-eabi/6.3.1/../../../../arm-none-eabi/lib/thumb/v7e-m/fpv4-sp/hard\libnosys.a(sbrk.o)
 .bss           0x00000000        0x0 c:/a/gcc_arm/6/bin/../lib/gcc/arm-none-eabi/6.3.1/../../../../arm-none-eabi/lib/thumb/v7e-m/fpv4-sp/hard\libnosys.a(sbrk.o)
 .text          0x00000000        0x0 c:/a/gcc_arm/6/bin/../lib/gcc/arm-none-eabi/6.3.1/../../../../arm-none-eabi/lib/thumb/v7e-m/fpv4-sp/hard\libnosys.a(_exit.o)
 .data          0x00000000        0x0 c:/a/gcc_arm/6/bin/../lib/gcc/arm-none-eabi/6.3.1/../../../../arm-none-eabi/lib/thumb/v7e-m/fpv4-sp/hard\libnosys.a(_exit.o)
 .bss           0x00000000        0x0 c:/a/gcc_arm/6/bin/../lib/gcc/arm-none-eabi/6.3.1/../../../../arm-none-eabi/lib/thumb/v7e-m/fpv4-sp/hard\libnosys.a(_exit.o)

Memory Configuration

Name             Origin             Length             Attributes
FLASH            0x00023000         0x0005d000         xr
RAM              0x200031b0         0x0000ce50         xrw
*default*        0x00000000         0xffffffff

Linker script and memory map

LOAD c:/a/gcc_arm/6/bin/../lib/gcc/arm-none-eabi/6.3.1/thumb/v7e-m/fpv4-sp/hard/crti.o
LOAD c:/a/gcc_arm/6/bin/../lib/gcc/arm-none-eabi/6.3.1/thumb/v7e-m/fpv4-sp/hard/crtbegin.o
LOAD c:/a/gcc_arm/6/bin/../lib/gcc/arm-none-eabi/6.3.1/../../../../arm-none-eabi/lib/thumb/v7e-m/fpv4-sp/hard/crt0.o
LOAD examples/pb_remote/server/CMakeFiles/pb_remote_server_nrf52832_xxAA_s132_5.0.0.dir/src/main.c.obj
LOAD examples/pb_remote/server/CMakeFiles/pb_remote_server_nrf52832_xxAA_s132_5.0.0.dir/__/__/nrf_mesh_sdk.c.obj
LOAD examples/pb_remote/server/CMakeFiles/pb_remote_server_nrf52832_xxAA_s132_5.0.0.dir/__/__/nrf_mesh_weak.c.obj
LOAD examples/pb_remote/server/CMakeFiles/pb_remote_server_nrf52832_xxAA_s132_5.0.0.dir/__/__/__/mesh/prov/src/prov_provisionee.c.obj
LOAD examples/pb_remote/server/CMakeFiles/pb_remote_server_nrf52832_xxAA_s132_5.0.0.dir/__/__/__/mesh/prov/src/nrf_mesh_prov.c.obj
LOAD examples/pb_remote/server/CMakeFiles/pb_remote_server_nrf52832_xxAA_s132_5.0.0.dir/__/__/__/mesh/prov/src/provisioning.c.obj
LOAD examples/pb_remote/server/CMakeFiles/pb_remote_server_nrf52832_xxAA_s132_5.0.0.dir/__/__/__/mesh/prov/src/prov_beacon.c.obj
LOAD examples/pb_remote/server/CMakeFiles/pb_remote_server_nrf52832_xxAA_s132_5.0.0.dir/__/__/__/mesh/prov/src/prov_utils.c.obj
LOAD examples/pb_remote/server/CMakeFiles/pb_remote_server_nrf52832_xxAA_s132_5.0.0.dir/__/__/__/mesh/prov/src/prov_bearer_adv.c.obj
LOAD examples/pb_remote/server/CMakeFiles/pb_remote_server_nrf52832_xxAA_s132_5.0.0.dir/__/__/__/models/pb_remote/src/pb_remote_server.c.obj
LOAD examples/pb_remote/server/CMakeFiles/pb_remote_server_nrf52832_xxAA_s132_5.0.0.dir/__/__/__/mesh/access/src/access_publish.c.obj
LOAD examples/pb_remote/server/CMakeFiles/pb_remote_server_nrf52832_xxAA_s132_5.0.0.dir/__/__/__/mesh/access/src/access.c.obj
LOAD examples/pb_remote/server/CMakeFiles/pb_remote_server_nrf52832_xxAA_s132_5.0.0.dir/__/__/__/mesh/access/src/access_reliable.c.obj
LOAD examples/pb_remote/server/CMakeFiles/pb_remote_server_nrf52832_xxAA_s132_5.0.0.dir/__/__/__/mesh/access/src/device_state_manager.c.obj
LOAD examples/pb_remote/server/CMakeFiles/pb_remote_server_nrf52832_xxAA_s132_5.0.0.dir/__/__/__/external/nRF5_SDK_14.0.0_3bcc1f7/components/toolchain/system_nrf52.c.obj
LOAD examples/pb_remote/server/CMakeFiles/pb_remote_server_nrf52832_xxAA_s132_5.0.0.dir/__/__/__/external/nRF5_SDK_14.0.0_3bcc1f7/components/toolchain/gcc/gcc_startup_nrf52.S.obj
LOAD mesh/core/libmesh_core_nrf52832_xxAA.a
LOAD external/rtt/librtt_nrf52832_xxAA.a
LOAD external/micro-ecc/libuECC_nrf52832_xxAA.a
START GROUP
LOAD c:/a/gcc_arm/6/bin/../lib/gcc/arm-none-eabi/6.3.1/thumb/v7e-m/fpv4-sp/hard\libgcc.a
LOAD c:/a/gcc_arm/6/bin/../lib/gcc/arm-none-eabi/6.3.1/../../../../arm-none-eabi/lib/thumb/v7e-m/fpv4-sp/hard\libc_nano.a
END GROUP
START GROUP
LOAD c:/a/gcc_arm/6/bin/../lib/gcc/arm-none-eabi/6.3.1/thumb/v7e-m/fpv4-sp/hard\libgcc.a
LOAD c:/a/gcc_arm/6/bin/../lib/gcc/arm-none-eabi/6.3.1/../../../../arm-none-eabi/lib/thumb/v7e-m/fpv4-sp/hard\libc_nano.a
END GROUP
LOAD c:/a/gcc_arm/6/bin/../lib/gcc/arm-none-eabi/6.3.1/thumb/v7e-m/fpv4-sp/hard/crtend.o
LOAD c:/a/gcc_arm/6/bin/../lib/gcc/arm-none-eabi/6.3.1/thumb/v7e-m/fpv4-sp/hard/crtn.o
START GROUP
LOAD c:/a/gcc_arm/6/bin/../lib/gcc/arm-none-eabi/6.3.1/thumb/v7e-m/fpv4-sp/hard\libgcc.a
LOAD c:/a/gcc_arm/6/bin/../lib/gcc/arm-none-eabi/6.3.1/../../../../arm-none-eabi/lib/thumb/v7e-m/fpv4-sp/hard\libc.a
LOAD c:/a/gcc_arm/6/bin/../lib/gcc/arm-none-eabi/6.3.1/../../../../arm-none-eabi/lib/thumb/v7e-m/fpv4-sp/hard\libnosys.a
END GROUP

.text           0x00023000    0x10450
 *(.isr_vector)
 .isr_vector    0x00023000      0x200 examples/pb_remote/server/CMakeFiles/pb_remote_server_nrf52832_xxAA_s132_5.0.0.dir/__/__/__/external/nRF5_SDK_14.0.0_3bcc1f7/components/toolchain/gcc/gcc_startup_nrf52.S.obj
                0x00023000                __isr_vector
 *(.text*)
 .text          0x00023200       0x6c c:/a/gcc_arm/6/bin/../lib/gcc/arm-none-eabi/6.3.1/thumb/v7e-m/fpv4-sp/hard/crtbegin.o
 .text          0x0002326c       0x74 c:/a/gcc_arm/6/bin/../lib/gcc/arm-none-eabi/6.3.1/../../../../arm-none-eabi/lib/thumb/v7e-m/fpv4-sp/hard/crt0.o
                0x0002326c                _start
                0x0002326c                _mainCRTStartup
 .text.mesh_evt_handler
                0x000232e0      0x4f4 examples/pb_remote/server/CMakeFiles/pb_remote_server_nrf52832_xxAA_s132_5.0.0.dir/src/main.c.obj
 .text.startup.main
                0x000237d4      0x1bc examples/pb_remote/server/CMakeFiles/pb_remote_server_nrf52832_xxAA_s132_5.0.0.dir/src/main.c.obj
                0x000237d4                main
 .text.sd_evt_get
                0x00023990        0x4 examples/pb_remote/server/CMakeFiles/pb_remote_server_nrf52832_xxAA_s132_5.0.0.dir/__/__/nrf_mesh_sdk.c.obj
 .text.sd_softdevice_enable
                0x00023994        0x4 examples/pb_remote/server/CMakeFiles/pb_remote_server_nrf52832_xxAA_s132_5.0.0.dir/__/__/nrf_mesh_sdk.c.obj
 .text.sd_ble_enable
                0x00023998        0x4 examples/pb_remote/server/CMakeFiles/pb_remote_server_nrf52832_xxAA_s132_5.0.0.dir/__/__/nrf_mesh_sdk.c.obj
 .text.sd_ble_evt_get
                0x0002399c        0x4 examples/pb_remote/server/CMakeFiles/pb_remote_server_nrf52832_xxAA_s132_5.0.0.dir/__/__/nrf_mesh_sdk.c.obj
 .text.sleep_forever
                0x000239a0       0x1c examples/pb_remote/server/CMakeFiles/pb_remote_server_nrf52832_xxAA_s132_5.0.0.dir/__/__/nrf_mesh_sdk.c.obj
 .text.mesh_assert_handler
                0x000239bc       0x64 examples/pb_remote/server/CMakeFiles/pb_remote_server_nrf52832_xxAA_s132_5.0.0.dir/__/__/nrf_mesh_sdk.c.obj
                0x000239bc                mesh_assert_handler
 .text.softdevice_assert_handler
                0x00023a20       0x74 examples/pb_remote/server/CMakeFiles/pb_remote_server_nrf52832_xxAA_s132_5.0.0.dir/__/__/nrf_mesh_sdk.c.obj
                0x00023a20                softdevice_assert_handler
 .text.app_error_handler
                0x00023a94       0x74 examples/pb_remote/server/CMakeFiles/pb_remote_server_nrf52832_xxAA_s132_5.0.0.dir/__/__/nrf_mesh_sdk.c.obj
                0x00023a94                app_error_handler
 .text.HardFault_Handler
                0x00023b08       0x60 examples/pb_remote/server/CMakeFiles/pb_remote_server_nrf52832_xxAA_s132_5.0.0.dir/__/__/nrf_mesh_sdk.c.obj
                0x00023b08                HardFault_Handler
 .text.SWI2_EGU2_IRQHandler
                0x00023b68       0x3c examples/pb_remote/server/CMakeFiles/pb_remote_server_nrf52832_xxAA_s132_5.0.0.dir/__/__/nrf_mesh_sdk.c.obj
                0x00023b68                SWI2_EGU2_IRQHandler
 .text.mesh_softdevice_enable
                0x00023ba4      0x124 examples/pb_remote/server/CMakeFiles/pb_remote_server_nrf52832_xxAA_s132_5.0.0.dir/__/__/nrf_mesh_sdk.c.obj
                0x00023ba4                mesh_softdevice_enable
 .text.mesh_softdevice_setup
                0x00023cc8       0x78 examples/pb_remote/server/CMakeFiles/pb_remote_server_nrf52832_xxAA_s132_5.0.0.dir/__/__/nrf_mesh_sdk.c.obj
                0x00023cc8                mesh_softdevice_setup
 .text.mesh_core_setup
                0x00023d40      0x150 examples/pb_remote/server/CMakeFiles/pb_remote_server_nrf52832_xxAA_s132_5.0.0.dir/__/__/nrf_mesh_sdk.c.obj
                0x00023d40                mesh_core_setup
 .text._weak_handler
                0x00023e90        0x4 examples/pb_remote/server/CMakeFiles/pb_remote_server_nrf52832_xxAA_s132_5.0.0.dir/__/__/nrf_mesh_weak.c.obj
                0x00023e90                nrf_mesh_dfu_init
                0x00023e90                nrf_mesh_dfu_jump_to_bootloader
                0x00023e90                nrf_mesh_dfu_rx
                0x00023e90                prov_provisioner_provision
                0x00023e90                nrf_mesh_dfu_bank_info_get
                0x00023e90                prov_provisioner_oob_pubkey
                0x00023e90                nrf_mesh_dfu_request
                0x00023e90                nrf_mesh_dfu_bank_flash
                0x00023e90                _weak_handler
                0x00023e90                nrf_mesh_dfu_relay
                0x00023e90                nrf_mesh_dfu_abort
                0x00023e90                mesh_flash_op_execute
                0x00023e90                nrf_mesh_dfu_state_get
                0x00023e90                prov_provisioner_shared_secret
                0x00023e90                prov_provisioner_auth_data
                0x00023e90                prov_provisioner_oob_use
 .text.complete_provisioning
                0x00023e94       0x52 examples/pb_remote/server/CMakeFiles/pb_remote_server_nrf52832_xxAA_s132_5.0.0.dir/__/__/__/mesh/prov/src/prov_provisionee.c.obj
 .text.prov_provisionee_cb_link_closed
                0x00023ee6       0x32 examples/pb_remote/server/CMakeFiles/pb_remote_server_nrf52832_xxAA_s132_5.0.0.dir/__/__/__/mesh/prov/src/prov_provisionee.c.obj
 .text.prov_provisionee_cb_link_established
                0x00023f18       0x20 examples/pb_remote/server/CMakeFiles/pb_remote_server_nrf52832_xxAA_s132_5.0.0.dir/__/__/__/mesh/prov/src/prov_provisionee.c.obj
 .text.send_failed
                0x00023f38       0x36 examples/pb_remote/server/CMakeFiles/pb_remote_server_nrf52832_xxAA_s132_5.0.0.dir/__/__/__/mesh/prov/src/prov_provisionee.c.obj
 .text.request_authentication
                0x00023f6e       0x8c examples/pb_remote/server/CMakeFiles/pb_remote_server_nrf52832_xxAA_s132_5.0.0.dir/__/__/__/mesh/prov/src/prov_provisionee.c.obj
 .text.start_authentication
                0x00023ffa       0x54 examples/pb_remote/server/CMakeFiles/pb_remote_server_nrf52832_xxAA_s132_5.0.0.dir/__/__/__/mesh/prov/src/prov_provisionee.c.obj
 *fill*         0x0002404e        0x2 
 .text.prov_provisionee_pkt_in
                0x00024050      0x2a4 examples/pb_remote/server/CMakeFiles/pb_remote_server_nrf52832_xxAA_s132_5.0.0.dir/__/__/__/mesh/prov/src/prov_provisionee.c.obj
 .text.prov_provisionee_cb_ack_received
                0x000242f4       0xb4 examples/pb_remote/server/CMakeFiles/pb_remote_server_nrf52832_xxAA_s132_5.0.0.dir/__/__/__/mesh/prov/src/prov_provisionee.c.obj
 .text.prov_provisionee_init
                0x000243a8       0x40 examples/pb_remote/server/CMakeFiles/pb_remote_server_nrf52832_xxAA_s132_5.0.0.dir/__/__/__/mesh/prov/src/prov_provisionee.c.obj
                0x000243a8                prov_provisionee_init
 .text.prov_provisionee_auth_data
                0x000243e8       0x7a examples/pb_remote/server/CMakeFiles/pb_remote_server_nrf52832_xxAA_s132_5.0.0.dir/__/__/__/mesh/prov/src/prov_provisionee.c.obj
                0x000243e8                prov_provisionee_auth_data
 .text.nrf_mesh_prov_init
                0x00024462       0x24 examples/pb_remote/server/CMakeFiles/pb_remote_server_nrf52832_xxAA_s132_5.0.0.dir/__/__/__/mesh/prov/src/nrf_mesh_prov.c.obj
                0x00024462                nrf_mesh_prov_init
 .text.nrf_mesh_prov_generate_keys
                0x00024486        0x4 examples/pb_remote/server/CMakeFiles/pb_remote_server_nrf52832_xxAA_s132_5.0.0.dir/__/__/__/mesh/prov/src/nrf_mesh_prov.c.obj
                0x00024486                nrf_mesh_prov_generate_keys
 .text.nrf_mesh_prov_listen
                0x0002448a       0x24 examples/pb_remote/server/CMakeFiles/pb_remote_server_nrf52832_xxAA_s132_5.0.0.dir/__/__/__/mesh/prov/src/nrf_mesh_prov.c.obj
                0x0002448a                nrf_mesh_prov_listen
 .text.nrf_mesh_prov_auth_data_provide
                0x000244ae        0xe examples/pb_remote/server/CMakeFiles/pb_remote_server_nrf52832_xxAA_s132_5.0.0.dir/__/__/__/mesh/prov/src/nrf_mesh_prov.c.obj
                0x000244ae                nrf_mesh_prov_auth_data_provide
 .text.send_data
                0x000244bc       0x40 examples/pb_remote/server/CMakeFiles/pb_remote_server_nrf52832_xxAA_s132_5.0.0.dir/__/__/__/mesh/prov/src/provisioning.c.obj
 .text.prov_packet_length_valid
                0x000244fc       0x1c examples/pb_remote/server/CMakeFiles/pb_remote_server_nrf52832_xxAA_s132_5.0.0.dir/__/__/__/mesh/prov/src/provisioning.c.obj
                0x000244fc                prov_packet_length_valid
 .text.prov_init
                0x00024518       0x2c examples/pb_remote/server/CMakeFiles/pb_remote_server_nrf52832_xxAA_s132_5.0.0.dir/__/__/__/mesh/prov/src/provisioning.c.obj
                0x00024518                prov_init
 .text.prov_listen_start
                0x00024544       0x14 examples/pb_remote/server/CMakeFiles/pb_remote_server_nrf52832_xxAA_s132_5.0.0.dir/__/__/__/mesh/prov/src/provisioning.c.obj
                0x00024544                prov_listen_start
 .text.prov_link_open
                0x00024558       0x14 examples/pb_remote/server/CMakeFiles/pb_remote_server_nrf52832_xxAA_s132_5.0.0.dir/__/__/__/mesh/prov/src/provisioning.c.obj
                0x00024558                prov_link_open
 .text.prov_link_close
                0x0002456c        0x8 examples/pb_remote/server/CMakeFiles/pb_remote_server_nrf52832_xxAA_s132_5.0.0.dir/__/__/__/mesh/prov/src/provisioning.c.obj
                0x0002456c                prov_link_close
 .text.prov_tx_capabilities
                0x00024574       0x1e examples/pb_remote/server/CMakeFiles/pb_remote_server_nrf52832_xxAA_s132_5.0.0.dir/__/__/__/mesh/prov/src/provisioning.c.obj
                0x00024574                prov_tx_capabilities
 .text.prov_tx_public_key
                0x00024592       0x26 examples/pb_remote/server/CMakeFiles/pb_remote_server_nrf52832_xxAA_s132_5.0.0.dir/__/__/__/mesh/prov/src/provisioning.c.obj
                0x00024592                prov_tx_public_key
 .text.prov_tx_input_complete
                0x000245b8       0x16 examples/pb_remote/server/CMakeFiles/pb_remote_server_nrf52832_xxAA_s132_5.0.0.dir/__/__/__/mesh/prov/src/provisioning.c.obj
                0x000245b8                prov_tx_input_complete
 .text.prov_tx_confirmation
                0x000245ce       0x26 examples/pb_remote/server/CMakeFiles/pb_remote_server_nrf52832_xxAA_s132_5.0.0.dir/__/__/__/mesh/prov/src/provisioning.c.obj
                0x000245ce                prov_tx_confirmation
 .text.prov_tx_random
                0x000245f4       0x26 examples/pb_remote/server/CMakeFiles/pb_remote_server_nrf52832_xxAA_s132_5.0.0.dir/__/__/__/mesh/prov/src/provisioning.c.obj
                0x000245f4                prov_tx_random
 .text.prov_tx_complete
                0x0002461a       0x16 examples/pb_remote/server/CMakeFiles/pb_remote_server_nrf52832_xxAA_s132_5.0.0.dir/__/__/__/mesh/prov/src/provisioning.c.obj
                0x0002461a                prov_tx_complete
 .text.prov_tx_failed
                0x00024630       0x1a examples/pb_remote/server/CMakeFiles/pb_remote_server_nrf52832_xxAA_s132_5.0.0.dir/__/__/__/mesh/prov/src/provisioning.c.obj
                0x00024630                prov_tx_failed
 .text.prov_tx  0x0002464a        0x4 examples/pb_remote/server/CMakeFiles/pb_remote_server_nrf52832_xxAA_s132_5.0.0.dir/__/__/__/mesh/prov/src/provisioning.c.obj
                0x0002464a                prov_tx
 .text.prov_cb_link_opened
                0x0002464e        0x8 examples/pb_remote/server/CMakeFiles/pb_remote_server_nrf52832_xxAA_s132_5.0.0.dir/__/__/__/mesh/prov/src/provisioning.c.obj
                0x0002464e                prov_cb_link_opened
 .text.prov_cb_link_closed
                0x00024656        0x8 examples/pb_remote/server/CMakeFiles/pb_remote_server_nrf52832_xxAA_s132_5.0.0.dir/__/__/__/mesh/prov/src/provisioning.c.obj
                0x00024656                prov_cb_link_closed
 *fill*         0x0002465e        0x2 
 .text.prov_cb_pkt_in
                0x00024660       0x7c examples/pb_remote/server/CMakeFiles/pb_remote_server_nrf52832_xxAA_s132_5.0.0.dir/__/__/__/mesh/prov/src/provisioning.c.obj
                0x00024660                prov_cb_pkt_in
 .text.prov_cb_ack_in
                0x000246dc        0x8 examples/pb_remote/server/CMakeFiles/pb_remote_server_nrf52832_xxAA_s132_5.0.0.dir/__/__/__/mesh/prov/src/provisioning.c.obj
                0x000246dc                prov_cb_ack_in
 .text.prov_beacon_unprov_build
                0x000246e4       0x54 examples/pb_remote/server/CMakeFiles/pb_remote_server_nrf52832_xxAA_s132_5.0.0.dir/__/__/__/mesh/prov/src/prov_beacon.c.obj
                0x000246e4                prov_beacon_unprov_build
 .text.prov_beacon_unprov_packet_in
                0x00024738       0xb0 examples/pb_remote/server/CMakeFiles/pb_remote_server_nrf52832_xxAA_s132_5.0.0.dir/__/__/__/mesh/prov/src/prov_beacon.c.obj
                0x00024738                prov_beacon_unprov_packet_in
 .text.oob_gen_alphanumeric
                0x000247e8       0x34 examples/pb_remote/server/CMakeFiles/pb_remote_server_nrf52832_xxAA_s132_5.0.0.dir/__/__/__/mesh/prov/src/prov_utils.c.obj
 .text.oob_gen_numeric
                0x0002481c       0x3c examples/pb_remote/server/CMakeFiles/pb_remote_server_nrf52832_xxAA_s132_5.0.0.dir/__/__/__/mesh/prov/src/prov_utils.c.obj
 .text.prov_utils_use_ecdh_offloading
                0x00024858        0xc examples/pb_remote/server/CMakeFiles/pb_remote_server_nrf52832_xxAA_s132_5.0.0.dir/__/__/__/mesh/prov/src/prov_utils.c.obj
                0x00024858                prov_utils_use_ecdh_offloading
 .text.prov_utils_authentication_values_derive
                0x00024864       0xa4 examples/pb_remote/server/CMakeFiles/pb_remote_server_nrf52832_xxAA_s132_5.0.0.dir/__/__/__/mesh/prov/src/prov_utils.c.obj
                0x00024864                prov_utils_authentication_values_derive
 .text.prov_utils_keys_generate
                0x00024908       0x1e examples/pb_remote/server/CMakeFiles/pb_remote_server_nrf52832_xxAA_s132_5.0.0.dir/__/__/__/mesh/prov/src/prov_utils.c.obj
                0x00024908                prov_utils_keys_generate
 *fill*         0x00024926        0x2 
 .text.prov_utils_derive_keys
                0x00024928       0xb0 examples/pb_remote/server/CMakeFiles/pb_remote_server_nrf52832_xxAA_s132_5.0.0.dir/__/__/__/mesh/prov/src/prov_utils.c.obj
                0x00024928                prov_utils_derive_keys
 .text.prov_utils_calculate_shared_secret
                0x000249d8       0x38 examples/pb_remote/server/CMakeFiles/pb_remote_server_nrf52832_xxAA_s132_5.0.0.dir/__/__/__/mesh/prov/src/prov_utils.c.obj
                0x000249d8                prov_utils_calculate_shared_secret
 .text.prov_utils_generate_oob_data
                0x00024a10       0x9c examples/pb_remote/server/CMakeFiles/pb_remote_server_nrf52832_xxAA_s132_5.0.0.dir/__/__/__/mesh/prov/src/prov_utils.c.obj
                0x00024a10                prov_utils_generate_oob_data
 .text.prov_utils_confirmation_check
                0x00024aac       0x5c examples/pb_remote/server/CMakeFiles/pb_remote_server_nrf52832_xxAA_s132_5.0.0.dir/__/__/__/mesh/prov/src/prov_utils.c.obj
                0x00024aac                prov_utils_confirmation_check
 .text.remove_active_bearer
                0x00024b08       0x60 examples/pb_remote/server/CMakeFiles/pb_remote_server_nrf52832_xxAA_s132_5.0.0.dir/__/__/__/mesh/prov/src/prov_bearer_adv.c.obj
 .text.prov_bearer_adv_listen_stop
                0x00024b68       0x38 examples/pb_remote/server/CMakeFiles/pb_remote_server_nrf52832_xxAA_s132_5.0.0.dir/__/__/__/mesh/prov/src/prov_bearer_adv.c.obj
 .text.close_link
                0x00024ba0       0x68 examples/pb_remote/server/CMakeFiles/pb_remote_server_nrf52832_xxAA_s132_5.0.0.dir/__/__/__/mesh/prov/src/prov_bearer_adv.c.obj
 .text.send_packet
                0x00024c08       0x6c examples/pb_remote/server/CMakeFiles/pb_remote_server_nrf52832_xxAA_s132_5.0.0.dir/__/__/__/mesh/prov/src/prov_bearer_adv.c.obj
 .text.prov_buffer_tx
                0x00024c74      0x158 examples/pb_remote/server/CMakeFiles/pb_remote_server_nrf52832_xxAA_s132_5.0.0.dir/__/__/__/mesh/prov/src/prov_bearer_adv.c.obj
 .text.send_link_close
                0x00024dcc       0x38 examples/pb_remote/server/CMakeFiles/pb_remote_server_nrf52832_xxAA_s132_5.0.0.dir/__/__/__/mesh/prov/src/prov_bearer_adv.c.obj
 .text.prov_bearer_adv_link_close
                0x00024e04       0x70 examples/pb_remote/server/CMakeFiles/pb_remote_server_nrf52832_xxAA_s132_5.0.0.dir/__/__/__/mesh/prov/src/prov_bearer_adv.c.obj
 .text.send_transaction_ack
                0x00024e74       0x24 examples/pb_remote/server/CMakeFiles/pb_remote_server_nrf52832_xxAA_s132_5.0.0.dir/__/__/__/mesh/prov/src/prov_bearer_adv.c.obj
 .text.send_link_ack
                0x00024e98       0x32 examples/pb_remote/server/CMakeFiles/pb_remote_server_nrf52832_xxAA_s132_5.0.0.dir/__/__/__/mesh/prov/src/prov_bearer_adv.c.obj
 .text.link_timeout_cb
                0x00024eca        0x8 examples/pb_remote/server/CMakeFiles/pb_remote_server_nrf52832_xxAA_s132_5.0.0.dir/__/__/__/mesh/prov/src/prov_bearer_adv.c.obj
 .text.reset_timeout_timer
                0x00024ed2       0x1a examples/pb_remote/server/CMakeFiles/pb_remote_server_nrf52832_xxAA_s132_5.0.0.dir/__/__/__/mesh/prov/src/prov_bearer_adv.c.obj
 .text.tx_complete_cb
                0x00024eec       0x1c examples/pb_remote/server/CMakeFiles/pb_remote_server_nrf52832_xxAA_s132_5.0.0.dir/__/__/__/mesh/prov/src/prov_bearer_adv.c.obj
 .text.tx_retry_cb
                0x00024f08       0xcc examples/pb_remote/server/CMakeFiles/pb_remote_server_nrf52832_xxAA_s132_5.0.0.dir/__/__/__/mesh/prov/src/prov_bearer_adv.c.obj
 .text.add_active_bearer
                0x00024fd4       0x80 examples/pb_remote/server/CMakeFiles/pb_remote_server_nrf52832_xxAA_s132_5.0.0.dir/__/__/__/mesh/prov/src/prov_bearer_adv.c.obj
 .text.prov_bearer_adv_link_open
                0x00025054       0xf0 examples/pb_remote/server/CMakeFiles/pb_remote_server_nrf52832_xxAA_s132_5.0.0.dir/__/__/__/mesh/prov/src/prov_bearer_adv.c.obj
 .text.async_process
                0x00025144       0x50 examples/pb_remote/server/CMakeFiles/pb_remote_server_nrf52832_xxAA_s132_5.0.0.dir/__/__/__/mesh/prov/src/prov_bearer_adv.c.obj
 .text.prov_bearer_adv_listen
                0x00025194       0xe8 examples/pb_remote/server/CMakeFiles/pb_remote_server_nrf52832_xxAA_s132_5.0.0.dir/__/__/__/mesh/prov/src/prov_bearer_adv.c.obj
 .text.calculate_3GPP_CRC
                0x0002527c       0x24 examples/pb_remote/server/CMakeFiles/pb_remote_server_nrf52832_xxAA_s132_5.0.0.dir/__/__/__/mesh/prov/src/prov_bearer_adv.c.obj
                0x0002527c                calculate_3GPP_CRC
 .text.prov_bearer_adv_tx
                0x000252a0       0xac examples/pb_remote/server/CMakeFiles/pb_remote_server_nrf52832_xxAA_s132_5.0.0.dir/__/__/__/mesh/prov/src/prov_bearer_adv.c.obj
 .text.prov_buffer_rx
                0x0002534c       0x74 examples/pb_remote/server/CMakeFiles/pb_remote_server_nrf52832_xxAA_s132_5.0.0.dir/__/__/__/mesh/prov/src/prov_bearer_adv.c.obj
 .text.prov_bearer_adv_interface_get
                0x000253c0       0x24 examples/pb_remote/server/CMakeFiles/pb_remote_server_nrf52832_xxAA_s132_5.0.0.dir/__/__/__/mesh/prov/src/prov_bearer_adv.c.obj
                0x000253c0                prov_bearer_adv_interface_get
 .text.prov_bearer_adv_packet_in
                0x000253e4      0x80c examples/pb_remote/server/CMakeFiles/pb_remote_server_nrf52832_xxAA_s132_5.0.0.dir/__/__/__/mesh/prov/src/prov_bearer_adv.c.obj
                0x000253e4                prov_bearer_adv_packet_in
 .text.pb_remote_server_event_transfer_status_cb
                0x00025bf0       0xfc examples/pb_remote/server/CMakeFiles/pb_remote_server_nrf52832_xxAA_s132_5.0.0.dir/__/__/__/models/pb_remote/src/pb_remote_server.c.obj
 .text.pb_remote_server_event_link_status_cb
                0x00025cec      0x1d8 examples/pb_remote/server/CMakeFiles/pb_remote_server_nrf52832_xxAA_s132_5.0.0.dir/__/__/__/models/pb_remote/src/pb_remote_server.c.obj
 .text.pb_remote_server_event_scan_report_status_cb
                0x00025ec4       0x8c examples/pb_remote/server/CMakeFiles/pb_remote_server_nrf52832_xxAA_s132_5.0.0.dir/__/__/__/models/pb_remote/src/pb_remote_server.c.obj
 .text.do_state_change
                0x00025f50       0x78 examples/pb_remote/server/CMakeFiles/pb_remote_server_nrf52832_xxAA_s132_5.0.0.dir/__/__/__/models/pb_remote/src/pb_remote_server.c.obj
 .text.pb_remote_server_process
                0x00025fc8      0x204 examples/pb_remote/server/CMakeFiles/pb_remote_server_nrf52832_xxAA_s132_5.0.0.dir/__/__/__/models/pb_remote/src/pb_remote_server.c.obj
 .text.server_reliable_status_cb
                0x000261cc      0x124 examples/pb_remote/server/CMakeFiles/pb_remote_server_nrf52832_xxAA_s132_5.0.0.dir/__/__/__/models/pb_remote/src/pb_remote_server.c.obj
 .text.pb_adv_link_closed_cb
                0x000262f0       0x54 examples/pb_remote/server/CMakeFiles/pb_remote_server_nrf52832_xxAA_s132_5.0.0.dir/__/__/__/models/pb_remote/src/pb_remote_server.c.obj
 .text.pb_adv_link_opened_cb
                0x00026344       0x4c examples/pb_remote/server/CMakeFiles/pb_remote_server_nrf52832_xxAA_s132_5.0.0.dir/__/__/__/models/pb_remote/src/pb_remote_server.c.obj
 .text.pb_adv_ack_cb
                0x00026390       0x4c examples/pb_remote/server/CMakeFiles/pb_remote_server_nrf52832_xxAA_s132_5.0.0.dir/__/__/__/models/pb_remote/src/pb_remote_server.c.obj
 .text.pb_remote_server_event_tx_failed_cb
                0x000263dc       0x38 examples/pb_remote/server/CMakeFiles/pb_remote_server_nrf52832_xxAA_s132_5.0.0.dir/__/__/__/models/pb_remote/src/pb_remote_server.c.obj
 .text.pb_adv_rx_cb
                0x00026414       0x60 examples/pb_remote/server/CMakeFiles/pb_remote_server_nrf52832_xxAA_s132_5.0.0.dir/__/__/__/models/pb_remote/src/pb_remote_server.c.obj
 .text.pb_remote_server_mesh_evt_cb
                0x00026474       0x4c examples/pb_remote/server/CMakeFiles/pb_remote_server_nrf52832_xxAA_s132_5.0.0.dir/__/__/__/models/pb_remote/src/pb_remote_server.c.obj
 .text.send_reply.part.12
                0x000264c0       0x14 examples/pb_remote/server/CMakeFiles/pb_remote_server_nrf52832_xxAA_s132_5.0.0.dir/__/__/__/models/pb_remote/src/pb_remote_server.c.obj
 .text.send_reliable_msg
                0x000264d4       0x38 examples/pb_remote/server/CMakeFiles/pb_remote_server_nrf52832_xxAA_s132_5.0.0.dir/__/__/__/models/pb_remote/src/pb_remote_server.c.obj
 .text.pb_remote_server_event_local_packet_cb
                0x0002650c      0x130 examples/pb_remote/server/CMakeFiles/pb_remote_server_nrf52832_xxAA_s132_5.0.0.dir/__/__/__/models/pb_remote/src/pb_remote_server.c.obj
 .text.pb_remote_server_event_local_ack_cb
                0x0002663c       0x8c examples/pb_remote/server/CMakeFiles/pb_remote_server_nrf52832_xxAA_s132_5.0.0.dir/__/__/__/models/pb_remote/src/pb_remote_server.c.obj
 .text.pb_remote_server_event_link_established_cb
                0x000266c8       0x94 examples/pb_remote/server/CMakeFiles/pb_remote_server_nrf52832_xxAA_s132_5.0.0.dir/__/__/__/models/pb_remote/src/pb_remote_server.c.obj
 .text.pb_remote_server_event_link_closed_cb
                0x0002675c       0xf4 examples/pb_remote/server/CMakeFiles/pb_remote_server_nrf52832_xxAA_s132_5.0.0.dir/__/__/__/models/pb_remote/src/pb_remote_server.c.obj
 .text.send_reply
                0x00026850       0x18 examples/pb_remote/server/CMakeFiles/pb_remote_server_nrf52832_xxAA_s132_5.0.0.dir/__/__/__/models/pb_remote/src/pb_remote_server.c.obj
 .text.pb_remote_server_event_link_close_cb
                0x00026868      0x104 examples/pb_remote/server/CMakeFiles/pb_remote_server_nrf52832_xxAA_s132_5.0.0.dir/__/__/__/models/pb_remote/src/pb_remote_server.c.obj
 .text.pb_remote_server_event_link_open_cb
                0x0002696c      0x1a8 examples/pb_remote/server/CMakeFiles/pb_remote_server_nrf52832_xxAA_s132_5.0.0.dir/__/__/__/models/pb_remote/src/pb_remote_server.c.obj
 .text.pb_remote_server_event_scan_start_filter_cb
                0x00026b14      0x120 examples/pb_remote/server/CMakeFiles/pb_remote_server_nrf52832_xxAA_s132_5.0.0.dir/__/__/__/models/pb_remote/src/pb_remote_server.c.obj
 .text.pb_remote_server_event_packet_transfer_cb
                0x00026c34      0x100 examples/pb_remote/server/CMakeFiles/pb_remote_server_nrf52832_xxAA_s132_5.0.0.dir/__/__/__/models/pb_remote/src/pb_remote_server.c.obj
 .text.pb_remote_server_event_scan_cancel_cb
                0x00026d34       0x60 examples/pb_remote/server/CMakeFiles/pb_remote_server_nrf52832_xxAA_s132_5.0.0.dir/__/__/__/models/pb_remote/src/pb_remote_server.c.obj
 .text.pb_remote_server_event_scan_start_cb
                0x00026d94       0x7c examples/pb_remote/server/CMakeFiles/pb_remote_server_nrf52832_xxAA_s132_5.0.0.dir/__/__/__/models/pb_remote/src/pb_remote_server.c.obj
 .text.remote_server_access_rx_cb
                0x00026e10      0x180 examples/pb_remote/server/CMakeFiles/pb_remote_server_nrf52832_xxAA_s132_5.0.0.dir/__/__/__/models/pb_remote/src/pb_remote_server.c.obj
 .text.pb_remote_server_event_unprov_uuid_cb
                0x00026f90      0x160 examples/pb_remote/server/CMakeFiles/pb_remote_server_nrf52832_xxAA_s132_5.0.0.dir/__/__/__/models/pb_remote/src/pb_remote_server.c.obj
 .text.pb_remote_server_init
                0x000270f0       0xc8 examples/pb_remote/server/CMakeFiles/pb_remote_server_nrf52832_xxAA_s132_5.0.0.dir/__/__/__/models/pb_remote/src/pb_remote_server.c.obj
                0x000270f0                pb_remote_server_init
 .text.pb_remote_server_enable
                0x000271b8       0x3c examples/pb_remote/server/CMakeFiles/pb_remote_server_nrf52832_xxAA_s132_5.0.0.dir/__/__/__/models/pb_remote/src/pb_remote_server.c.obj
                0x000271b8                pb_remote_server_enable
 .text.add_to_publication_list
                0x000271f4       0x84 examples/pb_remote/server/CMakeFiles/pb_remote_server_nrf52832_xxAA_s132_5.0.0.dir/__/__/__/mesh/access/src/access_publish.c.obj
 .text.step_resolution_to_us
                0x00027278       0x44 examples/pb_remote/server/CMakeFiles/pb_remote_server_nrf52832_xxAA_s132_5.0.0.dir/__/__/__/mesh/access/src/access_publish.c.obj
 .text.schedule_publication_timer
                0x000272bc      0x184 examples/pb_remote/server/CMakeFiles/pb_remote_server_nrf52832_xxAA_s132_5.0.0.dir/__/__/__/mesh/access/src/access_publish.c.obj
 .text.publish_timer_tick
                0x00027440       0xbc examples/pb_remote/server/CMakeFiles/pb_remote_server_nrf52832_xxAA_s132_5.0.0.dir/__/__/__/mesh/access/src/access_publish.c.obj
 .text.access_publish_init
                0x000274fc       0x38 examples/pb_remote/server/CMakeFiles/pb_remote_server_nrf52832_xxAA_s132_5.0.0.dir/__/__/__/mesh/access/src/access_publish.c.obj
                0x000274fc                access_publish_init
 .text.bitfield_get
                0x00027534       0x1a examples/pb_remote/server/CMakeFiles/pb_remote_server_nrf52832_xxAA_s132_5.0.0.dir/__/__/__/mesh/access/src/access.c.obj
 .text.is_valid_opcode
                0x0002754e       0x42 examples/pb_remote/server/CMakeFiles/pb_remote_server_nrf52832_xxAA_s132_5.0.0.dir/__/__/__/mesh/access/src/access.c.obj
 .text.model_handle_valid_and_allocated
                0x00027590       0x20 examples/pb_remote/server/CMakeFiles/pb_remote_server_nrf52832_xxAA_s132_5.0.0.dir/__/__/__/mesh/access/src/access.c.obj
 .text.flash_invalidate_complete
                0x000275b0       0x14 examples/pb_remote/server/CMakeFiles/pb_remote_server_nrf52832_xxAA_s132_5.0.0.dir/__/__/__/mesh/access/src/access.c.obj
 .text.flash_manager_mem_available
                0x000275c4        0x2 examples/pb_remote/server/CMakeFiles/pb_remote_server_nrf52832_xxAA_s132_5.0.0.dir/__/__/__/mesh/access/src/access.c.obj
 *fill*         0x000275c6        0x2 
 .text.access_state_clear
                0x000275c8       0x4c examples/pb_remote/server/CMakeFiles/pb_remote_server_nrf52832_xxAA_s132_5.0.0.dir/__/__/__/mesh/access/src/access.c.obj
 .text.add_flash_manager
                0x00027614       0x58 examples/pb_remote/server/CMakeFiles/pb_remote_server_nrf52832_xxAA_s132_5.0.0.dir/__/__/__/mesh/access/src/access.c.obj
 .text.flash_remove_complete
                0x0002766c       0x5c examples/pb_remote/server/CMakeFiles/pb_remote_server_nrf52832_xxAA_s132_5.0.0.dir/__/__/__/mesh/access/src/access.c.obj
 .text.flash_write_complete
                0x000276c8       0x54 examples/pb_remote/server/CMakeFiles/pb_remote_server_nrf52832_xxAA_s132_5.0.0.dir/__/__/__/mesh/access/src/access.c.obj
 .text.handle_incoming
                0x0002771c      0x158 examples/pb_remote/server/CMakeFiles/pb_remote_server_nrf52832_xxAA_s132_5.0.0.dir/__/__/__/mesh/access/src/access.c.obj
 .text.mesh_evt_cb
                0x00027874      0x134 examples/pb_remote/server/CMakeFiles/pb_remote_server_nrf52832_xxAA_s132_5.0.0.dir/__/__/__/mesh/access/src/access.c.obj
 .text.packet_tx
                0x000279a8      0x2c0 examples/pb_remote/server/CMakeFiles/pb_remote_server_nrf52832_xxAA_s132_5.0.0.dir/__/__/__/mesh/access/src/access.c.obj
 .text.access_init
                0x00027c68       0x28 examples/pb_remote/server/CMakeFiles/pb_remote_server_nrf52832_xxAA_s132_5.0.0.dir/__/__/__/mesh/access/src/access.c.obj
                0x00027c68                access_init
 .text.access_model_add
                0x00027c90      0x1b4 examples/pb_remote/server/CMakeFiles/pb_remote_server_nrf52832_xxAA_s132_5.0.0.dir/__/__/__/mesh/access/src/access.c.obj
                0x00027c90                access_model_add
 .text.access_model_publish
                0x00027e44        0xc examples/pb_remote/server/CMakeFiles/pb_remote_server_nrf52832_xxAA_s132_5.0.0.dir/__/__/__/mesh/access/src/access.c.obj
                0x00027e44                access_model_publish
 .text.access_model_reply
                0x00027e50       0x12 examples/pb_remote/server/CMakeFiles/pb_remote_server_nrf52832_xxAA_s132_5.0.0.dir/__/__/__/mesh/access/src/access.c.obj
                0x00027e50                access_model_reply
 *fill*         0x00027e62        0x2 
 .text.access_model_publish_address_set
                0x00027e64       0x3c examples/pb_remote/server/CMakeFiles/pb_remote_server_nrf52832_xxAA_s132_5.0.0.dir/__/__/__/mesh/access/src/access.c.obj
                0x00027e64                access_model_publish_address_set
 .text.access_model_publish_address_get
                0x00027ea0       0x28 examples/pb_remote/server/CMakeFiles/pb_remote_server_nrf52832_xxAA_s132_5.0.0.dir/__/__/__/mesh/access/src/access.c.obj
                0x00027ea0                access_model_publish_address_get
 .text.access_model_application_bind
                0x00027ec8       0x50 examples/pb_remote/server/CMakeFiles/pb_remote_server_nrf52832_xxAA_s132_5.0.0.dir/__/__/__/mesh/access/src/access.c.obj
                0x00027ec8                access_model_application_bind
 .text.access_model_publish_application_set
                0x00027f18       0x3c examples/pb_remote/server/CMakeFiles/pb_remote_server_nrf52832_xxAA_s132_5.0.0.dir/__/__/__/mesh/access/src/access.c.obj
                0x00027f18                access_model_publish_application_set
 .text.access_model_publish_ttl_set
                0x00027f54       0x40 examples/pb_remote/server/CMakeFiles/pb_remote_server_nrf52832_xxAA_s132_5.0.0.dir/__/__/__/mesh/access/src/access.c.obj
                0x00027f54                access_model_publish_ttl_set
 .text.access_model_publish_ttl_get
                0x00027f94       0x28 examples/pb_remote/server/CMakeFiles/pb_remote_server_nrf52832_xxAA_s132_5.0.0.dir/__/__/__/mesh/access/src/access.c.obj
                0x00027f94                access_model_publish_ttl_get
 .text.access_model_p_args_get
                0x00027fbc       0x28 examples/pb_remote/server/CMakeFiles/pb_remote_server_nrf52832_xxAA_s132_5.0.0.dir/__/__/__/mesh/access/src/access.c.obj
                0x00027fbc                access_model_p_args_get
 .text.remove_and_reschedule
                0x00027fe4       0xd8 examples/pb_remote/server/CMakeFiles/pb_remote_server_nrf52832_xxAA_s132_5.0.0.dir/__/__/__/mesh/access/src/access_reliable.c.obj
 .text.reliable_timer_cb
                0x000280bc      0x148 examples/pb_remote/server/CMakeFiles/pb_remote_server_nrf52832_xxAA_s132_5.0.0.dir/__/__/__/mesh/access/src/access_reliable.c.obj
 .text.access_reliable_message_rx_cb
                0x00028204       0x84 examples/pb_remote/server/CMakeFiles/pb_remote_server_nrf52832_xxAA_s132_5.0.0.dir/__/__/__/mesh/access/src/access_reliable.c.obj
                0x00028204                access_reliable_message_rx_cb
 .text.access_reliable_init
                0x00028288       0x1c examples/pb_remote/server/CMakeFiles/pb_remote_server_nrf52832_xxAA_s132_5.0.0.dir/__/__/__/mesh/access/src/access_reliable.c.obj
                0x00028288                access_reliable_init
 .text.access_model_reliable_cancel
                0x000282a4       0x4c examples/pb_remote/server/CMakeFiles/pb_remote_server_nrf52832_xxAA_s132_5.0.0.dir/__/__/__/mesh/access/src/access_reliable.c.obj
                0x000282a4                access_model_reliable_cancel
 .text.access_model_reliable_publish
                0x000282f0      0x1b8 examples/pb_remote/server/CMakeFiles/pb_remote_server_nrf52832_xxAA_s132_5.0.0.dir/__/__/__/mesh/access/src/access_reliable.c.obj
                0x000282f0                access_model_reliable_publish
 .text.bitfield_get
                0x000284a8       0x1a examples/pb_remote/server/CMakeFiles/pb_remote_server_nrf52832_xxAA_s132_5.0.0.dir/__/__/__/mesh/access/src/device_state_manager.c.obj
 .text.bitfield_set
                0x000284c2       0x18 examples/pb_remote/server/CMakeFiles/pb_remote_server_nrf52832_xxAA_s132_5.0.0.dir/__/__/__/mesh/access/src/device_state_manager.c.obj
 .text.bitfield_clear
                0x000284da       0x1a examples/pb_remote/server/CMakeFiles/pb_remote_server_nrf52832_xxAA_s132_5.0.0.dir/__/__/__/mesh/access/src/device_state_manager.c.obj
 .text.bitfield_is_all_clear
                0x000284f4       0x3c examples/pb_remote/server/CMakeFiles/pb_remote_server_nrf52832_xxAA_s132_5.0.0.dir/__/__/__/mesh/access/src/device_state_manager.c.obj
 .text.address_handle_virtual_valid
                0x00028530       0x14 examples/pb_remote/server/CMakeFiles/pb_remote_server_nrf52832_xxAA_s132_5.0.0.dir/__/__/__/mesh/access/src/device_state_manager.c.obj
 .text.net_key_handle_get
                0x00028544       0x38 examples/pb_remote/server/CMakeFiles/pb_remote_server_nrf52832_xxAA_s132_5.0.0.dir/__/__/__/mesh/access/src/device_state_manager.c.obj
 .text.dev_key_handle_get
                0x0002857c       0x30 examples/pb_remote/server/CMakeFiles/pb_remote_server_nrf52832_xxAA_s132_5.0.0.dir/__/__/__/mesh/access/src/device_state_manager.c.obj
 .text.app_key_handle_get
                0x000285ac       0x38 examples/pb_remote/server/CMakeFiles/pb_remote_server_nrf52832_xxAA_s132_5.0.0.dir/__/__/__/mesh/access/src/device_state_manager.c.obj
 .text.addr_nonvirtual_to_flash_entry
                0x000285e4       0x10 examples/pb_remote/server/CMakeFiles/pb_remote_server_nrf52832_xxAA_s132_5.0.0.dir/__/__/__/mesh/access/src/device_state_manager.c.obj
 .text.flash_mem_listener_callback
                0x000285f4       0x20 examples/pb_remote/server/CMakeFiles/pb_remote_server_nrf52832_xxAA_s132_5.0.0.dir/__/__/__/mesh/access/src/device_state_manager.c.obj
 .text.devkey_set
                0x00028614       0x4c examples/pb_remote/server/CMakeFiles/pb_remote_server_nrf52832_xxAA_s132_5.0.0.dir/__/__/__/mesh/access/src/device_state_manager.c.obj
 .text.devkey_to_dsm_entry
                0x00028660       0x16 examples/pb_remote/server/CMakeFiles/pb_remote_server_nrf52832_xxAA_s132_5.0.0.dir/__/__/__/mesh/access/src/device_state_manager.c.obj
 *fill*         0x00028676        0x2 
 .text.devkey_to_flash_entry
                0x00028678       0x28 examples/pb_remote/server/CMakeFiles/pb_remote_server_nrf52832_xxAA_s132_5.0.0.dir/__/__/__/mesh/access/src/device_state_manager.c.obj
 .text.appkey_to_flash_entry
                0x000286a0       0x28 examples/pb_remote/server/CMakeFiles/pb_remote_server_nrf52832_xxAA_s132_5.0.0.dir/__/__/__/mesh/access/src/device_state_manager.c.obj
 .text.subnet_to_flash_entry
                0x000286c8       0x20 examples/pb_remote/server/CMakeFiles/pb_remote_server_nrf52832_xxAA_s132_5.0.0.dir/__/__/__/mesh/access/src/device_state_manager.c.obj
 .text.addr_virtual_to_flash_entry
                0x000286e8       0x18 examples/pb_remote/server/CMakeFiles/pb_remote_server_nrf52832_xxAA_s132_5.0.0.dir/__/__/__/mesh/access/src/device_state_manager.c.obj
 .text.addr_unicast_to_dsm_entry
                0x00028700        0xc examples/pb_remote/server/CMakeFiles/pb_remote_server_nrf52832_xxAA_s132_5.0.0.dir/__/__/__/mesh/access/src/device_state_manager.c.obj
 .text.addr_unicast_to_flash_entry
                0x0002870c       0x10 examples/pb_remote/server/CMakeFiles/pb_remote_server_nrf52832_xxAA_s132_5.0.0.dir/__/__/__/mesh/access/src/device_state_manager.c.obj
 .text.appkey_set
                0x0002871c       0x6c examples/pb_remote/server/CMakeFiles/pb_remote_server_nrf52832_xxAA_s132_5.0.0.dir/__/__/__/mesh/access/src/device_state_manager.c.obj
 .text.appkey_to_dsm_entry
                0x00028788       0x14 examples/pb_remote/server/CMakeFiles/pb_remote_server_nrf52832_xxAA_s132_5.0.0.dir/__/__/__/mesh/access/src/device_state_manager.c.obj
 .text.subnet_set
                0x0002879c       0x94 examples/pb_remote/server/CMakeFiles/pb_remote_server_nrf52832_xxAA_s132_5.0.0.dir/__/__/__/mesh/access/src/device_state_manager.c.obj
 .text.subnet_to_dsm_entry
                0x00028830        0xc examples/pb_remote/server/CMakeFiles/pb_remote_server_nrf52832_xxAA_s132_5.0.0.dir/__/__/__/mesh/access/src/device_state_manager.c.obj
 .text.virtual_address_set
                0x0002883c       0x54 examples/pb_remote/server/CMakeFiles/pb_remote_server_nrf52832_xxAA_s132_5.0.0.dir/__/__/__/mesh/access/src/device_state_manager.c.obj
 .text.addr_virtual_to_dsm_entry
                0x00028890        0xc examples/pb_remote/server/CMakeFiles/pb_remote_server_nrf52832_xxAA_s132_5.0.0.dir/__/__/__/mesh/access/src/device_state_manager.c.obj
 .text.flash_save
                0x0002889c       0x84 examples/pb_remote/server/CMakeFiles/pb_remote_server_nrf52832_xxAA_s132_5.0.0.dir/__/__/__/mesh/access/src/device_state_manager.c.obj
 .text.flash_invalidate
                0x00028920       0x68 examples/pb_remote/server/CMakeFiles/pb_remote_server_nrf52832_xxAA_s132_5.0.0.dir/__/__/__/mesh/access/src/device_state_manager.c.obj
 .text.flash_update_all
                0x00028988       0x6c examples/pb_remote/server/CMakeFiles/pb_remote_server_nrf52832_xxAA_s132_5.0.0.dir/__/__/__/mesh/access/src/device_state_manager.c.obj
 .text.virtual_address_uuid_index_get
                0x000289f4       0x3c examples/pb_remote/server/CMakeFiles/pb_remote_server_nrf52832_xxAA_s132_5.0.0.dir/__/__/__/mesh/access/src/device_state_manager.c.obj
 .text.get_subnet_handle
                0x00028a30       0x30 examples/pb_remote/server/CMakeFiles/pb_remote_server_nrf52832_xxAA_s132_5.0.0.dir/__/__/__/mesh/access/src/device_state_manager.c.obj
 .text.get_app_handle
                0x00028a60       0x38 examples/pb_remote/server/CMakeFiles/pb_remote_server_nrf52832_xxAA_s132_5.0.0.dir/__/__/__/mesh/access/src/device_state_manager.c.obj
 .text.flash_operation_complete
                0x00028a98       0x58 examples/pb_remote/server/CMakeFiles/pb_remote_server_nrf52832_xxAA_s132_5.0.0.dir/__/__/__/mesh/access/src/device_state_manager.c.obj
 .text.flash_invalidate_complete
                0x00028af0        0x8 examples/pb_remote/server/CMakeFiles/pb_remote_server_nrf52832_xxAA_s132_5.0.0.dir/__/__/__/mesh/access/src/device_state_manager.c.obj
 .text.flash_write_complete
                0x00028af8        0x8 examples/pb_remote/server/CMakeFiles/pb_remote_server_nrf52832_xxAA_s132_5.0.0.dir/__/__/__/mesh/access/src/device_state_manager.c.obj
 .text.add_address.part.5
                0x00028b00      0x144 examples/pb_remote/server/CMakeFiles/pb_remote_server_nrf52832_xxAA_s132_5.0.0.dir/__/__/__/mesh/access/src/device_state_manager.c.obj
 .text.address_handle_valid
                0x00028c44       0x28 examples/pb_remote/server/CMakeFiles/pb_remote_server_nrf52832_xxAA_s132_5.0.0.dir/__/__/__/mesh/access/src/device_state_manager.c.obj
 .text.address_handle_nonvirtual_valid
                0x00028c6c       0x14 examples/pb_remote/server/CMakeFiles/pb_remote_server_nrf52832_xxAA_s132_5.0.0.dir/__/__/__/mesh/access/src/device_state_manager.c.obj
 .text.addr_nonvirtual_to_dsm_entry
                0x00028c80       0x38 examples/pb_remote/server/CMakeFiles/pb_remote_server_nrf52832_xxAA_s132_5.0.0.dir/__/__/__/mesh/access/src/device_state_manager.c.obj
 .text.dsm_flash_area_get
                0x00028cb8        0xc examples/pb_remote/server/CMakeFiles/pb_remote_server_nrf52832_xxAA_s132_5.0.0.dir/__/__/__/mesh/access/src/device_state_manager.c.obj
                0x00028cb8                dsm_flash_area_get
 .text.build_flash_area
                0x00028cc4       0x8c examples/pb_remote/server/CMakeFiles/pb_remote_server_nrf52832_xxAA_s132_5.0.0.dir/__/__/__/mesh/access/src/device_state_manager.c.obj
 .text.dsm_init
                0x00028d50       0x24 examples/pb_remote/server/CMakeFiles/pb_remote_server_nrf52832_xxAA_s132_5.0.0.dir/__/__/__/mesh/access/src/device_state_manager.c.obj
                0x00028d50                dsm_init
 .text.flash_remove_complete
                0x00028d74        0x4 examples/pb_remote/server/CMakeFiles/pb_remote_server_nrf52832_xxAA_s132_5.0.0.dir/__/__/__/mesh/access/src/device_state_manager.c.obj
 .text.dsm_local_unicast_addresses_set
                0x00028d78       0x74 examples/pb_remote/server/CMakeFiles/pb_remote_server_nrf52832_xxAA_s132_5.0.0.dir/__/__/__/mesh/access/src/device_state_manager.c.obj
                0x00028d78                dsm_local_unicast_addresses_set
 .text.dsm_local_unicast_addresses_get
                0x00028dec       0x2c examples/pb_remote/server/CMakeFiles/pb_remote_server_nrf52832_xxAA_s132_5.0.0.dir/__/__/__/mesh/access/src/device_state_manager.c.obj
                0x00028dec                dsm_local_unicast_addresses_get
 .text.dsm_address_publish_add
                0x00028e18        0xc examples/pb_remote/server/CMakeFiles/pb_remote_server_nrf52832_xxAA_s132_5.0.0.dir/__/__/__/mesh/access/src/device_state_manager.c.obj
                0x00028e18                dsm_address_publish_add
 .text.dsm_address_subscription_get
                0x00028e24       0x34 examples/pb_remote/server/CMakeFiles/pb_remote_server_nrf52832_xxAA_s132_5.0.0.dir/__/__/__/mesh/access/src/device_state_manager.c.obj
                0x00028e24                dsm_address_subscription_get
 .text.dsm_address_get
                0x00028e58       0x5c examples/pb_remote/server/CMakeFiles/pb_remote_server_nrf52832_xxAA_s132_5.0.0.dir/__/__/__/mesh/access/src/device_state_manager.c.obj
                0x00028e58                dsm_address_get
 .text.dsm_address_handle_get
                0x00028eb4       0x98 examples/pb_remote/server/CMakeFiles/pb_remote_server_nrf52832_xxAA_s132_5.0.0.dir/__/__/__/mesh/access/src/device_state_manager.c.obj
                0x00028eb4                dsm_address_handle_get
 .text.dsm_appkey_handle_get
                0x00028f4c        0xc examples/pb_remote/server/CMakeFiles/pb_remote_server_nrf52832_xxAA_s132_5.0.0.dir/__/__/__/mesh/access/src/device_state_manager.c.obj
                0x00028f4c                dsm_appkey_handle_get
 .text.dsm_subnet_add
                0x00028f58       0x58 examples/pb_remote/server/CMakeFiles/pb_remote_server_nrf52832_xxAA_s132_5.0.0.dir/__/__/__/mesh/access/src/device_state_manager.c.obj
                0x00028f58                dsm_subnet_add
 .text.dsm_devkey_add
                0x00028fb0       0x78 examples/pb_remote/server/CMakeFiles/pb_remote_server_nrf52832_xxAA_s132_5.0.0.dir/__/__/__/mesh/access/src/device_state_manager.c.obj
                0x00028fb0                dsm_devkey_add
 .text.dsm_appkey_add
                0x00029028       0x70 examples/pb_remote/server/CMakeFiles/pb_remote_server_nrf52832_xxAA_s132_5.0.0.dir/__/__/__/mesh/access/src/device_state_manager.c.obj
                0x00029028                dsm_appkey_add
 .text.dsm_tx_secmat_get
                0x00029098       0xd4 examples/pb_remote/server/CMakeFiles/pb_remote_server_nrf52832_xxAA_s132_5.0.0.dir/__/__/__/mesh/access/src/device_state_manager.c.obj
                0x00029098                dsm_tx_secmat_get
 .text.nrf_mesh_net_secmat_next_get
                0x0002916c       0x50 examples/pb_remote/server/CMakeFiles/pb_remote_server_nrf52832_xxAA_s132_5.0.0.dir/__/__/__/mesh/access/src/device_state_manager.c.obj
                0x0002916c                nrf_mesh_net_secmat_next_get
 .text.nrf_mesh_app_secmat_next_get
                0x000291bc       0x84 examples/pb_remote/server/CMakeFiles/pb_remote_server_nrf52832_xxAA_s132_5.0.0.dir/__/__/__/mesh/access/src/device_state_manager.c.obj
                0x000291bc                nrf_mesh_app_secmat_next_get
 .text.nrf_mesh_devkey_secmat_get
                0x00029240       0x34 examples/pb_remote/server/CMakeFiles/pb_remote_server_nrf52832_xxAA_s132_5.0.0.dir/__/__/__/mesh/access/src/device_state_manager.c.obj
                0x00029240                nrf_mesh_devkey_secmat_get
 .text.nrf_mesh_beacon_info_next_get
                0x00029274       0x74 examples/pb_remote/server/CMakeFiles/pb_remote_server_nrf52832_xxAA_s132_5.0.0.dir/__/__/__/mesh/access/src/device_state_manager.c.obj
                0x00029274                nrf_mesh_beacon_info_next_get
 .text.nrf_mesh_rx_address_get
                0x000292e8       0xfc examples/pb_remote/server/CMakeFiles/pb_remote_server_nrf52832_xxAA_s132_5.0.0.dir/__/__/__/mesh/access/src/device_state_manager.c.obj
                0x000292e8                nrf_mesh_rx_address_get
 .text.errata_57
                0x000293e4       0x34 examples/pb_remote/server/CMakeFiles/pb_remote_server_nrf52832_xxAA_s132_5.0.0.dir/__/__/__/external/nRF5_SDK_14.0.0_3bcc1f7/components/toolchain/system_nrf52.c.obj
 .text.errata_136
                0x00029418       0x40 examples/pb_remote/server/CMakeFiles/pb_remote_server_nrf52832_xxAA_s132_5.0.0.dir/__/__/__/external/nRF5_SDK_14.0.0_3bcc1f7/components/toolchain/system_nrf52.c.obj
 .text.SystemInit
                0x00029458      0x238 examples/pb_remote/server/CMakeFiles/pb_remote_server_nrf52832_xxAA_s132_5.0.0.dir/__/__/__/external/nRF5_SDK_14.0.0_3bcc1f7/components/toolchain/system_nrf52.c.obj
                0x00029458                SystemInit
 .text          0x00029690       0x3c examples/pb_remote/server/CMakeFiles/pb_remote_server_nrf52832_xxAA_s132_5.0.0.dir/__/__/__/external/nRF5_SDK_14.0.0_3bcc1f7/components/toolchain/gcc/gcc_startup_nrf52.S.obj
                0x00029690                Reset_Handler
                0x000296b8                NMI_Handler
                0x000296bc                MemoryManagement_Handler
                0x000296be                BusFault_Handler
                0x000296c0                UsageFault_Handler
                0x000296c2                SVC_Handler
                0x000296c4                DebugMon_Handler
                0x000296c6                PendSV_Handler
                0x000296c8                SysTick_Handler
                0x000296ca                POWER_CLOCK_IRQHandler
                0x000296ca                RADIO_IRQHandler
                0x000296ca                PDM_IRQHandler
                0x000296ca                TEMP_IRQHandler
                0x000296ca                TIMER3_IRQHandler
                0x000296ca                FPU_IRQHandler
                0x000296ca                SPIM0_SPIS0_TWIM0_TWIS0_SPI0_TWI0_IRQHandler
                0x000296ca                PWM1_IRQHandler
                0x000296ca                UARTE0_UART0_IRQHandler
                0x000296ca                TIMER4_IRQHandler
                0x000296ca                RTC0_IRQHandler
                0x000296ca                SWI4_EGU4_IRQHandler
                0x000296ca                TIMER0_IRQHandler
                0x000296ca                GPIOTE_IRQHandler
                0x000296ca                TIMER1_IRQHandler
                0x000296ca                PWM2_IRQHandler
                0x000296ca                ECB_IRQHandler
                0x000296ca                SPIM1_SPIS1_TWIM1_TWIS1_SPI1_TWI1_IRQHandler
                0x000296ca                Default_Handler
                0x000296ca                SAADC_IRQHandler
                0x000296ca                CCM_AAR_IRQHandler
                0x000296ca                WDT_IRQHandler
                0x000296ca                I2S_IRQHandler
                0x000296ca                SWI5_EGU5_IRQHandler
                0x000296ca                RNG_IRQHandler
                0x000296ca                RTC2_IRQHandler
                0x000296ca                PWM0_IRQHandler
                0x000296ca                SWI3_EGU3_IRQHandler
                0x000296ca                RTC1_IRQHandler
                0x000296ca                SWI1_EGU1_IRQHandler
                0x000296ca                SPIM2_SPIS2_SPI2_IRQHandler
                0x000296ca                NFCT_IRQHandler
                0x000296ca                SWI0_EGU0_IRQHandler
                0x000296ca                MWU_IRQHandler
                0x000296ca                TIMER2_IRQHandler
                0x000296ca                COMP_LPCOMP_IRQHandler
 .text.nrf_mesh_configure_device_uuid_reset
                0x000296cc       0x28 mesh/core/libmesh_core_nrf52832_xxAA.a(nrf_mesh_configure.c.obj)
                0x000296cc                nrf_mesh_configure_device_uuid_reset
 .text.nrf_mesh_configure_device_uuid_get
                0x000296f4        0x8 mesh/core/libmesh_core_nrf52832_xxAA.a(nrf_mesh_configure.c.obj)
                0x000296f4                nrf_mesh_configure_device_uuid_get
 .text.event_handle
                0x000296fc       0x30 mesh/core/libmesh_core_nrf52832_xxAA.a(event.c.obj)
                0x000296fc                event_handle
 .text.event_handler_add
                0x0002972c       0x78 mesh/core/libmesh_core_nrf52832_xxAA.a(event.c.obj)
                0x0002972c                event_handler_add
 .text.fifo_init
                0x000297a4       0x50 mesh/core/libmesh_core_nrf52832_xxAA.a(fifo.c.obj)
                0x000297a4                fifo_init
 .text.fifo_push
                0x000297f4       0x50 mesh/core/libmesh_core_nrf52832_xxAA.a(fifo.c.obj)
                0x000297f4                fifo_push
 .text.fifo_pop
                0x00029844       0x52 mesh/core/libmesh_core_nrf52832_xxAA.a(fifo.c.obj)
                0x00029844                fifo_pop
 .text.fifo_flush
                0x00029896        0x6 mesh/core/libmesh_core_nrf52832_xxAA.a(fifo.c.obj)
                0x00029896                fifo_flush
 .text.fifo_get_len
                0x0002989c        0x8 mesh/core/libmesh_core_nrf52832_xxAA.a(fifo.c.obj)
                0x0002989c                fifo_get_len
 .text.flash_mem_available
                0x000298a4       0x20 mesh/core/libmesh_core_nrf52832_xxAA.a(net_state.c.obj)
 .text.flash_store_iv_index
                0x000298c4       0x38 mesh/core/libmesh_core_nrf52832_xxAA.a(net_state.c.obj)
 .text.seqnum_block_allocate
                0x000298fc       0x48 mesh/core/libmesh_core_nrf52832_xxAA.a(net_state.c.obj)
 .text.flash_write_complete
                0x00029944       0x78 mesh/core/libmesh_core_nrf52832_xxAA.a(net_state.c.obj)
 .text.net_state_recover_from_flash
                0x000299bc       0x84 mesh/core/libmesh_core_nrf52832_xxAA.a(net_state.c.obj)
                0x000299bc                net_state_recover_from_flash
 .text.net_state_flash_area_get
                0x00029a40        0xc mesh/core/libmesh_core_nrf52832_xxAA.a(net_state.c.obj)
                0x00029a40                net_state_flash_area_get
 .text.init_flash_storage
                0x00029a4c       0x40 mesh/core/libmesh_core_nrf52832_xxAA.a(net_state.c.obj)
 .text.net_state_init
                0x00029a8c       0x48 mesh/core/libmesh_core_nrf52832_xxAA.a(net_state.c.obj)
                0x00029a8c                net_state_init
 .text.net_state_iv_update_start
                0x00029ad4       0x64 mesh/core/libmesh_core_nrf52832_xxAA.a(net_state.c.obj)
                0x00029ad4                net_state_iv_update_start
 .text.iv_update_trigger_if_pending
                0x00029b38       0x8c mesh/core/libmesh_core_nrf52832_xxAA.a(net_state.c.obj)
 .text.iv_update_timer_handler
                0x00029bc4       0x74 mesh/core/libmesh_core_nrf52832_xxAA.a(net_state.c.obj)
 .text.net_state_seqnum_alloc
                0x00029c38       0x68 mesh/core/libmesh_core_nrf52832_xxAA.a(net_state.c.obj)
                0x00029c38                net_state_seqnum_alloc
 .text.net_state_iv_index_lock
                0x00029ca0       0x48 mesh/core/libmesh_core_nrf52832_xxAA.a(net_state.c.obj)
                0x00029ca0                net_state_iv_index_lock
 .text.net_state_beacon_received
                0x00029ce8       0x94 mesh/core/libmesh_core_nrf52832_xxAA.a(net_state.c.obj)
                0x00029ce8                net_state_beacon_received
 .text.net_state_beacon_iv_index_get
                0x00029d7c        0xc mesh/core/libmesh_core_nrf52832_xxAA.a(net_state.c.obj)
                0x00029d7c                net_state_beacon_iv_index_get
 .text.net_state_tx_iv_index_get
                0x00029d88       0x14 mesh/core/libmesh_core_nrf52832_xxAA.a(net_state.c.obj)
                0x00029d88                net_state_tx_iv_index_get
 .text.net_state_rx_iv_index_get
                0x00029d9c       0x18 mesh/core/libmesh_core_nrf52832_xxAA.a(net_state.c.obj)
                0x00029d9c                net_state_rx_iv_index_get
 .text.net_state_iv_update_get
                0x00029db4        0xc mesh/core/libmesh_core_nrf52832_xxAA.a(net_state.c.obj)
                0x00029db4                net_state_iv_update_get
 .text.nrf_mesh_address_type_get
                0x00029dc0       0x10 mesh/core/libmesh_core_nrf52832_xxAA.a(nrf_mesh_utils.c.obj)
                0x00029dc0                nrf_mesh_address_type_get
 .text.sd_softdevice_is_enabled
                0x00029dd0        0x4 mesh/core/libmesh_core_nrf52832_xxAA.a(nrf_mesh.c.obj)
 .text.nrf_mesh_init
                0x00029dd4       0xb0 mesh/core/libmesh_core_nrf52832_xxAA.a(nrf_mesh.c.obj)
                0x00029dd4                nrf_mesh_init
 .text.nrf_mesh_enable
                0x00029e84       0x48 mesh/core/libmesh_core_nrf52832_xxAA.a(nrf_mesh.c.obj)
                0x00029e84                nrf_mesh_enable
 .text.nrf_mesh_packet_send
                0x00029ecc        0x4 mesh/core/libmesh_core_nrf52832_xxAA.a(nrf_mesh.c.obj)
                0x00029ecc                nrf_mesh_packet_send
 .text.nrf_mesh_process
                0x00029ed0      0x1c0 mesh/core/libmesh_core_nrf52832_xxAA.a(nrf_mesh.c.obj)
                0x00029ed0                nrf_mesh_process
 .text.nrf_mesh_on_ble_evt
                0x0002a090        0x4 mesh/core/libmesh_core_nrf52832_xxAA.a(nrf_mesh.c.obj)
                0x0002a090                nrf_mesh_on_ble_evt
 .text.nrf_mesh_on_sd_evt
                0x0002a094        0xa mesh/core/libmesh_core_nrf52832_xxAA.a(nrf_mesh.c.obj)
                0x0002a094                nrf_mesh_on_sd_evt
 .text.nrf_mesh_evt_handler_add
                0x0002a09e        0x4 mesh/core/libmesh_core_nrf52832_xxAA.a(nrf_mesh.c.obj)
                0x0002a09e                nrf_mesh_evt_handler_add
 *fill*         0x0002a0a2        0x2 
 .text.hal_lfclk_ppm_get
                0x0002a0a4       0x14 mesh/core/libmesh_core_nrf52832_xxAA.a(hal.c.obj)
                0x0002a0a4                hal_lfclk_ppm_get
 .text.add_to_add_list
                0x0002a0b8       0x44 mesh/core/libmesh_core_nrf52832_xxAA.a(timer_scheduler.c.obj)
 .text.process_dirty_events
                0x0002a0fc       0x6c mesh/core/libmesh_core_nrf52832_xxAA.a(timer_scheduler.c.obj)
 .text.timer_cb
                0x0002a168        0xc mesh/core/libmesh_core_nrf52832_xxAA.a(timer_scheduler.c.obj)
 .text.add_evt.constprop.0
                0x0002a174       0x68 mesh/core/libmesh_core_nrf52832_xxAA.a(timer_scheduler.c.obj)
 .text.process_add_list
                0x0002a1dc       0x48 mesh/core/libmesh_core_nrf52832_xxAA.a(timer_scheduler.c.obj)
 .text.flag_event_cb
                0x0002a224      0x104 mesh/core/libmesh_core_nrf52832_xxAA.a(timer_scheduler.c.obj)
 .text.timer_sch_init
                0x0002a328       0x24 mesh/core/libmesh_core_nrf52832_xxAA.a(timer_scheduler.c.obj)
                0x0002a328                timer_sch_init
 .text.timer_sch_schedule
                0x0002a34c       0x50 mesh/core/libmesh_core_nrf52832_xxAA.a(timer_scheduler.c.obj)
                0x0002a34c                timer_sch_schedule
 .text.timer_sch_abort
                0x0002a39c       0x64 mesh/core/libmesh_core_nrf52832_xxAA.a(timer_scheduler.c.obj)
                0x0002a39c                timer_sch_abort
 .text.timer_sch_reschedule
                0x0002a400       0x70 mesh/core/libmesh_core_nrf52832_xxAA.a(timer_scheduler.c.obj)
                0x0002a400                timer_sch_reschedule
 .text.timer_mut_unlock
                0x0002a470       0x10 mesh/core/libmesh_core_nrf52832_xxAA.a(timer.c.obj)
 .text.timer_order_cb
                0x0002a480       0x94 mesh/core/libmesh_core_nrf52832_xxAA.a(timer.c.obj)
                0x0002a480                timer_order_cb
 .text.timer_now
                0x0002a514       0x48 mesh/core/libmesh_core_nrf52832_xxAA.a(timer.c.obj)
                0x0002a514                timer_now
 .text.timer_event_handler
                0x0002a55c       0x90 mesh/core/libmesh_core_nrf52832_xxAA.a(timer.c.obj)
                0x0002a55c                timer_event_handler
 .text.timer_on_ts_begin
                0x0002a5ec       0xfc mesh/core/libmesh_core_nrf52832_xxAA.a(timer.c.obj)
                0x0002a5ec                timer_on_ts_begin
 .text.timer_on_ts_end
                0x0002a6e8       0x60 mesh/core/libmesh_core_nrf52832_xxAA.a(timer.c.obj)
                0x0002a6e8                timer_on_ts_end
 .text.timer_cb
                0x0002a748       0x10 mesh/core/libmesh_core_nrf52832_xxAA.a(ticker.c.obj)
 .text.ticker_init
                0x0002a758       0x3c mesh/core/libmesh_core_nrf52832_xxAA.a(ticker.c.obj)
                0x0002a758                ticker_init
 .text.sd_rand_application_bytes_available_get
                0x0002a794        0x4 mesh/core/libmesh_core_nrf52832_xxAA.a(rand.c.obj)
 .text.sd_rand_application_vector_get
                0x0002a798        0x4 mesh/core/libmesh_core_nrf52832_xxAA.a(rand.c.obj)
 .text.rand_prng_get
                0x0002a79c       0x22 mesh/core/libmesh_core_nrf52832_xxAA.a(rand.c.obj)
                0x0002a79c                rand_prng_get
 *fill*         0x0002a7be        0x2 
 .text.rand_hw_rng_get
                0x0002a7c0       0x50 mesh/core/libmesh_core_nrf52832_xxAA.a(rand.c.obj)
                0x0002a7c0                rand_hw_rng_get
 .text.rand_prng_seed
                0x0002a810       0x34 mesh/core/libmesh_core_nrf52832_xxAA.a(rand.c.obj)
                0x0002a810                rand_prng_seed
 .text.sd_radio_session_open
                0x0002a844        0x4 mesh/core/libmesh_core_nrf52832_xxAA.a(timeslot.c.obj)
 .text.sd_radio_session_close
                0x0002a848        0x4 mesh/core/libmesh_core_nrf52832_xxAA.a(timeslot.c.obj)
 .text.sd_radio_request
                0x0002a84c        0x4 mesh/core/libmesh_core_nrf52832_xxAA.a(timeslot.c.obj)
 .text.end_timer_handler
                0x0002a850       0x24 mesh/core/libmesh_core_nrf52832_xxAA.a(timeslot.c.obj)
 .text.get_end_time.constprop.10
                0x0002a874       0x28 mesh/core/libmesh_core_nrf52832_xxAA.a(timeslot.c.obj)
 .text.handle_extend_end.constprop.3
                0x0002a89c       0xc0 mesh/core/libmesh_core_nrf52832_xxAA.a(timeslot.c.obj)
 .text.radio_signal_callback
                0x0002a95c      0x14c mesh/core/libmesh_core_nrf52832_xxAA.a(timeslot.c.obj)
 .text.timeslot_sd_event_handler
                0x0002aaa8       0x44 mesh/core/libmesh_core_nrf52832_xxAA.a(timeslot.c.obj)
                0x0002aaa8                timeslot_sd_event_handler
 .text.timeslot_init
                0x0002aaec       0x48 mesh/core/libmesh_core_nrf52832_xxAA.a(timeslot.c.obj)
                0x0002aaec                timeslot_init
 .text.timeslot_start
                0x0002ab34       0x20 mesh/core/libmesh_core_nrf52832_xxAA.a(timeslot.c.obj)
                0x0002ab34                timeslot_start
 .text.timeslot_end_is_pending
                0x0002ab54       0x24 mesh/core/libmesh_core_nrf52832_xxAA.a(timeslot.c.obj)
                0x0002ab54                timeslot_end_is_pending
 .text.timeslot_start_time_get
                0x0002ab78        0xc mesh/core/libmesh_core_nrf52832_xxAA.a(timeslot.c.obj)
                0x0002ab78                timeslot_start_time_get
 .text.timeslot_remaining_time_get
                0x0002ab84       0x20 mesh/core/libmesh_core_nrf52832_xxAA.a(timeslot.c.obj)
                0x0002ab84                timeslot_remaining_time_get
 .text.timeslot_is_in_cb
                0x0002aba4        0xc mesh/core/libmesh_core_nrf52832_xxAA.a(timeslot.c.obj)
                0x0002aba4                timeslot_is_in_cb
 .text.timeslot_trigger
                0x0002abb0       0x24 mesh/core/libmesh_core_nrf52832_xxAA.a(timeslot.c.obj)
                0x0002abb0                timeslot_trigger
 .text.timeslot_stop
                0x0002abd4       0x10 mesh/core/libmesh_core_nrf52832_xxAA.a(timeslot.c.obj)
                0x0002abd4                timeslot_stop
 .text.timeslot_state_lock
                0x0002abe4       0x28 mesh/core/libmesh_core_nrf52832_xxAA.a(timeslot.c.obj)
                0x0002abe4                timeslot_state_lock
 .text.evt_push
                0x0002ac0c       0x24 mesh/core/libmesh_core_nrf52832_xxAA.a(bearer_event.c.obj)
 .text.QDEC_IRQHandler
                0x0002ac30       0xc4 mesh/core/libmesh_core_nrf52832_xxAA.a(bearer_event.c.obj)
                0x0002ac30                QDEC_IRQHandler
 .text.bearer_event_init
                0x0002acf4       0x38 mesh/core/libmesh_core_nrf52832_xxAA.a(bearer_event.c.obj)
                0x0002acf4                bearer_event_init
 .text.bearer_event_timer_post
                0x0002ad2c       0x30 mesh/core/libmesh_core_nrf52832_xxAA.a(bearer_event.c.obj)
                0x0002ad2c                bearer_event_timer_post
 .text.bearer_event_critical_section_begin
                0x0002ad5c       0x44 mesh/core/libmesh_core_nrf52832_xxAA.a(bearer_event.c.obj)
                0x0002ad5c                bearer_event_critical_section_begin
 .text.bearer_event_critical_section_end
                0x0002ada0       0x40 mesh/core/libmesh_core_nrf52832_xxAA.a(bearer_event.c.obj)
                0x0002ada0                bearer_event_critical_section_end
 .text.bearer_event_flag_add
                0x0002ade0       0x50 mesh/core/libmesh_core_nrf52832_xxAA.a(bearer_event.c.obj)
                0x0002ade0                bearer_event_flag_add
 .text.bearer_event_flag_set
                0x0002ae30       0x58 mesh/core/libmesh_core_nrf52832_xxAA.a(bearer_event.c.obj)
                0x0002ae30                bearer_event_flag_set
 .text.bearer_event_sequential_add
                0x0002ae88       0x44 mesh/core/libmesh_core_nrf52832_xxAA.a(bearer_event.c.obj)
                0x0002ae88                bearer_event_sequential_add
 .text.bearer_event_sequential_post
                0x0002aecc       0x64 mesh/core/libmesh_core_nrf52832_xxAA.a(bearer_event.c.obj)
                0x0002aecc                bearer_event_sequential_post
 .text.bearer_event_sequential_pending
                0x0002af30       0x1c mesh/core/libmesh_core_nrf52832_xxAA.a(bearer_event.c.obj)
                0x0002af30                bearer_event_sequential_pending
 .text.enc_aes_encrypt
                0x0002af4c        0x4 mesh/core/libmesh_core_nrf52832_xxAA.a(enc.c.obj)
                0x0002af4c                enc_aes_encrypt
 .text.enc_aes_cmac
                0x0002af50        0x4 mesh/core/libmesh_core_nrf52832_xxAA.a(enc.c.obj)
                0x0002af50                enc_aes_cmac
 .text.enc_aes_ccm_encrypt
                0x0002af54        0x4 mesh/core/libmesh_core_nrf52832_xxAA.a(enc.c.obj)
                0x0002af54                enc_aes_ccm_encrypt
 .text.enc_aes_ccm_decrypt
                0x0002af58        0x4 mesh/core/libmesh_core_nrf52832_xxAA.a(enc.c.obj)
                0x0002af58                enc_aes_ccm_decrypt
 .text.enc_nonce_generate
                0x0002af5c       0xb8 mesh/core/libmesh_core_nrf52832_xxAA.a(enc.c.obj)
                0x0002af5c                enc_nonce_generate
 .text.enc_s1   0x0002b014       0x38 mesh/core/libmesh_core_nrf52832_xxAA.a(enc.c.obj)
                0x0002b014                enc_s1
 .text.enc_k1   0x0002b04c       0x48 mesh/core/libmesh_core_nrf52832_xxAA.a(enc.c.obj)
                0x0002b04c                enc_k1
 .text.enc_k2   0x0002b094       0xd8 mesh/core/libmesh_core_nrf52832_xxAA.a(enc.c.obj)
                0x0002b094                enc_k2
 .text.enc_k3   0x0002b16c       0x68 mesh/core/libmesh_core_nrf52832_xxAA.a(enc.c.obj)
                0x0002b16c                enc_k3
 .text.enc_k4   0x0002b1d4       0x60 mesh/core/libmesh_core_nrf52832_xxAA.a(enc.c.obj)
                0x0002b1d4                enc_k4
 .text.header_transfuscate
                0x0002b234       0x54 mesh/core/libmesh_core_nrf52832_xxAA.a(network.c.obj)
 .text.allocate_packet
                0x0002b288      0x14c mesh/core/libmesh_core_nrf52832_xxAA.a(network.c.obj)
 .text.network_init
                0x0002b3d4       0x2c mesh/core/libmesh_core_nrf52832_xxAA.a(network.c.obj)
                0x0002b3d4                network_init
 .text.network_packet_alloc
                0x0002b400       0x50 mesh/core/libmesh_core_nrf52832_xxAA.a(network.c.obj)
                0x0002b400                network_packet_alloc
 .text.network_packet_send
                0x0002b450      0x140 mesh/core/libmesh_core_nrf52832_xxAA.a(network.c.obj)
                0x0002b450                network_packet_send
 .text.network_packet_in
                0x0002b590      0x450 mesh/core/libmesh_core_nrf52832_xxAA.a(network.c.obj)
                0x0002b590                network_packet_in
 .text.nrf_mesh_keygen_aid
                0x0002b9e0       0x12 mesh/core/libmesh_core_nrf52832_xxAA.a(nrf_mesh_keygen.c.obj)
                0x0002b9e0                nrf_mesh_keygen_aid
 .text.nrf_mesh_keygen_network_secmat
                0x0002b9f2       0x20 mesh/core/libmesh_core_nrf52832_xxAA.a(nrf_mesh_keygen.c.obj)
                0x0002b9f2                nrf_mesh_keygen_network_secmat
 *fill*         0x0002ba12        0x2 
 .text.nrf_mesh_keygen_beacon_secmat
                0x0002ba14       0x50 mesh/core/libmesh_core_nrf52832_xxAA.a(nrf_mesh_keygen.c.obj)
                0x0002ba14                nrf_mesh_keygen_beacon_secmat
 .text.nrf_mesh_keygen_virtual_address
                0x0002ba64       0x50 mesh/core/libmesh_core_nrf52832_xxAA.a(nrf_mesh_keygen.c.obj)
                0x0002ba64                nrf_mesh_keygen_virtual_address
 .text.log_callback_rtt
                0x0002bab4       0x2c mesh/core/libmesh_core_nrf52832_xxAA.a(log.c.obj)
                0x0002bab4                log_callback_rtt
 .text.log_init
                0x0002bae0       0x1c mesh/core/libmesh_core_nrf52832_xxAA.a(log.c.obj)
                0x0002bae0                log_init
 .text.log_vprintf
                0x0002bafc       0x18 mesh/core/libmesh_core_nrf52832_xxAA.a(log.c.obj)
                0x0002bafc                log_vprintf
 .text.log_printf
                0x0002bb14       0x18 mesh/core/libmesh_core_nrf52832_xxAA.a(log.c.obj)
                0x0002bb14                log_printf
 .text.get_area_end
                0x0002bb2c        0xc mesh/core/libmesh_core_nrf52832_xxAA.a(flash_manager.c.obj)
 .text.handle_matches_filter
                0x0002bb38       0x26 mesh/core/libmesh_core_nrf52832_xxAA.a(flash_manager.c.obj)
 *fill*         0x0002bb5e        0x2 
 .text.get_packet_buffer
                0x0002bb60       0x2c mesh/core/libmesh_core_nrf52832_xxAA.a(flash_manager.c.obj)
 .text.get_entry_action
                0x0002bb8c       0x30 mesh/core/libmesh_core_nrf52832_xxAA.a(flash_manager.c.obj)
 .text.flash_area_is_blank
                0x0002bbbc       0x48 mesh/core/libmesh_core_nrf52832_xxAA.a(flash_manager.c.obj)
 .text.flash    0x0002bc04       0x1c mesh/core/libmesh_core_nrf52832_xxAA.a(flash_manager.c.obj)
 .text.free_packet_buffer
                0x0002bc20       0x54 mesh/core/libmesh_core_nrf52832_xxAA.a(flash_manager.c.obj)
 .text.reserve_action_buffer
                0x0002bc74       0x24 mesh/core/libmesh_core_nrf52832_xxAA.a(flash_manager.c.obj)
 .text.commit_action_buffer
                0x0002bc98       0x18 mesh/core/libmesh_core_nrf52832_xxAA.a(flash_manager.c.obj)
 .text.schedule_processing
                0x0002bcb0        0xc mesh/core/libmesh_core_nrf52832_xxAA.a(flash_manager.c.obj)
 .text.get_next_entry
                0x0002bcbc       0x40 mesh/core/libmesh_core_nrf52832_xxAA.a(flash_manager.c.obj)
 .text.get_last_entry.isra.1
                0x0002bcfc       0x30 mesh/core/libmesh_core_nrf52832_xxAA.a(flash_manager.c.obj)
 .text.process_action_queue
                0x0002bd2c      0x4e0 mesh/core/libmesh_core_nrf52832_xxAA.a(flash_manager.c.obj)
 .text.flash_op_ended_callback
                0x0002c20c       0x24 mesh/core/libmesh_core_nrf52832_xxAA.a(flash_manager.c.obj)
 .text.flash_manager_init
                0x0002c230       0x68 mesh/core/libmesh_core_nrf52832_xxAA.a(flash_manager.c.obj)
                0x0002c230                flash_manager_init
 .text.flash_manager_entry_next_get
                0x0002c298       0x6c mesh/core/libmesh_core_nrf52832_xxAA.a(flash_manager.c.obj)
                0x0002c298                flash_manager_entry_next_get
 .text.flash_manager_entry_alloc
                0x0002c304       0x78 mesh/core/libmesh_core_nrf52832_xxAA.a(flash_manager.c.obj)
                0x0002c304                flash_manager_entry_alloc
 .text.flash_manager_entry_commit
                0x0002c37c       0x12 mesh/core/libmesh_core_nrf52832_xxAA.a(flash_manager.c.obj)
                0x0002c37c                flash_manager_entry_commit
 *fill*         0x0002c38e        0x2 
 .text.flash_manager_entry_invalidate
                0x0002c390       0x64 mesh/core/libmesh_core_nrf52832_xxAA.a(flash_manager.c.obj)
                0x0002c390                flash_manager_entry_invalidate
 .text.flash_manager_add
                0x0002c3f4      0x248 mesh/core/libmesh_core_nrf52832_xxAA.a(flash_manager.c.obj)
                0x0002c3f4                flash_manager_add
 .text.flash_manager_mem_listener_register
                0x0002c63c       0x44 mesh/core/libmesh_core_nrf52832_xxAA.a(flash_manager.c.obj)
                0x0002c63c                flash_manager_mem_listener_register
 .text.flash_manager_is_stable
                0x0002c680       0x24 mesh/core/libmesh_core_nrf52832_xxAA.a(flash_manager.c.obj)
                0x0002c680                flash_manager_is_stable
 .text.flash_manager_on_defrag_end
                0x0002c6a4       0x58 mesh/core/libmesh_core_nrf52832_xxAA.a(flash_manager.c.obj)
                0x0002c6a4                flash_manager_on_defrag_end
 .text.flash_manager_recovery_page_get
                0x0002c6fc        0x4 mesh/core/libmesh_core_nrf52832_xxAA.a(flash_manager.c.obj)
                0x0002c6fc                flash_manager_recovery_page_get
 .text.utils_xor
                0x0002c700       0x14 mesh/core/libmesh_core_nrf52832_xxAA.a(ccm_soft.c.obj)
 .text.ccm_soft_authenticate_blocks
                0x0002c714       0x68 mesh/core/libmesh_core_nrf52832_xxAA.a(ccm_soft.c.obj)
 .text.utils_reverse_memcpy.constprop.0
                0x0002c77c        0xa mesh/core/libmesh_core_nrf52832_xxAA.a(ccm_soft.c.obj)
 .text.ccm_soft_authenticate
                0x0002c786       0xa0 mesh/core/libmesh_core_nrf52832_xxAA.a(ccm_soft.c.obj)
 .text.ccm_soft_crypt
                0x0002c826       0x6c mesh/core/libmesh_core_nrf52832_xxAA.a(ccm_soft.c.obj)
 .text.ccm_soft_encrypt
                0x0002c892       0x70 mesh/core/libmesh_core_nrf52832_xxAA.a(ccm_soft.c.obj)
                0x0002c892                ccm_soft_encrypt
 .text.ccm_soft_decrypt
                0x0002c902       0xfe mesh/core/libmesh_core_nrf52832_xxAA.a(ccm_soft.c.obj)
                0x0002c902                ccm_soft_decrypt
 .text.beacon_init
                0x0002ca00       0x48 mesh/core/libmesh_core_nrf52832_xxAA.a(beacon.c.obj)
                0x0002ca00                beacon_init
 .text.beacon_create
                0x0002ca48       0x46 mesh/core/libmesh_core_nrf52832_xxAA.a(beacon.c.obj)
                0x0002ca48                beacon_create
 *fill*         0x0002ca8e        0x2 
 .text.beacon_tx
                0x0002ca90       0x3c mesh/core/libmesh_core_nrf52832_xxAA.a(beacon.c.obj)
                0x0002ca90                beacon_tx
 .text.beacon_packet_in
                0x0002cacc      0x160 mesh/core/libmesh_core_nrf52832_xxAA.a(beacon.c.obj)
                0x0002cacc                beacon_packet_in
 .text.entry_get
                0x0002cc2c       0x88 mesh/core/libmesh_core_nrf52832_xxAA.a(flash_manager_internal.c.obj)
                0x0002cc2c                entry_get
 .text.adv_tx_complete_callback
                0x0002ccb4       0x50 mesh/core/libmesh_core_nrf52832_xxAA.a(core_tx.c.obj)
 .text.core_tx_init
                0x0002cd04       0x4c mesh/core/libmesh_core_nrf52832_xxAA.a(core_tx.c.obj)
                0x0002cd04                core_tx_init
 .text.core_tx_complete_cb_set
                0x0002cd50        0xc mesh/core/libmesh_core_nrf52832_xxAA.a(core_tx.c.obj)
                0x0002cd50                core_tx_complete_cb_set
 .text.core_tx_packet_alloc
                0x0002cd5c       0x98 mesh/core/libmesh_core_nrf52832_xxAA.a(core_tx.c.obj)
                0x0002cd5c                core_tx_packet_alloc
 .text.core_tx_packet_send
                0x0002cdf4       0x6c mesh/core/libmesh_core_nrf52832_xxAA.a(core_tx.c.obj)
                0x0002cdf4                core_tx_packet_send
 .text.core_tx_packet_discard
                0x0002ce60       0x6c mesh/core/libmesh_core_nrf52832_xxAA.a(core_tx.c.obj)
                0x0002ce60                core_tx_packet_discard
 .text.network_beacon_tx_cb
                0x0002cecc       0xe0 mesh/core/libmesh_core_nrf52832_xxAA.a(net_beacon.c.obj)
 .text.net_beacon_init
                0x0002cfac       0x60 mesh/core/libmesh_core_nrf52832_xxAA.a(net_beacon.c.obj)
                0x0002cfac                net_beacon_init
 .text.net_beacon_packet_in
                0x0002d00c       0xb8 mesh/core/libmesh_core_nrf52832_xxAA.a(net_beacon.c.obj)
                0x0002d00c                net_beacon_packet_in
 .text.set_gap_addr_type
                0x0002d0c4       0x34 mesh/core/libmesh_core_nrf52832_xxAA.a(advertiser.c.obj)
 .text.tx_complete_event_callback
                0x0002d0f8       0x3c mesh/core/libmesh_core_nrf52832_xxAA.a(advertiser.c.obj)
 .text.broadcast_complete_cb
                0x0002d134       0x64 mesh/core/libmesh_core_nrf52832_xxAA.a(advertiser.c.obj)
 .text.schedule_first_time
                0x0002d198       0x28 mesh/core/libmesh_core_nrf52832_xxAA.a(advertiser.c.obj)
 .text.timeout_event
                0x0002d1c0      0x130 mesh/core/libmesh_core_nrf52832_xxAA.a(advertiser.c.obj)
 .text.advertiser_init
                0x0002d2f0        0xc mesh/core/libmesh_core_nrf52832_xxAA.a(advertiser.c.obj)
                0x0002d2f0                advertiser_init
 .text.advertiser_enable
                0x0002d2fc       0x2a mesh/core/libmesh_core_nrf52832_xxAA.a(advertiser.c.obj)
                0x0002d2fc                advertiser_enable
 *fill*         0x0002d326        0x2 
 .text.advertiser_packet_alloc
                0x0002d328       0x94 mesh/core/libmesh_core_nrf52832_xxAA.a(advertiser.c.obj)
                0x0002d328                advertiser_packet_alloc
 .text.advertiser_packet_send
                0x0002d3bc       0x78 mesh/core/libmesh_core_nrf52832_xxAA.a(advertiser.c.obj)
                0x0002d3bc                advertiser_packet_send
 .text.advertiser_packet_discard
                0x0002d434       0x2c mesh/core/libmesh_core_nrf52832_xxAA.a(advertiser.c.obj)
                0x0002d434                advertiser_packet_discard
 .text.advertiser_interval_set
                0x0002d460       0x68 mesh/core/libmesh_core_nrf52832_xxAA.a(advertiser.c.obj)
                0x0002d460                advertiser_interval_set
 .text.advertiser_flush
                0x0002d4c8       0x1e mesh/core/libmesh_core_nrf52832_xxAA.a(advertiser.c.obj)
                0x0002d4c8                advertiser_flush
 *fill*         0x0002d4e6        0x2 
 .text.advertiser_address_default_get
                0x0002d4e8       0x38 mesh/core/libmesh_core_nrf52832_xxAA.a(advertiser.c.obj)
                0x0002d4e8                advertiser_address_default_get
 .text.advertiser_instance_init
                0x0002d520       0xbc mesh/core/libmesh_core_nrf52832_xxAA.a(advertiser.c.obj)
                0x0002d520                advertiser_instance_init
 .text.action_switch
                0x0002d5dc       0xc0 mesh/core/libmesh_core_nrf52832_xxAA.a(bearer_handler.c.obj)
 .text.bearer_handler_init
                0x0002d69c       0x2c mesh/core/libmesh_core_nrf52832_xxAA.a(bearer_handler.c.obj)
                0x0002d69c                bearer_handler_init
 .text.bearer_handler_start
                0x0002d6c8       0x1c mesh/core/libmesh_core_nrf52832_xxAA.a(bearer_handler.c.obj)
                0x0002d6c8                bearer_handler_start
 .text.bearer_handler_action_enqueue
                0x0002d6e4       0x94 mesh/core/libmesh_core_nrf52832_xxAA.a(bearer_handler.c.obj)
                0x0002d6e4                bearer_handler_action_enqueue
 .text.bearer_handler_action_end
                0x0002d778       0x78 mesh/core/libmesh_core_nrf52832_xxAA.a(bearer_handler.c.obj)
                0x0002d778                bearer_handler_action_end
 .text.bearer_handler_radio_irq_handler
                0x0002d7f0       0x64 mesh/core/libmesh_core_nrf52832_xxAA.a(bearer_handler.c.obj)
                0x0002d7f0                bearer_handler_radio_irq_handler
 .text.bearer_handler_timer_irq_handler
                0x0002d854       0x30 mesh/core/libmesh_core_nrf52832_xxAA.a(bearer_handler.c.obj)
                0x0002d854                bearer_handler_timer_irq_handler
 .text.bearer_handler_on_ts_begin
                0x0002d884       0x44 mesh/core/libmesh_core_nrf52832_xxAA.a(bearer_handler.c.obj)
                0x0002d884                bearer_handler_on_ts_begin
 .text.bearer_handler_on_ts_end
                0x0002d8c8       0x48 mesh/core/libmesh_core_nrf52832_xxAA.a(bearer_handler.c.obj)
                0x0002d8c8                bearer_handler_on_ts_end
 .text.radio_irq_handler
                0x0002d910       0xb0 mesh/core/libmesh_core_nrf52832_xxAA.a(broadcast.c.obj)
 .text.broadcast_start
                0x0002d9c0       0x8c mesh/core/libmesh_core_nrf52832_xxAA.a(broadcast.c.obj)
 .text.broadcast_send
                0x0002da4c       0x80 mesh/core/libmesh_core_nrf52832_xxAA.a(broadcast.c.obj)
                0x0002da4c                broadcast_send
 .text.radio_config_reset
                0x0002dacc       0x34 mesh/core/libmesh_core_nrf52832_xxAA.a(radio_config.c.obj)
                0x0002dacc                radio_config_reset
 .text.radio_config_channel_set
                0x0002db00       0x34 mesh/core/libmesh_core_nrf52832_xxAA.a(radio_config.c.obj)
                0x0002db00                radio_config_channel_set
 .text.radio_config_config
                0x0002db34       0x80 mesh/core/libmesh_core_nrf52832_xxAA.a(radio_config.c.obj)
                0x0002db34                radio_config_config
 .text.radio_config_access_addr_set
                0x0002dbb4       0x68 mesh/core/libmesh_core_nrf52832_xxAA.a(radio_config.c.obj)
                0x0002dbb4                radio_config_access_addr_set
 .text.radio_trigger
                0x0002dc1c       0x24 mesh/core/libmesh_core_nrf52832_xxAA.a(scanner.c.obj)
 .text.scan_window_end
                0x0002dc40       0x10 mesh/core/libmesh_core_nrf52832_xxAA.a(scanner.c.obj)
 .text.scan_window_start
                0x0002dc50       0x24 mesh/core/libmesh_core_nrf52832_xxAA.a(scanner.c.obj)
 .text.radio_configure
                0x0002dc74       0x78 mesh/core/libmesh_core_nrf52832_xxAA.a(scanner.c.obj)
 .text.radio_set_packet
                0x0002dcec       0x50 mesh/core/libmesh_core_nrf52832_xxAA.a(scanner.c.obj)
 .text.radio_start
                0x0002dd3c       0x4c mesh/core/libmesh_core_nrf52832_xxAA.a(scanner.c.obj)
 .text.radio_stop
                0x0002dd88       0x30 mesh/core/libmesh_core_nrf52832_xxAA.a(scanner.c.obj)
 .text.schedule_timers
                0x0002ddb8       0x38 mesh/core/libmesh_core_nrf52832_xxAA.a(scanner.c.obj)
 .text.scanner_radio_start
                0x0002ddf0       0x28 mesh/core/libmesh_core_nrf52832_xxAA.a(scanner.c.obj)
                0x0002ddf0                scanner_radio_start
 .text.scanner_radio_stop
                0x0002de18       0x10 mesh/core/libmesh_core_nrf52832_xxAA.a(scanner.c.obj)
                0x0002de18                scanner_radio_stop
 .text.scanner_radio_irq_handler
                0x0002de28      0x124 mesh/core/libmesh_core_nrf52832_xxAA.a(scanner.c.obj)
                0x0002de28                scanner_radio_irq_handler
 .text.scanner_enable
                0x0002df4c       0x30 mesh/core/libmesh_core_nrf52832_xxAA.a(scanner.c.obj)
                0x0002df4c                scanner_enable
 .text.scanner_packet_release
                0x0002df7c       0x38 mesh/core/libmesh_core_nrf52832_xxAA.a(scanner.c.obj)
                0x0002df7c                scanner_packet_release
 .text.scanner_rx
                0x0002dfb4       0x30 mesh/core/libmesh_core_nrf52832_xxAA.a(scanner.c.obj)
                0x0002dfb4                scanner_rx
 .text.scanner_config_scan_time_set
                0x0002dfe4       0x68 mesh/core/libmesh_core_nrf52832_xxAA.a(scanner.c.obj)
                0x0002dfe4                scanner_config_scan_time_set
 .text.scanner_config_channels_set
                0x0002e04c       0x64 mesh/core/libmesh_core_nrf52832_xxAA.a(scanner.c.obj)
                0x0002e04c                scanner_config_channels_set
 .text.scanner_config_access_addresses_set
                0x0002e0b0       0x44 mesh/core/libmesh_core_nrf52832_xxAA.a(scanner.c.obj)
                0x0002e0b0                scanner_config_access_addresses_set
 .text.scanner_config_reset
                0x0002e0f4       0x50 mesh/core/libmesh_core_nrf52832_xxAA.a(scanner.c.obj)
                0x0002e0f4                scanner_config_reset
 .text.scanner_init
                0x0002e144       0x48 mesh/core/libmesh_core_nrf52832_xxAA.a(scanner.c.obj)
                0x0002e144                scanner_init
 .text.internal_event_push
                0x0002e18c       0x28 mesh/core/libmesh_core_nrf52832_xxAA.a(internal_event.c.obj)
                0x0002e18c                internal_event_push
 .text.sd_ecb_block_encrypt
                0x0002e1b4        0x4 mesh/core/libmesh_core_nrf52832_xxAA.a(aes.c.obj)
 .text.aes_encrypt
                0x0002e1b8       0x32 mesh/core/libmesh_core_nrf52832_xxAA.a(aes.c.obj)
                0x0002e1b8                aes_encrypt
 *fill*         0x0002e1ea        0x2 
 .text.msg_cache_init
                0x0002e1ec       0x24 mesh/core/libmesh_core_nrf52832_xxAA.a(msg_cache.c.obj)
                0x0002e1ec                msg_cache_init
 .text.msg_cache_entry_exists
                0x0002e210       0x3c mesh/core/libmesh_core_nrf52832_xxAA.a(msg_cache.c.obj)
                0x0002e210                msg_cache_entry_exists
 .text.msg_cache_entry_add
                0x0002e24c       0x2c mesh/core/libmesh_core_nrf52832_xxAA.a(msg_cache.c.obj)
                0x0002e24c                msg_cache_entry_add
 .text.block_ack_full
                0x0002e278       0x28 mesh/core/libmesh_core_nrf52832_xxAA.a(transport.c.obj)
 .text.seqauth_sequence_number_get
                0x0002e2a0       0x12 mesh/core/libmesh_core_nrf52832_xxAA.a(transport.c.obj)
 *fill*         0x0002e2b2        0x2 
 .text.sar_rx_session_mark_as_handled
                0x0002e2b4       0x54 mesh/core/libmesh_core_nrf52832_xxAA.a(transport.c.obj)
 .text.sar_ctx_find
                0x0002e308       0x3c mesh/core/libmesh_core_nrf52832_xxAA.a(transport.c.obj)
 .text.m_send_sar_cancel_event
                0x0002e344       0x28 mesh/core/libmesh_core_nrf52832_xxAA.a(transport.c.obj)
 .text.tx_complete
                0x0002e36c       0x34 mesh/core/libmesh_core_nrf52832_xxAA.a(transport.c.obj)
 .text.upper_trs_packet_alloc
                0x0002e3a0       0x2e mesh/core/libmesh_core_nrf52832_xxAA.a(transport.c.obj)
 *fill*         0x0002e3ce        0x2 
 .text.upper_trs_packet_encrypt
                0x0002e3d0       0xbc mesh/core/libmesh_core_nrf52832_xxAA.a(transport.c.obj)
 .text.sar_ctx_free
                0x0002e48c       0x3c mesh/core/libmesh_core_nrf52832_xxAA.a(transport.c.obj)
 .text.sar_ctx_tx_complete
                0x0002e4c8       0x3c mesh/core/libmesh_core_nrf52832_xxAA.a(transport.c.obj)
 .text.sar_ctx_cancel
                0x0002e504      0x108 mesh/core/libmesh_core_nrf52832_xxAA.a(transport.c.obj)
 .text.abort_timeout
                0x0002e60c        0x8 mesh/core/libmesh_core_nrf52832_xxAA.a(transport.c.obj)
 .text.sar_ctx_alloc
                0x0002e614       0xb8 mesh/core/libmesh_core_nrf52832_xxAA.a(transport.c.obj)
 .text.test_transport_decrypt
                0x0002e6cc       0x88 mesh/core/libmesh_core_nrf52832_xxAA.a(transport.c.obj)
 .text.upper_transport_access_packet_in
                0x0002e754      0x28c mesh/core/libmesh_core_nrf52832_xxAA.a(transport.c.obj)
 .text.trs_packet_header_build
                0x0002e9e0       0xa6 mesh/core/libmesh_core_nrf52832_xxAA.a(transport.c.obj)
 *fill*         0x0002ea86        0x2 
 .text.trs_sar_packet_out
                0x0002ea88       0xbc mesh/core/libmesh_core_nrf52832_xxAA.a(transport.c.obj)
 .text.retry_timeout
                0x0002eb44       0x54 mesh/core/libmesh_core_nrf52832_xxAA.a(transport.c.obj)
 .text.sar_ack_send
                0x0002eb98      0x128 mesh/core/libmesh_core_nrf52832_xxAA.a(transport.c.obj)
 .text.ack_timeout
                0x0002ecc0       0x34 mesh/core/libmesh_core_nrf52832_xxAA.a(transport.c.obj)
 .text.tx_retry_timer_reset
                0x0002ecf4       0x50 mesh/core/libmesh_core_nrf52832_xxAA.a(transport.c.obj)
 .text.upper_transport_packet_in
                0x0002ed44      0x164 mesh/core/libmesh_core_nrf52832_xxAA.a(transport.c.obj)
 .text.transport_sar_process
                0x0002eea8       0x70 mesh/core/libmesh_core_nrf52832_xxAA.a(transport.c.obj)
 .text.transport_sar_mem_funcs_reset
                0x0002ef18       0x28 mesh/core/libmesh_core_nrf52832_xxAA.a(transport.c.obj)
                0x0002ef18                transport_sar_mem_funcs_reset
 .text.transport_init
                0x0002ef40       0x78 mesh/core/libmesh_core_nrf52832_xxAA.a(transport.c.obj)
                0x0002ef40                transport_init
 .text.transport_packet_in
                0x0002efb8      0x4f4 mesh/core/libmesh_core_nrf52832_xxAA.a(transport.c.obj)
                0x0002efb8                transport_packet_in
 .text.transport_tx
                0x0002f4ac      0x2ac mesh/core/libmesh_core_nrf52832_xxAA.a(transport.c.obj)
                0x0002f4ac                transport_tx
 .text.m_adjust_desired_packet_length
                0x0002f758       0x34 mesh/core/libmesh_core_nrf52832_xxAA.a(packet_buffer.c.obj)
 .text.m_index_increment.part.0
                0x0002f78c       0x14 mesh/core/libmesh_core_nrf52832_xxAA.a(packet_buffer.c.obj)
 .text.m_free_popped_packet
                0x0002f7a0       0x60 mesh/core/libmesh_core_nrf52832_xxAA.a(packet_buffer.c.obj)
 .text.free_skipped_packets
                0x0002f800       0x1c mesh/core/libmesh_core_nrf52832_xxAA.a(packet_buffer.c.obj)
 .text.packet_buffer_init
                0x0002f81c       0xe0 mesh/core/libmesh_core_nrf52832_xxAA.a(packet_buffer.c.obj)
                0x0002f81c                packet_buffer_init
 .text.packet_buffer_flush
                0x0002f8fc       0x5e mesh/core/libmesh_core_nrf52832_xxAA.a(packet_buffer.c.obj)
                0x0002f8fc                packet_buffer_flush
 *fill*         0x0002f95a        0x2 
 .text.packet_buffer_reserve
                0x0002f95c      0x11c mesh/core/libmesh_core_nrf52832_xxAA.a(packet_buffer.c.obj)
                0x0002f95c                packet_buffer_reserve
 .text.packet_buffer_commit
                0x0002fa78      0x104 mesh/core/libmesh_core_nrf52832_xxAA.a(packet_buffer.c.obj)
                0x0002fa78                packet_buffer_commit
 .text.packet_buffer_pop
                0x0002fb7c       0x58 mesh/core/libmesh_core_nrf52832_xxAA.a(packet_buffer.c.obj)
                0x0002fb7c                packet_buffer_pop
 .text.packet_buffer_can_pop
                0x0002fbd4       0x28 mesh/core/libmesh_core_nrf52832_xxAA.a(packet_buffer.c.obj)
                0x0002fbd4                packet_buffer_can_pop
 .text.packet_buffer_packets_ready_to_pop
                0x0002fbfc       0x58 mesh/core/libmesh_core_nrf52832_xxAA.a(packet_buffer.c.obj)
                0x0002fbfc                packet_buffer_packets_ready_to_pop
 .text.packet_buffer_free
                0x0002fc54       0x8c mesh/core/libmesh_core_nrf52832_xxAA.a(packet_buffer.c.obj)
                0x0002fc54                packet_buffer_free
 .text.get_last_page
                0x0002fce0       0x14 mesh/core/libmesh_core_nrf52832_xxAA.a(flash_manager_defrag.c.obj)
 .text.defrag_on_end
                0x0002fcf4       0x1c mesh/core/libmesh_core_nrf52832_xxAA.a(flash_manager_defrag.c.obj)
 .text.execute_procedure_step
                0x0002fd10       0xa0 mesh/core/libmesh_core_nrf52832_xxAA.a(flash_manager_defrag.c.obj)
 .text.get_next_entry
                0x0002fdb0       0x40 mesh/core/libmesh_core_nrf52832_xxAA.a(flash_manager_defrag.c.obj)
 .text.get_next_data_entry
                0x0002fdf0       0x20 mesh/core/libmesh_core_nrf52832_xxAA.a(flash_manager_defrag.c.obj)
 .text.on_flash_op_end
                0x0002fe10       0x30 mesh/core/libmesh_core_nrf52832_xxAA.a(flash_manager_defrag.c.obj)
 .text.check_for_invalid_entries
                0x0002fe40       0x38 mesh/core/libmesh_core_nrf52832_xxAA.a(flash_manager_defrag.c.obj)
 .text.erase_recovery_area
                0x0002fe78       0x34 mesh/core/libmesh_core_nrf52832_xxAA.a(flash_manager_defrag.c.obj)
 .text.flash.constprop.6
                0x0002feac       0x24 mesh/core/libmesh_core_nrf52832_xxAA.a(flash_manager_defrag.c.obj)
 .text.seal_storage_page
                0x0002fed0       0x50 mesh/core/libmesh_core_nrf52832_xxAA.a(flash_manager_defrag.c.obj)
 .text.invalidate_duplicate_entries
                0x0002ff20       0x9c mesh/core/libmesh_core_nrf52832_xxAA.a(flash_manager_defrag.c.obj)
 .text.copy_metadata
                0x0002ffbc       0x3c mesh/core/libmesh_core_nrf52832_xxAA.a(flash_manager_defrag.c.obj)
 .text.write_defrag_start_pointer
                0x0002fff8       0x20 mesh/core/libmesh_core_nrf52832_xxAA.a(flash_manager_defrag.c.obj)
 .text.write_back
                0x00030018       0x28 mesh/core/libmesh_core_nrf52832_xxAA.a(flash_manager_defrag.c.obj)
 .text.post_process
                0x00030040       0x40 mesh/core/libmesh_core_nrf52832_xxAA.a(flash_manager_defrag.c.obj)
 .text.backup_entries
                0x00030080      0x118 mesh/core/libmesh_core_nrf52832_xxAA.a(flash_manager_defrag.c.obj)
 .text.erase_source
                0x00030198       0x34 mesh/core/libmesh_core_nrf52832_xxAA.a(flash_manager_defrag.c.obj)
 .text.flash_manager_defrag_init
                0x000301cc       0x94 mesh/core/libmesh_core_nrf52832_xxAA.a(flash_manager_defrag.c.obj)
                0x000301cc                flash_manager_defrag_init
 .text.flash_manager_defrag_is_running
                0x00030260       0x10 mesh/core/libmesh_core_nrf52832_xxAA.a(flash_manager_defrag.c.obj)
                0x00030260                flash_manager_defrag_is_running
 .text.flash_manager_defrag
                0x00030270       0xd8 mesh/core/libmesh_core_nrf52832_xxAA.a(flash_manager_defrag.c.obj)
                0x00030270                flash_manager_defrag
 .text.flash_manager_defrag_recovery_page_get
                0x00030348        0xc mesh/core/libmesh_core_nrf52832_xxAA.a(flash_manager_defrag.c.obj)
                0x00030348                flash_manager_defrag_recovery_page_get
 .text.packet_mgr_init
                0x00030354       0x4c mesh/core/libmesh_core_nrf52832_xxAA.a(packet_mgr.c.obj)
                0x00030354                packet_mgr_init
 .text.send_end_events
                0x000303a0       0x80 mesh/core/libmesh_core_nrf52832_xxAA.a(mesh_flash.c.obj)
 .text.flash_op_schedule
                0x00030420       0x9c mesh/core/libmesh_core_nrf52832_xxAA.a(mesh_flash.c.obj)
 .text.flash_op_start
                0x000304bc      0x170 mesh/core/libmesh_core_nrf52832_xxAA.a(mesh_flash.c.obj)
 .text.mesh_flash_init
                0x0003062c       0x88 mesh/core/libmesh_core_nrf52832_xxAA.a(mesh_flash.c.obj)
                0x0003062c                mesh_flash_init
 .text.mesh_flash_user_callback_set
                0x000306b4       0x2c mesh/core/libmesh_core_nrf52832_xxAA.a(mesh_flash.c.obj)
                0x000306b4                mesh_flash_user_callback_set
 .text.mesh_flash_op_push
                0x000306e0      0x128 mesh/core/libmesh_core_nrf52832_xxAA.a(mesh_flash.c.obj)
                0x000306e0                mesh_flash_op_push
 .text.queue_init
                0x00030808       0x20 mesh/core/libmesh_core_nrf52832_xxAA.a(queue.c.obj)
                0x00030808                queue_init
 .text.queue_push
                0x00030828       0x48 mesh/core/libmesh_core_nrf52832_xxAA.a(queue.c.obj)
                0x00030828                queue_push
 .text.queue_pop
                0x00030870       0x34 mesh/core/libmesh_core_nrf52832_xxAA.a(queue.c.obj)
                0x00030870                queue_pop
 .text.queue_peek
                0x000308a4       0x1c mesh/core/libmesh_core_nrf52832_xxAA.a(queue.c.obj)
                0x000308a4                queue_peek
 .text.my_xor.constprop.1
                0x000308c0       0x20 mesh/core/libmesh_core_nrf52832_xxAA.a(aes_cmac.c.obj)
 .text.utils_lshift.constprop.2
                0x000308e0       0x24 mesh/core/libmesh_core_nrf52832_xxAA.a(aes_cmac.c.obj)
 .text.aes_cmac_subkey_generate
                0x00030904       0x6c mesh/core/libmesh_core_nrf52832_xxAA.a(aes_cmac.c.obj)
                0x00030904                aes_cmac_subkey_generate
 .text.aes_cmac
                0x00030970       0xbc mesh/core/libmesh_core_nrf52832_xxAA.a(aes_cmac.c.obj)
                0x00030970                aes_cmac
 .text.stage_get_available
                0x00030a2c       0x24 mesh/core/libmesh_core_nrf52832_xxAA.a(msqueue.c.obj)
 .text.msq_get  0x00030a50       0x4c mesh/core/libmesh_core_nrf52832_xxAA.a(msqueue.c.obj)
                0x00030a50                msq_get
 .text.msq_move
                0x00030a9c       0x44 mesh/core/libmesh_core_nrf52832_xxAA.a(msqueue.c.obj)
                0x00030a9c                msq_move
 .text.msq_reset
                0x00030ae0       0x2c mesh/core/libmesh_core_nrf52832_xxAA.a(msqueue.c.obj)
                0x00030ae0                msq_reset
 .text.msq_init
                0x00030b0c       0x78 mesh/core/libmesh_core_nrf52832_xxAA.a(msqueue.c.obj)
                0x00030b0c                msq_init
 .text.msq_available
                0x00030b84       0x3c mesh/core/libmesh_core_nrf52832_xxAA.a(msqueue.c.obj)
                0x00030b84                msq_available
 .text.replay_cache_add
                0x00030bc0       0x60 mesh/core/libmesh_core_nrf52832_xxAA.a(replay_cache.c.obj)
                0x00030bc0                replay_cache_add
 .text.replay_cache_has_room
                0x00030c20       0x38 mesh/core/libmesh_core_nrf52832_xxAA.a(replay_cache.c.obj)
                0x00030c20                replay_cache_has_room
 .text.replay_cache_has_elem
                0x00030c58       0x38 mesh/core/libmesh_core_nrf52832_xxAA.a(replay_cache.c.obj)
                0x00030c58                replay_cache_has_elem
 .text.replay_cache_clear
                0x00030c90       0x28 mesh/core/libmesh_core_nrf52832_xxAA.a(replay_cache.c.obj)
                0x00030c90                replay_cache_clear
 .text.replay_cache_init
                0x00030cb8        0x4 mesh/core/libmesh_core_nrf52832_xxAA.a(replay_cache.c.obj)
                0x00030cb8                replay_cache_init
 .text.fen_filters_apply
                0x00030cbc       0x34 mesh/core/libmesh_core_nrf52832_xxAA.a(filter_engine.c.obj)
                0x00030cbc                fen_filters_apply
 .text.wait_for_ready
                0x00030cf0       0x10 mesh/core/libmesh_core_nrf52832_xxAA.a(nrf_flash.c.obj)
 .text.nrf_flash_erase
                0x00030d00       0x50 mesh/core/libmesh_core_nrf52832_xxAA.a(nrf_flash.c.obj)
                0x00030d00                nrf_flash_erase
 .text.nrf_flash_write
                0x00030d50       0x50 mesh/core/libmesh_core_nrf52832_xxAA.a(nrf_flash.c.obj)
                0x00030d50                nrf_flash_write
 .text._GetAvailWriteSpace
                0x00030da0       0x1c external/rtt/librtt_nrf52832_xxAA.a(SEGGER_RTT.c.obj)
 .text._WriteNoCheck
                0x00030dbc       0x3c external/rtt/librtt_nrf52832_xxAA.a(SEGGER_RTT.c.obj)
 .text._WriteBlocking
                0x00030df8       0x52 external/rtt/librtt_nrf52832_xxAA.a(SEGGER_RTT.c.obj)
 *fill*         0x00030e4a        0x2 
 .text._DoInit  0x00030e4c       0x60 external/rtt/librtt_nrf52832_xxAA.a(SEGGER_RTT.c.obj)
 .text.SEGGER_RTT_WriteNoLock
                0x00030eac       0x68 external/rtt/librtt_nrf52832_xxAA.a(SEGGER_RTT.c.obj)
                0x00030eac                SEGGER_RTT_WriteNoLock
 .text.SEGGER_RTT_Write
                0x00030f14       0x34 external/rtt/librtt_nrf52832_xxAA.a(SEGGER_RTT.c.obj)
                0x00030f14                SEGGER_RTT_Write
 .text._StoreChar
                0x00030f48       0x3e external/rtt/librtt_nrf52832_xxAA.a(SEGGER_RTT_printf.c.obj)
 *fill*         0x00030f86        0x2 
 .text._PrintUnsigned
                0x00030f88       0xd0 external/rtt/librtt_nrf52832_xxAA.a(SEGGER_RTT_printf.c.obj)
 .text.SEGGER_RTT_vprintf
                0x00031058      0x246 external/rtt/librtt_nrf52832_xxAA.a(SEGGER_RTT_printf.c.obj)
                0x00031058                SEGGER_RTT_vprintf
 .text.SEGGER_RTT_printf
                0x0003129e       0x1e external/rtt/librtt_nrf52832_xxAA.a(SEGGER_RTT_printf.c.obj)
                0x0003129e                SEGGER_RTT_printf
 .text.uECC_vli_mult
                0x000312bc       0x64 external/micro-ecc/libuECC_nrf52832_xxAA.a(uECC.c.obj)
 .text.uECC_vli_clear
                0x00031320       0x16 external/micro-ecc/libuECC_nrf52832_xxAA.a(uECC.c.obj)
 .text.uECC_vli_isZero
                0x00031336       0x1e external/micro-ecc/libuECC_nrf52832_xxAA.a(uECC.c.obj)
 .text.uECC_vli_testBit
                0x00031354       0x14 external/micro-ecc/libuECC_nrf52832_xxAA.a(uECC.c.obj)
 .text.uECC_vli_numBits
                0x00031368       0x3a external/micro-ecc/libuECC_nrf52832_xxAA.a(uECC.c.obj)
 .text.uECC_vli_set
                0x000313a2       0x18 external/micro-ecc/libuECC_nrf52832_xxAA.a(uECC.c.obj)
 .text.uECC_vli_cmp_unsafe
                0x000313ba       0x28 external/micro-ecc/libuECC_nrf52832_xxAA.a(uECC.c.obj)
 .text.uECC_vli_rshift1
                0x000313e2       0x1c external/micro-ecc/libuECC_nrf52832_xxAA.a(uECC.c.obj)
 .text.uECC_vli_modMult_fast
                0x000313fe       0x20 external/micro-ecc/libuECC_nrf52832_xxAA.a(uECC.c.obj)
 .text.uECC_vli_modSquare_fast
                0x0003141e        0x8 external/micro-ecc/libuECC_nrf52832_xxAA.a(uECC.c.obj)
 .text.apply_z  0x00031426       0x3e external/micro-ecc/libuECC_nrf52832_xxAA.a(uECC.c.obj)
 .text.uECC_vli_nativeToBytes
                0x00031464       0x28 external/micro-ecc/libuECC_nrf52832_xxAA.a(uECC.c.obj)
 .text.uECC_vli_bytesToNative
                0x0003148c       0x40 external/micro-ecc/libuECC_nrf52832_xxAA.a(uECC.c.obj)
 .text.default_RNG
                0x000314cc        0xc external/micro-ecc/libuECC_nrf52832_xxAA.a(uECC.c.obj)
 .text.uECC_vli_add.isra.0
                0x000314d8       0x4a external/micro-ecc/libuECC_nrf52832_xxAA.a(uECC.c.obj)
 .text.regularize_k
                0x00031522       0x50 external/micro-ecc/libuECC_nrf52832_xxAA.a(uECC.c.obj)
 .text.uECC_vli_sub.isra.1
                0x00031572       0x4e external/micro-ecc/libuECC_nrf52832_xxAA.a(uECC.c.obj)
 .text.uECC_vli_cmp
                0x000315c0       0x30 external/micro-ecc/libuECC_nrf52832_xxAA.a(uECC.c.obj)
 .text.uECC_generate_random_int
                0x000315f0       0x78 external/micro-ecc/libuECC_nrf52832_xxAA.a(uECC.c.obj)
 .text.uECC_vli_modAdd
                0x00031668       0x2e external/micro-ecc/libuECC_nrf52832_xxAA.a(uECC.c.obj)
 *fill*         0x00031696        0x2 
 .text.vli_mmod_fast_secp256r1
                0x00031698      0x194 external/micro-ecc/libuECC_nrf52832_xxAA.a(uECC.c.obj)
 .text.uECC_vli_modSub.isra.2
                0x0003182c       0x1c external/micro-ecc/libuECC_nrf52832_xxAA.a(uECC.c.obj)
 .text.double_jacobian_default
                0x00031848      0x14a external/micro-ecc/libuECC_nrf52832_xxAA.a(uECC.c.obj)
 .text.x_side_default
                0x00031992       0x5a external/micro-ecc/libuECC_nrf52832_xxAA.a(uECC.c.obj)
 .text.XYcZ_add
                0x000319ec       0xbc external/micro-ecc/libuECC_nrf52832_xxAA.a(uECC.c.obj)
 .text.XYcZ_addC
                0x00031aa8      0x10a external/micro-ecc/libuECC_nrf52832_xxAA.a(uECC.c.obj)
 .text.vli_modInv_update
                0x00031bb2       0x36 external/micro-ecc/libuECC_nrf52832_xxAA.a(uECC.c.obj)
 .text.uECC_vli_modInv
                0x00031be8      0x102 external/micro-ecc/libuECC_nrf52832_xxAA.a(uECC.c.obj)
 .text.EccPoint_mult
                0x00031cea      0x19e external/micro-ecc/libuECC_nrf52832_xxAA.a(uECC.c.obj)
 .text.EccPoint_compute_public_key
                0x00031e88       0x54 external/micro-ecc/libuECC_nrf52832_xxAA.a(uECC.c.obj)
 .text.uECC_secp256r1
                0x00031edc        0x8 external/micro-ecc/libuECC_nrf52832_xxAA.a(uECC.c.obj)
                0x00031edc                uECC_secp256r1
 .text.uECC_make_key
                0x00031ee4       0x7e external/micro-ecc/libuECC_nrf52832_xxAA.a(uECC.c.obj)
                0x00031ee4                uECC_make_key
 *fill*         0x00031f62        0x2 
 .text.uECC_shared_secret
                0x00031f64       0xbc external/micro-ecc/libuECC_nrf52832_xxAA.a(uECC.c.obj)
                0x00031f64                uECC_shared_secret
 .text.uECC_valid_point
                0x00032020       0x86 external/micro-ecc/libuECC_nrf52832_xxAA.a(uECC.c.obj)
                0x00032020                uECC_valid_point
 .text.uECC_valid_public_key
                0x000320a6       0x32 external/micro-ecc/libuECC_nrf52832_xxAA.a(uECC.c.obj)
                0x000320a6                uECC_valid_public_key
 .text.exit     0x000320d8       0x28 c:/a/gcc_arm/6/bin/../lib/gcc/arm-none-eabi/6.3.1/../../../../arm-none-eabi/lib/thumb/v7e-m/fpv4-sp/hard\libc_nano.a(lib_a-exit.o)
                0x000320d8                exit
 .text.__libc_init_array
                0x00032100       0x48 c:/a/gcc_arm/6/bin/../lib/gcc/arm-none-eabi/6.3.1/../../../../arm-none-eabi/lib/thumb/v7e-m/fpv4-sp/hard\libc_nano.a(lib_a-init.o)
                0x00032100                __libc_init_array
 .text.malloc   0x00032148       0x10 c:/a/gcc_arm/6/bin/../lib/gcc/arm-none-eabi/6.3.1/../../../../arm-none-eabi/lib/thumb/v7e-m/fpv4-sp/hard\libc_nano.a(lib_a-malloc.o)
                0x00032148                malloc
 .text.free     0x00032158       0x10 c:/a/gcc_arm/6/bin/../lib/gcc/arm-none-eabi/6.3.1/../../../../arm-none-eabi/lib/thumb/v7e-m/fpv4-sp/hard\libc_nano.a(lib_a-malloc.o)
                0x00032158                free
 .text.memcmp   0x00032168       0x1e c:/a/gcc_arm/6/bin/../lib/gcc/arm-none-eabi/6.3.1/../../../../arm-none-eabi/lib/thumb/v7e-m/fpv4-sp/hard\libc_nano.a(lib_a-memcmp.o)
                0x00032168                memcmp
 .text.memcpy   0x00032186       0x16 c:/a/gcc_arm/6/bin/../lib/gcc/arm-none-eabi/6.3.1/../../../../arm-none-eabi/lib/thumb/v7e-m/fpv4-sp/hard\libc_nano.a(lib_a-memcpy-stub.o)
                0x00032186                memcpy
 .text.memset   0x0003219c       0x10 c:/a/gcc_arm/6/bin/../lib/gcc/arm-none-eabi/6.3.1/../../../../arm-none-eabi/lib/thumb/v7e-m/fpv4-sp/hard\libc_nano.a(lib_a-memset.o)
                0x0003219c                memset
 .text._free_r  0x000321ac       0x9c c:/a/gcc_arm/6/bin/../lib/gcc/arm-none-eabi/6.3.1/../../../../arm-none-eabi/lib/thumb/v7e-m/fpv4-sp/hard\libc_nano.a(lib_a-nano-freer.o)
                0x000321ac                _free_r
 .text._malloc_r
                0x00032248       0xbc c:/a/gcc_arm/6/bin/../lib/gcc/arm-none-eabi/6.3.1/../../../../arm-none-eabi/lib/thumb/v7e-m/fpv4-sp/hard\libc_nano.a(lib_a-nano-mallocr.o)
                0x00032248                _malloc_r
 .text._sbrk_r  0x00032304       0x20 c:/a/gcc_arm/6/bin/../lib/gcc/arm-none-eabi/6.3.1/../../../../arm-none-eabi/lib/thumb/v7e-m/fpv4-sp/hard\libc_nano.a(lib_a-sbrkr.o)
                0x00032304                _sbrk_r
 .text.strcpy   0x00032324       0x10 c:/a/gcc_arm/6/bin/../lib/gcc/arm-none-eabi/6.3.1/../../../../arm-none-eabi/lib/thumb/v7e-m/fpv4-sp/hard\libc_nano.a(lib_a-strcpy.o)
                0x00032324                strcpy
 .text          0x00032334       0x10 c:/a/gcc_arm/6/bin/../lib/gcc/arm-none-eabi/6.3.1/../../../../arm-none-eabi/lib/thumb/v7e-m/fpv4-sp/hard\libc_nano.a(lib_a-strlen.o)
                0x00032334                strlen
 .text.strrchr  0x00032344       0x26 c:/a/gcc_arm/6/bin/../lib/gcc/arm-none-eabi/6.3.1/../../../../arm-none-eabi/lib/thumb/v7e-m/fpv4-sp/hard\libc_nano.a(lib_a-strrchr.o)
                0x00032344                strrchr
 .text.__malloc_lock
                0x0003236a        0x2 c:/a/gcc_arm/6/bin/../lib/gcc/arm-none-eabi/6.3.1/../../../../arm-none-eabi/lib/thumb/v7e-m/fpv4-sp/hard\libc_nano.a(lib_a-mlock.o)
                0x0003236a                __malloc_lock
 .text.__malloc_unlock
                0x0003236c        0x2 c:/a/gcc_arm/6/bin/../lib/gcc/arm-none-eabi/6.3.1/../../../../arm-none-eabi/lib/thumb/v7e-m/fpv4-sp/hard\libc_nano.a(lib_a-mlock.o)
                0x0003236c                __malloc_unlock
 .text.strchr   0x0003236e       0x1c c:/a/gcc_arm/6/bin/../lib/gcc/arm-none-eabi/6.3.1/../../../../arm-none-eabi/lib/thumb/v7e-m/fpv4-sp/hard\libc_nano.a(lib_a-strchr.o)
                0x0003236e                strchr
 *fill*         0x0003238a        0x2 
 .text._sbrk    0x0003238c       0x1c c:/a/gcc_arm/6/bin/../lib/gcc/arm-none-eabi/6.3.1/../../../../arm-none-eabi/lib/thumb/v7e-m/fpv4-sp/hard\libnosys.a(sbrk.o)
                0x0003238c                _sbrk
 .text._exit    0x000323a8        0x4 c:/a/gcc_arm/6/bin/../lib/gcc/arm-none-eabi/6.3.1/../../../../arm-none-eabi/lib/thumb/v7e-m/fpv4-sp/hard\libnosys.a(_exit.o)
                0x000323a8                _exit
 *(.init)
 .init          0x000323ac        0x4 c:/a/gcc_arm/6/bin/../lib/gcc/arm-none-eabi/6.3.1/thumb/v7e-m/fpv4-sp/hard/crti.o
                0x000323ac                _init
 .init          0x000323b0        0x8 c:/a/gcc_arm/6/bin/../lib/gcc/arm-none-eabi/6.3.1/thumb/v7e-m/fpv4-sp/hard/crtn.o
 *(.fini)
 .fini          0x000323b8        0x4 c:/a/gcc_arm/6/bin/../lib/gcc/arm-none-eabi/6.3.1/thumb/v7e-m/fpv4-sp/hard/crti.o
                0x000323b8                _fini
 .fini          0x000323bc        0x8 c:/a/gcc_arm/6/bin/../lib/gcc/arm-none-eabi/6.3.1/thumb/v7e-m/fpv4-sp/hard/crtn.o
 *crtbegin.o(.ctors)
 *crtbegin?.o(.ctors)
 *(EXCLUDE_FILE(*crtend.o *crtend?.o) .ctors)
 *(SORT(.ctors.*))
 *(.ctors)
 *crtbegin.o(.dtors)
 *crtbegin?.o(.dtors)
 *(EXCLUDE_FILE(*crtend.o *crtend?.o) .dtors)
 *(SORT(.dtors.*))
 *(.dtors)
 *(.rodata*)
 .rodata        0x000323c4       0x10 examples/pb_remote/server/CMakeFiles/pb_remote_server_nrf52832_xxAA_s132_5.0.0.dir/src/main.c.obj
 .rodata.main.str1.1
                0x000323d4       0xa0 examples/pb_remote/server/CMakeFiles/pb_remote_server_nrf52832_xxAA_s132_5.0.0.dir/src/main.c.obj
 .rodata.mesh_evt_handler.str1.1
                0x00032474      0x12b examples/pb_remote/server/CMakeFiles/pb_remote_server_nrf52832_xxAA_s132_5.0.0.dir/src/main.c.obj
 .rodata.HardFault_Handler.str1.1
                0x0003259f        0xe examples/pb_remote/server/CMakeFiles/pb_remote_server_nrf52832_xxAA_s132_5.0.0.dir/__/__/nrf_mesh_sdk.c.obj
 .rodata.app_error_handler.str1.1
                0x000325ad       0x1d examples/pb_remote/server/CMakeFiles/pb_remote_server_nrf52832_xxAA_s132_5.0.0.dir/__/__/nrf_mesh_sdk.c.obj
 .rodata.mesh_assert_handler.str1.1
                0x000325ca       0x34 examples/pb_remote/server/CMakeFiles/pb_remote_server_nrf52832_xxAA_s132_5.0.0.dir/__/__/nrf_mesh_sdk.c.obj
 .rodata.mesh_core_setup.str1.1
                0x000325fe       0x47 examples/pb_remote/server/CMakeFiles/pb_remote_server_nrf52832_xxAA_s132_5.0.0.dir/__/__/nrf_mesh_sdk.c.obj
 .rodata.mesh_softdevice_enable.str1.1
                0x00032645       0x65 examples/pb_remote/server/CMakeFiles/pb_remote_server_nrf52832_xxAA_s132_5.0.0.dir/__/__/nrf_mesh_sdk.c.obj
 .rodata.softdevice_assert_handler.str1.1
                0x000326aa       0x1d examples/pb_remote/server/CMakeFiles/pb_remote_server_nrf52832_xxAA_s132_5.0.0.dir/__/__/nrf_mesh_sdk.c.obj
 *fill*         0x000326c7        0x1 
 .rodata.m_prov_callbacks
                0x000326c8       0x10 examples/pb_remote/server/CMakeFiles/pb_remote_server_nrf52832_xxAA_s132_5.0.0.dir/__/__/__/mesh/prov/src/prov_provisionee.c.obj
 .rodata.prov_provisionee_cb_ack_received.str1.1
                0x000326d8       0x53 examples/pb_remote/server/CMakeFiles/pb_remote_server_nrf52832_xxAA_s132_5.0.0.dir/__/__/__/mesh/prov/src/prov_provisionee.c.obj
 .rodata.pdu_sizes.10819
                0x0003272b        0xa examples/pb_remote/server/CMakeFiles/pb_remote_server_nrf52832_xxAA_s132_5.0.0.dir/__/__/__/mesh/prov/src/provisioning.c.obj
 .rodata.prov_cb_pkt_in.str1.1
                0x00032735       0x34 examples/pb_remote/server/CMakeFiles/pb_remote_server_nrf52832_xxAA_s132_5.0.0.dir/__/__/__/mesh/prov/src/provisioning.c.obj
 .rodata.alphanumeric.10923
                0x00032769       0x25 examples/pb_remote/server/CMakeFiles/pb_remote_server_nrf52832_xxAA_s132_5.0.0.dir/__/__/__/mesh/prov/src/prov_utils.c.obj
 *fill*         0x0003278e        0x2 
 .rodata.numeric_max.10917
                0x00032790       0x24 examples/pb_remote/server/CMakeFiles/pb_remote_server_nrf52832_xxAA_s132_5.0.0.dir/__/__/__/mesh/prov/src/prov_utils.c.obj
 .rodata.prov_utils_authentication_values_derive.str1.1
                0x000327b4        0x5 examples/pb_remote/server/CMakeFiles/pb_remote_server_nrf52832_xxAA_s132_5.0.0.dir/__/__/__/mesh/prov/src/prov_utils.c.obj
 .rodata.prov_utils_derive_keys.str1.1
                0x000327b9        0xf examples/pb_remote/server/CMakeFiles/pb_remote_server_nrf52832_xxAA_s132_5.0.0.dir/__/__/__/mesh/prov/src/prov_utils.c.obj
 .rodata.add_active_bearer.str1.1
                0x000327c8       0x2c examples/pb_remote/server/CMakeFiles/pb_remote_server_nrf52832_xxAA_s132_5.0.0.dir/__/__/__/mesh/prov/src/prov_bearer_adv.c.obj
 .rodata.crctable.10681
                0x000327f4      0x100 examples/pb_remote/server/CMakeFiles/pb_remote_server_nrf52832_xxAA_s132_5.0.0.dir/__/__/__/mesh/prov/src/prov_bearer_adv.c.obj
 .rodata.interface.10910
                0x000328f4       0x14 examples/pb_remote/server/CMakeFiles/pb_remote_server_nrf52832_xxAA_s132_5.0.0.dir/__/__/__/mesh/prov/src/prov_bearer_adv.c.obj
 .rodata.prov_bearer_adv_packet_in.str1.1
                0x00032908      0x26e examples/pb_remote/server/CMakeFiles/pb_remote_server_nrf52832_xxAA_s132_5.0.0.dir/__/__/__/mesh/prov/src/prov_bearer_adv.c.obj
 .rodata.tx_retry_cb.str1.1
                0x00032b76       0x37 examples/pb_remote/server/CMakeFiles/pb_remote_server_nrf52832_xxAA_s132_5.0.0.dir/__/__/__/mesh/prov/src/prov_bearer_adv.c.obj
 *fill*         0x00032bad        0x1 
 .rodata        0x00032bae       0x30 examples/pb_remote/server/CMakeFiles/pb_remote_server_nrf52832_xxAA_s132_5.0.0.dir/__/__/__/models/pb_remote/src/pb_remote_server.c.obj
 .rodata.do_state_change.str1.1
                0x00032bde       0x1e examples/pb_remote/server/CMakeFiles/pb_remote_server_nrf52832_xxAA_s132_5.0.0.dir/__/__/__/models/pb_remote/src/pb_remote_server.c.obj
 .rodata.m_opcode_handlers
                0x00032bfc       0x48 examples/pb_remote/server/CMakeFiles/pb_remote_server_nrf52832_xxAA_s132_5.0.0.dir/__/__/__/models/pb_remote/src/pb_remote_server.c.obj
 .rodata.m_pb_remote_server_event_handler_callbacks
                0x00032c44       0x3c examples/pb_remote/server/CMakeFiles/pb_remote_server_nrf52832_xxAA_s132_5.0.0.dir/__/__/__/models/pb_remote/src/pb_remote_server.c.obj
 .rodata.m_prov_callbacks
                0x00032c80       0x10 examples/pb_remote/server/CMakeFiles/pb_remote_server_nrf52832_xxAA_s132_5.0.0.dir/__/__/__/models/pb_remote/src/pb_remote_server.c.obj
 .rodata.pb_remote_server_event_link_close_cb.str1.1
                0x00032c90       0x1d examples/pb_remote/server/CMakeFiles/pb_remote_server_nrf52832_xxAA_s132_5.0.0.dir/__/__/__/models/pb_remote/src/pb_remote_server.c.obj
 .rodata.pb_remote_server_event_link_established_cb.str1.1
                0x00032cad       0x2f examples/pb_remote/server/CMakeFiles/pb_remote_server_nrf52832_xxAA_s132_5.0.0.dir/__/__/__/models/pb_remote/src/pb_remote_server.c.obj
 .rodata.pb_remote_server_event_link_open_cb.str1.1
                0x00032cdc       0x3d examples/pb_remote/server/CMakeFiles/pb_remote_server_nrf52832_xxAA_s132_5.0.0.dir/__/__/__/models/pb_remote/src/pb_remote_server.c.obj
 .rodata.pb_remote_server_event_link_status_cb.str1.1
                0x00032d19       0x8d examples/pb_remote/server/CMakeFiles/pb_remote_server_nrf52832_xxAA_s132_5.0.0.dir/__/__/__/models/pb_remote/src/pb_remote_server.c.obj
 .rodata.pb_remote_server_event_local_ack_cb.str1.1
                0x00032da6       0x16 examples/pb_remote/server/CMakeFiles/pb_remote_server_nrf52832_xxAA_s132_5.0.0.dir/__/__/__/models/pb_remote/src/pb_remote_server.c.obj
 .rodata.pb_remote_server_event_local_packet_cb.str1.1
                0x00032dbc       0x2a examples/pb_remote/server/CMakeFiles/pb_remote_server_nrf52832_xxAA_s132_5.0.0.dir/__/__/__/models/pb_remote/src/pb_remote_server.c.obj
 .rodata.pb_remote_server_event_packet_transfer_cb.str1.1
                0x00032de6       0x2d examples/pb_remote/server/CMakeFiles/pb_remote_server_nrf52832_xxAA_s132_5.0.0.dir/__/__/__/models/pb_remote/src/pb_remote_server.c.obj
 .rodata.pb_remote_server_event_scan_report_status_cb.str1.1
                0x00032e13       0x1e examples/pb_remote/server/CMakeFiles/pb_remote_server_nrf52832_xxAA_s132_5.0.0.dir/__/__/__/models/pb_remote/src/pb_remote_server.c.obj
 .rodata.pb_remote_server_event_scan_start_filter_cb.str1.1
                0x00032e31        0xe examples/pb_remote/server/CMakeFiles/pb_remote_server_nrf52832_xxAA_s132_5.0.0.dir/__/__/__/models/pb_remote/src/pb_remote_server.c.obj
                                 0x16 (size before relaxing)
 .rodata.pb_remote_server_event_transfer_status_cb.str1.1
                0x00032e3f       0x69 examples/pb_remote/server/CMakeFiles/pb_remote_server_nrf52832_xxAA_s132_5.0.0.dir/__/__/__/models/pb_remote/src/pb_remote_server.c.obj
 .rodata.pb_remote_server_event_unprov_uuid_cb.str1.1
                0x00032ea8       0x19 examples/pb_remote/server/CMakeFiles/pb_remote_server_nrf52832_xxAA_s132_5.0.0.dir/__/__/__/models/pb_remote/src/pb_remote_server.c.obj
 .rodata.pb_remote_server_process.str1.1
                0x00032ec1        0xc examples/pb_remote/server/CMakeFiles/pb_remote_server_nrf52832_xxAA_s132_5.0.0.dir/__/__/__/models/pb_remote/src/pb_remote_server.c.obj
 .rodata.server_reliable_status_cb.str1.1
                0x00032ecd       0x3f examples/pb_remote/server/CMakeFiles/pb_remote_server_nrf52832_xxAA_s132_5.0.0.dir/__/__/__/models/pb_remote/src/pb_remote_server.c.obj
 .rodata.mesh_evt_cb.str1.1
                0x00032f0c       0x2f examples/pb_remote/server/CMakeFiles/pb_remote_server_nrf52832_xxAA_s132_5.0.0.dir/__/__/__/mesh/access/src/access.c.obj
 .rodata.packet_tx.str1.1
                0x00032f3b       0x13 examples/pb_remote/server/CMakeFiles/pb_remote_server_nrf52832_xxAA_s132_5.0.0.dir/__/__/__/mesh/access/src/access.c.obj
 *fill*         0x00032f4e        0x2 
 .rodata.m_flash_groups
                0x00032f50       0xc0 examples/pb_remote/server/CMakeFiles/pb_remote_server_nrf52832_xxAA_s132_5.0.0.dir/__/__/__/mesh/access/src/device_state_manager.c.obj
 .rodata.types_lookup.8947
                0x00033010        0x4 mesh/core/libmesh_core_nrf52832_xxAA.a(nrf_mesh_utils.c.obj)
 .rodata.nrf_mesh_process.str1.1
                0x00033014       0x70 mesh/core/libmesh_core_nrf52832_xxAA.a(nrf_mesh.c.obj)
 .rodata.CSWTCH.9
                0x00033084       0x10 mesh/core/libmesh_core_nrf52832_xxAA.a(hal.c.obj)
 .rodata        0x00033094       0x15 mesh/core/libmesh_core_nrf52832_xxAA.a(enc.c.obj)
 .rodata.network_packet_in.str1.1
                0x000330a9       0x40 mesh/core/libmesh_core_nrf52832_xxAA.a(network.c.obj)
                                 0x48 (size before relaxing)
 .rodata.network_packet_send.str1.1
                0x000330e9       0x49 mesh/core/libmesh_core_nrf52832_xxAA.a(network.c.obj)
 .rodata        0x00033132        0x7 mesh/core/libmesh_core_nrf52832_xxAA.a(nrf_mesh_keygen.c.obj)
 .rodata.log_callback_rtt.str1.1
                0x00033139       0x15 mesh/core/libmesh_core_nrf52832_xxAA.a(log.c.obj)
 .rodata.str1.1
                0x0003314e       0x11 mesh/core/libmesh_core_nrf52832_xxAA.a(log.c.obj)
 *fill*         0x0003315f        0x1 
 .rodata.INVALID_HEADER
                0x00033160        0x4 mesh/core/libmesh_core_nrf52832_xxAA.a(flash_manager.c.obj)
                0x00033160                INVALID_HEADER
 .rodata.PADDING_HEADER
                0x00033164        0x4 mesh/core/libmesh_core_nrf52832_xxAA.a(flash_manager.c.obj)
                0x00033164                PADDING_HEADER
 .rodata.SEAL_HEADER
                0x00033168        0x4 mesh/core/libmesh_core_nrf52832_xxAA.a(flash_manager.c.obj)
                0x00033168                SEAL_HEADER
 .rodata.process_action_queue.str1.1
                0x0003316c       0x21 mesh/core/libmesh_core_nrf52832_xxAA.a(flash_manager.c.obj)
                                 0x4f (size before relaxing)
 .rodata.beacon_packet_in.str1.1
                0x0003318d       0x51 mesh/core/libmesh_core_nrf52832_xxAA.a(beacon.c.obj)
                                 0x59 (size before relaxing)
 .rodata.net_beacon_init.str1.1
                0x000331de        0x5 mesh/core/libmesh_core_nrf52832_xxAA.a(net_beacon.c.obj)
 .rodata.radio_mode_to_us_per_byte.9323
                0x000331e3        0x6 mesh/core/libmesh_core_nrf52832_xxAA.a(broadcast.c.obj)
 .rodata.channel_rf_offsets.8585
                0x000331e9       0x28 mesh/core/libmesh_core_nrf52832_xxAA.a(radio_config.c.obj)
 .rodata        0x00033211        0x3 mesh/core/libmesh_core_nrf52832_xxAA.a(scanner.c.obj)
 .rodata.sar_ctx_cancel.str1.1
                0x00033214       0x35 mesh/core/libmesh_core_nrf52832_xxAA.a(transport.c.obj)
                                 0x63 (size before relaxing)
 .rodata.test_transport_decrypt.str1.1
                0x00033249       0x13 mesh/core/libmesh_core_nrf52832_xxAA.a(transport.c.obj)
 .rodata.transport_packet_in.str1.1
                0x0003325c       0x24 mesh/core/libmesh_core_nrf52832_xxAA.a(transport.c.obj)
 .rodata.transport_tx.str1.1
                0x00033280       0x2c mesh/core/libmesh_core_nrf52832_xxAA.a(transport.c.obj)
                                 0x34 (size before relaxing)
 .rodata.upper_transport_access_packet_in.str1.1
                0x000332ac       0x29 mesh/core/libmesh_core_nrf52832_xxAA.a(transport.c.obj)
 .rodata.upper_transport_packet_in.str1.1
                0x000332d5       0x2e mesh/core/libmesh_core_nrf52832_xxAA.a(transport.c.obj)
 .rodata.flash_manager_defrag.str1.1
                0x00033303       0x28 mesh/core/libmesh_core_nrf52832_xxAA.a(flash_manager_defrag.c.obj)
                                 0x56 (size before relaxing)
 *fill*         0x0003332b        0x1 
 .rodata.m_procedure_steps
                0x0003332c       0x28 mesh/core/libmesh_core_nrf52832_xxAA.a(flash_manager_defrag.c.obj)
 .rodata.m_all_operations
                0x00033354       0x10 mesh/core/libmesh_core_nrf52832_xxAA.a(mesh_flash.c.obj)
 .rodata.Rb.7341
                0x00033364       0x10 mesh/core/libmesh_core_nrf52832_xxAA.a(aes_cmac.c.obj)
 .rodata._DoInit.str1.1
                0x00033374       0x14 external/rtt/librtt_nrf52832_xxAA.a(SEGGER_RTT.c.obj)
 .rodata._aV2C.5497
                0x00033388       0x10 external/rtt/librtt_nrf52832_xxAA.a(SEGGER_RTT_printf.c.obj)
 .rodata.curve_secp256r1
                0x00033398       0xb0 external/micro-ecc/libuECC_nrf52832_xxAA.a(uECC.c.obj)
 .rodata._global_impure_ptr
                0x00033448        0x4 c:/a/gcc_arm/6/bin/../lib/gcc/arm-none-eabi/6.3.1/../../../../arm-none-eabi/lib/thumb/v7e-m/fpv4-sp/hard\libc_nano.a(lib_a-impure.o)
                0x00033448                _global_impure_ptr
 *(.eh_frame*)
 .eh_frame      0x0003344c        0x0 c:/a/gcc_arm/6/bin/../lib/gcc/arm-none-eabi/6.3.1/thumb/v7e-m/fpv4-sp/hard/crtbegin.o
 .eh_frame      0x0003344c        0x4 c:/a/gcc_arm/6/bin/../lib/gcc/arm-none-eabi/6.3.1/thumb/v7e-m/fpv4-sp/hard/crtend.o

.glue_7         0x00033450        0x0
 .glue_7        0x00033450        0x0 linker stubs

.glue_7t        0x00033450        0x0
 .glue_7t       0x00033450        0x0 linker stubs

.vfp11_veneer   0x00033450        0x0
 .vfp11_veneer  0x00033450        0x0 linker stubs

.v4_bx          0x00033450        0x0
 .v4_bx         0x00033450        0x0 linker stubs

.iplt           0x00033450        0x0
 .iplt          0x00033450        0x0 c:/a/gcc_arm/6/bin/../lib/gcc/arm-none-eabi/6.3.1/thumb/v7e-m/fpv4-sp/hard/crtbegin.o

.ARM.extab
 *(.ARM.extab* .gnu.linkonce.armextab.*)
                0x00033450                __exidx_start = .

.ARM.exidx      0x00033450        0x8
 *(.ARM.exidx* .gnu.linkonce.armexidx.*)
 .ARM.exidx     0x00033450        0x8 c:/a/gcc_arm/6/bin/../lib/gcc/arm-none-eabi/6.3.1/../../../../arm-none-eabi/lib/thumb/v7e-m/fpv4-sp/hard/crt0.o
                0x00033458                __exidx_end = .
                0x00033458                __etext = .

.rel.dyn        0x00033458        0x0
 .rel.iplt      0x00033458        0x0 c:/a/gcc_arm/6/bin/../lib/gcc/arm-none-eabi/6.3.1/thumb/v7e-m/fpv4-sp/hard/crtbegin.o

.data           0x200031b0       0xe4 load address 0x00033458
                0x200031b0                __data_start__ = .
 *(vtable)
 *(.data*)
 .data.m_unprov_report
                0x200031b0        0x1 examples/pb_remote/server/CMakeFiles/pb_remote_server_nrf52832_xxAA_s132_5.0.0.dir/__/__/__/mesh/prov/src/prov_beacon.c.obj
 *fill*         0x200031b1        0x3 
 .data.m_async_process_flag
                0x200031b4        0x4 examples/pb_remote/server/CMakeFiles/pb_remote_server_nrf52832_xxAA_s132_5.0.0.dir/__/__/__/mesh/prov/src/prov_bearer_adv.c.obj
 .data.flash_add_mem_available_struct.10375
                0x200031b8       0x10 examples/pb_remote/server/CMakeFiles/pb_remote_server_nrf52832_xxAA_s132_5.0.0.dir/__/__/__/mesh/access/src/access.c.obj
 .data.m_default_ttl
                0x200031c8        0x1 examples/pb_remote/server/CMakeFiles/pb_remote_server_nrf52832_xxAA_s132_5.0.0.dir/__/__/__/mesh/access/src/access.c.obj
 *fill*         0x200031c9        0x3 
 .data.mem_listener.10653
                0x200031cc       0x10 examples/pb_remote/server/CMakeFiles/pb_remote_server_nrf52832_xxAA_s132_5.0.0.dir/__/__/__/mesh/access/src/device_state_manager.c.obj
 .data.SystemCoreClock
                0x200031dc        0x4 examples/pb_remote/server/CMakeFiles/pb_remote_server_nrf52832_xxAA_s132_5.0.0.dir/__/__/__/external/nRF5_SDK_14.0.0_3bcc1f7/components/toolchain/system_nrf52.c.obj
                0x200031dc                SystemCoreClock
 .data.mem_listener.9847
                0x200031e0       0x10 mesh/core/libmesh_core_nrf52832_xxAA.a(net_state.c.obj)
 .data.mem_listener.9852
                0x200031f0       0x10 mesh/core/libmesh_core_nrf52832_xxAA.a(net_state.c.obj)
 .data.mem_listener.9866
                0x20003200       0x10 mesh/core/libmesh_core_nrf52832_xxAA.a(net_state.c.obj)
 .data.g_log_debug_level
                0x20003210        0x4 mesh/core/libmesh_core_nrf52832_xxAA.a(log.c.obj)
                0x20003210                g_log_debug_level
 .data.g_log_debug_msk
                0x20003214        0x4 mesh/core/libmesh_core_nrf52832_xxAA.a(log.c.obj)
                0x20003214                g_log_debug_msk
 .data.g_log_hex_digits
                0x20003218        0x4 mesh/core/libmesh_core_nrf52832_xxAA.a(log.c.obj)
                0x20003218                g_log_hex_digits
 .data.m_log_callback
                0x2000321c        0x4 mesh/core/libmesh_core_nrf52832_xxAA.a(log.c.obj)
                0x2000321c                m_log_callback
 .data.g_rng_function
                0x20003220        0x4 external/micro-ecc/libuECC_nrf52832_xxAA.a(uECC.c.obj)
 .data._impure_ptr
                0x20003224        0x4 c:/a/gcc_arm/6/bin/../lib/gcc/arm-none-eabi/6.3.1/../../../../arm-none-eabi/lib/thumb/v7e-m/fpv4-sp/hard\libc_nano.a(lib_a-impure.o)
                0x20003224                _impure_ptr
 .data.impure_data
                0x20003228       0x60 c:/a/gcc_arm/6/bin/../lib/gcc/arm-none-eabi/6.3.1/../../../../arm-none-eabi/lib/thumb/v7e-m/fpv4-sp/hard\libc_nano.a(lib_a-impure.o)
                0x20003288                . = ALIGN (0x4)
                0x20003288                PROVIDE (__preinit_array_start, .)
 *(.preinit_array)
                0x20003288                PROVIDE (__preinit_array_end, .)
                0x20003288                . = ALIGN (0x4)
                0x20003288                PROVIDE (__init_array_start, .)
 *(SORT(.init_array.*))
 *(.init_array)
 .init_array    0x20003288        0x4 c:/a/gcc_arm/6/bin/../lib/gcc/arm-none-eabi/6.3.1/thumb/v7e-m/fpv4-sp/hard/crtbegin.o
                0x2000328c                PROVIDE (__init_array_end, .)
                0x2000328c                . = ALIGN (0x4)
                [!provide]                PROVIDE (__fini_array_start, .)
 *(SORT(.fini_array.*))
 *(.fini_array)
 .fini_array    0x2000328c        0x4 c:/a/gcc_arm/6/bin/../lib/gcc/arm-none-eabi/6.3.1/thumb/v7e-m/fpv4-sp/hard/crtbegin.o
                [!provide]                PROVIDE (__fini_array_end, .)
 *(.jcr*)
 .jcr           0x20003290        0x0 c:/a/gcc_arm/6/bin/../lib/gcc/arm-none-eabi/6.3.1/thumb/v7e-m/fpv4-sp/hard/crtbegin.o
 .jcr           0x20003290        0x4 c:/a/gcc_arm/6/bin/../lib/gcc/arm-none-eabi/6.3.1/thumb/v7e-m/fpv4-sp/hard/crtend.o
                0x20003294                . = ALIGN (0x4)
                0x20003294                __data_end__ = .

.igot.plt       0x20003294        0x0 load address 0x0003353c
 .igot.plt      0x20003294        0x0 c:/a/gcc_arm/6/bin/../lib/gcc/arm-none-eabi/6.3.1/thumb/v7e-m/fpv4-sp/hard/crtbegin.o

.bss            0x20003298     0x30e4 load address 0x00033540
                0x20003298                . = ALIGN (0x4)
                0x20003298                __bss_start__ = .
 *(.bss*)
 .bss           0x20003298       0x1c c:/a/gcc_arm/6/bin/../lib/gcc/arm-none-eabi/6.3.1/thumb/v7e-m/fpv4-sp/hard/crtbegin.o
 .bss.m_appkey_handle
                0x200032b4        0x2 examples/pb_remote/server/CMakeFiles/pb_remote_server_nrf52832_xxAA_s132_5.0.0.dir/src/main.c.obj
 .bss.m_device_state
                0x200032b6        0x1 examples/pb_remote/server/CMakeFiles/pb_remote_server_nrf52832_xxAA_s132_5.0.0.dir/src/main.c.obj
 *fill*         0x200032b7        0x1 
 .bss.m_devkey_handle
                0x200032b8        0x2 examples/pb_remote/server/CMakeFiles/pb_remote_server_nrf52832_xxAA_s132_5.0.0.dir/src/main.c.obj
 *fill*         0x200032ba        0x2 
 .bss.m_evt_handler
                0x200032bc        0x8 examples/pb_remote/server/CMakeFiles/pb_remote_server_nrf52832_xxAA_s132_5.0.0.dir/src/main.c.obj
 .bss.m_netkey_handle
                0x200032c4        0x2 examples/pb_remote/server/CMakeFiles/pb_remote_server_nrf52832_xxAA_s132_5.0.0.dir/src/main.c.obj
 *fill*         0x200032c6        0x2 
 .bss.m_prov_ctx
                0x200032c8      0x2fc examples/pb_remote/server/CMakeFiles/pb_remote_server_nrf52832_xxAA_s132_5.0.0.dir/src/main.c.obj
 .bss.m_provisioner_address_handle
                0x200035c4        0x2 examples/pb_remote/server/CMakeFiles/pb_remote_server_nrf52832_xxAA_s132_5.0.0.dir/src/main.c.obj
 *fill*         0x200035c6        0x2 
 .bss.m_remote_server
                0x200035c8      0x1dc examples/pb_remote/server/CMakeFiles/pb_remote_server_nrf52832_xxAA_s132_5.0.0.dir/src/main.c.obj
 .bss.private_key
                0x200037a4       0x20 examples/pb_remote/server/CMakeFiles/pb_remote_server_nrf52832_xxAA_s132_5.0.0.dir/src/main.c.obj
 .bss.public_key
                0x200037c4       0x40 examples/pb_remote/server/CMakeFiles/pb_remote_server_nrf52832_xxAA_s132_5.0.0.dir/src/main.c.obj
 .bss.m_ble_evt_buffer
                0x20003804       0x4f examples/pb_remote/server/CMakeFiles/pb_remote_server_nrf52832_xxAA_s132_5.0.0.dir/__/__/nrf_mesh_sdk.c.obj
 .bss.m_offload_ecdh
                0x20003853        0x1 examples/pb_remote/server/CMakeFiles/pb_remote_server_nrf52832_xxAA_s132_5.0.0.dir/__/__/__/mesh/prov/src/prov_utils.c.obj
 .bss.mp_bearer_head
                0x20003854        0x4 examples/pb_remote/server/CMakeFiles/pb_remote_server_nrf52832_xxAA_s132_5.0.0.dir/__/__/__/mesh/prov/src/prov_bearer_adv.c.obj
 .bss.m_event_handler
                0x20003858        0x8 examples/pb_remote/server/CMakeFiles/pb_remote_server_nrf52832_xxAA_s132_5.0.0.dir/__/__/__/models/pb_remote/src/pb_remote_server.c.obj
 .bss.m_is_interrupting
                0x20003860        0x1 examples/pb_remote/server/CMakeFiles/pb_remote_server_nrf52832_xxAA_s132_5.0.0.dir/__/__/__/models/pb_remote/src/pb_remote_server.c.obj
 .bss.m_packet  0x20003861       0x41 examples/pb_remote/server/CMakeFiles/pb_remote_server_nrf52832_xxAA_s132_5.0.0.dir/__/__/__/models/pb_remote/src/pb_remote_server.c.obj
 *fill*         0x200038a2        0x2 
 .bss.m_pbr_server_alt_event_queue
                0x200038a4       0x14 examples/pb_remote/server/CMakeFiles/pb_remote_server_nrf52832_xxAA_s132_5.0.0.dir/__/__/__/models/pb_remote/src/pb_remote_server.c.obj
 .bss.m_pbr_server_alt_event_queue_buffer
                0x200038b8       0x90 examples/pb_remote/server/CMakeFiles/pb_remote_server_nrf52832_xxAA_s132_5.0.0.dir/__/__/__/models/pb_remote/src/pb_remote_server.c.obj
 .bss.m_pbr_server_event_queue
                0x20003948       0x14 examples/pb_remote/server/CMakeFiles/pb_remote_server_nrf52832_xxAA_s132_5.0.0.dir/__/__/__/models/pb_remote/src/pb_remote_server.c.obj
 .bss.m_pbr_server_event_queue_buffer
                0x2000395c       0x90 examples/pb_remote/server/CMakeFiles/pb_remote_server_nrf52832_xxAA_s132_5.0.0.dir/__/__/__/models/pb_remote/src/pb_remote_server.c.obj
 .bss.m_uuid_list
                0x200039ec       0x33 examples/pb_remote/server/CMakeFiles/pb_remote_server_nrf52832_xxAA_s132_5.0.0.dir/__/__/__/models/pb_remote/src/pb_remote_server.c.obj
 *fill*         0x20003a1f        0x1 
 .bss.mp_pb_remote_server_model
                0x20003a20        0x4 examples/pb_remote/server/CMakeFiles/pb_remote_server_nrf52832_xxAA_s132_5.0.0.dir/__/__/__/models/pb_remote/src/pb_remote_server.c.obj
 .bss.m_publish_timer
                0x20003a24       0x18 examples/pb_remote/server/CMakeFiles/pb_remote_server_nrf52832_xxAA_s132_5.0.0.dir/__/__/__/mesh/access/src/access_publish.c.obj
 .bss.m_publish_timer_counter
                0x20003a3c        0x4 examples/pb_remote/server/CMakeFiles/pb_remote_server_nrf52832_xxAA_s132_5.0.0.dir/__/__/__/mesh/access/src/access_publish.c.obj
 .bss.m_publish_timer_running
                0x20003a40        0x1 examples/pb_remote/server/CMakeFiles/pb_remote_server_nrf52832_xxAA_s132_5.0.0.dir/__/__/__/mesh/access/src/access_publish.c.obj
 .bss.m_timer_resolution
                0x20003a41        0x1 examples/pb_remote/server/CMakeFiles/pb_remote_server_nrf52832_xxAA_s132_5.0.0.dir/__/__/__/mesh/access/src/access_publish.c.obj
 *fill*         0x20003a42        0x2 
 .bss.mp_publication_list
                0x20003a44        0x4 examples/pb_remote/server/CMakeFiles/pb_remote_server_nrf52832_xxAA_s132_5.0.0.dir/__/__/__/mesh/access/src/access_publish.c.obj
 .bss.m_element_pool
                0x20003a48        0x6 examples/pb_remote/server/CMakeFiles/pb_remote_server_nrf52832_xxAA_s132_5.0.0.dir/__/__/__/mesh/access/src/access.c.obj
 *fill*         0x20003a4e        0x2 
 .bss.m_evt_handler
                0x20003a50        0x8 examples/pb_remote/server/CMakeFiles/pb_remote_server_nrf52832_xxAA_s132_5.0.0.dir/__/__/__/mesh/access/src/access.c.obj
 .bss.m_flash_manager
                0x20003a58       0x24 examples/pb_remote/server/CMakeFiles/pb_remote_server_nrf52832_xxAA_s132_5.0.0.dir/__/__/__/mesh/access/src/access.c.obj
 .bss.m_flash_not_ready
                0x20003a7c        0x1 examples/pb_remote/server/CMakeFiles/pb_remote_server_nrf52832_xxAA_s132_5.0.0.dir/__/__/__/mesh/access/src/access.c.obj
 *fill*         0x20003a7d        0x3 
 .bss.m_model_pool
                0x20003a80       0x68 examples/pb_remote/server/CMakeFiles/pb_remote_server_nrf52832_xxAA_s132_5.0.0.dir/__/__/__/mesh/access/src/access.c.obj
 .bss.m_subscription_list_pool
                0x20003ae8       0x10 examples/pb_remote/server/CMakeFiles/pb_remote_server_nrf52832_xxAA_s132_5.0.0.dir/__/__/__/mesh/access/src/access.c.obj
 .bss.m_reliable
                0x20003af8       0x6c examples/pb_remote/server/CMakeFiles/pb_remote_server_nrf52832_xxAA_s132_5.0.0.dir/__/__/__/mesh/access/src/access_reliable.c.obj
 .bss.m_addr_nonvirtual_allocated
                0x20003b64        0x4 examples/pb_remote/server/CMakeFiles/pb_remote_server_nrf52832_xxAA_s132_5.0.0.dir/__/__/__/mesh/access/src/device_state_manager.c.obj
 .bss.m_addr_nonvirtual_needs_flashing
                0x20003b68        0x4 examples/pb_remote/server/CMakeFiles/pb_remote_server_nrf52832_xxAA_s132_5.0.0.dir/__/__/__/mesh/access/src/device_state_manager.c.obj
 .bss.m_addr_unicast_allocated
                0x20003b6c        0x4 examples/pb_remote/server/CMakeFiles/pb_remote_server_nrf52832_xxAA_s132_5.0.0.dir/__/__/__/mesh/access/src/device_state_manager.c.obj
 .bss.m_addr_unicast_needs_flashing
                0x20003b70        0x4 examples/pb_remote/server/CMakeFiles/pb_remote_server_nrf52832_xxAA_s132_5.0.0.dir/__/__/__/mesh/access/src/device_state_manager.c.obj
 .bss.m_addr_virtual_allocated
                0x20003b74        0x4 examples/pb_remote/server/CMakeFiles/pb_remote_server_nrf52832_xxAA_s132_5.0.0.dir/__/__/__/mesh/access/src/device_state_manager.c.obj
 .bss.m_addr_virtual_needs_flashing
                0x20003b78        0x4 examples/pb_remote/server/CMakeFiles/pb_remote_server_nrf52832_xxAA_s132_5.0.0.dir/__/__/__/mesh/access/src/device_state_manager.c.obj
 .bss.m_addresses
                0x20003b7c       0x10 examples/pb_remote/server/CMakeFiles/pb_remote_server_nrf52832_xxAA_s132_5.0.0.dir/__/__/__/mesh/access/src/device_state_manager.c.obj
 .bss.m_appkey_allocated
                0x20003b8c        0x4 examples/pb_remote/server/CMakeFiles/pb_remote_server_nrf52832_xxAA_s132_5.0.0.dir/__/__/__/mesh/access/src/device_state_manager.c.obj
 .bss.m_appkey_needs_flashing
                0x20003b90        0x4 examples/pb_remote/server/CMakeFiles/pb_remote_server_nrf52832_xxAA_s132_5.0.0.dir/__/__/__/mesh/access/src/device_state_manager.c.obj
 .bss.m_appkeys
                0x20003b94       0x16 examples/pb_remote/server/CMakeFiles/pb_remote_server_nrf52832_xxAA_s132_5.0.0.dir/__/__/__/mesh/access/src/device_state_manager.c.obj
 *fill*         0x20003baa        0x2 
 .bss.m_devkey_allocated
                0x20003bac        0x4 examples/pb_remote/server/CMakeFiles/pb_remote_server_nrf52832_xxAA_s132_5.0.0.dir/__/__/__/mesh/access/src/device_state_manager.c.obj
 .bss.m_devkey_needs_flashing
                0x20003bb0        0x4 examples/pb_remote/server/CMakeFiles/pb_remote_server_nrf52832_xxAA_s132_5.0.0.dir/__/__/__/mesh/access/src/device_state_manager.c.obj
 .bss.m_devkeys
                0x20003bb4       0x16 examples/pb_remote/server/CMakeFiles/pb_remote_server_nrf52832_xxAA_s132_5.0.0.dir/__/__/__/mesh/access/src/device_state_manager.c.obj
 .bss.m_flash_is_available
                0x20003bca        0x1 examples/pb_remote/server/CMakeFiles/pb_remote_server_nrf52832_xxAA_s132_5.0.0.dir/__/__/__/mesh/access/src/device_state_manager.c.obj
 *fill*         0x20003bcb        0x1 
 .bss.m_flash_manager
                0x20003bcc       0x24 examples/pb_remote/server/CMakeFiles/pb_remote_server_nrf52832_xxAA_s132_5.0.0.dir/__/__/__/mesh/access/src/device_state_manager.c.obj
 .bss.m_flash_mem_listener_update_all
                0x20003bf0       0x10 examples/pb_remote/server/CMakeFiles/pb_remote_server_nrf52832_xxAA_s132_5.0.0.dir/__/__/__/mesh/access/src/device_state_manager.c.obj
 .bss.m_has_primary_subnet
                0x20003c00        0x1 examples/pb_remote/server/CMakeFiles/pb_remote_server_nrf52832_xxAA_s132_5.0.0.dir/__/__/__/mesh/access/src/device_state_manager.c.obj
 *fill*         0x20003c01        0x1 
 .bss.m_local_unicast_addr
                0x20003c02        0x4 examples/pb_remote/server/CMakeFiles/pb_remote_server_nrf52832_xxAA_s132_5.0.0.dir/__/__/__/mesh/access/src/device_state_manager.c.obj
 *fill*         0x20003c06        0x2 
 .bss.m_subnet_allocated
                0x20003c08        0x4 examples/pb_remote/server/CMakeFiles/pb_remote_server_nrf52832_xxAA_s132_5.0.0.dir/__/__/__/mesh/access/src/device_state_manager.c.obj
 .bss.m_subnet_needs_flashing
                0x20003c0c        0x4 examples/pb_remote/server/CMakeFiles/pb_remote_server_nrf52832_xxAA_s132_5.0.0.dir/__/__/__/mesh/access/src/device_state_manager.c.obj
 .bss.m_subnets
                0x20003c10       0x5c examples/pb_remote/server/CMakeFiles/pb_remote_server_nrf52832_xxAA_s132_5.0.0.dir/__/__/__/mesh/access/src/device_state_manager.c.obj
 .bss.m_virtual_addresses
                0x20003c6c       0x14 examples/pb_remote/server/CMakeFiles/pb_remote_server_nrf52832_xxAA_s132_5.0.0.dir/__/__/__/mesh/access/src/device_state_manager.c.obj
 .bss.m_uuid    0x20003c80       0x10 mesh/core/libmesh_core_nrf52832_xxAA.a(nrf_mesh_configure.c.obj)
 .bss.mp_evt_handlers_head
                0x20003c90        0x4 mesh/core/libmesh_core_nrf52832_xxAA.a(event.c.obj)
 .bss.lock_count.9906
                0x20003c94        0x4 mesh/core/libmesh_core_nrf52832_xxAA.a(net_state.c.obj)
 .bss.m_flash_manager
                0x20003c98       0x24 mesh/core/libmesh_core_nrf52832_xxAA.a(net_state.c.obj)
 .bss.m_iv_update_timer
                0x20003cbc       0x18 mesh/core/libmesh_core_nrf52832_xxAA.a(net_state.c.obj)
 .bss.m_net_state
                0x20003cd4       0x14 mesh/core/libmesh_core_nrf52832_xxAA.a(net_state.c.obj)
 .bss.m_seqnum_allocation_in_progress
                0x20003ce8        0x1 mesh/core/libmesh_core_nrf52832_xxAA.a(net_state.c.obj)
 .bss.m_test_mode
                0x20003ce9        0x1 mesh/core/libmesh_core_nrf52832_xxAA.a(net_state.c.obj)
 .bss.m_is_enabled
                0x20003cea        0x1 mesh/core/libmesh_core_nrf52832_xxAA.a(nrf_mesh.c.obj)
 .bss.m_is_initialized
                0x20003ceb        0x1 mesh/core/libmesh_core_nrf52832_xxAA.a(nrf_mesh.c.obj)
 .bss.m_rx_cb   0x20003cec        0x4 mesh/core/libmesh_core_nrf52832_xxAA.a(nrf_mesh.c.obj)
 .bss.m_event_flag
                0x20003cf0        0x4 mesh/core/libmesh_core_nrf52832_xxAA.a(timer_scheduler.c.obj)
 .bss.m_scheduler
                0x20003cf4       0x10 mesh/core/libmesh_core_nrf52832_xxAA.a(timer_scheduler.c.obj)
 .bss.m_attributes
                0x20003d04        0x3 mesh/core/libmesh_core_nrf52832_xxAA.a(timer.c.obj)
 *fill*         0x20003d07        0x1 
 .bss.m_callbacks
                0x20003d08        0xc mesh/core/libmesh_core_nrf52832_xxAA.a(timer.c.obj)
 .bss.m_is_in_ts
                0x20003d14        0x1 mesh/core/libmesh_core_nrf52832_xxAA.a(timer.c.obj)
 *fill*         0x20003d15        0x3 
 .bss.m_reference_time
                0x20003d18        0x4 mesh/core/libmesh_core_nrf52832_xxAA.a(timer.c.obj)
 .bss.m_timeouts
                0x20003d1c        0xc mesh/core/libmesh_core_nrf52832_xxAA.a(timer.c.obj)
 .bss.m_timer_mut
                0x20003d28        0x4 mesh/core/libmesh_core_nrf52832_xxAA.a(timer.c.obj)
 .bss.m_ts_end_time
                0x20003d2c        0x4 mesh/core/libmesh_core_nrf52832_xxAA.a(timer.c.obj)
 .bss.mp_ppi_tasks
                0x20003d30        0xc mesh/core/libmesh_core_nrf52832_xxAA.a(timer.c.obj)
 .bss.m_current_time
                0x20003d3c        0x4 mesh/core/libmesh_core_nrf52832_xxAA.a(ticker.c.obj)
 .bss.m_timer   0x20003d40       0x18 mesh/core/libmesh_core_nrf52832_xxAA.a(ticker.c.obj)
 .bss.m_current_timeslot
                0x20003d58       0x1c mesh/core/libmesh_core_nrf52832_xxAA.a(timeslot.c.obj)
 .bss.m_lfclk_ppm
                0x20003d74        0x4 mesh/core/libmesh_core_nrf52832_xxAA.a(timeslot.c.obj)
 .bss.m_radio_request_earliest
                0x20003d78       0x10 mesh/core/libmesh_core_nrf52832_xxAA.a(timeslot.c.obj)
 .bss.m_state_lock
                0x20003d88        0x1 mesh/core/libmesh_core_nrf52832_xxAA.a(timeslot.c.obj)
 .bss.m_timeslot_forced_command
                0x20003d89        0x1 mesh/core/libmesh_core_nrf52832_xxAA.a(timeslot.c.obj)
 *fill*         0x20003d8a        0x6 
 .bss.s_last_rtc_value.9171
                0x20003d90        0x8 mesh/core/libmesh_core_nrf52832_xxAA.a(timeslot.c.obj)
 .bss.m_bearer_event_fifo
                0x20003d98       0x14 mesh/core/libmesh_core_nrf52832_xxAA.a(bearer_event.c.obj)
 .bss.m_bearer_event_fifo_buffer
                0x20003dac      0x100 mesh/core/libmesh_core_nrf52832_xxAA.a(bearer_event.c.obj)
 .bss.m_critical
                0x20003eac        0x4 mesh/core/libmesh_core_nrf52832_xxAA.a(bearer_event.c.obj)
 .bss.m_flag_count
                0x20003eb0        0x4 mesh/core/libmesh_core_nrf52832_xxAA.a(bearer_event.c.obj)
 .bss.m_flag_event_callbacks
                0x20003eb4       0x18 mesh/core/libmesh_core_nrf52832_xxAA.a(bearer_event.c.obj)
 .bss.m_flags   0x20003ecc        0x4 mesh/core/libmesh_core_nrf52832_xxAA.a(bearer_event.c.obj)
 .bss.m_sequential_event_queue
                0x20003ed0        0x8 mesh/core/libmesh_core_nrf52832_xxAA.a(bearer_event.c.obj)
 .bss.m_relay_check_cb
                0x20003ed8        0x4 mesh/core/libmesh_core_nrf52832_xxAA.a(network.c.obj)
 .bss.m_relay_enable
                0x20003edc        0x1 mesh/core/libmesh_core_nrf52832_xxAA.a(network.c.obj)
 *fill*         0x20003edd        0x3 
 .bss.m_action_queue
                0x20003ee0        0xc mesh/core/libmesh_core_nrf52832_xxAA.a(flash_manager.c.obj)
 .bss.m_action_queue_buffer
                0x20003eec      0x104 mesh/core/libmesh_core_nrf52832_xxAA.a(flash_manager.c.obj)
 .bss.m_action_state
                0x20003ff0        0x1 mesh/core/libmesh_core_nrf52832_xxAA.a(flash_manager.c.obj)
 *fill*         0x20003ff1        0x3 
 .bss.m_memory_listener_queue
                0x20003ff4        0x8 mesh/core/libmesh_core_nrf52832_xxAA.a(flash_manager.c.obj)
 .bss.m_processing_flag
                0x20003ffc        0x4 mesh/core/libmesh_core_nrf52832_xxAA.a(flash_manager.c.obj)
 .bss.m_state   0x20004000        0x1 mesh/core/libmesh_core_nrf52832_xxAA.a(flash_manager.c.obj)
 *fill*         0x20004001        0x1 
 .bss.m_token   0x20004002        0x2 mesh/core/libmesh_core_nrf52832_xxAA.a(flash_manager.c.obj)
 .bss.p_current.11023
                0x20004004        0x4 mesh/core/libmesh_core_nrf52832_xxAA.a(flash_manager.c.obj)
 .bss.result.11024
                0x20004008        0x1 mesh/core/libmesh_core_nrf52832_xxAA.a(flash_manager.c.obj)
 *fill*         0x20004009        0x3 
 .bss.m_adv_buffer
                0x2000400c       0x68 mesh/core/libmesh_core_nrf52832_xxAA.a(beacon.c.obj)
 .bss.m_advertiser
                0x20004074       0x94 mesh/core/libmesh_core_nrf52832_xxAA.a(beacon.c.obj)
 .bss.m_adv_tx_count
                0x20004108        0x8 mesh/core/libmesh_core_nrf52832_xxAA.a(core_tx.c.obj)
 .bss.m_advertisers
                0x20004110      0x128 mesh/core/libmesh_core_nrf52832_xxAA.a(core_tx.c.obj)
 .bss.m_originator_adv_packet_buffer
                0x20004238      0x100 mesh/core/libmesh_core_nrf52832_xxAA.a(core_tx.c.obj)
 .bss.m_relay_adv_packet_buffer
                0x20004338       0x80 mesh/core/libmesh_core_nrf52832_xxAA.a(core_tx.c.obj)
 .bss.m_tx_complete_callback
                0x200043b8        0x4 mesh/core/libmesh_core_nrf52832_xxAA.a(core_tx.c.obj)
 .bss.m_beacon_salt
                0x200043bc       0x10 mesh/core/libmesh_core_nrf52832_xxAA.a(net_beacon.c.obj)
 .bss.m_enabled
                0x200043cc        0x1 mesh/core/libmesh_core_nrf52832_xxAA.a(net_beacon.c.obj)
 *fill*         0x200043cd        0x3 
 .bss.m_tx_event
                0x200043d0       0x18 mesh/core/libmesh_core_nrf52832_xxAA.a(net_beacon.c.obj)
 .bss.m_adv_prng
                0x200043e8       0x10 mesh/core/libmesh_core_nrf52832_xxAA.a(advertiser.c.obj)
 .bss.m_action_queue
                0x200043f8        0x8 mesh/core/libmesh_core_nrf52832_xxAA.a(bearer_handler.c.obj)
 .bss.m_end_time
                0x20004400        0x4 mesh/core/libmesh_core_nrf52832_xxAA.a(bearer_handler.c.obj)
 .bss.m_scanner_is_active
                0x20004404        0x1 mesh/core/libmesh_core_nrf52832_xxAA.a(bearer_handler.c.obj)
 .bss.m_stopped
                0x20004405        0x1 mesh/core/libmesh_core_nrf52832_xxAA.a(bearer_handler.c.obj)
 *fill*         0x20004406        0x2 
 .bss.mp_action
                0x20004408        0x4 mesh/core/libmesh_core_nrf52832_xxAA.a(bearer_handler.c.obj)
 .bss.m_next_channel_index
                0x2000440c        0x1 mesh/core/libmesh_core_nrf52832_xxAA.a(broadcast.c.obj)
 *fill*         0x2000440d        0x3 
 .bss.m_scanner
                0x20004410      0x284 mesh/core/libmesh_core_nrf52832_xxAA.a(scanner.c.obj)
 .bss.m_internal_event_fifo
                0x20004694       0x14 mesh/core/libmesh_core_nrf52832_xxAA.a(internal_event.c.obj)
 .bss.m_internal_event_initialized
                0x200046a8        0x1 mesh/core/libmesh_core_nrf52832_xxAA.a(internal_event.c.obj)
 *fill*         0x200046a9        0x3 
 .bss.m_report_cb
                0x200046ac        0x4 mesh/core/libmesh_core_nrf52832_xxAA.a(internal_event.c.obj)
 .bss.m_msg_cache
                0x200046b0      0x100 mesh/core/libmesh_core_nrf52832_xxAA.a(msg_cache.c.obj)
 .bss.m_msg_cache_head
                0x200047b0        0x4 mesh/core/libmesh_core_nrf52832_xxAA.a(msg_cache.c.obj)
 .bss.m_sar_alloc
                0x200047b4        0x4 mesh/core/libmesh_core_nrf52832_xxAA.a(transport.c.obj)
 .bss.m_sar_process_flag
                0x200047b8        0x4 mesh/core/libmesh_core_nrf52832_xxAA.a(transport.c.obj)
 .bss.m_sar_release
                0x200047bc        0x4 mesh/core/libmesh_core_nrf52832_xxAA.a(transport.c.obj)
 .bss.m_sar_session_cache
                0x200047c0       0x40 mesh/core/libmesh_core_nrf52832_xxAA.a(transport.c.obj)
 .bss.m_sar_session_cache_head
                0x20004800        0x4 mesh/core/libmesh_core_nrf52832_xxAA.a(transport.c.obj)
 .bss.m_trs_config
                0x20004804       0x18 mesh/core/libmesh_core_nrf52832_xxAA.a(transport.c.obj)
 .bss.m_trs_sar_sessions
                0x2000481c      0x1b0 mesh/core/libmesh_core_nrf52832_xxAA.a(transport.c.obj)
 .bss.m_defrag  0x200049cc       0x1c mesh/core/libmesh_core_nrf52832_xxAA.a(flash_manager_defrag.c.obj)
 .bss.m_token   0x200049e8        0x2 mesh/core/libmesh_core_nrf52832_xxAA.a(flash_manager_defrag.c.obj)
 *fill*         0x200049ea        0x2 
 .bss.mp_recovery_area
                0x200049ec        0x4 mesh/core/libmesh_core_nrf52832_xxAA.a(flash_manager_defrag.c.obj)
 .bss.p_null_ptr.10076
                0x200049f0        0x4 mesh/core/libmesh_core_nrf52832_xxAA.a(flash_manager_defrag.c.obj)
 .bss.m_pool    0x200049f4     0x1000 mesh/core/libmesh_core_nrf52832_xxAA.a(packet_mgr.c.obj)
 .bss.mp_free_head
                0x200059f4        0x4 mesh/core/libmesh_core_nrf52832_xxAA.a(packet_mgr.c.obj)
 .bss.m_event_flag
                0x200059f8        0x4 mesh/core/libmesh_core_nrf52832_xxAA.a(mesh_flash.c.obj)
 .bss.m_suspended
                0x200059fc        0x1 mesh/core/libmesh_core_nrf52832_xxAA.a(mesh_flash.c.obj)
 *fill*         0x200059fd        0x3 
 .bss.m_users   0x20005a00      0x228 mesh/core/libmesh_core_nrf52832_xxAA.a(mesh_flash.c.obj)
 .bss.m_128buf  0x20005c28       0x10 mesh/core/libmesh_core_nrf52832_xxAA.a(aes_cmac.c.obj)
 .bss.m_subkey1
                0x20005c38       0x10 mesh/core/libmesh_core_nrf52832_xxAA.a(aes_cmac.c.obj)
 .bss.m_subkey2
                0x20005c48       0x10 mesh/core/libmesh_core_nrf52832_xxAA.a(aes_cmac.c.obj)
 .bss.m_cache_full
                0x20005c58        0x1 mesh/core/libmesh_core_nrf52832_xxAA.a(replay_cache.c.obj)
 .bss.m_cache_index
                0x20005c59        0x1 mesh/core/libmesh_core_nrf52832_xxAA.a(replay_cache.c.obj)
 *fill*         0x20005c5a        0x2 
 .bss.m_replay_cache
                0x20005c5c      0x200 mesh/core/libmesh_core_nrf52832_xxAA.a(replay_cache.c.obj)
 .bss.m_accepted_amount
                0x20005e5c        0x4 mesh/core/libmesh_core_nrf52832_xxAA.a(filter_engine.c.obj)
 .bss.m_filter_list_head
                0x20005e60        0x4 mesh/core/libmesh_core_nrf52832_xxAA.a(filter_engine.c.obj)
 .bss._acDownBuffer
                0x20005e64       0x80 external/rtt/librtt_nrf52832_xxAA.a(SEGGER_RTT.c.obj)
 .bss._acUpBuffer
                0x20005ee4      0x400 external/rtt/librtt_nrf52832_xxAA.a(SEGGER_RTT.c.obj)
 .bss.__malloc_free_list
                0x200062e4        0x4 c:/a/gcc_arm/6/bin/../lib/gcc/arm-none-eabi/6.3.1/../../../../arm-none-eabi/lib/thumb/v7e-m/fpv4-sp/hard\libc_nano.a(lib_a-nano-mallocr.o)
                0x200062e4                __malloc_free_list
 .bss.__malloc_sbrk_start
                0x200062e8        0x4 c:/a/gcc_arm/6/bin/../lib/gcc/arm-none-eabi/6.3.1/../../../../arm-none-eabi/lib/thumb/v7e-m/fpv4-sp/hard\libc_nano.a(lib_a-nano-mallocr.o)
                0x200062e8                __malloc_sbrk_start
 .bss.heap_end.5239
                0x200062ec        0x4 c:/a/gcc_arm/6/bin/../lib/gcc/arm-none-eabi/6.3.1/../../../../arm-none-eabi/lib/thumb/v7e-m/fpv4-sp/hard\libnosys.a(sbrk.o)
 *(COMMON)
 COMMON         0x200062f0        0xc examples/pb_remote/server/CMakeFiles/pb_remote_server_nrf52832_xxAA_s132_5.0.0.dir/__/__/nrf_mesh_sdk.c.obj
                0x200062f0                nrf_nvic_state
 COMMON         0x200062fc        0x4 mesh/core/libmesh_core_nrf52832_xxAA.a(nrf_mesh.c.obj)
                0x200062fc                m_assertion_handler
 COMMON         0x20006300       0x78 external/rtt/librtt_nrf52832_xxAA.a(SEGGER_RTT.c.obj)
                0x20006300                _SEGGER_RTT
 COMMON         0x20006378        0x4 c:/a/gcc_arm/6/bin/../lib/gcc/arm-none-eabi/6.3.1/../../../../arm-none-eabi/lib/thumb/v7e-m/fpv4-sp/hard\libc_nano.a(lib_a-reent.o)
                0x20006378                errno
                0x2000637c                . = ALIGN (0x4)
                0x2000637c                __bss_end__ = .

.heap           0x20006380     0x2000
                0x20006380                __HeapBase = .
                0x20006380                __end__ = .
                0x20006380                PROVIDE (end, .)
 *(.heap*)
 .heap          0x20006380     0x2000 examples/pb_remote/server/CMakeFiles/pb_remote_server_nrf52832_xxAA_s132_5.0.0.dir/__/__/__/external/nRF5_SDK_14.0.0_3bcc1f7/components/toolchain/gcc/gcc_startup_nrf52.S.obj
                0x20008380                __HeapLimit = .

.stack_dummy    0x20006380     0x2000
 *(.stack*)
 .stack         0x20006380     0x2000 examples/pb_remote/server/CMakeFiles/pb_remote_server_nrf52832_xxAA_s132_5.0.0.dir/__/__/__/external/nRF5_SDK_14.0.0_3bcc1f7/components/toolchain/gcc/gcc_startup_nrf52.S.obj
                0x20010000                __StackTop = (ORIGIN (RAM) + LENGTH (RAM))
                0x2000e000                __StackLimit = (__StackTop - SIZEOF (.stack_dummy))
                0x20010000                PROVIDE (__stack, __StackTop)
                0x00000001                ASSERT ((__StackLimit >= __HeapLimit), region RAM overflowed with stack)
OUTPUT(examples\pb_remote\server\pb_remote_server_nrf52832_xxAA_s132_5.0.0.elf elf32-littlearm)

.ARM.attributes
                0x00000000       0x30
 .ARM.attributes
                0x00000000       0x22 c:/a/gcc_arm/6/bin/../lib/gcc/arm-none-eabi/6.3.1/thumb/v7e-m/fpv4-sp/hard/crti.o
 .ARM.attributes
                0x00000022       0x34 c:/a/gcc_arm/6/bin/../lib/gcc/arm-none-eabi/6.3.1/thumb/v7e-m/fpv4-sp/hard/crtbegin.o
 .ARM.attributes
                0x00000056       0x20 c:/a/gcc_arm/6/bin/../lib/gcc/arm-none-eabi/6.3.1/../../../../arm-none-eabi/lib/thumb/v7e-m/fpv4-sp/hard/crt0.o
 .ARM.attributes
                0x00000076       0x39 examples/pb_remote/server/CMakeFiles/pb_remote_server_nrf52832_xxAA_s132_5.0.0.dir/src/main.c.obj
 .ARM.attributes
                0x000000af       0x39 examples/pb_remote/server/CMakeFiles/pb_remote_server_nrf52832_xxAA_s132_5.0.0.dir/__/__/nrf_mesh_sdk.c.obj
 .ARM.attributes
                0x000000e8       0x39 examples/pb_remote/server/CMakeFiles/pb_remote_server_nrf52832_xxAA_s132_5.0.0.dir/__/__/nrf_mesh_weak.c.obj
 .ARM.attributes
                0x00000121       0x39 examples/pb_remote/server/CMakeFiles/pb_remote_server_nrf52832_xxAA_s132_5.0.0.dir/__/__/__/mesh/prov/src/prov_provisionee.c.obj
 .ARM.attributes
                0x0000015a       0x39 examples/pb_remote/server/CMakeFiles/pb_remote_server_nrf52832_xxAA_s132_5.0.0.dir/__/__/__/mesh/prov/src/nrf_mesh_prov.c.obj
 .ARM.attributes
                0x00000193       0x39 examples/pb_remote/server/CMakeFiles/pb_remote_server_nrf52832_xxAA_s132_5.0.0.dir/__/__/__/mesh/prov/src/provisioning.c.obj
 .ARM.attributes
                0x000001cc       0x39 examples/pb_remote/server/CMakeFiles/pb_remote_server_nrf52832_xxAA_s132_5.0.0.dir/__/__/__/mesh/prov/src/prov_beacon.c.obj
 .ARM.attributes
                0x00000205       0x39 examples/pb_remote/server/CMakeFiles/pb_remote_server_nrf52832_xxAA_s132_5.0.0.dir/__/__/__/mesh/prov/src/prov_utils.c.obj
 .ARM.attributes
                0x0000023e       0x39 examples/pb_remote/server/CMakeFiles/pb_remote_server_nrf52832_xxAA_s132_5.0.0.dir/__/__/__/mesh/prov/src/prov_bearer_adv.c.obj
 .ARM.attributes
                0x00000277       0x39 examples/pb_remote/server/CMakeFiles/pb_remote_server_nrf52832_xxAA_s132_5.0.0.dir/__/__/__/models/pb_remote/src/pb_remote_server.c.obj
 .ARM.attributes
                0x000002b0       0x39 examples/pb_remote/server/CMakeFiles/pb_remote_server_nrf52832_xxAA_s132_5.0.0.dir/__/__/__/mesh/access/src/access_publish.c.obj
 .ARM.attributes
                0x000002e9       0x39 examples/pb_remote/server/CMakeFiles/pb_remote_server_nrf52832_xxAA_s132_5.0.0.dir/__/__/__/mesh/access/src/access.c.obj
 .ARM.attributes
                0x00000322       0x39 examples/pb_remote/server/CMakeFiles/pb_remote_server_nrf52832_xxAA_s132_5.0.0.dir/__/__/__/mesh/access/src/access_reliable.c.obj
 .ARM.attributes
                0x0000035b       0x39 examples/pb_remote/server/CMakeFiles/pb_remote_server_nrf52832_xxAA_s132_5.0.0.dir/__/__/__/mesh/access/src/device_state_manager.c.obj
 .ARM.attributes
                0x00000394       0x39 examples/pb_remote/server/CMakeFiles/pb_remote_server_nrf52832_xxAA_s132_5.0.0.dir/__/__/__/external/nRF5_SDK_14.0.0_3bcc1f7/components/toolchain/system_nrf52.c.obj
 .ARM.attributes
                0x000003cd       0x20 examples/pb_remote/server/CMakeFiles/pb_remote_server_nrf52832_xxAA_s132_5.0.0.dir/__/__/__/external/nRF5_SDK_14.0.0_3bcc1f7/components/toolchain/gcc/gcc_startup_nrf52.S.obj
 .ARM.attributes
                0x000003ed       0x39 mesh/core/libmesh_core_nrf52832_xxAA.a(nrf_mesh_configure.c.obj)
 .ARM.attributes
                0x00000426       0x39 mesh/core/libmesh_core_nrf52832_xxAA.a(event.c.obj)
 .ARM.attributes
                0x0000045f       0x39 mesh/core/libmesh_core_nrf52832_xxAA.a(fifo.c.obj)
 .ARM.attributes
                0x00000498       0x39 mesh/core/libmesh_core_nrf52832_xxAA.a(net_state.c.obj)
 .ARM.attributes
                0x000004d1       0x39 mesh/core/libmesh_core_nrf52832_xxAA.a(nrf_mesh_utils.c.obj)
 .ARM.attributes
                0x0000050a       0x39 mesh/core/libmesh_core_nrf52832_xxAA.a(nrf_mesh.c.obj)
 .ARM.attributes
                0x00000543       0x39 mesh/core/libmesh_core_nrf52832_xxAA.a(hal.c.obj)
 .ARM.attributes
                0x0000057c       0x39 mesh/core/libmesh_core_nrf52832_xxAA.a(timer_scheduler.c.obj)
 .ARM.attributes
                0x000005b5       0x39 mesh/core/libmesh_core_nrf52832_xxAA.a(timer.c.obj)
 .ARM.attributes
                0x000005ee       0x39 mesh/core/libmesh_core_nrf52832_xxAA.a(ticker.c.obj)
 .ARM.attributes
                0x00000627       0x39 mesh/core/libmesh_core_nrf52832_xxAA.a(rand.c.obj)
 .ARM.attributes
                0x00000660       0x39 mesh/core/libmesh_core_nrf52832_xxAA.a(timeslot.c.obj)
 .ARM.attributes
                0x00000699       0x39 mesh/core/libmesh_core_nrf52832_xxAA.a(bearer_event.c.obj)
 .ARM.attributes
                0x000006d2       0x39 mesh/core/libmesh_core_nrf52832_xxAA.a(enc.c.obj)
 .ARM.attributes
                0x0000070b       0x39 mesh/core/libmesh_core_nrf52832_xxAA.a(network.c.obj)
 .ARM.attributes
                0x00000744       0x39 mesh/core/libmesh_core_nrf52832_xxAA.a(nrf_mesh_keygen.c.obj)
 .ARM.attributes
                0x0000077d       0x39 mesh/core/libmesh_core_nrf52832_xxAA.a(log.c.obj)
 .ARM.attributes
                0x000007b6       0x39 mesh/core/libmesh_core_nrf52832_xxAA.a(flash_manager.c.obj)
 .ARM.attributes
                0x000007ef       0x39 mesh/core/libmesh_core_nrf52832_xxAA.a(ccm_soft.c.obj)
 .ARM.attributes
                0x00000828       0x39 mesh/core/libmesh_core_nrf52832_xxAA.a(beacon.c.obj)
 .ARM.attributes
                0x00000861       0x39 mesh/core/libmesh_core_nrf52832_xxAA.a(flash_manager_internal.c.obj)
 .ARM.attributes
                0x0000089a       0x39 mesh/core/libmesh_core_nrf52832_xxAA.a(core_tx.c.obj)
 .ARM.attributes
                0x000008d3       0x39 mesh/core/libmesh_core_nrf52832_xxAA.a(net_beacon.c.obj)
 .ARM.attributes
                0x0000090c       0x39 mesh/core/libmesh_core_nrf52832_xxAA.a(advertiser.c.obj)
 .ARM.attributes
                0x00000945       0x39 mesh/core/libmesh_core_nrf52832_xxAA.a(bearer_handler.c.obj)
 .ARM.attributes
                0x0000097e       0x39 mesh/core/libmesh_core_nrf52832_xxAA.a(broadcast.c.obj)
 .ARM.attributes
                0x000009b7       0x39 mesh/core/libmesh_core_nrf52832_xxAA.a(radio_config.c.obj)
 .ARM.attributes
                0x000009f0       0x39 mesh/core/libmesh_core_nrf52832_xxAA.a(scanner.c.obj)
 .ARM.attributes
                0x00000a29       0x39 mesh/core/libmesh_core_nrf52832_xxAA.a(internal_event.c.obj)
 .ARM.attributes
                0x00000a62       0x39 mesh/core/libmesh_core_nrf52832_xxAA.a(aes.c.obj)
 .ARM.attributes
                0x00000a9b       0x39 mesh/core/libmesh_core_nrf52832_xxAA.a(msg_cache.c.obj)
 .ARM.attributes
                0x00000ad4       0x39 mesh/core/libmesh_core_nrf52832_xxAA.a(transport.c.obj)
 .ARM.attributes
                0x00000b0d       0x39 mesh/core/libmesh_core_nrf52832_xxAA.a(packet_buffer.c.obj)
 .ARM.attributes
                0x00000b46       0x39 mesh/core/libmesh_core_nrf52832_xxAA.a(flash_manager_defrag.c.obj)
 .ARM.attributes
                0x00000b7f       0x39 mesh/core/libmesh_core_nrf52832_xxAA.a(packet_mgr.c.obj)
 .ARM.attributes
                0x00000bb8       0x39 mesh/core/libmesh_core_nrf52832_xxAA.a(mesh_flash.c.obj)
 .ARM.attributes
                0x00000bf1       0x39 mesh/core/libmesh_core_nrf52832_xxAA.a(queue.c.obj)
 .ARM.attributes
                0x00000c2a       0x39 mesh/core/libmesh_core_nrf52832_xxAA.a(aes_cmac.c.obj)
 .ARM.attributes
                0x00000c63       0x39 mesh/core/libmesh_core_nrf52832_xxAA.a(msqueue.c.obj)
 .ARM.attributes
                0x00000c9c       0x39 mesh/core/libmesh_core_nrf52832_xxAA.a(replay_cache.c.obj)
 .ARM.attributes
                0x00000cd5       0x39 mesh/core/libmesh_core_nrf52832_xxAA.a(filter_engine.c.obj)
 .ARM.attributes
                0x00000d0e       0x39 mesh/core/libmesh_core_nrf52832_xxAA.a(nrf_flash.c.obj)
 .ARM.attributes
                0x00000d47       0x39 external/rtt/librtt_nrf52832_xxAA.a(SEGGER_RTT.c.obj)
 .ARM.attributes
                0x00000d80       0x39 external/rtt/librtt_nrf52832_xxAA.a(SEGGER_RTT_printf.c.obj)
 .ARM.attributes
                0x00000db9       0x39 external/micro-ecc/libuECC_nrf52832_xxAA.a(uECC.c.obj)
 .ARM.attributes
                0x00000df2       0x34 c:/a/gcc_arm/6/bin/../lib/gcc/arm-none-eabi/6.3.1/../../../../arm-none-eabi/lib/thumb/v7e-m/fpv4-sp/hard\libc_nano.a(lib_a-exit.o)
 .ARM.attributes
                0x00000e26       0x34 c:/a/gcc_arm/6/bin/../lib/gcc/arm-none-eabi/6.3.1/../../../../arm-none-eabi/lib/thumb/v7e-m/fpv4-sp/hard\libc_nano.a(lib_a-impure.o)
 .ARM.attributes
                0x00000e5a       0x34 c:/a/gcc_arm/6/bin/../lib/gcc/arm-none-eabi/6.3.1/../../../../arm-none-eabi/lib/thumb/v7e-m/fpv4-sp/hard\libc_nano.a(lib_a-init.o)
 .ARM.attributes
                0x00000e8e       0x34 c:/a/gcc_arm/6/bin/../lib/gcc/arm-none-eabi/6.3.1/../../../../arm-none-eabi/lib/thumb/v7e-m/fpv4-sp/hard\libc_nano.a(lib_a-malloc.o)
 .ARM.attributes
                0x00000ec2       0x34 c:/a/gcc_arm/6/bin/../lib/gcc/arm-none-eabi/6.3.1/../../../../arm-none-eabi/lib/thumb/v7e-m/fpv4-sp/hard\libc_nano.a(lib_a-memcmp.o)
 .ARM.attributes
                0x00000ef6       0x34 c:/a/gcc_arm/6/bin/../lib/gcc/arm-none-eabi/6.3.1/../../../../arm-none-eabi/lib/thumb/v7e-m/fpv4-sp/hard\libc_nano.a(lib_a-memcpy-stub.o)
 .ARM.attributes
                0x00000f2a       0x34 c:/a/gcc_arm/6/bin/../lib/gcc/arm-none-eabi/6.3.1/../../../../arm-none-eabi/lib/thumb/v7e-m/fpv4-sp/hard\libc_nano.a(lib_a-memset.o)
 .ARM.attributes
                0x00000f5e       0x34 c:/a/gcc_arm/6/bin/../lib/gcc/arm-none-eabi/6.3.1/../../../../arm-none-eabi/lib/thumb/v7e-m/fpv4-sp/hard\libc_nano.a(lib_a-nano-freer.o)
 .ARM.attributes
                0x00000f92       0x34 c:/a/gcc_arm/6/bin/../lib/gcc/arm-none-eabi/6.3.1/../../../../arm-none-eabi/lib/thumb/v7e-m/fpv4-sp/hard\libc_nano.a(lib_a-nano-mallocr.o)
 .ARM.attributes
                0x00000fc6       0x34 c:/a/gcc_arm/6/bin/../lib/gcc/arm-none-eabi/6.3.1/../../../../arm-none-eabi/lib/thumb/v7e-m/fpv4-sp/hard\libc_nano.a(lib_a-sbrkr.o)
 .ARM.attributes
                0x00000ffa       0x34 c:/a/gcc_arm/6/bin/../lib/gcc/arm-none-eabi/6.3.1/../../../../arm-none-eabi/lib/thumb/v7e-m/fpv4-sp/hard\libc_nano.a(lib_a-strcpy.o)
 .ARM.attributes
                0x0000102e       0x1b c:/a/gcc_arm/6/bin/../lib/gcc/arm-none-eabi/6.3.1/../../../../arm-none-eabi/lib/thumb/v7e-m/fpv4-sp/hard\libc_nano.a(lib_a-strlen.o)
 .ARM.attributes
                0x00001049       0x34 c:/a/gcc_arm/6/bin/../lib/gcc/arm-none-eabi/6.3.1/../../../../arm-none-eabi/lib/thumb/v7e-m/fpv4-sp/hard\libc_nano.a(lib_a-strrchr.o)
 .ARM.attributes
                0x0000107d       0x34 c:/a/gcc_arm/6/bin/../lib/gcc/arm-none-eabi/6.3.1/../../../../arm-none-eabi/lib/thumb/v7e-m/fpv4-sp/hard\libc_nano.a(lib_a-mlock.o)
 .ARM.attributes
                0x000010b1       0x34 c:/a/gcc_arm/6/bin/../lib/gcc/arm-none-eabi/6.3.1/../../../../arm-none-eabi/lib/thumb/v7e-m/fpv4-sp/hard\libc_nano.a(lib_a-reent.o)
 .ARM.attributes
                0x000010e5       0x34 c:/a/gcc_arm/6/bin/../lib/gcc/arm-none-eabi/6.3.1/../../../../arm-none-eabi/lib/thumb/v7e-m/fpv4-sp/hard\libc_nano.a(lib_a-strchr.o)
 .ARM.attributes
                0x00001119       0x34 c:/a/gcc_arm/6/bin/../lib/gcc/arm-none-eabi/6.3.1/thumb/v7e-m/fpv4-sp/hard/crtend.o
 .ARM.attributes
                0x0000114d       0x22 c:/a/gcc_arm/6/bin/../lib/gcc/arm-none-eabi/6.3.1/thumb/v7e-m/fpv4-sp/hard/crtn.o
 .ARM.attributes
                0x0000116f       0x34 c:/a/gcc_arm/6/bin/../lib/gcc/arm-none-eabi/6.3.1/../../../../arm-none-eabi/lib/thumb/v7e-m/fpv4-sp/hard\libnosys.a(sbrk.o)
 .ARM.attributes
                0x000011a3       0x34 c:/a/gcc_arm/6/bin/../lib/gcc/arm-none-eabi/6.3.1/../../../../arm-none-eabi/lib/thumb/v7e-m/fpv4-sp/hard\libnosys.a(_exit.o)

.comment        0x00000000       0x7f
 .comment       0x00000000       0x7f examples/pb_remote/server/CMakeFiles/pb_remote_server_nrf52832_xxAA_s132_5.0.0.dir/src/main.c.obj
                                 0x80 (size before relaxing)
 .comment       0x0000007f       0x80 examples/pb_remote/server/CMakeFiles/pb_remote_server_nrf52832_xxAA_s132_5.0.0.dir/__/__/nrf_mesh_sdk.c.obj
 .comment       0x0000007f       0x80 examples/pb_remote/server/CMakeFiles/pb_remote_server_nrf52832_xxAA_s132_5.0.0.dir/__/__/nrf_mesh_weak.c.obj
 .comment       0x0000007f       0x80 examples/pb_remote/server/CMakeFiles/pb_remote_server_nrf52832_xxAA_s132_5.0.0.dir/__/__/__/mesh/prov/src/prov_provisionee.c.obj
 .comment       0x0000007f       0x80 examples/pb_remote/server/CMakeFiles/pb_remote_server_nrf52832_xxAA_s132_5.0.0.dir/__/__/__/mesh/prov/src/nrf_mesh_prov.c.obj
 .comment       0x0000007f       0x80 examples/pb_remote/server/CMakeFiles/pb_remote_server_nrf52832_xxAA_s132_5.0.0.dir/__/__/__/mesh/prov/src/provisioning.c.obj
 .comment       0x0000007f       0x80 examples/pb_remote/server/CMakeFiles/pb_remote_server_nrf52832_xxAA_s132_5.0.0.dir/__/__/__/mesh/prov/src/prov_beacon.c.obj
 .comment       0x0000007f       0x80 examples/pb_remote/server/CMakeFiles/pb_remote_server_nrf52832_xxAA_s132_5.0.0.dir/__/__/__/mesh/prov/src/prov_utils.c.obj
 .comment       0x0000007f       0x80 examples/pb_remote/server/CMakeFiles/pb_remote_server_nrf52832_xxAA_s132_5.0.0.dir/__/__/__/mesh/prov/src/prov_bearer_adv.c.obj
 .comment       0x0000007f       0x80 examples/pb_remote/server/CMakeFiles/pb_remote_server_nrf52832_xxAA_s132_5.0.0.dir/__/__/__/models/pb_remote/src/pb_remote_server.c.obj
 .comment       0x0000007f       0x80 examples/pb_remote/server/CMakeFiles/pb_remote_server_nrf52832_xxAA_s132_5.0.0.dir/__/__/__/mesh/access/src/access_publish.c.obj
 .comment       0x0000007f       0x80 examples/pb_remote/server/CMakeFiles/pb_remote_server_nrf52832_xxAA_s132_5.0.0.dir/__/__/__/mesh/access/src/access.c.obj
 .comment       0x0000007f       0x80 examples/pb_remote/server/CMakeFiles/pb_remote_server_nrf52832_xxAA_s132_5.0.0.dir/__/__/__/mesh/access/src/access_reliable.c.obj
 .comment       0x0000007f       0x80 examples/pb_remote/server/CMakeFiles/pb_remote_server_nrf52832_xxAA_s132_5.0.0.dir/__/__/__/mesh/access/src/device_state_manager.c.obj
 .comment       0x0000007f       0x80 examples/pb_remote/server/CMakeFiles/pb_remote_server_nrf52832_xxAA_s132_5.0.0.dir/__/__/__/external/nRF5_SDK_14.0.0_3bcc1f7/components/toolchain/system_nrf52.c.obj
 .comment       0x0000007f       0x80 mesh/core/libmesh_core_nrf52832_xxAA.a(nrf_mesh_configure.c.obj)
 .comment       0x0000007f       0x80 mesh/core/libmesh_core_nrf52832_xxAA.a(event.c.obj)
 .comment       0x0000007f       0x80 mesh/core/libmesh_core_nrf52832_xxAA.a(fifo.c.obj)
 .comment       0x0000007f       0x80 mesh/core/libmesh_core_nrf52832_xxAA.a(net_state.c.obj)
 .comment       0x0000007f       0x80 mesh/core/libmesh_core_nrf52832_xxAA.a(nrf_mesh_utils.c.obj)
 .comment       0x0000007f       0x80 mesh/core/libmesh_core_nrf52832_xxAA.a(nrf_mesh.c.obj)
 .comment       0x0000007f       0x80 mesh/core/libmesh_core_nrf52832_xxAA.a(hal.c.obj)
 .comment       0x0000007f       0x80 mesh/core/libmesh_core_nrf52832_xxAA.a(timer_scheduler.c.obj)
 .comment       0x0000007f       0x80 mesh/core/libmesh_core_nrf52832_xxAA.a(timer.c.obj)
 .comment       0x0000007f       0x80 mesh/core/libmesh_core_nrf52832_xxAA.a(ticker.c.obj)
 .comment       0x0000007f       0x80 mesh/core/libmesh_core_nrf52832_xxAA.a(rand.c.obj)
 .comment       0x0000007f       0x80 mesh/core/libmesh_core_nrf52832_xxAA.a(timeslot.c.obj)
 .comment       0x0000007f       0x80 mesh/core/libmesh_core_nrf52832_xxAA.a(bearer_event.c.obj)
 .comment       0x0000007f       0x80 mesh/core/libmesh_core_nrf52832_xxAA.a(enc.c.obj)
 .comment       0x0000007f       0x80 mesh/core/libmesh_core_nrf52832_xxAA.a(network.c.obj)
 .comment       0x0000007f       0x80 mesh/core/libmesh_core_nrf52832_xxAA.a(nrf_mesh_keygen.c.obj)
 .comment       0x0000007f       0x80 mesh/core/libmesh_core_nrf52832_xxAA.a(log.c.obj)
 .comment       0x0000007f       0x80 mesh/core/libmesh_core_nrf52832_xxAA.a(flash_manager.c.obj)
 .comment       0x0000007f       0x80 mesh/core/libmesh_core_nrf52832_xxAA.a(ccm_soft.c.obj)
 .comment       0x0000007f       0x80 mesh/core/libmesh_core_nrf52832_xxAA.a(beacon.c.obj)
 .comment       0x0000007f       0x80 mesh/core/libmesh_core_nrf52832_xxAA.a(flash_manager_internal.c.obj)
 .comment       0x0000007f       0x80 mesh/core/libmesh_core_nrf52832_xxAA.a(core_tx.c.obj)
 .comment       0x0000007f       0x80 mesh/core/libmesh_core_nrf52832_xxAA.a(net_beacon.c.obj)
 .comment       0x0000007f       0x80 mesh/core/libmesh_core_nrf52832_xxAA.a(advertiser.c.obj)
 .comment       0x0000007f       0x80 mesh/core/libmesh_core_nrf52832_xxAA.a(bearer_handler.c.obj)
 .comment       0x0000007f       0x80 mesh/core/libmesh_core_nrf52832_xxAA.a(broadcast.c.obj)
 .comment       0x0000007f       0x80 mesh/core/libmesh_core_nrf52832_xxAA.a(radio_config.c.obj)
 .comment       0x0000007f       0x80 mesh/core/libmesh_core_nrf52832_xxAA.a(scanner.c.obj)
 .comment       0x0000007f       0x80 mesh/core/libmesh_core_nrf52832_xxAA.a(internal_event.c.obj)
 .comment       0x0000007f       0x80 mesh/core/libmesh_core_nrf52832_xxAA.a(aes.c.obj)
 .comment       0x0000007f       0x80 mesh/core/libmesh_core_nrf52832_xxAA.a(msg_cache.c.obj)
 .comment       0x0000007f       0x80 mesh/core/libmesh_core_nrf52832_xxAA.a(transport.c.obj)
 .comment       0x0000007f       0x80 mesh/core/libmesh_core_nrf52832_xxAA.a(packet_buffer.c.obj)
 .comment       0x0000007f       0x80 mesh/core/libmesh_core_nrf52832_xxAA.a(flash_manager_defrag.c.obj)
 .comment       0x0000007f       0x80 mesh/core/libmesh_core_nrf52832_xxAA.a(packet_mgr.c.obj)
 .comment       0x0000007f       0x80 mesh/core/libmesh_core_nrf52832_xxAA.a(mesh_flash.c.obj)
 .comment       0x0000007f       0x80 mesh/core/libmesh_core_nrf52832_xxAA.a(queue.c.obj)
 .comment       0x0000007f       0x80 mesh/core/libmesh_core_nrf52832_xxAA.a(aes_cmac.c.obj)
 .comment       0x0000007f       0x80 mesh/core/libmesh_core_nrf52832_xxAA.a(msqueue.c.obj)
 .comment       0x0000007f       0x80 mesh/core/libmesh_core_nrf52832_xxAA.a(replay_cache.c.obj)
 .comment       0x0000007f       0x80 mesh/core/libmesh_core_nrf52832_xxAA.a(filter_engine.c.obj)
 .comment       0x0000007f       0x80 mesh/core/libmesh_core_nrf52832_xxAA.a(nrf_flash.c.obj)
 .comment       0x0000007f       0x80 external/rtt/librtt_nrf52832_xxAA.a(SEGGER_RTT.c.obj)
 .comment       0x0000007f       0x80 external/rtt/librtt_nrf52832_xxAA.a(SEGGER_RTT_printf.c.obj)
 .comment       0x0000007f       0x80 external/micro-ecc/libuECC_nrf52832_xxAA.a(uECC.c.obj)

.debug_frame    0x00000000      0x2c4
 .debug_frame   0x00000000       0x28 c:/a/gcc_arm/6/bin/../lib/gcc/arm-none-eabi/6.3.1/../../../../arm-none-eabi/lib/thumb/v7e-m/fpv4-sp/hard\libc_nano.a(lib_a-exit.o)
 .debug_frame   0x00000028       0x2c c:/a/gcc_arm/6/bin/../lib/gcc/arm-none-eabi/6.3.1/../../../../arm-none-eabi/lib/thumb/v7e-m/fpv4-sp/hard\libc_nano.a(lib_a-init.o)
 .debug_frame   0x00000054       0x30 c:/a/gcc_arm/6/bin/../lib/gcc/arm-none-eabi/6.3.1/../../../../arm-none-eabi/lib/thumb/v7e-m/fpv4-sp/hard\libc_nano.a(lib_a-malloc.o)
 .debug_frame   0x00000084       0x28 c:/a/gcc_arm/6/bin/../lib/gcc/arm-none-eabi/6.3.1/../../../../arm-none-eabi/lib/thumb/v7e-m/fpv4-sp/hard\libc_nano.a(lib_a-memcmp.o)
 .debug_frame   0x000000ac       0x28 c:/a/gcc_arm/6/bin/../lib/gcc/arm-none-eabi/6.3.1/../../../../arm-none-eabi/lib/thumb/v7e-m/fpv4-sp/hard\libc_nano.a(lib_a-memcpy-stub.o)
 .debug_frame   0x000000d4       0x20 c:/a/gcc_arm/6/bin/../lib/gcc/arm-none-eabi/6.3.1/../../../../arm-none-eabi/lib/thumb/v7e-m/fpv4-sp/hard\libc_nano.a(lib_a-memset.o)
 .debug_frame   0x000000f4       0x38 c:/a/gcc_arm/6/bin/../lib/gcc/arm-none-eabi/6.3.1/../../../../arm-none-eabi/lib/thumb/v7e-m/fpv4-sp/hard\libc_nano.a(lib_a-nano-freer.o)
 .debug_frame   0x0000012c       0x2c c:/a/gcc_arm/6/bin/../lib/gcc/arm-none-eabi/6.3.1/../../../../arm-none-eabi/lib/thumb/v7e-m/fpv4-sp/hard\libc_nano.a(lib_a-nano-mallocr.o)
 .debug_frame   0x00000158       0x2c c:/a/gcc_arm/6/bin/../lib/gcc/arm-none-eabi/6.3.1/../../../../arm-none-eabi/lib/thumb/v7e-m/fpv4-sp/hard\libc_nano.a(lib_a-sbrkr.o)
 .debug_frame   0x00000184       0x20 c:/a/gcc_arm/6/bin/../lib/gcc/arm-none-eabi/6.3.1/../../../../arm-none-eabi/lib/thumb/v7e-m/fpv4-sp/hard\libc_nano.a(lib_a-strcpy.o)
 .debug_frame   0x000001a4       0x34 c:/a/gcc_arm/6/bin/../lib/gcc/arm-none-eabi/6.3.1/../../../../arm-none-eabi/lib/thumb/v7e-m/fpv4-sp/hard\libc_nano.a(lib_a-strrchr.o)
 .debug_frame   0x000001d8       0x30 c:/a/gcc_arm/6/bin/../lib/gcc/arm-none-eabi/6.3.1/../../../../arm-none-eabi/lib/thumb/v7e-m/fpv4-sp/hard\libc_nano.a(lib_a-mlock.o)
 .debug_frame   0x00000208       0x5c c:/a/gcc_arm/6/bin/../lib/gcc/arm-none-eabi/6.3.1/../../../../arm-none-eabi/lib/thumb/v7e-m/fpv4-sp/hard\libc_nano.a(lib_a-reent.o)
 .debug_frame   0x00000264       0x20 c:/a/gcc_arm/6/bin/../lib/gcc/arm-none-eabi/6.3.1/../../../../arm-none-eabi/lib/thumb/v7e-m/fpv4-sp/hard\libc_nano.a(lib_a-strchr.o)
 .debug_frame   0x00000284       0x20 c:/a/gcc_arm/6/bin/../lib/gcc/arm-none-eabi/6.3.1/../../../../arm-none-eabi/lib/thumb/v7e-m/fpv4-sp/hard\libnosys.a(sbrk.o)
 .debug_frame   0x000002a4       0x20 c:/a/gcc_arm/6/bin/../lib/gcc/arm-none-eabi/6.3.1/../../../../arm-none-eabi/lib/thumb/v7e-m/fpv4-sp/hard\libnosys.a(_exit.o)
