Archive member included to satisfy reference by file (symbol)

mesh/core/libmesh_core_nrf52832_xxAA.a(internal_event.c.obj)
                              examples/serial/CMakeFiles/serial_nrf52832_xxAA_s132_5.0.0.dir/__/__/mesh/serial/src/serial_handler_device.c.obj (internal_event_init)
mesh/core/libmesh_core_nrf52832_xxAA.a(nrf_mesh_configure.c.obj)
                              examples/serial/CMakeFiles/serial_nrf52832_xxAA_s132_5.0.0.dir/__/__/mesh/serial/src/serial_handler_config.c.obj (nrf_mesh_configure_device_uuid_set)
mesh/core/libmesh_core_nrf52832_xxAA.a(event.c.obj)
                              examples/serial/CMakeFiles/serial_nrf52832_xxAA_s132_5.0.0.dir/__/__/mesh/prov/src/prov_provisioner.c.obj (event_handle)
mesh/core/libmesh_core_nrf52832_xxAA.a(packet_buffer.c.obj)
                              examples/serial/CMakeFiles/serial_nrf52832_xxAA_s132_5.0.0.dir/__/__/mesh/serial/src/serial_bearer.c.obj (packet_buffer_max_packet_len_get)
mesh/core/libmesh_core_nrf52832_xxAA.a(fifo.c.obj)
                              mesh/core/libmesh_core_nrf52832_xxAA.a(internal_event.c.obj) (fifo_init)
mesh/core/libmesh_core_nrf52832_xxAA.a(net_state.c.obj)
                              examples/serial/CMakeFiles/serial_nrf52832_xxAA_s132_5.0.0.dir/__/__/mesh/serial/src/serial_handler_mesh.c.obj (net_state_reset)
mesh/core/libmesh_core_nrf52832_xxAA.a(nrf_mesh_utils.c.obj)
                              examples/serial/CMakeFiles/serial_nrf52832_xxAA_s132_5.0.0.dir/__/__/mesh/prov/src/prov_provisionee.c.obj (nrf_mesh_address_type_get)
mesh/core/libmesh_core_nrf52832_xxAA.a(nrf_mesh.c.obj)
                              examples/serial/CMakeFiles/serial_nrf52832_xxAA_s132_5.0.0.dir/__/nrf_mesh_sdk.c.obj (nrf_mesh_init)
mesh/core/libmesh_core_nrf52832_xxAA.a(hal.c.obj)
                              examples/serial/CMakeFiles/serial_nrf52832_xxAA_s132_5.0.0.dir/__/__/mesh/serial/src/serial_handler_device.c.obj (hal_device_reset)
mesh/core/libmesh_core_nrf52832_xxAA.a(timer_scheduler.c.obj)
                              mesh/core/libmesh_core_nrf52832_xxAA.a(nrf_mesh.c.obj) (timer_sch_init)
mesh/core/libmesh_core_nrf52832_xxAA.a(timer.c.obj)
                              mesh/core/libmesh_core_nrf52832_xxAA.a(timer_scheduler.c.obj) (timer_order_cb)
mesh/core/libmesh_core_nrf52832_xxAA.a(ticker.c.obj)
                              mesh/core/libmesh_core_nrf52832_xxAA.a(nrf_mesh.c.obj) (ticker_init)
mesh/core/libmesh_core_nrf52832_xxAA.a(rand.c.obj)
                              examples/serial/CMakeFiles/serial_nrf52832_xxAA_s132_5.0.0.dir/__/__/mesh/prov/src/prov_utils.c.obj (rand_hw_rng_get)
mesh/core/libmesh_core_nrf52832_xxAA.a(nrf_mesh_opt.c.obj)
                              examples/serial/CMakeFiles/serial_nrf52832_xxAA_s132_5.0.0.dir/src/main.c.obj (nrf_mesh_opt_set)
mesh/core/libmesh_core_nrf52832_xxAA.a(timeslot.c.obj)
                              mesh/core/libmesh_core_nrf52832_xxAA.a(nrf_mesh.c.obj) (timeslot_sd_event_handler)
mesh/core/libmesh_core_nrf52832_xxAA.a(bearer_event.c.obj)
                              mesh/core/libmesh_core_nrf52832_xxAA.a(nrf_mesh.c.obj) (bearer_event_init)
mesh/core/libmesh_core_nrf52832_xxAA.a(enc.c.obj)
                              examples/serial/CMakeFiles/serial_nrf52832_xxAA_s132_5.0.0.dir/__/__/mesh/prov/src/prov_utils.c.obj (enc_aes_cmac)
mesh/core/libmesh_core_nrf52832_xxAA.a(network.c.obj)
                              mesh/core/libmesh_core_nrf52832_xxAA.a(nrf_mesh.c.obj) (network_init)
mesh/core/libmesh_core_nrf52832_xxAA.a(nrf_mesh_keygen.c.obj)
                              examples/serial/CMakeFiles/serial_nrf52832_xxAA_s132_5.0.0.dir/__/__/mesh/access/src/device_state_manager.c.obj (nrf_mesh_keygen_aid)
mesh/core/libmesh_core_nrf52832_xxAA.a(log.c.obj)
                              examples/serial/CMakeFiles/serial_nrf52832_xxAA_s132_5.0.0.dir/src/main.c.obj (log_callback_rtt)
mesh/core/libmesh_core_nrf52832_xxAA.a(flash_manager.c.obj)
                              mesh/core/libmesh_core_nrf52832_xxAA.a(nrf_mesh.c.obj) (flash_manager_init)
mesh/core/libmesh_core_nrf52832_xxAA.a(ccm_soft.c.obj)
                              mesh/core/libmesh_core_nrf52832_xxAA.a(enc.c.obj) (ccm_soft_encrypt)
mesh/core/libmesh_core_nrf52832_xxAA.a(beacon.c.obj)
                              mesh/core/libmesh_core_nrf52832_xxAA.a(nrf_mesh.c.obj) (beacon_init)
mesh/core/libmesh_core_nrf52832_xxAA.a(flash_manager_internal.c.obj)
                              mesh/core/libmesh_core_nrf52832_xxAA.a(flash_manager.c.obj) (entry_get)
mesh/core/libmesh_core_nrf52832_xxAA.a(core_tx.c.obj)
                              mesh/core/libmesh_core_nrf52832_xxAA.a(nrf_mesh.c.obj) (core_tx_init)
mesh/core/libmesh_core_nrf52832_xxAA.a(net_beacon.c.obj)
                              mesh/core/libmesh_core_nrf52832_xxAA.a(network.c.obj) (net_beacon_init)
mesh/core/libmesh_core_nrf52832_xxAA.a(advertiser.c.obj)
                              mesh/core/libmesh_core_nrf52832_xxAA.a(nrf_mesh.c.obj) (advertiser_init)
mesh/core/libmesh_core_nrf52832_xxAA.a(bearer_handler.c.obj)
                              mesh/core/libmesh_core_nrf52832_xxAA.a(nrf_mesh.c.obj) (bearer_handler_init)
mesh/core/libmesh_core_nrf52832_xxAA.a(broadcast.c.obj)
                              mesh/core/libmesh_core_nrf52832_xxAA.a(advertiser.c.obj) (broadcast_send)
mesh/core/libmesh_core_nrf52832_xxAA.a(radio_config.c.obj)
                              mesh/core/libmesh_core_nrf52832_xxAA.a(broadcast.c.obj) (radio_config_reset)
mesh/core/libmesh_core_nrf52832_xxAA.a(scanner.c.obj)
                              mesh/core/libmesh_core_nrf52832_xxAA.a(bearer_handler.c.obj) (scanner_radio_start)
mesh/core/libmesh_core_nrf52832_xxAA.a(aes.c.obj)
                              mesh/core/libmesh_core_nrf52832_xxAA.a(enc.c.obj) (aes_encrypt)
mesh/core/libmesh_core_nrf52832_xxAA.a(msg_cache.c.obj)
                              mesh/core/libmesh_core_nrf52832_xxAA.a(nrf_mesh.c.obj) (msg_cache_init)
mesh/core/libmesh_core_nrf52832_xxAA.a(transport.c.obj)
                              mesh/core/libmesh_core_nrf52832_xxAA.a(nrf_mesh.c.obj) (transport_init)
mesh/core/libmesh_core_nrf52832_xxAA.a(flash_manager_defrag.c.obj)
                              mesh/core/libmesh_core_nrf52832_xxAA.a(flash_manager.c.obj) (flash_manager_defrag_init)
mesh/core/libmesh_core_nrf52832_xxAA.a(packet_mgr.c.obj)
                              mesh/core/libmesh_core_nrf52832_xxAA.a(nrf_mesh.c.obj) (packet_mgr_init)
mesh/core/libmesh_core_nrf52832_xxAA.a(mesh_flash.c.obj)
                              mesh/core/libmesh_core_nrf52832_xxAA.a(flash_manager.c.obj) (mesh_flash_user_callback_set)
mesh/core/libmesh_core_nrf52832_xxAA.a(queue.c.obj)
                              mesh/core/libmesh_core_nrf52832_xxAA.a(bearer_event.c.obj) (queue_init)
mesh/core/libmesh_core_nrf52832_xxAA.a(aes_cmac.c.obj)
                              mesh/core/libmesh_core_nrf52832_xxAA.a(enc.c.obj) (aes_cmac)
mesh/core/libmesh_core_nrf52832_xxAA.a(msqueue.c.obj)
                              mesh/core/libmesh_core_nrf52832_xxAA.a(mesh_flash.c.obj) (msq_get)
mesh/core/libmesh_core_nrf52832_xxAA.a(replay_cache.c.obj)
                              mesh/core/libmesh_core_nrf52832_xxAA.a(transport.c.obj) (replay_cache_add)
mesh/core/libmesh_core_nrf52832_xxAA.a(filter_engine.c.obj)
                              mesh/core/libmesh_core_nrf52832_xxAA.a(scanner.c.obj) (fen_filters_apply)
mesh/core/libmesh_core_nrf52832_xxAA.a(nrf_flash.c.obj)
                              mesh/core/libmesh_core_nrf52832_xxAA.a(mesh_flash.c.obj) (nrf_flash_erase)
external/micro-ecc/libuECC_nrf52832_xxAA.a(uECC.c.obj)
                              examples/serial/CMakeFiles/serial_nrf52832_xxAA_s132_5.0.0.dir/__/__/mesh/prov/src/prov_utils.c.obj (uECC_secp256r1)
external/rtt/librtt_nrf52832_xxAA.a(SEGGER_RTT.c.obj)
                              mesh/core/libmesh_core_nrf52832_xxAA.a(log.c.obj) (SEGGER_RTT_Write)
external/rtt/librtt_nrf52832_xxAA.a(SEGGER_RTT_printf.c.obj)
                              mesh/core/libmesh_core_nrf52832_xxAA.a(log.c.obj) (SEGGER_RTT_vprintf)
c:/a/gcc_arm/6/bin/../lib/gcc/arm-none-eabi/6.3.1/../../../../arm-none-eabi/lib/thumb/v7e-m/fpv4-sp/hard\libc_nano.a(lib_a-exit.o)
                              c:/a/gcc_arm/6/bin/../lib/gcc/arm-none-eabi/6.3.1/../../../../arm-none-eabi/lib/thumb/v7e-m/fpv4-sp/hard/crt0.o (exit)
c:/a/gcc_arm/6/bin/../lib/gcc/arm-none-eabi/6.3.1/../../../../arm-none-eabi/lib/thumb/v7e-m/fpv4-sp/hard\libc_nano.a(lib_a-impure.o)
                              c:/a/gcc_arm/6/bin/../lib/gcc/arm-none-eabi/6.3.1/../../../../arm-none-eabi/lib/thumb/v7e-m/fpv4-sp/hard\libc_nano.a(lib_a-exit.o) (_global_impure_ptr)
c:/a/gcc_arm/6/bin/../lib/gcc/arm-none-eabi/6.3.1/../../../../arm-none-eabi/lib/thumb/v7e-m/fpv4-sp/hard\libc_nano.a(lib_a-init.o)
                              c:/a/gcc_arm/6/bin/../lib/gcc/arm-none-eabi/6.3.1/../../../../arm-none-eabi/lib/thumb/v7e-m/fpv4-sp/hard/crt0.o (__libc_init_array)
c:/a/gcc_arm/6/bin/../lib/gcc/arm-none-eabi/6.3.1/../../../../arm-none-eabi/lib/thumb/v7e-m/fpv4-sp/hard\libc_nano.a(lib_a-malloc.o)
                              mesh/core/libmesh_core_nrf52832_xxAA.a(transport.c.obj) (malloc)
c:/a/gcc_arm/6/bin/../lib/gcc/arm-none-eabi/6.3.1/../../../../arm-none-eabi/lib/thumb/v7e-m/fpv4-sp/hard\libc_nano.a(lib_a-memcmp.o)
                              examples/serial/CMakeFiles/serial_nrf52832_xxAA_s132_5.0.0.dir/__/__/mesh/prov/src/prov_utils.c.obj (memcmp)
c:/a/gcc_arm/6/bin/../lib/gcc/arm-none-eabi/6.3.1/../../../../arm-none-eabi/lib/thumb/v7e-m/fpv4-sp/hard\libc_nano.a(lib_a-memcpy-stub.o)
                              examples/serial/CMakeFiles/serial_nrf52832_xxAA_s132_5.0.0.dir/__/__/mesh/prov/src/prov_provisioner.c.obj (memcpy)
c:/a/gcc_arm/6/bin/../lib/gcc/arm-none-eabi/6.3.1/../../../../arm-none-eabi/lib/thumb/v7e-m/fpv4-sp/hard\libc_nano.a(lib_a-memset.o)
                              c:/a/gcc_arm/6/bin/../lib/gcc/arm-none-eabi/6.3.1/../../../../arm-none-eabi/lib/thumb/v7e-m/fpv4-sp/hard/crt0.o (memset)
c:/a/gcc_arm/6/bin/../lib/gcc/arm-none-eabi/6.3.1/../../../../arm-none-eabi/lib/thumb/v7e-m/fpv4-sp/hard\libc_nano.a(lib_a-nano-freer.o)
                              c:/a/gcc_arm/6/bin/../lib/gcc/arm-none-eabi/6.3.1/../../../../arm-none-eabi/lib/thumb/v7e-m/fpv4-sp/hard\libc_nano.a(lib_a-malloc.o) (_free_r)
c:/a/gcc_arm/6/bin/../lib/gcc/arm-none-eabi/6.3.1/../../../../arm-none-eabi/lib/thumb/v7e-m/fpv4-sp/hard\libc_nano.a(lib_a-nano-mallocr.o)
                              c:/a/gcc_arm/6/bin/../lib/gcc/arm-none-eabi/6.3.1/../../../../arm-none-eabi/lib/thumb/v7e-m/fpv4-sp/hard\libc_nano.a(lib_a-malloc.o) (_malloc_r)
c:/a/gcc_arm/6/bin/../lib/gcc/arm-none-eabi/6.3.1/../../../../arm-none-eabi/lib/thumb/v7e-m/fpv4-sp/hard\libc_nano.a(lib_a-sbrkr.o)
                              c:/a/gcc_arm/6/bin/../lib/gcc/arm-none-eabi/6.3.1/../../../../arm-none-eabi/lib/thumb/v7e-m/fpv4-sp/hard\libc_nano.a(lib_a-nano-mallocr.o) (_sbrk_r)
c:/a/gcc_arm/6/bin/../lib/gcc/arm-none-eabi/6.3.1/../../../../arm-none-eabi/lib/thumb/v7e-m/fpv4-sp/hard\libc_nano.a(lib_a-strcpy.o)
                              external/rtt/librtt_nrf52832_xxAA.a(SEGGER_RTT.c.obj) (strcpy)
c:/a/gcc_arm/6/bin/../lib/gcc/arm-none-eabi/6.3.1/../../../../arm-none-eabi/lib/thumb/v7e-m/fpv4-sp/hard\libc_nano.a(lib_a-strlen.o)
                              examples/serial/CMakeFiles/serial_nrf52832_xxAA_s132_5.0.0.dir/__/__/mesh/prov/src/prov_beacon.c.obj (strlen)
c:/a/gcc_arm/6/bin/../lib/gcc/arm-none-eabi/6.3.1/../../../../arm-none-eabi/lib/thumb/v7e-m/fpv4-sp/hard\libc_nano.a(lib_a-strrchr.o)
                              examples/serial/CMakeFiles/serial_nrf52832_xxAA_s132_5.0.0.dir/src/main.c.obj (strrchr)
c:/a/gcc_arm/6/bin/../lib/gcc/arm-none-eabi/6.3.1/../../../../arm-none-eabi/lib/thumb/v7e-m/fpv4-sp/hard\libc_nano.a(lib_a-mlock.o)
                              c:/a/gcc_arm/6/bin/../lib/gcc/arm-none-eabi/6.3.1/../../../../arm-none-eabi/lib/thumb/v7e-m/fpv4-sp/hard\libc_nano.a(lib_a-nano-freer.o) (__malloc_lock)
c:/a/gcc_arm/6/bin/../lib/gcc/arm-none-eabi/6.3.1/../../../../arm-none-eabi/lib/thumb/v7e-m/fpv4-sp/hard\libc_nano.a(lib_a-reent.o)
                              c:/a/gcc_arm/6/bin/../lib/gcc/arm-none-eabi/6.3.1/../../../../arm-none-eabi/lib/thumb/v7e-m/fpv4-sp/hard\libc_nano.a(lib_a-sbrkr.o) (errno)
c:/a/gcc_arm/6/bin/../lib/gcc/arm-none-eabi/6.3.1/../../../../arm-none-eabi/lib/thumb/v7e-m/fpv4-sp/hard\libc_nano.a(lib_a-strchr.o)
                              c:/a/gcc_arm/6/bin/../lib/gcc/arm-none-eabi/6.3.1/../../../../arm-none-eabi/lib/thumb/v7e-m/fpv4-sp/hard\libc_nano.a(lib_a-strrchr.o) (strchr)
c:/a/gcc_arm/6/bin/../lib/gcc/arm-none-eabi/6.3.1/../../../../arm-none-eabi/lib/thumb/v7e-m/fpv4-sp/hard\libnosys.a(sbrk.o)
                              c:/a/gcc_arm/6/bin/../lib/gcc/arm-none-eabi/6.3.1/../../../../arm-none-eabi/lib/thumb/v7e-m/fpv4-sp/hard\libc_nano.a(lib_a-sbrkr.o) (_sbrk)
c:/a/gcc_arm/6/bin/../lib/gcc/arm-none-eabi/6.3.1/../../../../arm-none-eabi/lib/thumb/v7e-m/fpv4-sp/hard\libnosys.a(_exit.o)
                              c:/a/gcc_arm/6/bin/../lib/gcc/arm-none-eabi/6.3.1/../../../../arm-none-eabi/lib/thumb/v7e-m/fpv4-sp/hard\libc_nano.a(lib_a-exit.o) (_exit)

Allocating common symbols
Common symbol       size              file

nrf_nvic_state      0xc               examples/serial/CMakeFiles/serial_nrf52832_xxAA_s132_5.0.0.dir/__/nrf_mesh_sdk.c.obj
errno               0x4               c:/a/gcc_arm/6/bin/../lib/gcc/arm-none-eabi/6.3.1/../../../../arm-none-eabi/lib/thumb/v7e-m/fpv4-sp/hard\libc_nano.a(lib_a-reent.o)
m_assertion_handler
                    0x4               mesh/core/libmesh_core_nrf52832_xxAA.a(nrf_mesh.c.obj)
_SEGGER_RTT         0x78              external/rtt/librtt_nrf52832_xxAA.a(SEGGER_RTT.c.obj)

Discarded input sections

 .text          0x00000000        0x0 c:/a/gcc_arm/6/bin/../lib/gcc/arm-none-eabi/6.3.1/thumb/v7e-m/fpv4-sp/hard/crti.o
 .data          0x00000000        0x0 c:/a/gcc_arm/6/bin/../lib/gcc/arm-none-eabi/6.3.1/thumb/v7e-m/fpv4-sp/hard/crti.o
 .bss           0x00000000        0x0 c:/a/gcc_arm/6/bin/../lib/gcc/arm-none-eabi/6.3.1/thumb/v7e-m/fpv4-sp/hard/crti.o
 .data          0x00000000        0x4 c:/a/gcc_arm/6/bin/../lib/gcc/arm-none-eabi/6.3.1/thumb/v7e-m/fpv4-sp/hard/crtbegin.o
 .data          0x00000000        0x0 c:/a/gcc_arm/6/bin/../lib/gcc/arm-none-eabi/6.3.1/../../../../arm-none-eabi/lib/thumb/v7e-m/fpv4-sp/hard/crt0.o
 .bss           0x00000000        0x0 c:/a/gcc_arm/6/bin/../lib/gcc/arm-none-eabi/6.3.1/../../../../arm-none-eabi/lib/thumb/v7e-m/fpv4-sp/hard/crt0.o
 .ARM.extab     0x00000000        0x0 c:/a/gcc_arm/6/bin/../lib/gcc/arm-none-eabi/6.3.1/../../../../arm-none-eabi/lib/thumb/v7e-m/fpv4-sp/hard/crt0.o
 .text          0x00000000        0x0 examples/serial/CMakeFiles/serial_nrf52832_xxAA_s132_5.0.0.dir/src/main.c.obj
 .data          0x00000000        0x0 examples/serial/CMakeFiles/serial_nrf52832_xxAA_s132_5.0.0.dir/src/main.c.obj
 .bss           0x00000000        0x0 examples/serial/CMakeFiles/serial_nrf52832_xxAA_s132_5.0.0.dir/src/main.c.obj
 .text          0x00000000        0x0 examples/serial/CMakeFiles/serial_nrf52832_xxAA_s132_5.0.0.dir/__/nrf_mesh_sdk.c.obj
 .data          0x00000000        0x0 examples/serial/CMakeFiles/serial_nrf52832_xxAA_s132_5.0.0.dir/__/nrf_mesh_sdk.c.obj
 .bss           0x00000000        0x0 examples/serial/CMakeFiles/serial_nrf52832_xxAA_s132_5.0.0.dir/__/nrf_mesh_sdk.c.obj
 .text          0x00000000        0x0 examples/serial/CMakeFiles/serial_nrf52832_xxAA_s132_5.0.0.dir/__/__/mesh/prov/src/prov_provisioner.c.obj
 .data          0x00000000        0x0 examples/serial/CMakeFiles/serial_nrf52832_xxAA_s132_5.0.0.dir/__/__/mesh/prov/src/prov_provisioner.c.obj
 .bss           0x00000000        0x0 examples/serial/CMakeFiles/serial_nrf52832_xxAA_s132_5.0.0.dir/__/__/mesh/prov/src/prov_provisioner.c.obj
 .text.prov_provisioner_oob_pubkey
                0x00000000       0x34 examples/serial/CMakeFiles/serial_nrf52832_xxAA_s132_5.0.0.dir/__/__/mesh/prov/src/prov_provisioner.c.obj
 .text          0x00000000        0x0 examples/serial/CMakeFiles/serial_nrf52832_xxAA_s132_5.0.0.dir/__/__/mesh/prov/src/prov_provisionee.c.obj
 .data          0x00000000        0x0 examples/serial/CMakeFiles/serial_nrf52832_xxAA_s132_5.0.0.dir/__/__/mesh/prov/src/prov_provisionee.c.obj
 .bss           0x00000000        0x0 examples/serial/CMakeFiles/serial_nrf52832_xxAA_s132_5.0.0.dir/__/__/mesh/prov/src/prov_provisionee.c.obj
 .text          0x00000000        0x0 examples/serial/CMakeFiles/serial_nrf52832_xxAA_s132_5.0.0.dir/__/__/mesh/prov/src/nrf_mesh_prov.c.obj
 .data          0x00000000        0x0 examples/serial/CMakeFiles/serial_nrf52832_xxAA_s132_5.0.0.dir/__/__/mesh/prov/src/nrf_mesh_prov.c.obj
 .bss           0x00000000        0x0 examples/serial/CMakeFiles/serial_nrf52832_xxAA_s132_5.0.0.dir/__/__/mesh/prov/src/nrf_mesh_prov.c.obj
 .text.nrf_mesh_prov_pubkey_provide
                0x00000000       0x10 examples/serial/CMakeFiles/serial_nrf52832_xxAA_s132_5.0.0.dir/__/__/mesh/prov/src/nrf_mesh_prov.c.obj
 .text          0x00000000        0x0 examples/serial/CMakeFiles/serial_nrf52832_xxAA_s132_5.0.0.dir/__/__/mesh/prov/src/provisioning.c.obj
 .data          0x00000000        0x0 examples/serial/CMakeFiles/serial_nrf52832_xxAA_s132_5.0.0.dir/__/__/mesh/prov/src/provisioning.c.obj
 .bss           0x00000000        0x0 examples/serial/CMakeFiles/serial_nrf52832_xxAA_s132_5.0.0.dir/__/__/mesh/prov/src/provisioning.c.obj
 .text.prov_listen_stop
                0x00000000        0x8 examples/serial/CMakeFiles/serial_nrf52832_xxAA_s132_5.0.0.dir/__/__/mesh/prov/src/provisioning.c.obj
 .text.prov_tx  0x00000000        0x4 examples/serial/CMakeFiles/serial_nrf52832_xxAA_s132_5.0.0.dir/__/__/mesh/prov/src/provisioning.c.obj
 .text          0x00000000        0x0 examples/serial/CMakeFiles/serial_nrf52832_xxAA_s132_5.0.0.dir/__/__/mesh/prov/src/prov_beacon.c.obj
 .data          0x00000000        0x0 examples/serial/CMakeFiles/serial_nrf52832_xxAA_s132_5.0.0.dir/__/__/mesh/prov/src/prov_beacon.c.obj
 .bss           0x00000000        0x0 examples/serial/CMakeFiles/serial_nrf52832_xxAA_s132_5.0.0.dir/__/__/mesh/prov/src/prov_beacon.c.obj
 .text.prov_beacon_unprov_report
                0x00000000        0xc examples/serial/CMakeFiles/serial_nrf52832_xxAA_s132_5.0.0.dir/__/__/mesh/prov/src/prov_beacon.c.obj
 .text          0x00000000        0x0 examples/serial/CMakeFiles/serial_nrf52832_xxAA_s132_5.0.0.dir/__/__/mesh/prov/src/prov_utils.c.obj
 .data          0x00000000        0x0 examples/serial/CMakeFiles/serial_nrf52832_xxAA_s132_5.0.0.dir/__/__/mesh/prov/src/prov_utils.c.obj
 .bss           0x00000000        0x0 examples/serial/CMakeFiles/serial_nrf52832_xxAA_s132_5.0.0.dir/__/__/mesh/prov/src/prov_utils.c.obj
 .text.prov_utils_opt_get
                0x00000000       0x1c examples/serial/CMakeFiles/serial_nrf52832_xxAA_s132_5.0.0.dir/__/__/mesh/prov/src/prov_utils.c.obj
 .text          0x00000000        0x0 examples/serial/CMakeFiles/serial_nrf52832_xxAA_s132_5.0.0.dir/__/__/mesh/prov/src/prov_bearer_adv.c.obj
 .data          0x00000000        0x0 examples/serial/CMakeFiles/serial_nrf52832_xxAA_s132_5.0.0.dir/__/__/mesh/prov/src/prov_bearer_adv.c.obj
 .bss           0x00000000        0x0 examples/serial/CMakeFiles/serial_nrf52832_xxAA_s132_5.0.0.dir/__/__/mesh/prov/src/prov_bearer_adv.c.obj
 .text          0x00000000        0x0 examples/serial/CMakeFiles/serial_nrf52832_xxAA_s132_5.0.0.dir/__/__/mesh/access/src/access_publish.c.obj
 .data          0x00000000        0x0 examples/serial/CMakeFiles/serial_nrf52832_xxAA_s132_5.0.0.dir/__/__/mesh/access/src/access_publish.c.obj
 .bss           0x00000000        0x0 examples/serial/CMakeFiles/serial_nrf52832_xxAA_s132_5.0.0.dir/__/__/mesh/access/src/access_publish.c.obj
 .text          0x00000000        0x0 examples/serial/CMakeFiles/serial_nrf52832_xxAA_s132_5.0.0.dir/__/__/mesh/access/src/access.c.obj
 .data          0x00000000        0x0 examples/serial/CMakeFiles/serial_nrf52832_xxAA_s132_5.0.0.dir/__/__/mesh/access/src/access.c.obj
 .bss           0x00000000        0x0 examples/serial/CMakeFiles/serial_nrf52832_xxAA_s132_5.0.0.dir/__/__/mesh/access/src/access.c.obj
 .text.restore_acquired_subscription
                0x00000000       0x24 examples/serial/CMakeFiles/serial_nrf52832_xxAA_s132_5.0.0.dir/__/__/mesh/access/src/access.c.obj
 .text.restore_acquired_element
                0x00000000       0x20 examples/serial/CMakeFiles/serial_nrf52832_xxAA_s132_5.0.0.dir/__/__/mesh/access/src/access.c.obj
 .text.restore_flash_data
                0x00000000       0x5c examples/serial/CMakeFiles/serial_nrf52832_xxAA_s132_5.0.0.dir/__/__/mesh/access/src/access.c.obj
 .text.unlikely.bitfield_next_get.part.0.constprop.3
                0x00000000       0x34 examples/serial/CMakeFiles/serial_nrf52832_xxAA_s132_5.0.0.dir/__/__/mesh/access/src/access.c.obj
 .text.restore_acquired_model
                0x00000000       0x7c examples/serial/CMakeFiles/serial_nrf52832_xxAA_s132_5.0.0.dir/__/__/mesh/access/src/access.c.obj
 .text.access_flash_config_load
                0x00000000      0x130 examples/serial/CMakeFiles/serial_nrf52832_xxAA_s132_5.0.0.dir/__/__/mesh/access/src/access.c.obj
 .text.access_model_add
                0x00000000      0x17c examples/serial/CMakeFiles/serial_nrf52832_xxAA_s132_5.0.0.dir/__/__/mesh/access/src/access.c.obj
 .text.access_model_reply
                0x00000000       0x12 examples/serial/CMakeFiles/serial_nrf52832_xxAA_s132_5.0.0.dir/__/__/mesh/access/src/access.c.obj
 .text.access_model_subscription_list_alloc
                0x00000000       0x40 examples/serial/CMakeFiles/serial_nrf52832_xxAA_s132_5.0.0.dir/__/__/mesh/access/src/access.c.obj
 .text.access_model_subscription_lists_share
                0x00000000       0x48 examples/serial/CMakeFiles/serial_nrf52832_xxAA_s132_5.0.0.dir/__/__/mesh/access/src/access.c.obj
 .text.access_default_ttl_set
                0x00000000       0x10 examples/serial/CMakeFiles/serial_nrf52832_xxAA_s132_5.0.0.dir/__/__/mesh/access/src/access.c.obj
 .text.access_default_ttl_get
                0x00000000        0xc examples/serial/CMakeFiles/serial_nrf52832_xxAA_s132_5.0.0.dir/__/__/mesh/access/src/access.c.obj
 .rodata.multiply_de_bruijn_bit_position.9124
                0x00000000       0x20 examples/serial/CMakeFiles/serial_nrf52832_xxAA_s132_5.0.0.dir/__/__/mesh/access/src/access.c.obj
 .text          0x00000000        0x0 examples/serial/CMakeFiles/serial_nrf52832_xxAA_s132_5.0.0.dir/__/__/mesh/access/src/access_reliable.c.obj
 .data          0x00000000        0x0 examples/serial/CMakeFiles/serial_nrf52832_xxAA_s132_5.0.0.dir/__/__/mesh/access/src/access_reliable.c.obj
 .bss           0x00000000        0x0 examples/serial/CMakeFiles/serial_nrf52832_xxAA_s132_5.0.0.dir/__/__/mesh/access/src/access_reliable.c.obj
 .text.access_model_reliable_cancel
                0x00000000       0x30 examples/serial/CMakeFiles/serial_nrf52832_xxAA_s132_5.0.0.dir/__/__/mesh/access/src/access_reliable.c.obj
 .text.access_model_reliable_publish
                0x00000000      0x198 examples/serial/CMakeFiles/serial_nrf52832_xxAA_s132_5.0.0.dir/__/__/mesh/access/src/access_reliable.c.obj
 .text          0x00000000        0x0 examples/serial/CMakeFiles/serial_nrf52832_xxAA_s132_5.0.0.dir/__/__/mesh/access/src/device_state_manager.c.obj
 .data          0x00000000        0x0 examples/serial/CMakeFiles/serial_nrf52832_xxAA_s132_5.0.0.dir/__/__/mesh/access/src/device_state_manager.c.obj
 .bss           0x00000000        0x0 examples/serial/CMakeFiles/serial_nrf52832_xxAA_s132_5.0.0.dir/__/__/mesh/access/src/device_state_manager.c.obj
 .text.dsm_flash_config_load
                0x00000000      0x114 examples/serial/CMakeFiles/serial_nrf52832_xxAA_s132_5.0.0.dir/__/__/mesh/access/src/device_state_manager.c.obj
 .text.dsm_has_unflashed_data
                0x00000000       0x24 examples/serial/CMakeFiles/serial_nrf52832_xxAA_s132_5.0.0.dir/__/__/mesh/access/src/device_state_manager.c.obj
 .text.dsm_address_publish_add_handle
                0x00000000       0x38 examples/serial/CMakeFiles/serial_nrf52832_xxAA_s132_5.0.0.dir/__/__/mesh/access/src/device_state_manager.c.obj
 .text.dsm_address_subscription_add_handle
                0x00000000       0x38 examples/serial/CMakeFiles/serial_nrf52832_xxAA_s132_5.0.0.dir/__/__/mesh/access/src/device_state_manager.c.obj
 .text.dsm_address_subscription_count_get
                0x00000000       0x58 examples/serial/CMakeFiles/serial_nrf52832_xxAA_s132_5.0.0.dir/__/__/mesh/access/src/device_state_manager.c.obj
 .text.dsm_net_key_index_to_subnet_handle
                0x00000000       0x1c examples/serial/CMakeFiles/serial_nrf52832_xxAA_s132_5.0.0.dir/__/__/mesh/access/src/device_state_manager.c.obj
 .text.dsm_subnet_handle_to_netkey_index
                0x00000000       0x34 examples/serial/CMakeFiles/serial_nrf52832_xxAA_s132_5.0.0.dir/__/__/mesh/access/src/device_state_manager.c.obj
 .text.dsm_app_key_index_to_appkey_handle
                0x00000000       0x1c examples/serial/CMakeFiles/serial_nrf52832_xxAA_s132_5.0.0.dir/__/__/mesh/access/src/device_state_manager.c.obj
 .text.dsm_appkey_handle_to_appkey_index
                0x00000000       0x34 examples/serial/CMakeFiles/serial_nrf52832_xxAA_s132_5.0.0.dir/__/__/mesh/access/src/device_state_manager.c.obj
 .text.dsm_devkey_handle_get
                0x00000000       0x34 examples/serial/CMakeFiles/serial_nrf52832_xxAA_s132_5.0.0.dir/__/__/mesh/access/src/device_state_manager.c.obj
 .text.dsm_beacon_secmat_get
                0x00000000       0x38 examples/serial/CMakeFiles/serial_nrf52832_xxAA_s132_5.0.0.dir/__/__/mesh/access/src/device_state_manager.c.obj
 .text.dsm_proxy_identity_get
                0x00000000        0x4 examples/serial/CMakeFiles/serial_nrf52832_xxAA_s132_5.0.0.dir/__/__/mesh/access/src/device_state_manager.c.obj
 .text          0x00000000        0x0 examples/serial/CMakeFiles/serial_nrf52832_xxAA_s132_5.0.0.dir/__/__/mesh/serial/src/serial_uart.c.obj
 .data          0x00000000        0x0 examples/serial/CMakeFiles/serial_nrf52832_xxAA_s132_5.0.0.dir/__/__/mesh/serial/src/serial_uart.c.obj
 .bss           0x00000000        0x0 examples/serial/CMakeFiles/serial_nrf52832_xxAA_s132_5.0.0.dir/__/__/mesh/serial/src/serial_uart.c.obj
 .text          0x00000000        0x0 examples/serial/CMakeFiles/serial_nrf52832_xxAA_s132_5.0.0.dir/__/__/mesh/serial/src/serial_bearer.c.obj
 .data          0x00000000        0x0 examples/serial/CMakeFiles/serial_nrf52832_xxAA_s132_5.0.0.dir/__/__/mesh/serial/src/serial_bearer.c.obj
 .bss           0x00000000        0x0 examples/serial/CMakeFiles/serial_nrf52832_xxAA_s132_5.0.0.dir/__/__/mesh/serial/src/serial_bearer.c.obj
 .text.serial_bearer_rx_pending
                0x00000000        0xc examples/serial/CMakeFiles/serial_nrf52832_xxAA_s132_5.0.0.dir/__/__/mesh/serial/src/serial_bearer.c.obj
 .text          0x00000000        0x0 examples/serial/CMakeFiles/serial_nrf52832_xxAA_s132_5.0.0.dir/__/__/mesh/serial/src/serial_handler_common.c.obj
 .data          0x00000000        0x0 examples/serial/CMakeFiles/serial_nrf52832_xxAA_s132_5.0.0.dir/__/__/mesh/serial/src/serial_handler_common.c.obj
 .bss           0x00000000        0x0 examples/serial/CMakeFiles/serial_nrf52832_xxAA_s132_5.0.0.dir/__/__/mesh/serial/src/serial_handler_common.c.obj
 .text          0x00000000        0x0 examples/serial/CMakeFiles/serial_nrf52832_xxAA_s132_5.0.0.dir/__/__/mesh/serial/src/serial_handler_access.c.obj
 .data          0x00000000        0x0 examples/serial/CMakeFiles/serial_nrf52832_xxAA_s132_5.0.0.dir/__/__/mesh/serial/src/serial_handler_access.c.obj
 .bss           0x00000000        0x0 examples/serial/CMakeFiles/serial_nrf52832_xxAA_s132_5.0.0.dir/__/__/mesh/serial/src/serial_handler_access.c.obj
 .text          0x00000000        0x0 examples/serial/CMakeFiles/serial_nrf52832_xxAA_s132_5.0.0.dir/__/__/mesh/serial/src/serial_handler_config.c.obj
 .data          0x00000000        0x0 examples/serial/CMakeFiles/serial_nrf52832_xxAA_s132_5.0.0.dir/__/__/mesh/serial/src/serial_handler_config.c.obj
 .bss           0x00000000        0x0 examples/serial/CMakeFiles/serial_nrf52832_xxAA_s132_5.0.0.dir/__/__/mesh/serial/src/serial_handler_config.c.obj
 .text          0x00000000        0x0 examples/serial/CMakeFiles/serial_nrf52832_xxAA_s132_5.0.0.dir/__/__/mesh/serial/src/serial_handler_openmesh.c.obj
 .data          0x00000000        0x0 examples/serial/CMakeFiles/serial_nrf52832_xxAA_s132_5.0.0.dir/__/__/mesh/serial/src/serial_handler_openmesh.c.obj
 .bss           0x00000000        0x0 examples/serial/CMakeFiles/serial_nrf52832_xxAA_s132_5.0.0.dir/__/__/mesh/serial/src/serial_handler_openmesh.c.obj
 .text          0x00000000        0x0 examples/serial/CMakeFiles/serial_nrf52832_xxAA_s132_5.0.0.dir/__/__/mesh/serial/src/serial.c.obj
 .data          0x00000000        0x0 examples/serial/CMakeFiles/serial_nrf52832_xxAA_s132_5.0.0.dir/__/__/mesh/serial/src/serial.c.obj
 .bss           0x00000000        0x0 examples/serial/CMakeFiles/serial_nrf52832_xxAA_s132_5.0.0.dir/__/__/mesh/serial/src/serial.c.obj
 .text          0x00000000        0x0 examples/serial/CMakeFiles/serial_nrf52832_xxAA_s132_5.0.0.dir/__/__/mesh/serial/src/serial_handler_prov.c.obj
 .data          0x00000000        0x0 examples/serial/CMakeFiles/serial_nrf52832_xxAA_s132_5.0.0.dir/__/__/mesh/serial/src/serial_handler_prov.c.obj
 .bss           0x00000000        0x0 examples/serial/CMakeFiles/serial_nrf52832_xxAA_s132_5.0.0.dir/__/__/mesh/serial/src/serial_handler_prov.c.obj
 .text.serial_handler_prov_context_get
                0x00000000       0x1c examples/serial/CMakeFiles/serial_nrf52832_xxAA_s132_5.0.0.dir/__/__/mesh/serial/src/serial_handler_prov.c.obj
 .text.serial_handler_prov_keys_get
                0x00000000       0x14 examples/serial/CMakeFiles/serial_nrf52832_xxAA_s132_5.0.0.dir/__/__/mesh/serial/src/serial_handler_prov.c.obj
 .text.serial_handler_prov_oob_caps_get
                0x00000000        0xc examples/serial/CMakeFiles/serial_nrf52832_xxAA_s132_5.0.0.dir/__/__/mesh/serial/src/serial_handler_prov.c.obj
 .text          0x00000000        0x0 examples/serial/CMakeFiles/serial_nrf52832_xxAA_s132_5.0.0.dir/__/__/mesh/serial/src/serial_handler_dfu.c.obj
 .data          0x00000000        0x0 examples/serial/CMakeFiles/serial_nrf52832_xxAA_s132_5.0.0.dir/__/__/mesh/serial/src/serial_handler_dfu.c.obj
 .bss           0x00000000        0x0 examples/serial/CMakeFiles/serial_nrf52832_xxAA_s132_5.0.0.dir/__/__/mesh/serial/src/serial_handler_dfu.c.obj
 .text          0x00000000        0x0 examples/serial/CMakeFiles/serial_nrf52832_xxAA_s132_5.0.0.dir/__/__/mesh/serial/src/serial_handler_mesh.c.obj
 .data          0x00000000        0x0 examples/serial/CMakeFiles/serial_nrf52832_xxAA_s132_5.0.0.dir/__/__/mesh/serial/src/serial_handler_mesh.c.obj
 .bss           0x00000000        0x0 examples/serial/CMakeFiles/serial_nrf52832_xxAA_s132_5.0.0.dir/__/__/mesh/serial/src/serial_handler_mesh.c.obj
 .text          0x00000000        0x0 examples/serial/CMakeFiles/serial_nrf52832_xxAA_s132_5.0.0.dir/__/__/mesh/serial/src/serial_handler_models.c.obj
 .data          0x00000000        0x0 examples/serial/CMakeFiles/serial_nrf52832_xxAA_s132_5.0.0.dir/__/__/mesh/serial/src/serial_handler_models.c.obj
 .bss           0x00000000        0x0 examples/serial/CMakeFiles/serial_nrf52832_xxAA_s132_5.0.0.dir/__/__/mesh/serial/src/serial_handler_models.c.obj
 .text.serial_handler_models_register
                0x00000000       0x2c examples/serial/CMakeFiles/serial_nrf52832_xxAA_s132_5.0.0.dir/__/__/mesh/serial/src/serial_handler_models.c.obj
 .text          0x00000000        0x0 examples/serial/CMakeFiles/serial_nrf52832_xxAA_s132_5.0.0.dir/__/__/mesh/serial/src/serial_handler_device.c.obj
 .data          0x00000000        0x0 examples/serial/CMakeFiles/serial_nrf52832_xxAA_s132_5.0.0.dir/__/__/mesh/serial/src/serial_handler_device.c.obj
 .bss           0x00000000        0x0 examples/serial/CMakeFiles/serial_nrf52832_xxAA_s132_5.0.0.dir/__/__/mesh/serial/src/serial_handler_device.c.obj
 .text          0x00000000        0x0 examples/serial/CMakeFiles/serial_nrf52832_xxAA_s132_5.0.0.dir/__/__/mesh/serial/src/nrf_mesh_serial.c.obj
 .data          0x00000000        0x0 examples/serial/CMakeFiles/serial_nrf52832_xxAA_s132_5.0.0.dir/__/__/mesh/serial/src/nrf_mesh_serial.c.obj
 .bss           0x00000000        0x0 examples/serial/CMakeFiles/serial_nrf52832_xxAA_s132_5.0.0.dir/__/__/mesh/serial/src/nrf_mesh_serial.c.obj
 .text.nrf_mesh_serial_state_get
                0x00000000        0x4 examples/serial/CMakeFiles/serial_nrf52832_xxAA_s132_5.0.0.dir/__/__/mesh/serial/src/nrf_mesh_serial.c.obj
 .text.nrf_mesh_serial_tx
                0x00000000       0x60 examples/serial/CMakeFiles/serial_nrf52832_xxAA_s132_5.0.0.dir/__/__/mesh/serial/src/nrf_mesh_serial.c.obj
 .text          0x00000000        0x0 examples/serial/CMakeFiles/serial_nrf52832_xxAA_s132_5.0.0.dir/__/__/mesh/serial/src/serial_handler_app.c.obj
 .data          0x00000000        0x0 examples/serial/CMakeFiles/serial_nrf52832_xxAA_s132_5.0.0.dir/__/__/mesh/serial/src/serial_handler_app.c.obj
 .bss           0x00000000        0x0 examples/serial/CMakeFiles/serial_nrf52832_xxAA_s132_5.0.0.dir/__/__/mesh/serial/src/serial_handler_app.c.obj
 .text          0x00000000        0x0 examples/serial/CMakeFiles/serial_nrf52832_xxAA_s132_5.0.0.dir/__/nrf_mesh_weak.c.obj
 .data          0x00000000        0x0 examples/serial/CMakeFiles/serial_nrf52832_xxAA_s132_5.0.0.dir/__/nrf_mesh_weak.c.obj
 .bss           0x00000000        0x0 examples/serial/CMakeFiles/serial_nrf52832_xxAA_s132_5.0.0.dir/__/nrf_mesh_weak.c.obj
 .text._weak_handler_ptr
                0x00000000        0x4 examples/serial/CMakeFiles/serial_nrf52832_xxAA_s132_5.0.0.dir/__/nrf_mesh_weak.c.obj
 .text          0x00000000        0x0 examples/serial/CMakeFiles/serial_nrf52832_xxAA_s132_5.0.0.dir/__/__/external/nRF5_SDK_14.0.0_3bcc1f7/components/toolchain/system_nrf52.c.obj
 .data          0x00000000        0x0 examples/serial/CMakeFiles/serial_nrf52832_xxAA_s132_5.0.0.dir/__/__/external/nRF5_SDK_14.0.0_3bcc1f7/components/toolchain/system_nrf52.c.obj
 .bss           0x00000000        0x0 examples/serial/CMakeFiles/serial_nrf52832_xxAA_s132_5.0.0.dir/__/__/external/nRF5_SDK_14.0.0_3bcc1f7/components/toolchain/system_nrf52.c.obj
 .text.SystemCoreClockUpdate
                0x00000000       0x10 examples/serial/CMakeFiles/serial_nrf52832_xxAA_s132_5.0.0.dir/__/__/external/nRF5_SDK_14.0.0_3bcc1f7/components/toolchain/system_nrf52.c.obj
 .data          0x00000000        0x0 examples/serial/CMakeFiles/serial_nrf52832_xxAA_s132_5.0.0.dir/__/__/external/nRF5_SDK_14.0.0_3bcc1f7/components/toolchain/gcc/gcc_startup_nrf52.S.obj
 .bss           0x00000000        0x0 examples/serial/CMakeFiles/serial_nrf52832_xxAA_s132_5.0.0.dir/__/__/external/nRF5_SDK_14.0.0_3bcc1f7/components/toolchain/gcc/gcc_startup_nrf52.S.obj
 .text          0x00000000        0x0 mesh/core/libmesh_core_nrf52832_xxAA.a(internal_event.c.obj)
 .data          0x00000000        0x0 mesh/core/libmesh_core_nrf52832_xxAA.a(internal_event.c.obj)
 .bss           0x00000000        0x0 mesh/core/libmesh_core_nrf52832_xxAA.a(internal_event.c.obj)
 .text.internal_event_pop
                0x00000000       0x1c mesh/core/libmesh_core_nrf52832_xxAA.a(internal_event.c.obj)
 .text          0x00000000        0x0 mesh/core/libmesh_core_nrf52832_xxAA.a(nrf_mesh_configure.c.obj)
 .data          0x00000000        0x0 mesh/core/libmesh_core_nrf52832_xxAA.a(nrf_mesh_configure.c.obj)
 .bss           0x00000000        0x0 mesh/core/libmesh_core_nrf52832_xxAA.a(nrf_mesh_configure.c.obj)
 .text          0x00000000        0x0 mesh/core/libmesh_core_nrf52832_xxAA.a(event.c.obj)
 .data          0x00000000        0x0 mesh/core/libmesh_core_nrf52832_xxAA.a(event.c.obj)
 .bss           0x00000000        0x0 mesh/core/libmesh_core_nrf52832_xxAA.a(event.c.obj)
 .text.event_handler_remove
                0x00000000       0x58 mesh/core/libmesh_core_nrf52832_xxAA.a(event.c.obj)
 .text          0x00000000        0x0 mesh/core/libmesh_core_nrf52832_xxAA.a(packet_buffer.c.obj)
 .data          0x00000000        0x0 mesh/core/libmesh_core_nrf52832_xxAA.a(packet_buffer.c.obj)
 .bss           0x00000000        0x0 mesh/core/libmesh_core_nrf52832_xxAA.a(packet_buffer.c.obj)
 .text          0x00000000        0x0 mesh/core/libmesh_core_nrf52832_xxAA.a(fifo.c.obj)
 .data          0x00000000        0x0 mesh/core/libmesh_core_nrf52832_xxAA.a(fifo.c.obj)
 .bss           0x00000000        0x0 mesh/core/libmesh_core_nrf52832_xxAA.a(fifo.c.obj)
 .text.fifo_peek_at
                0x00000000       0x50 mesh/core/libmesh_core_nrf52832_xxAA.a(fifo.c.obj)
 .text.fifo_peek
                0x00000000        0x6 mesh/core/libmesh_core_nrf52832_xxAA.a(fifo.c.obj)
 .text.fifo_flush
                0x00000000        0x6 mesh/core/libmesh_core_nrf52832_xxAA.a(fifo.c.obj)
 .text.fifo_get_len
                0x00000000        0x8 mesh/core/libmesh_core_nrf52832_xxAA.a(fifo.c.obj)
 .text.fifo_is_full
                0x00000000       0x10 mesh/core/libmesh_core_nrf52832_xxAA.a(fifo.c.obj)
 .text.fifo_is_empty
                0x00000000        0xc mesh/core/libmesh_core_nrf52832_xxAA.a(fifo.c.obj)
 .text          0x00000000        0x0 mesh/core/libmesh_core_nrf52832_xxAA.a(net_state.c.obj)
 .data          0x00000000        0x0 mesh/core/libmesh_core_nrf52832_xxAA.a(net_state.c.obj)
 .bss           0x00000000        0x0 mesh/core/libmesh_core_nrf52832_xxAA.a(net_state.c.obj)
 .text.net_state_iv_update_test_mode_set
                0x00000000        0xc mesh/core/libmesh_core_nrf52832_xxAA.a(net_state.c.obj)
 .text          0x00000000        0x0 mesh/core/libmesh_core_nrf52832_xxAA.a(nrf_mesh_utils.c.obj)
 .data          0x00000000        0x0 mesh/core/libmesh_core_nrf52832_xxAA.a(nrf_mesh_utils.c.obj)
 .bss           0x00000000        0x0 mesh/core/libmesh_core_nrf52832_xxAA.a(nrf_mesh_utils.c.obj)
 .text.nrf_mesh_rand_get
                0x00000000       0x10 mesh/core/libmesh_core_nrf52832_xxAA.a(nrf_mesh_utils.c.obj)
 .text.nrf_mesh_gap_address_type_get
                0x00000000       0x3c mesh/core/libmesh_core_nrf52832_xxAA.a(nrf_mesh_utils.c.obj)
 .text          0x00000000        0x0 mesh/core/libmesh_core_nrf52832_xxAA.a(nrf_mesh.c.obj)
 .data          0x00000000        0x0 mesh/core/libmesh_core_nrf52832_xxAA.a(nrf_mesh.c.obj)
 .bss           0x00000000        0x0 mesh/core/libmesh_core_nrf52832_xxAA.a(nrf_mesh.c.obj)
 .text.nrf_mesh_evt_handler_remove
                0x00000000        0x4 mesh/core/libmesh_core_nrf52832_xxAA.a(nrf_mesh.c.obj)
 .text.nrf_mesh_rx_cb_set
                0x00000000        0xc mesh/core/libmesh_core_nrf52832_xxAA.a(nrf_mesh.c.obj)
 .text.nrf_mesh_rx_cb_clear
                0x00000000        0xc mesh/core/libmesh_core_nrf52832_xxAA.a(nrf_mesh.c.obj)
 .text          0x00000000        0x0 mesh/core/libmesh_core_nrf52832_xxAA.a(hal.c.obj)
 .data          0x00000000        0x0 mesh/core/libmesh_core_nrf52832_xxAA.a(hal.c.obj)
 .bss           0x00000000        0x0 mesh/core/libmesh_core_nrf52832_xxAA.a(hal.c.obj)
 .text          0x00000000        0x0 mesh/core/libmesh_core_nrf52832_xxAA.a(timer_scheduler.c.obj)
 .data          0x00000000        0x0 mesh/core/libmesh_core_nrf52832_xxAA.a(timer_scheduler.c.obj)
 .bss           0x00000000        0x0 mesh/core/libmesh_core_nrf52832_xxAA.a(timer_scheduler.c.obj)
 .text          0x00000000        0x0 mesh/core/libmesh_core_nrf52832_xxAA.a(timer.c.obj)
 .data          0x00000000        0x0 mesh/core/libmesh_core_nrf52832_xxAA.a(timer.c.obj)
 .bss           0x00000000        0x0 mesh/core/libmesh_core_nrf52832_xxAA.a(timer.c.obj)
 .text.timer_order_cb_ppi
                0x00000000       0xc4 mesh/core/libmesh_core_nrf52832_xxAA.a(timer.c.obj)
 .text.timer_order_ppi
                0x00000000       0x84 mesh/core/libmesh_core_nrf52832_xxAA.a(timer.c.obj)
 .text.timer_abort
                0x00000000       0x78 mesh/core/libmesh_core_nrf52832_xxAA.a(timer.c.obj)
 .text          0x00000000        0x0 mesh/core/libmesh_core_nrf52832_xxAA.a(ticker.c.obj)
 .data          0x00000000        0x0 mesh/core/libmesh_core_nrf52832_xxAA.a(ticker.c.obj)
 .bss           0x00000000        0x0 mesh/core/libmesh_core_nrf52832_xxAA.a(ticker.c.obj)
 .text.ticker_get
                0x00000000        0xc mesh/core/libmesh_core_nrf52832_xxAA.a(ticker.c.obj)
 .text          0x00000000        0x0 mesh/core/libmesh_core_nrf52832_xxAA.a(rand.c.obj)
 .data          0x00000000        0x0 mesh/core/libmesh_core_nrf52832_xxAA.a(rand.c.obj)
 .bss           0x00000000        0x0 mesh/core/libmesh_core_nrf52832_xxAA.a(rand.c.obj)
 .text          0x00000000        0x0 mesh/core/libmesh_core_nrf52832_xxAA.a(nrf_mesh_opt.c.obj)
 .data          0x00000000        0x0 mesh/core/libmesh_core_nrf52832_xxAA.a(nrf_mesh_opt.c.obj)
 .bss           0x00000000        0x0 mesh/core/libmesh_core_nrf52832_xxAA.a(nrf_mesh_opt.c.obj)
 .text.nrf_mesh_opt_get
                0x00000000       0x26 mesh/core/libmesh_core_nrf52832_xxAA.a(nrf_mesh_opt.c.obj)
 .text          0x00000000        0x0 mesh/core/libmesh_core_nrf52832_xxAA.a(timeslot.c.obj)
 .data          0x00000000        0x0 mesh/core/libmesh_core_nrf52832_xxAA.a(timeslot.c.obj)
 .bss           0x00000000        0x0 mesh/core/libmesh_core_nrf52832_xxAA.a(timeslot.c.obj)
 .text.timeslot_end_time_get
                0x00000000       0x10 mesh/core/libmesh_core_nrf52832_xxAA.a(timeslot.c.obj)
 .text.timeslot_is_in_ts
                0x00000000        0xc mesh/core/libmesh_core_nrf52832_xxAA.a(timeslot.c.obj)
 .text.timeslot_restart
                0x00000000       0x10 mesh/core/libmesh_core_nrf52832_xxAA.a(timeslot.c.obj)
 .text          0x00000000        0x0 mesh/core/libmesh_core_nrf52832_xxAA.a(bearer_event.c.obj)
 .data          0x00000000        0x0 mesh/core/libmesh_core_nrf52832_xxAA.a(bearer_event.c.obj)
 .bss           0x00000000        0x0 mesh/core/libmesh_core_nrf52832_xxAA.a(bearer_event.c.obj)
 .text.bearer_event_timer_sch_post
                0x00000000       0x34 mesh/core/libmesh_core_nrf52832_xxAA.a(bearer_event.c.obj)
 .text          0x00000000        0x0 mesh/core/libmesh_core_nrf52832_xxAA.a(enc.c.obj)
 .data          0x00000000        0x0 mesh/core/libmesh_core_nrf52832_xxAA.a(enc.c.obj)
 .bss           0x00000000        0x0 mesh/core/libmesh_core_nrf52832_xxAA.a(enc.c.obj)
 .text.enc_key_generate
                0x00000000        0x6 mesh/core/libmesh_core_nrf52832_xxAA.a(enc.c.obj)
 .text          0x00000000        0x0 mesh/core/libmesh_core_nrf52832_xxAA.a(network.c.obj)
 .data          0x00000000        0x0 mesh/core/libmesh_core_nrf52832_xxAA.a(network.c.obj)
 .bss           0x00000000        0x0 mesh/core/libmesh_core_nrf52832_xxAA.a(network.c.obj)
 .text.network_opt_get
                0x00000000       0x48 mesh/core/libmesh_core_nrf52832_xxAA.a(network.c.obj)
 .text.network_packet_discard
                0x00000000       0x3c mesh/core/libmesh_core_nrf52832_xxAA.a(network.c.obj)
 .text          0x00000000        0x0 mesh/core/libmesh_core_nrf52832_xxAA.a(nrf_mesh_keygen.c.obj)
 .data          0x00000000        0x0 mesh/core/libmesh_core_nrf52832_xxAA.a(nrf_mesh_keygen.c.obj)
 .bss           0x00000000        0x0 mesh/core/libmesh_core_nrf52832_xxAA.a(nrf_mesh_keygen.c.obj)
 .text.nrf_mesh_keygen_identitykey
                0x00000000       0x4c mesh/core/libmesh_core_nrf52832_xxAA.a(nrf_mesh_keygen.c.obj)
 .text          0x00000000        0x0 mesh/core/libmesh_core_nrf52832_xxAA.a(log.c.obj)
 .data          0x00000000        0x0 mesh/core/libmesh_core_nrf52832_xxAA.a(log.c.obj)
 .bss           0x00000000        0x0 mesh/core/libmesh_core_nrf52832_xxAA.a(log.c.obj)
 .text.log_callback_logview
                0x00000000       0x38 mesh/core/libmesh_core_nrf52832_xxAA.a(log.c.obj)
 .text.log_set_callback
                0x00000000        0xc mesh/core/libmesh_core_nrf52832_xxAA.a(log.c.obj)
 .rodata.log_callback_logview.str1.1
                0x00000000        0xf mesh/core/libmesh_core_nrf52832_xxAA.a(log.c.obj)
 .text          0x00000000        0x0 mesh/core/libmesh_core_nrf52832_xxAA.a(flash_manager.c.obj)
 .data          0x00000000        0x0 mesh/core/libmesh_core_nrf52832_xxAA.a(flash_manager.c.obj)
 .bss           0x00000000        0x0 mesh/core/libmesh_core_nrf52832_xxAA.a(flash_manager.c.obj)
 .text.flash_manager_entry_get
                0x00000000       0x48 mesh/core/libmesh_core_nrf52832_xxAA.a(flash_manager.c.obj)
 .text.flash_manager_entry_count_get
                0x00000000       0x5c mesh/core/libmesh_core_nrf52832_xxAA.a(flash_manager.c.obj)
 .text.flash_manager_entry_release
                0x00000000       0x12 mesh/core/libmesh_core_nrf52832_xxAA.a(flash_manager.c.obj)
 .text          0x00000000        0x0 mesh/core/libmesh_core_nrf52832_xxAA.a(ccm_soft.c.obj)
 .data          0x00000000        0x0 mesh/core/libmesh_core_nrf52832_xxAA.a(ccm_soft.c.obj)
 .bss           0x00000000        0x0 mesh/core/libmesh_core_nrf52832_xxAA.a(ccm_soft.c.obj)
 .text          0x00000000        0x0 mesh/core/libmesh_core_nrf52832_xxAA.a(beacon.c.obj)
 .data          0x00000000        0x0 mesh/core/libmesh_core_nrf52832_xxAA.a(beacon.c.obj)
 .bss           0x00000000        0x0 mesh/core/libmesh_core_nrf52832_xxAA.a(beacon.c.obj)
 .text          0x00000000        0x0 mesh/core/libmesh_core_nrf52832_xxAA.a(flash_manager_internal.c.obj)
 .data          0x00000000        0x0 mesh/core/libmesh_core_nrf52832_xxAA.a(flash_manager_internal.c.obj)
 .bss           0x00000000        0x0 mesh/core/libmesh_core_nrf52832_xxAA.a(flash_manager_internal.c.obj)
 .text          0x00000000        0x0 mesh/core/libmesh_core_nrf52832_xxAA.a(core_tx.c.obj)
 .data          0x00000000        0x0 mesh/core/libmesh_core_nrf52832_xxAA.a(core_tx.c.obj)
 .bss           0x00000000        0x0 mesh/core/libmesh_core_nrf52832_xxAA.a(core_tx.c.obj)
 .text.core_tx_adv_count_get
                0x00000000       0x28 mesh/core/libmesh_core_nrf52832_xxAA.a(core_tx.c.obj)
 .text.core_tx_adv_interval_get
                0x00000000       0x34 mesh/core/libmesh_core_nrf52832_xxAA.a(core_tx.c.obj)
 .text.core_tx_adv_address_set
                0x00000000       0x34 mesh/core/libmesh_core_nrf52832_xxAA.a(core_tx.c.obj)
 .text          0x00000000        0x0 mesh/core/libmesh_core_nrf52832_xxAA.a(net_beacon.c.obj)
 .data          0x00000000        0x0 mesh/core/libmesh_core_nrf52832_xxAA.a(net_beacon.c.obj)
 .bss           0x00000000        0x0 mesh/core/libmesh_core_nrf52832_xxAA.a(net_beacon.c.obj)
 .text.net_beacon_state_set
                0x00000000       0x34 mesh/core/libmesh_core_nrf52832_xxAA.a(net_beacon.c.obj)
 .text.net_beacon_state_get
                0x00000000        0xc mesh/core/libmesh_core_nrf52832_xxAA.a(net_beacon.c.obj)
 .text          0x00000000        0x0 mesh/core/libmesh_core_nrf52832_xxAA.a(advertiser.c.obj)
 .data          0x00000000        0x0 mesh/core/libmesh_core_nrf52832_xxAA.a(advertiser.c.obj)
 .bss           0x00000000        0x0 mesh/core/libmesh_core_nrf52832_xxAA.a(advertiser.c.obj)
 .text.advertiser_address_set
                0x00000000       0x50 mesh/core/libmesh_core_nrf52832_xxAA.a(advertiser.c.obj)
 .text.advertiser_config_set
                0x00000000       0x44 mesh/core/libmesh_core_nrf52832_xxAA.a(advertiser.c.obj)
 .text.advertiser_config_get
                0x00000000       0x2c mesh/core/libmesh_core_nrf52832_xxAA.a(advertiser.c.obj)
 .text          0x00000000        0x0 mesh/core/libmesh_core_nrf52832_xxAA.a(bearer_handler.c.obj)
 .data          0x00000000        0x0 mesh/core/libmesh_core_nrf52832_xxAA.a(bearer_handler.c.obj)
 .bss           0x00000000        0x0 mesh/core/libmesh_core_nrf52832_xxAA.a(bearer_handler.c.obj)
 .text.bearer_handler_action_fire
                0x00000000       0xb0 mesh/core/libmesh_core_nrf52832_xxAA.a(bearer_handler.c.obj)
 .text          0x00000000        0x0 mesh/core/libmesh_core_nrf52832_xxAA.a(broadcast.c.obj)
 .data          0x00000000        0x0 mesh/core/libmesh_core_nrf52832_xxAA.a(broadcast.c.obj)
 .bss           0x00000000        0x0 mesh/core/libmesh_core_nrf52832_xxAA.a(broadcast.c.obj)
 .text          0x00000000        0x0 mesh/core/libmesh_core_nrf52832_xxAA.a(radio_config.c.obj)
 .data          0x00000000        0x0 mesh/core/libmesh_core_nrf52832_xxAA.a(radio_config.c.obj)
 .bss           0x00000000        0x0 mesh/core/libmesh_core_nrf52832_xxAA.a(radio_config.c.obj)
 .text.radio_config_access_addr_get
                0x00000000       0x64 mesh/core/libmesh_core_nrf52832_xxAA.a(radio_config.c.obj)
 .text          0x00000000        0x0 mesh/core/libmesh_core_nrf52832_xxAA.a(scanner.c.obj)
 .data          0x00000000        0x0 mesh/core/libmesh_core_nrf52832_xxAA.a(scanner.c.obj)
 .bss           0x00000000        0x0 mesh/core/libmesh_core_nrf52832_xxAA.a(scanner.c.obj)
 .text.scanner_is_enabled
                0x00000000       0x10 mesh/core/libmesh_core_nrf52832_xxAA.a(scanner.c.obj)
 .text.scanner_stats_get
                0x00000000        0x8 mesh/core/libmesh_core_nrf52832_xxAA.a(scanner.c.obj)
 .text.scanner_config_radio_mode_set
                0x00000000       0x10 mesh/core/libmesh_core_nrf52832_xxAA.a(scanner.c.obj)
 .text          0x00000000        0x0 mesh/core/libmesh_core_nrf52832_xxAA.a(aes.c.obj)
 .data          0x00000000        0x0 mesh/core/libmesh_core_nrf52832_xxAA.a(aes.c.obj)
 .bss           0x00000000        0x0 mesh/core/libmesh_core_nrf52832_xxAA.a(aes.c.obj)
 .text          0x00000000        0x0 mesh/core/libmesh_core_nrf52832_xxAA.a(msg_cache.c.obj)
 .data          0x00000000        0x0 mesh/core/libmesh_core_nrf52832_xxAA.a(msg_cache.c.obj)
 .bss           0x00000000        0x0 mesh/core/libmesh_core_nrf52832_xxAA.a(msg_cache.c.obj)
 .text.msg_cache_clear
                0x00000000       0x18 mesh/core/libmesh_core_nrf52832_xxAA.a(msg_cache.c.obj)
 .text          0x00000000        0x0 mesh/core/libmesh_core_nrf52832_xxAA.a(transport.c.obj)
 .data          0x00000000        0x0 mesh/core/libmesh_core_nrf52832_xxAA.a(transport.c.obj)
 .bss           0x00000000        0x0 mesh/core/libmesh_core_nrf52832_xxAA.a(transport.c.obj)
 .text.transport_sar_mem_funcs_set
                0x00000000       0x44 mesh/core/libmesh_core_nrf52832_xxAA.a(transport.c.obj)
 .text.transport_opt_get
                0x00000000       0x68 mesh/core/libmesh_core_nrf52832_xxAA.a(transport.c.obj)
 .text          0x00000000        0x0 mesh/core/libmesh_core_nrf52832_xxAA.a(flash_manager_defrag.c.obj)
 .data          0x00000000        0x0 mesh/core/libmesh_core_nrf52832_xxAA.a(flash_manager_defrag.c.obj)
 .bss           0x00000000        0x0 mesh/core/libmesh_core_nrf52832_xxAA.a(flash_manager_defrag.c.obj)
 .text.flash_manager_defragging
                0x00000000       0x44 mesh/core/libmesh_core_nrf52832_xxAA.a(flash_manager_defrag.c.obj)
 .text          0x00000000        0x0 mesh/core/libmesh_core_nrf52832_xxAA.a(packet_mgr.c.obj)
 .data          0x00000000        0x0 mesh/core/libmesh_core_nrf52832_xxAA.a(packet_mgr.c.obj)
 .bss           0x00000000        0x0 mesh/core/libmesh_core_nrf52832_xxAA.a(packet_mgr.c.obj)
 .text.packet_mgr_alloc
                0x00000000      0x19c mesh/core/libmesh_core_nrf52832_xxAA.a(packet_mgr.c.obj)
 .text.packet_mgr_free
                0x00000000       0x6c mesh/core/libmesh_core_nrf52832_xxAA.a(packet_mgr.c.obj)
 .text.packet_mgr_get_free_space
                0x00000000       0x1c mesh/core/libmesh_core_nrf52832_xxAA.a(packet_mgr.c.obj)
 .text.packet_mgr_refcount_get
                0x00000000        0x6 mesh/core/libmesh_core_nrf52832_xxAA.a(packet_mgr.c.obj)
 .text.packet_mgr_size_get
                0x00000000        0x6 mesh/core/libmesh_core_nrf52832_xxAA.a(packet_mgr.c.obj)
 .text          0x00000000        0x0 mesh/core/libmesh_core_nrf52832_xxAA.a(mesh_flash.c.obj)
 .data          0x00000000        0x0 mesh/core/libmesh_core_nrf52832_xxAA.a(mesh_flash.c.obj)
 .bss           0x00000000        0x0 mesh/core/libmesh_core_nrf52832_xxAA.a(mesh_flash.c.obj)
 .text.mesh_flash_op_available_slots
                0x00000000       0x2c mesh/core/libmesh_core_nrf52832_xxAA.a(mesh_flash.c.obj)
 .text.mesh_flash_in_progress
                0x00000000       0x34 mesh/core/libmesh_core_nrf52832_xxAA.a(mesh_flash.c.obj)
 .text.mesh_flash_set_suspended
                0x00000000       0x80 mesh/core/libmesh_core_nrf52832_xxAA.a(mesh_flash.c.obj)
 .bss.suspend_count.10003
                0x00000000        0x4 mesh/core/libmesh_core_nrf52832_xxAA.a(mesh_flash.c.obj)
 .text          0x00000000        0x0 mesh/core/libmesh_core_nrf52832_xxAA.a(queue.c.obj)
 .data          0x00000000        0x0 mesh/core/libmesh_core_nrf52832_xxAA.a(queue.c.obj)
 .bss           0x00000000        0x0 mesh/core/libmesh_core_nrf52832_xxAA.a(queue.c.obj)
 .text          0x00000000        0x0 mesh/core/libmesh_core_nrf52832_xxAA.a(aes_cmac.c.obj)
 .data          0x00000000        0x0 mesh/core/libmesh_core_nrf52832_xxAA.a(aes_cmac.c.obj)
 .bss           0x00000000        0x0 mesh/core/libmesh_core_nrf52832_xxAA.a(aes_cmac.c.obj)
 .text          0x00000000        0x0 mesh/core/libmesh_core_nrf52832_xxAA.a(msqueue.c.obj)
 .data          0x00000000        0x0 mesh/core/libmesh_core_nrf52832_xxAA.a(msqueue.c.obj)
 .bss           0x00000000        0x0 mesh/core/libmesh_core_nrf52832_xxAA.a(msqueue.c.obj)
 .text          0x00000000        0x0 mesh/core/libmesh_core_nrf52832_xxAA.a(replay_cache.c.obj)
 .data          0x00000000        0x0 mesh/core/libmesh_core_nrf52832_xxAA.a(replay_cache.c.obj)
 .bss           0x00000000        0x0 mesh/core/libmesh_core_nrf52832_xxAA.a(replay_cache.c.obj)
 .text.replay_cache_on_iv_update
                0x00000000       0x24 mesh/core/libmesh_core_nrf52832_xxAA.a(replay_cache.c.obj)
 .text          0x00000000        0x0 mesh/core/libmesh_core_nrf52832_xxAA.a(filter_engine.c.obj)
 .data          0x00000000        0x0 mesh/core/libmesh_core_nrf52832_xxAA.a(filter_engine.c.obj)
 .bss           0x00000000        0x0 mesh/core/libmesh_core_nrf52832_xxAA.a(filter_engine.c.obj)
 .text.fen_filter_start
                0x00000000       0x68 mesh/core/libmesh_core_nrf52832_xxAA.a(filter_engine.c.obj)
 .text.fen_filter_stop
                0x00000000       0x5c mesh/core/libmesh_core_nrf52832_xxAA.a(filter_engine.c.obj)
 .text.fen_accepted_amount_get
                0x00000000        0xc mesh/core/libmesh_core_nrf52832_xxAA.a(filter_engine.c.obj)
 .text          0x00000000        0x0 mesh/core/libmesh_core_nrf52832_xxAA.a(nrf_flash.c.obj)
 .data          0x00000000        0x0 mesh/core/libmesh_core_nrf52832_xxAA.a(nrf_flash.c.obj)
 .bss           0x00000000        0x0 mesh/core/libmesh_core_nrf52832_xxAA.a(nrf_flash.c.obj)
 .text          0x00000000        0x0 external/micro-ecc/libuECC_nrf52832_xxAA.a(uECC.c.obj)
 .data          0x00000000        0x0 external/micro-ecc/libuECC_nrf52832_xxAA.a(uECC.c.obj)
 .bss           0x00000000        0x0 external/micro-ecc/libuECC_nrf52832_xxAA.a(uECC.c.obj)
 .text.uECC_vli_modMult
                0x00000000      0x148 external/micro-ecc/libuECC_nrf52832_xxAA.a(uECC.c.obj)
 .text.HMAC_init
                0x00000000       0x46 external/micro-ecc/libuECC_nrf52832_xxAA.a(uECC.c.obj)
 .text.HMAC_update
                0x00000000        0x4 external/micro-ecc/libuECC_nrf52832_xxAA.a(uECC.c.obj)
 .text.HMAC_finish
                0x00000000       0x62 external/micro-ecc/libuECC_nrf52832_xxAA.a(uECC.c.obj)
 .text.update_V
                0x00000000       0x24 external/micro-ecc/libuECC_nrf52832_xxAA.a(uECC.c.obj)
 .text.bits2int
                0x00000000       0x88 external/micro-ecc/libuECC_nrf52832_xxAA.a(uECC.c.obj)
 .text.uECC_sign_with_k
                0x00000000      0x17c external/micro-ecc/libuECC_nrf52832_xxAA.a(uECC.c.obj)
 .text.uECC_set_rng
                0x00000000        0xc external/micro-ecc/libuECC_nrf52832_xxAA.a(uECC.c.obj)
 .text.uECC_get_rng
                0x00000000        0xc external/micro-ecc/libuECC_nrf52832_xxAA.a(uECC.c.obj)
 .text.uECC_curve_private_key_size
                0x00000000        0xe external/micro-ecc/libuECC_nrf52832_xxAA.a(uECC.c.obj)
 .text.uECC_curve_public_key_size
                0x00000000        0x8 external/micro-ecc/libuECC_nrf52832_xxAA.a(uECC.c.obj)
 .text.uECC_compute_public_key
                0x00000000       0x7e external/micro-ecc/libuECC_nrf52832_xxAA.a(uECC.c.obj)
 .text.uECC_sign
                0x00000000       0x56 external/micro-ecc/libuECC_nrf52832_xxAA.a(uECC.c.obj)
 .text.uECC_sign_deterministic
                0x00000000      0x192 external/micro-ecc/libuECC_nrf52832_xxAA.a(uECC.c.obj)
 .text.uECC_verify
                0x00000000      0x2f0 external/micro-ecc/libuECC_nrf52832_xxAA.a(uECC.c.obj)
 .text          0x00000000        0x0 external/rtt/librtt_nrf52832_xxAA.a(SEGGER_RTT.c.obj)
 .data          0x00000000        0x0 external/rtt/librtt_nrf52832_xxAA.a(SEGGER_RTT.c.obj)
 .bss           0x00000000        0x0 external/rtt/librtt_nrf52832_xxAA.a(SEGGER_RTT.c.obj)
 .text._PostTerminalSwitch.constprop.0
                0x00000000       0x28 external/rtt/librtt_nrf52832_xxAA.a(SEGGER_RTT.c.obj)
 .text.SEGGER_RTT_ReadNoLock
                0x00000000       0x88 external/rtt/librtt_nrf52832_xxAA.a(SEGGER_RTT.c.obj)
 .text.SEGGER_RTT_Read
                0x00000000       0x1c external/rtt/librtt_nrf52832_xxAA.a(SEGGER_RTT.c.obj)
 .text.SEGGER_RTT_WriteSkipNoLock
                0x00000000       0xb4 external/rtt/librtt_nrf52832_xxAA.a(SEGGER_RTT.c.obj)
 .text.SEGGER_RTT_WriteString
                0x00000000       0x1a external/rtt/librtt_nrf52832_xxAA.a(SEGGER_RTT.c.obj)
 .text.SEGGER_RTT_GetKey
                0x00000000       0x20 external/rtt/librtt_nrf52832_xxAA.a(SEGGER_RTT.c.obj)
 .text.SEGGER_RTT_WaitKey
                0x00000000        0xc external/rtt/librtt_nrf52832_xxAA.a(SEGGER_RTT.c.obj)
 .text.SEGGER_RTT_HasKey
                0x00000000       0x1c external/rtt/librtt_nrf52832_xxAA.a(SEGGER_RTT.c.obj)
 .text.SEGGER_RTT_HasData
                0x00000000       0x14 external/rtt/librtt_nrf52832_xxAA.a(SEGGER_RTT.c.obj)
 .text.SEGGER_RTT_AllocDownBuffer
                0x00000000       0x68 external/rtt/librtt_nrf52832_xxAA.a(SEGGER_RTT.c.obj)
 .text.SEGGER_RTT_AllocUpBuffer
                0x00000000       0x70 external/rtt/librtt_nrf52832_xxAA.a(SEGGER_RTT.c.obj)
 .text.SEGGER_RTT_ConfigUpBuffer
                0x00000000       0x68 external/rtt/librtt_nrf52832_xxAA.a(SEGGER_RTT.c.obj)
 .text.SEGGER_RTT_ConfigDownBuffer
                0x00000000       0x60 external/rtt/librtt_nrf52832_xxAA.a(SEGGER_RTT.c.obj)
 .text.SEGGER_RTT_SetNameUpBuffer
                0x00000000       0x3c external/rtt/librtt_nrf52832_xxAA.a(SEGGER_RTT.c.obj)
 .text.SEGGER_RTT_SetNameDownBuffer
                0x00000000       0x3c external/rtt/librtt_nrf52832_xxAA.a(SEGGER_RTT.c.obj)
 .text.SEGGER_RTT_Init
                0x00000000       0x10 external/rtt/librtt_nrf52832_xxAA.a(SEGGER_RTT.c.obj)
 .text.SEGGER_RTT_SetTerminal
                0x00000000       0x84 external/rtt/librtt_nrf52832_xxAA.a(SEGGER_RTT.c.obj)
 .text.SEGGER_RTT_TerminalOut
                0x00000000       0xa0 external/rtt/librtt_nrf52832_xxAA.a(SEGGER_RTT.c.obj)
 .bss._ActiveTerminal
                0x00000000        0x1 external/rtt/librtt_nrf52832_xxAA.a(SEGGER_RTT.c.obj)
 .rodata._aTerminalId
                0x00000000       0x10 external/rtt/librtt_nrf52832_xxAA.a(SEGGER_RTT.c.obj)
 .text          0x00000000        0x0 external/rtt/librtt_nrf52832_xxAA.a(SEGGER_RTT_printf.c.obj)
 .data          0x00000000        0x0 external/rtt/librtt_nrf52832_xxAA.a(SEGGER_RTT_printf.c.obj)
 .bss           0x00000000        0x0 external/rtt/librtt_nrf52832_xxAA.a(SEGGER_RTT_printf.c.obj)
 .text          0x00000000        0x0 c:/a/gcc_arm/6/bin/../lib/gcc/arm-none-eabi/6.3.1/../../../../arm-none-eabi/lib/thumb/v7e-m/fpv4-sp/hard\libc_nano.a(lib_a-exit.o)
 .data          0x00000000        0x0 c:/a/gcc_arm/6/bin/../lib/gcc/arm-none-eabi/6.3.1/../../../../arm-none-eabi/lib/thumb/v7e-m/fpv4-sp/hard\libc_nano.a(lib_a-exit.o)
 .bss           0x00000000        0x0 c:/a/gcc_arm/6/bin/../lib/gcc/arm-none-eabi/6.3.1/../../../../arm-none-eabi/lib/thumb/v7e-m/fpv4-sp/hard\libc_nano.a(lib_a-exit.o)
 .text          0x00000000        0x0 c:/a/gcc_arm/6/bin/../lib/gcc/arm-none-eabi/6.3.1/../../../../arm-none-eabi/lib/thumb/v7e-m/fpv4-sp/hard\libc_nano.a(lib_a-impure.o)
 .data          0x00000000        0x0 c:/a/gcc_arm/6/bin/../lib/gcc/arm-none-eabi/6.3.1/../../../../arm-none-eabi/lib/thumb/v7e-m/fpv4-sp/hard\libc_nano.a(lib_a-impure.o)
 .bss           0x00000000        0x0 c:/a/gcc_arm/6/bin/../lib/gcc/arm-none-eabi/6.3.1/../../../../arm-none-eabi/lib/thumb/v7e-m/fpv4-sp/hard\libc_nano.a(lib_a-impure.o)
 .text          0x00000000        0x0 c:/a/gcc_arm/6/bin/../lib/gcc/arm-none-eabi/6.3.1/../../../../arm-none-eabi/lib/thumb/v7e-m/fpv4-sp/hard\libc_nano.a(lib_a-init.o)
 .data          0x00000000        0x0 c:/a/gcc_arm/6/bin/../lib/gcc/arm-none-eabi/6.3.1/../../../../arm-none-eabi/lib/thumb/v7e-m/fpv4-sp/hard\libc_nano.a(lib_a-init.o)
 .bss           0x00000000        0x0 c:/a/gcc_arm/6/bin/../lib/gcc/arm-none-eabi/6.3.1/../../../../arm-none-eabi/lib/thumb/v7e-m/fpv4-sp/hard\libc_nano.a(lib_a-init.o)
 .text          0x00000000        0x0 c:/a/gcc_arm/6/bin/../lib/gcc/arm-none-eabi/6.3.1/../../../../arm-none-eabi/lib/thumb/v7e-m/fpv4-sp/hard\libc_nano.a(lib_a-malloc.o)
 .data          0x00000000        0x0 c:/a/gcc_arm/6/bin/../lib/gcc/arm-none-eabi/6.3.1/../../../../arm-none-eabi/lib/thumb/v7e-m/fpv4-sp/hard\libc_nano.a(lib_a-malloc.o)
 .bss           0x00000000        0x0 c:/a/gcc_arm/6/bin/../lib/gcc/arm-none-eabi/6.3.1/../../../../arm-none-eabi/lib/thumb/v7e-m/fpv4-sp/hard\libc_nano.a(lib_a-malloc.o)
 .text          0x00000000        0x0 c:/a/gcc_arm/6/bin/../lib/gcc/arm-none-eabi/6.3.1/../../../../arm-none-eabi/lib/thumb/v7e-m/fpv4-sp/hard\libc_nano.a(lib_a-memcmp.o)
 .data          0x00000000        0x0 c:/a/gcc_arm/6/bin/../lib/gcc/arm-none-eabi/6.3.1/../../../../arm-none-eabi/lib/thumb/v7e-m/fpv4-sp/hard\libc_nano.a(lib_a-memcmp.o)
 .bss           0x00000000        0x0 c:/a/gcc_arm/6/bin/../lib/gcc/arm-none-eabi/6.3.1/../../../../arm-none-eabi/lib/thumb/v7e-m/fpv4-sp/hard\libc_nano.a(lib_a-memcmp.o)
 .text          0x00000000        0x0 c:/a/gcc_arm/6/bin/../lib/gcc/arm-none-eabi/6.3.1/../../../../arm-none-eabi/lib/thumb/v7e-m/fpv4-sp/hard\libc_nano.a(lib_a-memcpy-stub.o)
 .data          0x00000000        0x0 c:/a/gcc_arm/6/bin/../lib/gcc/arm-none-eabi/6.3.1/../../../../arm-none-eabi/lib/thumb/v7e-m/fpv4-sp/hard\libc_nano.a(lib_a-memcpy-stub.o)
 .bss           0x00000000        0x0 c:/a/gcc_arm/6/bin/../lib/gcc/arm-none-eabi/6.3.1/../../../../arm-none-eabi/lib/thumb/v7e-m/fpv4-sp/hard\libc_nano.a(lib_a-memcpy-stub.o)
 .text          0x00000000        0x0 c:/a/gcc_arm/6/bin/../lib/gcc/arm-none-eabi/6.3.1/../../../../arm-none-eabi/lib/thumb/v7e-m/fpv4-sp/hard\libc_nano.a(lib_a-memset.o)
 .data          0x00000000        0x0 c:/a/gcc_arm/6/bin/../lib/gcc/arm-none-eabi/6.3.1/../../../../arm-none-eabi/lib/thumb/v7e-m/fpv4-sp/hard\libc_nano.a(lib_a-memset.o)
 .bss           0x00000000        0x0 c:/a/gcc_arm/6/bin/../lib/gcc/arm-none-eabi/6.3.1/../../../../arm-none-eabi/lib/thumb/v7e-m/fpv4-sp/hard\libc_nano.a(lib_a-memset.o)
 .text          0x00000000        0x0 c:/a/gcc_arm/6/bin/../lib/gcc/arm-none-eabi/6.3.1/../../../../arm-none-eabi/lib/thumb/v7e-m/fpv4-sp/hard\libc_nano.a(lib_a-nano-freer.o)
 .data          0x00000000        0x0 c:/a/gcc_arm/6/bin/../lib/gcc/arm-none-eabi/6.3.1/../../../../arm-none-eabi/lib/thumb/v7e-m/fpv4-sp/hard\libc_nano.a(lib_a-nano-freer.o)
 .bss           0x00000000        0x0 c:/a/gcc_arm/6/bin/../lib/gcc/arm-none-eabi/6.3.1/../../../../arm-none-eabi/lib/thumb/v7e-m/fpv4-sp/hard\libc_nano.a(lib_a-nano-freer.o)
 .text          0x00000000        0x0 c:/a/gcc_arm/6/bin/../lib/gcc/arm-none-eabi/6.3.1/../../../../arm-none-eabi/lib/thumb/v7e-m/fpv4-sp/hard\libc_nano.a(lib_a-nano-mallocr.o)
 .data          0x00000000        0x0 c:/a/gcc_arm/6/bin/../lib/gcc/arm-none-eabi/6.3.1/../../../../arm-none-eabi/lib/thumb/v7e-m/fpv4-sp/hard\libc_nano.a(lib_a-nano-mallocr.o)
 .bss           0x00000000        0x0 c:/a/gcc_arm/6/bin/../lib/gcc/arm-none-eabi/6.3.1/../../../../arm-none-eabi/lib/thumb/v7e-m/fpv4-sp/hard\libc_nano.a(lib_a-nano-mallocr.o)
 .text          0x00000000        0x0 c:/a/gcc_arm/6/bin/../lib/gcc/arm-none-eabi/6.3.1/../../../../arm-none-eabi/lib/thumb/v7e-m/fpv4-sp/hard\libc_nano.a(lib_a-sbrkr.o)
 .data          0x00000000        0x0 c:/a/gcc_arm/6/bin/../lib/gcc/arm-none-eabi/6.3.1/../../../../arm-none-eabi/lib/thumb/v7e-m/fpv4-sp/hard\libc_nano.a(lib_a-sbrkr.o)
 .bss           0x00000000        0x0 c:/a/gcc_arm/6/bin/../lib/gcc/arm-none-eabi/6.3.1/../../../../arm-none-eabi/lib/thumb/v7e-m/fpv4-sp/hard\libc_nano.a(lib_a-sbrkr.o)
 .text          0x00000000        0x0 c:/a/gcc_arm/6/bin/../lib/gcc/arm-none-eabi/6.3.1/../../../../arm-none-eabi/lib/thumb/v7e-m/fpv4-sp/hard\libc_nano.a(lib_a-strcpy.o)
 .data          0x00000000        0x0 c:/a/gcc_arm/6/bin/../lib/gcc/arm-none-eabi/6.3.1/../../../../arm-none-eabi/lib/thumb/v7e-m/fpv4-sp/hard\libc_nano.a(lib_a-strcpy.o)
 .bss           0x00000000        0x0 c:/a/gcc_arm/6/bin/../lib/gcc/arm-none-eabi/6.3.1/../../../../arm-none-eabi/lib/thumb/v7e-m/fpv4-sp/hard\libc_nano.a(lib_a-strcpy.o)
 .data          0x00000000        0x0 c:/a/gcc_arm/6/bin/../lib/gcc/arm-none-eabi/6.3.1/../../../../arm-none-eabi/lib/thumb/v7e-m/fpv4-sp/hard\libc_nano.a(lib_a-strlen.o)
 .bss           0x00000000        0x0 c:/a/gcc_arm/6/bin/../lib/gcc/arm-none-eabi/6.3.1/../../../../arm-none-eabi/lib/thumb/v7e-m/fpv4-sp/hard\libc_nano.a(lib_a-strlen.o)
 .text          0x00000000        0x0 c:/a/gcc_arm/6/bin/../lib/gcc/arm-none-eabi/6.3.1/../../../../arm-none-eabi/lib/thumb/v7e-m/fpv4-sp/hard\libc_nano.a(lib_a-strrchr.o)
 .data          0x00000000        0x0 c:/a/gcc_arm/6/bin/../lib/gcc/arm-none-eabi/6.3.1/../../../../arm-none-eabi/lib/thumb/v7e-m/fpv4-sp/hard\libc_nano.a(lib_a-strrchr.o)
 .bss           0x00000000        0x0 c:/a/gcc_arm/6/bin/../lib/gcc/arm-none-eabi/6.3.1/../../../../arm-none-eabi/lib/thumb/v7e-m/fpv4-sp/hard\libc_nano.a(lib_a-strrchr.o)
 .text          0x00000000        0x0 c:/a/gcc_arm/6/bin/../lib/gcc/arm-none-eabi/6.3.1/../../../../arm-none-eabi/lib/thumb/v7e-m/fpv4-sp/hard\libc_nano.a(lib_a-mlock.o)
 .data          0x00000000        0x0 c:/a/gcc_arm/6/bin/../lib/gcc/arm-none-eabi/6.3.1/../../../../arm-none-eabi/lib/thumb/v7e-m/fpv4-sp/hard\libc_nano.a(lib_a-mlock.o)
 .bss           0x00000000        0x0 c:/a/gcc_arm/6/bin/../lib/gcc/arm-none-eabi/6.3.1/../../../../arm-none-eabi/lib/thumb/v7e-m/fpv4-sp/hard\libc_nano.a(lib_a-mlock.o)
 .text          0x00000000        0x0 c:/a/gcc_arm/6/bin/../lib/gcc/arm-none-eabi/6.3.1/../../../../arm-none-eabi/lib/thumb/v7e-m/fpv4-sp/hard\libc_nano.a(lib_a-reent.o)
 .data          0x00000000        0x0 c:/a/gcc_arm/6/bin/../lib/gcc/arm-none-eabi/6.3.1/../../../../arm-none-eabi/lib/thumb/v7e-m/fpv4-sp/hard\libc_nano.a(lib_a-reent.o)
 .bss           0x00000000        0x0 c:/a/gcc_arm/6/bin/../lib/gcc/arm-none-eabi/6.3.1/../../../../arm-none-eabi/lib/thumb/v7e-m/fpv4-sp/hard\libc_nano.a(lib_a-reent.o)
 .text.cleanup_glue
                0x00000000       0x1a c:/a/gcc_arm/6/bin/../lib/gcc/arm-none-eabi/6.3.1/../../../../arm-none-eabi/lib/thumb/v7e-m/fpv4-sp/hard\libc_nano.a(lib_a-reent.o)
 .text._reclaim_reent
                0x00000000       0xb8 c:/a/gcc_arm/6/bin/../lib/gcc/arm-none-eabi/6.3.1/../../../../arm-none-eabi/lib/thumb/v7e-m/fpv4-sp/hard\libc_nano.a(lib_a-reent.o)
 .text          0x00000000        0x0 c:/a/gcc_arm/6/bin/../lib/gcc/arm-none-eabi/6.3.1/../../../../arm-none-eabi/lib/thumb/v7e-m/fpv4-sp/hard\libc_nano.a(lib_a-strchr.o)
 .data          0x00000000        0x0 c:/a/gcc_arm/6/bin/../lib/gcc/arm-none-eabi/6.3.1/../../../../arm-none-eabi/lib/thumb/v7e-m/fpv4-sp/hard\libc_nano.a(lib_a-strchr.o)
 .bss           0x00000000        0x0 c:/a/gcc_arm/6/bin/../lib/gcc/arm-none-eabi/6.3.1/../../../../arm-none-eabi/lib/thumb/v7e-m/fpv4-sp/hard\libc_nano.a(lib_a-strchr.o)
 .text          0x00000000        0x0 c:/a/gcc_arm/6/bin/../lib/gcc/arm-none-eabi/6.3.1/thumb/v7e-m/fpv4-sp/hard/crtend.o
 .data          0x00000000        0x0 c:/a/gcc_arm/6/bin/../lib/gcc/arm-none-eabi/6.3.1/thumb/v7e-m/fpv4-sp/hard/crtend.o
 .bss           0x00000000        0x0 c:/a/gcc_arm/6/bin/../lib/gcc/arm-none-eabi/6.3.1/thumb/v7e-m/fpv4-sp/hard/crtend.o
 .text          0x00000000        0x0 c:/a/gcc_arm/6/bin/../lib/gcc/arm-none-eabi/6.3.1/thumb/v7e-m/fpv4-sp/hard/crtn.o
 .data          0x00000000        0x0 c:/a/gcc_arm/6/bin/../lib/gcc/arm-none-eabi/6.3.1/thumb/v7e-m/fpv4-sp/hard/crtn.o
 .bss           0x00000000        0x0 c:/a/gcc_arm/6/bin/../lib/gcc/arm-none-eabi/6.3.1/thumb/v7e-m/fpv4-sp/hard/crtn.o
 .text          0x00000000        0x0 c:/a/gcc_arm/6/bin/../lib/gcc/arm-none-eabi/6.3.1/../../../../arm-none-eabi/lib/thumb/v7e-m/fpv4-sp/hard\libnosys.a(sbrk.o)
 .data          0x00000000        0x0 c:/a/gcc_arm/6/bin/../lib/gcc/arm-none-eabi/6.3.1/../../../../arm-none-eabi/lib/thumb/v7e-m/fpv4-sp/hard\libnosys.a(sbrk.o)
 .bss           0x00000000        0x0 c:/a/gcc_arm/6/bin/../lib/gcc/arm-none-eabi/6.3.1/../../../../arm-none-eabi/lib/thumb/v7e-m/fpv4-sp/hard\libnosys.a(sbrk.o)
 .text          0x00000000        0x0 c:/a/gcc_arm/6/bin/../lib/gcc/arm-none-eabi/6.3.1/../../../../arm-none-eabi/lib/thumb/v7e-m/fpv4-sp/hard\libnosys.a(_exit.o)
 .data          0x00000000        0x0 c:/a/gcc_arm/6/bin/../lib/gcc/arm-none-eabi/6.3.1/../../../../arm-none-eabi/lib/thumb/v7e-m/fpv4-sp/hard\libnosys.a(_exit.o)
 .bss           0x00000000        0x0 c:/a/gcc_arm/6/bin/../lib/gcc/arm-none-eabi/6.3.1/../../../../arm-none-eabi/lib/thumb/v7e-m/fpv4-sp/hard\libnosys.a(_exit.o)

Memory Configuration

Name             Origin             Length             Attributes
FLASH            0x00023000         0x0005d000         xr
RAM              0x200031b0         0x0000ce50         xrw
*default*        0x00000000         0xffffffff

Linker script and memory map

LOAD c:/a/gcc_arm/6/bin/../lib/gcc/arm-none-eabi/6.3.1/thumb/v7e-m/fpv4-sp/hard/crti.o
LOAD c:/a/gcc_arm/6/bin/../lib/gcc/arm-none-eabi/6.3.1/thumb/v7e-m/fpv4-sp/hard/crtbegin.o
LOAD c:/a/gcc_arm/6/bin/../lib/gcc/arm-none-eabi/6.3.1/../../../../arm-none-eabi/lib/thumb/v7e-m/fpv4-sp/hard/crt0.o
LOAD examples/serial/CMakeFiles/serial_nrf52832_xxAA_s132_5.0.0.dir/src/main.c.obj
LOAD examples/serial/CMakeFiles/serial_nrf52832_xxAA_s132_5.0.0.dir/__/nrf_mesh_sdk.c.obj
LOAD examples/serial/CMakeFiles/serial_nrf52832_xxAA_s132_5.0.0.dir/__/__/mesh/prov/src/prov_provisioner.c.obj
LOAD examples/serial/CMakeFiles/serial_nrf52832_xxAA_s132_5.0.0.dir/__/__/mesh/prov/src/prov_provisionee.c.obj
LOAD examples/serial/CMakeFiles/serial_nrf52832_xxAA_s132_5.0.0.dir/__/__/mesh/prov/src/nrf_mesh_prov.c.obj
LOAD examples/serial/CMakeFiles/serial_nrf52832_xxAA_s132_5.0.0.dir/__/__/mesh/prov/src/provisioning.c.obj
LOAD examples/serial/CMakeFiles/serial_nrf52832_xxAA_s132_5.0.0.dir/__/__/mesh/prov/src/prov_beacon.c.obj
LOAD examples/serial/CMakeFiles/serial_nrf52832_xxAA_s132_5.0.0.dir/__/__/mesh/prov/src/prov_utils.c.obj
LOAD examples/serial/CMakeFiles/serial_nrf52832_xxAA_s132_5.0.0.dir/__/__/mesh/prov/src/prov_bearer_adv.c.obj
LOAD examples/serial/CMakeFiles/serial_nrf52832_xxAA_s132_5.0.0.dir/__/__/mesh/access/src/access_publish.c.obj
LOAD examples/serial/CMakeFiles/serial_nrf52832_xxAA_s132_5.0.0.dir/__/__/mesh/access/src/access.c.obj
LOAD examples/serial/CMakeFiles/serial_nrf52832_xxAA_s132_5.0.0.dir/__/__/mesh/access/src/access_reliable.c.obj
LOAD examples/serial/CMakeFiles/serial_nrf52832_xxAA_s132_5.0.0.dir/__/__/mesh/access/src/device_state_manager.c.obj
LOAD examples/serial/CMakeFiles/serial_nrf52832_xxAA_s132_5.0.0.dir/__/__/mesh/serial/src/serial_uart.c.obj
LOAD examples/serial/CMakeFiles/serial_nrf52832_xxAA_s132_5.0.0.dir/__/__/mesh/serial/src/serial_bearer.c.obj
LOAD examples/serial/CMakeFiles/serial_nrf52832_xxAA_s132_5.0.0.dir/__/__/mesh/serial/src/serial_handler_common.c.obj
LOAD examples/serial/CMakeFiles/serial_nrf52832_xxAA_s132_5.0.0.dir/__/__/mesh/serial/src/serial_handler_access.c.obj
LOAD examples/serial/CMakeFiles/serial_nrf52832_xxAA_s132_5.0.0.dir/__/__/mesh/serial/src/serial_handler_config.c.obj
LOAD examples/serial/CMakeFiles/serial_nrf52832_xxAA_s132_5.0.0.dir/__/__/mesh/serial/src/serial_handler_openmesh.c.obj
LOAD examples/serial/CMakeFiles/serial_nrf52832_xxAA_s132_5.0.0.dir/__/__/mesh/serial/src/serial.c.obj
LOAD examples/serial/CMakeFiles/serial_nrf52832_xxAA_s132_5.0.0.dir/__/__/mesh/serial/src/serial_handler_prov.c.obj
LOAD examples/serial/CMakeFiles/serial_nrf52832_xxAA_s132_5.0.0.dir/__/__/mesh/serial/src/serial_handler_dfu.c.obj
LOAD examples/serial/CMakeFiles/serial_nrf52832_xxAA_s132_5.0.0.dir/__/__/mesh/serial/src/serial_handler_mesh.c.obj
LOAD examples/serial/CMakeFiles/serial_nrf52832_xxAA_s132_5.0.0.dir/__/__/mesh/serial/src/serial_handler_models.c.obj
LOAD examples/serial/CMakeFiles/serial_nrf52832_xxAA_s132_5.0.0.dir/__/__/mesh/serial/src/serial_handler_device.c.obj
LOAD examples/serial/CMakeFiles/serial_nrf52832_xxAA_s132_5.0.0.dir/__/__/mesh/serial/src/nrf_mesh_serial.c.obj
LOAD examples/serial/CMakeFiles/serial_nrf52832_xxAA_s132_5.0.0.dir/__/__/mesh/serial/src/serial_handler_app.c.obj
LOAD examples/serial/CMakeFiles/serial_nrf52832_xxAA_s132_5.0.0.dir/__/nrf_mesh_weak.c.obj
LOAD examples/serial/CMakeFiles/serial_nrf52832_xxAA_s132_5.0.0.dir/__/__/external/nRF5_SDK_14.0.0_3bcc1f7/components/toolchain/system_nrf52.c.obj
LOAD examples/serial/CMakeFiles/serial_nrf52832_xxAA_s132_5.0.0.dir/__/__/external/nRF5_SDK_14.0.0_3bcc1f7/components/toolchain/gcc/gcc_startup_nrf52.S.obj
LOAD mesh/core/libmesh_core_nrf52832_xxAA.a
LOAD external/micro-ecc/libuECC_nrf52832_xxAA.a
LOAD external/rtt/librtt_nrf52832_xxAA.a
START GROUP
LOAD c:/a/gcc_arm/6/bin/../lib/gcc/arm-none-eabi/6.3.1/thumb/v7e-m/fpv4-sp/hard\libgcc.a
LOAD c:/a/gcc_arm/6/bin/../lib/gcc/arm-none-eabi/6.3.1/../../../../arm-none-eabi/lib/thumb/v7e-m/fpv4-sp/hard\libc_nano.a
END GROUP
START GROUP
LOAD c:/a/gcc_arm/6/bin/../lib/gcc/arm-none-eabi/6.3.1/thumb/v7e-m/fpv4-sp/hard\libgcc.a
LOAD c:/a/gcc_arm/6/bin/../lib/gcc/arm-none-eabi/6.3.1/../../../../arm-none-eabi/lib/thumb/v7e-m/fpv4-sp/hard\libc_nano.a
END GROUP
LOAD c:/a/gcc_arm/6/bin/../lib/gcc/arm-none-eabi/6.3.1/thumb/v7e-m/fpv4-sp/hard/crtend.o
LOAD c:/a/gcc_arm/6/bin/../lib/gcc/arm-none-eabi/6.3.1/thumb/v7e-m/fpv4-sp/hard/crtn.o
START GROUP
LOAD c:/a/gcc_arm/6/bin/../lib/gcc/arm-none-eabi/6.3.1/thumb/v7e-m/fpv4-sp/hard\libgcc.a
LOAD c:/a/gcc_arm/6/bin/../lib/gcc/arm-none-eabi/6.3.1/../../../../arm-none-eabi/lib/thumb/v7e-m/fpv4-sp/hard\libc.a
LOAD c:/a/gcc_arm/6/bin/../lib/gcc/arm-none-eabi/6.3.1/../../../../arm-none-eabi/lib/thumb/v7e-m/fpv4-sp/hard\libnosys.a
END GROUP

.text           0x00023000    0x11b84
 *(.isr_vector)
 .isr_vector    0x00023000      0x200 examples/serial/CMakeFiles/serial_nrf52832_xxAA_s132_5.0.0.dir/__/__/external/nRF5_SDK_14.0.0_3bcc1f7/components/toolchain/gcc/gcc_startup_nrf52.S.obj
                0x00023000                __isr_vector
 *(.text*)
 .text          0x00023200       0x6c c:/a/gcc_arm/6/bin/../lib/gcc/arm-none-eabi/6.3.1/thumb/v7e-m/fpv4-sp/hard/crtbegin.o
 .text          0x0002326c       0x74 c:/a/gcc_arm/6/bin/../lib/gcc/arm-none-eabi/6.3.1/../../../../arm-none-eabi/lib/thumb/v7e-m/fpv4-sp/hard/crt0.o
                0x0002326c                _start
                0x0002326c                _mainCRTStartup
 .text.startup.main
                0x000232e0      0x268 examples/serial/CMakeFiles/serial_nrf52832_xxAA_s132_5.0.0.dir/src/main.c.obj
                0x000232e0                main
 .text.sd_evt_get
                0x00023548        0x4 examples/serial/CMakeFiles/serial_nrf52832_xxAA_s132_5.0.0.dir/__/nrf_mesh_sdk.c.obj
 .text.sd_softdevice_enable
                0x0002354c        0x4 examples/serial/CMakeFiles/serial_nrf52832_xxAA_s132_5.0.0.dir/__/nrf_mesh_sdk.c.obj
 .text.sd_ble_enable
                0x00023550        0x4 examples/serial/CMakeFiles/serial_nrf52832_xxAA_s132_5.0.0.dir/__/nrf_mesh_sdk.c.obj
 .text.sd_ble_evt_get
                0x00023554        0x4 examples/serial/CMakeFiles/serial_nrf52832_xxAA_s132_5.0.0.dir/__/nrf_mesh_sdk.c.obj
 .text.sleep_forever
                0x00023558       0x1c examples/serial/CMakeFiles/serial_nrf52832_xxAA_s132_5.0.0.dir/__/nrf_mesh_sdk.c.obj
 .text.mesh_assert_handler
                0x00023574       0x64 examples/serial/CMakeFiles/serial_nrf52832_xxAA_s132_5.0.0.dir/__/nrf_mesh_sdk.c.obj
                0x00023574                mesh_assert_handler
 .text.softdevice_assert_handler
                0x000235d8       0x74 examples/serial/CMakeFiles/serial_nrf52832_xxAA_s132_5.0.0.dir/__/nrf_mesh_sdk.c.obj
                0x000235d8                softdevice_assert_handler
 .text.app_error_handler
                0x0002364c       0x74 examples/serial/CMakeFiles/serial_nrf52832_xxAA_s132_5.0.0.dir/__/nrf_mesh_sdk.c.obj
                0x0002364c                app_error_handler
 .text.HardFault_Handler
                0x000236c0       0x60 examples/serial/CMakeFiles/serial_nrf52832_xxAA_s132_5.0.0.dir/__/nrf_mesh_sdk.c.obj
                0x000236c0                HardFault_Handler
 .text.SWI2_EGU2_IRQHandler
                0x00023720       0x3c examples/serial/CMakeFiles/serial_nrf52832_xxAA_s132_5.0.0.dir/__/nrf_mesh_sdk.c.obj
                0x00023720                SWI2_EGU2_IRQHandler
 .text.mesh_softdevice_enable
                0x0002375c      0x124 examples/serial/CMakeFiles/serial_nrf52832_xxAA_s132_5.0.0.dir/__/nrf_mesh_sdk.c.obj
                0x0002375c                mesh_softdevice_enable
 .text.mesh_softdevice_setup
                0x00023880       0x78 examples/serial/CMakeFiles/serial_nrf52832_xxAA_s132_5.0.0.dir/__/nrf_mesh_sdk.c.obj
                0x00023880                mesh_softdevice_setup
 .text.mesh_core_setup
                0x000238f8      0x150 examples/serial/CMakeFiles/serial_nrf52832_xxAA_s132_5.0.0.dir/__/nrf_mesh_sdk.c.obj
                0x000238f8                mesh_core_setup
 .text.send_confirmation
                0x00023a48       0x26 examples/serial/CMakeFiles/serial_nrf52832_xxAA_s132_5.0.0.dir/__/__/mesh/prov/src/prov_provisioner.c.obj
 .text.prov_provisioner_cb_link_closed
                0x00023a6e       0x28 examples/serial/CMakeFiles/serial_nrf52832_xxAA_s132_5.0.0.dir/__/__/mesh/prov/src/prov_provisioner.c.obj
 .text.prov_provisioner_cb_link_established
                0x00023a96       0x3e examples/serial/CMakeFiles/serial_nrf52832_xxAA_s132_5.0.0.dir/__/__/mesh/prov/src/prov_provisioner.c.obj
 .text.prov_provisioner_cb_ack_received
                0x00023ad4       0x48 examples/serial/CMakeFiles/serial_nrf52832_xxAA_s132_5.0.0.dir/__/__/mesh/prov/src/prov_provisioner.c.obj
 .text.request_authentication
                0x00023b1c       0x8c examples/serial/CMakeFiles/serial_nrf52832_xxAA_s132_5.0.0.dir/__/__/mesh/prov/src/prov_provisioner.c.obj
 .text.prov_provisioner_pkt_in
                0x00023ba8      0x28c examples/serial/CMakeFiles/serial_nrf52832_xxAA_s132_5.0.0.dir/__/__/mesh/prov/src/prov_provisioner.c.obj
 .text.prov_provisioner_provision
                0x00023e34       0x48 examples/serial/CMakeFiles/serial_nrf52832_xxAA_s132_5.0.0.dir/__/__/mesh/prov/src/prov_provisioner.c.obj
                0x00023e34                prov_provisioner_provision
 .text.prov_provisioner_oob_use
                0x00023e7c       0x7a examples/serial/CMakeFiles/serial_nrf52832_xxAA_s132_5.0.0.dir/__/__/mesh/prov/src/prov_provisioner.c.obj
                0x00023e7c                prov_provisioner_oob_use
 .text.prov_provisioner_auth_data
                0x00023ef6       0x44 examples/serial/CMakeFiles/serial_nrf52832_xxAA_s132_5.0.0.dir/__/__/mesh/prov/src/prov_provisioner.c.obj
                0x00023ef6                prov_provisioner_auth_data
 .text.prov_provisioner_shared_secret
                0x00023f3a       0x2a examples/serial/CMakeFiles/serial_nrf52832_xxAA_s132_5.0.0.dir/__/__/mesh/prov/src/prov_provisioner.c.obj
                0x00023f3a                prov_provisioner_shared_secret
 .text.complete_provisioning
                0x00023f64       0x52 examples/serial/CMakeFiles/serial_nrf52832_xxAA_s132_5.0.0.dir/__/__/mesh/prov/src/prov_provisionee.c.obj
 .text.prov_provisionee_cb_link_closed
                0x00023fb6       0x32 examples/serial/CMakeFiles/serial_nrf52832_xxAA_s132_5.0.0.dir/__/__/mesh/prov/src/prov_provisionee.c.obj
 .text.prov_provisionee_cb_link_established
                0x00023fe8       0x20 examples/serial/CMakeFiles/serial_nrf52832_xxAA_s132_5.0.0.dir/__/__/mesh/prov/src/prov_provisionee.c.obj
 .text.send_failed
                0x00024008       0x36 examples/serial/CMakeFiles/serial_nrf52832_xxAA_s132_5.0.0.dir/__/__/mesh/prov/src/prov_provisionee.c.obj
 .text.request_authentication
                0x0002403e       0x8c examples/serial/CMakeFiles/serial_nrf52832_xxAA_s132_5.0.0.dir/__/__/mesh/prov/src/prov_provisionee.c.obj
 .text.start_authentication
                0x000240ca       0x54 examples/serial/CMakeFiles/serial_nrf52832_xxAA_s132_5.0.0.dir/__/__/mesh/prov/src/prov_provisionee.c.obj
 *fill*         0x0002411e        0x2 
 .text.prov_provisionee_pkt_in
                0x00024120      0x2a4 examples/serial/CMakeFiles/serial_nrf52832_xxAA_s132_5.0.0.dir/__/__/mesh/prov/src/prov_provisionee.c.obj
 .text.prov_provisionee_cb_ack_received
                0x000243c4       0xb4 examples/serial/CMakeFiles/serial_nrf52832_xxAA_s132_5.0.0.dir/__/__/mesh/prov/src/prov_provisionee.c.obj
 .text.prov_provisionee_init
                0x00024478       0x40 examples/serial/CMakeFiles/serial_nrf52832_xxAA_s132_5.0.0.dir/__/__/mesh/prov/src/prov_provisionee.c.obj
                0x00024478                prov_provisionee_init
 .text.prov_provisionee_auth_data
                0x000244b8       0x7a examples/serial/CMakeFiles/serial_nrf52832_xxAA_s132_5.0.0.dir/__/__/mesh/prov/src/prov_provisionee.c.obj
                0x000244b8                prov_provisionee_auth_data
 .text.prov_provisionee_shared_secret
                0x00024532       0x2a examples/serial/CMakeFiles/serial_nrf52832_xxAA_s132_5.0.0.dir/__/__/mesh/prov/src/prov_provisionee.c.obj
                0x00024532                prov_provisionee_shared_secret
 .text.nrf_mesh_prov_init
                0x0002455c       0x24 examples/serial/CMakeFiles/serial_nrf52832_xxAA_s132_5.0.0.dir/__/__/mesh/prov/src/nrf_mesh_prov.c.obj
                0x0002455c                nrf_mesh_prov_init
 .text.nrf_mesh_prov_generate_keys
                0x00024580        0x4 examples/serial/CMakeFiles/serial_nrf52832_xxAA_s132_5.0.0.dir/__/__/mesh/prov/src/nrf_mesh_prov.c.obj
                0x00024580                nrf_mesh_prov_generate_keys
 .text.nrf_mesh_prov_listen
                0x00024584       0x24 examples/serial/CMakeFiles/serial_nrf52832_xxAA_s132_5.0.0.dir/__/__/mesh/prov/src/nrf_mesh_prov.c.obj
                0x00024584                nrf_mesh_prov_listen
 .text.nrf_mesh_prov_provision
                0x000245a8       0x4e examples/serial/CMakeFiles/serial_nrf52832_xxAA_s132_5.0.0.dir/__/__/mesh/prov/src/nrf_mesh_prov.c.obj
                0x000245a8                nrf_mesh_prov_provision
 .text.nrf_mesh_prov_oob_use
                0x000245f6        0xe examples/serial/CMakeFiles/serial_nrf52832_xxAA_s132_5.0.0.dir/__/__/mesh/prov/src/nrf_mesh_prov.c.obj
                0x000245f6                nrf_mesh_prov_oob_use
 .text.nrf_mesh_prov_auth_data_provide
                0x00024604        0xe examples/serial/CMakeFiles/serial_nrf52832_xxAA_s132_5.0.0.dir/__/__/mesh/prov/src/nrf_mesh_prov.c.obj
                0x00024604                nrf_mesh_prov_auth_data_provide
 .text.nrf_mesh_prov_shared_secret_provide
                0x00024612        0xe examples/serial/CMakeFiles/serial_nrf52832_xxAA_s132_5.0.0.dir/__/__/mesh/prov/src/nrf_mesh_prov.c.obj
                0x00024612                nrf_mesh_prov_shared_secret_provide
 .text.send_data
                0x00024620       0x40 examples/serial/CMakeFiles/serial_nrf52832_xxAA_s132_5.0.0.dir/__/__/mesh/prov/src/provisioning.c.obj
 .text.prov_packet_length_valid
                0x00024660       0x1c examples/serial/CMakeFiles/serial_nrf52832_xxAA_s132_5.0.0.dir/__/__/mesh/prov/src/provisioning.c.obj
                0x00024660                prov_packet_length_valid
 .text.prov_init
                0x0002467c       0x2c examples/serial/CMakeFiles/serial_nrf52832_xxAA_s132_5.0.0.dir/__/__/mesh/prov/src/provisioning.c.obj
                0x0002467c                prov_init
 .text.prov_listen_start
                0x000246a8       0x14 examples/serial/CMakeFiles/serial_nrf52832_xxAA_s132_5.0.0.dir/__/__/mesh/prov/src/provisioning.c.obj
                0x000246a8                prov_listen_start
 .text.prov_link_open
                0x000246bc       0x14 examples/serial/CMakeFiles/serial_nrf52832_xxAA_s132_5.0.0.dir/__/__/mesh/prov/src/provisioning.c.obj
                0x000246bc                prov_link_open
 .text.prov_link_close
                0x000246d0        0x8 examples/serial/CMakeFiles/serial_nrf52832_xxAA_s132_5.0.0.dir/__/__/mesh/prov/src/provisioning.c.obj
                0x000246d0                prov_link_close
 .text.prov_tx_invite
                0x000246d8       0x28 examples/serial/CMakeFiles/serial_nrf52832_xxAA_s132_5.0.0.dir/__/__/mesh/prov/src/provisioning.c.obj
                0x000246d8                prov_tx_invite
 .text.prov_tx_capabilities
                0x00024700       0x1e examples/serial/CMakeFiles/serial_nrf52832_xxAA_s132_5.0.0.dir/__/__/mesh/prov/src/provisioning.c.obj
                0x00024700                prov_tx_capabilities
 .text.prov_tx_start
                0x0002471e       0x20 examples/serial/CMakeFiles/serial_nrf52832_xxAA_s132_5.0.0.dir/__/__/mesh/prov/src/provisioning.c.obj
                0x0002471e                prov_tx_start
 .text.prov_tx_public_key
                0x0002473e       0x26 examples/serial/CMakeFiles/serial_nrf52832_xxAA_s132_5.0.0.dir/__/__/mesh/prov/src/provisioning.c.obj
                0x0002473e                prov_tx_public_key
 .text.prov_tx_input_complete
                0x00024764       0x16 examples/serial/CMakeFiles/serial_nrf52832_xxAA_s132_5.0.0.dir/__/__/mesh/prov/src/provisioning.c.obj
                0x00024764                prov_tx_input_complete
 .text.prov_tx_confirmation
                0x0002477a       0x26 examples/serial/CMakeFiles/serial_nrf52832_xxAA_s132_5.0.0.dir/__/__/mesh/prov/src/provisioning.c.obj
                0x0002477a                prov_tx_confirmation
 .text.prov_tx_random
                0x000247a0       0x26 examples/serial/CMakeFiles/serial_nrf52832_xxAA_s132_5.0.0.dir/__/__/mesh/prov/src/provisioning.c.obj
                0x000247a0                prov_tx_random
 .text.prov_tx_complete
                0x000247c6       0x16 examples/serial/CMakeFiles/serial_nrf52832_xxAA_s132_5.0.0.dir/__/__/mesh/prov/src/provisioning.c.obj
                0x000247c6                prov_tx_complete
 .text.prov_tx_failed
                0x000247dc       0x1a examples/serial/CMakeFiles/serial_nrf52832_xxAA_s132_5.0.0.dir/__/__/mesh/prov/src/provisioning.c.obj
                0x000247dc                prov_tx_failed
 .text.prov_tx_data
                0x000247f6        0x6 examples/serial/CMakeFiles/serial_nrf52832_xxAA_s132_5.0.0.dir/__/__/mesh/prov/src/provisioning.c.obj
                0x000247f6                prov_tx_data
 .text.prov_cb_link_opened
                0x000247fc        0x8 examples/serial/CMakeFiles/serial_nrf52832_xxAA_s132_5.0.0.dir/__/__/mesh/prov/src/provisioning.c.obj
                0x000247fc                prov_cb_link_opened
 .text.prov_cb_link_closed
                0x00024804        0x8 examples/serial/CMakeFiles/serial_nrf52832_xxAA_s132_5.0.0.dir/__/__/mesh/prov/src/provisioning.c.obj
                0x00024804                prov_cb_link_closed
 .text.prov_cb_pkt_in
                0x0002480c       0x7c examples/serial/CMakeFiles/serial_nrf52832_xxAA_s132_5.0.0.dir/__/__/mesh/prov/src/provisioning.c.obj
                0x0002480c                prov_cb_pkt_in
 .text.prov_cb_ack_in
                0x00024888        0x8 examples/serial/CMakeFiles/serial_nrf52832_xxAA_s132_5.0.0.dir/__/__/mesh/prov/src/provisioning.c.obj
                0x00024888                prov_cb_ack_in
 .text.prov_beacon_unprov_build
                0x00024890       0x54 examples/serial/CMakeFiles/serial_nrf52832_xxAA_s132_5.0.0.dir/__/__/mesh/prov/src/prov_beacon.c.obj
                0x00024890                prov_beacon_unprov_build
 .text.prov_beacon_unprov_packet_in
                0x000248e4       0xb0 examples/serial/CMakeFiles/serial_nrf52832_xxAA_s132_5.0.0.dir/__/__/mesh/prov/src/prov_beacon.c.obj
                0x000248e4                prov_beacon_unprov_packet_in
 .text.oob_gen_alphanumeric
                0x00024994       0x34 examples/serial/CMakeFiles/serial_nrf52832_xxAA_s132_5.0.0.dir/__/__/mesh/prov/src/prov_utils.c.obj
 .text.oob_gen_numeric
                0x000249c8       0x3c examples/serial/CMakeFiles/serial_nrf52832_xxAA_s132_5.0.0.dir/__/__/mesh/prov/src/prov_utils.c.obj
 .text.prov_utils_opt_set
                0x00024a04       0x20 examples/serial/CMakeFiles/serial_nrf52832_xxAA_s132_5.0.0.dir/__/__/mesh/prov/src/prov_utils.c.obj
                0x00024a04                prov_utils_opt_set
 .text.prov_utils_use_ecdh_offloading
                0x00024a24        0xc examples/serial/CMakeFiles/serial_nrf52832_xxAA_s132_5.0.0.dir/__/__/mesh/prov/src/prov_utils.c.obj
                0x00024a24                prov_utils_use_ecdh_offloading
 .text.prov_utils_authentication_values_derive
                0x00024a30       0xa4 examples/serial/CMakeFiles/serial_nrf52832_xxAA_s132_5.0.0.dir/__/__/mesh/prov/src/prov_utils.c.obj
                0x00024a30                prov_utils_authentication_values_derive
 .text.prov_utils_keys_generate
                0x00024ad4       0x1e examples/serial/CMakeFiles/serial_nrf52832_xxAA_s132_5.0.0.dir/__/__/mesh/prov/src/prov_utils.c.obj
                0x00024ad4                prov_utils_keys_generate
 *fill*         0x00024af2        0x2 
 .text.prov_utils_derive_keys
                0x00024af4       0xb0 examples/serial/CMakeFiles/serial_nrf52832_xxAA_s132_5.0.0.dir/__/__/mesh/prov/src/prov_utils.c.obj
                0x00024af4                prov_utils_derive_keys
 .text.prov_utils_calculate_shared_secret
                0x00024ba4       0x38 examples/serial/CMakeFiles/serial_nrf52832_xxAA_s132_5.0.0.dir/__/__/mesh/prov/src/prov_utils.c.obj
                0x00024ba4                prov_utils_calculate_shared_secret
 .text.prov_utils_generate_oob_data
                0x00024bdc       0x9c examples/serial/CMakeFiles/serial_nrf52832_xxAA_s132_5.0.0.dir/__/__/mesh/prov/src/prov_utils.c.obj
                0x00024bdc                prov_utils_generate_oob_data
 .text.prov_utils_confirmation_check
                0x00024c78       0x5c examples/serial/CMakeFiles/serial_nrf52832_xxAA_s132_5.0.0.dir/__/__/mesh/prov/src/prov_utils.c.obj
                0x00024c78                prov_utils_confirmation_check
 .text.remove_active_bearer
                0x00024cd4       0x60 examples/serial/CMakeFiles/serial_nrf52832_xxAA_s132_5.0.0.dir/__/__/mesh/prov/src/prov_bearer_adv.c.obj
 .text.prov_bearer_adv_listen_stop
                0x00024d34       0x38 examples/serial/CMakeFiles/serial_nrf52832_xxAA_s132_5.0.0.dir/__/__/mesh/prov/src/prov_bearer_adv.c.obj
 .text.close_link
                0x00024d6c       0x68 examples/serial/CMakeFiles/serial_nrf52832_xxAA_s132_5.0.0.dir/__/__/mesh/prov/src/prov_bearer_adv.c.obj
 .text.send_packet
                0x00024dd4       0x6c examples/serial/CMakeFiles/serial_nrf52832_xxAA_s132_5.0.0.dir/__/__/mesh/prov/src/prov_bearer_adv.c.obj
 .text.prov_buffer_tx
                0x00024e40      0x158 examples/serial/CMakeFiles/serial_nrf52832_xxAA_s132_5.0.0.dir/__/__/mesh/prov/src/prov_bearer_adv.c.obj
 .text.send_link_close
                0x00024f98       0x38 examples/serial/CMakeFiles/serial_nrf52832_xxAA_s132_5.0.0.dir/__/__/mesh/prov/src/prov_bearer_adv.c.obj
 .text.prov_bearer_adv_link_close
                0x00024fd0       0x70 examples/serial/CMakeFiles/serial_nrf52832_xxAA_s132_5.0.0.dir/__/__/mesh/prov/src/prov_bearer_adv.c.obj
 .text.send_transaction_ack
                0x00025040       0x24 examples/serial/CMakeFiles/serial_nrf52832_xxAA_s132_5.0.0.dir/__/__/mesh/prov/src/prov_bearer_adv.c.obj
 .text.send_link_ack
                0x00025064       0x32 examples/serial/CMakeFiles/serial_nrf52832_xxAA_s132_5.0.0.dir/__/__/mesh/prov/src/prov_bearer_adv.c.obj
 .text.link_timeout_cb
                0x00025096        0x8 examples/serial/CMakeFiles/serial_nrf52832_xxAA_s132_5.0.0.dir/__/__/mesh/prov/src/prov_bearer_adv.c.obj
 .text.reset_timeout_timer
                0x0002509e       0x1a examples/serial/CMakeFiles/serial_nrf52832_xxAA_s132_5.0.0.dir/__/__/mesh/prov/src/prov_bearer_adv.c.obj
 .text.tx_complete_cb
                0x000250b8       0x1c examples/serial/CMakeFiles/serial_nrf52832_xxAA_s132_5.0.0.dir/__/__/mesh/prov/src/prov_bearer_adv.c.obj
 .text.tx_retry_cb
                0x000250d4       0xcc examples/serial/CMakeFiles/serial_nrf52832_xxAA_s132_5.0.0.dir/__/__/mesh/prov/src/prov_bearer_adv.c.obj
 .text.add_active_bearer
                0x000251a0       0x80 examples/serial/CMakeFiles/serial_nrf52832_xxAA_s132_5.0.0.dir/__/__/mesh/prov/src/prov_bearer_adv.c.obj
 .text.prov_bearer_adv_link_open
                0x00025220       0xf0 examples/serial/CMakeFiles/serial_nrf52832_xxAA_s132_5.0.0.dir/__/__/mesh/prov/src/prov_bearer_adv.c.obj
 .text.async_process
                0x00025310       0x50 examples/serial/CMakeFiles/serial_nrf52832_xxAA_s132_5.0.0.dir/__/__/mesh/prov/src/prov_bearer_adv.c.obj
 .text.prov_bearer_adv_listen
                0x00025360       0xe8 examples/serial/CMakeFiles/serial_nrf52832_xxAA_s132_5.0.0.dir/__/__/mesh/prov/src/prov_bearer_adv.c.obj
 .text.calculate_3GPP_CRC
                0x00025448       0x24 examples/serial/CMakeFiles/serial_nrf52832_xxAA_s132_5.0.0.dir/__/__/mesh/prov/src/prov_bearer_adv.c.obj
                0x00025448                calculate_3GPP_CRC
 .text.prov_bearer_adv_tx
                0x0002546c       0xac examples/serial/CMakeFiles/serial_nrf52832_xxAA_s132_5.0.0.dir/__/__/mesh/prov/src/prov_bearer_adv.c.obj
 .text.prov_buffer_rx
                0x00025518       0x74 examples/serial/CMakeFiles/serial_nrf52832_xxAA_s132_5.0.0.dir/__/__/mesh/prov/src/prov_bearer_adv.c.obj
 .text.prov_bearer_adv_interface_get
                0x0002558c       0x24 examples/serial/CMakeFiles/serial_nrf52832_xxAA_s132_5.0.0.dir/__/__/mesh/prov/src/prov_bearer_adv.c.obj
                0x0002558c                prov_bearer_adv_interface_get
 .text.prov_bearer_adv_packet_in
                0x000255b0      0x80c examples/serial/CMakeFiles/serial_nrf52832_xxAA_s132_5.0.0.dir/__/__/mesh/prov/src/prov_bearer_adv.c.obj
                0x000255b0                prov_bearer_adv_packet_in
 .text.add_to_publication_list
                0x00025dbc       0x84 examples/serial/CMakeFiles/serial_nrf52832_xxAA_s132_5.0.0.dir/__/__/mesh/access/src/access_publish.c.obj
 .text.step_resolution_to_us
                0x00025e40       0x44 examples/serial/CMakeFiles/serial_nrf52832_xxAA_s132_5.0.0.dir/__/__/mesh/access/src/access_publish.c.obj
 .text.schedule_publication_timer
                0x00025e84      0x184 examples/serial/CMakeFiles/serial_nrf52832_xxAA_s132_5.0.0.dir/__/__/mesh/access/src/access_publish.c.obj
 .text.publish_timer_tick
                0x00026008       0xbc examples/serial/CMakeFiles/serial_nrf52832_xxAA_s132_5.0.0.dir/__/__/mesh/access/src/access_publish.c.obj
 .text.access_publish_init
                0x000260c4       0x38 examples/serial/CMakeFiles/serial_nrf52832_xxAA_s132_5.0.0.dir/__/__/mesh/access/src/access_publish.c.obj
                0x000260c4                access_publish_init
 .text.access_publish_period_set
                0x000260fc       0x6c examples/serial/CMakeFiles/serial_nrf52832_xxAA_s132_5.0.0.dir/__/__/mesh/access/src/access_publish.c.obj
                0x000260fc                access_publish_period_set
 .text.access_publish_period_get
                0x00026168       0x30 examples/serial/CMakeFiles/serial_nrf52832_xxAA_s132_5.0.0.dir/__/__/mesh/access/src/access_publish.c.obj
                0x00026168                access_publish_period_get
 .text.bitfield_get
                0x00026198       0x1a examples/serial/CMakeFiles/serial_nrf52832_xxAA_s132_5.0.0.dir/__/__/mesh/access/src/access.c.obj
 .text.is_valid_opcode
                0x000261b2       0x42 examples/serial/CMakeFiles/serial_nrf52832_xxAA_s132_5.0.0.dir/__/__/mesh/access/src/access.c.obj
 .text.model_handle_valid_and_allocated
                0x000261f4       0x18 examples/serial/CMakeFiles/serial_nrf52832_xxAA_s132_5.0.0.dir/__/__/mesh/access/src/access.c.obj
 .text.flash_invalidate_complete
                0x0002620c       0x14 examples/serial/CMakeFiles/serial_nrf52832_xxAA_s132_5.0.0.dir/__/__/mesh/access/src/access.c.obj
 .text.flash_manager_mem_available
                0x00026220        0x2 examples/serial/CMakeFiles/serial_nrf52832_xxAA_s132_5.0.0.dir/__/__/mesh/access/src/access.c.obj
 *fill*         0x00026222        0x2 
 .text.access_flash_config_clear
                0x00026224       0x28 examples/serial/CMakeFiles/serial_nrf52832_xxAA_s132_5.0.0.dir/__/__/mesh/access/src/access.c.obj
 .text.access_flash_config_store
                0x0002624c      0x110 examples/serial/CMakeFiles/serial_nrf52832_xxAA_s132_5.0.0.dir/__/__/mesh/access/src/access.c.obj
                0x0002624c                access_flash_config_store
 .text.access_state_clear
                0x0002635c       0x40 examples/serial/CMakeFiles/serial_nrf52832_xxAA_s132_5.0.0.dir/__/__/mesh/access/src/access.c.obj
 .text.add_flash_manager
                0x0002639c       0x58 examples/serial/CMakeFiles/serial_nrf52832_xxAA_s132_5.0.0.dir/__/__/mesh/access/src/access.c.obj
 .text.flash_remove_complete
                0x000263f4       0x4c examples/serial/CMakeFiles/serial_nrf52832_xxAA_s132_5.0.0.dir/__/__/mesh/access/src/access.c.obj
 .text.flash_write_complete
                0x00026440       0x54 examples/serial/CMakeFiles/serial_nrf52832_xxAA_s132_5.0.0.dir/__/__/mesh/access/src/access.c.obj
 .text.handle_incoming
                0x00026494      0x124 examples/serial/CMakeFiles/serial_nrf52832_xxAA_s132_5.0.0.dir/__/__/mesh/access/src/access.c.obj
 .text.mesh_evt_cb
                0x000265b8      0x134 examples/serial/CMakeFiles/serial_nrf52832_xxAA_s132_5.0.0.dir/__/__/mesh/access/src/access.c.obj
 .text.packet_tx
                0x000266ec      0x2c0 examples/serial/CMakeFiles/serial_nrf52832_xxAA_s132_5.0.0.dir/__/__/mesh/access/src/access.c.obj
 .text.access_clear
                0x000269ac       0x12 examples/serial/CMakeFiles/serial_nrf52832_xxAA_s132_5.0.0.dir/__/__/mesh/access/src/access.c.obj
                0x000269ac                access_clear
 *fill*         0x000269be        0x2 
 .text.access_init
                0x000269c0       0x28 examples/serial/CMakeFiles/serial_nrf52832_xxAA_s132_5.0.0.dir/__/__/mesh/access/src/access.c.obj
                0x000269c0                access_init
 .text.access_model_publish
                0x000269e8        0xc examples/serial/CMakeFiles/serial_nrf52832_xxAA_s132_5.0.0.dir/__/__/mesh/access/src/access.c.obj
                0x000269e8                access_model_publish
 .text.access_model_publish_address_set
                0x000269f4       0x3c examples/serial/CMakeFiles/serial_nrf52832_xxAA_s132_5.0.0.dir/__/__/mesh/access/src/access.c.obj
                0x000269f4                access_model_publish_address_set
 .text.access_model_publish_address_get
                0x00026a30       0x28 examples/serial/CMakeFiles/serial_nrf52832_xxAA_s132_5.0.0.dir/__/__/mesh/access/src/access.c.obj
                0x00026a30                access_model_publish_address_get
 .text.access_model_publish_period_set
                0x00026a58       0x64 examples/serial/CMakeFiles/serial_nrf52832_xxAA_s132_5.0.0.dir/__/__/mesh/access/src/access.c.obj
                0x00026a58                access_model_publish_period_set
 .text.access_model_publish_period_get
                0x00026abc       0x38 examples/serial/CMakeFiles/serial_nrf52832_xxAA_s132_5.0.0.dir/__/__/mesh/access/src/access.c.obj
                0x00026abc                access_model_publish_period_get
 .text.access_model_subscription_add
                0x00026af4       0x60 examples/serial/CMakeFiles/serial_nrf52832_xxAA_s132_5.0.0.dir/__/__/mesh/access/src/access.c.obj
                0x00026af4                access_model_subscription_add
 .text.access_model_subscription_remove
                0x00026b54       0x60 examples/serial/CMakeFiles/serial_nrf52832_xxAA_s132_5.0.0.dir/__/__/mesh/access/src/access.c.obj
                0x00026b54                access_model_subscription_remove
 .text.access_model_subscriptions_get
                0x00026bb4       0x7c examples/serial/CMakeFiles/serial_nrf52832_xxAA_s132_5.0.0.dir/__/__/mesh/access/src/access.c.obj
                0x00026bb4                access_model_subscriptions_get
 .text.access_model_application_bind
                0x00026c30       0x50 examples/serial/CMakeFiles/serial_nrf52832_xxAA_s132_5.0.0.dir/__/__/mesh/access/src/access.c.obj
                0x00026c30                access_model_application_bind
 .text.access_model_application_unbind
                0x00026c80       0x50 examples/serial/CMakeFiles/serial_nrf52832_xxAA_s132_5.0.0.dir/__/__/mesh/access/src/access.c.obj
                0x00026c80                access_model_application_unbind
 .text.access_model_applications_get
                0x00026cd0       0x64 examples/serial/CMakeFiles/serial_nrf52832_xxAA_s132_5.0.0.dir/__/__/mesh/access/src/access.c.obj
                0x00026cd0                access_model_applications_get
 .text.access_model_publish_application_set
                0x00026d34       0x3c examples/serial/CMakeFiles/serial_nrf52832_xxAA_s132_5.0.0.dir/__/__/mesh/access/src/access.c.obj
                0x00026d34                access_model_publish_application_set
 .text.access_model_publish_application_get
                0x00026d70       0x28 examples/serial/CMakeFiles/serial_nrf52832_xxAA_s132_5.0.0.dir/__/__/mesh/access/src/access.c.obj
                0x00026d70                access_model_publish_application_get
 .text.access_model_publish_ttl_set
                0x00026d98       0x40 examples/serial/CMakeFiles/serial_nrf52832_xxAA_s132_5.0.0.dir/__/__/mesh/access/src/access.c.obj
                0x00026d98                access_model_publish_ttl_set
 .text.access_model_publish_ttl_get
                0x00026dd8       0x28 examples/serial/CMakeFiles/serial_nrf52832_xxAA_s132_5.0.0.dir/__/__/mesh/access/src/access.c.obj
                0x00026dd8                access_model_publish_ttl_get
 .text.access_element_location_set
                0x00026e00       0x2c examples/serial/CMakeFiles/serial_nrf52832_xxAA_s132_5.0.0.dir/__/__/mesh/access/src/access.c.obj
                0x00026e00                access_element_location_set
 .text.access_element_location_get
                0x00026e2c       0x20 examples/serial/CMakeFiles/serial_nrf52832_xxAA_s132_5.0.0.dir/__/__/mesh/access/src/access.c.obj
                0x00026e2c                access_element_location_get
 .text.access_element_sig_model_count_get
                0x00026e4c       0x24 examples/serial/CMakeFiles/serial_nrf52832_xxAA_s132_5.0.0.dir/__/__/mesh/access/src/access.c.obj
                0x00026e4c                access_element_sig_model_count_get
 .text.access_element_vendor_model_count_get
                0x00026e70       0x24 examples/serial/CMakeFiles/serial_nrf52832_xxAA_s132_5.0.0.dir/__/__/mesh/access/src/access.c.obj
                0x00026e70                access_element_vendor_model_count_get
 .text.access_model_id_get
                0x00026e94       0x2c examples/serial/CMakeFiles/serial_nrf52832_xxAA_s132_5.0.0.dir/__/__/mesh/access/src/access.c.obj
                0x00026e94                access_model_id_get
 .text.access_handle_get
                0x00026ec0       0x40 examples/serial/CMakeFiles/serial_nrf52832_xxAA_s132_5.0.0.dir/__/__/mesh/access/src/access.c.obj
                0x00026ec0                access_handle_get
 .text.access_element_models_get
                0x00026f00       0x44 examples/serial/CMakeFiles/serial_nrf52832_xxAA_s132_5.0.0.dir/__/__/mesh/access/src/access.c.obj
                0x00026f00                access_element_models_get
 .text.access_model_p_args_get
                0x00026f44       0x28 examples/serial/CMakeFiles/serial_nrf52832_xxAA_s132_5.0.0.dir/__/__/mesh/access/src/access.c.obj
                0x00026f44                access_model_p_args_get
 .text.remove_and_reschedule
                0x00026f6c       0xc4 examples/serial/CMakeFiles/serial_nrf52832_xxAA_s132_5.0.0.dir/__/__/mesh/access/src/access_reliable.c.obj
 .text.reliable_timer_cb
                0x00027030      0x108 examples/serial/CMakeFiles/serial_nrf52832_xxAA_s132_5.0.0.dir/__/__/mesh/access/src/access_reliable.c.obj
 .text.access_reliable_message_rx_cb
                0x00027138       0x5c examples/serial/CMakeFiles/serial_nrf52832_xxAA_s132_5.0.0.dir/__/__/mesh/access/src/access_reliable.c.obj
                0x00027138                access_reliable_message_rx_cb
 .text.access_reliable_init
                0x00027194       0x1c examples/serial/CMakeFiles/serial_nrf52832_xxAA_s132_5.0.0.dir/__/__/mesh/access/src/access_reliable.c.obj
                0x00027194                access_reliable_init
 .text.access_reliable_cancel_all
                0x000271b0       0x34 examples/serial/CMakeFiles/serial_nrf52832_xxAA_s132_5.0.0.dir/__/__/mesh/access/src/access_reliable.c.obj
                0x000271b0                access_reliable_cancel_all
 .text.bitfield_get
                0x000271e4       0x1a examples/serial/CMakeFiles/serial_nrf52832_xxAA_s132_5.0.0.dir/__/__/mesh/access/src/device_state_manager.c.obj
 .text.bitfield_set
                0x000271fe       0x18 examples/serial/CMakeFiles/serial_nrf52832_xxAA_s132_5.0.0.dir/__/__/mesh/access/src/device_state_manager.c.obj
 .text.bitfield_clear
                0x00027216       0x1a examples/serial/CMakeFiles/serial_nrf52832_xxAA_s132_5.0.0.dir/__/__/mesh/access/src/device_state_manager.c.obj
 .text.bitfield_is_all_clear
                0x00027230       0x3c examples/serial/CMakeFiles/serial_nrf52832_xxAA_s132_5.0.0.dir/__/__/mesh/access/src/device_state_manager.c.obj
 .text.address_handle_virtual_valid
                0x0002726c       0x18 examples/serial/CMakeFiles/serial_nrf52832_xxAA_s132_5.0.0.dir/__/__/mesh/access/src/device_state_manager.c.obj
 .text.net_key_handle_get
                0x00027284       0x58 examples/serial/CMakeFiles/serial_nrf52832_xxAA_s132_5.0.0.dir/__/__/mesh/access/src/device_state_manager.c.obj
 .text.dev_key_handle_get
                0x000272dc       0x5c examples/serial/CMakeFiles/serial_nrf52832_xxAA_s132_5.0.0.dir/__/__/mesh/access/src/device_state_manager.c.obj
 .text.app_key_handle_get
                0x00027338       0x58 examples/serial/CMakeFiles/serial_nrf52832_xxAA_s132_5.0.0.dir/__/__/mesh/access/src/device_state_manager.c.obj
 .text.addr_nonvirtual_to_flash_entry
                0x00027390       0x10 examples/serial/CMakeFiles/serial_nrf52832_xxAA_s132_5.0.0.dir/__/__/mesh/access/src/device_state_manager.c.obj
 .text.flash_mem_listener_callback
                0x000273a0       0x20 examples/serial/CMakeFiles/serial_nrf52832_xxAA_s132_5.0.0.dir/__/__/mesh/access/src/device_state_manager.c.obj
 .text.devkey_set
                0x000273c0       0x50 examples/serial/CMakeFiles/serial_nrf52832_xxAA_s132_5.0.0.dir/__/__/mesh/access/src/device_state_manager.c.obj
 .text.devkey_to_dsm_entry
                0x00027410       0x18 examples/serial/CMakeFiles/serial_nrf52832_xxAA_s132_5.0.0.dir/__/__/mesh/access/src/device_state_manager.c.obj
 .text.devkey_to_flash_entry
                0x00027428       0x28 examples/serial/CMakeFiles/serial_nrf52832_xxAA_s132_5.0.0.dir/__/__/mesh/access/src/device_state_manager.c.obj
 .text.appkey_to_flash_entry
                0x00027450       0x28 examples/serial/CMakeFiles/serial_nrf52832_xxAA_s132_5.0.0.dir/__/__/mesh/access/src/device_state_manager.c.obj
 .text.subnet_to_flash_entry
                0x00027478       0x20 examples/serial/CMakeFiles/serial_nrf52832_xxAA_s132_5.0.0.dir/__/__/mesh/access/src/device_state_manager.c.obj
 .text.addr_virtual_to_flash_entry
                0x00027498       0x18 examples/serial/CMakeFiles/serial_nrf52832_xxAA_s132_5.0.0.dir/__/__/mesh/access/src/device_state_manager.c.obj
 .text.addr_unicast_to_dsm_entry
                0x000274b0        0xc examples/serial/CMakeFiles/serial_nrf52832_xxAA_s132_5.0.0.dir/__/__/mesh/access/src/device_state_manager.c.obj
 .text.addr_unicast_to_flash_entry
                0x000274bc       0x10 examples/serial/CMakeFiles/serial_nrf52832_xxAA_s132_5.0.0.dir/__/__/mesh/access/src/device_state_manager.c.obj
 .text.appkey_set
                0x000274cc       0x6c examples/serial/CMakeFiles/serial_nrf52832_xxAA_s132_5.0.0.dir/__/__/mesh/access/src/device_state_manager.c.obj
 .text.appkey_to_dsm_entry
                0x00027538       0x14 examples/serial/CMakeFiles/serial_nrf52832_xxAA_s132_5.0.0.dir/__/__/mesh/access/src/device_state_manager.c.obj
 .text.subnet_set
                0x0002754c       0x94 examples/serial/CMakeFiles/serial_nrf52832_xxAA_s132_5.0.0.dir/__/__/mesh/access/src/device_state_manager.c.obj
 .text.subnet_to_dsm_entry
                0x000275e0        0xc examples/serial/CMakeFiles/serial_nrf52832_xxAA_s132_5.0.0.dir/__/__/mesh/access/src/device_state_manager.c.obj
 .text.virtual_address_set
                0x000275ec       0x58 examples/serial/CMakeFiles/serial_nrf52832_xxAA_s132_5.0.0.dir/__/__/mesh/access/src/device_state_manager.c.obj
 .text.addr_virtual_to_dsm_entry
                0x00027644        0xe examples/serial/CMakeFiles/serial_nrf52832_xxAA_s132_5.0.0.dir/__/__/mesh/access/src/device_state_manager.c.obj
 *fill*         0x00027652        0x2 
 .text.flash_save
                0x00027654       0x84 examples/serial/CMakeFiles/serial_nrf52832_xxAA_s132_5.0.0.dir/__/__/mesh/access/src/device_state_manager.c.obj
 .text.flash_invalidate
                0x000276d8       0x68 examples/serial/CMakeFiles/serial_nrf52832_xxAA_s132_5.0.0.dir/__/__/mesh/access/src/device_state_manager.c.obj
 .text.flash_update_all
                0x00027740       0x6c examples/serial/CMakeFiles/serial_nrf52832_xxAA_s132_5.0.0.dir/__/__/mesh/access/src/device_state_manager.c.obj
 .text.reset_flash_area
                0x000277ac       0x28 examples/serial/CMakeFiles/serial_nrf52832_xxAA_s132_5.0.0.dir/__/__/mesh/access/src/device_state_manager.c.obj
 .text.virtual_address_uuid_index_get
                0x000277d4       0x60 examples/serial/CMakeFiles/serial_nrf52832_xxAA_s132_5.0.0.dir/__/__/mesh/access/src/device_state_manager.c.obj
 .text.add_address_virtual
                0x00027834       0x74 examples/serial/CMakeFiles/serial_nrf52832_xxAA_s132_5.0.0.dir/__/__/mesh/access/src/device_state_manager.c.obj
 .text.get_subnet_handle
                0x000278a8       0x3c examples/serial/CMakeFiles/serial_nrf52832_xxAA_s132_5.0.0.dir/__/__/mesh/access/src/device_state_manager.c.obj
 .text.get_app_handle
                0x000278e4       0x58 examples/serial/CMakeFiles/serial_nrf52832_xxAA_s132_5.0.0.dir/__/__/mesh/access/src/device_state_manager.c.obj
 .text.flash_operation_complete
                0x0002793c       0x58 examples/serial/CMakeFiles/serial_nrf52832_xxAA_s132_5.0.0.dir/__/__/mesh/access/src/device_state_manager.c.obj
 .text.flash_invalidate_complete
                0x00027994        0x8 examples/serial/CMakeFiles/serial_nrf52832_xxAA_s132_5.0.0.dir/__/__/mesh/access/src/device_state_manager.c.obj
 .text.flash_write_complete
                0x0002799c        0x8 examples/serial/CMakeFiles/serial_nrf52832_xxAA_s132_5.0.0.dir/__/__/mesh/access/src/device_state_manager.c.obj
 .text.add_address.part.5
                0x000279a4      0x164 examples/serial/CMakeFiles/serial_nrf52832_xxAA_s132_5.0.0.dir/__/__/mesh/access/src/device_state_manager.c.obj
 .text.address_handle_valid
                0x00027b08       0x28 examples/serial/CMakeFiles/serial_nrf52832_xxAA_s132_5.0.0.dir/__/__/mesh/access/src/device_state_manager.c.obj
 .text.address_handle_nonvirtual_valid
                0x00027b30       0x14 examples/serial/CMakeFiles/serial_nrf52832_xxAA_s132_5.0.0.dir/__/__/mesh/access/src/device_state_manager.c.obj
 .text.address_delete_if_unused
                0x00027b44       0x78 examples/serial/CMakeFiles/serial_nrf52832_xxAA_s132_5.0.0.dir/__/__/mesh/access/src/device_state_manager.c.obj
 .text.addr_nonvirtual_to_dsm_entry
                0x00027bbc       0x38 examples/serial/CMakeFiles/serial_nrf52832_xxAA_s132_5.0.0.dir/__/__/mesh/access/src/device_state_manager.c.obj
 .text.dsm_flash_area_get
                0x00027bf4        0xc examples/serial/CMakeFiles/serial_nrf52832_xxAA_s132_5.0.0.dir/__/__/mesh/access/src/device_state_manager.c.obj
                0x00027bf4                dsm_flash_area_get
 .text.build_flash_area
                0x00027c00       0x90 examples/serial/CMakeFiles/serial_nrf52832_xxAA_s132_5.0.0.dir/__/__/mesh/access/src/device_state_manager.c.obj
 .text.dsm_init
                0x00027c90       0x24 examples/serial/CMakeFiles/serial_nrf52832_xxAA_s132_5.0.0.dir/__/__/mesh/access/src/device_state_manager.c.obj
                0x00027c90                dsm_init
 .text.flash_remove_complete
                0x00027cb4        0x4 examples/serial/CMakeFiles/serial_nrf52832_xxAA_s132_5.0.0.dir/__/__/mesh/access/src/device_state_manager.c.obj
 .text.dsm_clear
                0x00027cb8       0x74 examples/serial/CMakeFiles/serial_nrf52832_xxAA_s132_5.0.0.dir/__/__/mesh/access/src/device_state_manager.c.obj
                0x00027cb8                dsm_clear
 .text.dsm_local_unicast_addresses_set
                0x00027d2c       0x74 examples/serial/CMakeFiles/serial_nrf52832_xxAA_s132_5.0.0.dir/__/__/mesh/access/src/device_state_manager.c.obj
                0x00027d2c                dsm_local_unicast_addresses_set
 .text.dsm_local_unicast_addresses_get
                0x00027da0       0x2c examples/serial/CMakeFiles/serial_nrf52832_xxAA_s132_5.0.0.dir/__/__/mesh/access/src/device_state_manager.c.obj
                0x00027da0                dsm_local_unicast_addresses_get
 .text.dsm_address_publish_add
                0x00027dcc        0xc examples/serial/CMakeFiles/serial_nrf52832_xxAA_s132_5.0.0.dir/__/__/mesh/access/src/device_state_manager.c.obj
                0x00027dcc                dsm_address_publish_add
 .text.dsm_address_publish_virtual_add
                0x00027dd8        0x6 examples/serial/CMakeFiles/serial_nrf52832_xxAA_s132_5.0.0.dir/__/__/mesh/access/src/device_state_manager.c.obj
                0x00027dd8                dsm_address_publish_virtual_add
 *fill*         0x00027dde        0x2 
 .text.dsm_address_publish_remove
                0x00027de0       0x44 examples/serial/CMakeFiles/serial_nrf52832_xxAA_s132_5.0.0.dir/__/__/mesh/access/src/device_state_manager.c.obj
                0x00027de0                dsm_address_publish_remove
 .text.dsm_address_subscription_add
                0x00027e24        0xc examples/serial/CMakeFiles/serial_nrf52832_xxAA_s132_5.0.0.dir/__/__/mesh/access/src/device_state_manager.c.obj
                0x00027e24                dsm_address_subscription_add
 .text.dsm_address_subscription_virtual_add
                0x00027e30        0x6 examples/serial/CMakeFiles/serial_nrf52832_xxAA_s132_5.0.0.dir/__/__/mesh/access/src/device_state_manager.c.obj
                0x00027e30                dsm_address_subscription_virtual_add
 *fill*         0x00027e36        0x2 
 .text.dsm_address_subscription_get
                0x00027e38       0x34 examples/serial/CMakeFiles/serial_nrf52832_xxAA_s132_5.0.0.dir/__/__/mesh/access/src/device_state_manager.c.obj
                0x00027e38                dsm_address_subscription_get
 .text.dsm_address_get
                0x00027e6c       0x5c examples/serial/CMakeFiles/serial_nrf52832_xxAA_s132_5.0.0.dir/__/__/mesh/access/src/device_state_manager.c.obj
                0x00027e6c                dsm_address_get
 .text.dsm_address_subscription_remove
                0x00027ec8       0x5c examples/serial/CMakeFiles/serial_nrf52832_xxAA_s132_5.0.0.dir/__/__/mesh/access/src/device_state_manager.c.obj
                0x00027ec8                dsm_address_subscription_remove
 .text.dsm_address_get_all
                0x00027f24       0x74 examples/serial/CMakeFiles/serial_nrf52832_xxAA_s132_5.0.0.dir/__/__/mesh/access/src/device_state_manager.c.obj
                0x00027f24                dsm_address_get_all
 .text.dsm_address_handle_get
                0x00027f98       0x98 examples/serial/CMakeFiles/serial_nrf52832_xxAA_s132_5.0.0.dir/__/__/mesh/access/src/device_state_manager.c.obj
                0x00027f98                dsm_address_handle_get
 .text.dsm_subnet_handle_get
                0x00028030        0xc examples/serial/CMakeFiles/serial_nrf52832_xxAA_s132_5.0.0.dir/__/__/mesh/access/src/device_state_manager.c.obj
                0x00028030                dsm_subnet_handle_get
 .text.dsm_appkey_handle_get
                0x0002803c        0xc examples/serial/CMakeFiles/serial_nrf52832_xxAA_s132_5.0.0.dir/__/__/mesh/access/src/device_state_manager.c.obj
                0x0002803c                dsm_appkey_handle_get
 .text.dsm_subnet_add
                0x00028048       0x58 examples/serial/CMakeFiles/serial_nrf52832_xxAA_s132_5.0.0.dir/__/__/mesh/access/src/device_state_manager.c.obj
                0x00028048                dsm_subnet_add
 .text.dsm_subnet_update
                0x000280a0       0x44 examples/serial/CMakeFiles/serial_nrf52832_xxAA_s132_5.0.0.dir/__/__/mesh/access/src/device_state_manager.c.obj
                0x000280a0                dsm_subnet_update
 .text.dsm_subnet_get_all
                0x000280e4       0x60 examples/serial/CMakeFiles/serial_nrf52832_xxAA_s132_5.0.0.dir/__/__/mesh/access/src/device_state_manager.c.obj
                0x000280e4                dsm_subnet_get_all
 .text.dsm_devkey_add
                0x00028144       0x7c examples/serial/CMakeFiles/serial_nrf52832_xxAA_s132_5.0.0.dir/__/__/mesh/access/src/device_state_manager.c.obj
                0x00028144                dsm_devkey_add
 .text.dsm_devkey_delete
                0x000281c0       0x40 examples/serial/CMakeFiles/serial_nrf52832_xxAA_s132_5.0.0.dir/__/__/mesh/access/src/device_state_manager.c.obj
                0x000281c0                dsm_devkey_delete
 .text.dsm_appkey_add
                0x00028200       0x78 examples/serial/CMakeFiles/serial_nrf52832_xxAA_s132_5.0.0.dir/__/__/mesh/access/src/device_state_manager.c.obj
                0x00028200                dsm_appkey_add
 .text.dsm_appkey_update
                0x00028278       0x48 examples/serial/CMakeFiles/serial_nrf52832_xxAA_s132_5.0.0.dir/__/__/mesh/access/src/device_state_manager.c.obj
                0x00028278                dsm_appkey_update
 .text.dsm_appkey_delete
                0x000282c0       0x30 examples/serial/CMakeFiles/serial_nrf52832_xxAA_s132_5.0.0.dir/__/__/mesh/access/src/device_state_manager.c.obj
                0x000282c0                dsm_appkey_delete
 .text.dsm_subnet_delete
                0x000282f0       0xb4 examples/serial/CMakeFiles/serial_nrf52832_xxAA_s132_5.0.0.dir/__/__/mesh/access/src/device_state_manager.c.obj
                0x000282f0                dsm_subnet_delete
 .text.dsm_appkey_get_all
                0x000283a4       0x88 examples/serial/CMakeFiles/serial_nrf52832_xxAA_s132_5.0.0.dir/__/__/mesh/access/src/device_state_manager.c.obj
                0x000283a4                dsm_appkey_get_all
 .text.dsm_tx_secmat_get
                0x0002842c      0x100 examples/serial/CMakeFiles/serial_nrf52832_xxAA_s132_5.0.0.dir/__/__/mesh/access/src/device_state_manager.c.obj
                0x0002842c                dsm_tx_secmat_get
 .text.nrf_mesh_net_secmat_next_get
                0x0002852c       0x74 examples/serial/CMakeFiles/serial_nrf52832_xxAA_s132_5.0.0.dir/__/__/mesh/access/src/device_state_manager.c.obj
                0x0002852c                nrf_mesh_net_secmat_next_get
 .text.nrf_mesh_app_secmat_next_get
                0x000285a0       0x9c examples/serial/CMakeFiles/serial_nrf52832_xxAA_s132_5.0.0.dir/__/__/mesh/access/src/device_state_manager.c.obj
                0x000285a0                nrf_mesh_app_secmat_next_get
 .text.nrf_mesh_devkey_secmat_get
                0x0002863c       0x50 examples/serial/CMakeFiles/serial_nrf52832_xxAA_s132_5.0.0.dir/__/__/mesh/access/src/device_state_manager.c.obj
                0x0002863c                nrf_mesh_devkey_secmat_get
 .text.nrf_mesh_beacon_info_next_get
                0x0002868c       0xbc examples/serial/CMakeFiles/serial_nrf52832_xxAA_s132_5.0.0.dir/__/__/mesh/access/src/device_state_manager.c.obj
                0x0002868c                nrf_mesh_beacon_info_next_get
 .text.nrf_mesh_rx_address_get
                0x00028748      0x118 examples/serial/CMakeFiles/serial_nrf52832_xxAA_s132_5.0.0.dir/__/__/mesh/access/src/device_state_manager.c.obj
                0x00028748                nrf_mesh_rx_address_get
 .text.serial_uart_init
                0x00028860       0xa0 examples/serial/CMakeFiles/serial_nrf52832_xxAA_s132_5.0.0.dir/__/__/mesh/serial/src/serial_uart.c.obj
                0x00028860                serial_uart_init
 .text.serial_uart_process
                0x00028900       0x5c examples/serial/CMakeFiles/serial_nrf52832_xxAA_s132_5.0.0.dir/__/__/mesh/serial/src/serial_uart.c.obj
                0x00028900                serial_uart_process
 .text.UARTE0_UART0_IRQHandler
                0x0002895c        0x4 examples/serial/CMakeFiles/serial_nrf52832_xxAA_s132_5.0.0.dir/__/__/mesh/serial/src/serial_uart.c.obj
                0x0002895c                UARTE0_UART0_IRQHandler
 .text.serial_uart_receive_set
                0x00028960        0xc examples/serial/CMakeFiles/serial_nrf52832_xxAA_s132_5.0.0.dir/__/__/mesh/serial/src/serial_uart.c.obj
                0x00028960                serial_uart_receive_set
 .text.do_transmit
                0x0002896c       0x44 examples/serial/CMakeFiles/serial_nrf52832_xxAA_s132_5.0.0.dir/__/__/mesh/serial/src/serial_bearer.c.obj
 .text.char_tx  0x000289b0       0x84 examples/serial/CMakeFiles/serial_nrf52832_xxAA_s132_5.0.0.dir/__/__/mesh/serial/src/serial_bearer.c.obj
 .text.serial_bearer_init
                0x00028a34       0x80 examples/serial/CMakeFiles/serial_nrf52832_xxAA_s132_5.0.0.dir/__/__/mesh/serial/src/serial_bearer.c.obj
                0x00028a34                serial_bearer_init
 .text.serial_bearer_packet_buffer_get
                0x00028ab4       0x24 examples/serial/CMakeFiles/serial_nrf52832_xxAA_s132_5.0.0.dir/__/__/mesh/serial/src/serial_bearer.c.obj
                0x00028ab4                serial_bearer_packet_buffer_get
 .text.serial_bearer_blocking_buffer_get
                0x00028ad8       0x38 examples/serial/CMakeFiles/serial_nrf52832_xxAA_s132_5.0.0.dir/__/__/mesh/serial/src/serial_bearer.c.obj
                0x00028ad8                serial_bearer_blocking_buffer_get
 .text.serial_bearer_tx
                0x00028b10       0x70 examples/serial/CMakeFiles/serial_nrf52832_xxAA_s132_5.0.0.dir/__/__/mesh/serial/src/serial_bearer.c.obj
                0x00028b10                serial_bearer_tx
 .text.send_cmd_response.constprop.5
                0x00028b80       0x26 examples/serial/CMakeFiles/serial_nrf52832_xxAA_s132_5.0.0.dir/__/__/mesh/serial/src/serial_bearer.c.obj
 *fill*         0x00028ba6        0x2 
 .text.char_rx  0x00028ba8       0xa4 examples/serial/CMakeFiles/serial_nrf52832_xxAA_s132_5.0.0.dir/__/__/mesh/serial/src/serial_bearer.c.obj
 .text.serial_bearer_rx_get
                0x00028c4c       0x38 examples/serial/CMakeFiles/serial_nrf52832_xxAA_s132_5.0.0.dir/__/__/mesh/serial/src/serial_bearer.c.obj
                0x00028c4c                serial_bearer_rx_get
 .text.serial_handler_common_cmd_rsp_nodata_on_error
                0x00028c84       0x2a examples/serial/CMakeFiles/serial_nrf52832_xxAA_s132_5.0.0.dir/__/__/mesh/serial/src/serial_handler_common.c.obj
                0x00028c84                serial_handler_common_cmd_rsp_nodata_on_error
 .text.serial_handler_common_rx
                0x00028cae       0x4a examples/serial/CMakeFiles/serial_nrf52832_xxAA_s132_5.0.0.dir/__/__/mesh/serial/src/serial_handler_common.c.obj
                0x00028cae                serial_handler_common_rx
 .text.access_flash_store
                0x00028cf8       0x18 examples/serial/CMakeFiles/serial_nrf52832_xxAA_s132_5.0.0.dir/__/__/mesh/serial/src/serial_handler_access.c.obj
 .text.elem_models_get
                0x00028d10       0x44 examples/serial/CMakeFiles/serial_nrf52832_xxAA_s132_5.0.0.dir/__/__/mesh/serial/src/serial_handler_access.c.obj
 .text.handle_get
                0x00028d54       0x1e examples/serial/CMakeFiles/serial_nrf52832_xxAA_s132_5.0.0.dir/__/__/mesh/serial/src/serial_handler_access.c.obj
 .text.model_id_get
                0x00028d72       0x1e examples/serial/CMakeFiles/serial_nrf52832_xxAA_s132_5.0.0.dir/__/__/mesh/serial/src/serial_handler_access.c.obj
 .text.elem_vendor_model_cnt_get
                0x00028d90       0x1c examples/serial/CMakeFiles/serial_nrf52832_xxAA_s132_5.0.0.dir/__/__/mesh/serial/src/serial_handler_access.c.obj
 .text.elem_sig_model_cnt_get
                0x00028dac       0x1c examples/serial/CMakeFiles/serial_nrf52832_xxAA_s132_5.0.0.dir/__/__/mesh/serial/src/serial_handler_access.c.obj
 .text.elem_loc_get
                0x00028dc8       0x1c examples/serial/CMakeFiles/serial_nrf52832_xxAA_s132_5.0.0.dir/__/__/mesh/serial/src/serial_handler_access.c.obj
 .text.elem_loc_set
                0x00028de4       0x22 examples/serial/CMakeFiles/serial_nrf52832_xxAA_s132_5.0.0.dir/__/__/mesh/serial/src/serial_handler_access.c.obj
 .text.model_pub_ttl_get
                0x00028e06       0x1c examples/serial/CMakeFiles/serial_nrf52832_xxAA_s132_5.0.0.dir/__/__/mesh/serial/src/serial_handler_access.c.obj
 .text.model_pub_ttl_set
                0x00028e22       0x22 examples/serial/CMakeFiles/serial_nrf52832_xxAA_s132_5.0.0.dir/__/__/mesh/serial/src/serial_handler_access.c.obj
 .text.model_pub_app_get
                0x00028e44       0x1c examples/serial/CMakeFiles/serial_nrf52832_xxAA_s132_5.0.0.dir/__/__/mesh/serial/src/serial_handler_access.c.obj
 .text.model_pub_app_set
                0x00028e60       0x22 examples/serial/CMakeFiles/serial_nrf52832_xxAA_s132_5.0.0.dir/__/__/mesh/serial/src/serial_handler_access.c.obj
 .text.model_app_get
                0x00028e82       0x44 examples/serial/CMakeFiles/serial_nrf52832_xxAA_s132_5.0.0.dir/__/__/mesh/serial/src/serial_handler_access.c.obj
 .text.model_app_unbind
                0x00028ec6       0x22 examples/serial/CMakeFiles/serial_nrf52832_xxAA_s132_5.0.0.dir/__/__/mesh/serial/src/serial_handler_access.c.obj
 .text.model_app_bind
                0x00028ee8       0x22 examples/serial/CMakeFiles/serial_nrf52832_xxAA_s132_5.0.0.dir/__/__/mesh/serial/src/serial_handler_access.c.obj
 .text.model_subs_get
                0x00028f0a       0x44 examples/serial/CMakeFiles/serial_nrf52832_xxAA_s132_5.0.0.dir/__/__/mesh/serial/src/serial_handler_access.c.obj
 .text.model_subs_remove
                0x00028f4e       0x22 examples/serial/CMakeFiles/serial_nrf52832_xxAA_s132_5.0.0.dir/__/__/mesh/serial/src/serial_handler_access.c.obj
 .text.model_subs_add
                0x00028f70       0x22 examples/serial/CMakeFiles/serial_nrf52832_xxAA_s132_5.0.0.dir/__/__/mesh/serial/src/serial_handler_access.c.obj
 .text.model_pub_period_get
                0x00028f92       0x20 examples/serial/CMakeFiles/serial_nrf52832_xxAA_s132_5.0.0.dir/__/__/mesh/serial/src/serial_handler_access.c.obj
 .text.model_pub_period_set
                0x00028fb2       0x24 examples/serial/CMakeFiles/serial_nrf52832_xxAA_s132_5.0.0.dir/__/__/mesh/serial/src/serial_handler_access.c.obj
 .text.model_pub_addr_get
                0x00028fd6       0x1c examples/serial/CMakeFiles/serial_nrf52832_xxAA_s132_5.0.0.dir/__/__/mesh/serial/src/serial_handler_access.c.obj
 .text.model_pub_addr_set
                0x00028ff2       0x22 examples/serial/CMakeFiles/serial_nrf52832_xxAA_s132_5.0.0.dir/__/__/mesh/serial/src/serial_handler_access.c.obj
 .text.serial_handler_access_rx
                0x00029014       0x30 examples/serial/CMakeFiles/serial_nrf52832_xxAA_s132_5.0.0.dir/__/__/mesh/serial/src/serial_handler_access.c.obj
                0x00029014                serial_handler_access_rx
 .text.serial_handler_config_rx
                0x00029044       0xb4 examples/serial/CMakeFiles/serial_nrf52832_xxAA_s132_5.0.0.dir/__/__/mesh/serial/src/serial_handler_config.c.obj
                0x00029044                serial_handler_config_rx
 .text.serial_handler_openmesh_rx
                0x000290f8       0x36 examples/serial/CMakeFiles/serial_nrf52832_xxAA_s132_5.0.0.dir/__/__/mesh/serial/src/serial_handler_openmesh.c.obj
                0x000290f8                serial_handler_openmesh_rx
 *fill*         0x0002912e        0x2 
 .text.serial_init
                0x00029130       0x1c examples/serial/CMakeFiles/serial_nrf52832_xxAA_s132_5.0.0.dir/__/__/mesh/serial/src/serial.c.obj
                0x00029130                serial_init
 .text.serial_packet_buffer_get
                0x0002914c       0x14 examples/serial/CMakeFiles/serial_nrf52832_xxAA_s132_5.0.0.dir/__/__/mesh/serial/src/serial.c.obj
                0x0002914c                serial_packet_buffer_get
 .text.serial_tx
                0x00029160       0x2c examples/serial/CMakeFiles/serial_nrf52832_xxAA_s132_5.0.0.dir/__/__/mesh/serial/src/serial.c.obj
                0x00029160                serial_tx
 .text.serial_start
                0x0002918c       0xfc examples/serial/CMakeFiles/serial_nrf52832_xxAA_s132_5.0.0.dir/__/__/mesh/serial/src/serial.c.obj
                0x0002918c                serial_start
 .text.serial_process_cmd
                0x00029288      0x124 examples/serial/CMakeFiles/serial_nrf52832_xxAA_s132_5.0.0.dir/__/__/mesh/serial/src/serial.c.obj
 .text.serial_process
                0x000293ac       0x30 examples/serial/CMakeFiles/serial_nrf52832_xxAA_s132_5.0.0.dir/__/__/mesh/serial/src/serial.c.obj
                0x000293ac                serial_process
 .text.serial_translate_error
                0x000293dc       0x6e examples/serial/CMakeFiles/serial_nrf52832_xxAA_s132_5.0.0.dir/__/__/mesh/serial/src/serial.c.obj
                0x000293dc                serial_translate_error
 *fill*         0x0002944a        0x2 
 .text.serial_state_get
                0x0002944c        0xc examples/serial/CMakeFiles/serial_nrf52832_xxAA_s132_5.0.0.dir/__/__/mesh/serial/src/serial.c.obj
                0x0002944c                serial_state_get
 .text.serial_cmd_rsp_send
                0x00029458       0x64 examples/serial/CMakeFiles/serial_nrf52832_xxAA_s132_5.0.0.dir/__/__/mesh/serial/src/serial.c.obj
                0x00029458                serial_cmd_rsp_send
 .text.find_context_id
                0x000294bc       0x20 examples/serial/CMakeFiles/serial_nrf52832_xxAA_s132_5.0.0.dir/__/__/mesh/serial/src/serial_handler_prov.c.obj
 .text.serial_handler_prov_evt_in
                0x000294dc      0x28c examples/serial/CMakeFiles/serial_nrf52832_xxAA_s132_5.0.0.dir/__/__/mesh/serial/src/serial_handler_prov.c.obj
 .text.serial_handler_prov_init
                0x00029768       0x8c examples/serial/CMakeFiles/serial_nrf52832_xxAA_s132_5.0.0.dir/__/__/mesh/serial/src/serial_handler_prov.c.obj
                0x00029768                serial_handler_prov_init
 .text.serial_handler_prov_pkt_in
                0x000297f4      0x20c examples/serial/CMakeFiles/serial_nrf52832_xxAA_s132_5.0.0.dir/__/__/mesh/serial/src/serial_handler_prov.c.obj
                0x000297f4                serial_handler_prov_pkt_in
 .text.serial_handler_mesh_evt_handle
                0x00029a00      0x1d4 examples/serial/CMakeFiles/serial_nrf52832_xxAA_s132_5.0.0.dir/__/__/mesh/serial/src/serial_handler_dfu.c.obj
 .text.serial_handler_dfu_init
                0x00029bd4       0x14 examples/serial/CMakeFiles/serial_nrf52832_xxAA_s132_5.0.0.dir/__/__/mesh/serial/src/serial_handler_dfu.c.obj
                0x00029bd4                serial_handler_dfu_init
 .text.serial_handler_dfu_rx
                0x00029be8      0x15c examples/serial/CMakeFiles/serial_nrf52832_xxAA_s132_5.0.0.dir/__/__/mesh/serial/src/serial_handler_dfu.c.obj
                0x00029be8                serial_handler_dfu_rx
 .text.serial_handler_mesh_evt_handle
                0x00029d44      0x144 examples/serial/CMakeFiles/serial_nrf52832_xxAA_s132_5.0.0.dir/__/__/mesh/serial/src/serial_handler_mesh.c.obj
 .text.handle_cmd_clear
                0x00029e88       0x20 examples/serial/CMakeFiles/serial_nrf52832_xxAA_s132_5.0.0.dir/__/__/mesh/serial/src/serial_handler_mesh.c.obj
 .text.handle_cmd_packet_send
                0x00029ea8       0x8c examples/serial/CMakeFiles/serial_nrf52832_xxAA_s132_5.0.0.dir/__/__/mesh/serial/src/serial_handler_mesh.c.obj
 .text.handle_cmd_addr_virtual_count_max_get
                0x00029f34       0x1a examples/serial/CMakeFiles/serial_nrf52832_xxAA_s132_5.0.0.dir/__/__/mesh/serial/src/serial_handler_mesh.c.obj
 .text.handle_cmd_appkey_count_max_get
                0x00029f4e        0x4 examples/serial/CMakeFiles/serial_nrf52832_xxAA_s132_5.0.0.dir/__/__/mesh/serial/src/serial_handler_mesh.c.obj
 .text.handle_cmd_addr_nonvirtual_count_max_get
                0x00029f52       0x1a examples/serial/CMakeFiles/serial_nrf52832_xxAA_s132_5.0.0.dir/__/__/mesh/serial/src/serial_handler_mesh.c.obj
 .text.handle_cmd_addr_local_unicast_get
                0x00029f6c       0x2c examples/serial/CMakeFiles/serial_nrf52832_xxAA_s132_5.0.0.dir/__/__/mesh/serial/src/serial_handler_mesh.c.obj
 .text.handle_cmd_devkey_count_max_get
                0x00029f98       0x1a examples/serial/CMakeFiles/serial_nrf52832_xxAA_s132_5.0.0.dir/__/__/mesh/serial/src/serial_handler_mesh.c.obj
 .text.handle_cmd_subnet_count_max_get
                0x00029fb2       0x1a examples/serial/CMakeFiles/serial_nrf52832_xxAA_s132_5.0.0.dir/__/__/mesh/serial/src/serial_handler_mesh.c.obj
 .text.handle_cmd_addr_get_all
                0x00029fcc       0x28 examples/serial/CMakeFiles/serial_nrf52832_xxAA_s132_5.0.0.dir/__/__/mesh/serial/src/serial_handler_mesh.c.obj
 .text.handle_cmd_addr_get
                0x00029ff4       0x60 examples/serial/CMakeFiles/serial_nrf52832_xxAA_s132_5.0.0.dir/__/__/mesh/serial/src/serial_handler_mesh.c.obj
 .text.handle_cmd_addr_publication_remove
                0x0002a054       0x26 examples/serial/CMakeFiles/serial_nrf52832_xxAA_s132_5.0.0.dir/__/__/mesh/serial/src/serial_handler_mesh.c.obj
 .text.handle_cmd_addr_publication_add_virtual
                0x0002a07a       0x26 examples/serial/CMakeFiles/serial_nrf52832_xxAA_s132_5.0.0.dir/__/__/mesh/serial/src/serial_handler_mesh.c.obj
 .text.handle_cmd_addr_publication_add
                0x0002a0a0       0x26 examples/serial/CMakeFiles/serial_nrf52832_xxAA_s132_5.0.0.dir/__/__/mesh/serial/src/serial_handler_mesh.c.obj
 .text.handle_cmd_addr_subscription_remove
                0x0002a0c6       0x26 examples/serial/CMakeFiles/serial_nrf52832_xxAA_s132_5.0.0.dir/__/__/mesh/serial/src/serial_handler_mesh.c.obj
 .text.handle_cmd_addr_subscription_add_virtual
                0x0002a0ec       0x26 examples/serial/CMakeFiles/serial_nrf52832_xxAA_s132_5.0.0.dir/__/__/mesh/serial/src/serial_handler_mesh.c.obj
 .text.handle_cmd_addr_subscription_add
                0x0002a112       0x26 examples/serial/CMakeFiles/serial_nrf52832_xxAA_s132_5.0.0.dir/__/__/mesh/serial/src/serial_handler_mesh.c.obj
 .text.handle_cmd_addr_local_unicast_set
                0x0002a138       0x32 examples/serial/CMakeFiles/serial_nrf52832_xxAA_s132_5.0.0.dir/__/__/mesh/serial/src/serial_handler_mesh.c.obj
 .text.handle_cmd_devkey_delete
                0x0002a16a       0x26 examples/serial/CMakeFiles/serial_nrf52832_xxAA_s132_5.0.0.dir/__/__/mesh/serial/src/serial_handler_mesh.c.obj
 .text.handle_cmd_devkey_add
                0x0002a190       0x20 examples/serial/CMakeFiles/serial_nrf52832_xxAA_s132_5.0.0.dir/__/__/mesh/serial/src/serial_handler_mesh.c.obj
 .text.handle_cmd_appkey_get_all
                0x0002a1b0       0x36 examples/serial/CMakeFiles/serial_nrf52832_xxAA_s132_5.0.0.dir/__/__/mesh/serial/src/serial_handler_mesh.c.obj
 .text.handle_cmd_appkey_delete
                0x0002a1e6       0x26 examples/serial/CMakeFiles/serial_nrf52832_xxAA_s132_5.0.0.dir/__/__/mesh/serial/src/serial_handler_mesh.c.obj
 .text.handle_cmd_appkey_update
                0x0002a20c       0x28 examples/serial/CMakeFiles/serial_nrf52832_xxAA_s132_5.0.0.dir/__/__/mesh/serial/src/serial_handler_mesh.c.obj
 .text.handle_cmd_appkey_add
                0x0002a234       0x2a examples/serial/CMakeFiles/serial_nrf52832_xxAA_s132_5.0.0.dir/__/__/mesh/serial/src/serial_handler_mesh.c.obj
 .text.handle_cmd_subnet_get_all
                0x0002a25e       0x2e examples/serial/CMakeFiles/serial_nrf52832_xxAA_s132_5.0.0.dir/__/__/mesh/serial/src/serial_handler_mesh.c.obj
 .text.handle_cmd_subnet_delete
                0x0002a28c       0x26 examples/serial/CMakeFiles/serial_nrf52832_xxAA_s132_5.0.0.dir/__/__/mesh/serial/src/serial_handler_mesh.c.obj
 .text.handle_cmd_subnet_update
                0x0002a2b2       0x28 examples/serial/CMakeFiles/serial_nrf52832_xxAA_s132_5.0.0.dir/__/__/mesh/serial/src/serial_handler_mesh.c.obj
 .text.handle_cmd_subnet_add
                0x0002a2da       0x28 examples/serial/CMakeFiles/serial_nrf52832_xxAA_s132_5.0.0.dir/__/__/mesh/serial/src/serial_handler_mesh.c.obj
 .text.handle_cmd_disable
                0x0002a302       0x18 examples/serial/CMakeFiles/serial_nrf52832_xxAA_s132_5.0.0.dir/__/__/mesh/serial/src/serial_handler_mesh.c.obj
 .text.handle_cmd_enable
                0x0002a31a       0x18 examples/serial/CMakeFiles/serial_nrf52832_xxAA_s132_5.0.0.dir/__/__/mesh/serial/src/serial_handler_mesh.c.obj
 *fill*         0x0002a332        0x2 
 .text.serial_handler_mesh_init
                0x0002a334       0x14 examples/serial/CMakeFiles/serial_nrf52832_xxAA_s132_5.0.0.dir/__/__/mesh/serial/src/serial_handler_mesh.c.obj
                0x0002a334                serial_handler_mesh_init
 .text.serial_handler_mesh_rx
                0x0002a348       0x80 examples/serial/CMakeFiles/serial_nrf52832_xxAA_s132_5.0.0.dir/__/__/mesh/serial/src/serial_handler_mesh.c.obj
                0x0002a348                serial_handler_mesh_rx
 .text.registered_model_get
                0x0002a3c8       0x20 examples/serial/CMakeFiles/serial_nrf52832_xxAA_s132_5.0.0.dir/__/__/mesh/serial/src/serial_handler_models.c.obj
 .text.model_command
                0x0002a3e8       0x5e examples/serial/CMakeFiles/serial_nrf52832_xxAA_s132_5.0.0.dir/__/__/mesh/serial/src/serial_handler_models.c.obj
 .text.model_init
                0x0002a446       0x3a examples/serial/CMakeFiles/serial_nrf52832_xxAA_s132_5.0.0.dir/__/__/mesh/serial/src/serial_handler_models.c.obj
 .text.models_get
                0x0002a480       0x48 examples/serial/CMakeFiles/serial_nrf52832_xxAA_s132_5.0.0.dir/__/__/mesh/serial/src/serial_handler_models.c.obj
 .text.serial_handler_models_rx
                0x0002a4c8       0x30 examples/serial/CMakeFiles/serial_nrf52832_xxAA_s132_5.0.0.dir/__/__/mesh/serial/src/serial_handler_models.c.obj
                0x0002a4c8                serial_handler_models_rx
 .text.handle_cmd_device_beacon_params_get
                0x0002a4f8       0x90 examples/serial/CMakeFiles/serial_nrf52832_xxAA_s132_5.0.0.dir/__/__/mesh/serial/src/serial_handler_device.c.obj
 .text.handle_cmd_device_fw_info_get
                0x0002a588        0xc examples/serial/CMakeFiles/serial_nrf52832_xxAA_s132_5.0.0.dir/__/__/mesh/serial/src/serial_handler_device.c.obj
 .text.handle_cmd_device_serial_version_get
                0x0002a594       0x1a examples/serial/CMakeFiles/serial_nrf52832_xxAA_s132_5.0.0.dir/__/__/mesh/serial/src/serial_handler_device.c.obj
 *fill*         0x0002a5ae        0x2 
 .text.handle_cmd_device_beacon_params_set
                0x0002a5b0       0x6c examples/serial/CMakeFiles/serial_nrf52832_xxAA_s132_5.0.0.dir/__/__/mesh/serial/src/serial_handler_device.c.obj
 .text.handle_cmd_device_beacon_stop
                0x0002a61c       0x44 examples/serial/CMakeFiles/serial_nrf52832_xxAA_s132_5.0.0.dir/__/__/mesh/serial/src/serial_handler_device.c.obj
 .text.handle_cmd_device_beacon_start
                0x0002a660       0x70 examples/serial/CMakeFiles/serial_nrf52832_xxAA_s132_5.0.0.dir/__/__/mesh/serial/src/serial_handler_device.c.obj
 .text.handle_cmd_device_radio_reset
                0x0002a6d0       0x1a examples/serial/CMakeFiles/serial_nrf52832_xxAA_s132_5.0.0.dir/__/__/mesh/serial/src/serial_handler_device.c.obj
 *fill*         0x0002a6ea        0x2 
 .text.handle_cmd_device_internal_events_report
                0x0002a6ec       0x20 examples/serial/CMakeFiles/serial_nrf52832_xxAA_s132_5.0.0.dir/__/__/mesh/serial/src/serial_handler_device.c.obj
 .text.event_report_cb
                0x0002a70c       0x58 examples/serial/CMakeFiles/serial_nrf52832_xxAA_s132_5.0.0.dir/__/__/mesh/serial/src/serial_handler_device.c.obj
 .text.handle_cmd_device_echo
                0x0002a764       0x40 examples/serial/CMakeFiles/serial_nrf52832_xxAA_s132_5.0.0.dir/__/__/mesh/serial/src/serial_handler_device.c.obj
 .text.serial_handler_device_init
                0x0002a7a4       0x14 examples/serial/CMakeFiles/serial_nrf52832_xxAA_s132_5.0.0.dir/__/__/mesh/serial/src/serial_handler_device.c.obj
                0x0002a7a4                serial_handler_device_init
 .text.serial_handler_device_rx
                0x0002a7b8       0x30 examples/serial/CMakeFiles/serial_nrf52832_xxAA_s132_5.0.0.dir/__/__/mesh/serial/src/serial_handler_device.c.obj
                0x0002a7b8                serial_handler_device_rx
 .text.nrf_mesh_serial_init
                0x0002a7e8       0x36 examples/serial/CMakeFiles/serial_nrf52832_xxAA_s132_5.0.0.dir/__/__/mesh/serial/src/nrf_mesh_serial.c.obj
                0x0002a7e8                nrf_mesh_serial_init
 .text.nrf_mesh_serial_enable
                0x0002a81e        0x4 examples/serial/CMakeFiles/serial_nrf52832_xxAA_s132_5.0.0.dir/__/__/mesh/serial/src/nrf_mesh_serial.c.obj
                0x0002a81e                nrf_mesh_serial_enable
 *fill*         0x0002a822        0x2 
 .text.serial_handler_app_cb_set
                0x0002a824        0xc examples/serial/CMakeFiles/serial_nrf52832_xxAA_s132_5.0.0.dir/__/__/mesh/serial/src/serial_handler_app.c.obj
                0x0002a824                serial_handler_app_cb_set
 .text.serial_handler_app_rx
                0x0002a830       0x2c examples/serial/CMakeFiles/serial_nrf52832_xxAA_s132_5.0.0.dir/__/__/mesh/serial/src/serial_handler_app.c.obj
                0x0002a830                serial_handler_app_rx
 .text._weak_handler
                0x0002a85c        0x4 examples/serial/CMakeFiles/serial_nrf52832_xxAA_s132_5.0.0.dir/__/nrf_mesh_weak.c.obj
                0x0002a85c                nrf_mesh_dfu_init
                0x0002a85c                nrf_mesh_dfu_jump_to_bootloader
                0x0002a85c                nrf_mesh_dfu_rx
                0x0002a85c                nrf_mesh_dfu_bank_info_get
                0x0002a85c                nrf_mesh_dfu_request
                0x0002a85c                nrf_mesh_dfu_bank_flash
                0x0002a85c                _weak_handler
                0x0002a85c                nrf_mesh_dfu_relay
                0x0002a85c                nrf_mesh_dfu_abort
                0x0002a85c                mesh_flash_op_execute
                0x0002a85c                nrf_mesh_dfu_state_get
 .text.errata_57
                0x0002a860       0x34 examples/serial/CMakeFiles/serial_nrf52832_xxAA_s132_5.0.0.dir/__/__/external/nRF5_SDK_14.0.0_3bcc1f7/components/toolchain/system_nrf52.c.obj
 .text.errata_136
                0x0002a894       0x40 examples/serial/CMakeFiles/serial_nrf52832_xxAA_s132_5.0.0.dir/__/__/external/nRF5_SDK_14.0.0_3bcc1f7/components/toolchain/system_nrf52.c.obj
 .text.SystemInit
                0x0002a8d4      0x238 examples/serial/CMakeFiles/serial_nrf52832_xxAA_s132_5.0.0.dir/__/__/external/nRF5_SDK_14.0.0_3bcc1f7/components/toolchain/system_nrf52.c.obj
                0x0002a8d4                SystemInit
 .text          0x0002ab0c       0x3c examples/serial/CMakeFiles/serial_nrf52832_xxAA_s132_5.0.0.dir/__/__/external/nRF5_SDK_14.0.0_3bcc1f7/components/toolchain/gcc/gcc_startup_nrf52.S.obj
                0x0002ab0c                Reset_Handler
                0x0002ab34                NMI_Handler
                0x0002ab38                MemoryManagement_Handler
                0x0002ab3a                BusFault_Handler
                0x0002ab3c                UsageFault_Handler
                0x0002ab3e                SVC_Handler
                0x0002ab40                DebugMon_Handler
                0x0002ab42                PendSV_Handler
                0x0002ab44                SysTick_Handler
                0x0002ab46                POWER_CLOCK_IRQHandler
                0x0002ab46                RADIO_IRQHandler
                0x0002ab46                PDM_IRQHandler
                0x0002ab46                RTC0_IRQHandler
                0x0002ab46                TIMER3_IRQHandler
                0x0002ab46                FPU_IRQHandler
                0x0002ab46                SPIM0_SPIS0_TWIM0_TWIS0_SPI0_TWI0_IRQHandler
                0x0002ab46                GPIOTE_IRQHandler
                0x0002ab46                TEMP_IRQHandler
                0x0002ab46                I2S_IRQHandler
                0x0002ab46                SWI4_EGU4_IRQHandler
                0x0002ab46                TIMER0_IRQHandler
                0x0002ab46                PWM1_IRQHandler
                0x0002ab46                TIMER1_IRQHandler
                0x0002ab46                PWM2_IRQHandler
                0x0002ab46                ECB_IRQHandler
                0x0002ab46                SPIM1_SPIS1_TWIM1_TWIS1_SPI1_TWI1_IRQHandler
                0x0002ab46                Default_Handler
                0x0002ab46                SAADC_IRQHandler
                0x0002ab46                CCM_AAR_IRQHandler
                0x0002ab46                WDT_IRQHandler
                0x0002ab46                TIMER4_IRQHandler
                0x0002ab46                SWI5_EGU5_IRQHandler
                0x0002ab46                RNG_IRQHandler
                0x0002ab46                RTC2_IRQHandler
                0x0002ab46                PWM0_IRQHandler
                0x0002ab46                SWI3_EGU3_IRQHandler
                0x0002ab46                RTC1_IRQHandler
                0x0002ab46                SWI1_EGU1_IRQHandler
                0x0002ab46                SPIM2_SPIS2_SPI2_IRQHandler
                0x0002ab46                NFCT_IRQHandler
                0x0002ab46                SWI0_EGU0_IRQHandler
                0x0002ab46                MWU_IRQHandler
                0x0002ab46                TIMER2_IRQHandler
                0x0002ab46                COMP_LPCOMP_IRQHandler
 .text.internal_event_init
                0x0002ab48       0x40 mesh/core/libmesh_core_nrf52832_xxAA.a(internal_event.c.obj)
                0x0002ab48                internal_event_init
 .text.internal_event_push
                0x0002ab88       0x28 mesh/core/libmesh_core_nrf52832_xxAA.a(internal_event.c.obj)
                0x0002ab88                internal_event_push
 .text.nrf_mesh_configure_device_uuid_set
                0x0002abb0       0x10 mesh/core/libmesh_core_nrf52832_xxAA.a(nrf_mesh_configure.c.obj)
                0x0002abb0                nrf_mesh_configure_device_uuid_set
 .text.nrf_mesh_configure_device_uuid_reset
                0x0002abc0       0x28 mesh/core/libmesh_core_nrf52832_xxAA.a(nrf_mesh_configure.c.obj)
                0x0002abc0                nrf_mesh_configure_device_uuid_reset
 .text.nrf_mesh_configure_device_uuid_get
                0x0002abe8        0x8 mesh/core/libmesh_core_nrf52832_xxAA.a(nrf_mesh_configure.c.obj)
                0x0002abe8                nrf_mesh_configure_device_uuid_get
 .text.event_handle
                0x0002abf0       0x30 mesh/core/libmesh_core_nrf52832_xxAA.a(event.c.obj)
                0x0002abf0                event_handle
 .text.event_handler_add
                0x0002ac20       0x78 mesh/core/libmesh_core_nrf52832_xxAA.a(event.c.obj)
                0x0002ac20                event_handler_add
 .text.m_adjust_desired_packet_length
                0x0002ac98       0x34 mesh/core/libmesh_core_nrf52832_xxAA.a(packet_buffer.c.obj)
 .text.m_index_increment.part.0
                0x0002accc       0x14 mesh/core/libmesh_core_nrf52832_xxAA.a(packet_buffer.c.obj)
 .text.m_free_popped_packet
                0x0002ace0       0x60 mesh/core/libmesh_core_nrf52832_xxAA.a(packet_buffer.c.obj)
 .text.free_skipped_packets
                0x0002ad40       0x1c mesh/core/libmesh_core_nrf52832_xxAA.a(packet_buffer.c.obj)
 .text.packet_buffer_max_packet_len_get
                0x0002ad5c       0x34 mesh/core/libmesh_core_nrf52832_xxAA.a(packet_buffer.c.obj)
                0x0002ad5c                packet_buffer_max_packet_len_get
 .text.packet_buffer_init
                0x0002ad90       0xe0 mesh/core/libmesh_core_nrf52832_xxAA.a(packet_buffer.c.obj)
                0x0002ad90                packet_buffer_init
 .text.packet_buffer_flush
                0x0002ae70       0x5e mesh/core/libmesh_core_nrf52832_xxAA.a(packet_buffer.c.obj)
                0x0002ae70                packet_buffer_flush
 *fill*         0x0002aece        0x2 
 .text.packet_buffer_reserve
                0x0002aed0      0x11c mesh/core/libmesh_core_nrf52832_xxAA.a(packet_buffer.c.obj)
                0x0002aed0                packet_buffer_reserve
 .text.packet_buffer_commit
                0x0002afec      0x104 mesh/core/libmesh_core_nrf52832_xxAA.a(packet_buffer.c.obj)
                0x0002afec                packet_buffer_commit
 .text.packet_buffer_pop
                0x0002b0f0       0x58 mesh/core/libmesh_core_nrf52832_xxAA.a(packet_buffer.c.obj)
                0x0002b0f0                packet_buffer_pop
 .text.packet_buffer_can_pop
                0x0002b148       0x28 mesh/core/libmesh_core_nrf52832_xxAA.a(packet_buffer.c.obj)
                0x0002b148                packet_buffer_can_pop
 .text.packet_buffer_packets_ready_to_pop
                0x0002b170       0x58 mesh/core/libmesh_core_nrf52832_xxAA.a(packet_buffer.c.obj)
                0x0002b170                packet_buffer_packets_ready_to_pop
 .text.packet_buffer_free
                0x0002b1c8       0x8c mesh/core/libmesh_core_nrf52832_xxAA.a(packet_buffer.c.obj)
                0x0002b1c8                packet_buffer_free
 .text.fifo_init
                0x0002b254       0x50 mesh/core/libmesh_core_nrf52832_xxAA.a(fifo.c.obj)
                0x0002b254                fifo_init
 .text.fifo_push
                0x0002b2a4       0x50 mesh/core/libmesh_core_nrf52832_xxAA.a(fifo.c.obj)
                0x0002b2a4                fifo_push
 .text.fifo_pop
                0x0002b2f4       0x52 mesh/core/libmesh_core_nrf52832_xxAA.a(fifo.c.obj)
                0x0002b2f4                fifo_pop
 *fill*         0x0002b346        0x2 
 .text.flash_mem_available
                0x0002b348       0x20 mesh/core/libmesh_core_nrf52832_xxAA.a(net_state.c.obj)
 .text.flash_store_iv_index
                0x0002b368       0x38 mesh/core/libmesh_core_nrf52832_xxAA.a(net_state.c.obj)
 .text.seqnum_block_allocate
                0x0002b3a0       0x48 mesh/core/libmesh_core_nrf52832_xxAA.a(net_state.c.obj)
 .text.net_state_reset
                0x0002b3e8       0x3c mesh/core/libmesh_core_nrf52832_xxAA.a(net_state.c.obj)
                0x0002b3e8                net_state_reset
 .text.flash_write_complete
                0x0002b424       0x78 mesh/core/libmesh_core_nrf52832_xxAA.a(net_state.c.obj)
 .text.net_state_recover_from_flash
                0x0002b49c       0x84 mesh/core/libmesh_core_nrf52832_xxAA.a(net_state.c.obj)
                0x0002b49c                net_state_recover_from_flash
 .text.net_state_flash_area_get
                0x0002b520        0xc mesh/core/libmesh_core_nrf52832_xxAA.a(net_state.c.obj)
                0x0002b520                net_state_flash_area_get
 .text.init_flash_storage
                0x0002b52c       0x40 mesh/core/libmesh_core_nrf52832_xxAA.a(net_state.c.obj)
 .text.net_state_init
                0x0002b56c       0x48 mesh/core/libmesh_core_nrf52832_xxAA.a(net_state.c.obj)
                0x0002b56c                net_state_init
 .text.net_state_iv_update_start
                0x0002b5b4       0x64 mesh/core/libmesh_core_nrf52832_xxAA.a(net_state.c.obj)
                0x0002b5b4                net_state_iv_update_start
 .text.iv_update_trigger_if_pending
                0x0002b618       0x8c mesh/core/libmesh_core_nrf52832_xxAA.a(net_state.c.obj)
 .text.iv_update_timer_handler
                0x0002b6a4       0x74 mesh/core/libmesh_core_nrf52832_xxAA.a(net_state.c.obj)
 .text.net_state_seqnum_alloc
                0x0002b718       0x68 mesh/core/libmesh_core_nrf52832_xxAA.a(net_state.c.obj)
                0x0002b718                net_state_seqnum_alloc
 .text.net_state_iv_index_lock
                0x0002b780       0x48 mesh/core/libmesh_core_nrf52832_xxAA.a(net_state.c.obj)
                0x0002b780                net_state_iv_index_lock
 .text.net_state_beacon_received
                0x0002b7c8       0x94 mesh/core/libmesh_core_nrf52832_xxAA.a(net_state.c.obj)
                0x0002b7c8                net_state_beacon_received
 .text.net_state_beacon_iv_index_get
                0x0002b85c        0xc mesh/core/libmesh_core_nrf52832_xxAA.a(net_state.c.obj)
                0x0002b85c                net_state_beacon_iv_index_get
 .text.net_state_tx_iv_index_get
                0x0002b868       0x14 mesh/core/libmesh_core_nrf52832_xxAA.a(net_state.c.obj)
                0x0002b868                net_state_tx_iv_index_get
 .text.net_state_rx_iv_index_get
                0x0002b87c       0x18 mesh/core/libmesh_core_nrf52832_xxAA.a(net_state.c.obj)
                0x0002b87c                net_state_rx_iv_index_get
 .text.net_state_iv_update_get
                0x0002b894        0xc mesh/core/libmesh_core_nrf52832_xxAA.a(net_state.c.obj)
                0x0002b894                net_state_iv_update_get
 .text.nrf_mesh_address_type_get
                0x0002b8a0       0x10 mesh/core/libmesh_core_nrf52832_xxAA.a(nrf_mesh_utils.c.obj)
                0x0002b8a0                nrf_mesh_address_type_get
 .text.sd_softdevice_is_enabled
                0x0002b8b0        0x4 mesh/core/libmesh_core_nrf52832_xxAA.a(nrf_mesh.c.obj)
 .text.nrf_mesh_init
                0x0002b8b4       0xb0 mesh/core/libmesh_core_nrf52832_xxAA.a(nrf_mesh.c.obj)
                0x0002b8b4                nrf_mesh_init
 .text.nrf_mesh_enable
                0x0002b964       0x48 mesh/core/libmesh_core_nrf52832_xxAA.a(nrf_mesh.c.obj)
                0x0002b964                nrf_mesh_enable
 .text.nrf_mesh_disable
                0x0002b9ac       0x28 mesh/core/libmesh_core_nrf52832_xxAA.a(nrf_mesh.c.obj)
                0x0002b9ac                nrf_mesh_disable
 .text.nrf_mesh_packet_send
                0x0002b9d4        0x4 mesh/core/libmesh_core_nrf52832_xxAA.a(nrf_mesh.c.obj)
                0x0002b9d4                nrf_mesh_packet_send
 .text.nrf_mesh_process
                0x0002b9d8      0x1c0 mesh/core/libmesh_core_nrf52832_xxAA.a(nrf_mesh.c.obj)
                0x0002b9d8                nrf_mesh_process
 .text.nrf_mesh_on_ble_evt
                0x0002bb98        0x4 mesh/core/libmesh_core_nrf52832_xxAA.a(nrf_mesh.c.obj)
                0x0002bb98                nrf_mesh_on_ble_evt
 .text.nrf_mesh_on_sd_evt
                0x0002bb9c        0xa mesh/core/libmesh_core_nrf52832_xxAA.a(nrf_mesh.c.obj)
                0x0002bb9c                nrf_mesh_on_sd_evt
 .text.nrf_mesh_evt_handler_add
                0x0002bba6        0x4 mesh/core/libmesh_core_nrf52832_xxAA.a(nrf_mesh.c.obj)
                0x0002bba6                nrf_mesh_evt_handler_add
 .text.sd_power_reset_reason_clr
                0x0002bbaa        0x4 mesh/core/libmesh_core_nrf52832_xxAA.a(hal.c.obj)
 .text.sd_power_gpregret_set
                0x0002bbae        0x4 mesh/core/libmesh_core_nrf52832_xxAA.a(hal.c.obj)
 *fill*         0x0002bbb2        0x2 
 .text.hal_device_reset
                0x0002bbb4       0x38 mesh/core/libmesh_core_nrf52832_xxAA.a(hal.c.obj)
                0x0002bbb4                hal_device_reset
 .text.hal_lfclk_ppm_get
                0x0002bbec       0x14 mesh/core/libmesh_core_nrf52832_xxAA.a(hal.c.obj)
                0x0002bbec                hal_lfclk_ppm_get
 .text.add_to_add_list
                0x0002bc00       0x44 mesh/core/libmesh_core_nrf52832_xxAA.a(timer_scheduler.c.obj)
 .text.process_dirty_events
                0x0002bc44       0x6c mesh/core/libmesh_core_nrf52832_xxAA.a(timer_scheduler.c.obj)
 .text.timer_cb
                0x0002bcb0        0xc mesh/core/libmesh_core_nrf52832_xxAA.a(timer_scheduler.c.obj)
 .text.add_evt.constprop.0
                0x0002bcbc       0x68 mesh/core/libmesh_core_nrf52832_xxAA.a(timer_scheduler.c.obj)
 .text.process_add_list
                0x0002bd24       0x48 mesh/core/libmesh_core_nrf52832_xxAA.a(timer_scheduler.c.obj)
 .text.flag_event_cb
                0x0002bd6c      0x104 mesh/core/libmesh_core_nrf52832_xxAA.a(timer_scheduler.c.obj)
 .text.timer_sch_init
                0x0002be70       0x24 mesh/core/libmesh_core_nrf52832_xxAA.a(timer_scheduler.c.obj)
                0x0002be70                timer_sch_init
 .text.timer_sch_schedule
                0x0002be94       0x50 mesh/core/libmesh_core_nrf52832_xxAA.a(timer_scheduler.c.obj)
                0x0002be94                timer_sch_schedule
 .text.timer_sch_abort
                0x0002bee4       0x64 mesh/core/libmesh_core_nrf52832_xxAA.a(timer_scheduler.c.obj)
                0x0002bee4                timer_sch_abort
 .text.timer_sch_reschedule
                0x0002bf48       0x70 mesh/core/libmesh_core_nrf52832_xxAA.a(timer_scheduler.c.obj)
                0x0002bf48                timer_sch_reschedule
 .text.timer_mut_unlock
                0x0002bfb8       0x10 mesh/core/libmesh_core_nrf52832_xxAA.a(timer.c.obj)
 .text.timer_order_cb
                0x0002bfc8       0x94 mesh/core/libmesh_core_nrf52832_xxAA.a(timer.c.obj)
                0x0002bfc8                timer_order_cb
 .text.timer_now
                0x0002c05c       0x48 mesh/core/libmesh_core_nrf52832_xxAA.a(timer.c.obj)
                0x0002c05c                timer_now
 .text.timer_event_handler
                0x0002c0a4       0x90 mesh/core/libmesh_core_nrf52832_xxAA.a(timer.c.obj)
                0x0002c0a4                timer_event_handler
 .text.timer_on_ts_begin
                0x0002c134       0xfc mesh/core/libmesh_core_nrf52832_xxAA.a(timer.c.obj)
                0x0002c134                timer_on_ts_begin
 .text.timer_on_ts_end
                0x0002c230       0x60 mesh/core/libmesh_core_nrf52832_xxAA.a(timer.c.obj)
                0x0002c230                timer_on_ts_end
 .text.timer_cb
                0x0002c290       0x10 mesh/core/libmesh_core_nrf52832_xxAA.a(ticker.c.obj)
 .text.ticker_init
                0x0002c2a0       0x3c mesh/core/libmesh_core_nrf52832_xxAA.a(ticker.c.obj)
                0x0002c2a0                ticker_init
 .text.sd_rand_application_bytes_available_get
                0x0002c2dc        0x4 mesh/core/libmesh_core_nrf52832_xxAA.a(rand.c.obj)
 .text.sd_rand_application_vector_get
                0x0002c2e0        0x4 mesh/core/libmesh_core_nrf52832_xxAA.a(rand.c.obj)
 .text.rand_prng_get
                0x0002c2e4       0x22 mesh/core/libmesh_core_nrf52832_xxAA.a(rand.c.obj)
                0x0002c2e4                rand_prng_get
 *fill*         0x0002c306        0x2 
 .text.rand_hw_rng_get
                0x0002c308       0x50 mesh/core/libmesh_core_nrf52832_xxAA.a(rand.c.obj)
                0x0002c308                rand_hw_rng_get
 .text.rand_prng_seed
                0x0002c358       0x34 mesh/core/libmesh_core_nrf52832_xxAA.a(rand.c.obj)
                0x0002c358                rand_prng_seed
 .text.nrf_mesh_opt_set
                0x0002c38c       0x26 mesh/core/libmesh_core_nrf52832_xxAA.a(nrf_mesh_opt.c.obj)
                0x0002c38c                nrf_mesh_opt_set
 .text.sd_radio_session_open
                0x0002c3b2        0x4 mesh/core/libmesh_core_nrf52832_xxAA.a(timeslot.c.obj)
 .text.sd_radio_session_close
                0x0002c3b6        0x4 mesh/core/libmesh_core_nrf52832_xxAA.a(timeslot.c.obj)
 .text.sd_radio_request
                0x0002c3ba        0x4 mesh/core/libmesh_core_nrf52832_xxAA.a(timeslot.c.obj)
 *fill*         0x0002c3be        0x2 
 .text.end_timer_handler
                0x0002c3c0       0x24 mesh/core/libmesh_core_nrf52832_xxAA.a(timeslot.c.obj)
 .text.get_end_time.constprop.10
                0x0002c3e4       0x28 mesh/core/libmesh_core_nrf52832_xxAA.a(timeslot.c.obj)
 .text.handle_extend_end.constprop.3
                0x0002c40c       0xc0 mesh/core/libmesh_core_nrf52832_xxAA.a(timeslot.c.obj)
 .text.radio_signal_callback
                0x0002c4cc      0x14c mesh/core/libmesh_core_nrf52832_xxAA.a(timeslot.c.obj)
 .text.timeslot_sd_event_handler
                0x0002c618       0x44 mesh/core/libmesh_core_nrf52832_xxAA.a(timeslot.c.obj)
                0x0002c618                timeslot_sd_event_handler
 .text.timeslot_init
                0x0002c65c       0x48 mesh/core/libmesh_core_nrf52832_xxAA.a(timeslot.c.obj)
                0x0002c65c                timeslot_init
 .text.timeslot_start
                0x0002c6a4       0x20 mesh/core/libmesh_core_nrf52832_xxAA.a(timeslot.c.obj)
                0x0002c6a4                timeslot_start
 .text.timeslot_end_is_pending
                0x0002c6c4       0x24 mesh/core/libmesh_core_nrf52832_xxAA.a(timeslot.c.obj)
                0x0002c6c4                timeslot_end_is_pending
 .text.timeslot_start_time_get
                0x0002c6e8        0xc mesh/core/libmesh_core_nrf52832_xxAA.a(timeslot.c.obj)
                0x0002c6e8                timeslot_start_time_get
 .text.timeslot_remaining_time_get
                0x0002c6f4       0x20 mesh/core/libmesh_core_nrf52832_xxAA.a(timeslot.c.obj)
                0x0002c6f4                timeslot_remaining_time_get
 .text.timeslot_is_in_cb
                0x0002c714        0xc mesh/core/libmesh_core_nrf52832_xxAA.a(timeslot.c.obj)
                0x0002c714                timeslot_is_in_cb
 .text.timeslot_trigger
                0x0002c720       0x24 mesh/core/libmesh_core_nrf52832_xxAA.a(timeslot.c.obj)
                0x0002c720                timeslot_trigger
 .text.timeslot_stop
                0x0002c744       0x10 mesh/core/libmesh_core_nrf52832_xxAA.a(timeslot.c.obj)
                0x0002c744                timeslot_stop
 .text.timeslot_state_lock
                0x0002c754       0x28 mesh/core/libmesh_core_nrf52832_xxAA.a(timeslot.c.obj)
                0x0002c754                timeslot_state_lock
 .text.evt_push
                0x0002c77c       0x24 mesh/core/libmesh_core_nrf52832_xxAA.a(bearer_event.c.obj)
 .text.QDEC_IRQHandler
                0x0002c7a0       0xc4 mesh/core/libmesh_core_nrf52832_xxAA.a(bearer_event.c.obj)
                0x0002c7a0                QDEC_IRQHandler
 .text.bearer_event_init
                0x0002c864       0x38 mesh/core/libmesh_core_nrf52832_xxAA.a(bearer_event.c.obj)
                0x0002c864                bearer_event_init
 .text.bearer_event_generic_post
                0x0002c89c       0x30 mesh/core/libmesh_core_nrf52832_xxAA.a(bearer_event.c.obj)
                0x0002c89c                bearer_event_generic_post
 .text.bearer_event_timer_post
                0x0002c8cc       0x30 mesh/core/libmesh_core_nrf52832_xxAA.a(bearer_event.c.obj)
                0x0002c8cc                bearer_event_timer_post
 .text.bearer_event_critical_section_begin
                0x0002c8fc       0x44 mesh/core/libmesh_core_nrf52832_xxAA.a(bearer_event.c.obj)
                0x0002c8fc                bearer_event_critical_section_begin
 .text.bearer_event_critical_section_end
                0x0002c940       0x40 mesh/core/libmesh_core_nrf52832_xxAA.a(bearer_event.c.obj)
                0x0002c940                bearer_event_critical_section_end
 .text.bearer_event_flag_add
                0x0002c980       0x50 mesh/core/libmesh_core_nrf52832_xxAA.a(bearer_event.c.obj)
                0x0002c980                bearer_event_flag_add
 .text.bearer_event_flag_set
                0x0002c9d0       0x58 mesh/core/libmesh_core_nrf52832_xxAA.a(bearer_event.c.obj)
                0x0002c9d0                bearer_event_flag_set
 .text.bearer_event_sequential_add
                0x0002ca28       0x44 mesh/core/libmesh_core_nrf52832_xxAA.a(bearer_event.c.obj)
                0x0002ca28                bearer_event_sequential_add
 .text.bearer_event_sequential_post
                0x0002ca6c       0x64 mesh/core/libmesh_core_nrf52832_xxAA.a(bearer_event.c.obj)
                0x0002ca6c                bearer_event_sequential_post
 .text.bearer_event_sequential_pending
                0x0002cad0       0x1c mesh/core/libmesh_core_nrf52832_xxAA.a(bearer_event.c.obj)
                0x0002cad0                bearer_event_sequential_pending
 .text.enc_aes_encrypt
                0x0002caec        0x4 mesh/core/libmesh_core_nrf52832_xxAA.a(enc.c.obj)
                0x0002caec                enc_aes_encrypt
 .text.enc_aes_cmac
                0x0002caf0        0x4 mesh/core/libmesh_core_nrf52832_xxAA.a(enc.c.obj)
                0x0002caf0                enc_aes_cmac
 .text.enc_aes_ccm_encrypt
                0x0002caf4        0x4 mesh/core/libmesh_core_nrf52832_xxAA.a(enc.c.obj)
                0x0002caf4                enc_aes_ccm_encrypt
 .text.enc_aes_ccm_decrypt
                0x0002caf8        0x4 mesh/core/libmesh_core_nrf52832_xxAA.a(enc.c.obj)
                0x0002caf8                enc_aes_ccm_decrypt
 .text.enc_nonce_generate
                0x0002cafc       0xb8 mesh/core/libmesh_core_nrf52832_xxAA.a(enc.c.obj)
                0x0002cafc                enc_nonce_generate
 .text.enc_s1   0x0002cbb4       0x38 mesh/core/libmesh_core_nrf52832_xxAA.a(enc.c.obj)
                0x0002cbb4                enc_s1
 .text.enc_k1   0x0002cbec       0x48 mesh/core/libmesh_core_nrf52832_xxAA.a(enc.c.obj)
                0x0002cbec                enc_k1
 .text.enc_k2   0x0002cc34       0xd8 mesh/core/libmesh_core_nrf52832_xxAA.a(enc.c.obj)
                0x0002cc34                enc_k2
 .text.enc_k3   0x0002cd0c       0x68 mesh/core/libmesh_core_nrf52832_xxAA.a(enc.c.obj)
                0x0002cd0c                enc_k3
 .text.enc_k4   0x0002cd74       0x60 mesh/core/libmesh_core_nrf52832_xxAA.a(enc.c.obj)
                0x0002cd74                enc_k4
 .text.header_transfuscate
                0x0002cdd4       0x54 mesh/core/libmesh_core_nrf52832_xxAA.a(network.c.obj)
 .text.allocate_packet
                0x0002ce28      0x14c mesh/core/libmesh_core_nrf52832_xxAA.a(network.c.obj)
 .text.network_init
                0x0002cf74       0x2c mesh/core/libmesh_core_nrf52832_xxAA.a(network.c.obj)
                0x0002cf74                network_init
 .text.network_opt_set
                0x0002cfa0       0x54 mesh/core/libmesh_core_nrf52832_xxAA.a(network.c.obj)
                0x0002cfa0                network_opt_set
 .text.network_packet_alloc
                0x0002cff4       0x50 mesh/core/libmesh_core_nrf52832_xxAA.a(network.c.obj)
                0x0002cff4                network_packet_alloc
 .text.network_packet_send
                0x0002d044      0x140 mesh/core/libmesh_core_nrf52832_xxAA.a(network.c.obj)
                0x0002d044                network_packet_send
 .text.network_packet_in
                0x0002d184      0x450 mesh/core/libmesh_core_nrf52832_xxAA.a(network.c.obj)
                0x0002d184                network_packet_in
 .text.nrf_mesh_keygen_aid
                0x0002d5d4       0x12 mesh/core/libmesh_core_nrf52832_xxAA.a(nrf_mesh_keygen.c.obj)
                0x0002d5d4                nrf_mesh_keygen_aid
 .text.nrf_mesh_keygen_network_secmat
                0x0002d5e6       0x20 mesh/core/libmesh_core_nrf52832_xxAA.a(nrf_mesh_keygen.c.obj)
                0x0002d5e6                nrf_mesh_keygen_network_secmat
 *fill*         0x0002d606        0x2 
 .text.nrf_mesh_keygen_beacon_secmat
                0x0002d608       0x50 mesh/core/libmesh_core_nrf52832_xxAA.a(nrf_mesh_keygen.c.obj)
                0x0002d608                nrf_mesh_keygen_beacon_secmat
 .text.nrf_mesh_keygen_virtual_address
                0x0002d658       0x50 mesh/core/libmesh_core_nrf52832_xxAA.a(nrf_mesh_keygen.c.obj)
                0x0002d658                nrf_mesh_keygen_virtual_address
 .text.log_callback_rtt
                0x0002d6a8       0x2c mesh/core/libmesh_core_nrf52832_xxAA.a(log.c.obj)
                0x0002d6a8                log_callback_rtt
 .text.log_init
                0x0002d6d4       0x1c mesh/core/libmesh_core_nrf52832_xxAA.a(log.c.obj)
                0x0002d6d4                log_init
 .text.log_vprintf
                0x0002d6f0       0x18 mesh/core/libmesh_core_nrf52832_xxAA.a(log.c.obj)
                0x0002d6f0                log_vprintf
 .text.log_printf
                0x0002d708       0x18 mesh/core/libmesh_core_nrf52832_xxAA.a(log.c.obj)
                0x0002d708                log_printf
 .text.get_area_end
                0x0002d720        0xc mesh/core/libmesh_core_nrf52832_xxAA.a(flash_manager.c.obj)
 .text.handle_matches_filter
                0x0002d72c       0x26 mesh/core/libmesh_core_nrf52832_xxAA.a(flash_manager.c.obj)
 *fill*         0x0002d752        0x2 
 .text.get_packet_buffer
                0x0002d754       0x2c mesh/core/libmesh_core_nrf52832_xxAA.a(flash_manager.c.obj)
 .text.get_entry_action
                0x0002d780       0x30 mesh/core/libmesh_core_nrf52832_xxAA.a(flash_manager.c.obj)
 .text.flash_area_is_blank
                0x0002d7b0       0x48 mesh/core/libmesh_core_nrf52832_xxAA.a(flash_manager.c.obj)
 .text.flash    0x0002d7f8       0x1c mesh/core/libmesh_core_nrf52832_xxAA.a(flash_manager.c.obj)
 .text.free_packet_buffer
                0x0002d814       0x54 mesh/core/libmesh_core_nrf52832_xxAA.a(flash_manager.c.obj)
 .text.reserve_action_buffer
                0x0002d868       0x24 mesh/core/libmesh_core_nrf52832_xxAA.a(flash_manager.c.obj)
 .text.commit_action_buffer
                0x0002d88c       0x18 mesh/core/libmesh_core_nrf52832_xxAA.a(flash_manager.c.obj)
 .text.schedule_processing
                0x0002d8a4        0xc mesh/core/libmesh_core_nrf52832_xxAA.a(flash_manager.c.obj)
 .text.get_next_entry
                0x0002d8b0       0x40 mesh/core/libmesh_core_nrf52832_xxAA.a(flash_manager.c.obj)
 .text.get_last_entry.isra.1
                0x0002d8f0       0x30 mesh/core/libmesh_core_nrf52832_xxAA.a(flash_manager.c.obj)
 .text.process_action_queue
                0x0002d920      0x4e0 mesh/core/libmesh_core_nrf52832_xxAA.a(flash_manager.c.obj)
 .text.flash_op_ended_callback
                0x0002de00       0x24 mesh/core/libmesh_core_nrf52832_xxAA.a(flash_manager.c.obj)
 .text.flash_manager_init
                0x0002de24       0x68 mesh/core/libmesh_core_nrf52832_xxAA.a(flash_manager.c.obj)
                0x0002de24                flash_manager_init
 .text.flash_manager_remove
                0x0002de8c       0x24 mesh/core/libmesh_core_nrf52832_xxAA.a(flash_manager.c.obj)
                0x0002de8c                flash_manager_remove
 .text.flash_manager_entry_next_get
                0x0002deb0       0x6c mesh/core/libmesh_core_nrf52832_xxAA.a(flash_manager.c.obj)
                0x0002deb0                flash_manager_entry_next_get
 .text.flash_manager_entry_alloc
                0x0002df1c       0x78 mesh/core/libmesh_core_nrf52832_xxAA.a(flash_manager.c.obj)
                0x0002df1c                flash_manager_entry_alloc
 .text.flash_manager_entry_commit
                0x0002df94       0x12 mesh/core/libmesh_core_nrf52832_xxAA.a(flash_manager.c.obj)
                0x0002df94                flash_manager_entry_commit
 *fill*         0x0002dfa6        0x2 
 .text.flash_manager_entry_invalidate
                0x0002dfa8       0x64 mesh/core/libmesh_core_nrf52832_xxAA.a(flash_manager.c.obj)
                0x0002dfa8                flash_manager_entry_invalidate
 .text.flash_manager_add
                0x0002e00c      0x248 mesh/core/libmesh_core_nrf52832_xxAA.a(flash_manager.c.obj)
                0x0002e00c                flash_manager_add
 .text.flash_manager_mem_listener_register
                0x0002e254       0x44 mesh/core/libmesh_core_nrf52832_xxAA.a(flash_manager.c.obj)
                0x0002e254                flash_manager_mem_listener_register
 .text.flash_manager_is_stable
                0x0002e298       0x24 mesh/core/libmesh_core_nrf52832_xxAA.a(flash_manager.c.obj)
                0x0002e298                flash_manager_is_stable
 .text.flash_manager_on_defrag_end
                0x0002e2bc       0x58 mesh/core/libmesh_core_nrf52832_xxAA.a(flash_manager.c.obj)
                0x0002e2bc                flash_manager_on_defrag_end
 .text.flash_manager_recovery_page_get
                0x0002e314        0x4 mesh/core/libmesh_core_nrf52832_xxAA.a(flash_manager.c.obj)
                0x0002e314                flash_manager_recovery_page_get
 .text.utils_xor
                0x0002e318       0x14 mesh/core/libmesh_core_nrf52832_xxAA.a(ccm_soft.c.obj)
 .text.ccm_soft_authenticate_blocks
                0x0002e32c       0x68 mesh/core/libmesh_core_nrf52832_xxAA.a(ccm_soft.c.obj)
 .text.utils_reverse_memcpy.constprop.0
                0x0002e394        0xa mesh/core/libmesh_core_nrf52832_xxAA.a(ccm_soft.c.obj)
 .text.ccm_soft_authenticate
                0x0002e39e       0xa0 mesh/core/libmesh_core_nrf52832_xxAA.a(ccm_soft.c.obj)
 .text.ccm_soft_crypt
                0x0002e43e       0x6c mesh/core/libmesh_core_nrf52832_xxAA.a(ccm_soft.c.obj)
 .text.ccm_soft_encrypt
                0x0002e4aa       0x70 mesh/core/libmesh_core_nrf52832_xxAA.a(ccm_soft.c.obj)
                0x0002e4aa                ccm_soft_encrypt
 .text.ccm_soft_decrypt
                0x0002e51a       0xfe mesh/core/libmesh_core_nrf52832_xxAA.a(ccm_soft.c.obj)
                0x0002e51a                ccm_soft_decrypt
 .text.beacon_init
                0x0002e618       0x48 mesh/core/libmesh_core_nrf52832_xxAA.a(beacon.c.obj)
                0x0002e618                beacon_init
 .text.beacon_create
                0x0002e660       0x46 mesh/core/libmesh_core_nrf52832_xxAA.a(beacon.c.obj)
                0x0002e660                beacon_create
 *fill*         0x0002e6a6        0x2 
 .text.beacon_tx
                0x0002e6a8       0x3c mesh/core/libmesh_core_nrf52832_xxAA.a(beacon.c.obj)
                0x0002e6a8                beacon_tx
 .text.beacon_packet_in
                0x0002e6e4      0x160 mesh/core/libmesh_core_nrf52832_xxAA.a(beacon.c.obj)
                0x0002e6e4                beacon_packet_in
 .text.entry_get
                0x0002e844       0x88 mesh/core/libmesh_core_nrf52832_xxAA.a(flash_manager_internal.c.obj)
                0x0002e844                entry_get
 .text.adv_tx_complete_callback
                0x0002e8cc       0x50 mesh/core/libmesh_core_nrf52832_xxAA.a(core_tx.c.obj)
 .text.core_tx_init
                0x0002e91c       0x4c mesh/core/libmesh_core_nrf52832_xxAA.a(core_tx.c.obj)
                0x0002e91c                core_tx_init
 .text.core_tx_complete_cb_set
                0x0002e968        0xc mesh/core/libmesh_core_nrf52832_xxAA.a(core_tx.c.obj)
                0x0002e968                core_tx_complete_cb_set
 .text.core_tx_packet_alloc
                0x0002e974       0x98 mesh/core/libmesh_core_nrf52832_xxAA.a(core_tx.c.obj)
                0x0002e974                core_tx_packet_alloc
 .text.core_tx_packet_send
                0x0002ea0c       0x6c mesh/core/libmesh_core_nrf52832_xxAA.a(core_tx.c.obj)
                0x0002ea0c                core_tx_packet_send
 .text.core_tx_packet_discard
                0x0002ea78       0x6c mesh/core/libmesh_core_nrf52832_xxAA.a(core_tx.c.obj)
                0x0002ea78                core_tx_packet_discard
 .text.core_tx_adv_count_set
                0x0002eae4       0x38 mesh/core/libmesh_core_nrf52832_xxAA.a(core_tx.c.obj)
                0x0002eae4                core_tx_adv_count_set
 .text.core_tx_adv_interval_set
                0x0002eb1c       0x34 mesh/core/libmesh_core_nrf52832_xxAA.a(core_tx.c.obj)
                0x0002eb1c                core_tx_adv_interval_set
 .text.network_beacon_tx_cb
                0x0002eb50       0xe0 mesh/core/libmesh_core_nrf52832_xxAA.a(net_beacon.c.obj)
 .text.net_beacon_init
                0x0002ec30       0x60 mesh/core/libmesh_core_nrf52832_xxAA.a(net_beacon.c.obj)
                0x0002ec30                net_beacon_init
 .text.net_beacon_packet_in
                0x0002ec90       0xb8 mesh/core/libmesh_core_nrf52832_xxAA.a(net_beacon.c.obj)
                0x0002ec90                net_beacon_packet_in
 .text.set_gap_addr_type
                0x0002ed48       0x34 mesh/core/libmesh_core_nrf52832_xxAA.a(advertiser.c.obj)
 .text.tx_complete_event_callback
                0x0002ed7c       0x3c mesh/core/libmesh_core_nrf52832_xxAA.a(advertiser.c.obj)
 .text.broadcast_complete_cb
                0x0002edb8       0x64 mesh/core/libmesh_core_nrf52832_xxAA.a(advertiser.c.obj)
 .text.schedule_first_time
                0x0002ee1c       0x28 mesh/core/libmesh_core_nrf52832_xxAA.a(advertiser.c.obj)
 .text.timeout_event
                0x0002ee44      0x130 mesh/core/libmesh_core_nrf52832_xxAA.a(advertiser.c.obj)
 .text.advertiser_init
                0x0002ef74        0xc mesh/core/libmesh_core_nrf52832_xxAA.a(advertiser.c.obj)
                0x0002ef74                advertiser_init
 .text.advertiser_enable
                0x0002ef80       0x2a mesh/core/libmesh_core_nrf52832_xxAA.a(advertiser.c.obj)
                0x0002ef80                advertiser_enable
 .text.advertiser_disable
                0x0002efaa        0xa mesh/core/libmesh_core_nrf52832_xxAA.a(advertiser.c.obj)
                0x0002efaa                advertiser_disable
 .text.advertiser_packet_alloc
                0x0002efb4       0x94 mesh/core/libmesh_core_nrf52832_xxAA.a(advertiser.c.obj)
                0x0002efb4                advertiser_packet_alloc
 .text.advertiser_packet_send
                0x0002f048       0x78 mesh/core/libmesh_core_nrf52832_xxAA.a(advertiser.c.obj)
                0x0002f048                advertiser_packet_send
 .text.advertiser_packet_discard
                0x0002f0c0       0x2c mesh/core/libmesh_core_nrf52832_xxAA.a(advertiser.c.obj)
                0x0002f0c0                advertiser_packet_discard
 .text.advertiser_channels_set
                0x0002f0ec       0x84 mesh/core/libmesh_core_nrf52832_xxAA.a(advertiser.c.obj)
                0x0002f0ec                advertiser_channels_set
 .text.advertiser_interval_set
                0x0002f170       0x68 mesh/core/libmesh_core_nrf52832_xxAA.a(advertiser.c.obj)
                0x0002f170                advertiser_interval_set
 .text.advertiser_flush
                0x0002f1d8       0x1e mesh/core/libmesh_core_nrf52832_xxAA.a(advertiser.c.obj)
                0x0002f1d8                advertiser_flush
 *fill*         0x0002f1f6        0x2 
 .text.advertiser_address_default_get
                0x0002f1f8       0x38 mesh/core/libmesh_core_nrf52832_xxAA.a(advertiser.c.obj)
                0x0002f1f8                advertiser_address_default_get
 .text.advertiser_instance_init
                0x0002f230       0xbc mesh/core/libmesh_core_nrf52832_xxAA.a(advertiser.c.obj)
                0x0002f230                advertiser_instance_init
 .text.action_switch
                0x0002f2ec       0xc0 mesh/core/libmesh_core_nrf52832_xxAA.a(bearer_handler.c.obj)
 .text.bearer_handler_init
                0x0002f3ac       0x2c mesh/core/libmesh_core_nrf52832_xxAA.a(bearer_handler.c.obj)
                0x0002f3ac                bearer_handler_init
 .text.bearer_handler_start
                0x0002f3d8       0x1c mesh/core/libmesh_core_nrf52832_xxAA.a(bearer_handler.c.obj)
                0x0002f3d8                bearer_handler_start
 .text.bearer_handler_stop
                0x0002f3f4       0x20 mesh/core/libmesh_core_nrf52832_xxAA.a(bearer_handler.c.obj)
                0x0002f3f4                bearer_handler_stop
 .text.bearer_handler_action_enqueue
                0x0002f414       0x94 mesh/core/libmesh_core_nrf52832_xxAA.a(bearer_handler.c.obj)
                0x0002f414                bearer_handler_action_enqueue
 .text.bearer_handler_action_end
                0x0002f4a8       0x78 mesh/core/libmesh_core_nrf52832_xxAA.a(bearer_handler.c.obj)
                0x0002f4a8                bearer_handler_action_end
 .text.bearer_handler_radio_irq_handler
                0x0002f520       0x64 mesh/core/libmesh_core_nrf52832_xxAA.a(bearer_handler.c.obj)
                0x0002f520                bearer_handler_radio_irq_handler
 .text.bearer_handler_timer_irq_handler
                0x0002f584       0x30 mesh/core/libmesh_core_nrf52832_xxAA.a(bearer_handler.c.obj)
                0x0002f584                bearer_handler_timer_irq_handler
 .text.bearer_handler_on_ts_begin
                0x0002f5b4       0x44 mesh/core/libmesh_core_nrf52832_xxAA.a(bearer_handler.c.obj)
                0x0002f5b4                bearer_handler_on_ts_begin
 .text.bearer_handler_on_ts_end
                0x0002f5f8       0x48 mesh/core/libmesh_core_nrf52832_xxAA.a(bearer_handler.c.obj)
                0x0002f5f8                bearer_handler_on_ts_end
 .text.radio_irq_handler
                0x0002f640       0xb0 mesh/core/libmesh_core_nrf52832_xxAA.a(broadcast.c.obj)
 .text.broadcast_start
                0x0002f6f0       0x8c mesh/core/libmesh_core_nrf52832_xxAA.a(broadcast.c.obj)
 .text.broadcast_send
                0x0002f77c       0x80 mesh/core/libmesh_core_nrf52832_xxAA.a(broadcast.c.obj)
                0x0002f77c                broadcast_send
 .text.radio_config_reset
                0x0002f7fc       0x34 mesh/core/libmesh_core_nrf52832_xxAA.a(radio_config.c.obj)
                0x0002f7fc                radio_config_reset
 .text.radio_config_channel_set
                0x0002f830       0x34 mesh/core/libmesh_core_nrf52832_xxAA.a(radio_config.c.obj)
                0x0002f830                radio_config_channel_set
 .text.radio_config_config
                0x0002f864       0x80 mesh/core/libmesh_core_nrf52832_xxAA.a(radio_config.c.obj)
                0x0002f864                radio_config_config
 .text.radio_config_access_addr_set
                0x0002f8e4       0x68 mesh/core/libmesh_core_nrf52832_xxAA.a(radio_config.c.obj)
                0x0002f8e4                radio_config_access_addr_set
 .text.radio_trigger
                0x0002f94c       0x24 mesh/core/libmesh_core_nrf52832_xxAA.a(scanner.c.obj)
 .text.scan_window_end
                0x0002f970       0x10 mesh/core/libmesh_core_nrf52832_xxAA.a(scanner.c.obj)
 .text.scan_window_start
                0x0002f980       0x24 mesh/core/libmesh_core_nrf52832_xxAA.a(scanner.c.obj)
 .text.radio_configure
                0x0002f9a4       0x78 mesh/core/libmesh_core_nrf52832_xxAA.a(scanner.c.obj)
 .text.radio_set_packet
                0x0002fa1c       0x50 mesh/core/libmesh_core_nrf52832_xxAA.a(scanner.c.obj)
 .text.radio_start
                0x0002fa6c       0x4c mesh/core/libmesh_core_nrf52832_xxAA.a(scanner.c.obj)
 .text.radio_stop
                0x0002fab8       0x30 mesh/core/libmesh_core_nrf52832_xxAA.a(scanner.c.obj)
 .text.schedule_timers
                0x0002fae8       0x38 mesh/core/libmesh_core_nrf52832_xxAA.a(scanner.c.obj)
 .text.scanner_radio_start
                0x0002fb20       0x28 mesh/core/libmesh_core_nrf52832_xxAA.a(scanner.c.obj)
                0x0002fb20                scanner_radio_start
 .text.scanner_radio_stop
                0x0002fb48       0x10 mesh/core/libmesh_core_nrf52832_xxAA.a(scanner.c.obj)
                0x0002fb48                scanner_radio_stop
 .text.scanner_radio_irq_handler
                0x0002fb58      0x124 mesh/core/libmesh_core_nrf52832_xxAA.a(scanner.c.obj)
                0x0002fb58                scanner_radio_irq_handler
 .text.scanner_enable
                0x0002fc7c       0x30 mesh/core/libmesh_core_nrf52832_xxAA.a(scanner.c.obj)
                0x0002fc7c                scanner_enable
 .text.scanner_disable
                0x0002fcac       0x48 mesh/core/libmesh_core_nrf52832_xxAA.a(scanner.c.obj)
                0x0002fcac                scanner_disable
 .text.scanner_packet_release
                0x0002fcf4       0x38 mesh/core/libmesh_core_nrf52832_xxAA.a(scanner.c.obj)
                0x0002fcf4                scanner_packet_release
 .text.scanner_rx
                0x0002fd2c       0x30 mesh/core/libmesh_core_nrf52832_xxAA.a(scanner.c.obj)
                0x0002fd2c                scanner_rx
 .text.scanner_config_scan_time_set
                0x0002fd5c       0x68 mesh/core/libmesh_core_nrf52832_xxAA.a(scanner.c.obj)
                0x0002fd5c                scanner_config_scan_time_set
 .text.scanner_config_channels_set
                0x0002fdc4       0x64 mesh/core/libmesh_core_nrf52832_xxAA.a(scanner.c.obj)
                0x0002fdc4                scanner_config_channels_set
 .text.scanner_config_access_addresses_set
                0x0002fe28       0x44 mesh/core/libmesh_core_nrf52832_xxAA.a(scanner.c.obj)
                0x0002fe28                scanner_config_access_addresses_set
 .text.scanner_config_reset
                0x0002fe6c       0x50 mesh/core/libmesh_core_nrf52832_xxAA.a(scanner.c.obj)
                0x0002fe6c                scanner_config_reset
 .text.scanner_init
                0x0002febc       0x48 mesh/core/libmesh_core_nrf52832_xxAA.a(scanner.c.obj)
                0x0002febc                scanner_init
 .text.sd_ecb_block_encrypt
                0x0002ff04        0x4 mesh/core/libmesh_core_nrf52832_xxAA.a(aes.c.obj)
 .text.aes_encrypt
                0x0002ff08       0x32 mesh/core/libmesh_core_nrf52832_xxAA.a(aes.c.obj)
                0x0002ff08                aes_encrypt
 *fill*         0x0002ff3a        0x2 
 .text.msg_cache_init
                0x0002ff3c       0x24 mesh/core/libmesh_core_nrf52832_xxAA.a(msg_cache.c.obj)
                0x0002ff3c                msg_cache_init
 .text.msg_cache_entry_exists
                0x0002ff60       0x3c mesh/core/libmesh_core_nrf52832_xxAA.a(msg_cache.c.obj)
                0x0002ff60                msg_cache_entry_exists
 .text.msg_cache_entry_add
                0x0002ff9c       0x2c mesh/core/libmesh_core_nrf52832_xxAA.a(msg_cache.c.obj)
                0x0002ff9c                msg_cache_entry_add
 .text.block_ack_full
                0x0002ffc8       0x28 mesh/core/libmesh_core_nrf52832_xxAA.a(transport.c.obj)
 .text.seqauth_sequence_number_get
                0x0002fff0       0x12 mesh/core/libmesh_core_nrf52832_xxAA.a(transport.c.obj)
 *fill*         0x00030002        0x2 
 .text.sar_rx_session_mark_as_handled
                0x00030004       0x54 mesh/core/libmesh_core_nrf52832_xxAA.a(transport.c.obj)
 .text.sar_ctx_find
                0x00030058       0x3c mesh/core/libmesh_core_nrf52832_xxAA.a(transport.c.obj)
 .text.m_send_sar_cancel_event
                0x00030094       0x28 mesh/core/libmesh_core_nrf52832_xxAA.a(transport.c.obj)
 .text.tx_complete
                0x000300bc       0x34 mesh/core/libmesh_core_nrf52832_xxAA.a(transport.c.obj)
 .text.upper_trs_packet_alloc
                0x000300f0       0x2e mesh/core/libmesh_core_nrf52832_xxAA.a(transport.c.obj)
 *fill*         0x0003011e        0x2 
 .text.upper_trs_packet_encrypt
                0x00030120       0xbc mesh/core/libmesh_core_nrf52832_xxAA.a(transport.c.obj)
 .text.sar_ctx_free
                0x000301dc       0x3c mesh/core/libmesh_core_nrf52832_xxAA.a(transport.c.obj)
 .text.sar_ctx_tx_complete
                0x00030218       0x3c mesh/core/libmesh_core_nrf52832_xxAA.a(transport.c.obj)
 .text.sar_ctx_cancel
                0x00030254      0x108 mesh/core/libmesh_core_nrf52832_xxAA.a(transport.c.obj)
 .text.abort_timeout
                0x0003035c        0x8 mesh/core/libmesh_core_nrf52832_xxAA.a(transport.c.obj)
 .text.sar_ctx_alloc
                0x00030364       0xb8 mesh/core/libmesh_core_nrf52832_xxAA.a(transport.c.obj)
 .text.test_transport_decrypt
                0x0003041c       0x88 mesh/core/libmesh_core_nrf52832_xxAA.a(transport.c.obj)
 .text.upper_transport_access_packet_in
                0x000304a4      0x28c mesh/core/libmesh_core_nrf52832_xxAA.a(transport.c.obj)
 .text.trs_packet_header_build
                0x00030730       0xa6 mesh/core/libmesh_core_nrf52832_xxAA.a(transport.c.obj)
 *fill*         0x000307d6        0x2 
 .text.trs_sar_packet_out
                0x000307d8       0xbc mesh/core/libmesh_core_nrf52832_xxAA.a(transport.c.obj)
 .text.retry_timeout
                0x00030894       0x54 mesh/core/libmesh_core_nrf52832_xxAA.a(transport.c.obj)
 .text.sar_ack_send
                0x000308e8      0x128 mesh/core/libmesh_core_nrf52832_xxAA.a(transport.c.obj)
 .text.ack_timeout
                0x00030a10       0x34 mesh/core/libmesh_core_nrf52832_xxAA.a(transport.c.obj)
 .text.tx_retry_timer_reset
                0x00030a44       0x50 mesh/core/libmesh_core_nrf52832_xxAA.a(transport.c.obj)
 .text.upper_transport_packet_in
                0x00030a94      0x164 mesh/core/libmesh_core_nrf52832_xxAA.a(transport.c.obj)
 .text.transport_sar_process
                0x00030bf8       0x70 mesh/core/libmesh_core_nrf52832_xxAA.a(transport.c.obj)
 .text.transport_sar_mem_funcs_reset
                0x00030c68       0x28 mesh/core/libmesh_core_nrf52832_xxAA.a(transport.c.obj)
                0x00030c68                transport_sar_mem_funcs_reset
 .text.transport_init
                0x00030c90       0x78 mesh/core/libmesh_core_nrf52832_xxAA.a(transport.c.obj)
                0x00030c90                transport_init
 .text.transport_packet_in
                0x00030d08      0x4f4 mesh/core/libmesh_core_nrf52832_xxAA.a(transport.c.obj)
                0x00030d08                transport_packet_in
 .text.transport_tx
                0x000311fc      0x2ac mesh/core/libmesh_core_nrf52832_xxAA.a(transport.c.obj)
                0x000311fc                transport_tx
 .text.transport_opt_set
                0x000314a8       0xd0 mesh/core/libmesh_core_nrf52832_xxAA.a(transport.c.obj)
                0x000314a8                transport_opt_set
 .text.get_last_page
                0x00031578       0x14 mesh/core/libmesh_core_nrf52832_xxAA.a(flash_manager_defrag.c.obj)
 .text.defrag_on_end
                0x0003158c       0x1c mesh/core/libmesh_core_nrf52832_xxAA.a(flash_manager_defrag.c.obj)
 .text.execute_procedure_step
                0x000315a8       0xa0 mesh/core/libmesh_core_nrf52832_xxAA.a(flash_manager_defrag.c.obj)
 .text.get_next_entry
                0x00031648       0x40 mesh/core/libmesh_core_nrf52832_xxAA.a(flash_manager_defrag.c.obj)
 .text.get_next_data_entry
                0x00031688       0x20 mesh/core/libmesh_core_nrf52832_xxAA.a(flash_manager_defrag.c.obj)
 .text.on_flash_op_end
                0x000316a8       0x30 mesh/core/libmesh_core_nrf52832_xxAA.a(flash_manager_defrag.c.obj)
 .text.check_for_invalid_entries
                0x000316d8       0x38 mesh/core/libmesh_core_nrf52832_xxAA.a(flash_manager_defrag.c.obj)
 .text.erase_recovery_area
                0x00031710       0x34 mesh/core/libmesh_core_nrf52832_xxAA.a(flash_manager_defrag.c.obj)
 .text.flash.constprop.6
                0x00031744       0x24 mesh/core/libmesh_core_nrf52832_xxAA.a(flash_manager_defrag.c.obj)
 .text.seal_storage_page
                0x00031768       0x50 mesh/core/libmesh_core_nrf52832_xxAA.a(flash_manager_defrag.c.obj)
 .text.invalidate_duplicate_entries
                0x000317b8       0x9c mesh/core/libmesh_core_nrf52832_xxAA.a(flash_manager_defrag.c.obj)
 .text.copy_metadata
                0x00031854       0x3c mesh/core/libmesh_core_nrf52832_xxAA.a(flash_manager_defrag.c.obj)
 .text.write_defrag_start_pointer
                0x00031890       0x20 mesh/core/libmesh_core_nrf52832_xxAA.a(flash_manager_defrag.c.obj)
 .text.write_back
                0x000318b0       0x28 mesh/core/libmesh_core_nrf52832_xxAA.a(flash_manager_defrag.c.obj)
 .text.post_process
                0x000318d8       0x40 mesh/core/libmesh_core_nrf52832_xxAA.a(flash_manager_defrag.c.obj)
 .text.backup_entries
                0x00031918      0x118 mesh/core/libmesh_core_nrf52832_xxAA.a(flash_manager_defrag.c.obj)
 .text.erase_source
                0x00031a30       0x34 mesh/core/libmesh_core_nrf52832_xxAA.a(flash_manager_defrag.c.obj)
 .text.flash_manager_defrag_init
                0x00031a64       0x94 mesh/core/libmesh_core_nrf52832_xxAA.a(flash_manager_defrag.c.obj)
                0x00031a64                flash_manager_defrag_init
 .text.flash_manager_defrag_is_running
                0x00031af8       0x10 mesh/core/libmesh_core_nrf52832_xxAA.a(flash_manager_defrag.c.obj)
                0x00031af8                flash_manager_defrag_is_running
 .text.flash_manager_defrag
                0x00031b08       0xd8 mesh/core/libmesh_core_nrf52832_xxAA.a(flash_manager_defrag.c.obj)
                0x00031b08                flash_manager_defrag
 .text.flash_manager_defrag_recovery_page_get
                0x00031be0        0xc mesh/core/libmesh_core_nrf52832_xxAA.a(flash_manager_defrag.c.obj)
                0x00031be0                flash_manager_defrag_recovery_page_get
 .text.packet_mgr_init
                0x00031bec       0x4c mesh/core/libmesh_core_nrf52832_xxAA.a(packet_mgr.c.obj)
                0x00031bec                packet_mgr_init
 .text.send_end_events
                0x00031c38       0x80 mesh/core/libmesh_core_nrf52832_xxAA.a(mesh_flash.c.obj)
 .text.flash_op_schedule
                0x00031cb8       0x9c mesh/core/libmesh_core_nrf52832_xxAA.a(mesh_flash.c.obj)
 .text.flash_op_start
                0x00031d54      0x170 mesh/core/libmesh_core_nrf52832_xxAA.a(mesh_flash.c.obj)
 .text.mesh_flash_init
                0x00031ec4       0x88 mesh/core/libmesh_core_nrf52832_xxAA.a(mesh_flash.c.obj)
                0x00031ec4                mesh_flash_init
 .text.mesh_flash_user_callback_set
                0x00031f4c       0x2c mesh/core/libmesh_core_nrf52832_xxAA.a(mesh_flash.c.obj)
                0x00031f4c                mesh_flash_user_callback_set
 .text.mesh_flash_op_push
                0x00031f78      0x128 mesh/core/libmesh_core_nrf52832_xxAA.a(mesh_flash.c.obj)
                0x00031f78                mesh_flash_op_push
 .text.queue_init
                0x000320a0       0x20 mesh/core/libmesh_core_nrf52832_xxAA.a(queue.c.obj)
                0x000320a0                queue_init
 .text.queue_push
                0x000320c0       0x48 mesh/core/libmesh_core_nrf52832_xxAA.a(queue.c.obj)
                0x000320c0                queue_push
 .text.queue_pop
                0x00032108       0x34 mesh/core/libmesh_core_nrf52832_xxAA.a(queue.c.obj)
                0x00032108                queue_pop
 .text.queue_peek
                0x0003213c       0x1c mesh/core/libmesh_core_nrf52832_xxAA.a(queue.c.obj)
                0x0003213c                queue_peek
 .text.my_xor.constprop.1
                0x00032158       0x20 mesh/core/libmesh_core_nrf52832_xxAA.a(aes_cmac.c.obj)
 .text.utils_lshift.constprop.2
                0x00032178       0x24 mesh/core/libmesh_core_nrf52832_xxAA.a(aes_cmac.c.obj)
 .text.aes_cmac_subkey_generate
                0x0003219c       0x6c mesh/core/libmesh_core_nrf52832_xxAA.a(aes_cmac.c.obj)
                0x0003219c                aes_cmac_subkey_generate
 .text.aes_cmac
                0x00032208       0xbc mesh/core/libmesh_core_nrf52832_xxAA.a(aes_cmac.c.obj)
                0x00032208                aes_cmac
 .text.stage_get_available
                0x000322c4       0x24 mesh/core/libmesh_core_nrf52832_xxAA.a(msqueue.c.obj)
 .text.msq_get  0x000322e8       0x4c mesh/core/libmesh_core_nrf52832_xxAA.a(msqueue.c.obj)
                0x000322e8                msq_get
 .text.msq_move
                0x00032334       0x44 mesh/core/libmesh_core_nrf52832_xxAA.a(msqueue.c.obj)
                0x00032334                msq_move
 .text.msq_reset
                0x00032378       0x2c mesh/core/libmesh_core_nrf52832_xxAA.a(msqueue.c.obj)
                0x00032378                msq_reset
 .text.msq_init
                0x000323a4       0x78 mesh/core/libmesh_core_nrf52832_xxAA.a(msqueue.c.obj)
                0x000323a4                msq_init
 .text.msq_available
                0x0003241c       0x3c mesh/core/libmesh_core_nrf52832_xxAA.a(msqueue.c.obj)
                0x0003241c                msq_available
 .text.replay_cache_add
                0x00032458       0x60 mesh/core/libmesh_core_nrf52832_xxAA.a(replay_cache.c.obj)
                0x00032458                replay_cache_add
 .text.replay_cache_has_room
                0x000324b8       0x38 mesh/core/libmesh_core_nrf52832_xxAA.a(replay_cache.c.obj)
                0x000324b8                replay_cache_has_room
 .text.replay_cache_has_elem
                0x000324f0       0x38 mesh/core/libmesh_core_nrf52832_xxAA.a(replay_cache.c.obj)
                0x000324f0                replay_cache_has_elem
 .text.replay_cache_clear
                0x00032528       0x28 mesh/core/libmesh_core_nrf52832_xxAA.a(replay_cache.c.obj)
                0x00032528                replay_cache_clear
 .text.replay_cache_init
                0x00032550        0x4 mesh/core/libmesh_core_nrf52832_xxAA.a(replay_cache.c.obj)
                0x00032550                replay_cache_init
 .text.fen_filters_apply
                0x00032554       0x34 mesh/core/libmesh_core_nrf52832_xxAA.a(filter_engine.c.obj)
                0x00032554                fen_filters_apply
 .text.wait_for_ready
                0x00032588       0x10 mesh/core/libmesh_core_nrf52832_xxAA.a(nrf_flash.c.obj)
 .text.nrf_flash_erase
                0x00032598       0x50 mesh/core/libmesh_core_nrf52832_xxAA.a(nrf_flash.c.obj)
                0x00032598                nrf_flash_erase
 .text.nrf_flash_write
                0x000325e8       0x50 mesh/core/libmesh_core_nrf52832_xxAA.a(nrf_flash.c.obj)
                0x000325e8                nrf_flash_write
 .text.uECC_vli_mult
                0x00032638       0x64 external/micro-ecc/libuECC_nrf52832_xxAA.a(uECC.c.obj)
 .text.uECC_vli_clear
                0x0003269c       0x16 external/micro-ecc/libuECC_nrf52832_xxAA.a(uECC.c.obj)
 .text.uECC_vli_isZero
                0x000326b2       0x1e external/micro-ecc/libuECC_nrf52832_xxAA.a(uECC.c.obj)
 .text.uECC_vli_testBit
                0x000326d0       0x14 external/micro-ecc/libuECC_nrf52832_xxAA.a(uECC.c.obj)
 .text.uECC_vli_numBits
                0x000326e4       0x3a external/micro-ecc/libuECC_nrf52832_xxAA.a(uECC.c.obj)
 .text.uECC_vli_set
                0x0003271e       0x18 external/micro-ecc/libuECC_nrf52832_xxAA.a(uECC.c.obj)
 .text.uECC_vli_cmp_unsafe
                0x00032736       0x28 external/micro-ecc/libuECC_nrf52832_xxAA.a(uECC.c.obj)
 .text.uECC_vli_rshift1
                0x0003275e       0x1c external/micro-ecc/libuECC_nrf52832_xxAA.a(uECC.c.obj)
 .text.uECC_vli_modMult_fast
                0x0003277a       0x20 external/micro-ecc/libuECC_nrf52832_xxAA.a(uECC.c.obj)
 .text.uECC_vli_modSquare_fast
                0x0003279a        0x8 external/micro-ecc/libuECC_nrf52832_xxAA.a(uECC.c.obj)
 .text.apply_z  0x000327a2       0x3e external/micro-ecc/libuECC_nrf52832_xxAA.a(uECC.c.obj)
 .text.uECC_vli_nativeToBytes
                0x000327e0       0x28 external/micro-ecc/libuECC_nrf52832_xxAA.a(uECC.c.obj)
 .text.uECC_vli_bytesToNative
                0x00032808       0x40 external/micro-ecc/libuECC_nrf52832_xxAA.a(uECC.c.obj)
 .text.default_RNG
                0x00032848        0xc external/micro-ecc/libuECC_nrf52832_xxAA.a(uECC.c.obj)
 .text.uECC_vli_add.isra.0
                0x00032854       0x4a external/micro-ecc/libuECC_nrf52832_xxAA.a(uECC.c.obj)
 .text.regularize_k
                0x0003289e       0x50 external/micro-ecc/libuECC_nrf52832_xxAA.a(uECC.c.obj)
 .text.uECC_vli_sub.isra.1
                0x000328ee       0x4e external/micro-ecc/libuECC_nrf52832_xxAA.a(uECC.c.obj)
 .text.uECC_vli_cmp
                0x0003293c       0x30 external/micro-ecc/libuECC_nrf52832_xxAA.a(uECC.c.obj)
 .text.uECC_generate_random_int
                0x0003296c       0x78 external/micro-ecc/libuECC_nrf52832_xxAA.a(uECC.c.obj)
 .text.uECC_vli_modAdd
                0x000329e4       0x2e external/micro-ecc/libuECC_nrf52832_xxAA.a(uECC.c.obj)
 *fill*         0x00032a12        0x2 
 .text.vli_mmod_fast_secp256r1
                0x00032a14      0x194 external/micro-ecc/libuECC_nrf52832_xxAA.a(uECC.c.obj)
 .text.uECC_vli_modSub.isra.2
                0x00032ba8       0x1c external/micro-ecc/libuECC_nrf52832_xxAA.a(uECC.c.obj)
 .text.double_jacobian_default
                0x00032bc4      0x14a external/micro-ecc/libuECC_nrf52832_xxAA.a(uECC.c.obj)
 .text.x_side_default
                0x00032d0e       0x5a external/micro-ecc/libuECC_nrf52832_xxAA.a(uECC.c.obj)
 .text.XYcZ_add
                0x00032d68       0xbc external/micro-ecc/libuECC_nrf52832_xxAA.a(uECC.c.obj)
 .text.XYcZ_addC
                0x00032e24      0x10a external/micro-ecc/libuECC_nrf52832_xxAA.a(uECC.c.obj)
 .text.vli_modInv_update
                0x00032f2e       0x36 external/micro-ecc/libuECC_nrf52832_xxAA.a(uECC.c.obj)
 .text.uECC_vli_modInv
                0x00032f64      0x102 external/micro-ecc/libuECC_nrf52832_xxAA.a(uECC.c.obj)
 .text.EccPoint_mult
                0x00033066      0x19e external/micro-ecc/libuECC_nrf52832_xxAA.a(uECC.c.obj)
 .text.EccPoint_compute_public_key
                0x00033204       0x54 external/micro-ecc/libuECC_nrf52832_xxAA.a(uECC.c.obj)
 .text.uECC_secp256r1
                0x00033258        0x8 external/micro-ecc/libuECC_nrf52832_xxAA.a(uECC.c.obj)
                0x00033258                uECC_secp256r1
 .text.uECC_make_key
                0x00033260       0x7e external/micro-ecc/libuECC_nrf52832_xxAA.a(uECC.c.obj)
                0x00033260                uECC_make_key
 *fill*         0x000332de        0x2 
 .text.uECC_shared_secret
                0x000332e0       0xbc external/micro-ecc/libuECC_nrf52832_xxAA.a(uECC.c.obj)
                0x000332e0                uECC_shared_secret
 .text.uECC_valid_point
                0x0003339c       0x86 external/micro-ecc/libuECC_nrf52832_xxAA.a(uECC.c.obj)
                0x0003339c                uECC_valid_point
 .text.uECC_valid_public_key
                0x00033422       0x32 external/micro-ecc/libuECC_nrf52832_xxAA.a(uECC.c.obj)
                0x00033422                uECC_valid_public_key
 .text._GetAvailWriteSpace
                0x00033454       0x1c external/rtt/librtt_nrf52832_xxAA.a(SEGGER_RTT.c.obj)
 .text._WriteNoCheck
                0x00033470       0x3c external/rtt/librtt_nrf52832_xxAA.a(SEGGER_RTT.c.obj)
 .text._WriteBlocking
                0x000334ac       0x52 external/rtt/librtt_nrf52832_xxAA.a(SEGGER_RTT.c.obj)
 *fill*         0x000334fe        0x2 
 .text._DoInit  0x00033500       0x60 external/rtt/librtt_nrf52832_xxAA.a(SEGGER_RTT.c.obj)
 .text.SEGGER_RTT_WriteNoLock
                0x00033560       0x68 external/rtt/librtt_nrf52832_xxAA.a(SEGGER_RTT.c.obj)
                0x00033560                SEGGER_RTT_WriteNoLock
 .text.SEGGER_RTT_Write
                0x000335c8       0x34 external/rtt/librtt_nrf52832_xxAA.a(SEGGER_RTT.c.obj)
                0x000335c8                SEGGER_RTT_Write
 .text._StoreChar
                0x000335fc       0x3e external/rtt/librtt_nrf52832_xxAA.a(SEGGER_RTT_printf.c.obj)
 *fill*         0x0003363a        0x2 
 .text._PrintUnsigned
                0x0003363c       0xd0 external/rtt/librtt_nrf52832_xxAA.a(SEGGER_RTT_printf.c.obj)
 .text.SEGGER_RTT_vprintf
                0x0003370c      0x246 external/rtt/librtt_nrf52832_xxAA.a(SEGGER_RTT_printf.c.obj)
                0x0003370c                SEGGER_RTT_vprintf
 .text.SEGGER_RTT_printf
                0x00033952       0x1e external/rtt/librtt_nrf52832_xxAA.a(SEGGER_RTT_printf.c.obj)
                0x00033952                SEGGER_RTT_printf
 .text.exit     0x00033970       0x28 c:/a/gcc_arm/6/bin/../lib/gcc/arm-none-eabi/6.3.1/../../../../arm-none-eabi/lib/thumb/v7e-m/fpv4-sp/hard\libc_nano.a(lib_a-exit.o)
                0x00033970                exit
 .text.__libc_init_array
                0x00033998       0x48 c:/a/gcc_arm/6/bin/../lib/gcc/arm-none-eabi/6.3.1/../../../../arm-none-eabi/lib/thumb/v7e-m/fpv4-sp/hard\libc_nano.a(lib_a-init.o)
                0x00033998                __libc_init_array
 .text.malloc   0x000339e0       0x10 c:/a/gcc_arm/6/bin/../lib/gcc/arm-none-eabi/6.3.1/../../../../arm-none-eabi/lib/thumb/v7e-m/fpv4-sp/hard\libc_nano.a(lib_a-malloc.o)
                0x000339e0                malloc
 .text.free     0x000339f0       0x10 c:/a/gcc_arm/6/bin/../lib/gcc/arm-none-eabi/6.3.1/../../../../arm-none-eabi/lib/thumb/v7e-m/fpv4-sp/hard\libc_nano.a(lib_a-malloc.o)
                0x000339f0                free
 .text.memcmp   0x00033a00       0x1e c:/a/gcc_arm/6/bin/../lib/gcc/arm-none-eabi/6.3.1/../../../../arm-none-eabi/lib/thumb/v7e-m/fpv4-sp/hard\libc_nano.a(lib_a-memcmp.o)
                0x00033a00                memcmp
 .text.memcpy   0x00033a1e       0x16 c:/a/gcc_arm/6/bin/../lib/gcc/arm-none-eabi/6.3.1/../../../../arm-none-eabi/lib/thumb/v7e-m/fpv4-sp/hard\libc_nano.a(lib_a-memcpy-stub.o)
                0x00033a1e                memcpy
 .text.memset   0x00033a34       0x10 c:/a/gcc_arm/6/bin/../lib/gcc/arm-none-eabi/6.3.1/../../../../arm-none-eabi/lib/thumb/v7e-m/fpv4-sp/hard\libc_nano.a(lib_a-memset.o)
                0x00033a34                memset
 .text._free_r  0x00033a44       0x9c c:/a/gcc_arm/6/bin/../lib/gcc/arm-none-eabi/6.3.1/../../../../arm-none-eabi/lib/thumb/v7e-m/fpv4-sp/hard\libc_nano.a(lib_a-nano-freer.o)
                0x00033a44                _free_r
 .text._malloc_r
                0x00033ae0       0xbc c:/a/gcc_arm/6/bin/../lib/gcc/arm-none-eabi/6.3.1/../../../../arm-none-eabi/lib/thumb/v7e-m/fpv4-sp/hard\libc_nano.a(lib_a-nano-mallocr.o)
                0x00033ae0                _malloc_r
 .text._sbrk_r  0x00033b9c       0x20 c:/a/gcc_arm/6/bin/../lib/gcc/arm-none-eabi/6.3.1/../../../../arm-none-eabi/lib/thumb/v7e-m/fpv4-sp/hard\libc_nano.a(lib_a-sbrkr.o)
                0x00033b9c                _sbrk_r
 .text.strcpy   0x00033bbc       0x10 c:/a/gcc_arm/6/bin/../lib/gcc/arm-none-eabi/6.3.1/../../../../arm-none-eabi/lib/thumb/v7e-m/fpv4-sp/hard\libc_nano.a(lib_a-strcpy.o)
                0x00033bbc                strcpy
 .text          0x00033bcc       0x10 c:/a/gcc_arm/6/bin/../lib/gcc/arm-none-eabi/6.3.1/../../../../arm-none-eabi/lib/thumb/v7e-m/fpv4-sp/hard\libc_nano.a(lib_a-strlen.o)
                0x00033bcc                strlen
 .text.strrchr  0x00033bdc       0x26 c:/a/gcc_arm/6/bin/../lib/gcc/arm-none-eabi/6.3.1/../../../../arm-none-eabi/lib/thumb/v7e-m/fpv4-sp/hard\libc_nano.a(lib_a-strrchr.o)
                0x00033bdc                strrchr
 .text.__malloc_lock
                0x00033c02        0x2 c:/a/gcc_arm/6/bin/../lib/gcc/arm-none-eabi/6.3.1/../../../../arm-none-eabi/lib/thumb/v7e-m/fpv4-sp/hard\libc_nano.a(lib_a-mlock.o)
                0x00033c02                __malloc_lock
 .text.__malloc_unlock
                0x00033c04        0x2 c:/a/gcc_arm/6/bin/../lib/gcc/arm-none-eabi/6.3.1/../../../../arm-none-eabi/lib/thumb/v7e-m/fpv4-sp/hard\libc_nano.a(lib_a-mlock.o)
                0x00033c04                __malloc_unlock
 .text.strchr   0x00033c06       0x1c c:/a/gcc_arm/6/bin/../lib/gcc/arm-none-eabi/6.3.1/../../../../arm-none-eabi/lib/thumb/v7e-m/fpv4-sp/hard\libc_nano.a(lib_a-strchr.o)
                0x00033c06                strchr
 *fill*         0x00033c22        0x2 
 .text._sbrk    0x00033c24       0x1c c:/a/gcc_arm/6/bin/../lib/gcc/arm-none-eabi/6.3.1/../../../../arm-none-eabi/lib/thumb/v7e-m/fpv4-sp/hard\libnosys.a(sbrk.o)
                0x00033c24                _sbrk
 .text._exit    0x00033c40        0x4 c:/a/gcc_arm/6/bin/../lib/gcc/arm-none-eabi/6.3.1/../../../../arm-none-eabi/lib/thumb/v7e-m/fpv4-sp/hard\libnosys.a(_exit.o)
                0x00033c40                _exit
 *(.init)
 .init          0x00033c44        0x4 c:/a/gcc_arm/6/bin/../lib/gcc/arm-none-eabi/6.3.1/thumb/v7e-m/fpv4-sp/hard/crti.o
                0x00033c44                _init
 .init          0x00033c48        0x8 c:/a/gcc_arm/6/bin/../lib/gcc/arm-none-eabi/6.3.1/thumb/v7e-m/fpv4-sp/hard/crtn.o
 *(.fini)
 .fini          0x00033c50        0x4 c:/a/gcc_arm/6/bin/../lib/gcc/arm-none-eabi/6.3.1/thumb/v7e-m/fpv4-sp/hard/crti.o
                0x00033c50                _fini
 .fini          0x00033c54        0x8 c:/a/gcc_arm/6/bin/../lib/gcc/arm-none-eabi/6.3.1/thumb/v7e-m/fpv4-sp/hard/crtn.o
 *crtbegin.o(.ctors)
 *crtbegin?.o(.ctors)
 *(EXCLUDE_FILE(*crtend.o *crtend?.o) .ctors)
 *(SORT(.ctors.*))
 *(.ctors)
 *crtbegin.o(.dtors)
 *crtbegin?.o(.dtors)
 *(EXCLUDE_FILE(*crtend.o *crtend?.o) .dtors)
 *(SORT(.dtors.*))
 *(.dtors)
 *(.rodata*)
 .rodata        0x00033c5c        0x8 examples/serial/CMakeFiles/serial_nrf52832_xxAA_s132_5.0.0.dir/src/main.c.obj
 .rodata.main.str1.1
                0x00033c64       0xac examples/serial/CMakeFiles/serial_nrf52832_xxAA_s132_5.0.0.dir/src/main.c.obj
 .rodata.HardFault_Handler.str1.1
                0x00033d10        0xe examples/serial/CMakeFiles/serial_nrf52832_xxAA_s132_5.0.0.dir/__/nrf_mesh_sdk.c.obj
 .rodata.app_error_handler.str1.1
                0x00033d1e       0x1d examples/serial/CMakeFiles/serial_nrf52832_xxAA_s132_5.0.0.dir/__/nrf_mesh_sdk.c.obj
 .rodata.mesh_assert_handler.str1.1
                0x00033d3b       0x34 examples/serial/CMakeFiles/serial_nrf52832_xxAA_s132_5.0.0.dir/__/nrf_mesh_sdk.c.obj
 .rodata.mesh_core_setup.str1.1
                0x00033d6f       0x47 examples/serial/CMakeFiles/serial_nrf52832_xxAA_s132_5.0.0.dir/__/nrf_mesh_sdk.c.obj
 .rodata.mesh_softdevice_enable.str1.1
                0x00033db6       0x65 examples/serial/CMakeFiles/serial_nrf52832_xxAA_s132_5.0.0.dir/__/nrf_mesh_sdk.c.obj
 .rodata.softdevice_assert_handler.str1.1
                0x00033e1b       0x1d examples/serial/CMakeFiles/serial_nrf52832_xxAA_s132_5.0.0.dir/__/nrf_mesh_sdk.c.obj
 .rodata.m_prov_callbacks
                0x00033e38       0x10 examples/serial/CMakeFiles/serial_nrf52832_xxAA_s132_5.0.0.dir/__/__/mesh/prov/src/prov_provisioner.c.obj
 .rodata.m_prov_callbacks
                0x00033e48       0x10 examples/serial/CMakeFiles/serial_nrf52832_xxAA_s132_5.0.0.dir/__/__/mesh/prov/src/prov_provisionee.c.obj
 .rodata.prov_provisionee_cb_ack_received.str1.1
                0x00033e58       0x53 examples/serial/CMakeFiles/serial_nrf52832_xxAA_s132_5.0.0.dir/__/__/mesh/prov/src/prov_provisionee.c.obj
 .rodata.pdu_sizes.10819
                0x00033eab        0xa examples/serial/CMakeFiles/serial_nrf52832_xxAA_s132_5.0.0.dir/__/__/mesh/prov/src/provisioning.c.obj
 .rodata.prov_cb_pkt_in.str1.1
                0x00033eb5       0x34 examples/serial/CMakeFiles/serial_nrf52832_xxAA_s132_5.0.0.dir/__/__/mesh/prov/src/provisioning.c.obj
 .rodata.alphanumeric.10923
                0x00033ee9       0x25 examples/serial/CMakeFiles/serial_nrf52832_xxAA_s132_5.0.0.dir/__/__/mesh/prov/src/prov_utils.c.obj
 *fill*         0x00033f0e        0x2 
 .rodata.numeric_max.10917
                0x00033f10       0x24 examples/serial/CMakeFiles/serial_nrf52832_xxAA_s132_5.0.0.dir/__/__/mesh/prov/src/prov_utils.c.obj
 .rodata.prov_utils_authentication_values_derive.str1.1
                0x00033f34        0x5 examples/serial/CMakeFiles/serial_nrf52832_xxAA_s132_5.0.0.dir/__/__/mesh/prov/src/prov_utils.c.obj
 .rodata.prov_utils_derive_keys.str1.1
                0x00033f39        0xf examples/serial/CMakeFiles/serial_nrf52832_xxAA_s132_5.0.0.dir/__/__/mesh/prov/src/prov_utils.c.obj
 .rodata.add_active_bearer.str1.1
                0x00033f48       0x2c examples/serial/CMakeFiles/serial_nrf52832_xxAA_s132_5.0.0.dir/__/__/mesh/prov/src/prov_bearer_adv.c.obj
 .rodata.crctable.10681
                0x00033f74      0x100 examples/serial/CMakeFiles/serial_nrf52832_xxAA_s132_5.0.0.dir/__/__/mesh/prov/src/prov_bearer_adv.c.obj
 .rodata.interface.10910
                0x00034074       0x14 examples/serial/CMakeFiles/serial_nrf52832_xxAA_s132_5.0.0.dir/__/__/mesh/prov/src/prov_bearer_adv.c.obj
 .rodata.prov_bearer_adv_packet_in.str1.1
                0x00034088      0x26e examples/serial/CMakeFiles/serial_nrf52832_xxAA_s132_5.0.0.dir/__/__/mesh/prov/src/prov_bearer_adv.c.obj
 .rodata.tx_retry_cb.str1.1
                0x000342f6       0x37 examples/serial/CMakeFiles/serial_nrf52832_xxAA_s132_5.0.0.dir/__/__/mesh/prov/src/prov_bearer_adv.c.obj
 .rodata.mesh_evt_cb.str1.1
                0x0003432d       0x2f examples/serial/CMakeFiles/serial_nrf52832_xxAA_s132_5.0.0.dir/__/__/mesh/access/src/access.c.obj
 .rodata.packet_tx.str1.1
                0x0003435c       0x13 examples/serial/CMakeFiles/serial_nrf52832_xxAA_s132_5.0.0.dir/__/__/mesh/access/src/access.c.obj
 *fill*         0x0003436f        0x1 
 .rodata.m_flash_groups
                0x00034370       0xc0 examples/serial/CMakeFiles/serial_nrf52832_xxAA_s132_5.0.0.dir/__/__/mesh/access/src/device_state_manager.c.obj
 .rodata.m_cmd_handlers
                0x00034430       0xb0 examples/serial/CMakeFiles/serial_nrf52832_xxAA_s132_5.0.0.dir/__/__/mesh/serial/src/serial_handler_access.c.obj
 .rodata.m_cmd_handlers
                0x000344e0       0x48 examples/serial/CMakeFiles/serial_nrf52832_xxAA_s132_5.0.0.dir/__/__/mesh/serial/src/serial.c.obj
 .rodata.serial_process_cmd.str1.1
                0x00034528       0x17 examples/serial/CMakeFiles/serial_nrf52832_xxAA_s132_5.0.0.dir/__/__/mesh/serial/src/serial.c.obj
 .rodata.serial_start.str1.1
                0x0003453f       0x63 examples/serial/CMakeFiles/serial_nrf52832_xxAA_s132_5.0.0.dir/__/__/mesh/serial/src/serial.c.obj
 .rodata.serial_handler_prov_init.str1.1
                0x000345a2       0x4b examples/serial/CMakeFiles/serial_nrf52832_xxAA_s132_5.0.0.dir/__/__/mesh/serial/src/serial_handler_prov.c.obj
 .rodata.lengths.10940
                0x000345ed        0x7 examples/serial/CMakeFiles/serial_nrf52832_xxAA_s132_5.0.0.dir/__/__/mesh/serial/src/serial_handler_dfu.c.obj
 .rodata.m_handlers
                0x000345f4       0xe8 examples/serial/CMakeFiles/serial_nrf52832_xxAA_s132_5.0.0.dir/__/__/mesh/serial/src/serial_handler_mesh.c.obj
 .rodata.m_cmd_handlers
                0x000346dc       0x18 examples/serial/CMakeFiles/serial_nrf52832_xxAA_s132_5.0.0.dir/__/__/mesh/serial/src/serial_handler_models.c.obj
 .rodata.m_cmd_handlers
                0x000346f4       0x48 examples/serial/CMakeFiles/serial_nrf52832_xxAA_s132_5.0.0.dir/__/__/mesh/serial/src/serial_handler_device.c.obj
 .rodata.types_lookup.8947
                0x0003473c        0x4 mesh/core/libmesh_core_nrf52832_xxAA.a(nrf_mesh_utils.c.obj)
 .rodata.nrf_mesh_process.str1.1
                0x00034740       0x70 mesh/core/libmesh_core_nrf52832_xxAA.a(nrf_mesh.c.obj)
 .rodata.CSWTCH.9
                0x000347b0       0x10 mesh/core/libmesh_core_nrf52832_xxAA.a(hal.c.obj)
 .rodata        0x000347c0       0x15 mesh/core/libmesh_core_nrf52832_xxAA.a(enc.c.obj)
 .rodata.network_packet_in.str1.1
                0x000347d5       0x48 mesh/core/libmesh_core_nrf52832_xxAA.a(network.c.obj)
 .rodata.network_packet_send.str1.1
                0x0003481d       0x49 mesh/core/libmesh_core_nrf52832_xxAA.a(network.c.obj)
 .rodata        0x00034866        0x7 mesh/core/libmesh_core_nrf52832_xxAA.a(nrf_mesh_keygen.c.obj)
 .rodata.log_callback_rtt.str1.1
                0x0003486d       0x15 mesh/core/libmesh_core_nrf52832_xxAA.a(log.c.obj)
 .rodata.str1.1
                0x00034882       0x11 mesh/core/libmesh_core_nrf52832_xxAA.a(log.c.obj)
 *fill*         0x00034893        0x1 
 .rodata.INVALID_HEADER
                0x00034894        0x4 mesh/core/libmesh_core_nrf52832_xxAA.a(flash_manager.c.obj)
                0x00034894                INVALID_HEADER
 .rodata.PADDING_HEADER
                0x00034898        0x4 mesh/core/libmesh_core_nrf52832_xxAA.a(flash_manager.c.obj)
                0x00034898                PADDING_HEADER
 .rodata.SEAL_HEADER
                0x0003489c        0x4 mesh/core/libmesh_core_nrf52832_xxAA.a(flash_manager.c.obj)
                0x0003489c                SEAL_HEADER
 .rodata.process_action_queue.str1.1
                0x000348a0       0x21 mesh/core/libmesh_core_nrf52832_xxAA.a(flash_manager.c.obj)
                                 0x4f (size before relaxing)
 .rodata.beacon_packet_in.str1.1
                0x000348c1       0x51 mesh/core/libmesh_core_nrf52832_xxAA.a(beacon.c.obj)
                                 0x59 (size before relaxing)
 .rodata.net_beacon_init.str1.1
                0x00034912        0x5 mesh/core/libmesh_core_nrf52832_xxAA.a(net_beacon.c.obj)
 .rodata.radio_mode_to_us_per_byte.9323
                0x00034917        0x6 mesh/core/libmesh_core_nrf52832_xxAA.a(broadcast.c.obj)
 .rodata.channel_rf_offsets.8585
                0x0003491d       0x28 mesh/core/libmesh_core_nrf52832_xxAA.a(radio_config.c.obj)
 .rodata        0x00034945        0x3 mesh/core/libmesh_core_nrf52832_xxAA.a(scanner.c.obj)
 .rodata.sar_ctx_cancel.str1.1
                0x00034948       0x35 mesh/core/libmesh_core_nrf52832_xxAA.a(transport.c.obj)
                                 0x63 (size before relaxing)
 .rodata.test_transport_decrypt.str1.1
                0x0003497d       0x13 mesh/core/libmesh_core_nrf52832_xxAA.a(transport.c.obj)
 .rodata.transport_packet_in.str1.1
                0x00034990       0x24 mesh/core/libmesh_core_nrf52832_xxAA.a(transport.c.obj)
 .rodata.transport_tx.str1.1
                0x000349b4       0x2c mesh/core/libmesh_core_nrf52832_xxAA.a(transport.c.obj)
                                 0x34 (size before relaxing)
 .rodata.upper_transport_access_packet_in.str1.1
                0x000349e0       0x29 mesh/core/libmesh_core_nrf52832_xxAA.a(transport.c.obj)
 .rodata.upper_transport_packet_in.str1.1
                0x00034a09       0x2e mesh/core/libmesh_core_nrf52832_xxAA.a(transport.c.obj)
 .rodata.flash_manager_defrag.str1.1
                0x00034a37       0x28 mesh/core/libmesh_core_nrf52832_xxAA.a(flash_manager_defrag.c.obj)
                                 0x56 (size before relaxing)
 *fill*         0x00034a5f        0x1 
 .rodata.m_procedure_steps
                0x00034a60       0x28 mesh/core/libmesh_core_nrf52832_xxAA.a(flash_manager_defrag.c.obj)
 .rodata.m_all_operations
                0x00034a88       0x10 mesh/core/libmesh_core_nrf52832_xxAA.a(mesh_flash.c.obj)
 .rodata.Rb.7341
                0x00034a98       0x10 mesh/core/libmesh_core_nrf52832_xxAA.a(aes_cmac.c.obj)
 .rodata.curve_secp256r1
                0x00034aa8       0xb0 external/micro-ecc/libuECC_nrf52832_xxAA.a(uECC.c.obj)
 .rodata._DoInit.str1.1
                0x00034b58       0x14 external/rtt/librtt_nrf52832_xxAA.a(SEGGER_RTT.c.obj)
 .rodata._aV2C.5497
                0x00034b6c       0x10 external/rtt/librtt_nrf52832_xxAA.a(SEGGER_RTT_printf.c.obj)
 .rodata._global_impure_ptr
                0x00034b7c        0x4 c:/a/gcc_arm/6/bin/../lib/gcc/arm-none-eabi/6.3.1/../../../../arm-none-eabi/lib/thumb/v7e-m/fpv4-sp/hard\libc_nano.a(lib_a-impure.o)
                0x00034b7c                _global_impure_ptr
 *(.eh_frame*)
 .eh_frame      0x00034b80        0x0 c:/a/gcc_arm/6/bin/../lib/gcc/arm-none-eabi/6.3.1/thumb/v7e-m/fpv4-sp/hard/crtbegin.o
 .eh_frame      0x00034b80        0x4 c:/a/gcc_arm/6/bin/../lib/gcc/arm-none-eabi/6.3.1/thumb/v7e-m/fpv4-sp/hard/crtend.o

.glue_7         0x00034b84        0x0
 .glue_7        0x00034b84        0x0 linker stubs

.glue_7t        0x00034b84        0x0
 .glue_7t       0x00034b84        0x0 linker stubs

.vfp11_veneer   0x00034b84        0x0
 .vfp11_veneer  0x00034b84        0x0 linker stubs

.v4_bx          0x00034b84        0x0
 .v4_bx         0x00034b84        0x0 linker stubs

.iplt           0x00034b84        0x0
 .iplt          0x00034b84        0x0 c:/a/gcc_arm/6/bin/../lib/gcc/arm-none-eabi/6.3.1/thumb/v7e-m/fpv4-sp/hard/crtbegin.o

.ARM.extab
 *(.ARM.extab* .gnu.linkonce.armextab.*)
                0x00034b84                __exidx_start = .

.ARM.exidx      0x00034b84        0x8
 *(.ARM.exidx* .gnu.linkonce.armexidx.*)
 .ARM.exidx     0x00034b84        0x8 c:/a/gcc_arm/6/bin/../lib/gcc/arm-none-eabi/6.3.1/../../../../arm-none-eabi/lib/thumb/v7e-m/fpv4-sp/hard/crt0.o
                0x00034b8c                __exidx_end = .
                0x00034b8c                __etext = .

.rel.dyn        0x00034b8c        0x0
 .rel.iplt      0x00034b8c        0x0 c:/a/gcc_arm/6/bin/../lib/gcc/arm-none-eabi/6.3.1/thumb/v7e-m/fpv4-sp/hard/crtbegin.o

.data           0x200031b0      0x124 load address 0x00034b8c
                0x200031b0                __data_start__ = .
 *(vtable)
 *(.data*)
 .data.m_unprov_report
                0x200031b0        0x1 examples/serial/CMakeFiles/serial_nrf52832_xxAA_s132_5.0.0.dir/__/__/mesh/prov/src/prov_beacon.c.obj
 *fill*         0x200031b1        0x3 
 .data.m_async_process_flag
                0x200031b4        0x4 examples/serial/CMakeFiles/serial_nrf52832_xxAA_s132_5.0.0.dir/__/__/mesh/prov/src/prov_bearer_adv.c.obj
 .data.flash_add_mem_available_struct.10375
                0x200031b8       0x10 examples/serial/CMakeFiles/serial_nrf52832_xxAA_s132_5.0.0.dir/__/__/mesh/access/src/access.c.obj
 .data.flash_clear_mem_available_struct.10464
                0x200031c8       0x10 examples/serial/CMakeFiles/serial_nrf52832_xxAA_s132_5.0.0.dir/__/__/mesh/access/src/access.c.obj
 .data.flash_store_mem_available_struct.10488
                0x200031d8       0x10 examples/serial/CMakeFiles/serial_nrf52832_xxAA_s132_5.0.0.dir/__/__/mesh/access/src/access.c.obj
 .data.m_default_ttl
                0x200031e8        0x1 examples/serial/CMakeFiles/serial_nrf52832_xxAA_s132_5.0.0.dir/__/__/mesh/access/src/access.c.obj
 *fill*         0x200031e9        0x3 
 .data.mem_listener.10627
                0x200031ec       0x10 examples/serial/CMakeFiles/serial_nrf52832_xxAA_s132_5.0.0.dir/__/__/mesh/access/src/device_state_manager.c.obj
 .data.mem_listener.10653
                0x200031fc       0x10 examples/serial/CMakeFiles/serial_nrf52832_xxAA_s132_5.0.0.dir/__/__/mesh/access/src/device_state_manager.c.obj
 .data.SystemCoreClock
                0x2000320c        0x4 examples/serial/CMakeFiles/serial_nrf52832_xxAA_s132_5.0.0.dir/__/__/external/nRF5_SDK_14.0.0_3bcc1f7/components/toolchain/system_nrf52.c.obj
                0x2000320c                SystemCoreClock
 .data.mem_listener.9847
                0x20003210       0x10 mesh/core/libmesh_core_nrf52832_xxAA.a(net_state.c.obj)
 .data.mem_listener.9852
                0x20003220       0x10 mesh/core/libmesh_core_nrf52832_xxAA.a(net_state.c.obj)
 .data.mem_listener.9866
                0x20003230       0x10 mesh/core/libmesh_core_nrf52832_xxAA.a(net_state.c.obj)
 .data.mem_listener.9883
                0x20003240       0x10 mesh/core/libmesh_core_nrf52832_xxAA.a(net_state.c.obj)
 .data.g_log_debug_level
                0x20003250        0x4 mesh/core/libmesh_core_nrf52832_xxAA.a(log.c.obj)
                0x20003250                g_log_debug_level
 .data.g_log_debug_msk
                0x20003254        0x4 mesh/core/libmesh_core_nrf52832_xxAA.a(log.c.obj)
                0x20003254                g_log_debug_msk
 .data.g_log_hex_digits
                0x20003258        0x4 mesh/core/libmesh_core_nrf52832_xxAA.a(log.c.obj)
                0x20003258                g_log_hex_digits
 .data.m_log_callback
                0x2000325c        0x4 mesh/core/libmesh_core_nrf52832_xxAA.a(log.c.obj)
                0x2000325c                m_log_callback
 .data.g_rng_function
                0x20003260        0x4 external/micro-ecc/libuECC_nrf52832_xxAA.a(uECC.c.obj)
 .data._impure_ptr
                0x20003264        0x4 c:/a/gcc_arm/6/bin/../lib/gcc/arm-none-eabi/6.3.1/../../../../arm-none-eabi/lib/thumb/v7e-m/fpv4-sp/hard\libc_nano.a(lib_a-impure.o)
                0x20003264                _impure_ptr
 .data.impure_data
                0x20003268       0x60 c:/a/gcc_arm/6/bin/../lib/gcc/arm-none-eabi/6.3.1/../../../../arm-none-eabi/lib/thumb/v7e-m/fpv4-sp/hard\libc_nano.a(lib_a-impure.o)
                0x200032c8                . = ALIGN (0x4)
                0x200032c8                PROVIDE (__preinit_array_start, .)
 *(.preinit_array)
                0x200032c8                PROVIDE (__preinit_array_end, .)
                0x200032c8                . = ALIGN (0x4)
                0x200032c8                PROVIDE (__init_array_start, .)
 *(SORT(.init_array.*))
 *(.init_array)
 .init_array    0x200032c8        0x4 c:/a/gcc_arm/6/bin/../lib/gcc/arm-none-eabi/6.3.1/thumb/v7e-m/fpv4-sp/hard/crtbegin.o
                0x200032cc                PROVIDE (__init_array_end, .)
                0x200032cc                . = ALIGN (0x4)
                [!provide]                PROVIDE (__fini_array_start, .)
 *(SORT(.fini_array.*))
 *(.fini_array)
 .fini_array    0x200032cc        0x4 c:/a/gcc_arm/6/bin/../lib/gcc/arm-none-eabi/6.3.1/thumb/v7e-m/fpv4-sp/hard/crtbegin.o
                [!provide]                PROVIDE (__fini_array_end, .)
 *(.jcr*)
 .jcr           0x200032d0        0x0 c:/a/gcc_arm/6/bin/../lib/gcc/arm-none-eabi/6.3.1/thumb/v7e-m/fpv4-sp/hard/crtbegin.o
 .jcr           0x200032d0        0x4 c:/a/gcc_arm/6/bin/../lib/gcc/arm-none-eabi/6.3.1/thumb/v7e-m/fpv4-sp/hard/crtend.o
                0x200032d4                . = ALIGN (0x4)
                0x200032d4                __data_end__ = .

.igot.plt       0x200032d4        0x0 load address 0x00034cb0
 .igot.plt      0x200032d4        0x0 c:/a/gcc_arm/6/bin/../lib/gcc/arm-none-eabi/6.3.1/thumb/v7e-m/fpv4-sp/hard/crtbegin.o

.bss            0x200032d8     0x3698 load address 0x00034cb8
                0x200032d8                . = ALIGN (0x4)
                0x200032d8                __bss_start__ = .
 *(.bss*)
 .bss           0x200032d8       0x1c c:/a/gcc_arm/6/bin/../lib/gcc/arm-none-eabi/6.3.1/thumb/v7e-m/fpv4-sp/hard/crtbegin.o
 .bss.m_ble_evt_buffer
                0x200032f4       0x4f examples/serial/CMakeFiles/serial_nrf52832_xxAA_s132_5.0.0.dir/__/nrf_mesh_sdk.c.obj
 .bss.m_offload_ecdh
                0x20003343        0x1 examples/serial/CMakeFiles/serial_nrf52832_xxAA_s132_5.0.0.dir/__/__/mesh/prov/src/prov_utils.c.obj
 .bss.mp_bearer_head
                0x20003344        0x4 examples/serial/CMakeFiles/serial_nrf52832_xxAA_s132_5.0.0.dir/__/__/mesh/prov/src/prov_bearer_adv.c.obj
 .bss.m_publish_timer
                0x20003348       0x18 examples/serial/CMakeFiles/serial_nrf52832_xxAA_s132_5.0.0.dir/__/__/mesh/access/src/access_publish.c.obj
 .bss.m_publish_timer_counter
                0x20003360        0x4 examples/serial/CMakeFiles/serial_nrf52832_xxAA_s132_5.0.0.dir/__/__/mesh/access/src/access_publish.c.obj
 .bss.m_publish_timer_running
                0x20003364        0x1 examples/serial/CMakeFiles/serial_nrf52832_xxAA_s132_5.0.0.dir/__/__/mesh/access/src/access_publish.c.obj
 .bss.m_timer_resolution
                0x20003365        0x1 examples/serial/CMakeFiles/serial_nrf52832_xxAA_s132_5.0.0.dir/__/__/mesh/access/src/access_publish.c.obj
 *fill*         0x20003366        0x2 
 .bss.mp_publication_list
                0x20003368        0x4 examples/serial/CMakeFiles/serial_nrf52832_xxAA_s132_5.0.0.dir/__/__/mesh/access/src/access_publish.c.obj
 .bss.m_element_pool
                0x2000336c        0xc examples/serial/CMakeFiles/serial_nrf52832_xxAA_s132_5.0.0.dir/__/__/mesh/access/src/access.c.obj
 .bss.m_evt_handler
                0x20003378        0x8 examples/serial/CMakeFiles/serial_nrf52832_xxAA_s132_5.0.0.dir/__/__/mesh/access/src/access.c.obj
 .bss.m_flash_manager
                0x20003380       0x24 examples/serial/CMakeFiles/serial_nrf52832_xxAA_s132_5.0.0.dir/__/__/mesh/access/src/access.c.obj
 .bss.m_flash_not_ready
                0x200033a4        0x1 examples/serial/CMakeFiles/serial_nrf52832_xxAA_s132_5.0.0.dir/__/__/mesh/access/src/access.c.obj
 .bss.m_metadata_stored
                0x200033a5        0x1 examples/serial/CMakeFiles/serial_nrf52832_xxAA_s132_5.0.0.dir/__/__/mesh/access/src/access.c.obj
 *fill*         0x200033a6        0x2 
 .bss.m_model_pool
                0x200033a8       0x34 examples/serial/CMakeFiles/serial_nrf52832_xxAA_s132_5.0.0.dir/__/__/mesh/access/src/access.c.obj
 .bss.m_subscription_list_pool
                0x200033dc        0x8 examples/serial/CMakeFiles/serial_nrf52832_xxAA_s132_5.0.0.dir/__/__/mesh/access/src/access.c.obj
 .bss.m_reliable
                0x200033e4       0x44 examples/serial/CMakeFiles/serial_nrf52832_xxAA_s132_5.0.0.dir/__/__/mesh/access/src/access_reliable.c.obj
 .bss.m_addr_nonvirtual_allocated
                0x20003428        0x4 examples/serial/CMakeFiles/serial_nrf52832_xxAA_s132_5.0.0.dir/__/__/mesh/access/src/device_state_manager.c.obj
 .bss.m_addr_nonvirtual_needs_flashing
                0x2000342c        0x4 examples/serial/CMakeFiles/serial_nrf52832_xxAA_s132_5.0.0.dir/__/__/mesh/access/src/device_state_manager.c.obj
 .bss.m_addr_unicast_allocated
                0x20003430        0x4 examples/serial/CMakeFiles/serial_nrf52832_xxAA_s132_5.0.0.dir/__/__/mesh/access/src/device_state_manager.c.obj
 .bss.m_addr_unicast_needs_flashing
                0x20003434        0x4 examples/serial/CMakeFiles/serial_nrf52832_xxAA_s132_5.0.0.dir/__/__/mesh/access/src/device_state_manager.c.obj
 .bss.m_addr_virtual_allocated
                0x20003438        0x4 examples/serial/CMakeFiles/serial_nrf52832_xxAA_s132_5.0.0.dir/__/__/mesh/access/src/device_state_manager.c.obj
 .bss.m_addr_virtual_needs_flashing
                0x2000343c        0x4 examples/serial/CMakeFiles/serial_nrf52832_xxAA_s132_5.0.0.dir/__/__/mesh/access/src/device_state_manager.c.obj
 .bss.m_addresses
                0x20003440       0x40 examples/serial/CMakeFiles/serial_nrf52832_xxAA_s132_5.0.0.dir/__/__/mesh/access/src/device_state_manager.c.obj
 .bss.m_appkey_allocated
                0x20003480        0x4 examples/serial/CMakeFiles/serial_nrf52832_xxAA_s132_5.0.0.dir/__/__/mesh/access/src/device_state_manager.c.obj
 .bss.m_appkey_needs_flashing
                0x20003484        0x4 examples/serial/CMakeFiles/serial_nrf52832_xxAA_s132_5.0.0.dir/__/__/mesh/access/src/device_state_manager.c.obj
 .bss.m_appkeys
                0x20003488       0xb0 examples/serial/CMakeFiles/serial_nrf52832_xxAA_s132_5.0.0.dir/__/__/mesh/access/src/device_state_manager.c.obj
 .bss.m_devkey_allocated
                0x20003538        0x4 examples/serial/CMakeFiles/serial_nrf52832_xxAA_s132_5.0.0.dir/__/__/mesh/access/src/device_state_manager.c.obj
 .bss.m_devkey_needs_flashing
                0x2000353c        0x4 examples/serial/CMakeFiles/serial_nrf52832_xxAA_s132_5.0.0.dir/__/__/mesh/access/src/device_state_manager.c.obj
 .bss.m_devkeys
                0x20003540       0x42 examples/serial/CMakeFiles/serial_nrf52832_xxAA_s132_5.0.0.dir/__/__/mesh/access/src/device_state_manager.c.obj
 .bss.m_flash_is_available
                0x20003582        0x1 examples/serial/CMakeFiles/serial_nrf52832_xxAA_s132_5.0.0.dir/__/__/mesh/access/src/device_state_manager.c.obj
 *fill*         0x20003583        0x1 
 .bss.m_flash_manager
                0x20003584       0x24 examples/serial/CMakeFiles/serial_nrf52832_xxAA_s132_5.0.0.dir/__/__/mesh/access/src/device_state_manager.c.obj
 .bss.m_flash_mem_listener_update_all
                0x200035a8       0x10 examples/serial/CMakeFiles/serial_nrf52832_xxAA_s132_5.0.0.dir/__/__/mesh/access/src/device_state_manager.c.obj
 .bss.m_has_primary_subnet
                0x200035b8        0x1 examples/serial/CMakeFiles/serial_nrf52832_xxAA_s132_5.0.0.dir/__/__/mesh/access/src/device_state_manager.c.obj
 *fill*         0x200035b9        0x1 
 .bss.m_local_unicast_addr
                0x200035ba        0x4 examples/serial/CMakeFiles/serial_nrf52832_xxAA_s132_5.0.0.dir/__/__/mesh/access/src/device_state_manager.c.obj
 *fill*         0x200035be        0x2 
 .bss.m_subnet_allocated
                0x200035c0        0x4 examples/serial/CMakeFiles/serial_nrf52832_xxAA_s132_5.0.0.dir/__/__/mesh/access/src/device_state_manager.c.obj
 .bss.m_subnet_needs_flashing
                0x200035c4        0x4 examples/serial/CMakeFiles/serial_nrf52832_xxAA_s132_5.0.0.dir/__/__/mesh/access/src/device_state_manager.c.obj
 .bss.m_subnets
                0x200035c8      0x170 examples/serial/CMakeFiles/serial_nrf52832_xxAA_s132_5.0.0.dir/__/__/mesh/access/src/device_state_manager.c.obj
 .bss.m_virtual_addresses
                0x20003738       0xa0 examples/serial/CMakeFiles/serial_nrf52832_xxAA_s132_5.0.0.dir/__/__/mesh/access/src/device_state_manager.c.obj
 .bss.m_can_receive
                0x200037d8        0x1 examples/serial/CMakeFiles/serial_nrf52832_xxAA_s132_5.0.0.dir/__/__/mesh/serial/src/serial_uart.c.obj
 *fill*         0x200037d9        0x3 
 .bss.m_char_rx_cb
                0x200037dc        0x4 examples/serial/CMakeFiles/serial_nrf52832_xxAA_s132_5.0.0.dir/__/__/mesh/serial/src/serial_uart.c.obj
 .bss.m_char_tx_cb
                0x200037e0        0x4 examples/serial/CMakeFiles/serial_nrf52832_xxAA_s132_5.0.0.dir/__/__/mesh/serial/src/serial_uart.c.obj
 .bss.m_cur_tx_packet_index
                0x200037e4        0x2 examples/serial/CMakeFiles/serial_nrf52832_xxAA_s132_5.0.0.dir/__/__/mesh/serial/src/serial_bearer.c.obj
 *fill*         0x200037e6        0x2 
 .bss.m_event_flag
                0x200037e8        0x4 examples/serial/CMakeFiles/serial_nrf52832_xxAA_s132_5.0.0.dir/__/__/mesh/serial/src/serial_bearer.c.obj
 .bss.m_rx_buffer
                0x200037ec       0xd0 examples/serial/CMakeFiles/serial_nrf52832_xxAA_s132_5.0.0.dir/__/__/mesh/serial/src/serial_bearer.c.obj
 .bss.m_rx_packet_buf
                0x200038bc        0xc examples/serial/CMakeFiles/serial_nrf52832_xxAA_s132_5.0.0.dir/__/__/mesh/serial/src/serial_bearer.c.obj
 .bss.m_serial_state
                0x200038c8        0x1 examples/serial/CMakeFiles/serial_nrf52832_xxAA_s132_5.0.0.dir/__/__/mesh/serial/src/serial_bearer.c.obj
 *fill*         0x200038c9        0x1 
 .bss.m_stored_pac_len
                0x200038ca        0x2 examples/serial/CMakeFiles/serial_nrf52832_xxAA_s132_5.0.0.dir/__/__/mesh/serial/src/serial_bearer.c.obj
 .bss.m_tx_buffer
                0x200038cc       0xd0 examples/serial/CMakeFiles/serial_nrf52832_xxAA_s132_5.0.0.dir/__/__/mesh/serial/src/serial_bearer.c.obj
 .bss.m_tx_packet_buf
                0x2000399c        0xc examples/serial/CMakeFiles/serial_nrf52832_xxAA_s132_5.0.0.dir/__/__/mesh/serial/src/serial_bearer.c.obj
 .bss.mp_current_rx_packet
                0x200039a8        0x4 examples/serial/CMakeFiles/serial_nrf52832_xxAA_s132_5.0.0.dir/__/__/mesh/serial/src/serial_bearer.c.obj
 .bss.mp_current_tx_packet
                0x200039ac        0x4 examples/serial/CMakeFiles/serial_nrf52832_xxAA_s132_5.0.0.dir/__/__/mesh/serial/src/serial_bearer.c.obj
 .bss.rx_index.10894
                0x200039b0        0x2 examples/serial/CMakeFiles/serial_nrf52832_xxAA_s132_5.0.0.dir/__/__/mesh/serial/src/serial_bearer.c.obj
 .bss.m_cmd_handler_scheduled
                0x200039b2        0x1 examples/serial/CMakeFiles/serial_nrf52832_xxAA_s132_5.0.0.dir/__/__/mesh/serial/src/serial.c.obj
 .bss.m_state   0x200039b3        0x1 examples/serial/CMakeFiles/serial_nrf52832_xxAA_s132_5.0.0.dir/__/__/mesh/serial/src/serial.c.obj
 .bss.m_mesh_evt_handler
                0x200039b4        0x8 examples/serial/CMakeFiles/serial_nrf52832_xxAA_s132_5.0.0.dir/__/__/mesh/serial/src/serial_handler_prov.c.obj
 .bss.m_private_key
                0x200039bc       0x20 examples/serial/CMakeFiles/serial_nrf52832_xxAA_s132_5.0.0.dir/__/__/mesh/serial/src/serial_handler_prov.c.obj
 .bss.m_prov_contexts
                0x200039dc      0x5f8 examples/serial/CMakeFiles/serial_nrf52832_xxAA_s132_5.0.0.dir/__/__/mesh/serial/src/serial_handler_prov.c.obj
 .bss.m_provisioning_caps
                0x20003fd4        0xb examples/serial/CMakeFiles/serial_nrf52832_xxAA_s132_5.0.0.dir/__/__/mesh/serial/src/serial_handler_prov.c.obj
 .bss.m_public_key
                0x20003fdf       0x40 examples/serial/CMakeFiles/serial_nrf52832_xxAA_s132_5.0.0.dir/__/__/mesh/serial/src/serial_handler_prov.c.obj
 .bss.m_scanning_running
                0x2000401f        0x1 examples/serial/CMakeFiles/serial_nrf52832_xxAA_s132_5.0.0.dir/__/__/mesh/serial/src/serial_handler_prov.c.obj
 .bss.m_evt_handler
                0x20004020        0x8 examples/serial/CMakeFiles/serial_nrf52832_xxAA_s132_5.0.0.dir/__/__/mesh/serial/src/serial_handler_dfu.c.obj
 .bss.m_evt_handler
                0x20004028        0x8 examples/serial/CMakeFiles/serial_nrf52832_xxAA_s132_5.0.0.dir/__/__/mesh/serial/src/serial_handler_mesh.c.obj
 .bss.p_serial_evt.11126
                0x20004030        0x4 examples/serial/CMakeFiles/serial_nrf52832_xxAA_s132_5.0.0.dir/__/__/mesh/serial/src/serial_handler_mesh.c.obj
 .bss.m_models_list
                0x20004034        0xc examples/serial/CMakeFiles/serial_nrf52832_xxAA_s132_5.0.0.dir/__/__/mesh/serial/src/serial_handler_models.c.obj
 .bss.m_beacons
                0x20004040      0x134 examples/serial/CMakeFiles/serial_nrf52832_xxAA_s132_5.0.0.dir/__/__/mesh/serial/src/serial_handler_device.c.obj
 .bss.m_app_rx_cb
                0x20004174        0x4 examples/serial/CMakeFiles/serial_nrf52832_xxAA_s132_5.0.0.dir/__/__/mesh/serial/src/serial_handler_app.c.obj
 .bss.m_internal_event_fifo
                0x20004178       0x14 mesh/core/libmesh_core_nrf52832_xxAA.a(internal_event.c.obj)
 .bss.m_internal_event_fifo_buffer
                0x2000418c      0x100 mesh/core/libmesh_core_nrf52832_xxAA.a(internal_event.c.obj)
 .bss.m_internal_event_initialized
                0x2000428c        0x1 mesh/core/libmesh_core_nrf52832_xxAA.a(internal_event.c.obj)
 *fill*         0x2000428d        0x3 
 .bss.m_report_cb
                0x20004290        0x4 mesh/core/libmesh_core_nrf52832_xxAA.a(internal_event.c.obj)
 .bss.m_uuid    0x20004294       0x10 mesh/core/libmesh_core_nrf52832_xxAA.a(nrf_mesh_configure.c.obj)
 .bss.mp_evt_handlers_head
                0x200042a4        0x4 mesh/core/libmesh_core_nrf52832_xxAA.a(event.c.obj)
 .bss.lock_count.9906
                0x200042a8        0x4 mesh/core/libmesh_core_nrf52832_xxAA.a(net_state.c.obj)
 .bss.m_flash_manager
                0x200042ac       0x24 mesh/core/libmesh_core_nrf52832_xxAA.a(net_state.c.obj)
 .bss.m_iv_update_timer
                0x200042d0       0x18 mesh/core/libmesh_core_nrf52832_xxAA.a(net_state.c.obj)
 .bss.m_net_state
                0x200042e8       0x14 mesh/core/libmesh_core_nrf52832_xxAA.a(net_state.c.obj)
 .bss.m_seqnum_allocation_in_progress
                0x200042fc        0x1 mesh/core/libmesh_core_nrf52832_xxAA.a(net_state.c.obj)
 .bss.m_test_mode
                0x200042fd        0x1 mesh/core/libmesh_core_nrf52832_xxAA.a(net_state.c.obj)
 .bss.m_is_enabled
                0x200042fe        0x1 mesh/core/libmesh_core_nrf52832_xxAA.a(nrf_mesh.c.obj)
 .bss.m_is_initialized
                0x200042ff        0x1 mesh/core/libmesh_core_nrf52832_xxAA.a(nrf_mesh.c.obj)
 .bss.m_rx_cb   0x20004300        0x4 mesh/core/libmesh_core_nrf52832_xxAA.a(nrf_mesh.c.obj)
 .bss.m_event_flag
                0x20004304        0x4 mesh/core/libmesh_core_nrf52832_xxAA.a(timer_scheduler.c.obj)
 .bss.m_scheduler
                0x20004308       0x10 mesh/core/libmesh_core_nrf52832_xxAA.a(timer_scheduler.c.obj)
 .bss.m_attributes
                0x20004318        0x3 mesh/core/libmesh_core_nrf52832_xxAA.a(timer.c.obj)
 *fill*         0x2000431b        0x1 
 .bss.m_callbacks
                0x2000431c        0xc mesh/core/libmesh_core_nrf52832_xxAA.a(timer.c.obj)
 .bss.m_is_in_ts
                0x20004328        0x1 mesh/core/libmesh_core_nrf52832_xxAA.a(timer.c.obj)
 *fill*         0x20004329        0x3 
 .bss.m_reference_time
                0x2000432c        0x4 mesh/core/libmesh_core_nrf52832_xxAA.a(timer.c.obj)
 .bss.m_timeouts
                0x20004330        0xc mesh/core/libmesh_core_nrf52832_xxAA.a(timer.c.obj)
 .bss.m_timer_mut
                0x2000433c        0x4 mesh/core/libmesh_core_nrf52832_xxAA.a(timer.c.obj)
 .bss.m_ts_end_time
                0x20004340        0x4 mesh/core/libmesh_core_nrf52832_xxAA.a(timer.c.obj)
 .bss.mp_ppi_tasks
                0x20004344        0xc mesh/core/libmesh_core_nrf52832_xxAA.a(timer.c.obj)
 .bss.m_current_time
                0x20004350        0x4 mesh/core/libmesh_core_nrf52832_xxAA.a(ticker.c.obj)
 .bss.m_timer   0x20004354       0x18 mesh/core/libmesh_core_nrf52832_xxAA.a(ticker.c.obj)
 .bss.m_current_timeslot
                0x2000436c       0x1c mesh/core/libmesh_core_nrf52832_xxAA.a(timeslot.c.obj)
 .bss.m_lfclk_ppm
                0x20004388        0x4 mesh/core/libmesh_core_nrf52832_xxAA.a(timeslot.c.obj)
 .bss.m_radio_request_earliest
                0x2000438c       0x10 mesh/core/libmesh_core_nrf52832_xxAA.a(timeslot.c.obj)
 .bss.m_state_lock
                0x2000439c        0x1 mesh/core/libmesh_core_nrf52832_xxAA.a(timeslot.c.obj)
 .bss.m_timeslot_forced_command
                0x2000439d        0x1 mesh/core/libmesh_core_nrf52832_xxAA.a(timeslot.c.obj)
 *fill*         0x2000439e        0x2 
 .bss.s_last_rtc_value.9171
                0x200043a0        0x8 mesh/core/libmesh_core_nrf52832_xxAA.a(timeslot.c.obj)
 .bss.m_bearer_event_fifo
                0x200043a8       0x14 mesh/core/libmesh_core_nrf52832_xxAA.a(bearer_event.c.obj)
 .bss.m_bearer_event_fifo_buffer
                0x200043bc      0x100 mesh/core/libmesh_core_nrf52832_xxAA.a(bearer_event.c.obj)
 .bss.m_critical
                0x200044bc        0x4 mesh/core/libmesh_core_nrf52832_xxAA.a(bearer_event.c.obj)
 .bss.m_flag_count
                0x200044c0        0x4 mesh/core/libmesh_core_nrf52832_xxAA.a(bearer_event.c.obj)
 .bss.m_flag_event_callbacks
                0x200044c4       0x18 mesh/core/libmesh_core_nrf52832_xxAA.a(bearer_event.c.obj)
 .bss.m_flags   0x200044dc        0x4 mesh/core/libmesh_core_nrf52832_xxAA.a(bearer_event.c.obj)
 .bss.m_sequential_event_queue
                0x200044e0        0x8 mesh/core/libmesh_core_nrf52832_xxAA.a(bearer_event.c.obj)
 .bss.m_relay_check_cb
                0x200044e8        0x4 mesh/core/libmesh_core_nrf52832_xxAA.a(network.c.obj)
 .bss.m_relay_enable
                0x200044ec        0x1 mesh/core/libmesh_core_nrf52832_xxAA.a(network.c.obj)
 *fill*         0x200044ed        0x3 
 .bss.m_action_queue
                0x200044f0        0xc mesh/core/libmesh_core_nrf52832_xxAA.a(flash_manager.c.obj)
 .bss.m_action_queue_buffer
                0x200044fc      0x104 mesh/core/libmesh_core_nrf52832_xxAA.a(flash_manager.c.obj)
 .bss.m_action_state
                0x20004600        0x1 mesh/core/libmesh_core_nrf52832_xxAA.a(flash_manager.c.obj)
 *fill*         0x20004601        0x3 
 .bss.m_memory_listener_queue
                0x20004604        0x8 mesh/core/libmesh_core_nrf52832_xxAA.a(flash_manager.c.obj)
 .bss.m_processing_flag
                0x2000460c        0x4 mesh/core/libmesh_core_nrf52832_xxAA.a(flash_manager.c.obj)
 .bss.m_state   0x20004610        0x1 mesh/core/libmesh_core_nrf52832_xxAA.a(flash_manager.c.obj)
 *fill*         0x20004611        0x1 
 .bss.m_token   0x20004612        0x2 mesh/core/libmesh_core_nrf52832_xxAA.a(flash_manager.c.obj)
 .bss.p_current.11023
                0x20004614        0x4 mesh/core/libmesh_core_nrf52832_xxAA.a(flash_manager.c.obj)
 .bss.result.11024
                0x20004618        0x1 mesh/core/libmesh_core_nrf52832_xxAA.a(flash_manager.c.obj)
 *fill*         0x20004619        0x3 
 .bss.m_adv_buffer
                0x2000461c       0x68 mesh/core/libmesh_core_nrf52832_xxAA.a(beacon.c.obj)
 .bss.m_advertiser
                0x20004684       0x94 mesh/core/libmesh_core_nrf52832_xxAA.a(beacon.c.obj)
 .bss.m_adv_tx_count
                0x20004718        0x8 mesh/core/libmesh_core_nrf52832_xxAA.a(core_tx.c.obj)
 .bss.m_advertisers
                0x20004720      0x128 mesh/core/libmesh_core_nrf52832_xxAA.a(core_tx.c.obj)
 .bss.m_originator_adv_packet_buffer
                0x20004848      0x100 mesh/core/libmesh_core_nrf52832_xxAA.a(core_tx.c.obj)
 .bss.m_relay_adv_packet_buffer
                0x20004948       0x80 mesh/core/libmesh_core_nrf52832_xxAA.a(core_tx.c.obj)
 .bss.m_tx_complete_callback
                0x200049c8        0x4 mesh/core/libmesh_core_nrf52832_xxAA.a(core_tx.c.obj)
 .bss.m_beacon_salt
                0x200049cc       0x10 mesh/core/libmesh_core_nrf52832_xxAA.a(net_beacon.c.obj)
 .bss.m_enabled
                0x200049dc        0x1 mesh/core/libmesh_core_nrf52832_xxAA.a(net_beacon.c.obj)
 *fill*         0x200049dd        0x3 
 .bss.m_tx_event
                0x200049e0       0x18 mesh/core/libmesh_core_nrf52832_xxAA.a(net_beacon.c.obj)
 .bss.m_adv_prng
                0x200049f8       0x10 mesh/core/libmesh_core_nrf52832_xxAA.a(advertiser.c.obj)
 .bss.m_action_queue
                0x20004a08        0x8 mesh/core/libmesh_core_nrf52832_xxAA.a(bearer_handler.c.obj)
 .bss.m_end_time
                0x20004a10        0x4 mesh/core/libmesh_core_nrf52832_xxAA.a(bearer_handler.c.obj)
 .bss.m_scanner_is_active
                0x20004a14        0x1 mesh/core/libmesh_core_nrf52832_xxAA.a(bearer_handler.c.obj)
 .bss.m_stopped
                0x20004a15        0x1 mesh/core/libmesh_core_nrf52832_xxAA.a(bearer_handler.c.obj)
 *fill*         0x20004a16        0x2 
 .bss.mp_action
                0x20004a18        0x4 mesh/core/libmesh_core_nrf52832_xxAA.a(bearer_handler.c.obj)
 .bss.m_next_channel_index
                0x20004a1c        0x1 mesh/core/libmesh_core_nrf52832_xxAA.a(broadcast.c.obj)
 *fill*         0x20004a1d        0x3 
 .bss.m_scanner
                0x20004a20      0x284 mesh/core/libmesh_core_nrf52832_xxAA.a(scanner.c.obj)
 .bss.m_msg_cache
                0x20004ca4      0x100 mesh/core/libmesh_core_nrf52832_xxAA.a(msg_cache.c.obj)
 .bss.m_msg_cache_head
                0x20004da4        0x4 mesh/core/libmesh_core_nrf52832_xxAA.a(msg_cache.c.obj)
 .bss.m_sar_alloc
                0x20004da8        0x4 mesh/core/libmesh_core_nrf52832_xxAA.a(transport.c.obj)
 .bss.m_sar_process_flag
                0x20004dac        0x4 mesh/core/libmesh_core_nrf52832_xxAA.a(transport.c.obj)
 .bss.m_sar_release
                0x20004db0        0x4 mesh/core/libmesh_core_nrf52832_xxAA.a(transport.c.obj)
 .bss.m_sar_session_cache
                0x20004db4       0x40 mesh/core/libmesh_core_nrf52832_xxAA.a(transport.c.obj)
 .bss.m_sar_session_cache_head
                0x20004df4        0x4 mesh/core/libmesh_core_nrf52832_xxAA.a(transport.c.obj)
 .bss.m_trs_config
                0x20004df8       0x18 mesh/core/libmesh_core_nrf52832_xxAA.a(transport.c.obj)
 .bss.m_trs_sar_sessions
                0x20004e10      0x1b0 mesh/core/libmesh_core_nrf52832_xxAA.a(transport.c.obj)
 .bss.m_defrag  0x20004fc0       0x1c mesh/core/libmesh_core_nrf52832_xxAA.a(flash_manager_defrag.c.obj)
 .bss.m_token   0x20004fdc        0x2 mesh/core/libmesh_core_nrf52832_xxAA.a(flash_manager_defrag.c.obj)
 *fill*         0x20004fde        0x2 
 .bss.mp_recovery_area
                0x20004fe0        0x4 mesh/core/libmesh_core_nrf52832_xxAA.a(flash_manager_defrag.c.obj)
 .bss.p_null_ptr.10076
                0x20004fe4        0x4 mesh/core/libmesh_core_nrf52832_xxAA.a(flash_manager_defrag.c.obj)
 .bss.m_pool    0x20004fe8     0x1000 mesh/core/libmesh_core_nrf52832_xxAA.a(packet_mgr.c.obj)
 .bss.mp_free_head
                0x20005fe8        0x4 mesh/core/libmesh_core_nrf52832_xxAA.a(packet_mgr.c.obj)
 .bss.m_event_flag
                0x20005fec        0x4 mesh/core/libmesh_core_nrf52832_xxAA.a(mesh_flash.c.obj)
 .bss.m_suspended
                0x20005ff0        0x1 mesh/core/libmesh_core_nrf52832_xxAA.a(mesh_flash.c.obj)
 *fill*         0x20005ff1        0x3 
 .bss.m_users   0x20005ff4      0x228 mesh/core/libmesh_core_nrf52832_xxAA.a(mesh_flash.c.obj)
 .bss.m_128buf  0x2000621c       0x10 mesh/core/libmesh_core_nrf52832_xxAA.a(aes_cmac.c.obj)
 .bss.m_subkey1
                0x2000622c       0x10 mesh/core/libmesh_core_nrf52832_xxAA.a(aes_cmac.c.obj)
 .bss.m_subkey2
                0x2000623c       0x10 mesh/core/libmesh_core_nrf52832_xxAA.a(aes_cmac.c.obj)
 .bss.m_cache_full
                0x2000624c        0x1 mesh/core/libmesh_core_nrf52832_xxAA.a(replay_cache.c.obj)
 .bss.m_cache_index
                0x2000624d        0x1 mesh/core/libmesh_core_nrf52832_xxAA.a(replay_cache.c.obj)
 *fill*         0x2000624e        0x2 
 .bss.m_replay_cache
                0x20006250      0x200 mesh/core/libmesh_core_nrf52832_xxAA.a(replay_cache.c.obj)
 .bss.m_accepted_amount
                0x20006450        0x4 mesh/core/libmesh_core_nrf52832_xxAA.a(filter_engine.c.obj)
 .bss.m_filter_list_head
                0x20006454        0x4 mesh/core/libmesh_core_nrf52832_xxAA.a(filter_engine.c.obj)
 .bss._acDownBuffer
                0x20006458       0x80 external/rtt/librtt_nrf52832_xxAA.a(SEGGER_RTT.c.obj)
 .bss._acUpBuffer
                0x200064d8      0x400 external/rtt/librtt_nrf52832_xxAA.a(SEGGER_RTT.c.obj)
 .bss.__malloc_free_list
                0x200068d8        0x4 c:/a/gcc_arm/6/bin/../lib/gcc/arm-none-eabi/6.3.1/../../../../arm-none-eabi/lib/thumb/v7e-m/fpv4-sp/hard\libc_nano.a(lib_a-nano-mallocr.o)
                0x200068d8                __malloc_free_list
 .bss.__malloc_sbrk_start
                0x200068dc        0x4 c:/a/gcc_arm/6/bin/../lib/gcc/arm-none-eabi/6.3.1/../../../../arm-none-eabi/lib/thumb/v7e-m/fpv4-sp/hard\libc_nano.a(lib_a-nano-mallocr.o)
                0x200068dc                __malloc_sbrk_start
 .bss.heap_end.5239
                0x200068e0        0x4 c:/a/gcc_arm/6/bin/../lib/gcc/arm-none-eabi/6.3.1/../../../../arm-none-eabi/lib/thumb/v7e-m/fpv4-sp/hard\libnosys.a(sbrk.o)
 *(COMMON)
 COMMON         0x200068e4        0xc examples/serial/CMakeFiles/serial_nrf52832_xxAA_s132_5.0.0.dir/__/nrf_mesh_sdk.c.obj
                0x200068e4                nrf_nvic_state
 COMMON         0x200068f0        0x4 mesh/core/libmesh_core_nrf52832_xxAA.a(nrf_mesh.c.obj)
                0x200068f0                m_assertion_handler
 COMMON         0x200068f4       0x78 external/rtt/librtt_nrf52832_xxAA.a(SEGGER_RTT.c.obj)
                0x200068f4                _SEGGER_RTT
 COMMON         0x2000696c        0x4 c:/a/gcc_arm/6/bin/../lib/gcc/arm-none-eabi/6.3.1/../../../../arm-none-eabi/lib/thumb/v7e-m/fpv4-sp/hard\libc_nano.a(lib_a-reent.o)
                0x2000696c                errno
                0x20006970                . = ALIGN (0x4)
                0x20006970                __bss_end__ = .

.heap           0x20006970     0x2000
                0x20006970                __HeapBase = .
                0x20006970                __end__ = .
                0x20006970                PROVIDE (end, .)
 *(.heap*)
 .heap          0x20006970     0x2000 examples/serial/CMakeFiles/serial_nrf52832_xxAA_s132_5.0.0.dir/__/__/external/nRF5_SDK_14.0.0_3bcc1f7/components/toolchain/gcc/gcc_startup_nrf52.S.obj
                0x20008970                __HeapLimit = .

.stack_dummy    0x20006970     0x2000
 *(.stack*)
 .stack         0x20006970     0x2000 examples/serial/CMakeFiles/serial_nrf52832_xxAA_s132_5.0.0.dir/__/__/external/nRF5_SDK_14.0.0_3bcc1f7/components/toolchain/gcc/gcc_startup_nrf52.S.obj
                0x20010000                __StackTop = (ORIGIN (RAM) + LENGTH (RAM))
                0x2000e000                __StackLimit = (__StackTop - SIZEOF (.stack_dummy))
                0x20010000                PROVIDE (__stack, __StackTop)
                0x00000001                ASSERT ((__StackLimit >= __HeapLimit), region RAM overflowed with stack)
OUTPUT(examples\serial\serial_nrf52832_xxAA_s132_5.0.0.elf elf32-littlearm)

.ARM.attributes
                0x00000000       0x30
 .ARM.attributes
                0x00000000       0x22 c:/a/gcc_arm/6/bin/../lib/gcc/arm-none-eabi/6.3.1/thumb/v7e-m/fpv4-sp/hard/crti.o
 .ARM.attributes
                0x00000022       0x34 c:/a/gcc_arm/6/bin/../lib/gcc/arm-none-eabi/6.3.1/thumb/v7e-m/fpv4-sp/hard/crtbegin.o
 .ARM.attributes
                0x00000056       0x20 c:/a/gcc_arm/6/bin/../lib/gcc/arm-none-eabi/6.3.1/../../../../arm-none-eabi/lib/thumb/v7e-m/fpv4-sp/hard/crt0.o
 .ARM.attributes
                0x00000076       0x39 examples/serial/CMakeFiles/serial_nrf52832_xxAA_s132_5.0.0.dir/src/main.c.obj
 .ARM.attributes
                0x000000af       0x39 examples/serial/CMakeFiles/serial_nrf52832_xxAA_s132_5.0.0.dir/__/nrf_mesh_sdk.c.obj
 .ARM.attributes
                0x000000e8       0x39 examples/serial/CMakeFiles/serial_nrf52832_xxAA_s132_5.0.0.dir/__/__/mesh/prov/src/prov_provisioner.c.obj
 .ARM.attributes
                0x00000121       0x39 examples/serial/CMakeFiles/serial_nrf52832_xxAA_s132_5.0.0.dir/__/__/mesh/prov/src/prov_provisionee.c.obj
 .ARM.attributes
                0x0000015a       0x39 examples/serial/CMakeFiles/serial_nrf52832_xxAA_s132_5.0.0.dir/__/__/mesh/prov/src/nrf_mesh_prov.c.obj
 .ARM.attributes
                0x00000193       0x39 examples/serial/CMakeFiles/serial_nrf52832_xxAA_s132_5.0.0.dir/__/__/mesh/prov/src/provisioning.c.obj
 .ARM.attributes
                0x000001cc       0x39 examples/serial/CMakeFiles/serial_nrf52832_xxAA_s132_5.0.0.dir/__/__/mesh/prov/src/prov_beacon.c.obj
 .ARM.attributes
                0x00000205       0x39 examples/serial/CMakeFiles/serial_nrf52832_xxAA_s132_5.0.0.dir/__/__/mesh/prov/src/prov_utils.c.obj
 .ARM.attributes
                0x0000023e       0x39 examples/serial/CMakeFiles/serial_nrf52832_xxAA_s132_5.0.0.dir/__/__/mesh/prov/src/prov_bearer_adv.c.obj
 .ARM.attributes
                0x00000277       0x39 examples/serial/CMakeFiles/serial_nrf52832_xxAA_s132_5.0.0.dir/__/__/mesh/access/src/access_publish.c.obj
 .ARM.attributes
                0x000002b0       0x39 examples/serial/CMakeFiles/serial_nrf52832_xxAA_s132_5.0.0.dir/__/__/mesh/access/src/access.c.obj
 .ARM.attributes
                0x000002e9       0x39 examples/serial/CMakeFiles/serial_nrf52832_xxAA_s132_5.0.0.dir/__/__/mesh/access/src/access_reliable.c.obj
 .ARM.attributes
                0x00000322       0x39 examples/serial/CMakeFiles/serial_nrf52832_xxAA_s132_5.0.0.dir/__/__/mesh/access/src/device_state_manager.c.obj
 .ARM.attributes
                0x0000035b       0x39 examples/serial/CMakeFiles/serial_nrf52832_xxAA_s132_5.0.0.dir/__/__/mesh/serial/src/serial_uart.c.obj
 .ARM.attributes
                0x00000394       0x39 examples/serial/CMakeFiles/serial_nrf52832_xxAA_s132_5.0.0.dir/__/__/mesh/serial/src/serial_bearer.c.obj
 .ARM.attributes
                0x000003cd       0x39 examples/serial/CMakeFiles/serial_nrf52832_xxAA_s132_5.0.0.dir/__/__/mesh/serial/src/serial_handler_common.c.obj
 .ARM.attributes
                0x00000406       0x39 examples/serial/CMakeFiles/serial_nrf52832_xxAA_s132_5.0.0.dir/__/__/mesh/serial/src/serial_handler_access.c.obj
 .ARM.attributes
                0x0000043f       0x39 examples/serial/CMakeFiles/serial_nrf52832_xxAA_s132_5.0.0.dir/__/__/mesh/serial/src/serial_handler_config.c.obj
 .ARM.attributes
                0x00000478       0x39 examples/serial/CMakeFiles/serial_nrf52832_xxAA_s132_5.0.0.dir/__/__/mesh/serial/src/serial_handler_openmesh.c.obj
 .ARM.attributes
                0x000004b1       0x39 examples/serial/CMakeFiles/serial_nrf52832_xxAA_s132_5.0.0.dir/__/__/mesh/serial/src/serial.c.obj
 .ARM.attributes
                0x000004ea       0x39 examples/serial/CMakeFiles/serial_nrf52832_xxAA_s132_5.0.0.dir/__/__/mesh/serial/src/serial_handler_prov.c.obj
 .ARM.attributes
                0x00000523       0x39 examples/serial/CMakeFiles/serial_nrf52832_xxAA_s132_5.0.0.dir/__/__/mesh/serial/src/serial_handler_dfu.c.obj
 .ARM.attributes
                0x0000055c       0x39 examples/serial/CMakeFiles/serial_nrf52832_xxAA_s132_5.0.0.dir/__/__/mesh/serial/src/serial_handler_mesh.c.obj
 .ARM.attributes
                0x00000595       0x39 examples/serial/CMakeFiles/serial_nrf52832_xxAA_s132_5.0.0.dir/__/__/mesh/serial/src/serial_handler_models.c.obj
 .ARM.attributes
                0x000005ce       0x39 examples/serial/CMakeFiles/serial_nrf52832_xxAA_s132_5.0.0.dir/__/__/mesh/serial/src/serial_handler_device.c.obj
 .ARM.attributes
                0x00000607       0x39 examples/serial/CMakeFiles/serial_nrf52832_xxAA_s132_5.0.0.dir/__/__/mesh/serial/src/nrf_mesh_serial.c.obj
 .ARM.attributes
                0x00000640       0x39 examples/serial/CMakeFiles/serial_nrf52832_xxAA_s132_5.0.0.dir/__/__/mesh/serial/src/serial_handler_app.c.obj
 .ARM.attributes
                0x00000679       0x39 examples/serial/CMakeFiles/serial_nrf52832_xxAA_s132_5.0.0.dir/__/nrf_mesh_weak.c.obj
 .ARM.attributes
                0x000006b2       0x39 examples/serial/CMakeFiles/serial_nrf52832_xxAA_s132_5.0.0.dir/__/__/external/nRF5_SDK_14.0.0_3bcc1f7/components/toolchain/system_nrf52.c.obj
 .ARM.attributes
                0x000006eb       0x20 examples/serial/CMakeFiles/serial_nrf52832_xxAA_s132_5.0.0.dir/__/__/external/nRF5_SDK_14.0.0_3bcc1f7/components/toolchain/gcc/gcc_startup_nrf52.S.obj
 .ARM.attributes
                0x0000070b       0x39 mesh/core/libmesh_core_nrf52832_xxAA.a(internal_event.c.obj)
 .ARM.attributes
                0x00000744       0x39 mesh/core/libmesh_core_nrf52832_xxAA.a(nrf_mesh_configure.c.obj)
 .ARM.attributes
                0x0000077d       0x39 mesh/core/libmesh_core_nrf52832_xxAA.a(event.c.obj)
 .ARM.attributes
                0x000007b6       0x39 mesh/core/libmesh_core_nrf52832_xxAA.a(packet_buffer.c.obj)
 .ARM.attributes
                0x000007ef       0x39 mesh/core/libmesh_core_nrf52832_xxAA.a(fifo.c.obj)
 .ARM.attributes
                0x00000828       0x39 mesh/core/libmesh_core_nrf52832_xxAA.a(net_state.c.obj)
 .ARM.attributes
                0x00000861       0x39 mesh/core/libmesh_core_nrf52832_xxAA.a(nrf_mesh_utils.c.obj)
 .ARM.attributes
                0x0000089a       0x39 mesh/core/libmesh_core_nrf52832_xxAA.a(nrf_mesh.c.obj)
 .ARM.attributes
                0x000008d3       0x39 mesh/core/libmesh_core_nrf52832_xxAA.a(hal.c.obj)
 .ARM.attributes
                0x0000090c       0x39 mesh/core/libmesh_core_nrf52832_xxAA.a(timer_scheduler.c.obj)
 .ARM.attributes
                0x00000945       0x39 mesh/core/libmesh_core_nrf52832_xxAA.a(timer.c.obj)
 .ARM.attributes
                0x0000097e       0x39 mesh/core/libmesh_core_nrf52832_xxAA.a(ticker.c.obj)
 .ARM.attributes
                0x000009b7       0x39 mesh/core/libmesh_core_nrf52832_xxAA.a(rand.c.obj)
 .ARM.attributes
                0x000009f0       0x39 mesh/core/libmesh_core_nrf52832_xxAA.a(nrf_mesh_opt.c.obj)
 .ARM.attributes
                0x00000a29       0x39 mesh/core/libmesh_core_nrf52832_xxAA.a(timeslot.c.obj)
 .ARM.attributes
                0x00000a62       0x39 mesh/core/libmesh_core_nrf52832_xxAA.a(bearer_event.c.obj)
 .ARM.attributes
                0x00000a9b       0x39 mesh/core/libmesh_core_nrf52832_xxAA.a(enc.c.obj)
 .ARM.attributes
                0x00000ad4       0x39 mesh/core/libmesh_core_nrf52832_xxAA.a(network.c.obj)
 .ARM.attributes
                0x00000b0d       0x39 mesh/core/libmesh_core_nrf52832_xxAA.a(nrf_mesh_keygen.c.obj)
 .ARM.attributes
                0x00000b46       0x39 mesh/core/libmesh_core_nrf52832_xxAA.a(log.c.obj)
 .ARM.attributes
                0x00000b7f       0x39 mesh/core/libmesh_core_nrf52832_xxAA.a(flash_manager.c.obj)
 .ARM.attributes
                0x00000bb8       0x39 mesh/core/libmesh_core_nrf52832_xxAA.a(ccm_soft.c.obj)
 .ARM.attributes
                0x00000bf1       0x39 mesh/core/libmesh_core_nrf52832_xxAA.a(beacon.c.obj)
 .ARM.attributes
                0x00000c2a       0x39 mesh/core/libmesh_core_nrf52832_xxAA.a(flash_manager_internal.c.obj)
 .ARM.attributes
                0x00000c63       0x39 mesh/core/libmesh_core_nrf52832_xxAA.a(core_tx.c.obj)
 .ARM.attributes
                0x00000c9c       0x39 mesh/core/libmesh_core_nrf52832_xxAA.a(net_beacon.c.obj)
 .ARM.attributes
                0x00000cd5       0x39 mesh/core/libmesh_core_nrf52832_xxAA.a(advertiser.c.obj)
 .ARM.attributes
                0x00000d0e       0x39 mesh/core/libmesh_core_nrf52832_xxAA.a(bearer_handler.c.obj)
 .ARM.attributes
                0x00000d47       0x39 mesh/core/libmesh_core_nrf52832_xxAA.a(broadcast.c.obj)
 .ARM.attributes
                0x00000d80       0x39 mesh/core/libmesh_core_nrf52832_xxAA.a(radio_config.c.obj)
 .ARM.attributes
                0x00000db9       0x39 mesh/core/libmesh_core_nrf52832_xxAA.a(scanner.c.obj)
 .ARM.attributes
                0x00000df2       0x39 mesh/core/libmesh_core_nrf52832_xxAA.a(aes.c.obj)
 .ARM.attributes
                0x00000e2b       0x39 mesh/core/libmesh_core_nrf52832_xxAA.a(msg_cache.c.obj)
 .ARM.attributes
                0x00000e64       0x39 mesh/core/libmesh_core_nrf52832_xxAA.a(transport.c.obj)
 .ARM.attributes
                0x00000e9d       0x39 mesh/core/libmesh_core_nrf52832_xxAA.a(flash_manager_defrag.c.obj)
 .ARM.attributes
                0x00000ed6       0x39 mesh/core/libmesh_core_nrf52832_xxAA.a(packet_mgr.c.obj)
 .ARM.attributes
                0x00000f0f       0x39 mesh/core/libmesh_core_nrf52832_xxAA.a(mesh_flash.c.obj)
 .ARM.attributes
                0x00000f48       0x39 mesh/core/libmesh_core_nrf52832_xxAA.a(queue.c.obj)
 .ARM.attributes
                0x00000f81       0x39 mesh/core/libmesh_core_nrf52832_xxAA.a(aes_cmac.c.obj)
 .ARM.attributes
                0x00000fba       0x39 mesh/core/libmesh_core_nrf52832_xxAA.a(msqueue.c.obj)
 .ARM.attributes
                0x00000ff3       0x39 mesh/core/libmesh_core_nrf52832_xxAA.a(replay_cache.c.obj)
 .ARM.attributes
                0x0000102c       0x39 mesh/core/libmesh_core_nrf52832_xxAA.a(filter_engine.c.obj)
 .ARM.attributes
                0x00001065       0x39 mesh/core/libmesh_core_nrf52832_xxAA.a(nrf_flash.c.obj)
 .ARM.attributes
                0x0000109e       0x39 external/micro-ecc/libuECC_nrf52832_xxAA.a(uECC.c.obj)
 .ARM.attributes
                0x000010d7       0x39 external/rtt/librtt_nrf52832_xxAA.a(SEGGER_RTT.c.obj)
 .ARM.attributes
                0x00001110       0x39 external/rtt/librtt_nrf52832_xxAA.a(SEGGER_RTT_printf.c.obj)
 .ARM.attributes
                0x00001149       0x34 c:/a/gcc_arm/6/bin/../lib/gcc/arm-none-eabi/6.3.1/../../../../arm-none-eabi/lib/thumb/v7e-m/fpv4-sp/hard\libc_nano.a(lib_a-exit.o)
 .ARM.attributes
                0x0000117d       0x34 c:/a/gcc_arm/6/bin/../lib/gcc/arm-none-eabi/6.3.1/../../../../arm-none-eabi/lib/thumb/v7e-m/fpv4-sp/hard\libc_nano.a(lib_a-impure.o)
 .ARM.attributes
                0x000011b1       0x34 c:/a/gcc_arm/6/bin/../lib/gcc/arm-none-eabi/6.3.1/../../../../arm-none-eabi/lib/thumb/v7e-m/fpv4-sp/hard\libc_nano.a(lib_a-init.o)
 .ARM.attributes
                0x000011e5       0x34 c:/a/gcc_arm/6/bin/../lib/gcc/arm-none-eabi/6.3.1/../../../../arm-none-eabi/lib/thumb/v7e-m/fpv4-sp/hard\libc_nano.a(lib_a-malloc.o)
 .ARM.attributes
                0x00001219       0x34 c:/a/gcc_arm/6/bin/../lib/gcc/arm-none-eabi/6.3.1/../../../../arm-none-eabi/lib/thumb/v7e-m/fpv4-sp/hard\libc_nano.a(lib_a-memcmp.o)
 .ARM.attributes
                0x0000124d       0x34 c:/a/gcc_arm/6/bin/../lib/gcc/arm-none-eabi/6.3.1/../../../../arm-none-eabi/lib/thumb/v7e-m/fpv4-sp/hard\libc_nano.a(lib_a-memcpy-stub.o)
 .ARM.attributes
                0x00001281       0x34 c:/a/gcc_arm/6/bin/../lib/gcc/arm-none-eabi/6.3.1/../../../../arm-none-eabi/lib/thumb/v7e-m/fpv4-sp/hard\libc_nano.a(lib_a-memset.o)
 .ARM.attributes
                0x000012b5       0x34 c:/a/gcc_arm/6/bin/../lib/gcc/arm-none-eabi/6.3.1/../../../../arm-none-eabi/lib/thumb/v7e-m/fpv4-sp/hard\libc_nano.a(lib_a-nano-freer.o)
 .ARM.attributes
                0x000012e9       0x34 c:/a/gcc_arm/6/bin/../lib/gcc/arm-none-eabi/6.3.1/../../../../arm-none-eabi/lib/thumb/v7e-m/fpv4-sp/hard\libc_nano.a(lib_a-nano-mallocr.o)
 .ARM.attributes
                0x0000131d       0x34 c:/a/gcc_arm/6/bin/../lib/gcc/arm-none-eabi/6.3.1/../../../../arm-none-eabi/lib/thumb/v7e-m/fpv4-sp/hard\libc_nano.a(lib_a-sbrkr.o)
 .ARM.attributes
                0x00001351       0x34 c:/a/gcc_arm/6/bin/../lib/gcc/arm-none-eabi/6.3.1/../../../../arm-none-eabi/lib/thumb/v7e-m/fpv4-sp/hard\libc_nano.a(lib_a-strcpy.o)
 .ARM.attributes
                0x00001385       0x1b c:/a/gcc_arm/6/bin/../lib/gcc/arm-none-eabi/6.3.1/../../../../arm-none-eabi/lib/thumb/v7e-m/fpv4-sp/hard\libc_nano.a(lib_a-strlen.o)
 .ARM.attributes
                0x000013a0       0x34 c:/a/gcc_arm/6/bin/../lib/gcc/arm-none-eabi/6.3.1/../../../../arm-none-eabi/lib/thumb/v7e-m/fpv4-sp/hard\libc_nano.a(lib_a-strrchr.o)
 .ARM.attributes
                0x000013d4       0x34 c:/a/gcc_arm/6/bin/../lib/gcc/arm-none-eabi/6.3.1/../../../../arm-none-eabi/lib/thumb/v7e-m/fpv4-sp/hard\libc_nano.a(lib_a-mlock.o)
 .ARM.attributes
                0x00001408       0x34 c:/a/gcc_arm/6/bin/../lib/gcc/arm-none-eabi/6.3.1/../../../../arm-none-eabi/lib/thumb/v7e-m/fpv4-sp/hard\libc_nano.a(lib_a-reent.o)
 .ARM.attributes
                0x0000143c       0x34 c:/a/gcc_arm/6/bin/../lib/gcc/arm-none-eabi/6.3.1/../../../../arm-none-eabi/lib/thumb/v7e-m/fpv4-sp/hard\libc_nano.a(lib_a-strchr.o)
 .ARM.attributes
                0x00001470       0x34 c:/a/gcc_arm/6/bin/../lib/gcc/arm-none-eabi/6.3.1/thumb/v7e-m/fpv4-sp/hard/crtend.o
 .ARM.attributes
                0x000014a4       0x22 c:/a/gcc_arm/6/bin/../lib/gcc/arm-none-eabi/6.3.1/thumb/v7e-m/fpv4-sp/hard/crtn.o
 .ARM.attributes
                0x000014c6       0x34 c:/a/gcc_arm/6/bin/../lib/gcc/arm-none-eabi/6.3.1/../../../../arm-none-eabi/lib/thumb/v7e-m/fpv4-sp/hard\libnosys.a(sbrk.o)
 .ARM.attributes
                0x000014fa       0x34 c:/a/gcc_arm/6/bin/../lib/gcc/arm-none-eabi/6.3.1/../../../../arm-none-eabi/lib/thumb/v7e-m/fpv4-sp/hard\libnosys.a(_exit.o)

.comment        0x00000000       0x7f
 .comment       0x00000000       0x7f examples/serial/CMakeFiles/serial_nrf52832_xxAA_s132_5.0.0.dir/src/main.c.obj
                                 0x80 (size before relaxing)
 .comment       0x0000007f       0x80 examples/serial/CMakeFiles/serial_nrf52832_xxAA_s132_5.0.0.dir/__/nrf_mesh_sdk.c.obj
 .comment       0x0000007f       0x80 examples/serial/CMakeFiles/serial_nrf52832_xxAA_s132_5.0.0.dir/__/__/mesh/prov/src/prov_provisioner.c.obj
 .comment       0x0000007f       0x80 examples/serial/CMakeFiles/serial_nrf52832_xxAA_s132_5.0.0.dir/__/__/mesh/prov/src/prov_provisionee.c.obj
 .comment       0x0000007f       0x80 examples/serial/CMakeFiles/serial_nrf52832_xxAA_s132_5.0.0.dir/__/__/mesh/prov/src/nrf_mesh_prov.c.obj
 .comment       0x0000007f       0x80 examples/serial/CMakeFiles/serial_nrf52832_xxAA_s132_5.0.0.dir/__/__/mesh/prov/src/provisioning.c.obj
 .comment       0x0000007f       0x80 examples/serial/CMakeFiles/serial_nrf52832_xxAA_s132_5.0.0.dir/__/__/mesh/prov/src/prov_beacon.c.obj
 .comment       0x0000007f       0x80 examples/serial/CMakeFiles/serial_nrf52832_xxAA_s132_5.0.0.dir/__/__/mesh/prov/src/prov_utils.c.obj
 .comment       0x0000007f       0x80 examples/serial/CMakeFiles/serial_nrf52832_xxAA_s132_5.0.0.dir/__/__/mesh/prov/src/prov_bearer_adv.c.obj
 .comment       0x0000007f       0x80 examples/serial/CMakeFiles/serial_nrf52832_xxAA_s132_5.0.0.dir/__/__/mesh/access/src/access_publish.c.obj
 .comment       0x0000007f       0x80 examples/serial/CMakeFiles/serial_nrf52832_xxAA_s132_5.0.0.dir/__/__/mesh/access/src/access.c.obj
 .comment       0x0000007f       0x80 examples/serial/CMakeFiles/serial_nrf52832_xxAA_s132_5.0.0.dir/__/__/mesh/access/src/access_reliable.c.obj
 .comment       0x0000007f       0x80 examples/serial/CMakeFiles/serial_nrf52832_xxAA_s132_5.0.0.dir/__/__/mesh/access/src/device_state_manager.c.obj
 .comment       0x0000007f       0x80 examples/serial/CMakeFiles/serial_nrf52832_xxAA_s132_5.0.0.dir/__/__/mesh/serial/src/serial_uart.c.obj
 .comment       0x0000007f       0x80 examples/serial/CMakeFiles/serial_nrf52832_xxAA_s132_5.0.0.dir/__/__/mesh/serial/src/serial_bearer.c.obj
 .comment       0x0000007f       0x80 examples/serial/CMakeFiles/serial_nrf52832_xxAA_s132_5.0.0.dir/__/__/mesh/serial/src/serial_handler_common.c.obj
 .comment       0x0000007f       0x80 examples/serial/CMakeFiles/serial_nrf52832_xxAA_s132_5.0.0.dir/__/__/mesh/serial/src/serial_handler_access.c.obj
 .comment       0x0000007f       0x80 examples/serial/CMakeFiles/serial_nrf52832_xxAA_s132_5.0.0.dir/__/__/mesh/serial/src/serial_handler_config.c.obj
 .comment       0x0000007f       0x80 examples/serial/CMakeFiles/serial_nrf52832_xxAA_s132_5.0.0.dir/__/__/mesh/serial/src/serial_handler_openmesh.c.obj
 .comment       0x0000007f       0x80 examples/serial/CMakeFiles/serial_nrf52832_xxAA_s132_5.0.0.dir/__/__/mesh/serial/src/serial.c.obj
 .comment       0x0000007f       0x80 examples/serial/CMakeFiles/serial_nrf52832_xxAA_s132_5.0.0.dir/__/__/mesh/serial/src/serial_handler_prov.c.obj
 .comment       0x0000007f       0x80 examples/serial/CMakeFiles/serial_nrf52832_xxAA_s132_5.0.0.dir/__/__/mesh/serial/src/serial_handler_dfu.c.obj
 .comment       0x0000007f       0x80 examples/serial/CMakeFiles/serial_nrf52832_xxAA_s132_5.0.0.dir/__/__/mesh/serial/src/serial_handler_mesh.c.obj
 .comment       0x0000007f       0x80 examples/serial/CMakeFiles/serial_nrf52832_xxAA_s132_5.0.0.dir/__/__/mesh/serial/src/serial_handler_models.c.obj
 .comment       0x0000007f       0x80 examples/serial/CMakeFiles/serial_nrf52832_xxAA_s132_5.0.0.dir/__/__/mesh/serial/src/serial_handler_device.c.obj
 .comment       0x0000007f       0x80 examples/serial/CMakeFiles/serial_nrf52832_xxAA_s132_5.0.0.dir/__/__/mesh/serial/src/nrf_mesh_serial.c.obj
 .comment       0x0000007f       0x80 examples/serial/CMakeFiles/serial_nrf52832_xxAA_s132_5.0.0.dir/__/__/mesh/serial/src/serial_handler_app.c.obj
 .comment       0x0000007f       0x80 examples/serial/CMakeFiles/serial_nrf52832_xxAA_s132_5.0.0.dir/__/nrf_mesh_weak.c.obj
 .comment       0x0000007f       0x80 examples/serial/CMakeFiles/serial_nrf52832_xxAA_s132_5.0.0.dir/__/__/external/nRF5_SDK_14.0.0_3bcc1f7/components/toolchain/system_nrf52.c.obj
 .comment       0x0000007f       0x80 mesh/core/libmesh_core_nrf52832_xxAA.a(internal_event.c.obj)
 .comment       0x0000007f       0x80 mesh/core/libmesh_core_nrf52832_xxAA.a(nrf_mesh_configure.c.obj)
 .comment       0x0000007f       0x80 mesh/core/libmesh_core_nrf52832_xxAA.a(event.c.obj)
 .comment       0x0000007f       0x80 mesh/core/libmesh_core_nrf52832_xxAA.a(packet_buffer.c.obj)
 .comment       0x0000007f       0x80 mesh/core/libmesh_core_nrf52832_xxAA.a(fifo.c.obj)
 .comment       0x0000007f       0x80 mesh/core/libmesh_core_nrf52832_xxAA.a(net_state.c.obj)
 .comment       0x0000007f       0x80 mesh/core/libmesh_core_nrf52832_xxAA.a(nrf_mesh_utils.c.obj)
 .comment       0x0000007f       0x80 mesh/core/libmesh_core_nrf52832_xxAA.a(nrf_mesh.c.obj)
 .comment       0x0000007f       0x80 mesh/core/libmesh_core_nrf52832_xxAA.a(hal.c.obj)
 .comment       0x0000007f       0x80 mesh/core/libmesh_core_nrf52832_xxAA.a(timer_scheduler.c.obj)
 .comment       0x0000007f       0x80 mesh/core/libmesh_core_nrf52832_xxAA.a(timer.c.obj)
 .comment       0x0000007f       0x80 mesh/core/libmesh_core_nrf52832_xxAA.a(ticker.c.obj)
 .comment       0x0000007f       0x80 mesh/core/libmesh_core_nrf52832_xxAA.a(rand.c.obj)
 .comment       0x0000007f       0x80 mesh/core/libmesh_core_nrf52832_xxAA.a(nrf_mesh_opt.c.obj)
 .comment       0x0000007f       0x80 mesh/core/libmesh_core_nrf52832_xxAA.a(timeslot.c.obj)
 .comment       0x0000007f       0x80 mesh/core/libmesh_core_nrf52832_xxAA.a(bearer_event.c.obj)
 .comment       0x0000007f       0x80 mesh/core/libmesh_core_nrf52832_xxAA.a(enc.c.obj)
 .comment       0x0000007f       0x80 mesh/core/libmesh_core_nrf52832_xxAA.a(network.c.obj)
 .comment       0x0000007f       0x80 mesh/core/libmesh_core_nrf52832_xxAA.a(nrf_mesh_keygen.c.obj)
 .comment       0x0000007f       0x80 mesh/core/libmesh_core_nrf52832_xxAA.a(log.c.obj)
 .comment       0x0000007f       0x80 mesh/core/libmesh_core_nrf52832_xxAA.a(flash_manager.c.obj)
 .comment       0x0000007f       0x80 mesh/core/libmesh_core_nrf52832_xxAA.a(ccm_soft.c.obj)
 .comment       0x0000007f       0x80 mesh/core/libmesh_core_nrf52832_xxAA.a(beacon.c.obj)
 .comment       0x0000007f       0x80 mesh/core/libmesh_core_nrf52832_xxAA.a(flash_manager_internal.c.obj)
 .comment       0x0000007f       0x80 mesh/core/libmesh_core_nrf52832_xxAA.a(core_tx.c.obj)
 .comment       0x0000007f       0x80 mesh/core/libmesh_core_nrf52832_xxAA.a(net_beacon.c.obj)
 .comment       0x0000007f       0x80 mesh/core/libmesh_core_nrf52832_xxAA.a(advertiser.c.obj)
 .comment       0x0000007f       0x80 mesh/core/libmesh_core_nrf52832_xxAA.a(bearer_handler.c.obj)
 .comment       0x0000007f       0x80 mesh/core/libmesh_core_nrf52832_xxAA.a(broadcast.c.obj)
 .comment       0x0000007f       0x80 mesh/core/libmesh_core_nrf52832_xxAA.a(radio_config.c.obj)
 .comment       0x0000007f       0x80 mesh/core/libmesh_core_nrf52832_xxAA.a(scanner.c.obj)
 .comment       0x0000007f       0x80 mesh/core/libmesh_core_nrf52832_xxAA.a(aes.c.obj)
 .comment       0x0000007f       0x80 mesh/core/libmesh_core_nrf52832_xxAA.a(msg_cache.c.obj)
 .comment       0x0000007f       0x80 mesh/core/libmesh_core_nrf52832_xxAA.a(transport.c.obj)
 .comment       0x0000007f       0x80 mesh/core/libmesh_core_nrf52832_xxAA.a(flash_manager_defrag.c.obj)
 .comment       0x0000007f       0x80 mesh/core/libmesh_core_nrf52832_xxAA.a(packet_mgr.c.obj)
 .comment       0x0000007f       0x80 mesh/core/libmesh_core_nrf52832_xxAA.a(mesh_flash.c.obj)
 .comment       0x0000007f       0x80 mesh/core/libmesh_core_nrf52832_xxAA.a(queue.c.obj)
 .comment       0x0000007f       0x80 mesh/core/libmesh_core_nrf52832_xxAA.a(aes_cmac.c.obj)
 .comment       0x0000007f       0x80 mesh/core/libmesh_core_nrf52832_xxAA.a(msqueue.c.obj)
 .comment       0x0000007f       0x80 mesh/core/libmesh_core_nrf52832_xxAA.a(replay_cache.c.obj)
 .comment       0x0000007f       0x80 mesh/core/libmesh_core_nrf52832_xxAA.a(filter_engine.c.obj)
 .comment       0x0000007f       0x80 mesh/core/libmesh_core_nrf52832_xxAA.a(nrf_flash.c.obj)
 .comment       0x0000007f       0x80 external/micro-ecc/libuECC_nrf52832_xxAA.a(uECC.c.obj)
 .comment       0x0000007f       0x80 external/rtt/librtt_nrf52832_xxAA.a(SEGGER_RTT.c.obj)
 .comment       0x0000007f       0x80 external/rtt/librtt_nrf52832_xxAA.a(SEGGER_RTT_printf.c.obj)

.debug_frame    0x00000000      0x2c4
 .debug_frame   0x00000000       0x28 c:/a/gcc_arm/6/bin/../lib/gcc/arm-none-eabi/6.3.1/../../../../arm-none-eabi/lib/thumb/v7e-m/fpv4-sp/hard\libc_nano.a(lib_a-exit.o)
 .debug_frame   0x00000028       0x2c c:/a/gcc_arm/6/bin/../lib/gcc/arm-none-eabi/6.3.1/../../../../arm-none-eabi/lib/thumb/v7e-m/fpv4-sp/hard\libc_nano.a(lib_a-init.o)
 .debug_frame   0x00000054       0x30 c:/a/gcc_arm/6/bin/../lib/gcc/arm-none-eabi/6.3.1/../../../../arm-none-eabi/lib/thumb/v7e-m/fpv4-sp/hard\libc_nano.a(lib_a-malloc.o)
 .debug_frame   0x00000084       0x28 c:/a/gcc_arm/6/bin/../lib/gcc/arm-none-eabi/6.3.1/../../../../arm-none-eabi/lib/thumb/v7e-m/fpv4-sp/hard\libc_nano.a(lib_a-memcmp.o)
 .debug_frame   0x000000ac       0x28 c:/a/gcc_arm/6/bin/../lib/gcc/arm-none-eabi/6.3.1/../../../../arm-none-eabi/lib/thumb/v7e-m/fpv4-sp/hard\libc_nano.a(lib_a-memcpy-stub.o)
 .debug_frame   0x000000d4       0x20 c:/a/gcc_arm/6/bin/../lib/gcc/arm-none-eabi/6.3.1/../../../../arm-none-eabi/lib/thumb/v7e-m/fpv4-sp/hard\libc_nano.a(lib_a-memset.o)
 .debug_frame   0x000000f4       0x38 c:/a/gcc_arm/6/bin/../lib/gcc/arm-none-eabi/6.3.1/../../../../arm-none-eabi/lib/thumb/v7e-m/fpv4-sp/hard\libc_nano.a(lib_a-nano-freer.o)
 .debug_frame   0x0000012c       0x2c c:/a/gcc_arm/6/bin/../lib/gcc/arm-none-eabi/6.3.1/../../../../arm-none-eabi/lib/thumb/v7e-m/fpv4-sp/hard\libc_nano.a(lib_a-nano-mallocr.o)
 .debug_frame   0x00000158       0x2c c:/a/gcc_arm/6/bin/../lib/gcc/arm-none-eabi/6.3.1/../../../../arm-none-eabi/lib/thumb/v7e-m/fpv4-sp/hard\libc_nano.a(lib_a-sbrkr.o)
 .debug_frame   0x00000184       0x20 c:/a/gcc_arm/6/bin/../lib/gcc/arm-none-eabi/6.3.1/../../../../arm-none-eabi/lib/thumb/v7e-m/fpv4-sp/hard\libc_nano.a(lib_a-strcpy.o)
 .debug_frame   0x000001a4       0x34 c:/a/gcc_arm/6/bin/../lib/gcc/arm-none-eabi/6.3.1/../../../../arm-none-eabi/lib/thumb/v7e-m/fpv4-sp/hard\libc_nano.a(lib_a-strrchr.o)
 .debug_frame   0x000001d8       0x30 c:/a/gcc_arm/6/bin/../lib/gcc/arm-none-eabi/6.3.1/../../../../arm-none-eabi/lib/thumb/v7e-m/fpv4-sp/hard\libc_nano.a(lib_a-mlock.o)
 .debug_frame   0x00000208       0x5c c:/a/gcc_arm/6/bin/../lib/gcc/arm-none-eabi/6.3.1/../../../../arm-none-eabi/lib/thumb/v7e-m/fpv4-sp/hard\libc_nano.a(lib_a-reent.o)
 .debug_frame   0x00000264       0x20 c:/a/gcc_arm/6/bin/../lib/gcc/arm-none-eabi/6.3.1/../../../../arm-none-eabi/lib/thumb/v7e-m/fpv4-sp/hard\libc_nano.a(lib_a-strchr.o)
 .debug_frame   0x00000284       0x20 c:/a/gcc_arm/6/bin/../lib/gcc/arm-none-eabi/6.3.1/../../../../arm-none-eabi/lib/thumb/v7e-m/fpv4-sp/hard\libnosys.a(sbrk.o)
 .debug_frame   0x000002a4       0x20 c:/a/gcc_arm/6/bin/../lib/gcc/arm-none-eabi/6.3.1/../../../../arm-none-eabi/lib/thumb/v7e-m/fpv4-sp/hard\libnosys.a(_exit.o)
