Archive member included to satisfy reference by file (symbol)

mesh/core/libmesh_core_nrf52832_xxAA.a(internal_event.c.obj)
                              examples/serial/CMakeFiles/serial_nrf52832_xxAA_s132_3.1.0.dir/__/__/mesh/serial/src/serial_handler_device.c.obj (internal_event_init)
mesh/core/libmesh_core_nrf52832_xxAA.a(nrf_mesh_configure.c.obj)
                              examples/serial/CMakeFiles/serial_nrf52832_xxAA_s132_3.1.0.dir/__/__/mesh/serial/src/serial_handler_config.c.obj (nrf_mesh_configure_device_uuid_set)
mesh/core/libmesh_core_nrf52832_xxAA.a(event.c.obj)
                              examples/serial/CMakeFiles/serial_nrf52832_xxAA_s132_3.1.0.dir/__/__/mesh/prov/src/prov_provisioner.c.obj (event_handle)
mesh/core/libmesh_core_nrf52832_xxAA.a(packet_buffer.c.obj)
                              examples/serial/CMakeFiles/serial_nrf52832_xxAA_s132_3.1.0.dir/__/__/mesh/serial/src/serial_bearer.c.obj (packet_buffer_max_packet_len_get)
mesh/core/libmesh_core_nrf52832_xxAA.a(fifo.c.obj)
                              mesh/core/libmesh_core_nrf52832_xxAA.a(internal_event.c.obj) (fifo_init)
mesh/core/libmesh_core_nrf52832_xxAA.a(net_state.c.obj)
                              examples/serial/CMakeFiles/serial_nrf52832_xxAA_s132_3.1.0.dir/__/__/mesh/serial/src/serial_handler_mesh.c.obj (net_state_reset)
mesh/core/libmesh_core_nrf52832_xxAA.a(nrf_mesh_utils.c.obj)
                              examples/serial/CMakeFiles/serial_nrf52832_xxAA_s132_3.1.0.dir/__/__/mesh/prov/src/prov_provisionee.c.obj (nrf_mesh_address_type_get)
mesh/core/libmesh_core_nrf52832_xxAA.a(nrf_mesh.c.obj)
                              examples/serial/CMakeFiles/serial_nrf52832_xxAA_s132_3.1.0.dir/__/nrf_mesh_sdk.c.obj (nrf_mesh_init)
mesh/core/libmesh_core_nrf52832_xxAA.a(hal.c.obj)
                              examples/serial/CMakeFiles/serial_nrf52832_xxAA_s132_3.1.0.dir/__/__/mesh/serial/src/serial_handler_device.c.obj (hal_device_reset)
mesh/core/libmesh_core_nrf52832_xxAA.a(timer_scheduler.c.obj)
                              mesh/core/libmesh_core_nrf52832_xxAA.a(nrf_mesh.c.obj) (timer_sch_init)
mesh/core/libmesh_core_nrf52832_xxAA.a(timer.c.obj)
                              mesh/core/libmesh_core_nrf52832_xxAA.a(timer_scheduler.c.obj) (timer_order_cb)
mesh/core/libmesh_core_nrf52832_xxAA.a(ticker.c.obj)
                              mesh/core/libmesh_core_nrf52832_xxAA.a(nrf_mesh.c.obj) (ticker_init)
mesh/core/libmesh_core_nrf52832_xxAA.a(rand.c.obj)
                              examples/serial/CMakeFiles/serial_nrf52832_xxAA_s132_3.1.0.dir/__/__/mesh/prov/src/prov_utils.c.obj (rand_hw_rng_get)
mesh/core/libmesh_core_nrf52832_xxAA.a(nrf_mesh_opt.c.obj)
                              examples/serial/CMakeFiles/serial_nrf52832_xxAA_s132_3.1.0.dir/src/main.c.obj (nrf_mesh_opt_set)
mesh/core/libmesh_core_nrf52832_xxAA.a(timeslot.c.obj)
                              mesh/core/libmesh_core_nrf52832_xxAA.a(nrf_mesh.c.obj) (timeslot_sd_event_handler)
mesh/core/libmesh_core_nrf52832_xxAA.a(bearer_event.c.obj)
                              mesh/core/libmesh_core_nrf52832_xxAA.a(nrf_mesh.c.obj) (bearer_event_init)
mesh/core/libmesh_core_nrf52832_xxAA.a(enc.c.obj)
                              examples/serial/CMakeFiles/serial_nrf52832_xxAA_s132_3.1.0.dir/__/__/mesh/prov/src/prov_utils.c.obj (enc_aes_cmac)
mesh/core/libmesh_core_nrf52832_xxAA.a(network.c.obj)
                              mesh/core/libmesh_core_nrf52832_xxAA.a(nrf_mesh.c.obj) (network_init)
mesh/core/libmesh_core_nrf52832_xxAA.a(nrf_mesh_keygen.c.obj)
                              examples/serial/CMakeFiles/serial_nrf52832_xxAA_s132_3.1.0.dir/__/__/mesh/access/src/device_state_manager.c.obj (nrf_mesh_keygen_aid)
mesh/core/libmesh_core_nrf52832_xxAA.a(log.c.obj)
                              examples/serial/CMakeFiles/serial_nrf52832_xxAA_s132_3.1.0.dir/src/main.c.obj (log_callback_rtt)
mesh/core/libmesh_core_nrf52832_xxAA.a(flash_manager.c.obj)
                              mesh/core/libmesh_core_nrf52832_xxAA.a(nrf_mesh.c.obj) (flash_manager_init)
mesh/core/libmesh_core_nrf52832_xxAA.a(ccm_soft.c.obj)
                              mesh/core/libmesh_core_nrf52832_xxAA.a(enc.c.obj) (ccm_soft_encrypt)
mesh/core/libmesh_core_nrf52832_xxAA.a(beacon.c.obj)
                              mesh/core/libmesh_core_nrf52832_xxAA.a(nrf_mesh.c.obj) (beacon_init)
mesh/core/libmesh_core_nrf52832_xxAA.a(flash_manager_internal.c.obj)
                              mesh/core/libmesh_core_nrf52832_xxAA.a(flash_manager.c.obj) (entry_get)
mesh/core/libmesh_core_nrf52832_xxAA.a(core_tx.c.obj)
                              mesh/core/libmesh_core_nrf52832_xxAA.a(nrf_mesh.c.obj) (core_tx_init)
mesh/core/libmesh_core_nrf52832_xxAA.a(net_beacon.c.obj)
                              mesh/core/libmesh_core_nrf52832_xxAA.a(network.c.obj) (net_beacon_init)
mesh/core/libmesh_core_nrf52832_xxAA.a(advertiser.c.obj)
                              mesh/core/libmesh_core_nrf52832_xxAA.a(nrf_mesh.c.obj) (advertiser_init)
mesh/core/libmesh_core_nrf52832_xxAA.a(bearer_handler.c.obj)
                              mesh/core/libmesh_core_nrf52832_xxAA.a(nrf_mesh.c.obj) (bearer_handler_init)
mesh/core/libmesh_core_nrf52832_xxAA.a(broadcast.c.obj)
                              mesh/core/libmesh_core_nrf52832_xxAA.a(advertiser.c.obj) (broadcast_send)
mesh/core/libmesh_core_nrf52832_xxAA.a(radio_config.c.obj)
                              mesh/core/libmesh_core_nrf52832_xxAA.a(broadcast.c.obj) (radio_config_reset)
mesh/core/libmesh_core_nrf52832_xxAA.a(scanner.c.obj)
                              mesh/core/libmesh_core_nrf52832_xxAA.a(bearer_handler.c.obj) (scanner_radio_start)
mesh/core/libmesh_core_nrf52832_xxAA.a(aes.c.obj)
                              mesh/core/libmesh_core_nrf52832_xxAA.a(enc.c.obj) (aes_encrypt)
mesh/core/libmesh_core_nrf52832_xxAA.a(msg_cache.c.obj)
                              mesh/core/libmesh_core_nrf52832_xxAA.a(nrf_mesh.c.obj) (msg_cache_init)
mesh/core/libmesh_core_nrf52832_xxAA.a(transport.c.obj)
                              mesh/core/libmesh_core_nrf52832_xxAA.a(nrf_mesh.c.obj) (transport_init)
mesh/core/libmesh_core_nrf52832_xxAA.a(flash_manager_defrag.c.obj)
                              mesh/core/libmesh_core_nrf52832_xxAA.a(flash_manager.c.obj) (flash_manager_defrag_init)
mesh/core/libmesh_core_nrf52832_xxAA.a(packet_mgr.c.obj)
                              mesh/core/libmesh_core_nrf52832_xxAA.a(nrf_mesh.c.obj) (packet_mgr_init)
mesh/core/libmesh_core_nrf52832_xxAA.a(mesh_flash.c.obj)
                              mesh/core/libmesh_core_nrf52832_xxAA.a(flash_manager.c.obj) (mesh_flash_user_callback_set)
mesh/core/libmesh_core_nrf52832_xxAA.a(queue.c.obj)
                              mesh/core/libmesh_core_nrf52832_xxAA.a(bearer_event.c.obj) (queue_init)
mesh/core/libmesh_core_nrf52832_xxAA.a(aes_cmac.c.obj)
                              mesh/core/libmesh_core_nrf52832_xxAA.a(enc.c.obj) (aes_cmac)
mesh/core/libmesh_core_nrf52832_xxAA.a(msqueue.c.obj)
                              mesh/core/libmesh_core_nrf52832_xxAA.a(mesh_flash.c.obj) (msq_init)
mesh/core/libmesh_core_nrf52832_xxAA.a(replay_cache.c.obj)
                              mesh/core/libmesh_core_nrf52832_xxAA.a(transport.c.obj) (replay_cache_init)
mesh/core/libmesh_core_nrf52832_xxAA.a(filter_engine.c.obj)
                              mesh/core/libmesh_core_nrf52832_xxAA.a(scanner.c.obj) (fen_filters_apply)
mesh/core/libmesh_core_nrf52832_xxAA.a(nrf_flash.c.obj)
                              mesh/core/libmesh_core_nrf52832_xxAA.a(mesh_flash.c.obj) (nrf_flash_erase)
external/micro-ecc/libuECC_nrf52832_xxAA.a(uECC.c.obj)
                              examples/serial/CMakeFiles/serial_nrf52832_xxAA_s132_3.1.0.dir/__/__/mesh/prov/src/prov_utils.c.obj (uECC_secp256r1)
external/rtt/librtt_nrf52832_xxAA.a(SEGGER_RTT.c.obj)
                              mesh/core/libmesh_core_nrf52832_xxAA.a(log.c.obj) (SEGGER_RTT_Write)
external/rtt/librtt_nrf52832_xxAA.a(SEGGER_RTT_printf.c.obj)
                              mesh/core/libmesh_core_nrf52832_xxAA.a(log.c.obj) (SEGGER_RTT_vprintf)
c:/a/gcc_arm/6/bin/../lib/gcc/arm-none-eabi/6.3.1/../../../../arm-none-eabi/lib/thumb/v7e-m/fpv4-sp/hard\libg_nano.a(lib_a-exit.o)
                              c:/a/gcc_arm/6/bin/../lib/gcc/arm-none-eabi/6.3.1/../../../../arm-none-eabi/lib/thumb/v7e-m/fpv4-sp/hard/crt0.o (exit)
c:/a/gcc_arm/6/bin/../lib/gcc/arm-none-eabi/6.3.1/../../../../arm-none-eabi/lib/thumb/v7e-m/fpv4-sp/hard\libg_nano.a(lib_a-impure.o)
                              c:/a/gcc_arm/6/bin/../lib/gcc/arm-none-eabi/6.3.1/../../../../arm-none-eabi/lib/thumb/v7e-m/fpv4-sp/hard\libg_nano.a(lib_a-exit.o) (_global_impure_ptr)
c:/a/gcc_arm/6/bin/../lib/gcc/arm-none-eabi/6.3.1/../../../../arm-none-eabi/lib/thumb/v7e-m/fpv4-sp/hard\libg_nano.a(lib_a-init.o)
                              c:/a/gcc_arm/6/bin/../lib/gcc/arm-none-eabi/6.3.1/../../../../arm-none-eabi/lib/thumb/v7e-m/fpv4-sp/hard/crt0.o (__libc_init_array)
c:/a/gcc_arm/6/bin/../lib/gcc/arm-none-eabi/6.3.1/../../../../arm-none-eabi/lib/thumb/v7e-m/fpv4-sp/hard\libg_nano.a(lib_a-malloc.o)
                              mesh/core/libmesh_core_nrf52832_xxAA.a(transport.c.obj) (malloc)
c:/a/gcc_arm/6/bin/../lib/gcc/arm-none-eabi/6.3.1/../../../../arm-none-eabi/lib/thumb/v7e-m/fpv4-sp/hard\libg_nano.a(lib_a-memcmp.o)
                              examples/serial/CMakeFiles/serial_nrf52832_xxAA_s132_3.1.0.dir/__/__/mesh/prov/src/prov_utils.c.obj (memcmp)
c:/a/gcc_arm/6/bin/../lib/gcc/arm-none-eabi/6.3.1/../../../../arm-none-eabi/lib/thumb/v7e-m/fpv4-sp/hard\libg_nano.a(lib_a-memcpy-stub.o)
                              examples/serial/CMakeFiles/serial_nrf52832_xxAA_s132_3.1.0.dir/__/__/mesh/prov/src/prov_provisioner.c.obj (memcpy)
c:/a/gcc_arm/6/bin/../lib/gcc/arm-none-eabi/6.3.1/../../../../arm-none-eabi/lib/thumb/v7e-m/fpv4-sp/hard\libg_nano.a(lib_a-memset.o)
                              c:/a/gcc_arm/6/bin/../lib/gcc/arm-none-eabi/6.3.1/../../../../arm-none-eabi/lib/thumb/v7e-m/fpv4-sp/hard/crt0.o (memset)
c:/a/gcc_arm/6/bin/../lib/gcc/arm-none-eabi/6.3.1/../../../../arm-none-eabi/lib/thumb/v7e-m/fpv4-sp/hard\libg_nano.a(lib_a-nano-freer.o)
                              c:/a/gcc_arm/6/bin/../lib/gcc/arm-none-eabi/6.3.1/../../../../arm-none-eabi/lib/thumb/v7e-m/fpv4-sp/hard\libg_nano.a(lib_a-malloc.o) (_free_r)
c:/a/gcc_arm/6/bin/../lib/gcc/arm-none-eabi/6.3.1/../../../../arm-none-eabi/lib/thumb/v7e-m/fpv4-sp/hard\libg_nano.a(lib_a-nano-mallocr.o)
                              c:/a/gcc_arm/6/bin/../lib/gcc/arm-none-eabi/6.3.1/../../../../arm-none-eabi/lib/thumb/v7e-m/fpv4-sp/hard\libg_nano.a(lib_a-malloc.o) (_malloc_r)
c:/a/gcc_arm/6/bin/../lib/gcc/arm-none-eabi/6.3.1/../../../../arm-none-eabi/lib/thumb/v7e-m/fpv4-sp/hard\libg_nano.a(lib_a-sbrkr.o)
                              c:/a/gcc_arm/6/bin/../lib/gcc/arm-none-eabi/6.3.1/../../../../arm-none-eabi/lib/thumb/v7e-m/fpv4-sp/hard\libg_nano.a(lib_a-nano-mallocr.o) (_sbrk_r)
c:/a/gcc_arm/6/bin/../lib/gcc/arm-none-eabi/6.3.1/../../../../arm-none-eabi/lib/thumb/v7e-m/fpv4-sp/hard\libg_nano.a(lib_a-strcpy.o)
                              external/rtt/librtt_nrf52832_xxAA.a(SEGGER_RTT.c.obj) (strcpy)
c:/a/gcc_arm/6/bin/../lib/gcc/arm-none-eabi/6.3.1/../../../../arm-none-eabi/lib/thumb/v7e-m/fpv4-sp/hard\libg_nano.a(lib_a-strlen.o)
                              examples/serial/CMakeFiles/serial_nrf52832_xxAA_s132_3.1.0.dir/__/__/mesh/prov/src/prov_beacon.c.obj (strlen)
c:/a/gcc_arm/6/bin/../lib/gcc/arm-none-eabi/6.3.1/../../../../arm-none-eabi/lib/thumb/v7e-m/fpv4-sp/hard\libg_nano.a(lib_a-strrchr.o)
                              examples/serial/CMakeFiles/serial_nrf52832_xxAA_s132_3.1.0.dir/src/main.c.obj (strrchr)
c:/a/gcc_arm/6/bin/../lib/gcc/arm-none-eabi/6.3.1/../../../../arm-none-eabi/lib/thumb/v7e-m/fpv4-sp/hard\libg_nano.a(lib_a-mlock.o)
                              c:/a/gcc_arm/6/bin/../lib/gcc/arm-none-eabi/6.3.1/../../../../arm-none-eabi/lib/thumb/v7e-m/fpv4-sp/hard\libg_nano.a(lib_a-nano-freer.o) (__malloc_lock)
c:/a/gcc_arm/6/bin/../lib/gcc/arm-none-eabi/6.3.1/../../../../arm-none-eabi/lib/thumb/v7e-m/fpv4-sp/hard\libg_nano.a(lib_a-reent.o)
                              c:/a/gcc_arm/6/bin/../lib/gcc/arm-none-eabi/6.3.1/../../../../arm-none-eabi/lib/thumb/v7e-m/fpv4-sp/hard\libg_nano.a(lib_a-sbrkr.o) (errno)
c:/a/gcc_arm/6/bin/../lib/gcc/arm-none-eabi/6.3.1/../../../../arm-none-eabi/lib/thumb/v7e-m/fpv4-sp/hard\libg_nano.a(lib_a-strchr.o)
                              c:/a/gcc_arm/6/bin/../lib/gcc/arm-none-eabi/6.3.1/../../../../arm-none-eabi/lib/thumb/v7e-m/fpv4-sp/hard\libg_nano.a(lib_a-strrchr.o) (strchr)
c:/a/gcc_arm/6/bin/../lib/gcc/arm-none-eabi/6.3.1/../../../../arm-none-eabi/lib/thumb/v7e-m/fpv4-sp/hard\libnosys.a(sbrk.o)
                              c:/a/gcc_arm/6/bin/../lib/gcc/arm-none-eabi/6.3.1/../../../../arm-none-eabi/lib/thumb/v7e-m/fpv4-sp/hard\libg_nano.a(lib_a-sbrkr.o) (_sbrk)
c:/a/gcc_arm/6/bin/../lib/gcc/arm-none-eabi/6.3.1/../../../../arm-none-eabi/lib/thumb/v7e-m/fpv4-sp/hard\libnosys.a(_exit.o)
                              c:/a/gcc_arm/6/bin/../lib/gcc/arm-none-eabi/6.3.1/../../../../arm-none-eabi/lib/thumb/v7e-m/fpv4-sp/hard\libg_nano.a(lib_a-exit.o) (_exit)

Allocating common symbols
Common symbol       size              file

nrf_nvic_state      0xc               examples/serial/CMakeFiles/serial_nrf52832_xxAA_s132_3.1.0.dir/__/nrf_mesh_sdk.c.obj
errno               0x4               c:/a/gcc_arm/6/bin/../lib/gcc/arm-none-eabi/6.3.1/../../../../arm-none-eabi/lib/thumb/v7e-m/fpv4-sp/hard\libg_nano.a(lib_a-reent.o)
m_assertion_handler
                    0x4               mesh/core/libmesh_core_nrf52832_xxAA.a(nrf_mesh.c.obj)
_SEGGER_RTT         0x78              external/rtt/librtt_nrf52832_xxAA.a(SEGGER_RTT.c.obj)

Discarded input sections

 .text          0x00000000        0x0 c:/a/gcc_arm/6/bin/../lib/gcc/arm-none-eabi/6.3.1/thumb/v7e-m/fpv4-sp/hard/crti.o
 .data          0x00000000        0x0 c:/a/gcc_arm/6/bin/../lib/gcc/arm-none-eabi/6.3.1/thumb/v7e-m/fpv4-sp/hard/crti.o
 .bss           0x00000000        0x0 c:/a/gcc_arm/6/bin/../lib/gcc/arm-none-eabi/6.3.1/thumb/v7e-m/fpv4-sp/hard/crti.o
 .data          0x00000000        0x4 c:/a/gcc_arm/6/bin/../lib/gcc/arm-none-eabi/6.3.1/thumb/v7e-m/fpv4-sp/hard/crtbegin.o
 .data          0x00000000        0x0 c:/a/gcc_arm/6/bin/../lib/gcc/arm-none-eabi/6.3.1/../../../../arm-none-eabi/lib/thumb/v7e-m/fpv4-sp/hard/crt0.o
 .bss           0x00000000        0x0 c:/a/gcc_arm/6/bin/../lib/gcc/arm-none-eabi/6.3.1/../../../../arm-none-eabi/lib/thumb/v7e-m/fpv4-sp/hard/crt0.o
 .ARM.extab     0x00000000        0x0 c:/a/gcc_arm/6/bin/../lib/gcc/arm-none-eabi/6.3.1/../../../../arm-none-eabi/lib/thumb/v7e-m/fpv4-sp/hard/crt0.o
 .text          0x00000000        0x0 examples/serial/CMakeFiles/serial_nrf52832_xxAA_s132_3.1.0.dir/src/main.c.obj
 .data          0x00000000        0x0 examples/serial/CMakeFiles/serial_nrf52832_xxAA_s132_3.1.0.dir/src/main.c.obj
 .bss           0x00000000        0x0 examples/serial/CMakeFiles/serial_nrf52832_xxAA_s132_3.1.0.dir/src/main.c.obj
 .text          0x00000000        0x0 examples/serial/CMakeFiles/serial_nrf52832_xxAA_s132_3.1.0.dir/__/nrf_mesh_sdk.c.obj
 .data          0x00000000        0x0 examples/serial/CMakeFiles/serial_nrf52832_xxAA_s132_3.1.0.dir/__/nrf_mesh_sdk.c.obj
 .bss           0x00000000        0x0 examples/serial/CMakeFiles/serial_nrf52832_xxAA_s132_3.1.0.dir/__/nrf_mesh_sdk.c.obj
 .text.mesh_softdevice_enable
                0x00000000      0x150 examples/serial/CMakeFiles/serial_nrf52832_xxAA_s132_3.1.0.dir/__/nrf_mesh_sdk.c.obj
 .text          0x00000000        0x0 examples/serial/CMakeFiles/serial_nrf52832_xxAA_s132_3.1.0.dir/__/__/mesh/prov/src/prov_provisioner.c.obj
 .data          0x00000000        0x0 examples/serial/CMakeFiles/serial_nrf52832_xxAA_s132_3.1.0.dir/__/__/mesh/prov/src/prov_provisioner.c.obj
 .bss           0x00000000        0x0 examples/serial/CMakeFiles/serial_nrf52832_xxAA_s132_3.1.0.dir/__/__/mesh/prov/src/prov_provisioner.c.obj
 .text.prov_provisioner_oob_pubkey
                0x00000000       0x38 examples/serial/CMakeFiles/serial_nrf52832_xxAA_s132_3.1.0.dir/__/__/mesh/prov/src/prov_provisioner.c.obj
 .text          0x00000000        0x0 examples/serial/CMakeFiles/serial_nrf52832_xxAA_s132_3.1.0.dir/__/__/mesh/prov/src/prov_provisionee.c.obj
 .data          0x00000000        0x0 examples/serial/CMakeFiles/serial_nrf52832_xxAA_s132_3.1.0.dir/__/__/mesh/prov/src/prov_provisionee.c.obj
 .bss           0x00000000        0x0 examples/serial/CMakeFiles/serial_nrf52832_xxAA_s132_3.1.0.dir/__/__/mesh/prov/src/prov_provisionee.c.obj
 .text          0x00000000        0x0 examples/serial/CMakeFiles/serial_nrf52832_xxAA_s132_3.1.0.dir/__/__/mesh/prov/src/nrf_mesh_prov.c.obj
 .data          0x00000000        0x0 examples/serial/CMakeFiles/serial_nrf52832_xxAA_s132_3.1.0.dir/__/__/mesh/prov/src/nrf_mesh_prov.c.obj
 .bss           0x00000000        0x0 examples/serial/CMakeFiles/serial_nrf52832_xxAA_s132_3.1.0.dir/__/__/mesh/prov/src/nrf_mesh_prov.c.obj
 .text.nrf_mesh_prov_pubkey_provide
                0x00000000       0x10 examples/serial/CMakeFiles/serial_nrf52832_xxAA_s132_3.1.0.dir/__/__/mesh/prov/src/nrf_mesh_prov.c.obj
 .text          0x00000000        0x0 examples/serial/CMakeFiles/serial_nrf52832_xxAA_s132_3.1.0.dir/__/__/mesh/prov/src/provisioning.c.obj
 .data          0x00000000        0x0 examples/serial/CMakeFiles/serial_nrf52832_xxAA_s132_3.1.0.dir/__/__/mesh/prov/src/provisioning.c.obj
 .bss           0x00000000        0x0 examples/serial/CMakeFiles/serial_nrf52832_xxAA_s132_3.1.0.dir/__/__/mesh/prov/src/provisioning.c.obj
 .text.prov_listen_stop
                0x00000000        0x8 examples/serial/CMakeFiles/serial_nrf52832_xxAA_s132_3.1.0.dir/__/__/mesh/prov/src/provisioning.c.obj
 .text.prov_tx  0x00000000       0x50 examples/serial/CMakeFiles/serial_nrf52832_xxAA_s132_3.1.0.dir/__/__/mesh/prov/src/provisioning.c.obj
 .text          0x00000000        0x0 examples/serial/CMakeFiles/serial_nrf52832_xxAA_s132_3.1.0.dir/__/__/mesh/prov/src/prov_beacon.c.obj
 .data          0x00000000        0x0 examples/serial/CMakeFiles/serial_nrf52832_xxAA_s132_3.1.0.dir/__/__/mesh/prov/src/prov_beacon.c.obj
 .bss           0x00000000        0x0 examples/serial/CMakeFiles/serial_nrf52832_xxAA_s132_3.1.0.dir/__/__/mesh/prov/src/prov_beacon.c.obj
 .text.prov_beacon_unprov_report
                0x00000000        0xc examples/serial/CMakeFiles/serial_nrf52832_xxAA_s132_3.1.0.dir/__/__/mesh/prov/src/prov_beacon.c.obj
 .text          0x00000000        0x0 examples/serial/CMakeFiles/serial_nrf52832_xxAA_s132_3.1.0.dir/__/__/mesh/prov/src/prov_utils.c.obj
 .data          0x00000000        0x0 examples/serial/CMakeFiles/serial_nrf52832_xxAA_s132_3.1.0.dir/__/__/mesh/prov/src/prov_utils.c.obj
 .bss           0x00000000        0x0 examples/serial/CMakeFiles/serial_nrf52832_xxAA_s132_3.1.0.dir/__/__/mesh/prov/src/prov_utils.c.obj
 .text.prov_utils_opt_get
                0x00000000       0x1c examples/serial/CMakeFiles/serial_nrf52832_xxAA_s132_3.1.0.dir/__/__/mesh/prov/src/prov_utils.c.obj
 .text          0x00000000        0x0 examples/serial/CMakeFiles/serial_nrf52832_xxAA_s132_3.1.0.dir/__/__/mesh/prov/src/prov_bearer_adv.c.obj
 .data          0x00000000        0x0 examples/serial/CMakeFiles/serial_nrf52832_xxAA_s132_3.1.0.dir/__/__/mesh/prov/src/prov_bearer_adv.c.obj
 .bss           0x00000000        0x0 examples/serial/CMakeFiles/serial_nrf52832_xxAA_s132_3.1.0.dir/__/__/mesh/prov/src/prov_bearer_adv.c.obj
 .text.calculate_3GPP_CRC
                0x00000000       0x28 examples/serial/CMakeFiles/serial_nrf52832_xxAA_s132_3.1.0.dir/__/__/mesh/prov/src/prov_bearer_adv.c.obj
 .text          0x00000000        0x0 examples/serial/CMakeFiles/serial_nrf52832_xxAA_s132_3.1.0.dir/__/__/mesh/access/src/access_publish.c.obj
 .data          0x00000000        0x0 examples/serial/CMakeFiles/serial_nrf52832_xxAA_s132_3.1.0.dir/__/__/mesh/access/src/access_publish.c.obj
 .bss           0x00000000        0x0 examples/serial/CMakeFiles/serial_nrf52832_xxAA_s132_3.1.0.dir/__/__/mesh/access/src/access_publish.c.obj
 .text          0x00000000        0x0 examples/serial/CMakeFiles/serial_nrf52832_xxAA_s132_3.1.0.dir/__/__/mesh/access/src/access.c.obj
 .data          0x00000000        0x0 examples/serial/CMakeFiles/serial_nrf52832_xxAA_s132_3.1.0.dir/__/__/mesh/access/src/access.c.obj
 .bss           0x00000000        0x0 examples/serial/CMakeFiles/serial_nrf52832_xxAA_s132_3.1.0.dir/__/__/mesh/access/src/access.c.obj
 .text.access_flash_config_load
                0x00000000      0x2ec examples/serial/CMakeFiles/serial_nrf52832_xxAA_s132_3.1.0.dir/__/__/mesh/access/src/access.c.obj
 .text.access_model_add
                0x00000000      0x1c8 examples/serial/CMakeFiles/serial_nrf52832_xxAA_s132_3.1.0.dir/__/__/mesh/access/src/access.c.obj
 .text.access_model_reply
                0x00000000      0x2b4 examples/serial/CMakeFiles/serial_nrf52832_xxAA_s132_3.1.0.dir/__/__/mesh/access/src/access.c.obj
 .text.access_model_subscription_list_alloc
                0x00000000       0x38 examples/serial/CMakeFiles/serial_nrf52832_xxAA_s132_3.1.0.dir/__/__/mesh/access/src/access.c.obj
 .text.access_model_subscription_lists_share
                0x00000000       0x24 examples/serial/CMakeFiles/serial_nrf52832_xxAA_s132_3.1.0.dir/__/__/mesh/access/src/access.c.obj
 .text.access_default_ttl_set
                0x00000000       0x10 examples/serial/CMakeFiles/serial_nrf52832_xxAA_s132_3.1.0.dir/__/__/mesh/access/src/access.c.obj
 .text.access_default_ttl_get
                0x00000000        0xc examples/serial/CMakeFiles/serial_nrf52832_xxAA_s132_3.1.0.dir/__/__/mesh/access/src/access.c.obj
 .rodata.multiply_de_bruijn_bit_position.8982
                0x00000000       0x20 examples/serial/CMakeFiles/serial_nrf52832_xxAA_s132_3.1.0.dir/__/__/mesh/access/src/access.c.obj
 .text          0x00000000        0x0 examples/serial/CMakeFiles/serial_nrf52832_xxAA_s132_3.1.0.dir/__/__/mesh/access/src/access_reliable.c.obj
 .data          0x00000000        0x0 examples/serial/CMakeFiles/serial_nrf52832_xxAA_s132_3.1.0.dir/__/__/mesh/access/src/access_reliable.c.obj
 .bss           0x00000000        0x0 examples/serial/CMakeFiles/serial_nrf52832_xxAA_s132_3.1.0.dir/__/__/mesh/access/src/access_reliable.c.obj
 .text.access_model_reliable_cancel
                0x00000000       0x38 examples/serial/CMakeFiles/serial_nrf52832_xxAA_s132_3.1.0.dir/__/__/mesh/access/src/access_reliable.c.obj
 .text.access_model_reliable_publish
                0x00000000      0x168 examples/serial/CMakeFiles/serial_nrf52832_xxAA_s132_3.1.0.dir/__/__/mesh/access/src/access_reliable.c.obj
 .text          0x00000000        0x0 examples/serial/CMakeFiles/serial_nrf52832_xxAA_s132_3.1.0.dir/__/__/mesh/access/src/device_state_manager.c.obj
 .data          0x00000000        0x0 examples/serial/CMakeFiles/serial_nrf52832_xxAA_s132_3.1.0.dir/__/__/mesh/access/src/device_state_manager.c.obj
 .bss           0x00000000        0x0 examples/serial/CMakeFiles/serial_nrf52832_xxAA_s132_3.1.0.dir/__/__/mesh/access/src/device_state_manager.c.obj
 .text.dsm_flash_config_load
                0x00000000      0x190 examples/serial/CMakeFiles/serial_nrf52832_xxAA_s132_3.1.0.dir/__/__/mesh/access/src/device_state_manager.c.obj
 .text.dsm_has_unflashed_data
                0x00000000       0x58 examples/serial/CMakeFiles/serial_nrf52832_xxAA_s132_3.1.0.dir/__/__/mesh/access/src/device_state_manager.c.obj
 .text.dsm_address_publish_add_handle
                0x00000000       0x54 examples/serial/CMakeFiles/serial_nrf52832_xxAA_s132_3.1.0.dir/__/__/mesh/access/src/device_state_manager.c.obj
 .text.dsm_address_subscription_add_handle
                0x00000000       0x54 examples/serial/CMakeFiles/serial_nrf52832_xxAA_s132_3.1.0.dir/__/__/mesh/access/src/device_state_manager.c.obj
 .text.dsm_address_subscription_count_get
                0x00000000       0x80 examples/serial/CMakeFiles/serial_nrf52832_xxAA_s132_3.1.0.dir/__/__/mesh/access/src/device_state_manager.c.obj
 .text.dsm_net_key_index_to_subnet_handle
                0x00000000       0x6c examples/serial/CMakeFiles/serial_nrf52832_xxAA_s132_3.1.0.dir/__/__/mesh/access/src/device_state_manager.c.obj
 .text.dsm_subnet_handle_to_netkey_index
                0x00000000       0x34 examples/serial/CMakeFiles/serial_nrf52832_xxAA_s132_3.1.0.dir/__/__/mesh/access/src/device_state_manager.c.obj
 .text.dsm_app_key_index_to_appkey_handle
                0x00000000       0xc8 examples/serial/CMakeFiles/serial_nrf52832_xxAA_s132_3.1.0.dir/__/__/mesh/access/src/device_state_manager.c.obj
 .text.dsm_appkey_handle_to_appkey_index
                0x00000000       0x34 examples/serial/CMakeFiles/serial_nrf52832_xxAA_s132_3.1.0.dir/__/__/mesh/access/src/device_state_manager.c.obj
 .text.dsm_devkey_handle_get
                0x00000000       0x6c examples/serial/CMakeFiles/serial_nrf52832_xxAA_s132_3.1.0.dir/__/__/mesh/access/src/device_state_manager.c.obj
 .text.dsm_beacon_secmat_get
                0x00000000       0x34 examples/serial/CMakeFiles/serial_nrf52832_xxAA_s132_3.1.0.dir/__/__/mesh/access/src/device_state_manager.c.obj
 .text.dsm_proxy_identity_get
                0x00000000        0x4 examples/serial/CMakeFiles/serial_nrf52832_xxAA_s132_3.1.0.dir/__/__/mesh/access/src/device_state_manager.c.obj
 .text          0x00000000        0x0 examples/serial/CMakeFiles/serial_nrf52832_xxAA_s132_3.1.0.dir/__/__/mesh/serial/src/serial_uart.c.obj
 .data          0x00000000        0x0 examples/serial/CMakeFiles/serial_nrf52832_xxAA_s132_3.1.0.dir/__/__/mesh/serial/src/serial_uart.c.obj
 .bss           0x00000000        0x0 examples/serial/CMakeFiles/serial_nrf52832_xxAA_s132_3.1.0.dir/__/__/mesh/serial/src/serial_uart.c.obj
 .text          0x00000000        0x0 examples/serial/CMakeFiles/serial_nrf52832_xxAA_s132_3.1.0.dir/__/__/mesh/serial/src/serial_bearer.c.obj
 .data          0x00000000        0x0 examples/serial/CMakeFiles/serial_nrf52832_xxAA_s132_3.1.0.dir/__/__/mesh/serial/src/serial_bearer.c.obj
 .bss           0x00000000        0x0 examples/serial/CMakeFiles/serial_nrf52832_xxAA_s132_3.1.0.dir/__/__/mesh/serial/src/serial_bearer.c.obj
 .text.serial_bearer_packet_buffer_get
                0x00000000       0x28 examples/serial/CMakeFiles/serial_nrf52832_xxAA_s132_3.1.0.dir/__/__/mesh/serial/src/serial_bearer.c.obj
 .text.serial_bearer_rx_pending
                0x00000000        0xc examples/serial/CMakeFiles/serial_nrf52832_xxAA_s132_3.1.0.dir/__/__/mesh/serial/src/serial_bearer.c.obj
 .text          0x00000000        0x0 examples/serial/CMakeFiles/serial_nrf52832_xxAA_s132_3.1.0.dir/__/__/mesh/serial/src/serial_handler_common.c.obj
 .data          0x00000000        0x0 examples/serial/CMakeFiles/serial_nrf52832_xxAA_s132_3.1.0.dir/__/__/mesh/serial/src/serial_handler_common.c.obj
 .bss           0x00000000        0x0 examples/serial/CMakeFiles/serial_nrf52832_xxAA_s132_3.1.0.dir/__/__/mesh/serial/src/serial_handler_common.c.obj
 .text          0x00000000        0x0 examples/serial/CMakeFiles/serial_nrf52832_xxAA_s132_3.1.0.dir/__/__/mesh/serial/src/serial_handler_access.c.obj
 .data          0x00000000        0x0 examples/serial/CMakeFiles/serial_nrf52832_xxAA_s132_3.1.0.dir/__/__/mesh/serial/src/serial_handler_access.c.obj
 .bss           0x00000000        0x0 examples/serial/CMakeFiles/serial_nrf52832_xxAA_s132_3.1.0.dir/__/__/mesh/serial/src/serial_handler_access.c.obj
 .text          0x00000000        0x0 examples/serial/CMakeFiles/serial_nrf52832_xxAA_s132_3.1.0.dir/__/__/mesh/serial/src/serial_handler_config.c.obj
 .data          0x00000000        0x0 examples/serial/CMakeFiles/serial_nrf52832_xxAA_s132_3.1.0.dir/__/__/mesh/serial/src/serial_handler_config.c.obj
 .bss           0x00000000        0x0 examples/serial/CMakeFiles/serial_nrf52832_xxAA_s132_3.1.0.dir/__/__/mesh/serial/src/serial_handler_config.c.obj
 .text          0x00000000        0x0 examples/serial/CMakeFiles/serial_nrf52832_xxAA_s132_3.1.0.dir/__/__/mesh/serial/src/serial_handler_openmesh.c.obj
 .data          0x00000000        0x0 examples/serial/CMakeFiles/serial_nrf52832_xxAA_s132_3.1.0.dir/__/__/mesh/serial/src/serial_handler_openmesh.c.obj
 .bss           0x00000000        0x0 examples/serial/CMakeFiles/serial_nrf52832_xxAA_s132_3.1.0.dir/__/__/mesh/serial/src/serial_handler_openmesh.c.obj
 .text          0x00000000        0x0 examples/serial/CMakeFiles/serial_nrf52832_xxAA_s132_3.1.0.dir/__/__/mesh/serial/src/serial.c.obj
 .data          0x00000000        0x0 examples/serial/CMakeFiles/serial_nrf52832_xxAA_s132_3.1.0.dir/__/__/mesh/serial/src/serial.c.obj
 .bss           0x00000000        0x0 examples/serial/CMakeFiles/serial_nrf52832_xxAA_s132_3.1.0.dir/__/__/mesh/serial/src/serial.c.obj
 .text          0x00000000        0x0 examples/serial/CMakeFiles/serial_nrf52832_xxAA_s132_3.1.0.dir/__/__/mesh/serial/src/serial_handler_prov.c.obj
 .data          0x00000000        0x0 examples/serial/CMakeFiles/serial_nrf52832_xxAA_s132_3.1.0.dir/__/__/mesh/serial/src/serial_handler_prov.c.obj
 .bss           0x00000000        0x0 examples/serial/CMakeFiles/serial_nrf52832_xxAA_s132_3.1.0.dir/__/__/mesh/serial/src/serial_handler_prov.c.obj
 .text.serial_handler_prov_context_get
                0x00000000       0x1c examples/serial/CMakeFiles/serial_nrf52832_xxAA_s132_3.1.0.dir/__/__/mesh/serial/src/serial_handler_prov.c.obj
 .text.serial_handler_prov_keys_get
                0x00000000       0x14 examples/serial/CMakeFiles/serial_nrf52832_xxAA_s132_3.1.0.dir/__/__/mesh/serial/src/serial_handler_prov.c.obj
 .text.serial_handler_prov_oob_caps_get
                0x00000000        0xc examples/serial/CMakeFiles/serial_nrf52832_xxAA_s132_3.1.0.dir/__/__/mesh/serial/src/serial_handler_prov.c.obj
 .text          0x00000000        0x0 examples/serial/CMakeFiles/serial_nrf52832_xxAA_s132_3.1.0.dir/__/__/mesh/serial/src/serial_handler_dfu.c.obj
 .data          0x00000000        0x0 examples/serial/CMakeFiles/serial_nrf52832_xxAA_s132_3.1.0.dir/__/__/mesh/serial/src/serial_handler_dfu.c.obj
 .bss           0x00000000        0x0 examples/serial/CMakeFiles/serial_nrf52832_xxAA_s132_3.1.0.dir/__/__/mesh/serial/src/serial_handler_dfu.c.obj
 .text          0x00000000        0x0 examples/serial/CMakeFiles/serial_nrf52832_xxAA_s132_3.1.0.dir/__/__/mesh/serial/src/serial_handler_mesh.c.obj
 .data          0x00000000        0x0 examples/serial/CMakeFiles/serial_nrf52832_xxAA_s132_3.1.0.dir/__/__/mesh/serial/src/serial_handler_mesh.c.obj
 .bss           0x00000000        0x0 examples/serial/CMakeFiles/serial_nrf52832_xxAA_s132_3.1.0.dir/__/__/mesh/serial/src/serial_handler_mesh.c.obj
 .text          0x00000000        0x0 examples/serial/CMakeFiles/serial_nrf52832_xxAA_s132_3.1.0.dir/__/__/mesh/serial/src/serial_handler_models.c.obj
 .data          0x00000000        0x0 examples/serial/CMakeFiles/serial_nrf52832_xxAA_s132_3.1.0.dir/__/__/mesh/serial/src/serial_handler_models.c.obj
 .bss           0x00000000        0x0 examples/serial/CMakeFiles/serial_nrf52832_xxAA_s132_3.1.0.dir/__/__/mesh/serial/src/serial_handler_models.c.obj
 .text.serial_handler_models_register
                0x00000000       0x2c examples/serial/CMakeFiles/serial_nrf52832_xxAA_s132_3.1.0.dir/__/__/mesh/serial/src/serial_handler_models.c.obj
 .text          0x00000000        0x0 examples/serial/CMakeFiles/serial_nrf52832_xxAA_s132_3.1.0.dir/__/__/mesh/serial/src/serial_handler_device.c.obj
 .data          0x00000000        0x0 examples/serial/CMakeFiles/serial_nrf52832_xxAA_s132_3.1.0.dir/__/__/mesh/serial/src/serial_handler_device.c.obj
 .bss           0x00000000        0x0 examples/serial/CMakeFiles/serial_nrf52832_xxAA_s132_3.1.0.dir/__/__/mesh/serial/src/serial_handler_device.c.obj
 .text          0x00000000        0x0 examples/serial/CMakeFiles/serial_nrf52832_xxAA_s132_3.1.0.dir/__/__/mesh/serial/src/nrf_mesh_serial.c.obj
 .data          0x00000000        0x0 examples/serial/CMakeFiles/serial_nrf52832_xxAA_s132_3.1.0.dir/__/__/mesh/serial/src/nrf_mesh_serial.c.obj
 .bss           0x00000000        0x0 examples/serial/CMakeFiles/serial_nrf52832_xxAA_s132_3.1.0.dir/__/__/mesh/serial/src/nrf_mesh_serial.c.obj
 .text.nrf_mesh_serial_state_get
                0x00000000        0x4 examples/serial/CMakeFiles/serial_nrf52832_xxAA_s132_3.1.0.dir/__/__/mesh/serial/src/nrf_mesh_serial.c.obj
 .text.nrf_mesh_serial_tx
                0x00000000       0x60 examples/serial/CMakeFiles/serial_nrf52832_xxAA_s132_3.1.0.dir/__/__/mesh/serial/src/nrf_mesh_serial.c.obj
 .text          0x00000000        0x0 examples/serial/CMakeFiles/serial_nrf52832_xxAA_s132_3.1.0.dir/__/__/mesh/serial/src/serial_handler_app.c.obj
 .data          0x00000000        0x0 examples/serial/CMakeFiles/serial_nrf52832_xxAA_s132_3.1.0.dir/__/__/mesh/serial/src/serial_handler_app.c.obj
 .bss           0x00000000        0x0 examples/serial/CMakeFiles/serial_nrf52832_xxAA_s132_3.1.0.dir/__/__/mesh/serial/src/serial_handler_app.c.obj
 .text          0x00000000        0x0 examples/serial/CMakeFiles/serial_nrf52832_xxAA_s132_3.1.0.dir/__/nrf_mesh_weak.c.obj
 .data          0x00000000        0x0 examples/serial/CMakeFiles/serial_nrf52832_xxAA_s132_3.1.0.dir/__/nrf_mesh_weak.c.obj
 .bss           0x00000000        0x0 examples/serial/CMakeFiles/serial_nrf52832_xxAA_s132_3.1.0.dir/__/nrf_mesh_weak.c.obj
 .text._weak_handler_ptr
                0x00000000        0x4 examples/serial/CMakeFiles/serial_nrf52832_xxAA_s132_3.1.0.dir/__/nrf_mesh_weak.c.obj
 .text          0x00000000        0x0 examples/serial/CMakeFiles/serial_nrf52832_xxAA_s132_3.1.0.dir/__/__/external/nRF5_SDK_14.0.0_3bcc1f7/components/toolchain/system_nrf52.c.obj
 .data          0x00000000        0x0 examples/serial/CMakeFiles/serial_nrf52832_xxAA_s132_3.1.0.dir/__/__/external/nRF5_SDK_14.0.0_3bcc1f7/components/toolchain/system_nrf52.c.obj
 .bss           0x00000000        0x0 examples/serial/CMakeFiles/serial_nrf52832_xxAA_s132_3.1.0.dir/__/__/external/nRF5_SDK_14.0.0_3bcc1f7/components/toolchain/system_nrf52.c.obj
 .text.SystemCoreClockUpdate
                0x00000000       0x10 examples/serial/CMakeFiles/serial_nrf52832_xxAA_s132_3.1.0.dir/__/__/external/nRF5_SDK_14.0.0_3bcc1f7/components/toolchain/system_nrf52.c.obj
 .data          0x00000000        0x0 examples/serial/CMakeFiles/serial_nrf52832_xxAA_s132_3.1.0.dir/__/__/external/nRF5_SDK_14.0.0_3bcc1f7/components/toolchain/gcc/gcc_startup_nrf52.S.obj
 .bss           0x00000000        0x0 examples/serial/CMakeFiles/serial_nrf52832_xxAA_s132_3.1.0.dir/__/__/external/nRF5_SDK_14.0.0_3bcc1f7/components/toolchain/gcc/gcc_startup_nrf52.S.obj
 .text          0x00000000        0x0 mesh/core/libmesh_core_nrf52832_xxAA.a(internal_event.c.obj)
 .data          0x00000000        0x0 mesh/core/libmesh_core_nrf52832_xxAA.a(internal_event.c.obj)
 .bss           0x00000000        0x0 mesh/core/libmesh_core_nrf52832_xxAA.a(internal_event.c.obj)
 .text.internal_event_pop
                0x00000000       0x1c mesh/core/libmesh_core_nrf52832_xxAA.a(internal_event.c.obj)
 .text          0x00000000        0x0 mesh/core/libmesh_core_nrf52832_xxAA.a(nrf_mesh_configure.c.obj)
 .data          0x00000000        0x0 mesh/core/libmesh_core_nrf52832_xxAA.a(nrf_mesh_configure.c.obj)
 .bss           0x00000000        0x0 mesh/core/libmesh_core_nrf52832_xxAA.a(nrf_mesh_configure.c.obj)
 .text          0x00000000        0x0 mesh/core/libmesh_core_nrf52832_xxAA.a(event.c.obj)
 .data          0x00000000        0x0 mesh/core/libmesh_core_nrf52832_xxAA.a(event.c.obj)
 .bss           0x00000000        0x0 mesh/core/libmesh_core_nrf52832_xxAA.a(event.c.obj)
 .text.event_handler_remove
                0x00000000       0x6c mesh/core/libmesh_core_nrf52832_xxAA.a(event.c.obj)
 .text          0x00000000        0x0 mesh/core/libmesh_core_nrf52832_xxAA.a(packet_buffer.c.obj)
 .data          0x00000000        0x0 mesh/core/libmesh_core_nrf52832_xxAA.a(packet_buffer.c.obj)
 .bss           0x00000000        0x0 mesh/core/libmesh_core_nrf52832_xxAA.a(packet_buffer.c.obj)
 .text          0x00000000        0x0 mesh/core/libmesh_core_nrf52832_xxAA.a(fifo.c.obj)
 .data          0x00000000        0x0 mesh/core/libmesh_core_nrf52832_xxAA.a(fifo.c.obj)
 .bss           0x00000000        0x0 mesh/core/libmesh_core_nrf52832_xxAA.a(fifo.c.obj)
 .text.fifo_peek_at
                0x00000000       0x54 mesh/core/libmesh_core_nrf52832_xxAA.a(fifo.c.obj)
 .text.fifo_peek
                0x00000000       0x50 mesh/core/libmesh_core_nrf52832_xxAA.a(fifo.c.obj)
 .text.fifo_flush
                0x00000000        0x8 mesh/core/libmesh_core_nrf52832_xxAA.a(fifo.c.obj)
 .text.fifo_get_len
                0x00000000        0x8 mesh/core/libmesh_core_nrf52832_xxAA.a(fifo.c.obj)
 .text.fifo_is_full
                0x00000000       0x14 mesh/core/libmesh_core_nrf52832_xxAA.a(fifo.c.obj)
 .text.fifo_is_empty
                0x00000000       0x10 mesh/core/libmesh_core_nrf52832_xxAA.a(fifo.c.obj)
 .text          0x00000000        0x0 mesh/core/libmesh_core_nrf52832_xxAA.a(net_state.c.obj)
 .data          0x00000000        0x0 mesh/core/libmesh_core_nrf52832_xxAA.a(net_state.c.obj)
 .bss           0x00000000        0x0 mesh/core/libmesh_core_nrf52832_xxAA.a(net_state.c.obj)
 .text.net_state_iv_update_start
                0x00000000       0x90 mesh/core/libmesh_core_nrf52832_xxAA.a(net_state.c.obj)
 .text.net_state_iv_update_test_mode_set
                0x00000000        0xc mesh/core/libmesh_core_nrf52832_xxAA.a(net_state.c.obj)
 .text          0x00000000        0x0 mesh/core/libmesh_core_nrf52832_xxAA.a(nrf_mesh_utils.c.obj)
 .data          0x00000000        0x0 mesh/core/libmesh_core_nrf52832_xxAA.a(nrf_mesh_utils.c.obj)
 .bss           0x00000000        0x0 mesh/core/libmesh_core_nrf52832_xxAA.a(nrf_mesh_utils.c.obj)
 .text.nrf_mesh_rand_get
                0x00000000       0x10 mesh/core/libmesh_core_nrf52832_xxAA.a(nrf_mesh_utils.c.obj)
 .text.nrf_mesh_gap_address_type_get
                0x00000000       0x40 mesh/core/libmesh_core_nrf52832_xxAA.a(nrf_mesh_utils.c.obj)
 .text          0x00000000        0x0 mesh/core/libmesh_core_nrf52832_xxAA.a(nrf_mesh.c.obj)
 .data          0x00000000        0x0 mesh/core/libmesh_core_nrf52832_xxAA.a(nrf_mesh.c.obj)
 .bss           0x00000000        0x0 mesh/core/libmesh_core_nrf52832_xxAA.a(nrf_mesh.c.obj)
 .text.nrf_mesh_evt_handler_remove
                0x00000000        0x4 mesh/core/libmesh_core_nrf52832_xxAA.a(nrf_mesh.c.obj)
 .text.nrf_mesh_rx_cb_set
                0x00000000        0xc mesh/core/libmesh_core_nrf52832_xxAA.a(nrf_mesh.c.obj)
 .text.nrf_mesh_rx_cb_clear
                0x00000000        0xc mesh/core/libmesh_core_nrf52832_xxAA.a(nrf_mesh.c.obj)
 .text          0x00000000        0x0 mesh/core/libmesh_core_nrf52832_xxAA.a(hal.c.obj)
 .data          0x00000000        0x0 mesh/core/libmesh_core_nrf52832_xxAA.a(hal.c.obj)
 .bss           0x00000000        0x0 mesh/core/libmesh_core_nrf52832_xxAA.a(hal.c.obj)
 .text          0x00000000        0x0 mesh/core/libmesh_core_nrf52832_xxAA.a(timer_scheduler.c.obj)
 .data          0x00000000        0x0 mesh/core/libmesh_core_nrf52832_xxAA.a(timer_scheduler.c.obj)
 .bss           0x00000000        0x0 mesh/core/libmesh_core_nrf52832_xxAA.a(timer_scheduler.c.obj)
 .text          0x00000000        0x0 mesh/core/libmesh_core_nrf52832_xxAA.a(timer.c.obj)
 .data          0x00000000        0x0 mesh/core/libmesh_core_nrf52832_xxAA.a(timer.c.obj)
 .bss           0x00000000        0x0 mesh/core/libmesh_core_nrf52832_xxAA.a(timer.c.obj)
 .text.timer_order_cb_ppi
                0x00000000       0xd8 mesh/core/libmesh_core_nrf52832_xxAA.a(timer.c.obj)
 .text.timer_order_ppi
                0x00000000       0x88 mesh/core/libmesh_core_nrf52832_xxAA.a(timer.c.obj)
 .text.timer_abort
                0x00000000       0x84 mesh/core/libmesh_core_nrf52832_xxAA.a(timer.c.obj)
 .text          0x00000000        0x0 mesh/core/libmesh_core_nrf52832_xxAA.a(ticker.c.obj)
 .data          0x00000000        0x0 mesh/core/libmesh_core_nrf52832_xxAA.a(ticker.c.obj)
 .bss           0x00000000        0x0 mesh/core/libmesh_core_nrf52832_xxAA.a(ticker.c.obj)
 .text.ticker_get
                0x00000000        0xc mesh/core/libmesh_core_nrf52832_xxAA.a(ticker.c.obj)
 .text          0x00000000        0x0 mesh/core/libmesh_core_nrf52832_xxAA.a(rand.c.obj)
 .data          0x00000000        0x0 mesh/core/libmesh_core_nrf52832_xxAA.a(rand.c.obj)
 .bss           0x00000000        0x0 mesh/core/libmesh_core_nrf52832_xxAA.a(rand.c.obj)
 .text          0x00000000        0x0 mesh/core/libmesh_core_nrf52832_xxAA.a(nrf_mesh_opt.c.obj)
 .data          0x00000000        0x0 mesh/core/libmesh_core_nrf52832_xxAA.a(nrf_mesh_opt.c.obj)
 .bss           0x00000000        0x0 mesh/core/libmesh_core_nrf52832_xxAA.a(nrf_mesh_opt.c.obj)
 .text.nrf_mesh_opt_get
                0x00000000       0x28 mesh/core/libmesh_core_nrf52832_xxAA.a(nrf_mesh_opt.c.obj)
 .text          0x00000000        0x0 mesh/core/libmesh_core_nrf52832_xxAA.a(timeslot.c.obj)
 .data          0x00000000        0x0 mesh/core/libmesh_core_nrf52832_xxAA.a(timeslot.c.obj)
 .bss           0x00000000        0x0 mesh/core/libmesh_core_nrf52832_xxAA.a(timeslot.c.obj)
 .text.timeslot_restart
                0x00000000       0x30 mesh/core/libmesh_core_nrf52832_xxAA.a(timeslot.c.obj)
 .text.timeslot_end_time_get
                0x00000000       0x30 mesh/core/libmesh_core_nrf52832_xxAA.a(timeslot.c.obj)
 .text.timeslot_is_in_ts
                0x00000000        0xc mesh/core/libmesh_core_nrf52832_xxAA.a(timeslot.c.obj)
 .text          0x00000000        0x0 mesh/core/libmesh_core_nrf52832_xxAA.a(bearer_event.c.obj)
 .data          0x00000000        0x0 mesh/core/libmesh_core_nrf52832_xxAA.a(bearer_event.c.obj)
 .bss           0x00000000        0x0 mesh/core/libmesh_core_nrf52832_xxAA.a(bearer_event.c.obj)
 .text.bearer_event_timer_sch_post
                0x00000000       0x54 mesh/core/libmesh_core_nrf52832_xxAA.a(bearer_event.c.obj)
 .text          0x00000000        0x0 mesh/core/libmesh_core_nrf52832_xxAA.a(enc.c.obj)
 .data          0x00000000        0x0 mesh/core/libmesh_core_nrf52832_xxAA.a(enc.c.obj)
 .bss           0x00000000        0x0 mesh/core/libmesh_core_nrf52832_xxAA.a(enc.c.obj)
 .text.enc_key_generate
                0x00000000        0x8 mesh/core/libmesh_core_nrf52832_xxAA.a(enc.c.obj)
 .text          0x00000000        0x0 mesh/core/libmesh_core_nrf52832_xxAA.a(network.c.obj)
 .data          0x00000000        0x0 mesh/core/libmesh_core_nrf52832_xxAA.a(network.c.obj)
 .bss           0x00000000        0x0 mesh/core/libmesh_core_nrf52832_xxAA.a(network.c.obj)
 .text.network_opt_get
                0x00000000       0x4c mesh/core/libmesh_core_nrf52832_xxAA.a(network.c.obj)
 .text.network_packet_discard
                0x00000000       0x4c mesh/core/libmesh_core_nrf52832_xxAA.a(network.c.obj)
 .text          0x00000000        0x0 mesh/core/libmesh_core_nrf52832_xxAA.a(nrf_mesh_keygen.c.obj)
 .data          0x00000000        0x0 mesh/core/libmesh_core_nrf52832_xxAA.a(nrf_mesh_keygen.c.obj)
 .bss           0x00000000        0x0 mesh/core/libmesh_core_nrf52832_xxAA.a(nrf_mesh_keygen.c.obj)
 .text.nrf_mesh_keygen_identitykey
                0x00000000       0x4c mesh/core/libmesh_core_nrf52832_xxAA.a(nrf_mesh_keygen.c.obj)
 .text          0x00000000        0x0 mesh/core/libmesh_core_nrf52832_xxAA.a(log.c.obj)
 .data          0x00000000        0x0 mesh/core/libmesh_core_nrf52832_xxAA.a(log.c.obj)
 .bss           0x00000000        0x0 mesh/core/libmesh_core_nrf52832_xxAA.a(log.c.obj)
 .text.log_callback_logview
                0x00000000       0x38 mesh/core/libmesh_core_nrf52832_xxAA.a(log.c.obj)
 .text.log_set_callback
                0x00000000        0xc mesh/core/libmesh_core_nrf52832_xxAA.a(log.c.obj)
 .text.log_vprintf
                0x00000000       0x18 mesh/core/libmesh_core_nrf52832_xxAA.a(log.c.obj)
 .rodata.log_callback_logview.str1.4
                0x00000000       0x12 mesh/core/libmesh_core_nrf52832_xxAA.a(log.c.obj)
 .text          0x00000000        0x0 mesh/core/libmesh_core_nrf52832_xxAA.a(flash_manager.c.obj)
 .data          0x00000000        0x0 mesh/core/libmesh_core_nrf52832_xxAA.a(flash_manager.c.obj)
 .bss           0x00000000        0x0 mesh/core/libmesh_core_nrf52832_xxAA.a(flash_manager.c.obj)
 .text.flash_manager_entry_get
                0x00000000       0x54 mesh/core/libmesh_core_nrf52832_xxAA.a(flash_manager.c.obj)
 .text.flash_manager_entry_count_get
                0x00000000      0x110 mesh/core/libmesh_core_nrf52832_xxAA.a(flash_manager.c.obj)
 .text.flash_manager_entry_release
                0x00000000       0xb4 mesh/core/libmesh_core_nrf52832_xxAA.a(flash_manager.c.obj)
 .text          0x00000000        0x0 mesh/core/libmesh_core_nrf52832_xxAA.a(ccm_soft.c.obj)
 .data          0x00000000        0x0 mesh/core/libmesh_core_nrf52832_xxAA.a(ccm_soft.c.obj)
 .bss           0x00000000        0x0 mesh/core/libmesh_core_nrf52832_xxAA.a(ccm_soft.c.obj)
 .text          0x00000000        0x0 mesh/core/libmesh_core_nrf52832_xxAA.a(beacon.c.obj)
 .data          0x00000000        0x0 mesh/core/libmesh_core_nrf52832_xxAA.a(beacon.c.obj)
 .bss           0x00000000        0x0 mesh/core/libmesh_core_nrf52832_xxAA.a(beacon.c.obj)
 .text          0x00000000        0x0 mesh/core/libmesh_core_nrf52832_xxAA.a(flash_manager_internal.c.obj)
 .data          0x00000000        0x0 mesh/core/libmesh_core_nrf52832_xxAA.a(flash_manager_internal.c.obj)
 .bss           0x00000000        0x0 mesh/core/libmesh_core_nrf52832_xxAA.a(flash_manager_internal.c.obj)
 .text          0x00000000        0x0 mesh/core/libmesh_core_nrf52832_xxAA.a(core_tx.c.obj)
 .data          0x00000000        0x0 mesh/core/libmesh_core_nrf52832_xxAA.a(core_tx.c.obj)
 .bss           0x00000000        0x0 mesh/core/libmesh_core_nrf52832_xxAA.a(core_tx.c.obj)
 .text.core_tx_adv_count_get
                0x00000000       0x2c mesh/core/libmesh_core_nrf52832_xxAA.a(core_tx.c.obj)
 .text.core_tx_adv_interval_get
                0x00000000       0x38 mesh/core/libmesh_core_nrf52832_xxAA.a(core_tx.c.obj)
 .text.core_tx_adv_address_set
                0x00000000       0x34 mesh/core/libmesh_core_nrf52832_xxAA.a(core_tx.c.obj)
 .text          0x00000000        0x0 mesh/core/libmesh_core_nrf52832_xxAA.a(net_beacon.c.obj)
 .data          0x00000000        0x0 mesh/core/libmesh_core_nrf52832_xxAA.a(net_beacon.c.obj)
 .bss           0x00000000        0x0 mesh/core/libmesh_core_nrf52832_xxAA.a(net_beacon.c.obj)
 .text.net_beacon_state_set
                0x00000000       0x3c mesh/core/libmesh_core_nrf52832_xxAA.a(net_beacon.c.obj)
 .text.net_beacon_state_get
                0x00000000        0xc mesh/core/libmesh_core_nrf52832_xxAA.a(net_beacon.c.obj)
 .text          0x00000000        0x0 mesh/core/libmesh_core_nrf52832_xxAA.a(advertiser.c.obj)
 .data          0x00000000        0x0 mesh/core/libmesh_core_nrf52832_xxAA.a(advertiser.c.obj)
 .bss           0x00000000        0x0 mesh/core/libmesh_core_nrf52832_xxAA.a(advertiser.c.obj)
 .text.advertiser_config_set
                0x00000000      0x12c mesh/core/libmesh_core_nrf52832_xxAA.a(advertiser.c.obj)
 .text.advertiser_address_set
                0x00000000       0x80 mesh/core/libmesh_core_nrf52832_xxAA.a(advertiser.c.obj)
 .text.advertiser_config_get
                0x00000000       0x30 mesh/core/libmesh_core_nrf52832_xxAA.a(advertiser.c.obj)
 .text          0x00000000        0x0 mesh/core/libmesh_core_nrf52832_xxAA.a(bearer_handler.c.obj)
 .data          0x00000000        0x0 mesh/core/libmesh_core_nrf52832_xxAA.a(bearer_handler.c.obj)
 .bss           0x00000000        0x0 mesh/core/libmesh_core_nrf52832_xxAA.a(bearer_handler.c.obj)
 .text.bearer_handler_action_fire
                0x00000000       0xb0 mesh/core/libmesh_core_nrf52832_xxAA.a(bearer_handler.c.obj)
 .text          0x00000000        0x0 mesh/core/libmesh_core_nrf52832_xxAA.a(broadcast.c.obj)
 .data          0x00000000        0x0 mesh/core/libmesh_core_nrf52832_xxAA.a(broadcast.c.obj)
 .bss           0x00000000        0x0 mesh/core/libmesh_core_nrf52832_xxAA.a(broadcast.c.obj)
 .text          0x00000000        0x0 mesh/core/libmesh_core_nrf52832_xxAA.a(radio_config.c.obj)
 .data          0x00000000        0x0 mesh/core/libmesh_core_nrf52832_xxAA.a(radio_config.c.obj)
 .bss           0x00000000        0x0 mesh/core/libmesh_core_nrf52832_xxAA.a(radio_config.c.obj)
 .text.radio_config_access_addr_get
                0x00000000       0x6c mesh/core/libmesh_core_nrf52832_xxAA.a(radio_config.c.obj)
 .text          0x00000000        0x0 mesh/core/libmesh_core_nrf52832_xxAA.a(scanner.c.obj)
 .data          0x00000000        0x0 mesh/core/libmesh_core_nrf52832_xxAA.a(scanner.c.obj)
 .bss           0x00000000        0x0 mesh/core/libmesh_core_nrf52832_xxAA.a(scanner.c.obj)
 .text.scanner_is_enabled
                0x00000000       0x14 mesh/core/libmesh_core_nrf52832_xxAA.a(scanner.c.obj)
 .text.scanner_stats_get
                0x00000000        0x8 mesh/core/libmesh_core_nrf52832_xxAA.a(scanner.c.obj)
 .text.scanner_config_radio_mode_set
                0x00000000       0x10 mesh/core/libmesh_core_nrf52832_xxAA.a(scanner.c.obj)
 .text.scanner_config_scan_time_set
                0x00000000       0x94 mesh/core/libmesh_core_nrf52832_xxAA.a(scanner.c.obj)
 .text.scanner_config_channels_set
                0x00000000       0x64 mesh/core/libmesh_core_nrf52832_xxAA.a(scanner.c.obj)
 .text.scanner_config_access_addresses_set
                0x00000000       0x44 mesh/core/libmesh_core_nrf52832_xxAA.a(scanner.c.obj)
 .text          0x00000000        0x0 mesh/core/libmesh_core_nrf52832_xxAA.a(aes.c.obj)
 .data          0x00000000        0x0 mesh/core/libmesh_core_nrf52832_xxAA.a(aes.c.obj)
 .bss           0x00000000        0x0 mesh/core/libmesh_core_nrf52832_xxAA.a(aes.c.obj)
 .text          0x00000000        0x0 mesh/core/libmesh_core_nrf52832_xxAA.a(msg_cache.c.obj)
 .data          0x00000000        0x0 mesh/core/libmesh_core_nrf52832_xxAA.a(msg_cache.c.obj)
 .bss           0x00000000        0x0 mesh/core/libmesh_core_nrf52832_xxAA.a(msg_cache.c.obj)
 .text.msg_cache_clear
                0x00000000       0x18 mesh/core/libmesh_core_nrf52832_xxAA.a(msg_cache.c.obj)
 .text          0x00000000        0x0 mesh/core/libmesh_core_nrf52832_xxAA.a(transport.c.obj)
 .data          0x00000000        0x0 mesh/core/libmesh_core_nrf52832_xxAA.a(transport.c.obj)
 .bss           0x00000000        0x0 mesh/core/libmesh_core_nrf52832_xxAA.a(transport.c.obj)
 .text.transport_sar_mem_funcs_reset
                0x00000000       0x30 mesh/core/libmesh_core_nrf52832_xxAA.a(transport.c.obj)
 .text.transport_sar_mem_funcs_set
                0x00000000       0x48 mesh/core/libmesh_core_nrf52832_xxAA.a(transport.c.obj)
 .text.transport_opt_get
                0x00000000       0x84 mesh/core/libmesh_core_nrf52832_xxAA.a(transport.c.obj)
 .text          0x00000000        0x0 mesh/core/libmesh_core_nrf52832_xxAA.a(flash_manager_defrag.c.obj)
 .data          0x00000000        0x0 mesh/core/libmesh_core_nrf52832_xxAA.a(flash_manager_defrag.c.obj)
 .bss           0x00000000        0x0 mesh/core/libmesh_core_nrf52832_xxAA.a(flash_manager_defrag.c.obj)
 .text.flash_manager_defragging
                0x00000000       0x50 mesh/core/libmesh_core_nrf52832_xxAA.a(flash_manager_defrag.c.obj)
 .text          0x00000000        0x0 mesh/core/libmesh_core_nrf52832_xxAA.a(packet_mgr.c.obj)
 .data          0x00000000        0x0 mesh/core/libmesh_core_nrf52832_xxAA.a(packet_mgr.c.obj)
 .bss           0x00000000        0x0 mesh/core/libmesh_core_nrf52832_xxAA.a(packet_mgr.c.obj)
 .text.packet_mgr_alloc
                0x00000000      0x1dc mesh/core/libmesh_core_nrf52832_xxAA.a(packet_mgr.c.obj)
 .text.packet_mgr_free
                0x00000000       0x70 mesh/core/libmesh_core_nrf52832_xxAA.a(packet_mgr.c.obj)
 .text.packet_mgr_get_free_space
                0x00000000       0x1c mesh/core/libmesh_core_nrf52832_xxAA.a(packet_mgr.c.obj)
 .text.packet_mgr_refcount_get
                0x00000000        0x8 mesh/core/libmesh_core_nrf52832_xxAA.a(packet_mgr.c.obj)
 .text.packet_mgr_size_get
                0x00000000        0x8 mesh/core/libmesh_core_nrf52832_xxAA.a(packet_mgr.c.obj)
 .text          0x00000000        0x0 mesh/core/libmesh_core_nrf52832_xxAA.a(mesh_flash.c.obj)
 .data          0x00000000        0x0 mesh/core/libmesh_core_nrf52832_xxAA.a(mesh_flash.c.obj)
 .bss           0x00000000        0x0 mesh/core/libmesh_core_nrf52832_xxAA.a(mesh_flash.c.obj)
 .text.mesh_flash_op_available_slots
                0x00000000       0x2c mesh/core/libmesh_core_nrf52832_xxAA.a(mesh_flash.c.obj)
 .text.mesh_flash_in_progress
                0x00000000       0x34 mesh/core/libmesh_core_nrf52832_xxAA.a(mesh_flash.c.obj)
 .text.mesh_flash_set_suspended
                0x00000000       0x90 mesh/core/libmesh_core_nrf52832_xxAA.a(mesh_flash.c.obj)
 .bss.suspend_count.9861
                0x00000000        0x4 mesh/core/libmesh_core_nrf52832_xxAA.a(mesh_flash.c.obj)
 .text          0x00000000        0x0 mesh/core/libmesh_core_nrf52832_xxAA.a(queue.c.obj)
 .data          0x00000000        0x0 mesh/core/libmesh_core_nrf52832_xxAA.a(queue.c.obj)
 .bss           0x00000000        0x0 mesh/core/libmesh_core_nrf52832_xxAA.a(queue.c.obj)
 .text          0x00000000        0x0 mesh/core/libmesh_core_nrf52832_xxAA.a(aes_cmac.c.obj)
 .data          0x00000000        0x0 mesh/core/libmesh_core_nrf52832_xxAA.a(aes_cmac.c.obj)
 .bss           0x00000000        0x0 mesh/core/libmesh_core_nrf52832_xxAA.a(aes_cmac.c.obj)
 .text          0x00000000        0x0 mesh/core/libmesh_core_nrf52832_xxAA.a(msqueue.c.obj)
 .data          0x00000000        0x0 mesh/core/libmesh_core_nrf52832_xxAA.a(msqueue.c.obj)
 .bss           0x00000000        0x0 mesh/core/libmesh_core_nrf52832_xxAA.a(msqueue.c.obj)
 .text.msq_reset
                0x00000000       0x34 mesh/core/libmesh_core_nrf52832_xxAA.a(msqueue.c.obj)
 .text          0x00000000        0x0 mesh/core/libmesh_core_nrf52832_xxAA.a(replay_cache.c.obj)
 .data          0x00000000        0x0 mesh/core/libmesh_core_nrf52832_xxAA.a(replay_cache.c.obj)
 .bss           0x00000000        0x0 mesh/core/libmesh_core_nrf52832_xxAA.a(replay_cache.c.obj)
 .text.replay_cache_on_iv_update
                0x00000000       0x2c mesh/core/libmesh_core_nrf52832_xxAA.a(replay_cache.c.obj)
 .text.replay_cache_clear
                0x00000000       0x28 mesh/core/libmesh_core_nrf52832_xxAA.a(replay_cache.c.obj)
 .text          0x00000000        0x0 mesh/core/libmesh_core_nrf52832_xxAA.a(filter_engine.c.obj)
 .data          0x00000000        0x0 mesh/core/libmesh_core_nrf52832_xxAA.a(filter_engine.c.obj)
 .bss           0x00000000        0x0 mesh/core/libmesh_core_nrf52832_xxAA.a(filter_engine.c.obj)
 .text.fen_filter_start
                0x00000000       0x84 mesh/core/libmesh_core_nrf52832_xxAA.a(filter_engine.c.obj)
 .text.fen_filter_stop
                0x00000000       0x70 mesh/core/libmesh_core_nrf52832_xxAA.a(filter_engine.c.obj)
 .text.fen_accepted_amount_get
                0x00000000        0xc mesh/core/libmesh_core_nrf52832_xxAA.a(filter_engine.c.obj)
 .text          0x00000000        0x0 mesh/core/libmesh_core_nrf52832_xxAA.a(nrf_flash.c.obj)
 .data          0x00000000        0x0 mesh/core/libmesh_core_nrf52832_xxAA.a(nrf_flash.c.obj)
 .bss           0x00000000        0x0 mesh/core/libmesh_core_nrf52832_xxAA.a(nrf_flash.c.obj)
 .text          0x00000000        0x0 external/micro-ecc/libuECC_nrf52832_xxAA.a(uECC.c.obj)
 .data          0x00000000        0x0 external/micro-ecc/libuECC_nrf52832_xxAA.a(uECC.c.obj)
 .bss           0x00000000        0x0 external/micro-ecc/libuECC_nrf52832_xxAA.a(uECC.c.obj)
 .text.HMAC_finish
                0x00000000       0x70 external/micro-ecc/libuECC_nrf52832_xxAA.a(uECC.c.obj)
 .text.uECC_vli_mmod
                0x00000000      0x3c8 external/micro-ecc/libuECC_nrf52832_xxAA.a(uECC.c.obj)
 .text.uECC_vli_modSub.isra.2
                0x00000000       0x98 external/micro-ecc/libuECC_nrf52832_xxAA.a(uECC.c.obj)
 .text.bits2int
                0x00000000      0x14c external/micro-ecc/libuECC_nrf52832_xxAA.a(uECC.c.obj)
 .text.uECC_sign_with_k
                0x00000000      0x60c external/micro-ecc/libuECC_nrf52832_xxAA.a(uECC.c.obj)
 .text.uECC_set_rng
                0x00000000        0xc external/micro-ecc/libuECC_nrf52832_xxAA.a(uECC.c.obj)
 .text.uECC_get_rng
                0x00000000        0xc external/micro-ecc/libuECC_nrf52832_xxAA.a(uECC.c.obj)
 .text.uECC_curve_private_key_size
                0x00000000       0x10 external/micro-ecc/libuECC_nrf52832_xxAA.a(uECC.c.obj)
 .text.uECC_curve_public_key_size
                0x00000000        0x8 external/micro-ecc/libuECC_nrf52832_xxAA.a(uECC.c.obj)
 .text.uECC_compute_public_key
                0x00000000      0x2e4 external/micro-ecc/libuECC_nrf52832_xxAA.a(uECC.c.obj)
 .text.uECC_sign
                0x00000000       0x60 external/micro-ecc/libuECC_nrf52832_xxAA.a(uECC.c.obj)
 .text.uECC_sign_deterministic
                0x00000000      0x400 external/micro-ecc/libuECC_nrf52832_xxAA.a(uECC.c.obj)
 .text.uECC_verify
                0x00000000      0x95c external/micro-ecc/libuECC_nrf52832_xxAA.a(uECC.c.obj)
 .text          0x00000000        0x0 external/rtt/librtt_nrf52832_xxAA.a(SEGGER_RTT.c.obj)
 .data          0x00000000        0x0 external/rtt/librtt_nrf52832_xxAA.a(SEGGER_RTT.c.obj)
 .bss           0x00000000        0x0 external/rtt/librtt_nrf52832_xxAA.a(SEGGER_RTT.c.obj)
 .text.SEGGER_RTT_ReadNoLock
                0x00000000      0x100 external/rtt/librtt_nrf52832_xxAA.a(SEGGER_RTT.c.obj)
 .text.SEGGER_RTT_Read
                0x00000000      0x114 external/rtt/librtt_nrf52832_xxAA.a(SEGGER_RTT.c.obj)
 .text.SEGGER_RTT_WriteSkipNoLock
                0x00000000      0x184 external/rtt/librtt_nrf52832_xxAA.a(SEGGER_RTT.c.obj)
 .text.SEGGER_RTT_WriteNoLock
                0x00000000      0x188 external/rtt/librtt_nrf52832_xxAA.a(SEGGER_RTT.c.obj)
 .text.SEGGER_RTT_WriteString
                0x00000000      0x20c external/rtt/librtt_nrf52832_xxAA.a(SEGGER_RTT.c.obj)
 .text.SEGGER_RTT_GetKey
                0x00000000       0xec external/rtt/librtt_nrf52832_xxAA.a(SEGGER_RTT.c.obj)
 .text.SEGGER_RTT_WaitKey
                0x00000000      0x114 external/rtt/librtt_nrf52832_xxAA.a(SEGGER_RTT.c.obj)
 .text.SEGGER_RTT_HasKey
                0x00000000       0x6c external/rtt/librtt_nrf52832_xxAA.a(SEGGER_RTT.c.obj)
 .text.SEGGER_RTT_HasData
                0x00000000       0x18 external/rtt/librtt_nrf52832_xxAA.a(SEGGER_RTT.c.obj)
 .text.SEGGER_RTT_AllocDownBuffer
                0x00000000       0xbc external/rtt/librtt_nrf52832_xxAA.a(SEGGER_RTT.c.obj)
 .text.SEGGER_RTT_AllocUpBuffer
                0x00000000       0xd8 external/rtt/librtt_nrf52832_xxAA.a(SEGGER_RTT.c.obj)
 .text.SEGGER_RTT_ConfigUpBuffer
                0x00000000       0xd0 external/rtt/librtt_nrf52832_xxAA.a(SEGGER_RTT.c.obj)
 .text.SEGGER_RTT_ConfigDownBuffer
                0x00000000       0xb8 external/rtt/librtt_nrf52832_xxAA.a(SEGGER_RTT.c.obj)
 .text.SEGGER_RTT_SetNameUpBuffer
                0x00000000       0x90 external/rtt/librtt_nrf52832_xxAA.a(SEGGER_RTT.c.obj)
 .text.SEGGER_RTT_SetNameDownBuffer
                0x00000000       0x90 external/rtt/librtt_nrf52832_xxAA.a(SEGGER_RTT.c.obj)
 .text.SEGGER_RTT_Init
                0x00000000       0x60 external/rtt/librtt_nrf52832_xxAA.a(SEGGER_RTT.c.obj)
 .text.SEGGER_RTT_SetTerminal
                0x00000000      0x15c external/rtt/librtt_nrf52832_xxAA.a(SEGGER_RTT.c.obj)
 .text.SEGGER_RTT_TerminalOut
                0x00000000      0x40c external/rtt/librtt_nrf52832_xxAA.a(SEGGER_RTT.c.obj)
 .bss._ActiveTerminal
                0x00000000        0x1 external/rtt/librtt_nrf52832_xxAA.a(SEGGER_RTT.c.obj)
 .rodata._aTerminalId
                0x00000000       0x10 external/rtt/librtt_nrf52832_xxAA.a(SEGGER_RTT.c.obj)
 .text          0x00000000        0x0 external/rtt/librtt_nrf52832_xxAA.a(SEGGER_RTT_printf.c.obj)
 .data          0x00000000        0x0 external/rtt/librtt_nrf52832_xxAA.a(SEGGER_RTT_printf.c.obj)
 .bss           0x00000000        0x0 external/rtt/librtt_nrf52832_xxAA.a(SEGGER_RTT_printf.c.obj)
 .text          0x00000000        0x0 c:/a/gcc_arm/6/bin/../lib/gcc/arm-none-eabi/6.3.1/../../../../arm-none-eabi/lib/thumb/v7e-m/fpv4-sp/hard\libg_nano.a(lib_a-exit.o)
 .data          0x00000000        0x0 c:/a/gcc_arm/6/bin/../lib/gcc/arm-none-eabi/6.3.1/../../../../arm-none-eabi/lib/thumb/v7e-m/fpv4-sp/hard\libg_nano.a(lib_a-exit.o)
 .bss           0x00000000        0x0 c:/a/gcc_arm/6/bin/../lib/gcc/arm-none-eabi/6.3.1/../../../../arm-none-eabi/lib/thumb/v7e-m/fpv4-sp/hard\libg_nano.a(lib_a-exit.o)
 .text          0x00000000        0x0 c:/a/gcc_arm/6/bin/../lib/gcc/arm-none-eabi/6.3.1/../../../../arm-none-eabi/lib/thumb/v7e-m/fpv4-sp/hard\libg_nano.a(lib_a-impure.o)
 .data          0x00000000        0x0 c:/a/gcc_arm/6/bin/../lib/gcc/arm-none-eabi/6.3.1/../../../../arm-none-eabi/lib/thumb/v7e-m/fpv4-sp/hard\libg_nano.a(lib_a-impure.o)
 .bss           0x00000000        0x0 c:/a/gcc_arm/6/bin/../lib/gcc/arm-none-eabi/6.3.1/../../../../arm-none-eabi/lib/thumb/v7e-m/fpv4-sp/hard\libg_nano.a(lib_a-impure.o)
 .text          0x00000000        0x0 c:/a/gcc_arm/6/bin/../lib/gcc/arm-none-eabi/6.3.1/../../../../arm-none-eabi/lib/thumb/v7e-m/fpv4-sp/hard\libg_nano.a(lib_a-init.o)
 .data          0x00000000        0x0 c:/a/gcc_arm/6/bin/../lib/gcc/arm-none-eabi/6.3.1/../../../../arm-none-eabi/lib/thumb/v7e-m/fpv4-sp/hard\libg_nano.a(lib_a-init.o)
 .bss           0x00000000        0x0 c:/a/gcc_arm/6/bin/../lib/gcc/arm-none-eabi/6.3.1/../../../../arm-none-eabi/lib/thumb/v7e-m/fpv4-sp/hard\libg_nano.a(lib_a-init.o)
 .text          0x00000000        0x0 c:/a/gcc_arm/6/bin/../lib/gcc/arm-none-eabi/6.3.1/../../../../arm-none-eabi/lib/thumb/v7e-m/fpv4-sp/hard\libg_nano.a(lib_a-malloc.o)
 .data          0x00000000        0x0 c:/a/gcc_arm/6/bin/../lib/gcc/arm-none-eabi/6.3.1/../../../../arm-none-eabi/lib/thumb/v7e-m/fpv4-sp/hard\libg_nano.a(lib_a-malloc.o)
 .bss           0x00000000        0x0 c:/a/gcc_arm/6/bin/../lib/gcc/arm-none-eabi/6.3.1/../../../../arm-none-eabi/lib/thumb/v7e-m/fpv4-sp/hard\libg_nano.a(lib_a-malloc.o)
 .text          0x00000000        0x0 c:/a/gcc_arm/6/bin/../lib/gcc/arm-none-eabi/6.3.1/../../../../arm-none-eabi/lib/thumb/v7e-m/fpv4-sp/hard\libg_nano.a(lib_a-memcmp.o)
 .data          0x00000000        0x0 c:/a/gcc_arm/6/bin/../lib/gcc/arm-none-eabi/6.3.1/../../../../arm-none-eabi/lib/thumb/v7e-m/fpv4-sp/hard\libg_nano.a(lib_a-memcmp.o)
 .bss           0x00000000        0x0 c:/a/gcc_arm/6/bin/../lib/gcc/arm-none-eabi/6.3.1/../../../../arm-none-eabi/lib/thumb/v7e-m/fpv4-sp/hard\libg_nano.a(lib_a-memcmp.o)
 .text          0x00000000        0x0 c:/a/gcc_arm/6/bin/../lib/gcc/arm-none-eabi/6.3.1/../../../../arm-none-eabi/lib/thumb/v7e-m/fpv4-sp/hard\libg_nano.a(lib_a-memcpy-stub.o)
 .data          0x00000000        0x0 c:/a/gcc_arm/6/bin/../lib/gcc/arm-none-eabi/6.3.1/../../../../arm-none-eabi/lib/thumb/v7e-m/fpv4-sp/hard\libg_nano.a(lib_a-memcpy-stub.o)
 .bss           0x00000000        0x0 c:/a/gcc_arm/6/bin/../lib/gcc/arm-none-eabi/6.3.1/../../../../arm-none-eabi/lib/thumb/v7e-m/fpv4-sp/hard\libg_nano.a(lib_a-memcpy-stub.o)
 .text          0x00000000        0x0 c:/a/gcc_arm/6/bin/../lib/gcc/arm-none-eabi/6.3.1/../../../../arm-none-eabi/lib/thumb/v7e-m/fpv4-sp/hard\libg_nano.a(lib_a-memset.o)
 .data          0x00000000        0x0 c:/a/gcc_arm/6/bin/../lib/gcc/arm-none-eabi/6.3.1/../../../../arm-none-eabi/lib/thumb/v7e-m/fpv4-sp/hard\libg_nano.a(lib_a-memset.o)
 .bss           0x00000000        0x0 c:/a/gcc_arm/6/bin/../lib/gcc/arm-none-eabi/6.3.1/../../../../arm-none-eabi/lib/thumb/v7e-m/fpv4-sp/hard\libg_nano.a(lib_a-memset.o)
 .text          0x00000000        0x0 c:/a/gcc_arm/6/bin/../lib/gcc/arm-none-eabi/6.3.1/../../../../arm-none-eabi/lib/thumb/v7e-m/fpv4-sp/hard\libg_nano.a(lib_a-nano-freer.o)
 .data          0x00000000        0x0 c:/a/gcc_arm/6/bin/../lib/gcc/arm-none-eabi/6.3.1/../../../../arm-none-eabi/lib/thumb/v7e-m/fpv4-sp/hard\libg_nano.a(lib_a-nano-freer.o)
 .bss           0x00000000        0x0 c:/a/gcc_arm/6/bin/../lib/gcc/arm-none-eabi/6.3.1/../../../../arm-none-eabi/lib/thumb/v7e-m/fpv4-sp/hard\libg_nano.a(lib_a-nano-freer.o)
 .text          0x00000000        0x0 c:/a/gcc_arm/6/bin/../lib/gcc/arm-none-eabi/6.3.1/../../../../arm-none-eabi/lib/thumb/v7e-m/fpv4-sp/hard\libg_nano.a(lib_a-nano-mallocr.o)
 .data          0x00000000        0x0 c:/a/gcc_arm/6/bin/../lib/gcc/arm-none-eabi/6.3.1/../../../../arm-none-eabi/lib/thumb/v7e-m/fpv4-sp/hard\libg_nano.a(lib_a-nano-mallocr.o)
 .bss           0x00000000        0x0 c:/a/gcc_arm/6/bin/../lib/gcc/arm-none-eabi/6.3.1/../../../../arm-none-eabi/lib/thumb/v7e-m/fpv4-sp/hard\libg_nano.a(lib_a-nano-mallocr.o)
 .text          0x00000000        0x0 c:/a/gcc_arm/6/bin/../lib/gcc/arm-none-eabi/6.3.1/../../../../arm-none-eabi/lib/thumb/v7e-m/fpv4-sp/hard\libg_nano.a(lib_a-sbrkr.o)
 .data          0x00000000        0x0 c:/a/gcc_arm/6/bin/../lib/gcc/arm-none-eabi/6.3.1/../../../../arm-none-eabi/lib/thumb/v7e-m/fpv4-sp/hard\libg_nano.a(lib_a-sbrkr.o)
 .bss           0x00000000        0x0 c:/a/gcc_arm/6/bin/../lib/gcc/arm-none-eabi/6.3.1/../../../../arm-none-eabi/lib/thumb/v7e-m/fpv4-sp/hard\libg_nano.a(lib_a-sbrkr.o)
 .text          0x00000000        0x0 c:/a/gcc_arm/6/bin/../lib/gcc/arm-none-eabi/6.3.1/../../../../arm-none-eabi/lib/thumb/v7e-m/fpv4-sp/hard\libg_nano.a(lib_a-strcpy.o)
 .data          0x00000000        0x0 c:/a/gcc_arm/6/bin/../lib/gcc/arm-none-eabi/6.3.1/../../../../arm-none-eabi/lib/thumb/v7e-m/fpv4-sp/hard\libg_nano.a(lib_a-strcpy.o)
 .bss           0x00000000        0x0 c:/a/gcc_arm/6/bin/../lib/gcc/arm-none-eabi/6.3.1/../../../../arm-none-eabi/lib/thumb/v7e-m/fpv4-sp/hard\libg_nano.a(lib_a-strcpy.o)
 .data          0x00000000        0x0 c:/a/gcc_arm/6/bin/../lib/gcc/arm-none-eabi/6.3.1/../../../../arm-none-eabi/lib/thumb/v7e-m/fpv4-sp/hard\libg_nano.a(lib_a-strlen.o)
 .bss           0x00000000        0x0 c:/a/gcc_arm/6/bin/../lib/gcc/arm-none-eabi/6.3.1/../../../../arm-none-eabi/lib/thumb/v7e-m/fpv4-sp/hard\libg_nano.a(lib_a-strlen.o)
 .text          0x00000000        0x0 c:/a/gcc_arm/6/bin/../lib/gcc/arm-none-eabi/6.3.1/../../../../arm-none-eabi/lib/thumb/v7e-m/fpv4-sp/hard\libg_nano.a(lib_a-strrchr.o)
 .data          0x00000000        0x0 c:/a/gcc_arm/6/bin/../lib/gcc/arm-none-eabi/6.3.1/../../../../arm-none-eabi/lib/thumb/v7e-m/fpv4-sp/hard\libg_nano.a(lib_a-strrchr.o)
 .bss           0x00000000        0x0 c:/a/gcc_arm/6/bin/../lib/gcc/arm-none-eabi/6.3.1/../../../../arm-none-eabi/lib/thumb/v7e-m/fpv4-sp/hard\libg_nano.a(lib_a-strrchr.o)
 .text          0x00000000        0x0 c:/a/gcc_arm/6/bin/../lib/gcc/arm-none-eabi/6.3.1/../../../../arm-none-eabi/lib/thumb/v7e-m/fpv4-sp/hard\libg_nano.a(lib_a-mlock.o)
 .data          0x00000000        0x0 c:/a/gcc_arm/6/bin/../lib/gcc/arm-none-eabi/6.3.1/../../../../arm-none-eabi/lib/thumb/v7e-m/fpv4-sp/hard\libg_nano.a(lib_a-mlock.o)
 .bss           0x00000000        0x0 c:/a/gcc_arm/6/bin/../lib/gcc/arm-none-eabi/6.3.1/../../../../arm-none-eabi/lib/thumb/v7e-m/fpv4-sp/hard\libg_nano.a(lib_a-mlock.o)
 .text          0x00000000        0x0 c:/a/gcc_arm/6/bin/../lib/gcc/arm-none-eabi/6.3.1/../../../../arm-none-eabi/lib/thumb/v7e-m/fpv4-sp/hard\libg_nano.a(lib_a-reent.o)
 .data          0x00000000        0x0 c:/a/gcc_arm/6/bin/../lib/gcc/arm-none-eabi/6.3.1/../../../../arm-none-eabi/lib/thumb/v7e-m/fpv4-sp/hard\libg_nano.a(lib_a-reent.o)
 .bss           0x00000000        0x0 c:/a/gcc_arm/6/bin/../lib/gcc/arm-none-eabi/6.3.1/../../../../arm-none-eabi/lib/thumb/v7e-m/fpv4-sp/hard\libg_nano.a(lib_a-reent.o)
 .text.cleanup_glue
                0x00000000       0x1a c:/a/gcc_arm/6/bin/../lib/gcc/arm-none-eabi/6.3.1/../../../../arm-none-eabi/lib/thumb/v7e-m/fpv4-sp/hard\libg_nano.a(lib_a-reent.o)
 .text._reclaim_reent
                0x00000000       0xb8 c:/a/gcc_arm/6/bin/../lib/gcc/arm-none-eabi/6.3.1/../../../../arm-none-eabi/lib/thumb/v7e-m/fpv4-sp/hard\libg_nano.a(lib_a-reent.o)
 .text          0x00000000        0x0 c:/a/gcc_arm/6/bin/../lib/gcc/arm-none-eabi/6.3.1/../../../../arm-none-eabi/lib/thumb/v7e-m/fpv4-sp/hard\libg_nano.a(lib_a-strchr.o)
 .data          0x00000000        0x0 c:/a/gcc_arm/6/bin/../lib/gcc/arm-none-eabi/6.3.1/../../../../arm-none-eabi/lib/thumb/v7e-m/fpv4-sp/hard\libg_nano.a(lib_a-strchr.o)
 .bss           0x00000000        0x0 c:/a/gcc_arm/6/bin/../lib/gcc/arm-none-eabi/6.3.1/../../../../arm-none-eabi/lib/thumb/v7e-m/fpv4-sp/hard\libg_nano.a(lib_a-strchr.o)
 .text          0x00000000        0x0 c:/a/gcc_arm/6/bin/../lib/gcc/arm-none-eabi/6.3.1/thumb/v7e-m/fpv4-sp/hard/crtend.o
 .data          0x00000000        0x0 c:/a/gcc_arm/6/bin/../lib/gcc/arm-none-eabi/6.3.1/thumb/v7e-m/fpv4-sp/hard/crtend.o
 .bss           0x00000000        0x0 c:/a/gcc_arm/6/bin/../lib/gcc/arm-none-eabi/6.3.1/thumb/v7e-m/fpv4-sp/hard/crtend.o
 .text          0x00000000        0x0 c:/a/gcc_arm/6/bin/../lib/gcc/arm-none-eabi/6.3.1/thumb/v7e-m/fpv4-sp/hard/crtn.o
 .data          0x00000000        0x0 c:/a/gcc_arm/6/bin/../lib/gcc/arm-none-eabi/6.3.1/thumb/v7e-m/fpv4-sp/hard/crtn.o
 .bss           0x00000000        0x0 c:/a/gcc_arm/6/bin/../lib/gcc/arm-none-eabi/6.3.1/thumb/v7e-m/fpv4-sp/hard/crtn.o
 .text          0x00000000        0x0 c:/a/gcc_arm/6/bin/../lib/gcc/arm-none-eabi/6.3.1/../../../../arm-none-eabi/lib/thumb/v7e-m/fpv4-sp/hard\libnosys.a(sbrk.o)
 .data          0x00000000        0x0 c:/a/gcc_arm/6/bin/../lib/gcc/arm-none-eabi/6.3.1/../../../../arm-none-eabi/lib/thumb/v7e-m/fpv4-sp/hard\libnosys.a(sbrk.o)
 .bss           0x00000000        0x0 c:/a/gcc_arm/6/bin/../lib/gcc/arm-none-eabi/6.3.1/../../../../arm-none-eabi/lib/thumb/v7e-m/fpv4-sp/hard\libnosys.a(sbrk.o)
 .text          0x00000000        0x0 c:/a/gcc_arm/6/bin/../lib/gcc/arm-none-eabi/6.3.1/../../../../arm-none-eabi/lib/thumb/v7e-m/fpv4-sp/hard\libnosys.a(_exit.o)
 .data          0x00000000        0x0 c:/a/gcc_arm/6/bin/../lib/gcc/arm-none-eabi/6.3.1/../../../../arm-none-eabi/lib/thumb/v7e-m/fpv4-sp/hard\libnosys.a(_exit.o)
 .bss           0x00000000        0x0 c:/a/gcc_arm/6/bin/../lib/gcc/arm-none-eabi/6.3.1/../../../../arm-none-eabi/lib/thumb/v7e-m/fpv4-sp/hard\libnosys.a(_exit.o)

Memory Configuration

Name             Origin             Length             Attributes
FLASH            0x0001f000         0x00061000         xr
RAM              0x200019c0         0x0000e640         xrw
*default*        0x00000000         0xffffffff

Linker script and memory map

LOAD c:/a/gcc_arm/6/bin/../lib/gcc/arm-none-eabi/6.3.1/thumb/v7e-m/fpv4-sp/hard/crti.o
LOAD c:/a/gcc_arm/6/bin/../lib/gcc/arm-none-eabi/6.3.1/thumb/v7e-m/fpv4-sp/hard/crtbegin.o
LOAD c:/a/gcc_arm/6/bin/../lib/gcc/arm-none-eabi/6.3.1/../../../../arm-none-eabi/lib/thumb/v7e-m/fpv4-sp/hard/crt0.o
LOAD examples/serial/CMakeFiles/serial_nrf52832_xxAA_s132_3.1.0.dir/src/main.c.obj
LOAD examples/serial/CMakeFiles/serial_nrf52832_xxAA_s132_3.1.0.dir/__/nrf_mesh_sdk.c.obj
LOAD examples/serial/CMakeFiles/serial_nrf52832_xxAA_s132_3.1.0.dir/__/__/mesh/prov/src/prov_provisioner.c.obj
LOAD examples/serial/CMakeFiles/serial_nrf52832_xxAA_s132_3.1.0.dir/__/__/mesh/prov/src/prov_provisionee.c.obj
LOAD examples/serial/CMakeFiles/serial_nrf52832_xxAA_s132_3.1.0.dir/__/__/mesh/prov/src/nrf_mesh_prov.c.obj
LOAD examples/serial/CMakeFiles/serial_nrf52832_xxAA_s132_3.1.0.dir/__/__/mesh/prov/src/provisioning.c.obj
LOAD examples/serial/CMakeFiles/serial_nrf52832_xxAA_s132_3.1.0.dir/__/__/mesh/prov/src/prov_beacon.c.obj
LOAD examples/serial/CMakeFiles/serial_nrf52832_xxAA_s132_3.1.0.dir/__/__/mesh/prov/src/prov_utils.c.obj
LOAD examples/serial/CMakeFiles/serial_nrf52832_xxAA_s132_3.1.0.dir/__/__/mesh/prov/src/prov_bearer_adv.c.obj
LOAD examples/serial/CMakeFiles/serial_nrf52832_xxAA_s132_3.1.0.dir/__/__/mesh/access/src/access_publish.c.obj
LOAD examples/serial/CMakeFiles/serial_nrf52832_xxAA_s132_3.1.0.dir/__/__/mesh/access/src/access.c.obj
LOAD examples/serial/CMakeFiles/serial_nrf52832_xxAA_s132_3.1.0.dir/__/__/mesh/access/src/access_reliable.c.obj
LOAD examples/serial/CMakeFiles/serial_nrf52832_xxAA_s132_3.1.0.dir/__/__/mesh/access/src/device_state_manager.c.obj
LOAD examples/serial/CMakeFiles/serial_nrf52832_xxAA_s132_3.1.0.dir/__/__/mesh/serial/src/serial_uart.c.obj
LOAD examples/serial/CMakeFiles/serial_nrf52832_xxAA_s132_3.1.0.dir/__/__/mesh/serial/src/serial_bearer.c.obj
LOAD examples/serial/CMakeFiles/serial_nrf52832_xxAA_s132_3.1.0.dir/__/__/mesh/serial/src/serial_handler_common.c.obj
LOAD examples/serial/CMakeFiles/serial_nrf52832_xxAA_s132_3.1.0.dir/__/__/mesh/serial/src/serial_handler_access.c.obj
LOAD examples/serial/CMakeFiles/serial_nrf52832_xxAA_s132_3.1.0.dir/__/__/mesh/serial/src/serial_handler_config.c.obj
LOAD examples/serial/CMakeFiles/serial_nrf52832_xxAA_s132_3.1.0.dir/__/__/mesh/serial/src/serial_handler_openmesh.c.obj
LOAD examples/serial/CMakeFiles/serial_nrf52832_xxAA_s132_3.1.0.dir/__/__/mesh/serial/src/serial.c.obj
LOAD examples/serial/CMakeFiles/serial_nrf52832_xxAA_s132_3.1.0.dir/__/__/mesh/serial/src/serial_handler_prov.c.obj
LOAD examples/serial/CMakeFiles/serial_nrf52832_xxAA_s132_3.1.0.dir/__/__/mesh/serial/src/serial_handler_dfu.c.obj
LOAD examples/serial/CMakeFiles/serial_nrf52832_xxAA_s132_3.1.0.dir/__/__/mesh/serial/src/serial_handler_mesh.c.obj
LOAD examples/serial/CMakeFiles/serial_nrf52832_xxAA_s132_3.1.0.dir/__/__/mesh/serial/src/serial_handler_models.c.obj
LOAD examples/serial/CMakeFiles/serial_nrf52832_xxAA_s132_3.1.0.dir/__/__/mesh/serial/src/serial_handler_device.c.obj
LOAD examples/serial/CMakeFiles/serial_nrf52832_xxAA_s132_3.1.0.dir/__/__/mesh/serial/src/nrf_mesh_serial.c.obj
LOAD examples/serial/CMakeFiles/serial_nrf52832_xxAA_s132_3.1.0.dir/__/__/mesh/serial/src/serial_handler_app.c.obj
LOAD examples/serial/CMakeFiles/serial_nrf52832_xxAA_s132_3.1.0.dir/__/nrf_mesh_weak.c.obj
LOAD examples/serial/CMakeFiles/serial_nrf52832_xxAA_s132_3.1.0.dir/__/__/external/nRF5_SDK_14.0.0_3bcc1f7/components/toolchain/system_nrf52.c.obj
LOAD examples/serial/CMakeFiles/serial_nrf52832_xxAA_s132_3.1.0.dir/__/__/external/nRF5_SDK_14.0.0_3bcc1f7/components/toolchain/gcc/gcc_startup_nrf52.S.obj
LOAD mesh/core/libmesh_core_nrf52832_xxAA.a
LOAD external/micro-ecc/libuECC_nrf52832_xxAA.a
LOAD external/rtt/librtt_nrf52832_xxAA.a
START GROUP
LOAD c:/a/gcc_arm/6/bin/../lib/gcc/arm-none-eabi/6.3.1/thumb/v7e-m/fpv4-sp/hard\libgcc.a
LOAD c:/a/gcc_arm/6/bin/../lib/gcc/arm-none-eabi/6.3.1/../../../../arm-none-eabi/lib/thumb/v7e-m/fpv4-sp/hard\libg_nano.a
LOAD c:/a/gcc_arm/6/bin/../lib/gcc/arm-none-eabi/6.3.1/../../../../arm-none-eabi/lib/thumb/v7e-m/fpv4-sp/hard\libc_nano.a
END GROUP
START GROUP
LOAD c:/a/gcc_arm/6/bin/../lib/gcc/arm-none-eabi/6.3.1/thumb/v7e-m/fpv4-sp/hard\libgcc.a
LOAD c:/a/gcc_arm/6/bin/../lib/gcc/arm-none-eabi/6.3.1/../../../../arm-none-eabi/lib/thumb/v7e-m/fpv4-sp/hard\libc_nano.a
END GROUP
LOAD c:/a/gcc_arm/6/bin/../lib/gcc/arm-none-eabi/6.3.1/thumb/v7e-m/fpv4-sp/hard/crtend.o
LOAD c:/a/gcc_arm/6/bin/../lib/gcc/arm-none-eabi/6.3.1/thumb/v7e-m/fpv4-sp/hard/crtn.o
START GROUP
LOAD c:/a/gcc_arm/6/bin/../lib/gcc/arm-none-eabi/6.3.1/thumb/v7e-m/fpv4-sp/hard\libgcc.a
LOAD c:/a/gcc_arm/6/bin/../lib/gcc/arm-none-eabi/6.3.1/../../../../arm-none-eabi/lib/thumb/v7e-m/fpv4-sp/hard\libc.a
LOAD c:/a/gcc_arm/6/bin/../lib/gcc/arm-none-eabi/6.3.1/../../../../arm-none-eabi/lib/thumb/v7e-m/fpv4-sp/hard\libnosys.a
END GROUP

.text           0x0001f000    0x1aaa4
 *(.isr_vector)
 .isr_vector    0x0001f000      0x200 examples/serial/CMakeFiles/serial_nrf52832_xxAA_s132_3.1.0.dir/__/__/external/nRF5_SDK_14.0.0_3bcc1f7/components/toolchain/gcc/gcc_startup_nrf52.S.obj
                0x0001f000                __isr_vector
 *(.text*)
 .text          0x0001f200       0x6c c:/a/gcc_arm/6/bin/../lib/gcc/arm-none-eabi/6.3.1/thumb/v7e-m/fpv4-sp/hard/crtbegin.o
 .text          0x0001f26c       0x74 c:/a/gcc_arm/6/bin/../lib/gcc/arm-none-eabi/6.3.1/../../../../arm-none-eabi/lib/thumb/v7e-m/fpv4-sp/hard/crt0.o
                0x0001f26c                _start
                0x0001f26c                _mainCRTStartup
 .text.startup.main
                0x0001f2e0      0x290 examples/serial/CMakeFiles/serial_nrf52832_xxAA_s132_3.1.0.dir/src/main.c.obj
                0x0001f2e0                main
 .text.sd_evt_get
                0x0001f570        0x4 examples/serial/CMakeFiles/serial_nrf52832_xxAA_s132_3.1.0.dir/__/nrf_mesh_sdk.c.obj
 .text.sd_softdevice_enable
                0x0001f574        0x4 examples/serial/CMakeFiles/serial_nrf52832_xxAA_s132_3.1.0.dir/__/nrf_mesh_sdk.c.obj
 .text.sd_ble_enable
                0x0001f578        0x4 examples/serial/CMakeFiles/serial_nrf52832_xxAA_s132_3.1.0.dir/__/nrf_mesh_sdk.c.obj
 .text.sd_ble_evt_get
                0x0001f57c        0x4 examples/serial/CMakeFiles/serial_nrf52832_xxAA_s132_3.1.0.dir/__/nrf_mesh_sdk.c.obj
 .text.mesh_assert_handler
                0x0001f580       0x80 examples/serial/CMakeFiles/serial_nrf52832_xxAA_s132_3.1.0.dir/__/nrf_mesh_sdk.c.obj
                0x0001f580                mesh_assert_handler
 .text.softdevice_assert_handler
                0x0001f600       0x94 examples/serial/CMakeFiles/serial_nrf52832_xxAA_s132_3.1.0.dir/__/nrf_mesh_sdk.c.obj
                0x0001f600                softdevice_assert_handler
 .text.app_error_handler
                0x0001f694       0x88 examples/serial/CMakeFiles/serial_nrf52832_xxAA_s132_3.1.0.dir/__/nrf_mesh_sdk.c.obj
                0x0001f694                app_error_handler
 .text.HardFault_Handler
                0x0001f71c       0x78 examples/serial/CMakeFiles/serial_nrf52832_xxAA_s132_3.1.0.dir/__/nrf_mesh_sdk.c.obj
                0x0001f71c                HardFault_Handler
 .text.SWI2_EGU2_IRQHandler
                0x0001f794       0x40 examples/serial/CMakeFiles/serial_nrf52832_xxAA_s132_3.1.0.dir/__/nrf_mesh_sdk.c.obj
                0x0001f794                SWI2_EGU2_IRQHandler
 .text.mesh_softdevice_setup
                0x0001f7d4      0x1c8 examples/serial/CMakeFiles/serial_nrf52832_xxAA_s132_3.1.0.dir/__/nrf_mesh_sdk.c.obj
                0x0001f7d4                mesh_softdevice_setup
 .text.mesh_core_setup
                0x0001f99c      0x160 examples/serial/CMakeFiles/serial_nrf52832_xxAA_s132_3.1.0.dir/__/nrf_mesh_sdk.c.obj
                0x0001f99c                mesh_core_setup
 .text.prov_provisioner_cb_link_closed
                0x0001fafc       0x2c examples/serial/CMakeFiles/serial_nrf52832_xxAA_s132_3.1.0.dir/__/__/mesh/prov/src/prov_provisioner.c.obj
 .text.prov_provisioner_cb_link_established
                0x0001fb28       0x44 examples/serial/CMakeFiles/serial_nrf52832_xxAA_s132_3.1.0.dir/__/__/mesh/prov/src/prov_provisioner.c.obj
 .text.prov_provisioner_cb_ack_received
                0x0001fb6c       0x4c examples/serial/CMakeFiles/serial_nrf52832_xxAA_s132_3.1.0.dir/__/__/mesh/prov/src/prov_provisioner.c.obj
 .text.prov_provisioner_pkt_in
                0x0001fbb8      0x350 examples/serial/CMakeFiles/serial_nrf52832_xxAA_s132_3.1.0.dir/__/__/mesh/prov/src/prov_provisioner.c.obj
 .text.prov_provisioner_provision
                0x0001ff08       0x4c examples/serial/CMakeFiles/serial_nrf52832_xxAA_s132_3.1.0.dir/__/__/mesh/prov/src/prov_provisioner.c.obj
                0x0001ff08                prov_provisioner_provision
 .text.prov_provisioner_oob_use
                0x0001ff54       0xb0 examples/serial/CMakeFiles/serial_nrf52832_xxAA_s132_3.1.0.dir/__/__/mesh/prov/src/prov_provisioner.c.obj
                0x0001ff54                prov_provisioner_oob_use
 .text.prov_provisioner_auth_data
                0x00020004       0x64 examples/serial/CMakeFiles/serial_nrf52832_xxAA_s132_3.1.0.dir/__/__/mesh/prov/src/prov_provisioner.c.obj
                0x00020004                prov_provisioner_auth_data
 .text.prov_provisioner_shared_secret
                0x00020068       0xcc examples/serial/CMakeFiles/serial_nrf52832_xxAA_s132_3.1.0.dir/__/__/mesh/prov/src/prov_provisioner.c.obj
                0x00020068                prov_provisioner_shared_secret
 .text.prov_provisionee_cb_link_established
                0x00020134       0x24 examples/serial/CMakeFiles/serial_nrf52832_xxAA_s132_3.1.0.dir/__/__/mesh/prov/src/prov_provisionee.c.obj
 .text.prov_provisionee_cb_link_closed
                0x00020158       0x80 examples/serial/CMakeFiles/serial_nrf52832_xxAA_s132_3.1.0.dir/__/__/mesh/prov/src/prov_provisionee.c.obj
 .text.start_authentication
                0x000201d8      0x128 examples/serial/CMakeFiles/serial_nrf52832_xxAA_s132_3.1.0.dir/__/__/mesh/prov/src/prov_provisionee.c.obj
 .text.prov_provisionee_cb_ack_received
                0x00020300      0x11c examples/serial/CMakeFiles/serial_nrf52832_xxAA_s132_3.1.0.dir/__/__/mesh/prov/src/prov_provisionee.c.obj
 .text.prov_provisionee_pkt_in
                0x0002041c      0x30c examples/serial/CMakeFiles/serial_nrf52832_xxAA_s132_3.1.0.dir/__/__/mesh/prov/src/prov_provisionee.c.obj
 .text.prov_provisionee_init
                0x00020728       0x40 examples/serial/CMakeFiles/serial_nrf52832_xxAA_s132_3.1.0.dir/__/__/mesh/prov/src/prov_provisionee.c.obj
                0x00020728                prov_provisionee_init
 .text.prov_provisionee_auth_data
                0x00020768       0x84 examples/serial/CMakeFiles/serial_nrf52832_xxAA_s132_3.1.0.dir/__/__/mesh/prov/src/prov_provisionee.c.obj
                0x00020768                prov_provisionee_auth_data
 .text.prov_provisionee_shared_secret
                0x000207ec       0xb4 examples/serial/CMakeFiles/serial_nrf52832_xxAA_s132_3.1.0.dir/__/__/mesh/prov/src/prov_provisionee.c.obj
                0x000207ec                prov_provisionee_shared_secret
 .text.nrf_mesh_prov_init
                0x000208a0       0x24 examples/serial/CMakeFiles/serial_nrf52832_xxAA_s132_3.1.0.dir/__/__/mesh/prov/src/nrf_mesh_prov.c.obj
                0x000208a0                nrf_mesh_prov_init
 .text.nrf_mesh_prov_generate_keys
                0x000208c4        0x4 examples/serial/CMakeFiles/serial_nrf52832_xxAA_s132_3.1.0.dir/__/__/mesh/prov/src/nrf_mesh_prov.c.obj
                0x000208c4                nrf_mesh_prov_generate_keys
 .text.nrf_mesh_prov_listen
                0x000208c8       0x28 examples/serial/CMakeFiles/serial_nrf52832_xxAA_s132_3.1.0.dir/__/__/mesh/prov/src/nrf_mesh_prov.c.obj
                0x000208c8                nrf_mesh_prov_listen
 .text.nrf_mesh_prov_provision
                0x000208f0       0x50 examples/serial/CMakeFiles/serial_nrf52832_xxAA_s132_3.1.0.dir/__/__/mesh/prov/src/nrf_mesh_prov.c.obj
                0x000208f0                nrf_mesh_prov_provision
 .text.nrf_mesh_prov_oob_use
                0x00020940       0x10 examples/serial/CMakeFiles/serial_nrf52832_xxAA_s132_3.1.0.dir/__/__/mesh/prov/src/nrf_mesh_prov.c.obj
                0x00020940                nrf_mesh_prov_oob_use
 .text.nrf_mesh_prov_auth_data_provide
                0x00020950       0x10 examples/serial/CMakeFiles/serial_nrf52832_xxAA_s132_3.1.0.dir/__/__/mesh/prov/src/nrf_mesh_prov.c.obj
                0x00020950                nrf_mesh_prov_auth_data_provide
 .text.nrf_mesh_prov_shared_secret_provide
                0x00020960       0x10 examples/serial/CMakeFiles/serial_nrf52832_xxAA_s132_3.1.0.dir/__/__/mesh/prov/src/nrf_mesh_prov.c.obj
                0x00020960                nrf_mesh_prov_shared_secret_provide
 .text.prov_packet_length_valid
                0x00020970       0x20 examples/serial/CMakeFiles/serial_nrf52832_xxAA_s132_3.1.0.dir/__/__/mesh/prov/src/provisioning.c.obj
                0x00020970                prov_packet_length_valid
 .text.prov_init
                0x00020990       0x34 examples/serial/CMakeFiles/serial_nrf52832_xxAA_s132_3.1.0.dir/__/__/mesh/prov/src/provisioning.c.obj
                0x00020990                prov_init
 .text.prov_listen_start
                0x000209c4       0x14 examples/serial/CMakeFiles/serial_nrf52832_xxAA_s132_3.1.0.dir/__/__/mesh/prov/src/provisioning.c.obj
                0x000209c4                prov_listen_start
 .text.prov_link_open
                0x000209d8       0x14 examples/serial/CMakeFiles/serial_nrf52832_xxAA_s132_3.1.0.dir/__/__/mesh/prov/src/provisioning.c.obj
                0x000209d8                prov_link_open
 .text.prov_link_close
                0x000209ec        0x8 examples/serial/CMakeFiles/serial_nrf52832_xxAA_s132_3.1.0.dir/__/__/mesh/prov/src/provisioning.c.obj
                0x000209ec                prov_link_close
 .text.prov_tx_invite
                0x000209f4       0x44 examples/serial/CMakeFiles/serial_nrf52832_xxAA_s132_3.1.0.dir/__/__/mesh/prov/src/provisioning.c.obj
                0x000209f4                prov_tx_invite
 .text.prov_tx_capabilities
                0x00020a38       0x4c examples/serial/CMakeFiles/serial_nrf52832_xxAA_s132_3.1.0.dir/__/__/mesh/prov/src/provisioning.c.obj
                0x00020a38                prov_tx_capabilities
 .text.prov_tx_start
                0x00020a84       0x4c examples/serial/CMakeFiles/serial_nrf52832_xxAA_s132_3.1.0.dir/__/__/mesh/prov/src/provisioning.c.obj
                0x00020a84                prov_tx_start
 .text.prov_tx_public_key
                0x00020ad0       0x40 examples/serial/CMakeFiles/serial_nrf52832_xxAA_s132_3.1.0.dir/__/__/mesh/prov/src/provisioning.c.obj
                0x00020ad0                prov_tx_public_key
 .text.prov_tx_input_complete
                0x00020b10       0x34 examples/serial/CMakeFiles/serial_nrf52832_xxAA_s132_3.1.0.dir/__/__/mesh/prov/src/provisioning.c.obj
                0x00020b10                prov_tx_input_complete
 .text.prov_tx_confirmation
                0x00020b44       0x40 examples/serial/CMakeFiles/serial_nrf52832_xxAA_s132_3.1.0.dir/__/__/mesh/prov/src/provisioning.c.obj
                0x00020b44                prov_tx_confirmation
 .text.prov_tx_random
                0x00020b84       0x40 examples/serial/CMakeFiles/serial_nrf52832_xxAA_s132_3.1.0.dir/__/__/mesh/prov/src/provisioning.c.obj
                0x00020b84                prov_tx_random
 .text.prov_tx_complete
                0x00020bc4       0x34 examples/serial/CMakeFiles/serial_nrf52832_xxAA_s132_3.1.0.dir/__/__/mesh/prov/src/provisioning.c.obj
                0x00020bc4                prov_tx_complete
 .text.prov_tx_failed
                0x00020bf8       0x38 examples/serial/CMakeFiles/serial_nrf52832_xxAA_s132_3.1.0.dir/__/__/mesh/prov/src/provisioning.c.obj
                0x00020bf8                prov_tx_failed
 .text.prov_tx_data
                0x00020c30       0x48 examples/serial/CMakeFiles/serial_nrf52832_xxAA_s132_3.1.0.dir/__/__/mesh/prov/src/provisioning.c.obj
                0x00020c30                prov_tx_data
 .text.prov_cb_link_opened
                0x00020c78        0x8 examples/serial/CMakeFiles/serial_nrf52832_xxAA_s132_3.1.0.dir/__/__/mesh/prov/src/provisioning.c.obj
                0x00020c78                prov_cb_link_opened
 .text.prov_cb_link_closed
                0x00020c80        0x8 examples/serial/CMakeFiles/serial_nrf52832_xxAA_s132_3.1.0.dir/__/__/mesh/prov/src/provisioning.c.obj
                0x00020c80                prov_cb_link_closed
 .text.prov_cb_pkt_in
                0x00020c88       0x88 examples/serial/CMakeFiles/serial_nrf52832_xxAA_s132_3.1.0.dir/__/__/mesh/prov/src/provisioning.c.obj
                0x00020c88                prov_cb_pkt_in
 .text.prov_cb_ack_in
                0x00020d10        0x8 examples/serial/CMakeFiles/serial_nrf52832_xxAA_s132_3.1.0.dir/__/__/mesh/prov/src/provisioning.c.obj
                0x00020d10                prov_cb_ack_in
 .text.prov_beacon_unprov_build
                0x00020d18       0x54 examples/serial/CMakeFiles/serial_nrf52832_xxAA_s132_3.1.0.dir/__/__/mesh/prov/src/prov_beacon.c.obj
                0x00020d18                prov_beacon_unprov_build
 .text.prov_beacon_unprov_packet_in
                0x00020d6c       0xbc examples/serial/CMakeFiles/serial_nrf52832_xxAA_s132_3.1.0.dir/__/__/mesh/prov/src/prov_beacon.c.obj
                0x00020d6c                prov_beacon_unprov_packet_in
 .text.prov_utils_opt_set
                0x00020e28       0x24 examples/serial/CMakeFiles/serial_nrf52832_xxAA_s132_3.1.0.dir/__/__/mesh/prov/src/prov_utils.c.obj
                0x00020e28                prov_utils_opt_set
 .text.prov_utils_use_ecdh_offloading
                0x00020e4c        0xc examples/serial/CMakeFiles/serial_nrf52832_xxAA_s132_3.1.0.dir/__/__/mesh/prov/src/prov_utils.c.obj
                0x00020e4c                prov_utils_use_ecdh_offloading
 .text.prov_utils_authentication_values_derive
                0x00020e58       0xac examples/serial/CMakeFiles/serial_nrf52832_xxAA_s132_3.1.0.dir/__/__/mesh/prov/src/prov_utils.c.obj
                0x00020e58                prov_utils_authentication_values_derive
 .text.prov_utils_keys_generate
                0x00020f04       0x20 examples/serial/CMakeFiles/serial_nrf52832_xxAA_s132_3.1.0.dir/__/__/mesh/prov/src/prov_utils.c.obj
                0x00020f04                prov_utils_keys_generate
 .text.prov_utils_derive_keys
                0x00020f24       0xb4 examples/serial/CMakeFiles/serial_nrf52832_xxAA_s132_3.1.0.dir/__/__/mesh/prov/src/prov_utils.c.obj
                0x00020f24                prov_utils_derive_keys
 .text.prov_utils_calculate_shared_secret
                0x00020fd8       0x38 examples/serial/CMakeFiles/serial_nrf52832_xxAA_s132_3.1.0.dir/__/__/mesh/prov/src/prov_utils.c.obj
                0x00020fd8                prov_utils_calculate_shared_secret
 .text.prov_utils_generate_oob_data
                0x00021010      0x1c8 examples/serial/CMakeFiles/serial_nrf52832_xxAA_s132_3.1.0.dir/__/__/mesh/prov/src/prov_utils.c.obj
                0x00021010                prov_utils_generate_oob_data
 .text.prov_utils_confirmation_check
                0x000211d8       0x5c examples/serial/CMakeFiles/serial_nrf52832_xxAA_s132_3.1.0.dir/__/__/mesh/prov/src/prov_utils.c.obj
                0x000211d8                prov_utils_confirmation_check
 .text.remove_active_bearer
                0x00021234       0x70 examples/serial/CMakeFiles/serial_nrf52832_xxAA_s132_3.1.0.dir/__/__/mesh/prov/src/prov_bearer_adv.c.obj
 .text.prov_bearer_adv_listen_stop
                0x000212a4       0x3c examples/serial/CMakeFiles/serial_nrf52832_xxAA_s132_3.1.0.dir/__/__/mesh/prov/src/prov_bearer_adv.c.obj
 .text.link_timeout_cb
                0x000212e0        0x8 examples/serial/CMakeFiles/serial_nrf52832_xxAA_s132_3.1.0.dir/__/__/mesh/prov/src/prov_bearer_adv.c.obj
 .text.tx_complete_cb
                0x000212e8       0x20 examples/serial/CMakeFiles/serial_nrf52832_xxAA_s132_3.1.0.dir/__/__/mesh/prov/src/prov_bearer_adv.c.obj
 .text.prov_bearer_adv_listen
                0x00021308      0x160 examples/serial/CMakeFiles/serial_nrf52832_xxAA_s132_3.1.0.dir/__/__/mesh/prov/src/prov_bearer_adv.c.obj
 .text.prov_buffer_tx
                0x00021468      0x218 examples/serial/CMakeFiles/serial_nrf52832_xxAA_s132_3.1.0.dir/__/__/mesh/prov/src/prov_bearer_adv.c.obj
 .text.prov_bearer_adv_tx
                0x00021680       0xd4 examples/serial/CMakeFiles/serial_nrf52832_xxAA_s132_3.1.0.dir/__/__/mesh/prov/src/prov_bearer_adv.c.obj
 .text.send_link_ack
                0x00021754       0x90 examples/serial/CMakeFiles/serial_nrf52832_xxAA_s132_3.1.0.dir/__/__/mesh/prov/src/prov_bearer_adv.c.obj
 .text.tx_retry_cb
                0x000217e4      0x148 examples/serial/CMakeFiles/serial_nrf52832_xxAA_s132_3.1.0.dir/__/__/mesh/prov/src/prov_bearer_adv.c.obj
 .text.send_transaction_ack
                0x0002192c       0x78 examples/serial/CMakeFiles/serial_nrf52832_xxAA_s132_3.1.0.dir/__/__/mesh/prov/src/prov_bearer_adv.c.obj
 .text.prov_buffer_rx
                0x000219a4       0xa4 examples/serial/CMakeFiles/serial_nrf52832_xxAA_s132_3.1.0.dir/__/__/mesh/prov/src/prov_bearer_adv.c.obj
 .text.async_process
                0x00021a48       0xb4 examples/serial/CMakeFiles/serial_nrf52832_xxAA_s132_3.1.0.dir/__/__/mesh/prov/src/prov_bearer_adv.c.obj
 .text.prov_bearer_adv_link_open
                0x00021afc      0x1c4 examples/serial/CMakeFiles/serial_nrf52832_xxAA_s132_3.1.0.dir/__/__/mesh/prov/src/prov_bearer_adv.c.obj
 .text.prov_bearer_adv_link_close
                0x00021cc0      0x154 examples/serial/CMakeFiles/serial_nrf52832_xxAA_s132_3.1.0.dir/__/__/mesh/prov/src/prov_bearer_adv.c.obj
 .text.prov_bearer_adv_interface_get
                0x00021e14       0x28 examples/serial/CMakeFiles/serial_nrf52832_xxAA_s132_3.1.0.dir/__/__/mesh/prov/src/prov_bearer_adv.c.obj
                0x00021e14                prov_bearer_adv_interface_get
 .text.prov_bearer_adv_packet_in
                0x00021e3c      0x9d0 examples/serial/CMakeFiles/serial_nrf52832_xxAA_s132_3.1.0.dir/__/__/mesh/prov/src/prov_bearer_adv.c.obj
                0x00021e3c                prov_bearer_adv_packet_in
 .text.add_to_publication_list
                0x0002280c       0x8c examples/serial/CMakeFiles/serial_nrf52832_xxAA_s132_3.1.0.dir/__/__/mesh/access/src/access_publish.c.obj
 .text.schedule_publication_timer
                0x00022898      0x2f4 examples/serial/CMakeFiles/serial_nrf52832_xxAA_s132_3.1.0.dir/__/__/mesh/access/src/access_publish.c.obj
 .text.publish_timer_tick
                0x00022b8c       0xd0 examples/serial/CMakeFiles/serial_nrf52832_xxAA_s132_3.1.0.dir/__/__/mesh/access/src/access_publish.c.obj
 .text.access_publish_init
                0x00022c5c       0x38 examples/serial/CMakeFiles/serial_nrf52832_xxAA_s132_3.1.0.dir/__/__/mesh/access/src/access_publish.c.obj
                0x00022c5c                access_publish_init
 .text.access_publish_period_set
                0x00022c94       0xa4 examples/serial/CMakeFiles/serial_nrf52832_xxAA_s132_3.1.0.dir/__/__/mesh/access/src/access_publish.c.obj
                0x00022c94                access_publish_period_set
 .text.access_publish_period_get
                0x00022d38       0x38 examples/serial/CMakeFiles/serial_nrf52832_xxAA_s132_3.1.0.dir/__/__/mesh/access/src/access_publish.c.obj
                0x00022d38                access_publish_period_get
 .text.flash_invalidate_complete
                0x00022d70       0x14 examples/serial/CMakeFiles/serial_nrf52832_xxAA_s132_3.1.0.dir/__/__/mesh/access/src/access.c.obj
 .text.flash_manager_mem_available
                0x00022d84        0x4 examples/serial/CMakeFiles/serial_nrf52832_xxAA_s132_3.1.0.dir/__/__/mesh/access/src/access.c.obj
 .text.access_flash_config_clear
                0x00022d88       0x28 examples/serial/CMakeFiles/serial_nrf52832_xxAA_s132_3.1.0.dir/__/__/mesh/access/src/access.c.obj
 .text.access_flash_config_store
                0x00022db0      0x120 examples/serial/CMakeFiles/serial_nrf52832_xxAA_s132_3.1.0.dir/__/__/mesh/access/src/access.c.obj
                0x00022db0                access_flash_config_store
 .text.handle_incoming
                0x00022ed0      0x178 examples/serial/CMakeFiles/serial_nrf52832_xxAA_s132_3.1.0.dir/__/__/mesh/access/src/access.c.obj
 .text.mesh_evt_cb
                0x00023048      0x15c examples/serial/CMakeFiles/serial_nrf52832_xxAA_s132_3.1.0.dir/__/__/mesh/access/src/access.c.obj
 .text.add_flash_manager
                0x000231a4       0x58 examples/serial/CMakeFiles/serial_nrf52832_xxAA_s132_3.1.0.dir/__/__/mesh/access/src/access.c.obj
 .text.flash_write_complete
                0x000231fc       0x58 examples/serial/CMakeFiles/serial_nrf52832_xxAA_s132_3.1.0.dir/__/__/mesh/access/src/access.c.obj
 .text.flash_remove_complete
                0x00023254       0xa0 examples/serial/CMakeFiles/serial_nrf52832_xxAA_s132_3.1.0.dir/__/__/mesh/access/src/access.c.obj
 .text.access_clear
                0x000232f4       0x68 examples/serial/CMakeFiles/serial_nrf52832_xxAA_s132_3.1.0.dir/__/__/mesh/access/src/access.c.obj
                0x000232f4                access_clear
 .text.access_init
                0x0002335c       0xb0 examples/serial/CMakeFiles/serial_nrf52832_xxAA_s132_3.1.0.dir/__/__/mesh/access/src/access.c.obj
                0x0002335c                access_init
 .text.access_model_publish
                0x0002340c      0x2bc examples/serial/CMakeFiles/serial_nrf52832_xxAA_s132_3.1.0.dir/__/__/mesh/access/src/access.c.obj
                0x0002340c                access_model_publish
 .text.access_model_publish_address_set
                0x000236c8       0x38 examples/serial/CMakeFiles/serial_nrf52832_xxAA_s132_3.1.0.dir/__/__/mesh/access/src/access.c.obj
                0x000236c8                access_model_publish_address_set
 .text.access_model_publish_address_get
                0x00023700       0x20 examples/serial/CMakeFiles/serial_nrf52832_xxAA_s132_3.1.0.dir/__/__/mesh/access/src/access.c.obj
                0x00023700                access_model_publish_address_get
 .text.access_model_publish_period_set
                0x00023720       0x64 examples/serial/CMakeFiles/serial_nrf52832_xxAA_s132_3.1.0.dir/__/__/mesh/access/src/access.c.obj
                0x00023720                access_model_publish_period_set
 .text.access_model_publish_period_get
                0x00023784       0x38 examples/serial/CMakeFiles/serial_nrf52832_xxAA_s132_3.1.0.dir/__/__/mesh/access/src/access.c.obj
                0x00023784                access_model_publish_period_get
 .text.access_model_subscription_add
                0x000237bc       0x58 examples/serial/CMakeFiles/serial_nrf52832_xxAA_s132_3.1.0.dir/__/__/mesh/access/src/access.c.obj
                0x000237bc                access_model_subscription_add
 .text.access_model_subscription_remove
                0x00023814       0x5c examples/serial/CMakeFiles/serial_nrf52832_xxAA_s132_3.1.0.dir/__/__/mesh/access/src/access.c.obj
                0x00023814                access_model_subscription_remove
 .text.access_model_subscriptions_get
                0x00023870       0x68 examples/serial/CMakeFiles/serial_nrf52832_xxAA_s132_3.1.0.dir/__/__/mesh/access/src/access.c.obj
                0x00023870                access_model_subscriptions_get
 .text.access_model_application_bind
                0x000238d8       0x44 examples/serial/CMakeFiles/serial_nrf52832_xxAA_s132_3.1.0.dir/__/__/mesh/access/src/access.c.obj
                0x000238d8                access_model_application_bind
 .text.access_model_application_unbind
                0x0002391c       0x44 examples/serial/CMakeFiles/serial_nrf52832_xxAA_s132_3.1.0.dir/__/__/mesh/access/src/access.c.obj
                0x0002391c                access_model_application_unbind
 .text.access_model_applications_get
                0x00023960       0xf4 examples/serial/CMakeFiles/serial_nrf52832_xxAA_s132_3.1.0.dir/__/__/mesh/access/src/access.c.obj
                0x00023960                access_model_applications_get
 .text.access_model_publish_application_set
                0x00023a54       0x38 examples/serial/CMakeFiles/serial_nrf52832_xxAA_s132_3.1.0.dir/__/__/mesh/access/src/access.c.obj
                0x00023a54                access_model_publish_application_set
 .text.access_model_publish_application_get
                0x00023a8c       0x20 examples/serial/CMakeFiles/serial_nrf52832_xxAA_s132_3.1.0.dir/__/__/mesh/access/src/access.c.obj
                0x00023a8c                access_model_publish_application_get
 .text.access_model_publish_ttl_set
                0x00023aac       0x3c examples/serial/CMakeFiles/serial_nrf52832_xxAA_s132_3.1.0.dir/__/__/mesh/access/src/access.c.obj
                0x00023aac                access_model_publish_ttl_set
 .text.access_model_publish_ttl_get
                0x00023ae8       0x20 examples/serial/CMakeFiles/serial_nrf52832_xxAA_s132_3.1.0.dir/__/__/mesh/access/src/access.c.obj
                0x00023ae8                access_model_publish_ttl_get
 .text.access_element_location_set
                0x00023b08       0x38 examples/serial/CMakeFiles/serial_nrf52832_xxAA_s132_3.1.0.dir/__/__/mesh/access/src/access.c.obj
                0x00023b08                access_element_location_set
 .text.access_element_location_get
                0x00023b40       0x24 examples/serial/CMakeFiles/serial_nrf52832_xxAA_s132_3.1.0.dir/__/__/mesh/access/src/access.c.obj
                0x00023b40                access_element_location_get
 .text.access_element_sig_model_count_get
                0x00023b64       0x24 examples/serial/CMakeFiles/serial_nrf52832_xxAA_s132_3.1.0.dir/__/__/mesh/access/src/access.c.obj
                0x00023b64                access_element_sig_model_count_get
 .text.access_element_vendor_model_count_get
                0x00023b88       0x24 examples/serial/CMakeFiles/serial_nrf52832_xxAA_s132_3.1.0.dir/__/__/mesh/access/src/access.c.obj
                0x00023b88                access_element_vendor_model_count_get
 .text.access_model_id_get
                0x00023bac       0x24 examples/serial/CMakeFiles/serial_nrf52832_xxAA_s132_3.1.0.dir/__/__/mesh/access/src/access.c.obj
                0x00023bac                access_model_id_get
 .text.access_handle_get
                0x00023bd0       0x44 examples/serial/CMakeFiles/serial_nrf52832_xxAA_s132_3.1.0.dir/__/__/mesh/access/src/access.c.obj
                0x00023bd0                access_handle_get
 .text.access_element_models_get
                0x00023c14       0x4c examples/serial/CMakeFiles/serial_nrf52832_xxAA_s132_3.1.0.dir/__/__/mesh/access/src/access.c.obj
                0x00023c14                access_element_models_get
 .text.access_model_p_args_get
                0x00023c60       0x20 examples/serial/CMakeFiles/serial_nrf52832_xxAA_s132_3.1.0.dir/__/__/mesh/access/src/access.c.obj
                0x00023c60                access_model_p_args_get
 .text.remove_and_reschedule
                0x00023c80       0xe8 examples/serial/CMakeFiles/serial_nrf52832_xxAA_s132_3.1.0.dir/__/__/mesh/access/src/access_reliable.c.obj
 .text.reliable_timer_cb
                0x00023d68      0x138 examples/serial/CMakeFiles/serial_nrf52832_xxAA_s132_3.1.0.dir/__/__/mesh/access/src/access_reliable.c.obj
 .text.access_reliable_message_rx_cb
                0x00023ea0       0x5c examples/serial/CMakeFiles/serial_nrf52832_xxAA_s132_3.1.0.dir/__/__/mesh/access/src/access_reliable.c.obj
                0x00023ea0                access_reliable_message_rx_cb
 .text.access_reliable_init
                0x00023efc       0x1c examples/serial/CMakeFiles/serial_nrf52832_xxAA_s132_3.1.0.dir/__/__/mesh/access/src/access_reliable.c.obj
                0x00023efc                access_reliable_init
 .text.access_reliable_cancel_all
                0x00023f18       0x34 examples/serial/CMakeFiles/serial_nrf52832_xxAA_s132_3.1.0.dir/__/__/mesh/access/src/access_reliable.c.obj
                0x00023f18                access_reliable_cancel_all
 .text.addr_nonvirtual_to_dsm_entry
                0x00023f4c       0x48 examples/serial/CMakeFiles/serial_nrf52832_xxAA_s132_3.1.0.dir/__/__/mesh/access/src/device_state_manager.c.obj
 .text.addr_nonvirtual_to_flash_entry
                0x00023f94       0x10 examples/serial/CMakeFiles/serial_nrf52832_xxAA_s132_3.1.0.dir/__/__/mesh/access/src/device_state_manager.c.obj
 .text.flash_mem_listener_callback
                0x00023fa4       0x28 examples/serial/CMakeFiles/serial_nrf52832_xxAA_s132_3.1.0.dir/__/__/mesh/access/src/device_state_manager.c.obj
 .text.devkey_to_flash_entry
                0x00023fcc       0x28 examples/serial/CMakeFiles/serial_nrf52832_xxAA_s132_3.1.0.dir/__/__/mesh/access/src/device_state_manager.c.obj
 .text.appkey_to_flash_entry
                0x00023ff4       0x28 examples/serial/CMakeFiles/serial_nrf52832_xxAA_s132_3.1.0.dir/__/__/mesh/access/src/device_state_manager.c.obj
 .text.subnet_to_flash_entry
                0x0002401c       0x24 examples/serial/CMakeFiles/serial_nrf52832_xxAA_s132_3.1.0.dir/__/__/mesh/access/src/device_state_manager.c.obj
 .text.addr_virtual_to_flash_entry
                0x00024040       0x18 examples/serial/CMakeFiles/serial_nrf52832_xxAA_s132_3.1.0.dir/__/__/mesh/access/src/device_state_manager.c.obj
 .text.addr_unicast_to_dsm_entry
                0x00024058        0xc examples/serial/CMakeFiles/serial_nrf52832_xxAA_s132_3.1.0.dir/__/__/mesh/access/src/device_state_manager.c.obj
 .text.addr_unicast_to_flash_entry
                0x00024064       0x10 examples/serial/CMakeFiles/serial_nrf52832_xxAA_s132_3.1.0.dir/__/__/mesh/access/src/device_state_manager.c.obj
 .text.subnet_set
                0x00024074       0xac examples/serial/CMakeFiles/serial_nrf52832_xxAA_s132_3.1.0.dir/__/__/mesh/access/src/device_state_manager.c.obj
 .text.flash_save
                0x00024120       0xa8 examples/serial/CMakeFiles/serial_nrf52832_xxAA_s132_3.1.0.dir/__/__/mesh/access/src/device_state_manager.c.obj
 .text.reset_flash_area
                0x000241c8       0x28 examples/serial/CMakeFiles/serial_nrf52832_xxAA_s132_3.1.0.dir/__/__/mesh/access/src/device_state_manager.c.obj
 .text.build_flash_area
                0x000241f0       0x90 examples/serial/CMakeFiles/serial_nrf52832_xxAA_s132_3.1.0.dir/__/__/mesh/access/src/device_state_manager.c.obj
 .text.flash_invalidate_complete
                0x00024280       0x5c examples/serial/CMakeFiles/serial_nrf52832_xxAA_s132_3.1.0.dir/__/__/mesh/access/src/device_state_manager.c.obj
 .text.devkey_to_dsm_entry
                0x000242dc       0x70 examples/serial/CMakeFiles/serial_nrf52832_xxAA_s132_3.1.0.dir/__/__/mesh/access/src/device_state_manager.c.obj
 .text.addr_virtual_to_dsm_entry
                0x0002434c       0x6c examples/serial/CMakeFiles/serial_nrf52832_xxAA_s132_3.1.0.dir/__/__/mesh/access/src/device_state_manager.c.obj
 .text.flash_write_complete
                0x000243b8       0x5c examples/serial/CMakeFiles/serial_nrf52832_xxAA_s132_3.1.0.dir/__/__/mesh/access/src/device_state_manager.c.obj
 .text.appkey_to_dsm_entry
                0x00024414       0x94 examples/serial/CMakeFiles/serial_nrf52832_xxAA_s132_3.1.0.dir/__/__/mesh/access/src/device_state_manager.c.obj
 .text.flash_update_all
                0x000244a8      0x144 examples/serial/CMakeFiles/serial_nrf52832_xxAA_s132_3.1.0.dir/__/__/mesh/access/src/device_state_manager.c.obj
 .text.flash_remove_complete
                0x000245ec       0x90 examples/serial/CMakeFiles/serial_nrf52832_xxAA_s132_3.1.0.dir/__/__/mesh/access/src/device_state_manager.c.obj
 .text.subnet_to_dsm_entry
                0x0002467c       0xbc examples/serial/CMakeFiles/serial_nrf52832_xxAA_s132_3.1.0.dir/__/__/mesh/access/src/device_state_manager.c.obj
 .text.address_delete_if_unused
                0x00024738      0x100 examples/serial/CMakeFiles/serial_nrf52832_xxAA_s132_3.1.0.dir/__/__/mesh/access/src/device_state_manager.c.obj
 .text.dsm_init
                0x00024838       0xa8 examples/serial/CMakeFiles/serial_nrf52832_xxAA_s132_3.1.0.dir/__/__/mesh/access/src/device_state_manager.c.obj
                0x00024838                dsm_init
 .text.dsm_flash_area_get
                0x000248e0        0xc examples/serial/CMakeFiles/serial_nrf52832_xxAA_s132_3.1.0.dir/__/__/mesh/access/src/device_state_manager.c.obj
                0x000248e0                dsm_flash_area_get
 .text.dsm_clear
                0x000248ec      0x10c examples/serial/CMakeFiles/serial_nrf52832_xxAA_s132_3.1.0.dir/__/__/mesh/access/src/device_state_manager.c.obj
                0x000248ec                dsm_clear
 .text.dsm_local_unicast_addresses_set
                0x000249f8       0x78 examples/serial/CMakeFiles/serial_nrf52832_xxAA_s132_3.1.0.dir/__/__/mesh/access/src/device_state_manager.c.obj
                0x000249f8                dsm_local_unicast_addresses_set
 .text.dsm_local_unicast_addresses_get
                0x00024a70       0x2c examples/serial/CMakeFiles/serial_nrf52832_xxAA_s132_3.1.0.dir/__/__/mesh/access/src/device_state_manager.c.obj
                0x00024a70                dsm_local_unicast_addresses_get
 .text.dsm_address_publish_add
                0x00024a9c      0x330 examples/serial/CMakeFiles/serial_nrf52832_xxAA_s132_3.1.0.dir/__/__/mesh/access/src/device_state_manager.c.obj
                0x00024a9c                dsm_address_publish_add
 .text.dsm_address_publish_virtual_add
                0x00024dcc      0x268 examples/serial/CMakeFiles/serial_nrf52832_xxAA_s132_3.1.0.dir/__/__/mesh/access/src/device_state_manager.c.obj
                0x00024dcc                dsm_address_publish_virtual_add
 .text.dsm_address_publish_remove
                0x00025034       0xbc examples/serial/CMakeFiles/serial_nrf52832_xxAA_s132_3.1.0.dir/__/__/mesh/access/src/device_state_manager.c.obj
                0x00025034                dsm_address_publish_remove
 .text.dsm_address_subscription_add
                0x000250f0      0x31c examples/serial/CMakeFiles/serial_nrf52832_xxAA_s132_3.1.0.dir/__/__/mesh/access/src/device_state_manager.c.obj
                0x000250f0                dsm_address_subscription_add
 .text.dsm_address_subscription_virtual_add
                0x0002540c      0x268 examples/serial/CMakeFiles/serial_nrf52832_xxAA_s132_3.1.0.dir/__/__/mesh/access/src/device_state_manager.c.obj
                0x0002540c                dsm_address_subscription_virtual_add
 .text.dsm_address_subscription_get
                0x00025674       0x5c examples/serial/CMakeFiles/serial_nrf52832_xxAA_s132_3.1.0.dir/__/__/mesh/access/src/device_state_manager.c.obj
                0x00025674                dsm_address_subscription_get
 .text.dsm_address_subscription_remove
                0x000256d0       0x94 examples/serial/CMakeFiles/serial_nrf52832_xxAA_s132_3.1.0.dir/__/__/mesh/access/src/device_state_manager.c.obj
                0x000256d0                dsm_address_subscription_remove
 .text.dsm_address_get
                0x00025764       0x7c examples/serial/CMakeFiles/serial_nrf52832_xxAA_s132_3.1.0.dir/__/__/mesh/access/src/device_state_manager.c.obj
                0x00025764                dsm_address_get
 .text.dsm_address_get_all
                0x000257e0      0x258 examples/serial/CMakeFiles/serial_nrf52832_xxAA_s132_3.1.0.dir/__/__/mesh/access/src/device_state_manager.c.obj
                0x000257e0                dsm_address_get_all
 .text.dsm_address_handle_get
                0x00025a38      0x3cc examples/serial/CMakeFiles/serial_nrf52832_xxAA_s132_3.1.0.dir/__/__/mesh/access/src/device_state_manager.c.obj
                0x00025a38                dsm_address_handle_get
 .text.dsm_subnet_handle_get
                0x00025e04       0x2c examples/serial/CMakeFiles/serial_nrf52832_xxAA_s132_3.1.0.dir/__/__/mesh/access/src/device_state_manager.c.obj
                0x00025e04                dsm_subnet_handle_get
 .text.dsm_appkey_handle_get
                0x00025e30       0x50 examples/serial/CMakeFiles/serial_nrf52832_xxAA_s132_3.1.0.dir/__/__/mesh/access/src/device_state_manager.c.obj
                0x00025e30                dsm_appkey_handle_get
 .text.dsm_subnet_add
                0x00025e80       0xfc examples/serial/CMakeFiles/serial_nrf52832_xxAA_s132_3.1.0.dir/__/__/mesh/access/src/device_state_manager.c.obj
                0x00025e80                dsm_subnet_add
 .text.dsm_subnet_update
                0x00025f7c       0x90 examples/serial/CMakeFiles/serial_nrf52832_xxAA_s132_3.1.0.dir/__/__/mesh/access/src/device_state_manager.c.obj
                0x00025f7c                dsm_subnet_update
 .text.dsm_subnet_delete
                0x0002600c      0x220 examples/serial/CMakeFiles/serial_nrf52832_xxAA_s132_3.1.0.dir/__/__/mesh/access/src/device_state_manager.c.obj
                0x0002600c                dsm_subnet_delete
 .text.dsm_subnet_get_all
                0x0002622c       0x90 examples/serial/CMakeFiles/serial_nrf52832_xxAA_s132_3.1.0.dir/__/__/mesh/access/src/device_state_manager.c.obj
                0x0002622c                dsm_subnet_get_all
 .text.dsm_devkey_add
                0x000262bc      0x11c examples/serial/CMakeFiles/serial_nrf52832_xxAA_s132_3.1.0.dir/__/__/mesh/access/src/device_state_manager.c.obj
                0x000262bc                dsm_devkey_add
 .text.dsm_devkey_delete
                0x000263d8       0x80 examples/serial/CMakeFiles/serial_nrf52832_xxAA_s132_3.1.0.dir/__/__/mesh/access/src/device_state_manager.c.obj
                0x000263d8                dsm_devkey_delete
 .text.dsm_appkey_add
                0x00026458      0x1cc examples/serial/CMakeFiles/serial_nrf52832_xxAA_s132_3.1.0.dir/__/__/mesh/access/src/device_state_manager.c.obj
                0x00026458                dsm_appkey_add
 .text.dsm_appkey_update
                0x00026624       0xf0 examples/serial/CMakeFiles/serial_nrf52832_xxAA_s132_3.1.0.dir/__/__/mesh/access/src/device_state_manager.c.obj
                0x00026624                dsm_appkey_update
 .text.dsm_appkey_delete
                0x00026714       0x68 examples/serial/CMakeFiles/serial_nrf52832_xxAA_s132_3.1.0.dir/__/__/mesh/access/src/device_state_manager.c.obj
                0x00026714                dsm_appkey_delete
 .text.dsm_appkey_get_all
                0x0002677c      0x154 examples/serial/CMakeFiles/serial_nrf52832_xxAA_s132_3.1.0.dir/__/__/mesh/access/src/device_state_manager.c.obj
                0x0002677c                dsm_appkey_get_all
 .text.dsm_tx_secmat_get
                0x000268d0      0x120 examples/serial/CMakeFiles/serial_nrf52832_xxAA_s132_3.1.0.dir/__/__/mesh/access/src/device_state_manager.c.obj
                0x000268d0                dsm_tx_secmat_get
 .text.nrf_mesh_net_secmat_next_get
                0x000269f0       0xfc examples/serial/CMakeFiles/serial_nrf52832_xxAA_s132_3.1.0.dir/__/__/mesh/access/src/device_state_manager.c.obj
                0x000269f0                nrf_mesh_net_secmat_next_get
 .text.nrf_mesh_app_secmat_next_get
                0x00026aec      0x24c examples/serial/CMakeFiles/serial_nrf52832_xxAA_s132_3.1.0.dir/__/__/mesh/access/src/device_state_manager.c.obj
                0x00026aec                nrf_mesh_app_secmat_next_get
 .text.nrf_mesh_devkey_secmat_get
                0x00026d38       0x58 examples/serial/CMakeFiles/serial_nrf52832_xxAA_s132_3.1.0.dir/__/__/mesh/access/src/device_state_manager.c.obj
                0x00026d38                nrf_mesh_devkey_secmat_get
 .text.nrf_mesh_beacon_info_next_get
                0x00026d90      0x11c examples/serial/CMakeFiles/serial_nrf52832_xxAA_s132_3.1.0.dir/__/__/mesh/access/src/device_state_manager.c.obj
                0x00026d90                nrf_mesh_beacon_info_next_get
 .text.nrf_mesh_rx_address_get
                0x00026eac      0x558 examples/serial/CMakeFiles/serial_nrf52832_xxAA_s132_3.1.0.dir/__/__/mesh/access/src/device_state_manager.c.obj
                0x00026eac                nrf_mesh_rx_address_get
 .text.UARTE0_UART0_IRQHandler
                0x00027404       0x74 examples/serial/CMakeFiles/serial_nrf52832_xxAA_s132_3.1.0.dir/__/__/mesh/serial/src/serial_uart.c.obj
                0x00027404                UARTE0_UART0_IRQHandler
 .text.serial_uart_init
                0x00027478       0xac examples/serial/CMakeFiles/serial_nrf52832_xxAA_s132_3.1.0.dir/__/__/mesh/serial/src/serial_uart.c.obj
                0x00027478                serial_uart_init
 .text.serial_uart_process
                0x00027524       0x74 examples/serial/CMakeFiles/serial_nrf52832_xxAA_s132_3.1.0.dir/__/__/mesh/serial/src/serial_uart.c.obj
                0x00027524                serial_uart_process
 .text.serial_uart_receive_set
                0x00027598        0xc examples/serial/CMakeFiles/serial_nrf52832_xxAA_s132_3.1.0.dir/__/__/mesh/serial/src/serial_uart.c.obj
                0x00027598                serial_uart_receive_set
 .text.do_transmit
                0x000275a4       0x48 examples/serial/CMakeFiles/serial_nrf52832_xxAA_s132_3.1.0.dir/__/__/mesh/serial/src/serial_bearer.c.obj
 .text.char_tx  0x000275ec       0x94 examples/serial/CMakeFiles/serial_nrf52832_xxAA_s132_3.1.0.dir/__/__/mesh/serial/src/serial_bearer.c.obj
 .text.serial_bearer_init
                0x00027680       0x80 examples/serial/CMakeFiles/serial_nrf52832_xxAA_s132_3.1.0.dir/__/__/mesh/serial/src/serial_bearer.c.obj
                0x00027680                serial_bearer_init
 .text.serial_bearer_blocking_buffer_get
                0x00027700       0x90 examples/serial/CMakeFiles/serial_nrf52832_xxAA_s132_3.1.0.dir/__/__/mesh/serial/src/serial_bearer.c.obj
                0x00027700                serial_bearer_blocking_buffer_get
 .text.serial_bearer_tx
                0x00027790       0x70 examples/serial/CMakeFiles/serial_nrf52832_xxAA_s132_3.1.0.dir/__/__/mesh/serial/src/serial_bearer.c.obj
                0x00027790                serial_bearer_tx
 .text.char_rx  0x00027800       0xd0 examples/serial/CMakeFiles/serial_nrf52832_xxAA_s132_3.1.0.dir/__/__/mesh/serial/src/serial_bearer.c.obj
 .text.serial_bearer_rx_get
                0x000278d0       0x3c examples/serial/CMakeFiles/serial_nrf52832_xxAA_s132_3.1.0.dir/__/__/mesh/serial/src/serial_bearer.c.obj
                0x000278d0                serial_bearer_rx_get
 .text.serial_handler_common_cmd_rsp_nodata_on_error
                0x0002790c       0x38 examples/serial/CMakeFiles/serial_nrf52832_xxAA_s132_3.1.0.dir/__/__/mesh/serial/src/serial_handler_common.c.obj
                0x0002790c                serial_handler_common_cmd_rsp_nodata_on_error
 .text.serial_handler_common_rx
                0x00027944       0x60 examples/serial/CMakeFiles/serial_nrf52832_xxAA_s132_3.1.0.dir/__/__/mesh/serial/src/serial_handler_common.c.obj
                0x00027944                serial_handler_common_rx
 .text.access_flash_store
                0x000279a4       0x18 examples/serial/CMakeFiles/serial_nrf52832_xxAA_s132_3.1.0.dir/__/__/mesh/serial/src/serial_handler_access.c.obj
 .text.elem_models_get
                0x000279bc       0x50 examples/serial/CMakeFiles/serial_nrf52832_xxAA_s132_3.1.0.dir/__/__/mesh/serial/src/serial_handler_access.c.obj
 .text.handle_get
                0x00027a0c       0x20 examples/serial/CMakeFiles/serial_nrf52832_xxAA_s132_3.1.0.dir/__/__/mesh/serial/src/serial_handler_access.c.obj
 .text.model_id_get
                0x00027a2c       0x20 examples/serial/CMakeFiles/serial_nrf52832_xxAA_s132_3.1.0.dir/__/__/mesh/serial/src/serial_handler_access.c.obj
 .text.elem_vendor_model_cnt_get
                0x00027a4c       0x20 examples/serial/CMakeFiles/serial_nrf52832_xxAA_s132_3.1.0.dir/__/__/mesh/serial/src/serial_handler_access.c.obj
 .text.elem_sig_model_cnt_get
                0x00027a6c       0x20 examples/serial/CMakeFiles/serial_nrf52832_xxAA_s132_3.1.0.dir/__/__/mesh/serial/src/serial_handler_access.c.obj
 .text.elem_loc_get
                0x00027a8c       0x20 examples/serial/CMakeFiles/serial_nrf52832_xxAA_s132_3.1.0.dir/__/__/mesh/serial/src/serial_handler_access.c.obj
 .text.elem_loc_set
                0x00027aac       0x24 examples/serial/CMakeFiles/serial_nrf52832_xxAA_s132_3.1.0.dir/__/__/mesh/serial/src/serial_handler_access.c.obj
 .text.model_pub_ttl_get
                0x00027ad0       0x20 examples/serial/CMakeFiles/serial_nrf52832_xxAA_s132_3.1.0.dir/__/__/mesh/serial/src/serial_handler_access.c.obj
 .text.model_pub_ttl_set
                0x00027af0       0x24 examples/serial/CMakeFiles/serial_nrf52832_xxAA_s132_3.1.0.dir/__/__/mesh/serial/src/serial_handler_access.c.obj
 .text.model_pub_app_get
                0x00027b14       0x20 examples/serial/CMakeFiles/serial_nrf52832_xxAA_s132_3.1.0.dir/__/__/mesh/serial/src/serial_handler_access.c.obj
 .text.model_pub_app_set
                0x00027b34       0x24 examples/serial/CMakeFiles/serial_nrf52832_xxAA_s132_3.1.0.dir/__/__/mesh/serial/src/serial_handler_access.c.obj
 .text.model_app_get
                0x00027b58       0x50 examples/serial/CMakeFiles/serial_nrf52832_xxAA_s132_3.1.0.dir/__/__/mesh/serial/src/serial_handler_access.c.obj
 .text.model_app_unbind
                0x00027ba8       0x24 examples/serial/CMakeFiles/serial_nrf52832_xxAA_s132_3.1.0.dir/__/__/mesh/serial/src/serial_handler_access.c.obj
 .text.model_app_bind
                0x00027bcc       0x24 examples/serial/CMakeFiles/serial_nrf52832_xxAA_s132_3.1.0.dir/__/__/mesh/serial/src/serial_handler_access.c.obj
 .text.model_subs_get
                0x00027bf0       0x50 examples/serial/CMakeFiles/serial_nrf52832_xxAA_s132_3.1.0.dir/__/__/mesh/serial/src/serial_handler_access.c.obj
 .text.model_subs_remove
                0x00027c40       0x24 examples/serial/CMakeFiles/serial_nrf52832_xxAA_s132_3.1.0.dir/__/__/mesh/serial/src/serial_handler_access.c.obj
 .text.model_subs_add
                0x00027c64       0x24 examples/serial/CMakeFiles/serial_nrf52832_xxAA_s132_3.1.0.dir/__/__/mesh/serial/src/serial_handler_access.c.obj
 .text.model_pub_period_get
                0x00027c88       0x24 examples/serial/CMakeFiles/serial_nrf52832_xxAA_s132_3.1.0.dir/__/__/mesh/serial/src/serial_handler_access.c.obj
 .text.model_pub_period_set
                0x00027cac       0x24 examples/serial/CMakeFiles/serial_nrf52832_xxAA_s132_3.1.0.dir/__/__/mesh/serial/src/serial_handler_access.c.obj
 .text.model_pub_addr_get
                0x00027cd0       0x20 examples/serial/CMakeFiles/serial_nrf52832_xxAA_s132_3.1.0.dir/__/__/mesh/serial/src/serial_handler_access.c.obj
 .text.model_pub_addr_set
                0x00027cf0       0x24 examples/serial/CMakeFiles/serial_nrf52832_xxAA_s132_3.1.0.dir/__/__/mesh/serial/src/serial_handler_access.c.obj
 .text.serial_handler_access_rx
                0x00027d14       0x30 examples/serial/CMakeFiles/serial_nrf52832_xxAA_s132_3.1.0.dir/__/__/mesh/serial/src/serial_handler_access.c.obj
                0x00027d14                serial_handler_access_rx
 .text.serial_handler_config_rx
                0x00027d44       0xf8 examples/serial/CMakeFiles/serial_nrf52832_xxAA_s132_3.1.0.dir/__/__/mesh/serial/src/serial_handler_config.c.obj
                0x00027d44                serial_handler_config_rx
 .text.serial_handler_openmesh_rx
                0x00027e3c       0x38 examples/serial/CMakeFiles/serial_nrf52832_xxAA_s132_3.1.0.dir/__/__/mesh/serial/src/serial_handler_openmesh.c.obj
                0x00027e3c                serial_handler_openmesh_rx
 .text.serial_process_cmd
                0x00027e74      0x218 examples/serial/CMakeFiles/serial_nrf52832_xxAA_s132_3.1.0.dir/__/__/mesh/serial/src/serial.c.obj
 .text.serial_init
                0x0002808c       0x1c examples/serial/CMakeFiles/serial_nrf52832_xxAA_s132_3.1.0.dir/__/__/mesh/serial/src/serial.c.obj
                0x0002808c                serial_init
 .text.serial_start
                0x000280a8      0x134 examples/serial/CMakeFiles/serial_nrf52832_xxAA_s132_3.1.0.dir/__/__/mesh/serial/src/serial.c.obj
                0x000280a8                serial_start
 .text.serial_packet_buffer_get
                0x000281dc       0x14 examples/serial/CMakeFiles/serial_nrf52832_xxAA_s132_3.1.0.dir/__/__/mesh/serial/src/serial.c.obj
                0x000281dc                serial_packet_buffer_get
 .text.serial_tx
                0x000281f0       0x34 examples/serial/CMakeFiles/serial_nrf52832_xxAA_s132_3.1.0.dir/__/__/mesh/serial/src/serial.c.obj
                0x000281f0                serial_tx
 .text.serial_process
                0x00028224       0x34 examples/serial/CMakeFiles/serial_nrf52832_xxAA_s132_3.1.0.dir/__/__/mesh/serial/src/serial.c.obj
                0x00028224                serial_process
 .text.serial_translate_error
                0x00028258       0x70 examples/serial/CMakeFiles/serial_nrf52832_xxAA_s132_3.1.0.dir/__/__/mesh/serial/src/serial.c.obj
                0x00028258                serial_translate_error
 .text.serial_state_get
                0x000282c8        0xc examples/serial/CMakeFiles/serial_nrf52832_xxAA_s132_3.1.0.dir/__/__/mesh/serial/src/serial.c.obj
                0x000282c8                serial_state_get
 .text.serial_cmd_rsp_send
                0x000282d4       0x8c examples/serial/CMakeFiles/serial_nrf52832_xxAA_s132_3.1.0.dir/__/__/mesh/serial/src/serial.c.obj
                0x000282d4                serial_cmd_rsp_send
 .text.serial_handler_prov_evt_in
                0x00028360      0x3a8 examples/serial/CMakeFiles/serial_nrf52832_xxAA_s132_3.1.0.dir/__/__/mesh/serial/src/serial_handler_prov.c.obj
 .text.serial_handler_prov_init
                0x00028708       0x98 examples/serial/CMakeFiles/serial_nrf52832_xxAA_s132_3.1.0.dir/__/__/mesh/serial/src/serial_handler_prov.c.obj
                0x00028708                serial_handler_prov_init
 .text.serial_handler_prov_pkt_in
                0x000287a0      0x264 examples/serial/CMakeFiles/serial_nrf52832_xxAA_s132_3.1.0.dir/__/__/mesh/serial/src/serial_handler_prov.c.obj
                0x000287a0                serial_handler_prov_pkt_in
 .text.serial_handler_mesh_evt_handle
                0x00028a04      0x204 examples/serial/CMakeFiles/serial_nrf52832_xxAA_s132_3.1.0.dir/__/__/mesh/serial/src/serial_handler_dfu.c.obj
 .text.serial_handler_dfu_init
                0x00028c08       0x14 examples/serial/CMakeFiles/serial_nrf52832_xxAA_s132_3.1.0.dir/__/__/mesh/serial/src/serial_handler_dfu.c.obj
                0x00028c08                serial_handler_dfu_init
 .text.serial_handler_dfu_rx
                0x00028c1c      0x178 examples/serial/CMakeFiles/serial_nrf52832_xxAA_s132_3.1.0.dir/__/__/mesh/serial/src/serial_handler_dfu.c.obj
                0x00028c1c                serial_handler_dfu_rx
 .text.serial_handler_mesh_evt_handle
                0x00028d94      0x168 examples/serial/CMakeFiles/serial_nrf52832_xxAA_s132_3.1.0.dir/__/__/mesh/serial/src/serial_handler_mesh.c.obj
 .text.handle_cmd_clear
                0x00028efc       0x20 examples/serial/CMakeFiles/serial_nrf52832_xxAA_s132_3.1.0.dir/__/__/mesh/serial/src/serial_handler_mesh.c.obj
 .text.handle_cmd_packet_send
                0x00028f1c       0x90 examples/serial/CMakeFiles/serial_nrf52832_xxAA_s132_3.1.0.dir/__/__/mesh/serial/src/serial_handler_mesh.c.obj
 .text.handle_cmd_addr_virtual_count_max_get
                0x00028fac       0x1c examples/serial/CMakeFiles/serial_nrf52832_xxAA_s132_3.1.0.dir/__/__/mesh/serial/src/serial_handler_mesh.c.obj
 .text.handle_cmd_addr_nonvirtual_count_max_get
                0x00028fc8       0x1c examples/serial/CMakeFiles/serial_nrf52832_xxAA_s132_3.1.0.dir/__/__/mesh/serial/src/serial_handler_mesh.c.obj
 .text.handle_cmd_addr_local_unicast_get
                0x00028fe4       0x24 examples/serial/CMakeFiles/serial_nrf52832_xxAA_s132_3.1.0.dir/__/__/mesh/serial/src/serial_handler_mesh.c.obj
 .text.handle_cmd_devkey_count_max_get
                0x00029008       0x1c examples/serial/CMakeFiles/serial_nrf52832_xxAA_s132_3.1.0.dir/__/__/mesh/serial/src/serial_handler_mesh.c.obj
 .text.handle_cmd_subnet_count_max_get
                0x00029024       0x1c examples/serial/CMakeFiles/serial_nrf52832_xxAA_s132_3.1.0.dir/__/__/mesh/serial/src/serial_handler_mesh.c.obj
 .text.handle_cmd_addr_get_all
                0x00029040       0x28 examples/serial/CMakeFiles/serial_nrf52832_xxAA_s132_3.1.0.dir/__/__/mesh/serial/src/serial_handler_mesh.c.obj
 .text.handle_cmd_addr_get
                0x00029068       0x64 examples/serial/CMakeFiles/serial_nrf52832_xxAA_s132_3.1.0.dir/__/__/mesh/serial/src/serial_handler_mesh.c.obj
 .text.handle_cmd_addr_publication_remove
                0x000290cc       0x28 examples/serial/CMakeFiles/serial_nrf52832_xxAA_s132_3.1.0.dir/__/__/mesh/serial/src/serial_handler_mesh.c.obj
 .text.handle_cmd_addr_publication_add_virtual
                0x000290f4       0x28 examples/serial/CMakeFiles/serial_nrf52832_xxAA_s132_3.1.0.dir/__/__/mesh/serial/src/serial_handler_mesh.c.obj
 .text.handle_cmd_addr_publication_add
                0x0002911c       0x28 examples/serial/CMakeFiles/serial_nrf52832_xxAA_s132_3.1.0.dir/__/__/mesh/serial/src/serial_handler_mesh.c.obj
 .text.handle_cmd_addr_subscription_remove
                0x00029144       0x28 examples/serial/CMakeFiles/serial_nrf52832_xxAA_s132_3.1.0.dir/__/__/mesh/serial/src/serial_handler_mesh.c.obj
 .text.handle_cmd_addr_subscription_add_virtual
                0x0002916c       0x28 examples/serial/CMakeFiles/serial_nrf52832_xxAA_s132_3.1.0.dir/__/__/mesh/serial/src/serial_handler_mesh.c.obj
 .text.handle_cmd_addr_subscription_add
                0x00029194       0x28 examples/serial/CMakeFiles/serial_nrf52832_xxAA_s132_3.1.0.dir/__/__/mesh/serial/src/serial_handler_mesh.c.obj
 .text.handle_cmd_addr_local_unicast_set
                0x000291bc       0x24 examples/serial/CMakeFiles/serial_nrf52832_xxAA_s132_3.1.0.dir/__/__/mesh/serial/src/serial_handler_mesh.c.obj
 .text.handle_cmd_devkey_delete
                0x000291e0       0x28 examples/serial/CMakeFiles/serial_nrf52832_xxAA_s132_3.1.0.dir/__/__/mesh/serial/src/serial_handler_mesh.c.obj
 .text.handle_cmd_devkey_add
                0x00029208       0x24 examples/serial/CMakeFiles/serial_nrf52832_xxAA_s132_3.1.0.dir/__/__/mesh/serial/src/serial_handler_mesh.c.obj
 .text.handle_cmd_appkey_get_all
                0x0002922c       0x40 examples/serial/CMakeFiles/serial_nrf52832_xxAA_s132_3.1.0.dir/__/__/mesh/serial/src/serial_handler_mesh.c.obj
 .text.handle_cmd_appkey_delete
                0x0002926c       0x28 examples/serial/CMakeFiles/serial_nrf52832_xxAA_s132_3.1.0.dir/__/__/mesh/serial/src/serial_handler_mesh.c.obj
 .text.handle_cmd_appkey_update
                0x00029294       0x2c examples/serial/CMakeFiles/serial_nrf52832_xxAA_s132_3.1.0.dir/__/__/mesh/serial/src/serial_handler_mesh.c.obj
 .text.handle_cmd_appkey_add
                0x000292c0       0x2c examples/serial/CMakeFiles/serial_nrf52832_xxAA_s132_3.1.0.dir/__/__/mesh/serial/src/serial_handler_mesh.c.obj
 .text.handle_cmd_subnet_get_all
                0x000292ec       0x38 examples/serial/CMakeFiles/serial_nrf52832_xxAA_s132_3.1.0.dir/__/__/mesh/serial/src/serial_handler_mesh.c.obj
 .text.handle_cmd_subnet_delete
                0x00029324       0x28 examples/serial/CMakeFiles/serial_nrf52832_xxAA_s132_3.1.0.dir/__/__/mesh/serial/src/serial_handler_mesh.c.obj
 .text.handle_cmd_subnet_update
                0x0002934c       0x2c examples/serial/CMakeFiles/serial_nrf52832_xxAA_s132_3.1.0.dir/__/__/mesh/serial/src/serial_handler_mesh.c.obj
 .text.handle_cmd_subnet_add
                0x00029378       0x2c examples/serial/CMakeFiles/serial_nrf52832_xxAA_s132_3.1.0.dir/__/__/mesh/serial/src/serial_handler_mesh.c.obj
 .text.handle_cmd_disable
                0x000293a4       0x18 examples/serial/CMakeFiles/serial_nrf52832_xxAA_s132_3.1.0.dir/__/__/mesh/serial/src/serial_handler_mesh.c.obj
 .text.handle_cmd_enable
                0x000293bc       0x18 examples/serial/CMakeFiles/serial_nrf52832_xxAA_s132_3.1.0.dir/__/__/mesh/serial/src/serial_handler_mesh.c.obj
 .text.handle_cmd_appkey_count_max_get
                0x000293d4       0x1c examples/serial/CMakeFiles/serial_nrf52832_xxAA_s132_3.1.0.dir/__/__/mesh/serial/src/serial_handler_mesh.c.obj
 .text.serial_handler_mesh_init
                0x000293f0       0x14 examples/serial/CMakeFiles/serial_nrf52832_xxAA_s132_3.1.0.dir/__/__/mesh/serial/src/serial_handler_mesh.c.obj
                0x000293f0                serial_handler_mesh_init
 .text.serial_handler_mesh_rx
                0x00029404       0x8c examples/serial/CMakeFiles/serial_nrf52832_xxAA_s132_3.1.0.dir/__/__/mesh/serial/src/serial_handler_mesh.c.obj
                0x00029404                serial_handler_mesh_rx
 .text.model_command
                0x00029490       0x74 examples/serial/CMakeFiles/serial_nrf52832_xxAA_s132_3.1.0.dir/__/__/mesh/serial/src/serial_handler_models.c.obj
 .text.models_get
                0x00029504       0x48 examples/serial/CMakeFiles/serial_nrf52832_xxAA_s132_3.1.0.dir/__/__/mesh/serial/src/serial_handler_models.c.obj
 .text.model_init
                0x0002954c       0x50 examples/serial/CMakeFiles/serial_nrf52832_xxAA_s132_3.1.0.dir/__/__/mesh/serial/src/serial_handler_models.c.obj
 .text.serial_handler_models_rx
                0x0002959c       0x30 examples/serial/CMakeFiles/serial_nrf52832_xxAA_s132_3.1.0.dir/__/__/mesh/serial/src/serial_handler_models.c.obj
                0x0002959c                serial_handler_models_rx
 .text.handle_cmd_device_beacon_params_get
                0x000295cc       0xb0 examples/serial/CMakeFiles/serial_nrf52832_xxAA_s132_3.1.0.dir/__/__/mesh/serial/src/serial_handler_device.c.obj
 .text.handle_cmd_device_fw_info_get
                0x0002967c        0xc examples/serial/CMakeFiles/serial_nrf52832_xxAA_s132_3.1.0.dir/__/__/mesh/serial/src/serial_handler_device.c.obj
 .text.handle_cmd_device_serial_version_get
                0x00029688       0x1c examples/serial/CMakeFiles/serial_nrf52832_xxAA_s132_3.1.0.dir/__/__/mesh/serial/src/serial_handler_device.c.obj
 .text.handle_cmd_device_beacon_params_set
                0x000296a4       0x8c examples/serial/CMakeFiles/serial_nrf52832_xxAA_s132_3.1.0.dir/__/__/mesh/serial/src/serial_handler_device.c.obj
 .text.handle_cmd_device_beacon_stop
                0x00029730       0x48 examples/serial/CMakeFiles/serial_nrf52832_xxAA_s132_3.1.0.dir/__/__/mesh/serial/src/serial_handler_device.c.obj
 .text.handle_cmd_device_beacon_start
                0x00029778       0x70 examples/serial/CMakeFiles/serial_nrf52832_xxAA_s132_3.1.0.dir/__/__/mesh/serial/src/serial_handler_device.c.obj
 .text.handle_cmd_device_radio_reset
                0x000297e8       0x1c examples/serial/CMakeFiles/serial_nrf52832_xxAA_s132_3.1.0.dir/__/__/mesh/serial/src/serial_handler_device.c.obj
 .text.handle_cmd_device_internal_events_report
                0x00029804       0x20 examples/serial/CMakeFiles/serial_nrf52832_xxAA_s132_3.1.0.dir/__/__/mesh/serial/src/serial_handler_device.c.obj
 .text.event_report_cb
                0x00029824       0x5c examples/serial/CMakeFiles/serial_nrf52832_xxAA_s132_3.1.0.dir/__/__/mesh/serial/src/serial_handler_device.c.obj
 .text.handle_cmd_device_echo
                0x00029880       0x40 examples/serial/CMakeFiles/serial_nrf52832_xxAA_s132_3.1.0.dir/__/__/mesh/serial/src/serial_handler_device.c.obj
 .text.serial_handler_device_init
                0x000298c0       0x14 examples/serial/CMakeFiles/serial_nrf52832_xxAA_s132_3.1.0.dir/__/__/mesh/serial/src/serial_handler_device.c.obj
                0x000298c0                serial_handler_device_init
 .text.serial_handler_device_rx
                0x000298d4       0x30 examples/serial/CMakeFiles/serial_nrf52832_xxAA_s132_3.1.0.dir/__/__/mesh/serial/src/serial_handler_device.c.obj
                0x000298d4                serial_handler_device_rx
 .text.nrf_mesh_serial_init
                0x00029904       0x3c examples/serial/CMakeFiles/serial_nrf52832_xxAA_s132_3.1.0.dir/__/__/mesh/serial/src/nrf_mesh_serial.c.obj
                0x00029904                nrf_mesh_serial_init
 .text.nrf_mesh_serial_enable
                0x00029940        0x4 examples/serial/CMakeFiles/serial_nrf52832_xxAA_s132_3.1.0.dir/__/__/mesh/serial/src/nrf_mesh_serial.c.obj
                0x00029940                nrf_mesh_serial_enable
 .text.serial_handler_app_cb_set
                0x00029944        0xc examples/serial/CMakeFiles/serial_nrf52832_xxAA_s132_3.1.0.dir/__/__/mesh/serial/src/serial_handler_app.c.obj
                0x00029944                serial_handler_app_cb_set
 .text.serial_handler_app_rx
                0x00029950       0x30 examples/serial/CMakeFiles/serial_nrf52832_xxAA_s132_3.1.0.dir/__/__/mesh/serial/src/serial_handler_app.c.obj
                0x00029950                serial_handler_app_rx
 .text._weak_handler
                0x00029980        0x4 examples/serial/CMakeFiles/serial_nrf52832_xxAA_s132_3.1.0.dir/__/nrf_mesh_weak.c.obj
                0x00029980                nrf_mesh_dfu_init
                0x00029980                nrf_mesh_dfu_jump_to_bootloader
                0x00029980                nrf_mesh_dfu_rx
                0x00029980                nrf_mesh_dfu_bank_info_get
                0x00029980                nrf_mesh_dfu_request
                0x00029980                nrf_mesh_dfu_bank_flash
                0x00029980                _weak_handler
                0x00029980                nrf_mesh_dfu_relay
                0x00029980                nrf_mesh_dfu_abort
                0x00029980                mesh_flash_op_execute
                0x00029980                nrf_mesh_dfu_state_get
 .text.SystemInit
                0x00029984      0x390 examples/serial/CMakeFiles/serial_nrf52832_xxAA_s132_3.1.0.dir/__/__/external/nRF5_SDK_14.0.0_3bcc1f7/components/toolchain/system_nrf52.c.obj
                0x00029984                SystemInit
 .text          0x00029d14       0x3c examples/serial/CMakeFiles/serial_nrf52832_xxAA_s132_3.1.0.dir/__/__/external/nRF5_SDK_14.0.0_3bcc1f7/components/toolchain/gcc/gcc_startup_nrf52.S.obj
                0x00029d14                Reset_Handler
                0x00029d3c                NMI_Handler
                0x00029d40                MemoryManagement_Handler
                0x00029d42                BusFault_Handler
                0x00029d44                UsageFault_Handler
                0x00029d46                SVC_Handler
                0x00029d48                DebugMon_Handler
                0x00029d4a                PendSV_Handler
                0x00029d4c                SysTick_Handler
                0x00029d4e                POWER_CLOCK_IRQHandler
                0x00029d4e                RADIO_IRQHandler
                0x00029d4e                PDM_IRQHandler
                0x00029d4e                RTC0_IRQHandler
                0x00029d4e                TIMER3_IRQHandler
                0x00029d4e                FPU_IRQHandler
                0x00029d4e                SPIM0_SPIS0_TWIM0_TWIS0_SPI0_TWI0_IRQHandler
                0x00029d4e                GPIOTE_IRQHandler
                0x00029d4e                TEMP_IRQHandler
                0x00029d4e                I2S_IRQHandler
                0x00029d4e                SWI4_EGU4_IRQHandler
                0x00029d4e                TIMER0_IRQHandler
                0x00029d4e                PWM1_IRQHandler
                0x00029d4e                TIMER1_IRQHandler
                0x00029d4e                PWM2_IRQHandler
                0x00029d4e                ECB_IRQHandler
                0x00029d4e                SPIM1_SPIS1_TWIM1_TWIS1_SPI1_TWI1_IRQHandler
                0x00029d4e                Default_Handler
                0x00029d4e                SAADC_IRQHandler
                0x00029d4e                CCM_AAR_IRQHandler
                0x00029d4e                WDT_IRQHandler
                0x00029d4e                TIMER4_IRQHandler
                0x00029d4e                SWI5_EGU5_IRQHandler
                0x00029d4e                RNG_IRQHandler
                0x00029d4e                RTC2_IRQHandler
                0x00029d4e                PWM0_IRQHandler
                0x00029d4e                SWI3_EGU3_IRQHandler
                0x00029d4e                RTC1_IRQHandler
                0x00029d4e                SWI1_EGU1_IRQHandler
                0x00029d4e                SPIM2_SPIS2_SPI2_IRQHandler
                0x00029d4e                NFCT_IRQHandler
                0x00029d4e                SWI0_EGU0_IRQHandler
                0x00029d4e                MWU_IRQHandler
                0x00029d4e                TIMER2_IRQHandler
                0x00029d4e                COMP_LPCOMP_IRQHandler
 .text.internal_event_init
                0x00029d50       0x48 mesh/core/libmesh_core_nrf52832_xxAA.a(internal_event.c.obj)
                0x00029d50                internal_event_init
 .text.internal_event_push
                0x00029d98       0x28 mesh/core/libmesh_core_nrf52832_xxAA.a(internal_event.c.obj)
                0x00029d98                internal_event_push
 .text.nrf_mesh_configure_device_uuid_set
                0x00029dc0       0x10 mesh/core/libmesh_core_nrf52832_xxAA.a(nrf_mesh_configure.c.obj)
                0x00029dc0                nrf_mesh_configure_device_uuid_set
 .text.nrf_mesh_configure_device_uuid_reset
                0x00029dd0       0x2c mesh/core/libmesh_core_nrf52832_xxAA.a(nrf_mesh_configure.c.obj)
                0x00029dd0                nrf_mesh_configure_device_uuid_reset
 .text.nrf_mesh_configure_device_uuid_get
                0x00029dfc        0x8 mesh/core/libmesh_core_nrf52832_xxAA.a(nrf_mesh_configure.c.obj)
                0x00029dfc                nrf_mesh_configure_device_uuid_get
 .text.event_handle
                0x00029e04       0x34 mesh/core/libmesh_core_nrf52832_xxAA.a(event.c.obj)
                0x00029e04                event_handle
 .text.event_handler_add
                0x00029e38       0x90 mesh/core/libmesh_core_nrf52832_xxAA.a(event.c.obj)
                0x00029e38                event_handler_add
 .text.packet_buffer_max_packet_len_get
                0x00029ec8       0x3c mesh/core/libmesh_core_nrf52832_xxAA.a(packet_buffer.c.obj)
                0x00029ec8                packet_buffer_max_packet_len_get
 .text.packet_buffer_init
                0x00029f04       0xec mesh/core/libmesh_core_nrf52832_xxAA.a(packet_buffer.c.obj)
                0x00029f04                packet_buffer_init
 .text.packet_buffer_flush
                0x00029ff0       0xd4 mesh/core/libmesh_core_nrf52832_xxAA.a(packet_buffer.c.obj)
                0x00029ff0                packet_buffer_flush
 .text.packet_buffer_reserve
                0x0002a0c4      0x150 mesh/core/libmesh_core_nrf52832_xxAA.a(packet_buffer.c.obj)
                0x0002a0c4                packet_buffer_reserve
 .text.packet_buffer_commit
                0x0002a214      0x144 mesh/core/libmesh_core_nrf52832_xxAA.a(packet_buffer.c.obj)
                0x0002a214                packet_buffer_commit
 .text.packet_buffer_pop
                0x0002a358       0xc8 mesh/core/libmesh_core_nrf52832_xxAA.a(packet_buffer.c.obj)
                0x0002a358                packet_buffer_pop
 .text.packet_buffer_can_pop
                0x0002a420       0x84 mesh/core/libmesh_core_nrf52832_xxAA.a(packet_buffer.c.obj)
                0x0002a420                packet_buffer_can_pop
 .text.packet_buffer_packets_ready_to_pop
                0x0002a4a4       0xb4 mesh/core/libmesh_core_nrf52832_xxAA.a(packet_buffer.c.obj)
                0x0002a4a4                packet_buffer_packets_ready_to_pop
 .text.packet_buffer_free
                0x0002a558       0xf0 mesh/core/libmesh_core_nrf52832_xxAA.a(packet_buffer.c.obj)
                0x0002a558                packet_buffer_free
 .text.fifo_init
                0x0002a648       0x5c mesh/core/libmesh_core_nrf52832_xxAA.a(fifo.c.obj)
                0x0002a648                fifo_init
 .text.fifo_push
                0x0002a6a4       0x54 mesh/core/libmesh_core_nrf52832_xxAA.a(fifo.c.obj)
                0x0002a6a4                fifo_push
 .text.fifo_pop
                0x0002a6f8       0x58 mesh/core/libmesh_core_nrf52832_xxAA.a(fifo.c.obj)
                0x0002a6f8                fifo_pop
 .text.flash_mem_available
                0x0002a750       0x28 mesh/core/libmesh_core_nrf52832_xxAA.a(net_state.c.obj)
 .text.flash_store_iv_index
                0x0002a778       0x38 mesh/core/libmesh_core_nrf52832_xxAA.a(net_state.c.obj)
 .text.init_flash_storage
                0x0002a7b0       0x44 mesh/core/libmesh_core_nrf52832_xxAA.a(net_state.c.obj)
 .text.net_state_reset
                0x0002a7f4       0x3c mesh/core/libmesh_core_nrf52832_xxAA.a(net_state.c.obj)
                0x0002a7f4                net_state_reset
 .text.flash_write_complete
                0x0002a830       0x7c mesh/core/libmesh_core_nrf52832_xxAA.a(net_state.c.obj)
 .text.seqnum_block_allocate
                0x0002a8ac       0x4c mesh/core/libmesh_core_nrf52832_xxAA.a(net_state.c.obj)
 .text.iv_update_trigger_if_pending
                0x0002a8f8      0x17c mesh/core/libmesh_core_nrf52832_xxAA.a(net_state.c.obj)
 .text.iv_update_timer_handler
                0x0002aa74       0x80 mesh/core/libmesh_core_nrf52832_xxAA.a(net_state.c.obj)
 .text.net_state_recover_from_flash
                0x0002aaf4      0x10c mesh/core/libmesh_core_nrf52832_xxAA.a(net_state.c.obj)
                0x0002aaf4                net_state_recover_from_flash
 .text.net_state_flash_area_get
                0x0002ac00        0xc mesh/core/libmesh_core_nrf52832_xxAA.a(net_state.c.obj)
                0x0002ac00                net_state_flash_area_get
 .text.net_state_init
                0x0002ac0c       0x80 mesh/core/libmesh_core_nrf52832_xxAA.a(net_state.c.obj)
                0x0002ac0c                net_state_init
 .text.net_state_seqnum_alloc
                0x0002ac8c       0xd4 mesh/core/libmesh_core_nrf52832_xxAA.a(net_state.c.obj)
                0x0002ac8c                net_state_seqnum_alloc
 .text.net_state_iv_index_lock
                0x0002ad60       0x50 mesh/core/libmesh_core_nrf52832_xxAA.a(net_state.c.obj)
                0x0002ad60                net_state_iv_index_lock
 .text.net_state_beacon_received
                0x0002adb0       0xec mesh/core/libmesh_core_nrf52832_xxAA.a(net_state.c.obj)
                0x0002adb0                net_state_beacon_received
 .text.net_state_beacon_iv_index_get
                0x0002ae9c        0xc mesh/core/libmesh_core_nrf52832_xxAA.a(net_state.c.obj)
                0x0002ae9c                net_state_beacon_iv_index_get
 .text.net_state_tx_iv_index_get
                0x0002aea8       0x14 mesh/core/libmesh_core_nrf52832_xxAA.a(net_state.c.obj)
                0x0002aea8                net_state_tx_iv_index_get
 .text.net_state_rx_iv_index_get
                0x0002aebc       0x18 mesh/core/libmesh_core_nrf52832_xxAA.a(net_state.c.obj)
                0x0002aebc                net_state_rx_iv_index_get
 .text.net_state_iv_update_get
                0x0002aed4        0xc mesh/core/libmesh_core_nrf52832_xxAA.a(net_state.c.obj)
                0x0002aed4                net_state_iv_update_get
 .text.nrf_mesh_address_type_get
                0x0002aee0       0x10 mesh/core/libmesh_core_nrf52832_xxAA.a(nrf_mesh_utils.c.obj)
                0x0002aee0                nrf_mesh_address_type_get
 .text.sd_softdevice_is_enabled
                0x0002aef0        0x4 mesh/core/libmesh_core_nrf52832_xxAA.a(nrf_mesh.c.obj)
 .text.nrf_mesh_init
                0x0002aef4       0xc0 mesh/core/libmesh_core_nrf52832_xxAA.a(nrf_mesh.c.obj)
                0x0002aef4                nrf_mesh_init
 .text.nrf_mesh_enable
                0x0002afb4       0x50 mesh/core/libmesh_core_nrf52832_xxAA.a(nrf_mesh.c.obj)
                0x0002afb4                nrf_mesh_enable
 .text.nrf_mesh_disable
                0x0002b004       0x2c mesh/core/libmesh_core_nrf52832_xxAA.a(nrf_mesh.c.obj)
                0x0002b004                nrf_mesh_disable
 .text.nrf_mesh_packet_send
                0x0002b030        0x4 mesh/core/libmesh_core_nrf52832_xxAA.a(nrf_mesh.c.obj)
                0x0002b030                nrf_mesh_packet_send
 .text.nrf_mesh_process
                0x0002b034      0x21c mesh/core/libmesh_core_nrf52832_xxAA.a(nrf_mesh.c.obj)
                0x0002b034                nrf_mesh_process
 .text.nrf_mesh_on_ble_evt
                0x0002b250        0x4 mesh/core/libmesh_core_nrf52832_xxAA.a(nrf_mesh.c.obj)
                0x0002b250                nrf_mesh_on_ble_evt
 .text.nrf_mesh_on_sd_evt
                0x0002b254        0xc mesh/core/libmesh_core_nrf52832_xxAA.a(nrf_mesh.c.obj)
                0x0002b254                nrf_mesh_on_sd_evt
 .text.nrf_mesh_evt_handler_add
                0x0002b260        0x4 mesh/core/libmesh_core_nrf52832_xxAA.a(nrf_mesh.c.obj)
                0x0002b260                nrf_mesh_evt_handler_add
 .text.sd_power_reset_reason_clr
                0x0002b264        0x4 mesh/core/libmesh_core_nrf52832_xxAA.a(hal.c.obj)
 .text.sd_power_gpregret_set
                0x0002b268        0x4 mesh/core/libmesh_core_nrf52832_xxAA.a(hal.c.obj)
 .text.hal_device_reset
                0x0002b26c       0x38 mesh/core/libmesh_core_nrf52832_xxAA.a(hal.c.obj)
                0x0002b26c                hal_device_reset
 .text.hal_lfclk_ppm_get
                0x0002b2a4       0x14 mesh/core/libmesh_core_nrf52832_xxAA.a(hal.c.obj)
                0x0002b2a4                hal_lfclk_ppm_get
 .text.timer_cb
                0x0002b2b8        0xc mesh/core/libmesh_core_nrf52832_xxAA.a(timer_scheduler.c.obj)
 .text.add_evt.constprop.0
                0x0002b2c4       0x78 mesh/core/libmesh_core_nrf52832_xxAA.a(timer_scheduler.c.obj)
 .text.flag_event_cb
                0x0002b33c      0x2e4 mesh/core/libmesh_core_nrf52832_xxAA.a(timer_scheduler.c.obj)
 .text.timer_sch_init
                0x0002b620       0x24 mesh/core/libmesh_core_nrf52832_xxAA.a(timer_scheduler.c.obj)
                0x0002b620                timer_sch_init
 .text.timer_sch_schedule
                0x0002b644       0x84 mesh/core/libmesh_core_nrf52832_xxAA.a(timer_scheduler.c.obj)
                0x0002b644                timer_sch_schedule
 .text.timer_sch_abort
                0x0002b6c8       0x68 mesh/core/libmesh_core_nrf52832_xxAA.a(timer_scheduler.c.obj)
                0x0002b6c8                timer_sch_abort
 .text.timer_sch_reschedule
                0x0002b730       0xa4 mesh/core/libmesh_core_nrf52832_xxAA.a(timer_scheduler.c.obj)
                0x0002b730                timer_sch_reschedule
 .text.timer_event_handler
                0x0002b7d4       0xd8 mesh/core/libmesh_core_nrf52832_xxAA.a(timer.c.obj)
                0x0002b7d4                timer_event_handler
 .text.timer_order_cb
                0x0002b8ac       0x98 mesh/core/libmesh_core_nrf52832_xxAA.a(timer.c.obj)
                0x0002b8ac                timer_order_cb
 .text.timer_now
                0x0002b944       0x58 mesh/core/libmesh_core_nrf52832_xxAA.a(timer.c.obj)
                0x0002b944                timer_now
 .text.timer_on_ts_begin
                0x0002b99c      0x110 mesh/core/libmesh_core_nrf52832_xxAA.a(timer.c.obj)
                0x0002b99c                timer_on_ts_begin
 .text.timer_on_ts_end
                0x0002baac       0x78 mesh/core/libmesh_core_nrf52832_xxAA.a(timer.c.obj)
                0x0002baac                timer_on_ts_end
 .text.timer_cb
                0x0002bb24       0x10 mesh/core/libmesh_core_nrf52832_xxAA.a(ticker.c.obj)
 .text.ticker_init
                0x0002bb34       0x3c mesh/core/libmesh_core_nrf52832_xxAA.a(ticker.c.obj)
                0x0002bb34                ticker_init
 .text.sd_rand_application_bytes_available_get
                0x0002bb70        0x4 mesh/core/libmesh_core_nrf52832_xxAA.a(rand.c.obj)
 .text.sd_rand_application_vector_get
                0x0002bb74        0x4 mesh/core/libmesh_core_nrf52832_xxAA.a(rand.c.obj)
 .text.rand_prng_seed
                0x0002bb78       0x6c mesh/core/libmesh_core_nrf52832_xxAA.a(rand.c.obj)
                0x0002bb78                rand_prng_seed
 .text.rand_prng_get
                0x0002bbe4       0x28 mesh/core/libmesh_core_nrf52832_xxAA.a(rand.c.obj)
                0x0002bbe4                rand_prng_get
 .text.rand_hw_rng_get
                0x0002bc0c       0x58 mesh/core/libmesh_core_nrf52832_xxAA.a(rand.c.obj)
                0x0002bc0c                rand_hw_rng_get
 .text.nrf_mesh_opt_set
                0x0002bc64       0x28 mesh/core/libmesh_core_nrf52832_xxAA.a(nrf_mesh_opt.c.obj)
                0x0002bc64                nrf_mesh_opt_set
 .text.sd_radio_session_open
                0x0002bc8c        0x4 mesh/core/libmesh_core_nrf52832_xxAA.a(timeslot.c.obj)
 .text.sd_radio_session_close
                0x0002bc90        0x4 mesh/core/libmesh_core_nrf52832_xxAA.a(timeslot.c.obj)
 .text.sd_radio_request
                0x0002bc94        0x4 mesh/core/libmesh_core_nrf52832_xxAA.a(timeslot.c.obj)
 .text.end_timer_handler
                0x0002bc98       0x2c mesh/core/libmesh_core_nrf52832_xxAA.a(timeslot.c.obj)
 .text.radio_signal_callback
                0x0002bcc4      0x324 mesh/core/libmesh_core_nrf52832_xxAA.a(timeslot.c.obj)
 .text.timeslot_sd_event_handler
                0x0002bfe8       0x50 mesh/core/libmesh_core_nrf52832_xxAA.a(timeslot.c.obj)
                0x0002bfe8                timeslot_sd_event_handler
 .text.timeslot_init
                0x0002c038       0x4c mesh/core/libmesh_core_nrf52832_xxAA.a(timeslot.c.obj)
                0x0002c038                timeslot_init
 .text.timeslot_start
                0x0002c084       0x20 mesh/core/libmesh_core_nrf52832_xxAA.a(timeslot.c.obj)
                0x0002c084                timeslot_start
 .text.timeslot_stop
                0x0002c0a4       0x30 mesh/core/libmesh_core_nrf52832_xxAA.a(timeslot.c.obj)
                0x0002c0a4                timeslot_stop
 .text.timeslot_state_lock
                0x0002c0d4       0x44 mesh/core/libmesh_core_nrf52832_xxAA.a(timeslot.c.obj)
                0x0002c0d4                timeslot_state_lock
 .text.timeslot_end_is_pending
                0x0002c118       0x24 mesh/core/libmesh_core_nrf52832_xxAA.a(timeslot.c.obj)
                0x0002c118                timeslot_end_is_pending
 .text.timeslot_start_time_get
                0x0002c13c        0xc mesh/core/libmesh_core_nrf52832_xxAA.a(timeslot.c.obj)
                0x0002c13c                timeslot_start_time_get
 .text.timeslot_remaining_time_get
                0x0002c148       0x40 mesh/core/libmesh_core_nrf52832_xxAA.a(timeslot.c.obj)
                0x0002c148                timeslot_remaining_time_get
 .text.timeslot_is_in_cb
                0x0002c188        0xc mesh/core/libmesh_core_nrf52832_xxAA.a(timeslot.c.obj)
                0x0002c188                timeslot_is_in_cb
 .text.timeslot_trigger
                0x0002c194       0x24 mesh/core/libmesh_core_nrf52832_xxAA.a(timeslot.c.obj)
                0x0002c194                timeslot_trigger
 .text.QDEC_IRQHandler
                0x0002c1b8       0xe0 mesh/core/libmesh_core_nrf52832_xxAA.a(bearer_event.c.obj)
                0x0002c1b8                QDEC_IRQHandler
 .text.bearer_event_init
                0x0002c298       0x3c mesh/core/libmesh_core_nrf52832_xxAA.a(bearer_event.c.obj)
                0x0002c298                bearer_event_init
 .text.bearer_event_generic_post
                0x0002c2d4       0x50 mesh/core/libmesh_core_nrf52832_xxAA.a(bearer_event.c.obj)
                0x0002c2d4                bearer_event_generic_post
 .text.bearer_event_timer_post
                0x0002c324       0x50 mesh/core/libmesh_core_nrf52832_xxAA.a(bearer_event.c.obj)
                0x0002c324                bearer_event_timer_post
 .text.bearer_event_critical_section_begin
                0x0002c374       0x44 mesh/core/libmesh_core_nrf52832_xxAA.a(bearer_event.c.obj)
                0x0002c374                bearer_event_critical_section_begin
 .text.bearer_event_critical_section_end
                0x0002c3b8       0x44 mesh/core/libmesh_core_nrf52832_xxAA.a(bearer_event.c.obj)
                0x0002c3b8                bearer_event_critical_section_end
 .text.bearer_event_flag_add
                0x0002c3fc       0x50 mesh/core/libmesh_core_nrf52832_xxAA.a(bearer_event.c.obj)
                0x0002c3fc                bearer_event_flag_add
 .text.bearer_event_flag_set
                0x0002c44c       0x58 mesh/core/libmesh_core_nrf52832_xxAA.a(bearer_event.c.obj)
                0x0002c44c                bearer_event_flag_set
 .text.bearer_event_sequential_add
                0x0002c4a4       0x48 mesh/core/libmesh_core_nrf52832_xxAA.a(bearer_event.c.obj)
                0x0002c4a4                bearer_event_sequential_add
 .text.bearer_event_sequential_post
                0x0002c4ec       0x6c mesh/core/libmesh_core_nrf52832_xxAA.a(bearer_event.c.obj)
                0x0002c4ec                bearer_event_sequential_post
 .text.bearer_event_sequential_pending
                0x0002c558       0x20 mesh/core/libmesh_core_nrf52832_xxAA.a(bearer_event.c.obj)
                0x0002c558                bearer_event_sequential_pending
 .text.enc_aes_encrypt
                0x0002c578        0x4 mesh/core/libmesh_core_nrf52832_xxAA.a(enc.c.obj)
                0x0002c578                enc_aes_encrypt
 .text.enc_aes_cmac
                0x0002c57c        0x4 mesh/core/libmesh_core_nrf52832_xxAA.a(enc.c.obj)
                0x0002c57c                enc_aes_cmac
 .text.enc_aes_ccm_encrypt
                0x0002c580        0x4 mesh/core/libmesh_core_nrf52832_xxAA.a(enc.c.obj)
                0x0002c580                enc_aes_ccm_encrypt
 .text.enc_aes_ccm_decrypt
                0x0002c584        0x4 mesh/core/libmesh_core_nrf52832_xxAA.a(enc.c.obj)
                0x0002c584                enc_aes_ccm_decrypt
 .text.enc_nonce_generate
                0x0002c588       0xc4 mesh/core/libmesh_core_nrf52832_xxAA.a(enc.c.obj)
                0x0002c588                enc_nonce_generate
 .text.enc_s1   0x0002c64c       0x40 mesh/core/libmesh_core_nrf52832_xxAA.a(enc.c.obj)
                0x0002c64c                enc_s1
 .text.enc_k1   0x0002c68c       0x50 mesh/core/libmesh_core_nrf52832_xxAA.a(enc.c.obj)
                0x0002c68c                enc_k1
 .text.enc_k2   0x0002c6dc       0xec mesh/core/libmesh_core_nrf52832_xxAA.a(enc.c.obj)
                0x0002c6dc                enc_k2
 .text.enc_k3   0x0002c7c8       0x74 mesh/core/libmesh_core_nrf52832_xxAA.a(enc.c.obj)
                0x0002c7c8                enc_k3
 .text.enc_k4   0x0002c83c       0x6c mesh/core/libmesh_core_nrf52832_xxAA.a(enc.c.obj)
                0x0002c83c                enc_k4
 .text.network_init
                0x0002c8a8       0x28 mesh/core/libmesh_core_nrf52832_xxAA.a(network.c.obj)
                0x0002c8a8                network_init
 .text.network_opt_set
                0x0002c8d0       0x58 mesh/core/libmesh_core_nrf52832_xxAA.a(network.c.obj)
                0x0002c8d0                network_opt_set
 .text.network_packet_alloc
                0x0002c928      0x1a4 mesh/core/libmesh_core_nrf52832_xxAA.a(network.c.obj)
                0x0002c928                network_packet_alloc
 .text.network_packet_send
                0x0002cacc      0x1ec mesh/core/libmesh_core_nrf52832_xxAA.a(network.c.obj)
                0x0002cacc                network_packet_send
 .text.network_packet_in
                0x0002ccb8      0x6c8 mesh/core/libmesh_core_nrf52832_xxAA.a(network.c.obj)
                0x0002ccb8                network_packet_in
 .text.nrf_mesh_keygen_aid
                0x0002d380       0x18 mesh/core/libmesh_core_nrf52832_xxAA.a(nrf_mesh_keygen.c.obj)
                0x0002d380                nrf_mesh_keygen_aid
 .text.nrf_mesh_keygen_network_secmat
                0x0002d398       0x24 mesh/core/libmesh_core_nrf52832_xxAA.a(nrf_mesh_keygen.c.obj)
                0x0002d398                nrf_mesh_keygen_network_secmat
 .text.nrf_mesh_keygen_beacon_secmat
                0x0002d3bc       0x50 mesh/core/libmesh_core_nrf52832_xxAA.a(nrf_mesh_keygen.c.obj)
                0x0002d3bc                nrf_mesh_keygen_beacon_secmat
 .text.nrf_mesh_keygen_virtual_address
                0x0002d40c       0x50 mesh/core/libmesh_core_nrf52832_xxAA.a(nrf_mesh_keygen.c.obj)
                0x0002d40c                nrf_mesh_keygen_virtual_address
 .text.log_callback_rtt
                0x0002d45c       0x2c mesh/core/libmesh_core_nrf52832_xxAA.a(log.c.obj)
                0x0002d45c                log_callback_rtt
 .text.log_init
                0x0002d488       0x20 mesh/core/libmesh_core_nrf52832_xxAA.a(log.c.obj)
                0x0002d488                log_init
 .text.log_printf
                0x0002d4a8       0x20 mesh/core/libmesh_core_nrf52832_xxAA.a(log.c.obj)
                0x0002d4a8                log_printf
 .text.process_action_queue
                0x0002d4c8      0x834 mesh/core/libmesh_core_nrf52832_xxAA.a(flash_manager.c.obj)
 .text.flash_op_ended_callback
                0x0002dcfc       0x24 mesh/core/libmesh_core_nrf52832_xxAA.a(flash_manager.c.obj)
 .text.flash_manager_init
                0x0002dd20       0x68 mesh/core/libmesh_core_nrf52832_xxAA.a(flash_manager.c.obj)
                0x0002dd20                flash_manager_init
 .text.flash_manager_remove
                0x0002dd88       0x78 mesh/core/libmesh_core_nrf52832_xxAA.a(flash_manager.c.obj)
                0x0002dd88                flash_manager_remove
 .text.flash_manager_entry_next_get
                0x0002de00      0x15c mesh/core/libmesh_core_nrf52832_xxAA.a(flash_manager.c.obj)
                0x0002de00                flash_manager_entry_next_get
 .text.flash_manager_entry_alloc
                0x0002df5c       0x9c mesh/core/libmesh_core_nrf52832_xxAA.a(flash_manager.c.obj)
                0x0002df5c                flash_manager_entry_alloc
 .text.flash_manager_entry_commit
                0x0002dff8       0x6c mesh/core/libmesh_core_nrf52832_xxAA.a(flash_manager.c.obj)
                0x0002dff8                flash_manager_entry_commit
 .text.flash_manager_entry_invalidate
                0x0002e064       0xb8 mesh/core/libmesh_core_nrf52832_xxAA.a(flash_manager.c.obj)
                0x0002e064                flash_manager_entry_invalidate
 .text.flash_manager_add
                0x0002e11c      0x474 mesh/core/libmesh_core_nrf52832_xxAA.a(flash_manager.c.obj)
                0x0002e11c                flash_manager_add
 .text.flash_manager_mem_listener_register
                0x0002e590       0x50 mesh/core/libmesh_core_nrf52832_xxAA.a(flash_manager.c.obj)
                0x0002e590                flash_manager_mem_listener_register
 .text.flash_manager_is_stable
                0x0002e5e0       0x20 mesh/core/libmesh_core_nrf52832_xxAA.a(flash_manager.c.obj)
                0x0002e5e0                flash_manager_is_stable
 .text.flash_manager_on_defrag_end
                0x0002e600       0x64 mesh/core/libmesh_core_nrf52832_xxAA.a(flash_manager.c.obj)
                0x0002e600                flash_manager_on_defrag_end
 .text.flash_manager_recovery_page_get
                0x0002e664        0x4 mesh/core/libmesh_core_nrf52832_xxAA.a(flash_manager.c.obj)
                0x0002e664                flash_manager_recovery_page_get
 .text.ccm_soft_crypt.constprop.0
                0x0002e668      0x298 mesh/core/libmesh_core_nrf52832_xxAA.a(ccm_soft.c.obj)
 .text.ccm_soft_authenticate
                0x0002e900      0x324 mesh/core/libmesh_core_nrf52832_xxAA.a(ccm_soft.c.obj)
 .text.ccm_soft_encrypt
                0x0002ec24       0x78 mesh/core/libmesh_core_nrf52832_xxAA.a(ccm_soft.c.obj)
                0x0002ec24                ccm_soft_encrypt
 .text.ccm_soft_decrypt
                0x0002ec9c      0x10c mesh/core/libmesh_core_nrf52832_xxAA.a(ccm_soft.c.obj)
                0x0002ec9c                ccm_soft_decrypt
 .text.beacon_init
                0x0002eda8       0x48 mesh/core/libmesh_core_nrf52832_xxAA.a(beacon.c.obj)
                0x0002eda8                beacon_init
 .text.beacon_tx
                0x0002edf0       0x6c mesh/core/libmesh_core_nrf52832_xxAA.a(beacon.c.obj)
                0x0002edf0                beacon_tx
 .text.beacon_create
                0x0002ee5c       0x50 mesh/core/libmesh_core_nrf52832_xxAA.a(beacon.c.obj)
                0x0002ee5c                beacon_create
 .text.beacon_packet_in
                0x0002eeac      0x180 mesh/core/libmesh_core_nrf52832_xxAA.a(beacon.c.obj)
                0x0002eeac                beacon_packet_in
 .text.entry_get
                0x0002f02c       0x8c mesh/core/libmesh_core_nrf52832_xxAA.a(flash_manager_internal.c.obj)
                0x0002f02c                entry_get
 .text.adv_tx_complete_callback
                0x0002f0b8       0x58 mesh/core/libmesh_core_nrf52832_xxAA.a(core_tx.c.obj)
 .text.core_tx_init
                0x0002f110       0x4c mesh/core/libmesh_core_nrf52832_xxAA.a(core_tx.c.obj)
                0x0002f110                core_tx_init
 .text.core_tx_complete_cb_set
                0x0002f15c        0xc mesh/core/libmesh_core_nrf52832_xxAA.a(core_tx.c.obj)
                0x0002f15c                core_tx_complete_cb_set
 .text.core_tx_packet_alloc
                0x0002f168       0xa4 mesh/core/libmesh_core_nrf52832_xxAA.a(core_tx.c.obj)
                0x0002f168                core_tx_packet_alloc
 .text.core_tx_packet_send
                0x0002f20c       0x74 mesh/core/libmesh_core_nrf52832_xxAA.a(core_tx.c.obj)
                0x0002f20c                core_tx_packet_send
 .text.core_tx_packet_discard
                0x0002f280       0x74 mesh/core/libmesh_core_nrf52832_xxAA.a(core_tx.c.obj)
                0x0002f280                core_tx_packet_discard
 .text.core_tx_adv_count_set
                0x0002f2f4       0x40 mesh/core/libmesh_core_nrf52832_xxAA.a(core_tx.c.obj)
                0x0002f2f4                core_tx_adv_count_set
 .text.core_tx_adv_interval_set
                0x0002f334       0x34 mesh/core/libmesh_core_nrf52832_xxAA.a(core_tx.c.obj)
                0x0002f334                core_tx_adv_interval_set
 .text.network_beacon_tx_cb
                0x0002f368      0x10c mesh/core/libmesh_core_nrf52832_xxAA.a(net_beacon.c.obj)
 .text.net_beacon_init
                0x0002f474       0x64 mesh/core/libmesh_core_nrf52832_xxAA.a(net_beacon.c.obj)
                0x0002f474                net_beacon_init
 .text.net_beacon_packet_in
                0x0002f4d8       0xe0 mesh/core/libmesh_core_nrf52832_xxAA.a(net_beacon.c.obj)
                0x0002f4d8                net_beacon_packet_in
 .text.tx_complete_event_callback
                0x0002f5b8       0x40 mesh/core/libmesh_core_nrf52832_xxAA.a(advertiser.c.obj)
 .text.broadcast_complete_cb
                0x0002f5f8       0x70 mesh/core/libmesh_core_nrf52832_xxAA.a(advertiser.c.obj)
 .text.timeout_event
                0x0002f668      0x13c mesh/core/libmesh_core_nrf52832_xxAA.a(advertiser.c.obj)
 .text.advertiser_init
                0x0002f7a4        0xc mesh/core/libmesh_core_nrf52832_xxAA.a(advertiser.c.obj)
                0x0002f7a4                advertiser_init
 .text.advertiser_instance_init
                0x0002f7b0      0x11c mesh/core/libmesh_core_nrf52832_xxAA.a(advertiser.c.obj)
                0x0002f7b0                advertiser_instance_init
 .text.advertiser_enable
                0x0002f8cc       0x44 mesh/core/libmesh_core_nrf52832_xxAA.a(advertiser.c.obj)
                0x0002f8cc                advertiser_enable
 .text.advertiser_disable
                0x0002f910        0xc mesh/core/libmesh_core_nrf52832_xxAA.a(advertiser.c.obj)
                0x0002f910                advertiser_disable
 .text.advertiser_packet_alloc
                0x0002f91c       0x9c mesh/core/libmesh_core_nrf52832_xxAA.a(advertiser.c.obj)
                0x0002f91c                advertiser_packet_alloc
 .text.advertiser_packet_send
                0x0002f9b8       0x98 mesh/core/libmesh_core_nrf52832_xxAA.a(advertiser.c.obj)
                0x0002f9b8                advertiser_packet_send
 .text.advertiser_packet_discard
                0x0002fa50       0x34 mesh/core/libmesh_core_nrf52832_xxAA.a(advertiser.c.obj)
                0x0002fa50                advertiser_packet_discard
 .text.advertiser_channels_set
                0x0002fa84       0xac mesh/core/libmesh_core_nrf52832_xxAA.a(advertiser.c.obj)
                0x0002fa84                advertiser_channels_set
 .text.advertiser_interval_set
                0x0002fb30       0x80 mesh/core/libmesh_core_nrf52832_xxAA.a(advertiser.c.obj)
                0x0002fb30                advertiser_interval_set
 .text.advertiser_flush
                0x0002fbb0       0x20 mesh/core/libmesh_core_nrf52832_xxAA.a(advertiser.c.obj)
                0x0002fbb0                advertiser_flush
 .text.advertiser_address_default_get
                0x0002fbd0       0x68 mesh/core/libmesh_core_nrf52832_xxAA.a(advertiser.c.obj)
                0x0002fbd0                advertiser_address_default_get
 .text.action_switch.part.2
                0x0002fc38       0xc0 mesh/core/libmesh_core_nrf52832_xxAA.a(bearer_handler.c.obj)
 .text.bearer_handler_init
                0x0002fcf8       0x2c mesh/core/libmesh_core_nrf52832_xxAA.a(bearer_handler.c.obj)
                0x0002fcf8                bearer_handler_init
 .text.bearer_handler_start
                0x0002fd24       0x1c mesh/core/libmesh_core_nrf52832_xxAA.a(bearer_handler.c.obj)
                0x0002fd24                bearer_handler_start
 .text.bearer_handler_stop
                0x0002fd40       0x20 mesh/core/libmesh_core_nrf52832_xxAA.a(bearer_handler.c.obj)
                0x0002fd40                bearer_handler_stop
 .text.bearer_handler_action_enqueue
                0x0002fd60       0xa0 mesh/core/libmesh_core_nrf52832_xxAA.a(bearer_handler.c.obj)
                0x0002fd60                bearer_handler_action_enqueue
 .text.bearer_handler_action_end
                0x0002fe00       0x84 mesh/core/libmesh_core_nrf52832_xxAA.a(bearer_handler.c.obj)
                0x0002fe00                bearer_handler_action_end
 .text.bearer_handler_radio_irq_handler
                0x0002fe84       0x70 mesh/core/libmesh_core_nrf52832_xxAA.a(bearer_handler.c.obj)
                0x0002fe84                bearer_handler_radio_irq_handler
 .text.bearer_handler_timer_irq_handler
                0x0002fef4       0x3c mesh/core/libmesh_core_nrf52832_xxAA.a(bearer_handler.c.obj)
                0x0002fef4                bearer_handler_timer_irq_handler
 .text.bearer_handler_on_ts_begin
                0x0002ff30       0x4c mesh/core/libmesh_core_nrf52832_xxAA.a(bearer_handler.c.obj)
                0x0002ff30                bearer_handler_on_ts_begin
 .text.bearer_handler_on_ts_end
                0x0002ff7c       0x48 mesh/core/libmesh_core_nrf52832_xxAA.a(bearer_handler.c.obj)
                0x0002ff7c                bearer_handler_on_ts_end
 .text.radio_irq_handler
                0x0002ffc4       0xb4 mesh/core/libmesh_core_nrf52832_xxAA.a(broadcast.c.obj)
 .text.broadcast_start
                0x00030078       0x8c mesh/core/libmesh_core_nrf52832_xxAA.a(broadcast.c.obj)
 .text.broadcast_send
                0x00030104       0x8c mesh/core/libmesh_core_nrf52832_xxAA.a(broadcast.c.obj)
                0x00030104                broadcast_send
 .text.radio_config_reset
                0x00030190       0x38 mesh/core/libmesh_core_nrf52832_xxAA.a(radio_config.c.obj)
                0x00030190                radio_config_reset
 .text.radio_config_channel_set
                0x000301c8       0x34 mesh/core/libmesh_core_nrf52832_xxAA.a(radio_config.c.obj)
                0x000301c8                radio_config_channel_set
 .text.radio_config_config
                0x000301fc       0x78 mesh/core/libmesh_core_nrf52832_xxAA.a(radio_config.c.obj)
                0x000301fc                radio_config_config
 .text.radio_config_access_addr_set
                0x00030274       0x68 mesh/core/libmesh_core_nrf52832_xxAA.a(radio_config.c.obj)
                0x00030274                radio_config_access_addr_set
 .text.scan_window_end
                0x000302dc       0x28 mesh/core/libmesh_core_nrf52832_xxAA.a(scanner.c.obj)
 .text.scan_window_start
                0x00030304       0x38 mesh/core/libmesh_core_nrf52832_xxAA.a(scanner.c.obj)
 .text.radio_start
                0x0003033c      0x19c mesh/core/libmesh_core_nrf52832_xxAA.a(scanner.c.obj)
 .text.scanner_radio_start
                0x000304d8      0x14c mesh/core/libmesh_core_nrf52832_xxAA.a(scanner.c.obj)
                0x000304d8                scanner_radio_start
 .text.scanner_radio_stop
                0x00030624       0x34 mesh/core/libmesh_core_nrf52832_xxAA.a(scanner.c.obj)
                0x00030624                scanner_radio_stop
 .text.scanner_radio_irq_handler
                0x00030658      0x200 mesh/core/libmesh_core_nrf52832_xxAA.a(scanner.c.obj)
                0x00030658                scanner_radio_irq_handler
 .text.scanner_enable
                0x00030858       0x5c mesh/core/libmesh_core_nrf52832_xxAA.a(scanner.c.obj)
                0x00030858                scanner_enable
 .text.scanner_disable
                0x000308b4       0x5c mesh/core/libmesh_core_nrf52832_xxAA.a(scanner.c.obj)
                0x000308b4                scanner_disable
 .text.scanner_rx
                0x00030910       0x84 mesh/core/libmesh_core_nrf52832_xxAA.a(scanner.c.obj)
                0x00030910                scanner_rx
 .text.scanner_packet_release
                0x00030994       0x4c mesh/core/libmesh_core_nrf52832_xxAA.a(scanner.c.obj)
                0x00030994                scanner_packet_release
 .text.scanner_config_reset
                0x000309e0       0xa8 mesh/core/libmesh_core_nrf52832_xxAA.a(scanner.c.obj)
                0x000309e0                scanner_config_reset
 .text.scanner_init
                0x00030a88       0x48 mesh/core/libmesh_core_nrf52832_xxAA.a(scanner.c.obj)
                0x00030a88                scanner_init
 .text.sd_ecb_block_encrypt
                0x00030ad0        0x4 mesh/core/libmesh_core_nrf52832_xxAA.a(aes.c.obj)
 .text.aes_encrypt
                0x00030ad4       0x34 mesh/core/libmesh_core_nrf52832_xxAA.a(aes.c.obj)
                0x00030ad4                aes_encrypt
 .text.msg_cache_init
                0x00030b08       0x24 mesh/core/libmesh_core_nrf52832_xxAA.a(msg_cache.c.obj)
                0x00030b08                msg_cache_init
 .text.msg_cache_entry_exists
                0x00030b2c       0x40 mesh/core/libmesh_core_nrf52832_xxAA.a(msg_cache.c.obj)
                0x00030b2c                msg_cache_entry_exists
 .text.msg_cache_entry_add
                0x00030b6c       0x30 mesh/core/libmesh_core_nrf52832_xxAA.a(msg_cache.c.obj)
                0x00030b6c                msg_cache_entry_add
 .text.tx_complete
                0x00030b9c       0x34 mesh/core/libmesh_core_nrf52832_xxAA.a(transport.c.obj)
 .text.upper_trs_packet_encrypt
                0x00030bd0       0xe0 mesh/core/libmesh_core_nrf52832_xxAA.a(transport.c.obj)
 .text.sar_ctx_alloc
                0x00030cb0       0xd0 mesh/core/libmesh_core_nrf52832_xxAA.a(transport.c.obj)
 .text.trs_packet_header_build
                0x00030d80       0xac mesh/core/libmesh_core_nrf52832_xxAA.a(transport.c.obj)
 .text.sar_ack_send
                0x00030e2c      0x144 mesh/core/libmesh_core_nrf52832_xxAA.a(transport.c.obj)
 .text.test_transport_decrypt
                0x00030f70       0x98 mesh/core/libmesh_core_nrf52832_xxAA.a(transport.c.obj)
 .text.upper_transport_access_packet_in
                0x00031008      0x34c mesh/core/libmesh_core_nrf52832_xxAA.a(transport.c.obj)
 .text.trs_sar_packet_out
                0x00031354      0x19c mesh/core/libmesh_core_nrf52832_xxAA.a(transport.c.obj)
 .text.sar_ctx_cancel
                0x000314f0      0x1d0 mesh/core/libmesh_core_nrf52832_xxAA.a(transport.c.obj)
 .text.abort_timeout
                0x000316c0        0x8 mesh/core/libmesh_core_nrf52832_xxAA.a(transport.c.obj)
 .text.retry_timeout
                0x000316c8       0xb0 mesh/core/libmesh_core_nrf52832_xxAA.a(transport.c.obj)
 .text.transport_sar_process
                0x00031778      0x2a8 mesh/core/libmesh_core_nrf52832_xxAA.a(transport.c.obj)
 .text.upper_transport_packet_in
                0x00031a20      0x2e0 mesh/core/libmesh_core_nrf52832_xxAA.a(transport.c.obj)
 .text.ack_timeout
                0x00031d00      0x15c mesh/core/libmesh_core_nrf52832_xxAA.a(transport.c.obj)
 .text.transport_init
                0x00031e5c       0x98 mesh/core/libmesh_core_nrf52832_xxAA.a(transport.c.obj)
                0x00031e5c                transport_init
 .text.transport_packet_in
                0x00031ef4      0x824 mesh/core/libmesh_core_nrf52832_xxAA.a(transport.c.obj)
                0x00031ef4                transport_packet_in
 .text.transport_tx
                0x00032718      0x32c mesh/core/libmesh_core_nrf52832_xxAA.a(transport.c.obj)
                0x00032718                transport_tx
 .text.transport_opt_set
                0x00032a44       0xdc mesh/core/libmesh_core_nrf52832_xxAA.a(transport.c.obj)
                0x00032a44                transport_opt_set
 .text.erase_source
                0x00032b20       0x34 mesh/core/libmesh_core_nrf52832_xxAA.a(flash_manager_defrag.c.obj)
 .text.erase_recovery_area
                0x00032b54       0x34 mesh/core/libmesh_core_nrf52832_xxAA.a(flash_manager_defrag.c.obj)
 .text.write_back
                0x00032b88       0x44 mesh/core/libmesh_core_nrf52832_xxAA.a(flash_manager_defrag.c.obj)
 .text.write_defrag_start_pointer
                0x00032bcc       0x38 mesh/core/libmesh_core_nrf52832_xxAA.a(flash_manager_defrag.c.obj)
 .text.copy_metadata
                0x00032c04       0x58 mesh/core/libmesh_core_nrf52832_xxAA.a(flash_manager_defrag.c.obj)
 .text.seal_storage_page
                0x00032c5c       0x70 mesh/core/libmesh_core_nrf52832_xxAA.a(flash_manager_defrag.c.obj)
 .text.post_process
                0x00032ccc       0x64 mesh/core/libmesh_core_nrf52832_xxAA.a(flash_manager_defrag.c.obj)
 .text.check_for_invalid_entries
                0x00032d30       0x40 mesh/core/libmesh_core_nrf52832_xxAA.a(flash_manager_defrag.c.obj)
 .text.execute_procedure_step
                0x00032d70       0xc0 mesh/core/libmesh_core_nrf52832_xxAA.a(flash_manager_defrag.c.obj)
 .text.on_flash_op_end
                0x00032e30       0x4c mesh/core/libmesh_core_nrf52832_xxAA.a(flash_manager_defrag.c.obj)
 .text.invalidate_duplicate_entries
                0x00032e7c      0x148 mesh/core/libmesh_core_nrf52832_xxAA.a(flash_manager_defrag.c.obj)
 .text.backup_entries
                0x00032fc4      0x1fc mesh/core/libmesh_core_nrf52832_xxAA.a(flash_manager_defrag.c.obj)
 .text.flash_manager_defrag_init
                0x000331c0       0x68 mesh/core/libmesh_core_nrf52832_xxAA.a(flash_manager_defrag.c.obj)
                0x000331c0                flash_manager_defrag_init
 .text.flash_manager_defrag_is_running
                0x00033228       0x10 mesh/core/libmesh_core_nrf52832_xxAA.a(flash_manager_defrag.c.obj)
                0x00033228                flash_manager_defrag_is_running
 .text.flash_manager_defrag
                0x00033238       0xe4 mesh/core/libmesh_core_nrf52832_xxAA.a(flash_manager_defrag.c.obj)
                0x00033238                flash_manager_defrag
 .text.flash_manager_defrag_recovery_page_get
                0x0003331c        0xc mesh/core/libmesh_core_nrf52832_xxAA.a(flash_manager_defrag.c.obj)
                0x0003331c                flash_manager_defrag_recovery_page_get
 .text.packet_mgr_init
                0x00033328       0x4c mesh/core/libmesh_core_nrf52832_xxAA.a(packet_mgr.c.obj)
                0x00033328                packet_mgr_init
 .text.send_end_events
                0x00033374       0x8c mesh/core/libmesh_core_nrf52832_xxAA.a(mesh_flash.c.obj)
 .text.flash_op_schedule
                0x00033400       0xac mesh/core/libmesh_core_nrf52832_xxAA.a(mesh_flash.c.obj)
 .text.flash_op_start
                0x000334ac      0x1c4 mesh/core/libmesh_core_nrf52832_xxAA.a(mesh_flash.c.obj)
 .text.mesh_flash_init
                0x00033670       0x88 mesh/core/libmesh_core_nrf52832_xxAA.a(mesh_flash.c.obj)
                0x00033670                mesh_flash_init
 .text.mesh_flash_user_callback_set
                0x000336f8       0x2c mesh/core/libmesh_core_nrf52832_xxAA.a(mesh_flash.c.obj)
                0x000336f8                mesh_flash_user_callback_set
 .text.mesh_flash_op_push
                0x00033724      0x140 mesh/core/libmesh_core_nrf52832_xxAA.a(mesh_flash.c.obj)
                0x00033724                mesh_flash_op_push
 .text.queue_init
                0x00033864       0x28 mesh/core/libmesh_core_nrf52832_xxAA.a(queue.c.obj)
                0x00033864                queue_init
 .text.queue_push
                0x0003388c       0x50 mesh/core/libmesh_core_nrf52832_xxAA.a(queue.c.obj)
                0x0003388c                queue_push
 .text.queue_pop
                0x000338dc       0x40 mesh/core/libmesh_core_nrf52832_xxAA.a(queue.c.obj)
                0x000338dc                queue_pop
 .text.queue_peek
                0x0003391c       0x20 mesh/core/libmesh_core_nrf52832_xxAA.a(queue.c.obj)
                0x0003391c                queue_peek
 .text.aes_cmac_subkey_generate
                0x0003393c      0x2b0 mesh/core/libmesh_core_nrf52832_xxAA.a(aes_cmac.c.obj)
                0x0003393c                aes_cmac_subkey_generate
 .text.aes_cmac
                0x00033bec      0x49c mesh/core/libmesh_core_nrf52832_xxAA.a(aes_cmac.c.obj)
                0x00033bec                aes_cmac
 .text.msq_init
                0x00034088       0x98 mesh/core/libmesh_core_nrf52832_xxAA.a(msqueue.c.obj)
                0x00034088                msq_init
 .text.msq_get  0x00034120       0x68 mesh/core/libmesh_core_nrf52832_xxAA.a(msqueue.c.obj)
                0x00034120                msq_get
 .text.msq_move
                0x00034188       0x60 mesh/core/libmesh_core_nrf52832_xxAA.a(msqueue.c.obj)
                0x00034188                msq_move
 .text.msq_available
                0x000341e8       0x58 mesh/core/libmesh_core_nrf52832_xxAA.a(msqueue.c.obj)
                0x000341e8                msq_available
 .text.replay_cache_init
                0x00034240       0x28 mesh/core/libmesh_core_nrf52832_xxAA.a(replay_cache.c.obj)
                0x00034240                replay_cache_init
 .text.replay_cache_add
                0x00034268       0x68 mesh/core/libmesh_core_nrf52832_xxAA.a(replay_cache.c.obj)
                0x00034268                replay_cache_add
 .text.replay_cache_has_room
                0x000342d0       0x48 mesh/core/libmesh_core_nrf52832_xxAA.a(replay_cache.c.obj)
                0x000342d0                replay_cache_has_room
 .text.replay_cache_has_elem
                0x00034318       0x40 mesh/core/libmesh_core_nrf52832_xxAA.a(replay_cache.c.obj)
                0x00034318                replay_cache_has_elem
 .text.fen_filters_apply
                0x00034358       0x38 mesh/core/libmesh_core_nrf52832_xxAA.a(filter_engine.c.obj)
                0x00034358                fen_filters_apply
 .text.nrf_flash_erase
                0x00034390       0x5c mesh/core/libmesh_core_nrf52832_xxAA.a(nrf_flash.c.obj)
                0x00034390                nrf_flash_erase
 .text.nrf_flash_write
                0x000343ec       0x6c mesh/core/libmesh_core_nrf52832_xxAA.a(nrf_flash.c.obj)
                0x000343ec                nrf_flash_write
 .text.default_RNG
                0x00034458        0xc external/micro-ecc/libuECC_nrf52832_xxAA.a(uECC.c.obj)
 .text.uECC_generate_random_int
                0x00034464      0x170 external/micro-ecc/libuECC_nrf52832_xxAA.a(uECC.c.obj)
 .text.apply_z  0x000345d4      0x1a8 external/micro-ecc/libuECC_nrf52832_xxAA.a(uECC.c.obj)
 .text.uECC_vli_modAdd
                0x0003477c       0xc8 external/micro-ecc/libuECC_nrf52832_xxAA.a(uECC.c.obj)
 .text.x_side_default
                0x00034844      0x254 external/micro-ecc/libuECC_nrf52832_xxAA.a(uECC.c.obj)
 .text.vli_mmod_fast_secp256r1
                0x00034a98      0x520 external/micro-ecc/libuECC_nrf52832_xxAA.a(uECC.c.obj)
 .text.XYcZ_add
                0x00034fb8      0x6dc external/micro-ecc/libuECC_nrf52832_xxAA.a(uECC.c.obj)
 .text.XYcZ_addC
                0x00035694      0xa94 external/micro-ecc/libuECC_nrf52832_xxAA.a(uECC.c.obj)
 .text.uECC_vli_modInv.part.4
                0x00036128      0x6e8 external/micro-ecc/libuECC_nrf52832_xxAA.a(uECC.c.obj)
 .text.EccPoint_mult.constprop.5
                0x00036810      0x470 external/micro-ecc/libuECC_nrf52832_xxAA.a(uECC.c.obj)
 .text.double_jacobian_default
                0x00036c80      0x7ec external/micro-ecc/libuECC_nrf52832_xxAA.a(uECC.c.obj)
 .text.uECC_secp256r1
                0x0003746c        0x8 external/micro-ecc/libuECC_nrf52832_xxAA.a(uECC.c.obj)
                0x0003746c                uECC_secp256r1
 .text.uECC_make_key
                0x00037474      0x23c external/micro-ecc/libuECC_nrf52832_xxAA.a(uECC.c.obj)
                0x00037474                uECC_make_key
 .text.uECC_shared_secret
                0x000376b0      0x788 external/micro-ecc/libuECC_nrf52832_xxAA.a(uECC.c.obj)
                0x000376b0                uECC_shared_secret
 .text.uECC_valid_point
                0x00037e38      0x134 external/micro-ecc/libuECC_nrf52832_xxAA.a(uECC.c.obj)
                0x00037e38                uECC_valid_point
 .text.uECC_valid_public_key
                0x00037f6c       0xe8 external/micro-ecc/libuECC_nrf52832_xxAA.a(uECC.c.obj)
                0x00037f6c                uECC_valid_public_key
 .text.SEGGER_RTT_Write
                0x00038054      0x1e4 external/rtt/librtt_nrf52832_xxAA.a(SEGGER_RTT.c.obj)
                0x00038054                SEGGER_RTT_Write
 .text._PrintUnsigned
                0x00038238      0x194 external/rtt/librtt_nrf52832_xxAA.a(SEGGER_RTT_printf.c.obj)
 .text.SEGGER_RTT_vprintf
                0x000383cc      0x464 external/rtt/librtt_nrf52832_xxAA.a(SEGGER_RTT_printf.c.obj)
                0x000383cc                SEGGER_RTT_vprintf
 .text.SEGGER_RTT_printf
                0x00038830       0x20 external/rtt/librtt_nrf52832_xxAA.a(SEGGER_RTT_printf.c.obj)
                0x00038830                SEGGER_RTT_printf
 .text.exit     0x00038850       0x28 c:/a/gcc_arm/6/bin/../lib/gcc/arm-none-eabi/6.3.1/../../../../arm-none-eabi/lib/thumb/v7e-m/fpv4-sp/hard\libg_nano.a(lib_a-exit.o)
                0x00038850                exit
 .text.__libc_init_array
                0x00038878       0x48 c:/a/gcc_arm/6/bin/../lib/gcc/arm-none-eabi/6.3.1/../../../../arm-none-eabi/lib/thumb/v7e-m/fpv4-sp/hard\libg_nano.a(lib_a-init.o)
                0x00038878                __libc_init_array
 .text.malloc   0x000388c0       0x10 c:/a/gcc_arm/6/bin/../lib/gcc/arm-none-eabi/6.3.1/../../../../arm-none-eabi/lib/thumb/v7e-m/fpv4-sp/hard\libg_nano.a(lib_a-malloc.o)
                0x000388c0                malloc
 .text.free     0x000388d0       0x10 c:/a/gcc_arm/6/bin/../lib/gcc/arm-none-eabi/6.3.1/../../../../arm-none-eabi/lib/thumb/v7e-m/fpv4-sp/hard\libg_nano.a(lib_a-malloc.o)
                0x000388d0                free
 .text.memcmp   0x000388e0       0x1e c:/a/gcc_arm/6/bin/../lib/gcc/arm-none-eabi/6.3.1/../../../../arm-none-eabi/lib/thumb/v7e-m/fpv4-sp/hard\libg_nano.a(lib_a-memcmp.o)
                0x000388e0                memcmp
 .text.memcpy   0x000388fe       0x16 c:/a/gcc_arm/6/bin/../lib/gcc/arm-none-eabi/6.3.1/../../../../arm-none-eabi/lib/thumb/v7e-m/fpv4-sp/hard\libg_nano.a(lib_a-memcpy-stub.o)
                0x000388fe                memcpy
 .text.memset   0x00038914       0x10 c:/a/gcc_arm/6/bin/../lib/gcc/arm-none-eabi/6.3.1/../../../../arm-none-eabi/lib/thumb/v7e-m/fpv4-sp/hard\libg_nano.a(lib_a-memset.o)
                0x00038914                memset
 .text._free_r  0x00038924       0x9c c:/a/gcc_arm/6/bin/../lib/gcc/arm-none-eabi/6.3.1/../../../../arm-none-eabi/lib/thumb/v7e-m/fpv4-sp/hard\libg_nano.a(lib_a-nano-freer.o)
                0x00038924                _free_r
 .text._malloc_r
                0x000389c0       0xbc c:/a/gcc_arm/6/bin/../lib/gcc/arm-none-eabi/6.3.1/../../../../arm-none-eabi/lib/thumb/v7e-m/fpv4-sp/hard\libg_nano.a(lib_a-nano-mallocr.o)
                0x000389c0                _malloc_r
 .text._sbrk_r  0x00038a7c       0x20 c:/a/gcc_arm/6/bin/../lib/gcc/arm-none-eabi/6.3.1/../../../../arm-none-eabi/lib/thumb/v7e-m/fpv4-sp/hard\libg_nano.a(lib_a-sbrkr.o)
                0x00038a7c                _sbrk_r
 .text.strcpy   0x00038a9c       0x10 c:/a/gcc_arm/6/bin/../lib/gcc/arm-none-eabi/6.3.1/../../../../arm-none-eabi/lib/thumb/v7e-m/fpv4-sp/hard\libg_nano.a(lib_a-strcpy.o)
                0x00038a9c                strcpy
 .text          0x00038aac       0x10 c:/a/gcc_arm/6/bin/../lib/gcc/arm-none-eabi/6.3.1/../../../../arm-none-eabi/lib/thumb/v7e-m/fpv4-sp/hard\libg_nano.a(lib_a-strlen.o)
                0x00038aac                strlen
 .text.strrchr  0x00038abc       0x26 c:/a/gcc_arm/6/bin/../lib/gcc/arm-none-eabi/6.3.1/../../../../arm-none-eabi/lib/thumb/v7e-m/fpv4-sp/hard\libg_nano.a(lib_a-strrchr.o)
                0x00038abc                strrchr
 .text.__malloc_lock
                0x00038ae2        0x2 c:/a/gcc_arm/6/bin/../lib/gcc/arm-none-eabi/6.3.1/../../../../arm-none-eabi/lib/thumb/v7e-m/fpv4-sp/hard\libg_nano.a(lib_a-mlock.o)
                0x00038ae2                __malloc_lock
 .text.__malloc_unlock
                0x00038ae4        0x2 c:/a/gcc_arm/6/bin/../lib/gcc/arm-none-eabi/6.3.1/../../../../arm-none-eabi/lib/thumb/v7e-m/fpv4-sp/hard\libg_nano.a(lib_a-mlock.o)
                0x00038ae4                __malloc_unlock
 .text.strchr   0x00038ae6       0x1c c:/a/gcc_arm/6/bin/../lib/gcc/arm-none-eabi/6.3.1/../../../../arm-none-eabi/lib/thumb/v7e-m/fpv4-sp/hard\libg_nano.a(lib_a-strchr.o)
                0x00038ae6                strchr
 *fill*         0x00038b02        0x2 
 .text._sbrk    0x00038b04       0x1c c:/a/gcc_arm/6/bin/../lib/gcc/arm-none-eabi/6.3.1/../../../../arm-none-eabi/lib/thumb/v7e-m/fpv4-sp/hard\libnosys.a(sbrk.o)
                0x00038b04                _sbrk
 .text._exit    0x00038b20        0x4 c:/a/gcc_arm/6/bin/../lib/gcc/arm-none-eabi/6.3.1/../../../../arm-none-eabi/lib/thumb/v7e-m/fpv4-sp/hard\libnosys.a(_exit.o)
                0x00038b20                _exit
 *(.init)
 .init          0x00038b24        0x4 c:/a/gcc_arm/6/bin/../lib/gcc/arm-none-eabi/6.3.1/thumb/v7e-m/fpv4-sp/hard/crti.o
                0x00038b24                _init
 .init          0x00038b28        0x8 c:/a/gcc_arm/6/bin/../lib/gcc/arm-none-eabi/6.3.1/thumb/v7e-m/fpv4-sp/hard/crtn.o
 *(.fini)
 .fini          0x00038b30        0x4 c:/a/gcc_arm/6/bin/../lib/gcc/arm-none-eabi/6.3.1/thumb/v7e-m/fpv4-sp/hard/crti.o
                0x00038b30                _fini
 .fini          0x00038b34        0x8 c:/a/gcc_arm/6/bin/../lib/gcc/arm-none-eabi/6.3.1/thumb/v7e-m/fpv4-sp/hard/crtn.o
 *crtbegin.o(.ctors)
 *crtbegin?.o(.ctors)
 *(EXCLUDE_FILE(*crtend.o *crtend?.o) .ctors)
 *(SORT(.ctors.*))
 *(.ctors)
 *crtbegin.o(.dtors)
 *crtbegin?.o(.dtors)
 *(EXCLUDE_FILE(*crtend.o *crtend?.o) .dtors)
 *(SORT(.dtors.*))
 *(.dtors)
 *(.rodata*)
 .rodata        0x00038b3c        0x8 examples/serial/CMakeFiles/serial_nrf52832_xxAA_s132_3.1.0.dir/src/main.c.obj
 .rodata.main.str1.4
                0x00038b44       0xb6 examples/serial/CMakeFiles/serial_nrf52832_xxAA_s132_3.1.0.dir/src/main.c.obj
 *fill*         0x00038bfa        0x2 
 .rodata.HardFault_Handler.str1.4
                0x00038bfc        0xe examples/serial/CMakeFiles/serial_nrf52832_xxAA_s132_3.1.0.dir/__/nrf_mesh_sdk.c.obj
 *fill*         0x00038c0a        0x2 
 .rodata.app_error_handler.str1.4
                0x00038c0c       0x1d examples/serial/CMakeFiles/serial_nrf52832_xxAA_s132_3.1.0.dir/__/nrf_mesh_sdk.c.obj
 *fill*         0x00038c29        0x3 
 .rodata.mesh_assert_handler.str1.4
                0x00038c2c       0x35 examples/serial/CMakeFiles/serial_nrf52832_xxAA_s132_3.1.0.dir/__/nrf_mesh_sdk.c.obj
 *fill*         0x00038c61        0x3 
 .rodata.mesh_core_setup.str1.4
                0x00038c64       0x4d examples/serial/CMakeFiles/serial_nrf52832_xxAA_s132_3.1.0.dir/__/nrf_mesh_sdk.c.obj
 *fill*         0x00038cb1        0x3 
 .rodata.mesh_softdevice_enable.str1.4
                0x00038cb4       0x65 examples/serial/CMakeFiles/serial_nrf52832_xxAA_s132_3.1.0.dir/__/nrf_mesh_sdk.c.obj
 *fill*         0x00038d19        0x3 
 .rodata.softdevice_assert_handler.str1.4
                0x00038d1c       0x1d examples/serial/CMakeFiles/serial_nrf52832_xxAA_s132_3.1.0.dir/__/nrf_mesh_sdk.c.obj
 *fill*         0x00038d39        0x3 
 .rodata.m_prov_callbacks
                0x00038d3c       0x10 examples/serial/CMakeFiles/serial_nrf52832_xxAA_s132_3.1.0.dir/__/__/mesh/prov/src/prov_provisioner.c.obj
 .rodata.m_prov_callbacks
                0x00038d4c       0x10 examples/serial/CMakeFiles/serial_nrf52832_xxAA_s132_3.1.0.dir/__/__/mesh/prov/src/prov_provisionee.c.obj
 .rodata.prov_provisionee_cb_ack_received.str1.4
                0x00038d5c       0x53 examples/serial/CMakeFiles/serial_nrf52832_xxAA_s132_3.1.0.dir/__/__/mesh/prov/src/prov_provisionee.c.obj
 *fill*         0x00038daf        0x1 
 .rodata.pdu_sizes.10677
                0x00038db0        0xa examples/serial/CMakeFiles/serial_nrf52832_xxAA_s132_3.1.0.dir/__/__/mesh/prov/src/provisioning.c.obj
 *fill*         0x00038dba        0x2 
 .rodata.prov_cb_pkt_in.str1.4
                0x00038dbc       0x34 examples/serial/CMakeFiles/serial_nrf52832_xxAA_s132_3.1.0.dir/__/__/mesh/prov/src/provisioning.c.obj
 .rodata.alphanumeric.10781
                0x00038df0       0x25 examples/serial/CMakeFiles/serial_nrf52832_xxAA_s132_3.1.0.dir/__/__/mesh/prov/src/prov_utils.c.obj
 *fill*         0x00038e15        0x3 
 .rodata.numeric_max.10775
                0x00038e18       0x24 examples/serial/CMakeFiles/serial_nrf52832_xxAA_s132_3.1.0.dir/__/__/mesh/prov/src/prov_utils.c.obj
 .rodata.prov_utils_authentication_values_derive.str1.4
                0x00038e3c        0x5 examples/serial/CMakeFiles/serial_nrf52832_xxAA_s132_3.1.0.dir/__/__/mesh/prov/src/prov_utils.c.obj
 *fill*         0x00038e41        0x3 
 .rodata.prov_utils_derive_keys.str1.4
                0x00038e44       0x15 examples/serial/CMakeFiles/serial_nrf52832_xxAA_s132_3.1.0.dir/__/__/mesh/prov/src/prov_utils.c.obj
 *fill*         0x00038e59        0x3 
 .rodata.crctable.10539
                0x00038e5c      0x100 examples/serial/CMakeFiles/serial_nrf52832_xxAA_s132_3.1.0.dir/__/__/mesh/prov/src/prov_bearer_adv.c.obj
 .rodata.interface.10768
                0x00038f5c       0x14 examples/serial/CMakeFiles/serial_nrf52832_xxAA_s132_3.1.0.dir/__/__/mesh/prov/src/prov_bearer_adv.c.obj
 .rodata.prov_bearer_adv_listen.str1.4
                0x00038f70       0x50 examples/serial/CMakeFiles/serial_nrf52832_xxAA_s132_3.1.0.dir/__/__/mesh/prov/src/prov_bearer_adv.c.obj
 .rodata.prov_bearer_adv_packet_in.str1.4
                0x00038fc0      0x283 examples/serial/CMakeFiles/serial_nrf52832_xxAA_s132_3.1.0.dir/__/__/mesh/prov/src/prov_bearer_adv.c.obj
 *fill*         0x00039243        0x1 
 .rodata.tx_retry_cb.str1.4
                0x00039244       0x14 examples/serial/CMakeFiles/serial_nrf52832_xxAA_s132_3.1.0.dir/__/__/mesh/prov/src/prov_bearer_adv.c.obj
 .rodata.access_model_publish.str1.4
                0x00039258       0x13 examples/serial/CMakeFiles/serial_nrf52832_xxAA_s132_3.1.0.dir/__/__/mesh/access/src/access.c.obj
 *fill*         0x0003926b        0x1 
 .rodata.mesh_evt_cb.str1.4
                0x0003926c       0x2f examples/serial/CMakeFiles/serial_nrf52832_xxAA_s132_3.1.0.dir/__/__/mesh/access/src/access.c.obj
 *fill*         0x0003929b        0x1 
 .rodata.m_flash_groups
                0x0003929c       0xc0 examples/serial/CMakeFiles/serial_nrf52832_xxAA_s132_3.1.0.dir/__/__/mesh/access/src/device_state_manager.c.obj
 .rodata.m_cmd_handlers
                0x0003935c       0xb0 examples/serial/CMakeFiles/serial_nrf52832_xxAA_s132_3.1.0.dir/__/__/mesh/serial/src/serial_handler_access.c.obj
 .rodata.serial_process_cmd.str1.4
                0x0003940c       0x6a examples/serial/CMakeFiles/serial_nrf52832_xxAA_s132_3.1.0.dir/__/__/mesh/serial/src/serial.c.obj
 *fill*         0x00039476        0x2 
 .rodata.serial_start.str1.4
                0x00039478       0x11 examples/serial/CMakeFiles/serial_nrf52832_xxAA_s132_3.1.0.dir/__/__/mesh/serial/src/serial.c.obj
 *fill*         0x00039489        0x3 
 .rodata.serial_handler_prov_init.str1.4
                0x0003948c       0x4e examples/serial/CMakeFiles/serial_nrf52832_xxAA_s132_3.1.0.dir/__/__/mesh/serial/src/serial_handler_prov.c.obj
 *fill*         0x000394da        0x2 
 .rodata.lengths.10798
                0x000394dc        0x7 examples/serial/CMakeFiles/serial_nrf52832_xxAA_s132_3.1.0.dir/__/__/mesh/serial/src/serial_handler_dfu.c.obj
 *fill*         0x000394e3        0x1 
 .rodata.m_handlers
                0x000394e4       0xe8 examples/serial/CMakeFiles/serial_nrf52832_xxAA_s132_3.1.0.dir/__/__/mesh/serial/src/serial_handler_mesh.c.obj
 .rodata.m_cmd_handlers
                0x000395cc       0x18 examples/serial/CMakeFiles/serial_nrf52832_xxAA_s132_3.1.0.dir/__/__/mesh/serial/src/serial_handler_models.c.obj
 .rodata.m_cmd_handlers
                0x000395e4       0x48 examples/serial/CMakeFiles/serial_nrf52832_xxAA_s132_3.1.0.dir/__/__/mesh/serial/src/serial_handler_device.c.obj
 .rodata.types_lookup.8805
                0x0003962c        0x4 mesh/core/libmesh_core_nrf52832_xxAA.a(nrf_mesh_utils.c.obj)
 .rodata.nrf_mesh_process.str1.4
                0x00039630       0x73 mesh/core/libmesh_core_nrf52832_xxAA.a(nrf_mesh.c.obj)
 *fill*         0x000396a3        0x1 
 .rodata.CSWTCH.9
                0x000396a4       0x20 mesh/core/libmesh_core_nrf52832_xxAA.a(hal.c.obj)
 .rodata        0x000396c4       0x18 mesh/core/libmesh_core_nrf52832_xxAA.a(enc.c.obj)
 .rodata.network_packet_in.str1.4
                0x000396dc       0x49 mesh/core/libmesh_core_nrf52832_xxAA.a(network.c.obj)
 *fill*         0x00039725        0x3 
 .rodata.network_packet_send.str1.4
                0x00039728       0x4a mesh/core/libmesh_core_nrf52832_xxAA.a(network.c.obj)
 *fill*         0x00039772        0x2 
 .rodata        0x00039774        0x7 mesh/core/libmesh_core_nrf52832_xxAA.a(nrf_mesh_keygen.c.obj)
 *fill*         0x0003977b        0x1 
 .rodata.log_callback_rtt.str1.4
                0x0003977c       0x15 mesh/core/libmesh_core_nrf52832_xxAA.a(log.c.obj)
 *fill*         0x00039791        0x3 
 .rodata.str1.4
                0x00039794       0x11 mesh/core/libmesh_core_nrf52832_xxAA.a(log.c.obj)
 *fill*         0x000397a5        0x3 
 .rodata.INVALID_HEADER
                0x000397a8        0x4 mesh/core/libmesh_core_nrf52832_xxAA.a(flash_manager.c.obj)
                0x000397a8                INVALID_HEADER
 .rodata.PADDING_HEADER
                0x000397ac        0x4 mesh/core/libmesh_core_nrf52832_xxAA.a(flash_manager.c.obj)
                0x000397ac                PADDING_HEADER
 .rodata.SEAL_HEADER
                0x000397b0        0x4 mesh/core/libmesh_core_nrf52832_xxAA.a(flash_manager.c.obj)
                0x000397b0                SEAL_HEADER
 .rodata.process_action_queue.str1.4
                0x000397b4       0x21 mesh/core/libmesh_core_nrf52832_xxAA.a(flash_manager.c.obj)
                                 0x52 (size before relaxing)
 *fill*         0x000397d5        0x3 
 .rodata.beacon_packet_in.str1.4
                0x000397d8       0x55 mesh/core/libmesh_core_nrf52832_xxAA.a(beacon.c.obj)
                                 0x60 (size before relaxing)
 *fill*         0x0003982d        0x3 
 .rodata.net_beacon_init.str1.4
                0x00039830        0x5 mesh/core/libmesh_core_nrf52832_xxAA.a(net_beacon.c.obj)
 *fill*         0x00039835        0x3 
 .rodata.radio_mode_to_us_per_byte.9181
                0x00039838        0x6 mesh/core/libmesh_core_nrf52832_xxAA.a(broadcast.c.obj)
 *fill*         0x0003983e        0x2 
 .rodata.channel_rf_offsets.8443
                0x00039840       0x28 mesh/core/libmesh_core_nrf52832_xxAA.a(radio_config.c.obj)
 .rodata.sar_ack_send.str1.4
                0x00039868       0x1d mesh/core/libmesh_core_nrf52832_xxAA.a(transport.c.obj)
                                 0x4e (size before relaxing)
 *fill*         0x00039885        0x3 
 .rodata.sar_ctx_cancel.str1.4
                0x00039888       0x18 mesh/core/libmesh_core_nrf52832_xxAA.a(transport.c.obj)
 .rodata.test_transport_decrypt.str1.4
                0x000398a0       0x13 mesh/core/libmesh_core_nrf52832_xxAA.a(transport.c.obj)
 *fill*         0x000398b3        0x1 
 .rodata.transport_packet_in.str1.4
                0x000398b4       0x24 mesh/core/libmesh_core_nrf52832_xxAA.a(transport.c.obj)
 .rodata.transport_tx.str1.4
                0x000398d8       0x2f mesh/core/libmesh_core_nrf52832_xxAA.a(transport.c.obj)
                                 0x38 (size before relaxing)
 *fill*         0x00039907        0x1 
 .rodata.upper_transport_access_packet_in.str1.4
                0x00039908       0x29 mesh/core/libmesh_core_nrf52832_xxAA.a(transport.c.obj)
 *fill*         0x00039931        0x3 
 .rodata.upper_transport_packet_in.str1.4
                0x00039934       0x2e mesh/core/libmesh_core_nrf52832_xxAA.a(transport.c.obj)
 *fill*         0x00039962        0x2 
 .rodata.flash_manager_defrag.str1.4
                0x00039964       0x28 mesh/core/libmesh_core_nrf52832_xxAA.a(flash_manager_defrag.c.obj)
                                 0x56 (size before relaxing)
 .rodata.m_procedure_steps
                0x0003998c       0x28 mesh/core/libmesh_core_nrf52832_xxAA.a(flash_manager_defrag.c.obj)
 .rodata.m_all_operations
                0x000399b4       0x10 mesh/core/libmesh_core_nrf52832_xxAA.a(mesh_flash.c.obj)
 .rodata.curve_secp256r1
                0x000399c4       0xb0 external/micro-ecc/libuECC_nrf52832_xxAA.a(uECC.c.obj)
 .rodata.SEGGER_RTT_ReadNoLock.str1.4
                0x00039a74       0x18 external/rtt/librtt_nrf52832_xxAA.a(SEGGER_RTT.c.obj)
                                 0x17 (size before relaxing)
 .rodata._aV2C.5497
                0x00039a8c       0x10 external/rtt/librtt_nrf52832_xxAA.a(SEGGER_RTT_printf.c.obj)
 .rodata._global_impure_ptr
                0x00039a9c        0x4 c:/a/gcc_arm/6/bin/../lib/gcc/arm-none-eabi/6.3.1/../../../../arm-none-eabi/lib/thumb/v7e-m/fpv4-sp/hard\libg_nano.a(lib_a-impure.o)
                0x00039a9c                _global_impure_ptr
 *(.eh_frame*)
 .eh_frame      0x00039aa0        0x0 c:/a/gcc_arm/6/bin/../lib/gcc/arm-none-eabi/6.3.1/thumb/v7e-m/fpv4-sp/hard/crtbegin.o
 .eh_frame      0x00039aa0        0x4 c:/a/gcc_arm/6/bin/../lib/gcc/arm-none-eabi/6.3.1/thumb/v7e-m/fpv4-sp/hard/crtend.o

.glue_7         0x00039aa4        0x0
 .glue_7        0x00039aa4        0x0 linker stubs

.glue_7t        0x00039aa4        0x0
 .glue_7t       0x00039aa4        0x0 linker stubs

.vfp11_veneer   0x00039aa4        0x0
 .vfp11_veneer  0x00039aa4        0x0 linker stubs

.v4_bx          0x00039aa4        0x0
 .v4_bx         0x00039aa4        0x0 linker stubs

.iplt           0x00039aa4        0x0
 .iplt          0x00039aa4        0x0 c:/a/gcc_arm/6/bin/../lib/gcc/arm-none-eabi/6.3.1/thumb/v7e-m/fpv4-sp/hard/crtbegin.o

.ARM.extab
 *(.ARM.extab* .gnu.linkonce.armextab.*)
                0x00039aa4                __exidx_start = .

.ARM.exidx      0x00039aa4        0x8
 *(.ARM.exidx* .gnu.linkonce.armexidx.*)
 .ARM.exidx     0x00039aa4        0x8 c:/a/gcc_arm/6/bin/../lib/gcc/arm-none-eabi/6.3.1/../../../../arm-none-eabi/lib/thumb/v7e-m/fpv4-sp/hard/crt0.o
                0x00039aac                __exidx_end = .
                0x00039aac                __etext = .

.rel.dyn        0x00039aac        0x0
 .rel.iplt      0x00039aac        0x0 c:/a/gcc_arm/6/bin/../lib/gcc/arm-none-eabi/6.3.1/thumb/v7e-m/fpv4-sp/hard/crtbegin.o

.data           0x200019c0      0x124 load address 0x00039aac
                0x200019c0                __data_start__ = .
 *(vtable)
 *(.data*)
 .data.m_unprov_report
                0x200019c0        0x1 examples/serial/CMakeFiles/serial_nrf52832_xxAA_s132_3.1.0.dir/__/__/mesh/prov/src/prov_beacon.c.obj
 *fill*         0x200019c1        0x3 
 .data.m_async_process_flag
                0x200019c4        0x4 examples/serial/CMakeFiles/serial_nrf52832_xxAA_s132_3.1.0.dir/__/__/mesh/prov/src/prov_bearer_adv.c.obj
 .data.flash_add_mem_available_struct.10233
                0x200019c8       0x10 examples/serial/CMakeFiles/serial_nrf52832_xxAA_s132_3.1.0.dir/__/__/mesh/access/src/access.c.obj
 .data.flash_clear_mem_available_struct.10322
                0x200019d8       0x10 examples/serial/CMakeFiles/serial_nrf52832_xxAA_s132_3.1.0.dir/__/__/mesh/access/src/access.c.obj
 .data.flash_store_mem_available_struct.10346
                0x200019e8       0x10 examples/serial/CMakeFiles/serial_nrf52832_xxAA_s132_3.1.0.dir/__/__/mesh/access/src/access.c.obj
 .data.m_default_ttl
                0x200019f8        0x1 examples/serial/CMakeFiles/serial_nrf52832_xxAA_s132_3.1.0.dir/__/__/mesh/access/src/access.c.obj
 *fill*         0x200019f9        0x3 
 .data.mem_listener.10485
                0x200019fc       0x10 examples/serial/CMakeFiles/serial_nrf52832_xxAA_s132_3.1.0.dir/__/__/mesh/access/src/device_state_manager.c.obj
 .data.mem_listener.10511
                0x20001a0c       0x10 examples/serial/CMakeFiles/serial_nrf52832_xxAA_s132_3.1.0.dir/__/__/mesh/access/src/device_state_manager.c.obj
 .data.SystemCoreClock
                0x20001a1c        0x4 examples/serial/CMakeFiles/serial_nrf52832_xxAA_s132_3.1.0.dir/__/__/external/nRF5_SDK_14.0.0_3bcc1f7/components/toolchain/system_nrf52.c.obj
                0x20001a1c                SystemCoreClock
 .data.mem_listener.9705
                0x20001a20       0x10 mesh/core/libmesh_core_nrf52832_xxAA.a(net_state.c.obj)
 .data.mem_listener.9710
                0x20001a30       0x10 mesh/core/libmesh_core_nrf52832_xxAA.a(net_state.c.obj)
 .data.mem_listener.9724
                0x20001a40       0x10 mesh/core/libmesh_core_nrf52832_xxAA.a(net_state.c.obj)
 .data.mem_listener.9741
                0x20001a50       0x10 mesh/core/libmesh_core_nrf52832_xxAA.a(net_state.c.obj)
 .data.g_log_debug_level
                0x20001a60        0x4 mesh/core/libmesh_core_nrf52832_xxAA.a(log.c.obj)
                0x20001a60                g_log_debug_level
 .data.g_log_debug_msk
                0x20001a64        0x4 mesh/core/libmesh_core_nrf52832_xxAA.a(log.c.obj)
                0x20001a64                g_log_debug_msk
 .data.g_log_hex_digits
                0x20001a68        0x4 mesh/core/libmesh_core_nrf52832_xxAA.a(log.c.obj)
                0x20001a68                g_log_hex_digits
 .data.m_log_callback
                0x20001a6c        0x4 mesh/core/libmesh_core_nrf52832_xxAA.a(log.c.obj)
                0x20001a6c                m_log_callback
 .data.g_rng_function
                0x20001a70        0x4 external/micro-ecc/libuECC_nrf52832_xxAA.a(uECC.c.obj)
 .data._impure_ptr
                0x20001a74        0x4 c:/a/gcc_arm/6/bin/../lib/gcc/arm-none-eabi/6.3.1/../../../../arm-none-eabi/lib/thumb/v7e-m/fpv4-sp/hard\libg_nano.a(lib_a-impure.o)
                0x20001a74                _impure_ptr
 .data.impure_data
                0x20001a78       0x60 c:/a/gcc_arm/6/bin/../lib/gcc/arm-none-eabi/6.3.1/../../../../arm-none-eabi/lib/thumb/v7e-m/fpv4-sp/hard\libg_nano.a(lib_a-impure.o)
                0x20001ad8                . = ALIGN (0x4)
                0x20001ad8                PROVIDE (__preinit_array_start, .)
 *(.preinit_array)
                0x20001ad8                PROVIDE (__preinit_array_end, .)
                0x20001ad8                . = ALIGN (0x4)
                0x20001ad8                PROVIDE (__init_array_start, .)
 *(SORT(.init_array.*))
 *(.init_array)
 .init_array    0x20001ad8        0x4 c:/a/gcc_arm/6/bin/../lib/gcc/arm-none-eabi/6.3.1/thumb/v7e-m/fpv4-sp/hard/crtbegin.o
                0x20001adc                PROVIDE (__init_array_end, .)
                0x20001adc                . = ALIGN (0x4)
                [!provide]                PROVIDE (__fini_array_start, .)
 *(SORT(.fini_array.*))
 *(.fini_array)
 .fini_array    0x20001adc        0x4 c:/a/gcc_arm/6/bin/../lib/gcc/arm-none-eabi/6.3.1/thumb/v7e-m/fpv4-sp/hard/crtbegin.o
                [!provide]                PROVIDE (__fini_array_end, .)
 *(.jcr*)
 .jcr           0x20001ae0        0x0 c:/a/gcc_arm/6/bin/../lib/gcc/arm-none-eabi/6.3.1/thumb/v7e-m/fpv4-sp/hard/crtbegin.o
 .jcr           0x20001ae0        0x4 c:/a/gcc_arm/6/bin/../lib/gcc/arm-none-eabi/6.3.1/thumb/v7e-m/fpv4-sp/hard/crtend.o
                0x20001ae4                . = ALIGN (0x4)
                0x20001ae4                __data_end__ = .

.igot.plt       0x20001ae4        0x0 load address 0x00039bd0
 .igot.plt      0x20001ae4        0x0 c:/a/gcc_arm/6/bin/../lib/gcc/arm-none-eabi/6.3.1/thumb/v7e-m/fpv4-sp/hard/crtbegin.o

.bss            0x20001ae8     0x36a0 load address 0x00039bd8
                0x20001ae8                . = ALIGN (0x4)
                0x20001ae8                __bss_start__ = .
 *(.bss*)
 .bss           0x20001ae8       0x1c c:/a/gcc_arm/6/bin/../lib/gcc/arm-none-eabi/6.3.1/thumb/v7e-m/fpv4-sp/hard/crtbegin.o
 .bss.m_ble_evt_buffer
                0x20001b04       0x4f examples/serial/CMakeFiles/serial_nrf52832_xxAA_s132_3.1.0.dir/__/nrf_mesh_sdk.c.obj
 .bss.m_offload_ecdh
                0x20001b53        0x1 examples/serial/CMakeFiles/serial_nrf52832_xxAA_s132_3.1.0.dir/__/__/mesh/prov/src/prov_utils.c.obj
 .bss.mp_bearer_head
                0x20001b54        0x4 examples/serial/CMakeFiles/serial_nrf52832_xxAA_s132_3.1.0.dir/__/__/mesh/prov/src/prov_bearer_adv.c.obj
 .bss.m_publish_timer
                0x20001b58       0x18 examples/serial/CMakeFiles/serial_nrf52832_xxAA_s132_3.1.0.dir/__/__/mesh/access/src/access_publish.c.obj
 .bss.m_publish_timer_counter
                0x20001b70        0x4 examples/serial/CMakeFiles/serial_nrf52832_xxAA_s132_3.1.0.dir/__/__/mesh/access/src/access_publish.c.obj
 .bss.m_publish_timer_running
                0x20001b74        0x1 examples/serial/CMakeFiles/serial_nrf52832_xxAA_s132_3.1.0.dir/__/__/mesh/access/src/access_publish.c.obj
 .bss.m_timer_resolution
                0x20001b75        0x1 examples/serial/CMakeFiles/serial_nrf52832_xxAA_s132_3.1.0.dir/__/__/mesh/access/src/access_publish.c.obj
 *fill*         0x20001b76        0x2 
 .bss.mp_publication_list
                0x20001b78        0x4 examples/serial/CMakeFiles/serial_nrf52832_xxAA_s132_3.1.0.dir/__/__/mesh/access/src/access_publish.c.obj
 .bss.m_element_pool
                0x20001b7c        0xc examples/serial/CMakeFiles/serial_nrf52832_xxAA_s132_3.1.0.dir/__/__/mesh/access/src/access.c.obj
 .bss.m_evt_handler
                0x20001b88        0x8 examples/serial/CMakeFiles/serial_nrf52832_xxAA_s132_3.1.0.dir/__/__/mesh/access/src/access.c.obj
 .bss.m_flash_manager
                0x20001b90       0x24 examples/serial/CMakeFiles/serial_nrf52832_xxAA_s132_3.1.0.dir/__/__/mesh/access/src/access.c.obj
 .bss.m_flash_not_ready
                0x20001bb4        0x1 examples/serial/CMakeFiles/serial_nrf52832_xxAA_s132_3.1.0.dir/__/__/mesh/access/src/access.c.obj
 .bss.m_metadata_stored
                0x20001bb5        0x1 examples/serial/CMakeFiles/serial_nrf52832_xxAA_s132_3.1.0.dir/__/__/mesh/access/src/access.c.obj
 *fill*         0x20001bb6        0x2 
 .bss.m_model_pool
                0x20001bb8       0x34 examples/serial/CMakeFiles/serial_nrf52832_xxAA_s132_3.1.0.dir/__/__/mesh/access/src/access.c.obj
 .bss.m_subscription_list_pool
                0x20001bec        0x8 examples/serial/CMakeFiles/serial_nrf52832_xxAA_s132_3.1.0.dir/__/__/mesh/access/src/access.c.obj
 .bss.m_reliable
                0x20001bf4       0x44 examples/serial/CMakeFiles/serial_nrf52832_xxAA_s132_3.1.0.dir/__/__/mesh/access/src/access_reliable.c.obj
 .bss.m_addr_nonvirtual_allocated
                0x20001c38        0x4 examples/serial/CMakeFiles/serial_nrf52832_xxAA_s132_3.1.0.dir/__/__/mesh/access/src/device_state_manager.c.obj
 .bss.m_addr_nonvirtual_needs_flashing
                0x20001c3c        0x4 examples/serial/CMakeFiles/serial_nrf52832_xxAA_s132_3.1.0.dir/__/__/mesh/access/src/device_state_manager.c.obj
 .bss.m_addr_unicast_allocated
                0x20001c40        0x4 examples/serial/CMakeFiles/serial_nrf52832_xxAA_s132_3.1.0.dir/__/__/mesh/access/src/device_state_manager.c.obj
 .bss.m_addr_unicast_needs_flashing
                0x20001c44        0x4 examples/serial/CMakeFiles/serial_nrf52832_xxAA_s132_3.1.0.dir/__/__/mesh/access/src/device_state_manager.c.obj
 .bss.m_addr_virtual_allocated
                0x20001c48        0x4 examples/serial/CMakeFiles/serial_nrf52832_xxAA_s132_3.1.0.dir/__/__/mesh/access/src/device_state_manager.c.obj
 .bss.m_addr_virtual_needs_flashing
                0x20001c4c        0x4 examples/serial/CMakeFiles/serial_nrf52832_xxAA_s132_3.1.0.dir/__/__/mesh/access/src/device_state_manager.c.obj
 .bss.m_addresses
                0x20001c50       0x40 examples/serial/CMakeFiles/serial_nrf52832_xxAA_s132_3.1.0.dir/__/__/mesh/access/src/device_state_manager.c.obj
 .bss.m_appkey_allocated
                0x20001c90        0x4 examples/serial/CMakeFiles/serial_nrf52832_xxAA_s132_3.1.0.dir/__/__/mesh/access/src/device_state_manager.c.obj
 .bss.m_appkey_needs_flashing
                0x20001c94        0x4 examples/serial/CMakeFiles/serial_nrf52832_xxAA_s132_3.1.0.dir/__/__/mesh/access/src/device_state_manager.c.obj
 .bss.m_appkeys
                0x20001c98       0xb0 examples/serial/CMakeFiles/serial_nrf52832_xxAA_s132_3.1.0.dir/__/__/mesh/access/src/device_state_manager.c.obj
 .bss.m_devkey_allocated
                0x20001d48        0x4 examples/serial/CMakeFiles/serial_nrf52832_xxAA_s132_3.1.0.dir/__/__/mesh/access/src/device_state_manager.c.obj
 .bss.m_devkey_needs_flashing
                0x20001d4c        0x4 examples/serial/CMakeFiles/serial_nrf52832_xxAA_s132_3.1.0.dir/__/__/mesh/access/src/device_state_manager.c.obj
 .bss.m_devkeys
                0x20001d50       0x42 examples/serial/CMakeFiles/serial_nrf52832_xxAA_s132_3.1.0.dir/__/__/mesh/access/src/device_state_manager.c.obj
 .bss.m_flash_is_available
                0x20001d92        0x1 examples/serial/CMakeFiles/serial_nrf52832_xxAA_s132_3.1.0.dir/__/__/mesh/access/src/device_state_manager.c.obj
 *fill*         0x20001d93        0x1 
 .bss.m_flash_manager
                0x20001d94       0x24 examples/serial/CMakeFiles/serial_nrf52832_xxAA_s132_3.1.0.dir/__/__/mesh/access/src/device_state_manager.c.obj
 .bss.m_flash_mem_listener_update_all
                0x20001db8       0x10 examples/serial/CMakeFiles/serial_nrf52832_xxAA_s132_3.1.0.dir/__/__/mesh/access/src/device_state_manager.c.obj
 .bss.m_has_primary_subnet
                0x20001dc8        0x1 examples/serial/CMakeFiles/serial_nrf52832_xxAA_s132_3.1.0.dir/__/__/mesh/access/src/device_state_manager.c.obj
 *fill*         0x20001dc9        0x3 
 .bss.m_local_unicast_addr
                0x20001dcc        0x4 examples/serial/CMakeFiles/serial_nrf52832_xxAA_s132_3.1.0.dir/__/__/mesh/access/src/device_state_manager.c.obj
 .bss.m_subnet_allocated
                0x20001dd0        0x4 examples/serial/CMakeFiles/serial_nrf52832_xxAA_s132_3.1.0.dir/__/__/mesh/access/src/device_state_manager.c.obj
 .bss.m_subnet_needs_flashing
                0x20001dd4        0x4 examples/serial/CMakeFiles/serial_nrf52832_xxAA_s132_3.1.0.dir/__/__/mesh/access/src/device_state_manager.c.obj
 .bss.m_subnets
                0x20001dd8      0x170 examples/serial/CMakeFiles/serial_nrf52832_xxAA_s132_3.1.0.dir/__/__/mesh/access/src/device_state_manager.c.obj
 .bss.m_virtual_addresses
                0x20001f48       0xa0 examples/serial/CMakeFiles/serial_nrf52832_xxAA_s132_3.1.0.dir/__/__/mesh/access/src/device_state_manager.c.obj
 .bss.m_can_receive
                0x20001fe8        0x1 examples/serial/CMakeFiles/serial_nrf52832_xxAA_s132_3.1.0.dir/__/__/mesh/serial/src/serial_uart.c.obj
 *fill*         0x20001fe9        0x3 
 .bss.m_char_rx_cb
                0x20001fec        0x4 examples/serial/CMakeFiles/serial_nrf52832_xxAA_s132_3.1.0.dir/__/__/mesh/serial/src/serial_uart.c.obj
 .bss.m_char_tx_cb
                0x20001ff0        0x4 examples/serial/CMakeFiles/serial_nrf52832_xxAA_s132_3.1.0.dir/__/__/mesh/serial/src/serial_uart.c.obj
 .bss.m_cur_tx_packet_index
                0x20001ff4        0x2 examples/serial/CMakeFiles/serial_nrf52832_xxAA_s132_3.1.0.dir/__/__/mesh/serial/src/serial_bearer.c.obj
 *fill*         0x20001ff6        0x2 
 .bss.m_event_flag
                0x20001ff8        0x4 examples/serial/CMakeFiles/serial_nrf52832_xxAA_s132_3.1.0.dir/__/__/mesh/serial/src/serial_bearer.c.obj
 .bss.m_rx_buffer
                0x20001ffc       0xd0 examples/serial/CMakeFiles/serial_nrf52832_xxAA_s132_3.1.0.dir/__/__/mesh/serial/src/serial_bearer.c.obj
 .bss.m_rx_packet_buf
                0x200020cc        0xc examples/serial/CMakeFiles/serial_nrf52832_xxAA_s132_3.1.0.dir/__/__/mesh/serial/src/serial_bearer.c.obj
 .bss.m_serial_state
                0x200020d8        0x1 examples/serial/CMakeFiles/serial_nrf52832_xxAA_s132_3.1.0.dir/__/__/mesh/serial/src/serial_bearer.c.obj
 *fill*         0x200020d9        0x1 
 .bss.m_stored_pac_len
                0x200020da        0x2 examples/serial/CMakeFiles/serial_nrf52832_xxAA_s132_3.1.0.dir/__/__/mesh/serial/src/serial_bearer.c.obj
 .bss.m_tx_buffer
                0x200020dc       0xd0 examples/serial/CMakeFiles/serial_nrf52832_xxAA_s132_3.1.0.dir/__/__/mesh/serial/src/serial_bearer.c.obj
 .bss.m_tx_packet_buf
                0x200021ac        0xc examples/serial/CMakeFiles/serial_nrf52832_xxAA_s132_3.1.0.dir/__/__/mesh/serial/src/serial_bearer.c.obj
 .bss.mp_current_rx_packet
                0x200021b8        0x4 examples/serial/CMakeFiles/serial_nrf52832_xxAA_s132_3.1.0.dir/__/__/mesh/serial/src/serial_bearer.c.obj
 .bss.mp_current_tx_packet
                0x200021bc        0x4 examples/serial/CMakeFiles/serial_nrf52832_xxAA_s132_3.1.0.dir/__/__/mesh/serial/src/serial_bearer.c.obj
 .bss.rx_index.10752
                0x200021c0        0x2 examples/serial/CMakeFiles/serial_nrf52832_xxAA_s132_3.1.0.dir/__/__/mesh/serial/src/serial_bearer.c.obj
 .bss.m_cmd_handler_scheduled
                0x200021c2        0x1 examples/serial/CMakeFiles/serial_nrf52832_xxAA_s132_3.1.0.dir/__/__/mesh/serial/src/serial.c.obj
 .bss.m_state   0x200021c3        0x1 examples/serial/CMakeFiles/serial_nrf52832_xxAA_s132_3.1.0.dir/__/__/mesh/serial/src/serial.c.obj
 .bss.m_mesh_evt_handler
                0x200021c4        0x8 examples/serial/CMakeFiles/serial_nrf52832_xxAA_s132_3.1.0.dir/__/__/mesh/serial/src/serial_handler_prov.c.obj
 .bss.m_private_key
                0x200021cc       0x20 examples/serial/CMakeFiles/serial_nrf52832_xxAA_s132_3.1.0.dir/__/__/mesh/serial/src/serial_handler_prov.c.obj
 .bss.m_prov_contexts
                0x200021ec      0x5f8 examples/serial/CMakeFiles/serial_nrf52832_xxAA_s132_3.1.0.dir/__/__/mesh/serial/src/serial_handler_prov.c.obj
 .bss.m_provisioning_caps
                0x200027e4        0xb examples/serial/CMakeFiles/serial_nrf52832_xxAA_s132_3.1.0.dir/__/__/mesh/serial/src/serial_handler_prov.c.obj
 *fill*         0x200027ef        0x1 
 .bss.m_public_key
                0x200027f0       0x40 examples/serial/CMakeFiles/serial_nrf52832_xxAA_s132_3.1.0.dir/__/__/mesh/serial/src/serial_handler_prov.c.obj
 .bss.m_scanning_running
                0x20002830        0x1 examples/serial/CMakeFiles/serial_nrf52832_xxAA_s132_3.1.0.dir/__/__/mesh/serial/src/serial_handler_prov.c.obj
 *fill*         0x20002831        0x3 
 .bss.m_evt_handler
                0x20002834        0x8 examples/serial/CMakeFiles/serial_nrf52832_xxAA_s132_3.1.0.dir/__/__/mesh/serial/src/serial_handler_dfu.c.obj
 .bss.m_evt_handler
                0x2000283c        0x8 examples/serial/CMakeFiles/serial_nrf52832_xxAA_s132_3.1.0.dir/__/__/mesh/serial/src/serial_handler_mesh.c.obj
 .bss.p_serial_evt.10984
                0x20002844        0x4 examples/serial/CMakeFiles/serial_nrf52832_xxAA_s132_3.1.0.dir/__/__/mesh/serial/src/serial_handler_mesh.c.obj
 .bss.m_models_list
                0x20002848        0xc examples/serial/CMakeFiles/serial_nrf52832_xxAA_s132_3.1.0.dir/__/__/mesh/serial/src/serial_handler_models.c.obj
 .bss.m_beacons
                0x20002854      0x134 examples/serial/CMakeFiles/serial_nrf52832_xxAA_s132_3.1.0.dir/__/__/mesh/serial/src/serial_handler_device.c.obj
 .bss.m_app_rx_cb
                0x20002988        0x4 examples/serial/CMakeFiles/serial_nrf52832_xxAA_s132_3.1.0.dir/__/__/mesh/serial/src/serial_handler_app.c.obj
 .bss.m_internal_event_fifo
                0x2000298c       0x14 mesh/core/libmesh_core_nrf52832_xxAA.a(internal_event.c.obj)
 .bss.m_internal_event_fifo_buffer
                0x200029a0      0x100 mesh/core/libmesh_core_nrf52832_xxAA.a(internal_event.c.obj)
 .bss.m_internal_event_initialized
                0x20002aa0        0x1 mesh/core/libmesh_core_nrf52832_xxAA.a(internal_event.c.obj)
 *fill*         0x20002aa1        0x3 
 .bss.m_report_cb
                0x20002aa4        0x4 mesh/core/libmesh_core_nrf52832_xxAA.a(internal_event.c.obj)
 .bss.m_uuid    0x20002aa8       0x10 mesh/core/libmesh_core_nrf52832_xxAA.a(nrf_mesh_configure.c.obj)
 .bss.mp_evt_handlers_head
                0x20002ab8        0x4 mesh/core/libmesh_core_nrf52832_xxAA.a(event.c.obj)
 .bss.lock_count.9764
                0x20002abc        0x4 mesh/core/libmesh_core_nrf52832_xxAA.a(net_state.c.obj)
 .bss.m_flash_manager
                0x20002ac0       0x24 mesh/core/libmesh_core_nrf52832_xxAA.a(net_state.c.obj)
 .bss.m_iv_update_timer
                0x20002ae4       0x18 mesh/core/libmesh_core_nrf52832_xxAA.a(net_state.c.obj)
 .bss.m_net_state
                0x20002afc       0x14 mesh/core/libmesh_core_nrf52832_xxAA.a(net_state.c.obj)
 .bss.m_seqnum_allocation_in_progress
                0x20002b10        0x1 mesh/core/libmesh_core_nrf52832_xxAA.a(net_state.c.obj)
 .bss.m_test_mode
                0x20002b11        0x1 mesh/core/libmesh_core_nrf52832_xxAA.a(net_state.c.obj)
 .bss.m_is_enabled
                0x20002b12        0x1 mesh/core/libmesh_core_nrf52832_xxAA.a(nrf_mesh.c.obj)
 .bss.m_is_initialized
                0x20002b13        0x1 mesh/core/libmesh_core_nrf52832_xxAA.a(nrf_mesh.c.obj)
 .bss.m_rx_cb   0x20002b14        0x4 mesh/core/libmesh_core_nrf52832_xxAA.a(nrf_mesh.c.obj)
 .bss.m_event_flag
                0x20002b18        0x4 mesh/core/libmesh_core_nrf52832_xxAA.a(timer_scheduler.c.obj)
 .bss.m_scheduler
                0x20002b1c       0x10 mesh/core/libmesh_core_nrf52832_xxAA.a(timer_scheduler.c.obj)
 .bss.m_attributes
                0x20002b2c        0x3 mesh/core/libmesh_core_nrf52832_xxAA.a(timer.c.obj)
 *fill*         0x20002b2f        0x1 
 .bss.m_callbacks
                0x20002b30        0xc mesh/core/libmesh_core_nrf52832_xxAA.a(timer.c.obj)
 .bss.m_is_in_ts
                0x20002b3c        0x1 mesh/core/libmesh_core_nrf52832_xxAA.a(timer.c.obj)
 *fill*         0x20002b3d        0x3 
 .bss.m_reference_time
                0x20002b40        0x4 mesh/core/libmesh_core_nrf52832_xxAA.a(timer.c.obj)
 .bss.m_timeouts
                0x20002b44        0xc mesh/core/libmesh_core_nrf52832_xxAA.a(timer.c.obj)
 .bss.m_timer_mut
                0x20002b50        0x4 mesh/core/libmesh_core_nrf52832_xxAA.a(timer.c.obj)
 .bss.m_ts_end_time
                0x20002b54        0x4 mesh/core/libmesh_core_nrf52832_xxAA.a(timer.c.obj)
 .bss.mp_ppi_tasks
                0x20002b58        0xc mesh/core/libmesh_core_nrf52832_xxAA.a(timer.c.obj)
 .bss.m_current_time
                0x20002b64        0x4 mesh/core/libmesh_core_nrf52832_xxAA.a(ticker.c.obj)
 .bss.m_timer   0x20002b68       0x18 mesh/core/libmesh_core_nrf52832_xxAA.a(ticker.c.obj)
 .bss.m_current_timeslot
                0x20002b80       0x1c mesh/core/libmesh_core_nrf52832_xxAA.a(timeslot.c.obj)
 .bss.m_lfclk_ppm
                0x20002b9c        0x4 mesh/core/libmesh_core_nrf52832_xxAA.a(timeslot.c.obj)
 .bss.m_radio_request_earliest
                0x20002ba0       0x10 mesh/core/libmesh_core_nrf52832_xxAA.a(timeslot.c.obj)
 .bss.m_state_lock
                0x20002bb0        0x1 mesh/core/libmesh_core_nrf52832_xxAA.a(timeslot.c.obj)
 .bss.m_timeslot_forced_command
                0x20002bb1        0x1 mesh/core/libmesh_core_nrf52832_xxAA.a(timeslot.c.obj)
 *fill*         0x20002bb2        0x6 
 .bss.s_last_rtc_value.9029
                0x20002bb8        0x8 mesh/core/libmesh_core_nrf52832_xxAA.a(timeslot.c.obj)
 .bss.m_bearer_event_fifo
                0x20002bc0       0x14 mesh/core/libmesh_core_nrf52832_xxAA.a(bearer_event.c.obj)
 .bss.m_bearer_event_fifo_buffer
                0x20002bd4      0x100 mesh/core/libmesh_core_nrf52832_xxAA.a(bearer_event.c.obj)
 .bss.m_critical
                0x20002cd4        0x4 mesh/core/libmesh_core_nrf52832_xxAA.a(bearer_event.c.obj)
 .bss.m_flag_count
                0x20002cd8        0x4 mesh/core/libmesh_core_nrf52832_xxAA.a(bearer_event.c.obj)
 .bss.m_flag_event_callbacks
                0x20002cdc       0x18 mesh/core/libmesh_core_nrf52832_xxAA.a(bearer_event.c.obj)
 .bss.m_flags   0x20002cf4        0x4 mesh/core/libmesh_core_nrf52832_xxAA.a(bearer_event.c.obj)
 .bss.m_sequential_event_queue
                0x20002cf8        0x8 mesh/core/libmesh_core_nrf52832_xxAA.a(bearer_event.c.obj)
 .bss.m_relay_check_cb
                0x20002d00        0x4 mesh/core/libmesh_core_nrf52832_xxAA.a(network.c.obj)
 .bss.m_relay_enable
                0x20002d04        0x1 mesh/core/libmesh_core_nrf52832_xxAA.a(network.c.obj)
 *fill*         0x20002d05        0x3 
 .bss.m_action_queue
                0x20002d08        0xc mesh/core/libmesh_core_nrf52832_xxAA.a(flash_manager.c.obj)
 .bss.m_action_queue_buffer
                0x20002d14      0x104 mesh/core/libmesh_core_nrf52832_xxAA.a(flash_manager.c.obj)
 .bss.m_action_state
                0x20002e18        0x1 mesh/core/libmesh_core_nrf52832_xxAA.a(flash_manager.c.obj)
 *fill*         0x20002e19        0x3 
 .bss.m_memory_listener_queue
                0x20002e1c        0x8 mesh/core/libmesh_core_nrf52832_xxAA.a(flash_manager.c.obj)
 .bss.m_processing_flag
                0x20002e24        0x4 mesh/core/libmesh_core_nrf52832_xxAA.a(flash_manager.c.obj)
 .bss.m_state   0x20002e28        0x1 mesh/core/libmesh_core_nrf52832_xxAA.a(flash_manager.c.obj)
 *fill*         0x20002e29        0x1 
 .bss.m_token   0x20002e2a        0x2 mesh/core/libmesh_core_nrf52832_xxAA.a(flash_manager.c.obj)
 .bss.p_current.10881
                0x20002e2c        0x4 mesh/core/libmesh_core_nrf52832_xxAA.a(flash_manager.c.obj)
 .bss.result.10882
                0x20002e30        0x1 mesh/core/libmesh_core_nrf52832_xxAA.a(flash_manager.c.obj)
 *fill*         0x20002e31        0x3 
 .bss.m_adv_buffer
                0x20002e34       0x68 mesh/core/libmesh_core_nrf52832_xxAA.a(beacon.c.obj)
 .bss.m_advertiser
                0x20002e9c       0x94 mesh/core/libmesh_core_nrf52832_xxAA.a(beacon.c.obj)
 .bss.m_adv_tx_count
                0x20002f30        0x8 mesh/core/libmesh_core_nrf52832_xxAA.a(core_tx.c.obj)
 .bss.m_advertisers
                0x20002f38      0x128 mesh/core/libmesh_core_nrf52832_xxAA.a(core_tx.c.obj)
 .bss.m_originator_adv_packet_buffer
                0x20003060      0x100 mesh/core/libmesh_core_nrf52832_xxAA.a(core_tx.c.obj)
 .bss.m_relay_adv_packet_buffer
                0x20003160       0x80 mesh/core/libmesh_core_nrf52832_xxAA.a(core_tx.c.obj)
 .bss.m_tx_complete_callback
                0x200031e0        0x4 mesh/core/libmesh_core_nrf52832_xxAA.a(core_tx.c.obj)
 .bss.m_beacon_salt
                0x200031e4       0x10 mesh/core/libmesh_core_nrf52832_xxAA.a(net_beacon.c.obj)
 .bss.m_enabled
                0x200031f4        0x1 mesh/core/libmesh_core_nrf52832_xxAA.a(net_beacon.c.obj)
 *fill*         0x200031f5        0x3 
 .bss.m_tx_event
                0x200031f8       0x18 mesh/core/libmesh_core_nrf52832_xxAA.a(net_beacon.c.obj)
 .bss.m_adv_prng
                0x20003210       0x10 mesh/core/libmesh_core_nrf52832_xxAA.a(advertiser.c.obj)
 .bss.m_action_queue
                0x20003220        0x8 mesh/core/libmesh_core_nrf52832_xxAA.a(bearer_handler.c.obj)
 .bss.m_end_time
                0x20003228        0x4 mesh/core/libmesh_core_nrf52832_xxAA.a(bearer_handler.c.obj)
 .bss.m_scanner_is_active
                0x2000322c        0x1 mesh/core/libmesh_core_nrf52832_xxAA.a(bearer_handler.c.obj)
 .bss.m_stopped
                0x2000322d        0x1 mesh/core/libmesh_core_nrf52832_xxAA.a(bearer_handler.c.obj)
 *fill*         0x2000322e        0x2 
 .bss.mp_action
                0x20003230        0x4 mesh/core/libmesh_core_nrf52832_xxAA.a(bearer_handler.c.obj)
 .bss.m_next_channel_index
                0x20003234        0x1 mesh/core/libmesh_core_nrf52832_xxAA.a(broadcast.c.obj)
 *fill*         0x20003235        0x3 
 .bss.m_scanner
                0x20003238      0x284 mesh/core/libmesh_core_nrf52832_xxAA.a(scanner.c.obj)
 .bss.m_msg_cache
                0x200034bc      0x100 mesh/core/libmesh_core_nrf52832_xxAA.a(msg_cache.c.obj)
 .bss.m_msg_cache_head
                0x200035bc        0x4 mesh/core/libmesh_core_nrf52832_xxAA.a(msg_cache.c.obj)
 .bss.m_sar_alloc
                0x200035c0        0x4 mesh/core/libmesh_core_nrf52832_xxAA.a(transport.c.obj)
 .bss.m_sar_process_flag
                0x200035c4        0x4 mesh/core/libmesh_core_nrf52832_xxAA.a(transport.c.obj)
 .bss.m_sar_release
                0x200035c8        0x4 mesh/core/libmesh_core_nrf52832_xxAA.a(transport.c.obj)
 .bss.m_sar_session_cache
                0x200035cc       0x40 mesh/core/libmesh_core_nrf52832_xxAA.a(transport.c.obj)
 .bss.m_sar_session_cache_head
                0x2000360c        0x4 mesh/core/libmesh_core_nrf52832_xxAA.a(transport.c.obj)
 .bss.m_trs_config
                0x20003610       0x18 mesh/core/libmesh_core_nrf52832_xxAA.a(transport.c.obj)
 .bss.m_trs_sar_sessions
                0x20003628      0x1b0 mesh/core/libmesh_core_nrf52832_xxAA.a(transport.c.obj)
 .bss.m_defrag  0x200037d8       0x1c mesh/core/libmesh_core_nrf52832_xxAA.a(flash_manager_defrag.c.obj)
 .bss.m_token   0x200037f4        0x2 mesh/core/libmesh_core_nrf52832_xxAA.a(flash_manager_defrag.c.obj)
 *fill*         0x200037f6        0x2 
 .bss.mp_recovery_area
                0x200037f8        0x4 mesh/core/libmesh_core_nrf52832_xxAA.a(flash_manager_defrag.c.obj)
 .bss.p_null_ptr.9934
                0x200037fc        0x4 mesh/core/libmesh_core_nrf52832_xxAA.a(flash_manager_defrag.c.obj)
 .bss.m_pool    0x20003800     0x1000 mesh/core/libmesh_core_nrf52832_xxAA.a(packet_mgr.c.obj)
 .bss.mp_free_head
                0x20004800        0x4 mesh/core/libmesh_core_nrf52832_xxAA.a(packet_mgr.c.obj)
 .bss.m_event_flag
                0x20004804        0x4 mesh/core/libmesh_core_nrf52832_xxAA.a(mesh_flash.c.obj)
 .bss.m_suspended
                0x20004808        0x1 mesh/core/libmesh_core_nrf52832_xxAA.a(mesh_flash.c.obj)
 *fill*         0x20004809        0x3 
 .bss.m_users   0x2000480c      0x228 mesh/core/libmesh_core_nrf52832_xxAA.a(mesh_flash.c.obj)
 .bss.m_128buf  0x20004a34       0x10 mesh/core/libmesh_core_nrf52832_xxAA.a(aes_cmac.c.obj)
 .bss.m_subkey1
                0x20004a44       0x10 mesh/core/libmesh_core_nrf52832_xxAA.a(aes_cmac.c.obj)
 .bss.m_subkey2
                0x20004a54       0x10 mesh/core/libmesh_core_nrf52832_xxAA.a(aes_cmac.c.obj)
 .bss.m_cache_full
                0x20004a64        0x1 mesh/core/libmesh_core_nrf52832_xxAA.a(replay_cache.c.obj)
 .bss.m_cache_index
                0x20004a65        0x1 mesh/core/libmesh_core_nrf52832_xxAA.a(replay_cache.c.obj)
 *fill*         0x20004a66        0x2 
 .bss.m_replay_cache
                0x20004a68      0x200 mesh/core/libmesh_core_nrf52832_xxAA.a(replay_cache.c.obj)
 .bss.m_accepted_amount
                0x20004c68        0x4 mesh/core/libmesh_core_nrf52832_xxAA.a(filter_engine.c.obj)
 .bss.m_filter_list_head
                0x20004c6c        0x4 mesh/core/libmesh_core_nrf52832_xxAA.a(filter_engine.c.obj)
 .bss._acDownBuffer
                0x20004c70       0x80 external/rtt/librtt_nrf52832_xxAA.a(SEGGER_RTT.c.obj)
 .bss._acUpBuffer
                0x20004cf0      0x400 external/rtt/librtt_nrf52832_xxAA.a(SEGGER_RTT.c.obj)
 .bss.__malloc_free_list
                0x200050f0        0x4 c:/a/gcc_arm/6/bin/../lib/gcc/arm-none-eabi/6.3.1/../../../../arm-none-eabi/lib/thumb/v7e-m/fpv4-sp/hard\libg_nano.a(lib_a-nano-mallocr.o)
                0x200050f0                __malloc_free_list
 .bss.__malloc_sbrk_start
                0x200050f4        0x4 c:/a/gcc_arm/6/bin/../lib/gcc/arm-none-eabi/6.3.1/../../../../arm-none-eabi/lib/thumb/v7e-m/fpv4-sp/hard\libg_nano.a(lib_a-nano-mallocr.o)
                0x200050f4                __malloc_sbrk_start
 .bss.heap_end.5239
                0x200050f8        0x4 c:/a/gcc_arm/6/bin/../lib/gcc/arm-none-eabi/6.3.1/../../../../arm-none-eabi/lib/thumb/v7e-m/fpv4-sp/hard\libnosys.a(sbrk.o)
 *(COMMON)
 COMMON         0x200050fc        0xc examples/serial/CMakeFiles/serial_nrf52832_xxAA_s132_3.1.0.dir/__/nrf_mesh_sdk.c.obj
                0x200050fc                nrf_nvic_state
 COMMON         0x20005108        0x4 mesh/core/libmesh_core_nrf52832_xxAA.a(nrf_mesh.c.obj)
                0x20005108                m_assertion_handler
 COMMON         0x2000510c       0x78 external/rtt/librtt_nrf52832_xxAA.a(SEGGER_RTT.c.obj)
                0x2000510c                _SEGGER_RTT
 COMMON         0x20005184        0x4 c:/a/gcc_arm/6/bin/../lib/gcc/arm-none-eabi/6.3.1/../../../../arm-none-eabi/lib/thumb/v7e-m/fpv4-sp/hard\libg_nano.a(lib_a-reent.o)
                0x20005184                errno
                0x20005188                . = ALIGN (0x4)
                0x20005188                __bss_end__ = .

.heap           0x20005188     0x2000
                0x20005188                __HeapBase = .
                0x20005188                __end__ = .
                0x20005188                PROVIDE (end, .)
 *(.heap*)
 .heap          0x20005188     0x2000 examples/serial/CMakeFiles/serial_nrf52832_xxAA_s132_3.1.0.dir/__/__/external/nRF5_SDK_14.0.0_3bcc1f7/components/toolchain/gcc/gcc_startup_nrf52.S.obj
                0x20007188                __HeapLimit = .

.stack_dummy    0x20005188     0x2000
 *(.stack*)
 .stack         0x20005188     0x2000 examples/serial/CMakeFiles/serial_nrf52832_xxAA_s132_3.1.0.dir/__/__/external/nRF5_SDK_14.0.0_3bcc1f7/components/toolchain/gcc/gcc_startup_nrf52.S.obj
                0x20010000                __StackTop = (ORIGIN (RAM) + LENGTH (RAM))
                0x2000e000                __StackLimit = (__StackTop - SIZEOF (.stack_dummy))
                0x20010000                PROVIDE (__stack, __StackTop)
                0x00000001                ASSERT ((__StackLimit >= __HeapLimit), region RAM overflowed with stack)
OUTPUT(examples\serial\serial_nrf52832_xxAA_s132_3.1.0.elf elf32-littlearm)

.ARM.attributes
                0x00000000       0x30
 .ARM.attributes
                0x00000000       0x22 c:/a/gcc_arm/6/bin/../lib/gcc/arm-none-eabi/6.3.1/thumb/v7e-m/fpv4-sp/hard/crti.o
 .ARM.attributes
                0x00000022       0x34 c:/a/gcc_arm/6/bin/../lib/gcc/arm-none-eabi/6.3.1/thumb/v7e-m/fpv4-sp/hard/crtbegin.o
 .ARM.attributes
                0x00000056       0x20 c:/a/gcc_arm/6/bin/../lib/gcc/arm-none-eabi/6.3.1/../../../../arm-none-eabi/lib/thumb/v7e-m/fpv4-sp/hard/crt0.o
 .ARM.attributes
                0x00000076       0x39 examples/serial/CMakeFiles/serial_nrf52832_xxAA_s132_3.1.0.dir/src/main.c.obj
 .ARM.attributes
                0x000000af       0x39 examples/serial/CMakeFiles/serial_nrf52832_xxAA_s132_3.1.0.dir/__/nrf_mesh_sdk.c.obj
 .ARM.attributes
                0x000000e8       0x39 examples/serial/CMakeFiles/serial_nrf52832_xxAA_s132_3.1.0.dir/__/__/mesh/prov/src/prov_provisioner.c.obj
 .ARM.attributes
                0x00000121       0x39 examples/serial/CMakeFiles/serial_nrf52832_xxAA_s132_3.1.0.dir/__/__/mesh/prov/src/prov_provisionee.c.obj
 .ARM.attributes
                0x0000015a       0x39 examples/serial/CMakeFiles/serial_nrf52832_xxAA_s132_3.1.0.dir/__/__/mesh/prov/src/nrf_mesh_prov.c.obj
 .ARM.attributes
                0x00000193       0x39 examples/serial/CMakeFiles/serial_nrf52832_xxAA_s132_3.1.0.dir/__/__/mesh/prov/src/provisioning.c.obj
 .ARM.attributes
                0x000001cc       0x39 examples/serial/CMakeFiles/serial_nrf52832_xxAA_s132_3.1.0.dir/__/__/mesh/prov/src/prov_beacon.c.obj
 .ARM.attributes
                0x00000205       0x39 examples/serial/CMakeFiles/serial_nrf52832_xxAA_s132_3.1.0.dir/__/__/mesh/prov/src/prov_utils.c.obj
 .ARM.attributes
                0x0000023e       0x39 examples/serial/CMakeFiles/serial_nrf52832_xxAA_s132_3.1.0.dir/__/__/mesh/prov/src/prov_bearer_adv.c.obj
 .ARM.attributes
                0x00000277       0x39 examples/serial/CMakeFiles/serial_nrf52832_xxAA_s132_3.1.0.dir/__/__/mesh/access/src/access_publish.c.obj
 .ARM.attributes
                0x000002b0       0x39 examples/serial/CMakeFiles/serial_nrf52832_xxAA_s132_3.1.0.dir/__/__/mesh/access/src/access.c.obj
 .ARM.attributes
                0x000002e9       0x39 examples/serial/CMakeFiles/serial_nrf52832_xxAA_s132_3.1.0.dir/__/__/mesh/access/src/access_reliable.c.obj
 .ARM.attributes
                0x00000322       0x39 examples/serial/CMakeFiles/serial_nrf52832_xxAA_s132_3.1.0.dir/__/__/mesh/access/src/device_state_manager.c.obj
 .ARM.attributes
                0x0000035b       0x39 examples/serial/CMakeFiles/serial_nrf52832_xxAA_s132_3.1.0.dir/__/__/mesh/serial/src/serial_uart.c.obj
 .ARM.attributes
                0x00000394       0x39 examples/serial/CMakeFiles/serial_nrf52832_xxAA_s132_3.1.0.dir/__/__/mesh/serial/src/serial_bearer.c.obj
 .ARM.attributes
                0x000003cd       0x39 examples/serial/CMakeFiles/serial_nrf52832_xxAA_s132_3.1.0.dir/__/__/mesh/serial/src/serial_handler_common.c.obj
 .ARM.attributes
                0x00000406       0x39 examples/serial/CMakeFiles/serial_nrf52832_xxAA_s132_3.1.0.dir/__/__/mesh/serial/src/serial_handler_access.c.obj
 .ARM.attributes
                0x0000043f       0x39 examples/serial/CMakeFiles/serial_nrf52832_xxAA_s132_3.1.0.dir/__/__/mesh/serial/src/serial_handler_config.c.obj
 .ARM.attributes
                0x00000478       0x39 examples/serial/CMakeFiles/serial_nrf52832_xxAA_s132_3.1.0.dir/__/__/mesh/serial/src/serial_handler_openmesh.c.obj
 .ARM.attributes
                0x000004b1       0x39 examples/serial/CMakeFiles/serial_nrf52832_xxAA_s132_3.1.0.dir/__/__/mesh/serial/src/serial.c.obj
 .ARM.attributes
                0x000004ea       0x39 examples/serial/CMakeFiles/serial_nrf52832_xxAA_s132_3.1.0.dir/__/__/mesh/serial/src/serial_handler_prov.c.obj
 .ARM.attributes
                0x00000523       0x39 examples/serial/CMakeFiles/serial_nrf52832_xxAA_s132_3.1.0.dir/__/__/mesh/serial/src/serial_handler_dfu.c.obj
 .ARM.attributes
                0x0000055c       0x39 examples/serial/CMakeFiles/serial_nrf52832_xxAA_s132_3.1.0.dir/__/__/mesh/serial/src/serial_handler_mesh.c.obj
 .ARM.attributes
                0x00000595       0x39 examples/serial/CMakeFiles/serial_nrf52832_xxAA_s132_3.1.0.dir/__/__/mesh/serial/src/serial_handler_models.c.obj
 .ARM.attributes
                0x000005ce       0x39 examples/serial/CMakeFiles/serial_nrf52832_xxAA_s132_3.1.0.dir/__/__/mesh/serial/src/serial_handler_device.c.obj
 .ARM.attributes
                0x00000607       0x39 examples/serial/CMakeFiles/serial_nrf52832_xxAA_s132_3.1.0.dir/__/__/mesh/serial/src/nrf_mesh_serial.c.obj
 .ARM.attributes
                0x00000640       0x39 examples/serial/CMakeFiles/serial_nrf52832_xxAA_s132_3.1.0.dir/__/__/mesh/serial/src/serial_handler_app.c.obj
 .ARM.attributes
                0x00000679       0x39 examples/serial/CMakeFiles/serial_nrf52832_xxAA_s132_3.1.0.dir/__/nrf_mesh_weak.c.obj
 .ARM.attributes
                0x000006b2       0x39 examples/serial/CMakeFiles/serial_nrf52832_xxAA_s132_3.1.0.dir/__/__/external/nRF5_SDK_14.0.0_3bcc1f7/components/toolchain/system_nrf52.c.obj
 .ARM.attributes
                0x000006eb       0x20 examples/serial/CMakeFiles/serial_nrf52832_xxAA_s132_3.1.0.dir/__/__/external/nRF5_SDK_14.0.0_3bcc1f7/components/toolchain/gcc/gcc_startup_nrf52.S.obj
 .ARM.attributes
                0x0000070b       0x39 mesh/core/libmesh_core_nrf52832_xxAA.a(internal_event.c.obj)
 .ARM.attributes
                0x00000744       0x39 mesh/core/libmesh_core_nrf52832_xxAA.a(nrf_mesh_configure.c.obj)
 .ARM.attributes
                0x0000077d       0x39 mesh/core/libmesh_core_nrf52832_xxAA.a(event.c.obj)
 .ARM.attributes
                0x000007b6       0x39 mesh/core/libmesh_core_nrf52832_xxAA.a(packet_buffer.c.obj)
 .ARM.attributes
                0x000007ef       0x39 mesh/core/libmesh_core_nrf52832_xxAA.a(fifo.c.obj)
 .ARM.attributes
                0x00000828       0x39 mesh/core/libmesh_core_nrf52832_xxAA.a(net_state.c.obj)
 .ARM.attributes
                0x00000861       0x39 mesh/core/libmesh_core_nrf52832_xxAA.a(nrf_mesh_utils.c.obj)
 .ARM.attributes
                0x0000089a       0x39 mesh/core/libmesh_core_nrf52832_xxAA.a(nrf_mesh.c.obj)
 .ARM.attributes
                0x000008d3       0x39 mesh/core/libmesh_core_nrf52832_xxAA.a(hal.c.obj)
 .ARM.attributes
                0x0000090c       0x39 mesh/core/libmesh_core_nrf52832_xxAA.a(timer_scheduler.c.obj)
 .ARM.attributes
                0x00000945       0x39 mesh/core/libmesh_core_nrf52832_xxAA.a(timer.c.obj)
 .ARM.attributes
                0x0000097e       0x39 mesh/core/libmesh_core_nrf52832_xxAA.a(ticker.c.obj)
 .ARM.attributes
                0x000009b7       0x39 mesh/core/libmesh_core_nrf52832_xxAA.a(rand.c.obj)
 .ARM.attributes
                0x000009f0       0x39 mesh/core/libmesh_core_nrf52832_xxAA.a(nrf_mesh_opt.c.obj)
 .ARM.attributes
                0x00000a29       0x39 mesh/core/libmesh_core_nrf52832_xxAA.a(timeslot.c.obj)
 .ARM.attributes
                0x00000a62       0x39 mesh/core/libmesh_core_nrf52832_xxAA.a(bearer_event.c.obj)
 .ARM.attributes
                0x00000a9b       0x39 mesh/core/libmesh_core_nrf52832_xxAA.a(enc.c.obj)
 .ARM.attributes
                0x00000ad4       0x39 mesh/core/libmesh_core_nrf52832_xxAA.a(network.c.obj)
 .ARM.attributes
                0x00000b0d       0x39 mesh/core/libmesh_core_nrf52832_xxAA.a(nrf_mesh_keygen.c.obj)
 .ARM.attributes
                0x00000b46       0x39 mesh/core/libmesh_core_nrf52832_xxAA.a(log.c.obj)
 .ARM.attributes
                0x00000b7f       0x39 mesh/core/libmesh_core_nrf52832_xxAA.a(flash_manager.c.obj)
 .ARM.attributes
                0x00000bb8       0x39 mesh/core/libmesh_core_nrf52832_xxAA.a(ccm_soft.c.obj)
 .ARM.attributes
                0x00000bf1       0x39 mesh/core/libmesh_core_nrf52832_xxAA.a(beacon.c.obj)
 .ARM.attributes
                0x00000c2a       0x39 mesh/core/libmesh_core_nrf52832_xxAA.a(flash_manager_internal.c.obj)
 .ARM.attributes
                0x00000c63       0x39 mesh/core/libmesh_core_nrf52832_xxAA.a(core_tx.c.obj)
 .ARM.attributes
                0x00000c9c       0x39 mesh/core/libmesh_core_nrf52832_xxAA.a(net_beacon.c.obj)
 .ARM.attributes
                0x00000cd5       0x39 mesh/core/libmesh_core_nrf52832_xxAA.a(advertiser.c.obj)
 .ARM.attributes
                0x00000d0e       0x39 mesh/core/libmesh_core_nrf52832_xxAA.a(bearer_handler.c.obj)
 .ARM.attributes
                0x00000d47       0x39 mesh/core/libmesh_core_nrf52832_xxAA.a(broadcast.c.obj)
 .ARM.attributes
                0x00000d80       0x39 mesh/core/libmesh_core_nrf52832_xxAA.a(radio_config.c.obj)
 .ARM.attributes
                0x00000db9       0x39 mesh/core/libmesh_core_nrf52832_xxAA.a(scanner.c.obj)
 .ARM.attributes
                0x00000df2       0x39 mesh/core/libmesh_core_nrf52832_xxAA.a(aes.c.obj)
 .ARM.attributes
                0x00000e2b       0x39 mesh/core/libmesh_core_nrf52832_xxAA.a(msg_cache.c.obj)
 .ARM.attributes
                0x00000e64       0x39 mesh/core/libmesh_core_nrf52832_xxAA.a(transport.c.obj)
 .ARM.attributes
                0x00000e9d       0x39 mesh/core/libmesh_core_nrf52832_xxAA.a(flash_manager_defrag.c.obj)
 .ARM.attributes
                0x00000ed6       0x39 mesh/core/libmesh_core_nrf52832_xxAA.a(packet_mgr.c.obj)
 .ARM.attributes
                0x00000f0f       0x39 mesh/core/libmesh_core_nrf52832_xxAA.a(mesh_flash.c.obj)
 .ARM.attributes
                0x00000f48       0x39 mesh/core/libmesh_core_nrf52832_xxAA.a(queue.c.obj)
 .ARM.attributes
                0x00000f81       0x39 mesh/core/libmesh_core_nrf52832_xxAA.a(aes_cmac.c.obj)
 .ARM.attributes
                0x00000fba       0x39 mesh/core/libmesh_core_nrf52832_xxAA.a(msqueue.c.obj)
 .ARM.attributes
                0x00000ff3       0x39 mesh/core/libmesh_core_nrf52832_xxAA.a(replay_cache.c.obj)
 .ARM.attributes
                0x0000102c       0x39 mesh/core/libmesh_core_nrf52832_xxAA.a(filter_engine.c.obj)
 .ARM.attributes
                0x00001065       0x39 mesh/core/libmesh_core_nrf52832_xxAA.a(nrf_flash.c.obj)
 .ARM.attributes
                0x0000109e       0x39 external/micro-ecc/libuECC_nrf52832_xxAA.a(uECC.c.obj)
 .ARM.attributes
                0x000010d7       0x39 external/rtt/librtt_nrf52832_xxAA.a(SEGGER_RTT.c.obj)
 .ARM.attributes
                0x00001110       0x39 external/rtt/librtt_nrf52832_xxAA.a(SEGGER_RTT_printf.c.obj)
 .ARM.attributes
                0x00001149       0x34 c:/a/gcc_arm/6/bin/../lib/gcc/arm-none-eabi/6.3.1/../../../../arm-none-eabi/lib/thumb/v7e-m/fpv4-sp/hard\libg_nano.a(lib_a-exit.o)
 .ARM.attributes
                0x0000117d       0x34 c:/a/gcc_arm/6/bin/../lib/gcc/arm-none-eabi/6.3.1/../../../../arm-none-eabi/lib/thumb/v7e-m/fpv4-sp/hard\libg_nano.a(lib_a-impure.o)
 .ARM.attributes
                0x000011b1       0x34 c:/a/gcc_arm/6/bin/../lib/gcc/arm-none-eabi/6.3.1/../../../../arm-none-eabi/lib/thumb/v7e-m/fpv4-sp/hard\libg_nano.a(lib_a-init.o)
 .ARM.attributes
                0x000011e5       0x34 c:/a/gcc_arm/6/bin/../lib/gcc/arm-none-eabi/6.3.1/../../../../arm-none-eabi/lib/thumb/v7e-m/fpv4-sp/hard\libg_nano.a(lib_a-malloc.o)
 .ARM.attributes
                0x00001219       0x34 c:/a/gcc_arm/6/bin/../lib/gcc/arm-none-eabi/6.3.1/../../../../arm-none-eabi/lib/thumb/v7e-m/fpv4-sp/hard\libg_nano.a(lib_a-memcmp.o)
 .ARM.attributes
                0x0000124d       0x34 c:/a/gcc_arm/6/bin/../lib/gcc/arm-none-eabi/6.3.1/../../../../arm-none-eabi/lib/thumb/v7e-m/fpv4-sp/hard\libg_nano.a(lib_a-memcpy-stub.o)
 .ARM.attributes
                0x00001281       0x34 c:/a/gcc_arm/6/bin/../lib/gcc/arm-none-eabi/6.3.1/../../../../arm-none-eabi/lib/thumb/v7e-m/fpv4-sp/hard\libg_nano.a(lib_a-memset.o)
 .ARM.attributes
                0x000012b5       0x34 c:/a/gcc_arm/6/bin/../lib/gcc/arm-none-eabi/6.3.1/../../../../arm-none-eabi/lib/thumb/v7e-m/fpv4-sp/hard\libg_nano.a(lib_a-nano-freer.o)
 .ARM.attributes
                0x000012e9       0x34 c:/a/gcc_arm/6/bin/../lib/gcc/arm-none-eabi/6.3.1/../../../../arm-none-eabi/lib/thumb/v7e-m/fpv4-sp/hard\libg_nano.a(lib_a-nano-mallocr.o)
 .ARM.attributes
                0x0000131d       0x34 c:/a/gcc_arm/6/bin/../lib/gcc/arm-none-eabi/6.3.1/../../../../arm-none-eabi/lib/thumb/v7e-m/fpv4-sp/hard\libg_nano.a(lib_a-sbrkr.o)
 .ARM.attributes
                0x00001351       0x34 c:/a/gcc_arm/6/bin/../lib/gcc/arm-none-eabi/6.3.1/../../../../arm-none-eabi/lib/thumb/v7e-m/fpv4-sp/hard\libg_nano.a(lib_a-strcpy.o)
 .ARM.attributes
                0x00001385       0x1b c:/a/gcc_arm/6/bin/../lib/gcc/arm-none-eabi/6.3.1/../../../../arm-none-eabi/lib/thumb/v7e-m/fpv4-sp/hard\libg_nano.a(lib_a-strlen.o)
 .ARM.attributes
                0x000013a0       0x34 c:/a/gcc_arm/6/bin/../lib/gcc/arm-none-eabi/6.3.1/../../../../arm-none-eabi/lib/thumb/v7e-m/fpv4-sp/hard\libg_nano.a(lib_a-strrchr.o)
 .ARM.attributes
                0x000013d4       0x34 c:/a/gcc_arm/6/bin/../lib/gcc/arm-none-eabi/6.3.1/../../../../arm-none-eabi/lib/thumb/v7e-m/fpv4-sp/hard\libg_nano.a(lib_a-mlock.o)
 .ARM.attributes
                0x00001408       0x34 c:/a/gcc_arm/6/bin/../lib/gcc/arm-none-eabi/6.3.1/../../../../arm-none-eabi/lib/thumb/v7e-m/fpv4-sp/hard\libg_nano.a(lib_a-reent.o)
 .ARM.attributes
                0x0000143c       0x34 c:/a/gcc_arm/6/bin/../lib/gcc/arm-none-eabi/6.3.1/../../../../arm-none-eabi/lib/thumb/v7e-m/fpv4-sp/hard\libg_nano.a(lib_a-strchr.o)
 .ARM.attributes
                0x00001470       0x34 c:/a/gcc_arm/6/bin/../lib/gcc/arm-none-eabi/6.3.1/thumb/v7e-m/fpv4-sp/hard/crtend.o
 .ARM.attributes
                0x000014a4       0x22 c:/a/gcc_arm/6/bin/../lib/gcc/arm-none-eabi/6.3.1/thumb/v7e-m/fpv4-sp/hard/crtn.o
 .ARM.attributes
                0x000014c6       0x34 c:/a/gcc_arm/6/bin/../lib/gcc/arm-none-eabi/6.3.1/../../../../arm-none-eabi/lib/thumb/v7e-m/fpv4-sp/hard\libnosys.a(sbrk.o)
 .ARM.attributes
                0x000014fa       0x34 c:/a/gcc_arm/6/bin/../lib/gcc/arm-none-eabi/6.3.1/../../../../arm-none-eabi/lib/thumb/v7e-m/fpv4-sp/hard\libnosys.a(_exit.o)

.comment        0x00000000       0x7f
 .comment       0x00000000       0x7f examples/serial/CMakeFiles/serial_nrf52832_xxAA_s132_3.1.0.dir/src/main.c.obj
                                 0x80 (size before relaxing)
 .comment       0x0000007f       0x80 examples/serial/CMakeFiles/serial_nrf52832_xxAA_s132_3.1.0.dir/__/nrf_mesh_sdk.c.obj
 .comment       0x0000007f       0x80 examples/serial/CMakeFiles/serial_nrf52832_xxAA_s132_3.1.0.dir/__/__/mesh/prov/src/prov_provisioner.c.obj
 .comment       0x0000007f       0x80 examples/serial/CMakeFiles/serial_nrf52832_xxAA_s132_3.1.0.dir/__/__/mesh/prov/src/prov_provisionee.c.obj
 .comment       0x0000007f       0x80 examples/serial/CMakeFiles/serial_nrf52832_xxAA_s132_3.1.0.dir/__/__/mesh/prov/src/nrf_mesh_prov.c.obj
 .comment       0x0000007f       0x80 examples/serial/CMakeFiles/serial_nrf52832_xxAA_s132_3.1.0.dir/__/__/mesh/prov/src/provisioning.c.obj
 .comment       0x0000007f       0x80 examples/serial/CMakeFiles/serial_nrf52832_xxAA_s132_3.1.0.dir/__/__/mesh/prov/src/prov_beacon.c.obj
 .comment       0x0000007f       0x80 examples/serial/CMakeFiles/serial_nrf52832_xxAA_s132_3.1.0.dir/__/__/mesh/prov/src/prov_utils.c.obj
 .comment       0x0000007f       0x80 examples/serial/CMakeFiles/serial_nrf52832_xxAA_s132_3.1.0.dir/__/__/mesh/prov/src/prov_bearer_adv.c.obj
 .comment       0x0000007f       0x80 examples/serial/CMakeFiles/serial_nrf52832_xxAA_s132_3.1.0.dir/__/__/mesh/access/src/access_publish.c.obj
 .comment       0x0000007f       0x80 examples/serial/CMakeFiles/serial_nrf52832_xxAA_s132_3.1.0.dir/__/__/mesh/access/src/access.c.obj
 .comment       0x0000007f       0x80 examples/serial/CMakeFiles/serial_nrf52832_xxAA_s132_3.1.0.dir/__/__/mesh/access/src/access_reliable.c.obj
 .comment       0x0000007f       0x80 examples/serial/CMakeFiles/serial_nrf52832_xxAA_s132_3.1.0.dir/__/__/mesh/access/src/device_state_manager.c.obj
 .comment       0x0000007f       0x80 examples/serial/CMakeFiles/serial_nrf52832_xxAA_s132_3.1.0.dir/__/__/mesh/serial/src/serial_uart.c.obj
 .comment       0x0000007f       0x80 examples/serial/CMakeFiles/serial_nrf52832_xxAA_s132_3.1.0.dir/__/__/mesh/serial/src/serial_bearer.c.obj
 .comment       0x0000007f       0x80 examples/serial/CMakeFiles/serial_nrf52832_xxAA_s132_3.1.0.dir/__/__/mesh/serial/src/serial_handler_common.c.obj
 .comment       0x0000007f       0x80 examples/serial/CMakeFiles/serial_nrf52832_xxAA_s132_3.1.0.dir/__/__/mesh/serial/src/serial_handler_access.c.obj
 .comment       0x0000007f       0x80 examples/serial/CMakeFiles/serial_nrf52832_xxAA_s132_3.1.0.dir/__/__/mesh/serial/src/serial_handler_config.c.obj
 .comment       0x0000007f       0x80 examples/serial/CMakeFiles/serial_nrf52832_xxAA_s132_3.1.0.dir/__/__/mesh/serial/src/serial_handler_openmesh.c.obj
 .comment       0x0000007f       0x80 examples/serial/CMakeFiles/serial_nrf52832_xxAA_s132_3.1.0.dir/__/__/mesh/serial/src/serial.c.obj
 .comment       0x0000007f       0x80 examples/serial/CMakeFiles/serial_nrf52832_xxAA_s132_3.1.0.dir/__/__/mesh/serial/src/serial_handler_prov.c.obj
 .comment       0x0000007f       0x80 examples/serial/CMakeFiles/serial_nrf52832_xxAA_s132_3.1.0.dir/__/__/mesh/serial/src/serial_handler_dfu.c.obj
 .comment       0x0000007f       0x80 examples/serial/CMakeFiles/serial_nrf52832_xxAA_s132_3.1.0.dir/__/__/mesh/serial/src/serial_handler_mesh.c.obj
 .comment       0x0000007f       0x80 examples/serial/CMakeFiles/serial_nrf52832_xxAA_s132_3.1.0.dir/__/__/mesh/serial/src/serial_handler_models.c.obj
 .comment       0x0000007f       0x80 examples/serial/CMakeFiles/serial_nrf52832_xxAA_s132_3.1.0.dir/__/__/mesh/serial/src/serial_handler_device.c.obj
 .comment       0x0000007f       0x80 examples/serial/CMakeFiles/serial_nrf52832_xxAA_s132_3.1.0.dir/__/__/mesh/serial/src/nrf_mesh_serial.c.obj
 .comment       0x0000007f       0x80 examples/serial/CMakeFiles/serial_nrf52832_xxAA_s132_3.1.0.dir/__/__/mesh/serial/src/serial_handler_app.c.obj
 .comment       0x0000007f       0x80 examples/serial/CMakeFiles/serial_nrf52832_xxAA_s132_3.1.0.dir/__/nrf_mesh_weak.c.obj
 .comment       0x0000007f       0x80 examples/serial/CMakeFiles/serial_nrf52832_xxAA_s132_3.1.0.dir/__/__/external/nRF5_SDK_14.0.0_3bcc1f7/components/toolchain/system_nrf52.c.obj
 .comment       0x0000007f       0x80 mesh/core/libmesh_core_nrf52832_xxAA.a(internal_event.c.obj)
 .comment       0x0000007f       0x80 mesh/core/libmesh_core_nrf52832_xxAA.a(nrf_mesh_configure.c.obj)
 .comment       0x0000007f       0x80 mesh/core/libmesh_core_nrf52832_xxAA.a(event.c.obj)
 .comment       0x0000007f       0x80 mesh/core/libmesh_core_nrf52832_xxAA.a(packet_buffer.c.obj)
 .comment       0x0000007f       0x80 mesh/core/libmesh_core_nrf52832_xxAA.a(fifo.c.obj)
 .comment       0x0000007f       0x80 mesh/core/libmesh_core_nrf52832_xxAA.a(net_state.c.obj)
 .comment       0x0000007f       0x80 mesh/core/libmesh_core_nrf52832_xxAA.a(nrf_mesh_utils.c.obj)
 .comment       0x0000007f       0x80 mesh/core/libmesh_core_nrf52832_xxAA.a(nrf_mesh.c.obj)
 .comment       0x0000007f       0x80 mesh/core/libmesh_core_nrf52832_xxAA.a(hal.c.obj)
 .comment       0x0000007f       0x80 mesh/core/libmesh_core_nrf52832_xxAA.a(timer_scheduler.c.obj)
 .comment       0x0000007f       0x80 mesh/core/libmesh_core_nrf52832_xxAA.a(timer.c.obj)
 .comment       0x0000007f       0x80 mesh/core/libmesh_core_nrf52832_xxAA.a(ticker.c.obj)
 .comment       0x0000007f       0x80 mesh/core/libmesh_core_nrf52832_xxAA.a(rand.c.obj)
 .comment       0x0000007f       0x80 mesh/core/libmesh_core_nrf52832_xxAA.a(nrf_mesh_opt.c.obj)
 .comment       0x0000007f       0x80 mesh/core/libmesh_core_nrf52832_xxAA.a(timeslot.c.obj)
 .comment       0x0000007f       0x80 mesh/core/libmesh_core_nrf52832_xxAA.a(bearer_event.c.obj)
 .comment       0x0000007f       0x80 mesh/core/libmesh_core_nrf52832_xxAA.a(enc.c.obj)
 .comment       0x0000007f       0x80 mesh/core/libmesh_core_nrf52832_xxAA.a(network.c.obj)
 .comment       0x0000007f       0x80 mesh/core/libmesh_core_nrf52832_xxAA.a(nrf_mesh_keygen.c.obj)
 .comment       0x0000007f       0x80 mesh/core/libmesh_core_nrf52832_xxAA.a(log.c.obj)
 .comment       0x0000007f       0x80 mesh/core/libmesh_core_nrf52832_xxAA.a(flash_manager.c.obj)
 .comment       0x0000007f       0x80 mesh/core/libmesh_core_nrf52832_xxAA.a(ccm_soft.c.obj)
 .comment       0x0000007f       0x80 mesh/core/libmesh_core_nrf52832_xxAA.a(beacon.c.obj)
 .comment       0x0000007f       0x80 mesh/core/libmesh_core_nrf52832_xxAA.a(flash_manager_internal.c.obj)
 .comment       0x0000007f       0x80 mesh/core/libmesh_core_nrf52832_xxAA.a(core_tx.c.obj)
 .comment       0x0000007f       0x80 mesh/core/libmesh_core_nrf52832_xxAA.a(net_beacon.c.obj)
 .comment       0x0000007f       0x80 mesh/core/libmesh_core_nrf52832_xxAA.a(advertiser.c.obj)
 .comment       0x0000007f       0x80 mesh/core/libmesh_core_nrf52832_xxAA.a(bearer_handler.c.obj)
 .comment       0x0000007f       0x80 mesh/core/libmesh_core_nrf52832_xxAA.a(broadcast.c.obj)
 .comment       0x0000007f       0x80 mesh/core/libmesh_core_nrf52832_xxAA.a(radio_config.c.obj)
 .comment       0x0000007f       0x80 mesh/core/libmesh_core_nrf52832_xxAA.a(scanner.c.obj)
 .comment       0x0000007f       0x80 mesh/core/libmesh_core_nrf52832_xxAA.a(aes.c.obj)
 .comment       0x0000007f       0x80 mesh/core/libmesh_core_nrf52832_xxAA.a(msg_cache.c.obj)
 .comment       0x0000007f       0x80 mesh/core/libmesh_core_nrf52832_xxAA.a(transport.c.obj)
 .comment       0x0000007f       0x80 mesh/core/libmesh_core_nrf52832_xxAA.a(flash_manager_defrag.c.obj)
 .comment       0x0000007f       0x80 mesh/core/libmesh_core_nrf52832_xxAA.a(packet_mgr.c.obj)
 .comment       0x0000007f       0x80 mesh/core/libmesh_core_nrf52832_xxAA.a(mesh_flash.c.obj)
 .comment       0x0000007f       0x80 mesh/core/libmesh_core_nrf52832_xxAA.a(queue.c.obj)
 .comment       0x0000007f       0x80 mesh/core/libmesh_core_nrf52832_xxAA.a(aes_cmac.c.obj)
 .comment       0x0000007f       0x80 mesh/core/libmesh_core_nrf52832_xxAA.a(msqueue.c.obj)
 .comment       0x0000007f       0x80 mesh/core/libmesh_core_nrf52832_xxAA.a(replay_cache.c.obj)
 .comment       0x0000007f       0x80 mesh/core/libmesh_core_nrf52832_xxAA.a(filter_engine.c.obj)
 .comment       0x0000007f       0x80 mesh/core/libmesh_core_nrf52832_xxAA.a(nrf_flash.c.obj)
 .comment       0x0000007f       0x80 external/micro-ecc/libuECC_nrf52832_xxAA.a(uECC.c.obj)
 .comment       0x0000007f       0x80 external/rtt/librtt_nrf52832_xxAA.a(SEGGER_RTT.c.obj)
 .comment       0x0000007f       0x80 external/rtt/librtt_nrf52832_xxAA.a(SEGGER_RTT_printf.c.obj)

.debug_info     0x00000000    0x9e0ab
 .debug_info    0x00000000     0x11e3 examples/serial/CMakeFiles/serial_nrf52832_xxAA_s132_3.1.0.dir/src/main.c.obj
 .debug_info    0x000011e3     0x36af examples/serial/CMakeFiles/serial_nrf52832_xxAA_s132_3.1.0.dir/__/nrf_mesh_sdk.c.obj
 .debug_info    0x00004892     0x3535 examples/serial/CMakeFiles/serial_nrf52832_xxAA_s132_3.1.0.dir/__/__/mesh/prov/src/prov_provisioner.c.obj
 .debug_info    0x00007dc7     0x3928 examples/serial/CMakeFiles/serial_nrf52832_xxAA_s132_3.1.0.dir/__/__/mesh/prov/src/prov_provisionee.c.obj
 .debug_info    0x0000b6ef     0x1cd6 examples/serial/CMakeFiles/serial_nrf52832_xxAA_s132_3.1.0.dir/__/__/mesh/prov/src/nrf_mesh_prov.c.obj
 .debug_info    0x0000d3c5     0x252b examples/serial/CMakeFiles/serial_nrf52832_xxAA_s132_3.1.0.dir/__/__/mesh/prov/src/provisioning.c.obj
 .debug_info    0x0000f8f0     0x2042 examples/serial/CMakeFiles/serial_nrf52832_xxAA_s132_3.1.0.dir/__/__/mesh/prov/src/prov_beacon.c.obj
 .debug_info    0x00011932     0x2311 examples/serial/CMakeFiles/serial_nrf52832_xxAA_s132_3.1.0.dir/__/__/mesh/prov/src/prov_utils.c.obj
 .debug_info    0x00013c43     0x46a1 examples/serial/CMakeFiles/serial_nrf52832_xxAA_s132_3.1.0.dir/__/__/mesh/prov/src/prov_bearer_adv.c.obj
 .debug_info    0x000182e4     0x11ad examples/serial/CMakeFiles/serial_nrf52832_xxAA_s132_3.1.0.dir/__/__/mesh/access/src/access_publish.c.obj
 .debug_info    0x00019491     0x5030 examples/serial/CMakeFiles/serial_nrf52832_xxAA_s132_3.1.0.dir/__/__/mesh/access/src/access.c.obj
 .debug_info    0x0001e4c1     0x1534 examples/serial/CMakeFiles/serial_nrf52832_xxAA_s132_3.1.0.dir/__/__/mesh/access/src/access_reliable.c.obj
 .debug_info    0x0001f9f5     0x7939 examples/serial/CMakeFiles/serial_nrf52832_xxAA_s132_3.1.0.dir/__/__/mesh/access/src/device_state_manager.c.obj
 .debug_info    0x0002732e     0x127e examples/serial/CMakeFiles/serial_nrf52832_xxAA_s132_3.1.0.dir/__/__/mesh/serial/src/serial_uart.c.obj
 .debug_info    0x000285ac     0x37e2 examples/serial/CMakeFiles/serial_nrf52832_xxAA_s132_3.1.0.dir/__/__/mesh/serial/src/serial_bearer.c.obj
 .debug_info    0x0002bd8e     0x28e3 examples/serial/CMakeFiles/serial_nrf52832_xxAA_s132_3.1.0.dir/__/__/mesh/serial/src/serial_handler_common.c.obj
 .debug_info    0x0002e671     0x3328 examples/serial/CMakeFiles/serial_nrf52832_xxAA_s132_3.1.0.dir/__/__/mesh/serial/src/serial_handler_access.c.obj
 .debug_info    0x00031999     0x2962 examples/serial/CMakeFiles/serial_nrf52832_xxAA_s132_3.1.0.dir/__/__/mesh/serial/src/serial_handler_config.c.obj
 .debug_info    0x000342fb     0x27d3 examples/serial/CMakeFiles/serial_nrf52832_xxAA_s132_3.1.0.dir/__/__/mesh/serial/src/serial_handler_openmesh.c.obj
 .debug_info    0x00036ace     0x3512 examples/serial/CMakeFiles/serial_nrf52832_xxAA_s132_3.1.0.dir/__/__/mesh/serial/src/serial.c.obj
 .debug_info    0x00039fe0     0x43b8 examples/serial/CMakeFiles/serial_nrf52832_xxAA_s132_3.1.0.dir/__/__/mesh/serial/src/serial_handler_prov.c.obj
 .debug_info    0x0003e398     0x3acc examples/serial/CMakeFiles/serial_nrf52832_xxAA_s132_3.1.0.dir/__/__/mesh/serial/src/serial_handler_dfu.c.obj
 .debug_info    0x00041e64     0x4718 examples/serial/CMakeFiles/serial_nrf52832_xxAA_s132_3.1.0.dir/__/__/mesh/serial/src/serial_handler_mesh.c.obj
 .debug_info    0x0004657c     0x2cda examples/serial/CMakeFiles/serial_nrf52832_xxAA_s132_3.1.0.dir/__/__/mesh/serial/src/serial_handler_models.c.obj
 .debug_info    0x00049256     0x35e0 examples/serial/CMakeFiles/serial_nrf52832_xxAA_s132_3.1.0.dir/__/__/mesh/serial/src/serial_handler_device.c.obj
 .debug_info    0x0004c836     0x295c examples/serial/CMakeFiles/serial_nrf52832_xxAA_s132_3.1.0.dir/__/__/mesh/serial/src/nrf_mesh_serial.c.obj
 .debug_info    0x0004f192     0x27f1 examples/serial/CMakeFiles/serial_nrf52832_xxAA_s132_3.1.0.dir/__/__/mesh/serial/src/serial_handler_app.c.obj
 .debug_info    0x00051983      0x94b examples/serial/CMakeFiles/serial_nrf52832_xxAA_s132_3.1.0.dir/__/nrf_mesh_weak.c.obj
 .debug_info    0x000522ce     0x1101 examples/serial/CMakeFiles/serial_nrf52832_xxAA_s132_3.1.0.dir/__/__/external/nRF5_SDK_14.0.0_3bcc1f7/components/toolchain/system_nrf52.c.obj
 .debug_info    0x000533cf       0x91 examples/serial/CMakeFiles/serial_nrf52832_xxAA_s132_3.1.0.dir/__/__/external/nRF5_SDK_14.0.0_3bcc1f7/components/toolchain/gcc/gcc_startup_nrf52.S.obj
 .debug_info    0x00053460      0xc44 mesh/core/libmesh_core_nrf52832_xxAA.a(internal_event.c.obj)
 .debug_info    0x000540a4      0xd04 mesh/core/libmesh_core_nrf52832_xxAA.a(nrf_mesh_configure.c.obj)
 .debug_info    0x00054da8     0x120d mesh/core/libmesh_core_nrf52832_xxAA.a(event.c.obj)
 .debug_info    0x00055fb5     0x2165 mesh/core/libmesh_core_nrf52832_xxAA.a(packet_buffer.c.obj)
 .debug_info    0x0005811a      0xdb8 mesh/core/libmesh_core_nrf52832_xxAA.a(fifo.c.obj)
 .debug_info    0x00058ed2     0x2e2c mesh/core/libmesh_core_nrf52832_xxAA.a(net_state.c.obj)
 .debug_info    0x0005bcfe      0xa8b mesh/core/libmesh_core_nrf52832_xxAA.a(nrf_mesh_utils.c.obj)
 .debug_info    0x0005c789     0x36a4 mesh/core/libmesh_core_nrf52832_xxAA.a(nrf_mesh.c.obj)
 .debug_info    0x0005fe2d      0x570 mesh/core/libmesh_core_nrf52832_xxAA.a(hal.c.obj)
 .debug_info    0x0006039d     0x11b6 mesh/core/libmesh_core_nrf52832_xxAA.a(timer_scheduler.c.obj)
 .debug_info    0x00061553      0xddb mesh/core/libmesh_core_nrf52832_xxAA.a(timer.c.obj)
 .debug_info    0x0006232e      0x20b mesh/core/libmesh_core_nrf52832_xxAA.a(ticker.c.obj)
 .debug_info    0x00062539      0x4b9 mesh/core/libmesh_core_nrf52832_xxAA.a(rand.c.obj)
 .debug_info    0x000629f2      0xaf4 mesh/core/libmesh_core_nrf52832_xxAA.a(nrf_mesh_opt.c.obj)
 .debug_info    0x000634e6     0x1bf1 mesh/core/libmesh_core_nrf52832_xxAA.a(timeslot.c.obj)
 .debug_info    0x000650d7     0x1a08 mesh/core/libmesh_core_nrf52832_xxAA.a(bearer_event.c.obj)
 .debug_info    0x00066adf     0x178f mesh/core/libmesh_core_nrf52832_xxAA.a(enc.c.obj)
 .debug_info    0x0006826e     0x2df2 mesh/core/libmesh_core_nrf52832_xxAA.a(network.c.obj)
 .debug_info    0x0006b060      0x4c4 mesh/core/libmesh_core_nrf52832_xxAA.a(nrf_mesh_keygen.c.obj)
 .debug_info    0x0006b524      0xe92 mesh/core/libmesh_core_nrf52832_xxAA.a(log.c.obj)
 .debug_info    0x0006c3b6     0x3cc6 mesh/core/libmesh_core_nrf52832_xxAA.a(flash_manager.c.obj)
 .debug_info    0x0007007c     0x120f mesh/core/libmesh_core_nrf52832_xxAA.a(ccm_soft.c.obj)
 .debug_info    0x0007128b     0x199d mesh/core/libmesh_core_nrf52832_xxAA.a(beacon.c.obj)
 .debug_info    0x00072c28      0xb99 mesh/core/libmesh_core_nrf52832_xxAA.a(flash_manager_internal.c.obj)
 .debug_info    0x000737c1     0x189d mesh/core/libmesh_core_nrf52832_xxAA.a(core_tx.c.obj)
 .debug_info    0x0007505e     0x1394 mesh/core/libmesh_core_nrf52832_xxAA.a(net_beacon.c.obj)
 .debug_info    0x000763f2     0x2725 mesh/core/libmesh_core_nrf52832_xxAA.a(advertiser.c.obj)
 .debug_info    0x00078b17     0x1955 mesh/core/libmesh_core_nrf52832_xxAA.a(bearer_handler.c.obj)
 .debug_info    0x0007a46c     0x1964 mesh/core/libmesh_core_nrf52832_xxAA.a(broadcast.c.obj)
 .debug_info    0x0007bdd0      0x86d mesh/core/libmesh_core_nrf52832_xxAA.a(radio_config.c.obj)
 .debug_info    0x0007c63d     0x2a9b mesh/core/libmesh_core_nrf52832_xxAA.a(scanner.c.obj)
 .debug_info    0x0007f0d8      0xbcc mesh/core/libmesh_core_nrf52832_xxAA.a(aes.c.obj)
 .debug_info    0x0007fca4      0xa58 mesh/core/libmesh_core_nrf52832_xxAA.a(msg_cache.c.obj)
 .debug_info    0x000806fc     0x5fd2 mesh/core/libmesh_core_nrf52832_xxAA.a(transport.c.obj)
 .debug_info    0x000866ce     0x2686 mesh/core/libmesh_core_nrf52832_xxAA.a(flash_manager_defrag.c.obj)
 .debug_info    0x00088d54     0x114c mesh/core/libmesh_core_nrf52832_xxAA.a(packet_mgr.c.obj)
 .debug_info    0x00089ea0     0x18ac mesh/core/libmesh_core_nrf52832_xxAA.a(mesh_flash.c.obj)
 .debug_info    0x0008b74c      0xaf2 mesh/core/libmesh_core_nrf52832_xxAA.a(queue.c.obj)
 .debug_info    0x0008c23e      0xe97 mesh/core/libmesh_core_nrf52832_xxAA.a(aes_cmac.c.obj)
 .debug_info    0x0008d0d5      0xdd4 mesh/core/libmesh_core_nrf52832_xxAA.a(msqueue.c.obj)
 .debug_info    0x0008dea9      0xad9 mesh/core/libmesh_core_nrf52832_xxAA.a(replay_cache.c.obj)
 .debug_info    0x0008e982      0xdfe mesh/core/libmesh_core_nrf52832_xxAA.a(filter_engine.c.obj)
 .debug_info    0x0008f780      0xb66 mesh/core/libmesh_core_nrf52832_xxAA.a(nrf_flash.c.obj)
 .debug_info    0x000902e6     0xa180 external/micro-ecc/libuECC_nrf52832_xxAA.a(uECC.c.obj)
 .debug_info    0x0009a466     0x2b23 external/rtt/librtt_nrf52832_xxAA.a(SEGGER_RTT.c.obj)
 .debug_info    0x0009cf89     0x1122 external/rtt/librtt_nrf52832_xxAA.a(SEGGER_RTT_printf.c.obj)

.debug_abbrev   0x00000000    0x1077b
 .debug_abbrev  0x00000000      0x32c examples/serial/CMakeFiles/serial_nrf52832_xxAA_s132_3.1.0.dir/src/main.c.obj
 .debug_abbrev  0x0000032c      0x4ab examples/serial/CMakeFiles/serial_nrf52832_xxAA_s132_3.1.0.dir/__/nrf_mesh_sdk.c.obj
 .debug_abbrev  0x000007d7      0x430 examples/serial/CMakeFiles/serial_nrf52832_xxAA_s132_3.1.0.dir/__/__/mesh/prov/src/prov_provisioner.c.obj
 .debug_abbrev  0x00000c07      0x491 examples/serial/CMakeFiles/serial_nrf52832_xxAA_s132_3.1.0.dir/__/__/mesh/prov/src/prov_provisionee.c.obj
 .debug_abbrev  0x00001098      0x2ec examples/serial/CMakeFiles/serial_nrf52832_xxAA_s132_3.1.0.dir/__/__/mesh/prov/src/nrf_mesh_prov.c.obj
 .debug_abbrev  0x00001384      0x39e examples/serial/CMakeFiles/serial_nrf52832_xxAA_s132_3.1.0.dir/__/__/mesh/prov/src/provisioning.c.obj
 .debug_abbrev  0x00001722      0x329 examples/serial/CMakeFiles/serial_nrf52832_xxAA_s132_3.1.0.dir/__/__/mesh/prov/src/prov_beacon.c.obj
 .debug_abbrev  0x00001a4b      0x3fe examples/serial/CMakeFiles/serial_nrf52832_xxAA_s132_3.1.0.dir/__/__/mesh/prov/src/prov_utils.c.obj
 .debug_abbrev  0x00001e49      0x52b examples/serial/CMakeFiles/serial_nrf52832_xxAA_s132_3.1.0.dir/__/__/mesh/prov/src/prov_bearer_adv.c.obj
 .debug_abbrev  0x00002374      0x43f examples/serial/CMakeFiles/serial_nrf52832_xxAA_s132_3.1.0.dir/__/__/mesh/access/src/access_publish.c.obj
 .debug_abbrev  0x000027b3      0x675 examples/serial/CMakeFiles/serial_nrf52832_xxAA_s132_3.1.0.dir/__/__/mesh/access/src/access.c.obj
 .debug_abbrev  0x00002e28      0x43c examples/serial/CMakeFiles/serial_nrf52832_xxAA_s132_3.1.0.dir/__/__/mesh/access/src/access_reliable.c.obj
 .debug_abbrev  0x00003264      0x5b8 examples/serial/CMakeFiles/serial_nrf52832_xxAA_s132_3.1.0.dir/__/__/mesh/access/src/device_state_manager.c.obj
 .debug_abbrev  0x0000381c      0x2d9 examples/serial/CMakeFiles/serial_nrf52832_xxAA_s132_3.1.0.dir/__/__/mesh/serial/src/serial_uart.c.obj
 .debug_abbrev  0x00003af5      0x4cf examples/serial/CMakeFiles/serial_nrf52832_xxAA_s132_3.1.0.dir/__/__/mesh/serial/src/serial_bearer.c.obj
 .debug_abbrev  0x00003fc4      0x25f examples/serial/CMakeFiles/serial_nrf52832_xxAA_s132_3.1.0.dir/__/__/mesh/serial/src/serial_handler_common.c.obj
 .debug_abbrev  0x00004223      0x2cb examples/serial/CMakeFiles/serial_nrf52832_xxAA_s132_3.1.0.dir/__/__/mesh/serial/src/serial_handler_access.c.obj
 .debug_abbrev  0x000044ee      0x28f examples/serial/CMakeFiles/serial_nrf52832_xxAA_s132_3.1.0.dir/__/__/mesh/serial/src/serial_handler_config.c.obj
 .debug_abbrev  0x0000477d      0x243 examples/serial/CMakeFiles/serial_nrf52832_xxAA_s132_3.1.0.dir/__/__/mesh/serial/src/serial_handler_openmesh.c.obj
 .debug_abbrev  0x000049c0      0x48c examples/serial/CMakeFiles/serial_nrf52832_xxAA_s132_3.1.0.dir/__/__/mesh/serial/src/serial.c.obj
 .debug_abbrev  0x00004e4c      0x447 examples/serial/CMakeFiles/serial_nrf52832_xxAA_s132_3.1.0.dir/__/__/mesh/serial/src/serial_handler_prov.c.obj
 .debug_abbrev  0x00005293      0x342 examples/serial/CMakeFiles/serial_nrf52832_xxAA_s132_3.1.0.dir/__/__/mesh/serial/src/serial_handler_dfu.c.obj
 .debug_abbrev  0x000055d5      0x443 examples/serial/CMakeFiles/serial_nrf52832_xxAA_s132_3.1.0.dir/__/__/mesh/serial/src/serial_handler_mesh.c.obj
 .debug_abbrev  0x00005a18      0x374 examples/serial/CMakeFiles/serial_nrf52832_xxAA_s132_3.1.0.dir/__/__/mesh/serial/src/serial_handler_models.c.obj
 .debug_abbrev  0x00005d8c      0x3b2 examples/serial/CMakeFiles/serial_nrf52832_xxAA_s132_3.1.0.dir/__/__/mesh/serial/src/serial_handler_device.c.obj
 .debug_abbrev  0x0000613e      0x2a2 examples/serial/CMakeFiles/serial_nrf52832_xxAA_s132_3.1.0.dir/__/__/mesh/serial/src/nrf_mesh_serial.c.obj
 .debug_abbrev  0x000063e0      0x24c examples/serial/CMakeFiles/serial_nrf52832_xxAA_s132_3.1.0.dir/__/__/mesh/serial/src/serial_handler_app.c.obj
 .debug_abbrev  0x0000662c      0x1ae examples/serial/CMakeFiles/serial_nrf52832_xxAA_s132_3.1.0.dir/__/nrf_mesh_weak.c.obj
 .debug_abbrev  0x000067da      0x1df examples/serial/CMakeFiles/serial_nrf52832_xxAA_s132_3.1.0.dir/__/__/external/nRF5_SDK_14.0.0_3bcc1f7/components/toolchain/system_nrf52.c.obj
 .debug_abbrev  0x000069b9       0x14 examples/serial/CMakeFiles/serial_nrf52832_xxAA_s132_3.1.0.dir/__/__/external/nRF5_SDK_14.0.0_3bcc1f7/components/toolchain/gcc/gcc_startup_nrf52.S.obj
 .debug_abbrev  0x000069cd      0x27c mesh/core/libmesh_core_nrf52832_xxAA.a(internal_event.c.obj)
 .debug_abbrev  0x00006c49      0x24b mesh/core/libmesh_core_nrf52832_xxAA.a(nrf_mesh_configure.c.obj)
 .debug_abbrev  0x00006e94      0x2ce mesh/core/libmesh_core_nrf52832_xxAA.a(event.c.obj)
 .debug_abbrev  0x00007162      0x3f0 mesh/core/libmesh_core_nrf52832_xxAA.a(packet_buffer.c.obj)
 .debug_abbrev  0x00007552      0x31f mesh/core/libmesh_core_nrf52832_xxAA.a(fifo.c.obj)
 .debug_abbrev  0x00007871      0x590 mesh/core/libmesh_core_nrf52832_xxAA.a(net_state.c.obj)
 .debug_abbrev  0x00007e01      0x253 mesh/core/libmesh_core_nrf52832_xxAA.a(nrf_mesh_utils.c.obj)
 .debug_abbrev  0x00008054      0x469 mesh/core/libmesh_core_nrf52832_xxAA.a(nrf_mesh.c.obj)
 .debug_abbrev  0x000084bd      0x204 mesh/core/libmesh_core_nrf52832_xxAA.a(hal.c.obj)
 .debug_abbrev  0x000086c1      0x3e3 mesh/core/libmesh_core_nrf52832_xxAA.a(timer_scheduler.c.obj)
 .debug_abbrev  0x00008aa4      0x376 mesh/core/libmesh_core_nrf52832_xxAA.a(timer.c.obj)
 .debug_abbrev  0x00008e1a      0x152 mesh/core/libmesh_core_nrf52832_xxAA.a(ticker.c.obj)
 .debug_abbrev  0x00008f6c      0x230 mesh/core/libmesh_core_nrf52832_xxAA.a(rand.c.obj)
 .debug_abbrev  0x0000919c      0x21d mesh/core/libmesh_core_nrf52832_xxAA.a(nrf_mesh_opt.c.obj)
 .debug_abbrev  0x000093b9      0x50c mesh/core/libmesh_core_nrf52832_xxAA.a(timeslot.c.obj)
 .debug_abbrev  0x000098c5      0x497 mesh/core/libmesh_core_nrf52832_xxAA.a(bearer_event.c.obj)
 .debug_abbrev  0x00009d5c      0x3bd mesh/core/libmesh_core_nrf52832_xxAA.a(enc.c.obj)
 .debug_abbrev  0x0000a119      0x51d mesh/core/libmesh_core_nrf52832_xxAA.a(network.c.obj)
 .debug_abbrev  0x0000a636      0x12b mesh/core/libmesh_core_nrf52832_xxAA.a(nrf_mesh_keygen.c.obj)
 .debug_abbrev  0x0000a761      0x2b4 mesh/core/libmesh_core_nrf52832_xxAA.a(log.c.obj)
 .debug_abbrev  0x0000aa15      0x51c mesh/core/libmesh_core_nrf52832_xxAA.a(flash_manager.c.obj)
 .debug_abbrev  0x0000af31      0x2ec mesh/core/libmesh_core_nrf52832_xxAA.a(ccm_soft.c.obj)
 .debug_abbrev  0x0000b21d      0x3aa mesh/core/libmesh_core_nrf52832_xxAA.a(beacon.c.obj)
 .debug_abbrev  0x0000b5c7      0x28a mesh/core/libmesh_core_nrf52832_xxAA.a(flash_manager_internal.c.obj)
 .debug_abbrev  0x0000b851      0x386 mesh/core/libmesh_core_nrf52832_xxAA.a(core_tx.c.obj)
 .debug_abbrev  0x0000bbd7      0x3c0 mesh/core/libmesh_core_nrf52832_xxAA.a(net_beacon.c.obj)
 .debug_abbrev  0x0000bf97      0x4fd mesh/core/libmesh_core_nrf52832_xxAA.a(advertiser.c.obj)
 .debug_abbrev  0x0000c494      0x418 mesh/core/libmesh_core_nrf52832_xxAA.a(bearer_handler.c.obj)
 .debug_abbrev  0x0000c8ac      0x3d7 mesh/core/libmesh_core_nrf52832_xxAA.a(broadcast.c.obj)
 .debug_abbrev  0x0000cc83      0x1f1 mesh/core/libmesh_core_nrf52832_xxAA.a(radio_config.c.obj)
 .debug_abbrev  0x0000ce74      0x569 mesh/core/libmesh_core_nrf52832_xxAA.a(scanner.c.obj)
 .debug_abbrev  0x0000d3dd      0x264 mesh/core/libmesh_core_nrf52832_xxAA.a(aes.c.obj)
 .debug_abbrev  0x0000d641      0x24e mesh/core/libmesh_core_nrf52832_xxAA.a(msg_cache.c.obj)
 .debug_abbrev  0x0000d88f      0x57c mesh/core/libmesh_core_nrf52832_xxAA.a(transport.c.obj)
 .debug_abbrev  0x0000de0b      0x548 mesh/core/libmesh_core_nrf52832_xxAA.a(flash_manager_defrag.c.obj)
 .debug_abbrev  0x0000e353      0x3e0 mesh/core/libmesh_core_nrf52832_xxAA.a(packet_mgr.c.obj)
 .debug_abbrev  0x0000e733      0x476 mesh/core/libmesh_core_nrf52832_xxAA.a(mesh_flash.c.obj)
 .debug_abbrev  0x0000eba9      0x227 mesh/core/libmesh_core_nrf52832_xxAA.a(queue.c.obj)
 .debug_abbrev  0x0000edd0      0x2d5 mesh/core/libmesh_core_nrf52832_xxAA.a(aes_cmac.c.obj)
 .debug_abbrev  0x0000f0a5      0x2c9 mesh/core/libmesh_core_nrf52832_xxAA.a(msqueue.c.obj)
 .debug_abbrev  0x0000f36e      0x2a8 mesh/core/libmesh_core_nrf52832_xxAA.a(replay_cache.c.obj)
 .debug_abbrev  0x0000f616      0x31b mesh/core/libmesh_core_nrf52832_xxAA.a(filter_engine.c.obj)
 .debug_abbrev  0x0000f931      0x22d mesh/core/libmesh_core_nrf52832_xxAA.a(nrf_flash.c.obj)
 .debug_abbrev  0x0000fb5e      0x4d1 external/micro-ecc/libuECC_nrf52832_xxAA.a(uECC.c.obj)
 .debug_abbrev  0x0001002f      0x3d0 external/rtt/librtt_nrf52832_xxAA.a(SEGGER_RTT.c.obj)
 .debug_abbrev  0x000103ff      0x37c external/rtt/librtt_nrf52832_xxAA.a(SEGGER_RTT_printf.c.obj)

.debug_loc      0x00000000    0x399b4
 .debug_loc     0x00000000       0xe3 examples/serial/CMakeFiles/serial_nrf52832_xxAA_s132_3.1.0.dir/src/main.c.obj
 .debug_loc     0x000000e3      0x494 examples/serial/CMakeFiles/serial_nrf52832_xxAA_s132_3.1.0.dir/__/nrf_mesh_sdk.c.obj
 .debug_loc     0x00000577      0x92e examples/serial/CMakeFiles/serial_nrf52832_xxAA_s132_3.1.0.dir/__/__/mesh/prov/src/prov_provisioner.c.obj
 .debug_loc     0x00000ea5      0x8e9 examples/serial/CMakeFiles/serial_nrf52832_xxAA_s132_3.1.0.dir/__/__/mesh/prov/src/prov_provisionee.c.obj
 .debug_loc     0x0000178e      0x778 examples/serial/CMakeFiles/serial_nrf52832_xxAA_s132_3.1.0.dir/__/__/mesh/prov/src/nrf_mesh_prov.c.obj
 .debug_loc     0x00001f06      0xfdb examples/serial/CMakeFiles/serial_nrf52832_xxAA_s132_3.1.0.dir/__/__/mesh/prov/src/provisioning.c.obj
 .debug_loc     0x00002ee1      0x1f4 examples/serial/CMakeFiles/serial_nrf52832_xxAA_s132_3.1.0.dir/__/__/mesh/prov/src/prov_beacon.c.obj
 .debug_loc     0x000030d5      0x493 examples/serial/CMakeFiles/serial_nrf52832_xxAA_s132_3.1.0.dir/__/__/mesh/prov/src/prov_utils.c.obj
 .debug_loc     0x00003568     0x2957 examples/serial/CMakeFiles/serial_nrf52832_xxAA_s132_3.1.0.dir/__/__/mesh/prov/src/prov_bearer_adv.c.obj
 .debug_loc     0x00005ebf      0x91e examples/serial/CMakeFiles/serial_nrf52832_xxAA_s132_3.1.0.dir/__/__/mesh/access/src/access_publish.c.obj
 .debug_loc     0x000067dd     0x2fba examples/serial/CMakeFiles/serial_nrf52832_xxAA_s132_3.1.0.dir/__/__/mesh/access/src/access.c.obj
 .debug_loc     0x00009797      0x80c examples/serial/CMakeFiles/serial_nrf52832_xxAA_s132_3.1.0.dir/__/__/mesh/access/src/access_reliable.c.obj
 .debug_loc     0x00009fa3     0x78fb examples/serial/CMakeFiles/serial_nrf52832_xxAA_s132_3.1.0.dir/__/__/mesh/access/src/device_state_manager.c.obj
 .debug_loc     0x0001189e       0xb1 examples/serial/CMakeFiles/serial_nrf52832_xxAA_s132_3.1.0.dir/__/__/mesh/serial/src/serial_uart.c.obj
 .debug_loc     0x0001194f      0x4f1 examples/serial/CMakeFiles/serial_nrf52832_xxAA_s132_3.1.0.dir/__/__/mesh/serial/src/serial_bearer.c.obj
 .debug_loc     0x00011e40      0x1f0 examples/serial/CMakeFiles/serial_nrf52832_xxAA_s132_3.1.0.dir/__/__/mesh/serial/src/serial_handler_common.c.obj
 .debug_loc     0x00012030      0x75e examples/serial/CMakeFiles/serial_nrf52832_xxAA_s132_3.1.0.dir/__/__/mesh/serial/src/serial_handler_access.c.obj
 .debug_loc     0x0001278e       0x3c examples/serial/CMakeFiles/serial_nrf52832_xxAA_s132_3.1.0.dir/__/__/mesh/serial/src/serial_handler_config.c.obj
 .debug_loc     0x000127ca       0x58 examples/serial/CMakeFiles/serial_nrf52832_xxAA_s132_3.1.0.dir/__/__/mesh/serial/src/serial_handler_openmesh.c.obj
 .debug_loc     0x00012822      0x629 examples/serial/CMakeFiles/serial_nrf52832_xxAA_s132_3.1.0.dir/__/__/mesh/serial/src/serial.c.obj
 .debug_loc     0x00012e4b      0x8c9 examples/serial/CMakeFiles/serial_nrf52832_xxAA_s132_3.1.0.dir/__/__/mesh/serial/src/serial_handler_prov.c.obj
 .debug_loc     0x00013714      0x2b1 examples/serial/CMakeFiles/serial_nrf52832_xxAA_s132_3.1.0.dir/__/__/mesh/serial/src/serial_handler_dfu.c.obj
 .debug_loc     0x000139c5      0x91b examples/serial/CMakeFiles/serial_nrf52832_xxAA_s132_3.1.0.dir/__/__/mesh/serial/src/serial_handler_mesh.c.obj
 .debug_loc     0x000142e0      0x2ac examples/serial/CMakeFiles/serial_nrf52832_xxAA_s132_3.1.0.dir/__/__/mesh/serial/src/serial_handler_models.c.obj
 .debug_loc     0x0001458c      0x3e3 examples/serial/CMakeFiles/serial_nrf52832_xxAA_s132_3.1.0.dir/__/__/mesh/serial/src/serial_handler_device.c.obj
 .debug_loc     0x0001496f       0xac examples/serial/CMakeFiles/serial_nrf52832_xxAA_s132_3.1.0.dir/__/__/mesh/serial/src/nrf_mesh_serial.c.obj
 .debug_loc     0x00014a1b       0x45 examples/serial/CMakeFiles/serial_nrf52832_xxAA_s132_3.1.0.dir/__/__/mesh/serial/src/serial_handler_app.c.obj
 .debug_loc     0x00014a60       0xe4 mesh/core/libmesh_core_nrf52832_xxAA.a(internal_event.c.obj)
 .debug_loc     0x00014b44       0x2c mesh/core/libmesh_core_nrf52832_xxAA.a(nrf_mesh_configure.c.obj)
 .debug_loc     0x00014b70      0x340 mesh/core/libmesh_core_nrf52832_xxAA.a(event.c.obj)
 .debug_loc     0x00014eb0     0x19a9 mesh/core/libmesh_core_nrf52832_xxAA.a(packet_buffer.c.obj)
 .debug_loc     0x00016859      0x6a6 mesh/core/libmesh_core_nrf52832_xxAA.a(fifo.c.obj)
 .debug_loc     0x00016eff      0xa3a mesh/core/libmesh_core_nrf52832_xxAA.a(net_state.c.obj)
 .debug_loc     0x00017939      0x16f mesh/core/libmesh_core_nrf52832_xxAA.a(nrf_mesh_utils.c.obj)
 .debug_loc     0x00017aa8      0x333 mesh/core/libmesh_core_nrf52832_xxAA.a(nrf_mesh.c.obj)
 .debug_loc     0x00017ddb       0x84 mesh/core/libmesh_core_nrf52832_xxAA.a(hal.c.obj)
 .debug_loc     0x00017e5f      0x6d1 mesh/core/libmesh_core_nrf52832_xxAA.a(timer_scheduler.c.obj)
 .debug_loc     0x00018530      0x61e mesh/core/libmesh_core_nrf52832_xxAA.a(timer.c.obj)
 .debug_loc     0x00018b4e      0x1eb mesh/core/libmesh_core_nrf52832_xxAA.a(rand.c.obj)
 .debug_loc     0x00018d39      0x17e mesh/core/libmesh_core_nrf52832_xxAA.a(nrf_mesh_opt.c.obj)
 .debug_loc     0x00018eb7      0x5cb mesh/core/libmesh_core_nrf52832_xxAA.a(timeslot.c.obj)
 .debug_loc     0x00019482      0x776 mesh/core/libmesh_core_nrf52832_xxAA.a(bearer_event.c.obj)
 .debug_loc     0x00019bf8      0xc44 mesh/core/libmesh_core_nrf52832_xxAA.a(enc.c.obj)
 .debug_loc     0x0001a83c     0x1aa0 mesh/core/libmesh_core_nrf52832_xxAA.a(network.c.obj)
 .debug_loc     0x0001c2dc      0x210 mesh/core/libmesh_core_nrf52832_xxAA.a(nrf_mesh_keygen.c.obj)
 .debug_loc     0x0001c4ec      0x3dd mesh/core/libmesh_core_nrf52832_xxAA.a(log.c.obj)
 .debug_loc     0x0001c8c9     0x24f2 mesh/core/libmesh_core_nrf52832_xxAA.a(flash_manager.c.obj)
 .debug_loc     0x0001edbb      0xab5 mesh/core/libmesh_core_nrf52832_xxAA.a(ccm_soft.c.obj)
 .debug_loc     0x0001f870      0x825 mesh/core/libmesh_core_nrf52832_xxAA.a(beacon.c.obj)
 .debug_loc     0x00020095      0x122 mesh/core/libmesh_core_nrf52832_xxAA.a(flash_manager_internal.c.obj)
 .debug_loc     0x000201b7      0x874 mesh/core/libmesh_core_nrf52832_xxAA.a(core_tx.c.obj)
 .debug_loc     0x00020a2b      0x37b mesh/core/libmesh_core_nrf52832_xxAA.a(net_beacon.c.obj)
 .debug_loc     0x00020da6     0x1380 mesh/core/libmesh_core_nrf52832_xxAA.a(advertiser.c.obj)
 .debug_loc     0x00022126      0x467 mesh/core/libmesh_core_nrf52832_xxAA.a(bearer_handler.c.obj)
 .debug_loc     0x0002258d      0x31b mesh/core/libmesh_core_nrf52832_xxAA.a(broadcast.c.obj)
 .debug_loc     0x000228a8      0x28d mesh/core/libmesh_core_nrf52832_xxAA.a(radio_config.c.obj)
 .debug_loc     0x00022b35      0x8a7 mesh/core/libmesh_core_nrf52832_xxAA.a(scanner.c.obj)
 .debug_loc     0x000233dc       0x89 mesh/core/libmesh_core_nrf52832_xxAA.a(aes.c.obj)
 .debug_loc     0x00023465       0xab mesh/core/libmesh_core_nrf52832_xxAA.a(msg_cache.c.obj)
 .debug_loc     0x00023510     0x38ec mesh/core/libmesh_core_nrf52832_xxAA.a(transport.c.obj)
 .debug_loc     0x00026dfc      0xc63 mesh/core/libmesh_core_nrf52832_xxAA.a(flash_manager_defrag.c.obj)
 .debug_loc     0x00027a5f      0x838 mesh/core/libmesh_core_nrf52832_xxAA.a(packet_mgr.c.obj)
 .debug_loc     0x00028297      0xc2c mesh/core/libmesh_core_nrf52832_xxAA.a(mesh_flash.c.obj)
 .debug_loc     0x00028ec3      0x20a mesh/core/libmesh_core_nrf52832_xxAA.a(queue.c.obj)
 .debug_loc     0x000290cd      0xbfa mesh/core/libmesh_core_nrf52832_xxAA.a(aes_cmac.c.obj)
 .debug_loc     0x00029cc7      0x4cc mesh/core/libmesh_core_nrf52832_xxAA.a(msqueue.c.obj)
 .debug_loc     0x0002a193      0x229 mesh/core/libmesh_core_nrf52832_xxAA.a(replay_cache.c.obj)
 .debug_loc     0x0002a3bc      0x2b8 mesh/core/libmesh_core_nrf52832_xxAA.a(filter_engine.c.obj)
 .debug_loc     0x0002a674      0x156 mesh/core/libmesh_core_nrf52832_xxAA.a(nrf_flash.c.obj)
 .debug_loc     0x0002a7ca     0xad17 external/micro-ecc/libuECC_nrf52832_xxAA.a(uECC.c.obj)
 .debug_loc     0x000354e1     0x39c1 external/rtt/librtt_nrf52832_xxAA.a(SEGGER_RTT.c.obj)
 .debug_loc     0x00038ea2      0xb12 external/rtt/librtt_nrf52832_xxAA.a(SEGGER_RTT_printf.c.obj)

.debug_aranges  0x00000000     0x1d18
 .debug_aranges
                0x00000000       0x20 examples/serial/CMakeFiles/serial_nrf52832_xxAA_s132_3.1.0.dir/src/main.c.obj
 .debug_aranges
                0x00000020       0x78 examples/serial/CMakeFiles/serial_nrf52832_xxAA_s132_3.1.0.dir/__/nrf_mesh_sdk.c.obj
 .debug_aranges
                0x00000098       0x60 examples/serial/CMakeFiles/serial_nrf52832_xxAA_s132_3.1.0.dir/__/__/mesh/prov/src/prov_provisioner.c.obj
 .debug_aranges
                0x000000f8       0x58 examples/serial/CMakeFiles/serial_nrf52832_xxAA_s132_3.1.0.dir/__/__/mesh/prov/src/prov_provisionee.c.obj
 .debug_aranges
                0x00000150       0x58 examples/serial/CMakeFiles/serial_nrf52832_xxAA_s132_3.1.0.dir/__/__/mesh/prov/src/nrf_mesh_prov.c.obj
 .debug_aranges
                0x000001a8       0xc0 examples/serial/CMakeFiles/serial_nrf52832_xxAA_s132_3.1.0.dir/__/__/mesh/prov/src/provisioning.c.obj
 .debug_aranges
                0x00000268       0x30 examples/serial/CMakeFiles/serial_nrf52832_xxAA_s132_3.1.0.dir/__/__/mesh/prov/src/prov_beacon.c.obj
 .debug_aranges
                0x00000298       0x60 examples/serial/CMakeFiles/serial_nrf52832_xxAA_s132_3.1.0.dir/__/__/mesh/prov/src/prov_utils.c.obj
 .debug_aranges
                0x000002f8       0xa0 examples/serial/CMakeFiles/serial_nrf52832_xxAA_s132_3.1.0.dir/__/__/mesh/prov/src/prov_bearer_adv.c.obj
 .debug_aranges
                0x00000398       0x48 examples/serial/CMakeFiles/serial_nrf52832_xxAA_s132_3.1.0.dir/__/__/mesh/access/src/access_publish.c.obj
 .debug_aranges
                0x000003e0      0x160 examples/serial/CMakeFiles/serial_nrf52832_xxAA_s132_3.1.0.dir/__/__/mesh/access/src/access.c.obj
 .debug_aranges
                0x00000540       0x50 examples/serial/CMakeFiles/serial_nrf52832_xxAA_s132_3.1.0.dir/__/__/mesh/access/src/access_reliable.c.obj
 .debug_aranges
                0x00000590      0x230 examples/serial/CMakeFiles/serial_nrf52832_xxAA_s132_3.1.0.dir/__/__/mesh/access/src/device_state_manager.c.obj
 .debug_aranges
                0x000007c0       0x38 examples/serial/CMakeFiles/serial_nrf52832_xxAA_s132_3.1.0.dir/__/__/mesh/serial/src/serial_uart.c.obj
 .debug_aranges
                0x000007f8       0x60 examples/serial/CMakeFiles/serial_nrf52832_xxAA_s132_3.1.0.dir/__/__/mesh/serial/src/serial_bearer.c.obj
 .debug_aranges
                0x00000858       0x28 examples/serial/CMakeFiles/serial_nrf52832_xxAA_s132_3.1.0.dir/__/__/mesh/serial/src/serial_handler_common.c.obj
 .debug_aranges
                0x00000880       0xd0 examples/serial/CMakeFiles/serial_nrf52832_xxAA_s132_3.1.0.dir/__/__/mesh/serial/src/serial_handler_access.c.obj
 .debug_aranges
                0x00000950       0x20 examples/serial/CMakeFiles/serial_nrf52832_xxAA_s132_3.1.0.dir/__/__/mesh/serial/src/serial_handler_config.c.obj
 .debug_aranges
                0x00000970       0x20 examples/serial/CMakeFiles/serial_nrf52832_xxAA_s132_3.1.0.dir/__/__/mesh/serial/src/serial_handler_openmesh.c.obj
 .debug_aranges
                0x00000990       0x60 examples/serial/CMakeFiles/serial_nrf52832_xxAA_s132_3.1.0.dir/__/__/mesh/serial/src/serial.c.obj
 .debug_aranges
                0x000009f0       0x48 examples/serial/CMakeFiles/serial_nrf52832_xxAA_s132_3.1.0.dir/__/__/mesh/serial/src/serial_handler_prov.c.obj
 .debug_aranges
                0x00000a38       0x30 examples/serial/CMakeFiles/serial_nrf52832_xxAA_s132_3.1.0.dir/__/__/mesh/serial/src/serial_handler_dfu.c.obj
 .debug_aranges
                0x00000a68      0x110 examples/serial/CMakeFiles/serial_nrf52832_xxAA_s132_3.1.0.dir/__/__/mesh/serial/src/serial_handler_mesh.c.obj
 .debug_aranges
                0x00000b78       0x40 examples/serial/CMakeFiles/serial_nrf52832_xxAA_s132_3.1.0.dir/__/__/mesh/serial/src/serial_handler_models.c.obj
 .debug_aranges
                0x00000bb8       0x78 examples/serial/CMakeFiles/serial_nrf52832_xxAA_s132_3.1.0.dir/__/__/mesh/serial/src/serial_handler_device.c.obj
 .debug_aranges
                0x00000c30       0x38 examples/serial/CMakeFiles/serial_nrf52832_xxAA_s132_3.1.0.dir/__/__/mesh/serial/src/nrf_mesh_serial.c.obj
 .debug_aranges
                0x00000c68       0x28 examples/serial/CMakeFiles/serial_nrf52832_xxAA_s132_3.1.0.dir/__/__/mesh/serial/src/serial_handler_app.c.obj
 .debug_aranges
                0x00000c90       0x28 examples/serial/CMakeFiles/serial_nrf52832_xxAA_s132_3.1.0.dir/__/nrf_mesh_weak.c.obj
 .debug_aranges
                0x00000cb8       0x28 examples/serial/CMakeFiles/serial_nrf52832_xxAA_s132_3.1.0.dir/__/__/external/nRF5_SDK_14.0.0_3bcc1f7/components/toolchain/system_nrf52.c.obj
 .debug_aranges
                0x00000ce0       0x20 examples/serial/CMakeFiles/serial_nrf52832_xxAA_s132_3.1.0.dir/__/__/external/nRF5_SDK_14.0.0_3bcc1f7/components/toolchain/gcc/gcc_startup_nrf52.S.obj
 .debug_aranges
                0x00000d00       0x30 mesh/core/libmesh_core_nrf52832_xxAA.a(internal_event.c.obj)
 .debug_aranges
                0x00000d30       0x30 mesh/core/libmesh_core_nrf52832_xxAA.a(nrf_mesh_configure.c.obj)
 .debug_aranges
                0x00000d60       0x30 mesh/core/libmesh_core_nrf52832_xxAA.a(event.c.obj)
 .debug_aranges
                0x00000d90       0x60 mesh/core/libmesh_core_nrf52832_xxAA.a(packet_buffer.c.obj)
 .debug_aranges
                0x00000df0       0x60 mesh/core/libmesh_core_nrf52832_xxAA.a(fifo.c.obj)
 .debug_aranges
                0x00000e50       0xb8 mesh/core/libmesh_core_nrf52832_xxAA.a(net_state.c.obj)
 .debug_aranges
                0x00000f08       0x30 mesh/core/libmesh_core_nrf52832_xxAA.a(nrf_mesh_utils.c.obj)
 .debug_aranges
                0x00000f38       0x78 mesh/core/libmesh_core_nrf52832_xxAA.a(nrf_mesh.c.obj)
 .debug_aranges
                0x00000fb0       0x38 mesh/core/libmesh_core_nrf52832_xxAA.a(hal.c.obj)
 .debug_aranges
                0x00000fe8       0x50 mesh/core/libmesh_core_nrf52832_xxAA.a(timer_scheduler.c.obj)
 .debug_aranges
                0x00001038       0x58 mesh/core/libmesh_core_nrf52832_xxAA.a(timer.c.obj)
 .debug_aranges
                0x00001090       0x30 mesh/core/libmesh_core_nrf52832_xxAA.a(ticker.c.obj)
 .debug_aranges
                0x000010c0       0x40 mesh/core/libmesh_core_nrf52832_xxAA.a(rand.c.obj)
 .debug_aranges
                0x00001100       0x28 mesh/core/libmesh_core_nrf52832_xxAA.a(nrf_mesh_opt.c.obj)
 .debug_aranges
                0x00001128       0xa8 mesh/core/libmesh_core_nrf52832_xxAA.a(timeslot.c.obj)
 .debug_aranges
                0x000011d0       0x78 mesh/core/libmesh_core_nrf52832_xxAA.a(bearer_event.c.obj)
 .debug_aranges
                0x00001248       0x70 mesh/core/libmesh_core_nrf52832_xxAA.a(enc.c.obj)
 .debug_aranges
                0x000012b8       0x50 mesh/core/libmesh_core_nrf52832_xxAA.a(network.c.obj)
 .debug_aranges
                0x00001308       0x40 mesh/core/libmesh_core_nrf52832_xxAA.a(nrf_mesh_keygen.c.obj)
 .debug_aranges
                0x00001348       0x48 mesh/core/libmesh_core_nrf52832_xxAA.a(log.c.obj)
 .debug_aranges
                0x00001390       0x98 mesh/core/libmesh_core_nrf52832_xxAA.a(flash_manager.c.obj)
 .debug_aranges
                0x00001428       0x38 mesh/core/libmesh_core_nrf52832_xxAA.a(ccm_soft.c.obj)
 .debug_aranges
                0x00001460       0x38 mesh/core/libmesh_core_nrf52832_xxAA.a(beacon.c.obj)
 .debug_aranges
                0x00001498       0x20 mesh/core/libmesh_core_nrf52832_xxAA.a(flash_manager_internal.c.obj)
 .debug_aranges
                0x000014b8       0x70 mesh/core/libmesh_core_nrf52832_xxAA.a(core_tx.c.obj)
 .debug_aranges
                0x00001528       0x40 mesh/core/libmesh_core_nrf52832_xxAA.a(net_beacon.c.obj)
 .debug_aranges
                0x00001568       0xa0 mesh/core/libmesh_core_nrf52832_xxAA.a(advertiser.c.obj)
 .debug_aranges
                0x00001608       0x70 mesh/core/libmesh_core_nrf52832_xxAA.a(bearer_handler.c.obj)
 .debug_aranges
                0x00001678       0x30 mesh/core/libmesh_core_nrf52832_xxAA.a(broadcast.c.obj)
 .debug_aranges
                0x000016a8       0x40 mesh/core/libmesh_core_nrf52832_xxAA.a(radio_config.c.obj)
 .debug_aranges
                0x000016e8       0xa8 mesh/core/libmesh_core_nrf52832_xxAA.a(scanner.c.obj)
 .debug_aranges
                0x00001790       0x28 mesh/core/libmesh_core_nrf52832_xxAA.a(aes.c.obj)
 .debug_aranges
                0x000017b8       0x38 mesh/core/libmesh_core_nrf52832_xxAA.a(msg_cache.c.obj)
 .debug_aranges
                0x000017f0       0xc0 mesh/core/libmesh_core_nrf52832_xxAA.a(transport.c.obj)
 .debug_aranges
                0x000018b0       0xa0 mesh/core/libmesh_core_nrf52832_xxAA.a(flash_manager_defrag.c.obj)
 .debug_aranges
                0x00001950       0x48 mesh/core/libmesh_core_nrf52832_xxAA.a(packet_mgr.c.obj)
 .debug_aranges
                0x00001998       0x60 mesh/core/libmesh_core_nrf52832_xxAA.a(mesh_flash.c.obj)
 .debug_aranges
                0x000019f8       0x38 mesh/core/libmesh_core_nrf52832_xxAA.a(queue.c.obj)
 .debug_aranges
                0x00001a30       0x28 mesh/core/libmesh_core_nrf52832_xxAA.a(aes_cmac.c.obj)
 .debug_aranges
                0x00001a58       0x40 mesh/core/libmesh_core_nrf52832_xxAA.a(msqueue.c.obj)
 .debug_aranges
                0x00001a98       0x40 mesh/core/libmesh_core_nrf52832_xxAA.a(replay_cache.c.obj)
 .debug_aranges
                0x00001ad8       0x38 mesh/core/libmesh_core_nrf52832_xxAA.a(filter_engine.c.obj)
 .debug_aranges
                0x00001b10       0x28 mesh/core/libmesh_core_nrf52832_xxAA.a(nrf_flash.c.obj)
 .debug_aranges
                0x00001b38      0x100 external/micro-ecc/libuECC_nrf52832_xxAA.a(uECC.c.obj)
 .debug_aranges
                0x00001c38       0xb0 external/rtt/librtt_nrf52832_xxAA.a(SEGGER_RTT.c.obj)
 .debug_aranges
                0x00001ce8       0x30 external/rtt/librtt_nrf52832_xxAA.a(SEGGER_RTT_printf.c.obj)

.debug_ranges   0x00000000     0xdde8
 .debug_ranges  0x00000000       0xe8 examples/serial/CMakeFiles/serial_nrf52832_xxAA_s132_3.1.0.dir/src/main.c.obj
 .debug_ranges  0x000000e8      0x290 examples/serial/CMakeFiles/serial_nrf52832_xxAA_s132_3.1.0.dir/__/nrf_mesh_sdk.c.obj
 .debug_ranges  0x00000378      0x118 examples/serial/CMakeFiles/serial_nrf52832_xxAA_s132_3.1.0.dir/__/__/mesh/prov/src/prov_provisioner.c.obj
 .debug_ranges  0x00000490      0x1c8 examples/serial/CMakeFiles/serial_nrf52832_xxAA_s132_3.1.0.dir/__/__/mesh/prov/src/prov_provisionee.c.obj
 .debug_ranges  0x00000658       0x60 examples/serial/CMakeFiles/serial_nrf52832_xxAA_s132_3.1.0.dir/__/__/mesh/prov/src/nrf_mesh_prov.c.obj
 .debug_ranges  0x000006b8      0x290 examples/serial/CMakeFiles/serial_nrf52832_xxAA_s132_3.1.0.dir/__/__/mesh/prov/src/provisioning.c.obj
 .debug_ranges  0x00000948       0x80 examples/serial/CMakeFiles/serial_nrf52832_xxAA_s132_3.1.0.dir/__/__/mesh/prov/src/prov_beacon.c.obj
 .debug_ranges  0x000009c8       0xa0 examples/serial/CMakeFiles/serial_nrf52832_xxAA_s132_3.1.0.dir/__/__/mesh/prov/src/prov_utils.c.obj
 .debug_ranges  0x00000a68      0xba0 examples/serial/CMakeFiles/serial_nrf52832_xxAA_s132_3.1.0.dir/__/__/mesh/prov/src/prov_bearer_adv.c.obj
 .debug_ranges  0x00001608      0x390 examples/serial/CMakeFiles/serial_nrf52832_xxAA_s132_3.1.0.dir/__/__/mesh/access/src/access_publish.c.obj
 .debug_ranges  0x00001998      0xba0 examples/serial/CMakeFiles/serial_nrf52832_xxAA_s132_3.1.0.dir/__/__/mesh/access/src/access.c.obj
 .debug_ranges  0x00002538      0x280 examples/serial/CMakeFiles/serial_nrf52832_xxAA_s132_3.1.0.dir/__/__/mesh/access/src/access_reliable.c.obj
 .debug_ranges  0x000027b8     0x1dc8 examples/serial/CMakeFiles/serial_nrf52832_xxAA_s132_3.1.0.dir/__/__/mesh/access/src/device_state_manager.c.obj
 .debug_ranges  0x00004580       0x60 examples/serial/CMakeFiles/serial_nrf52832_xxAA_s132_3.1.0.dir/__/__/mesh/serial/src/serial_uart.c.obj
 .debug_ranges  0x000045e0      0x240 examples/serial/CMakeFiles/serial_nrf52832_xxAA_s132_3.1.0.dir/__/__/mesh/serial/src/serial_bearer.c.obj
 .debug_ranges  0x00004820       0x40 examples/serial/CMakeFiles/serial_nrf52832_xxAA_s132_3.1.0.dir/__/__/mesh/serial/src/serial_handler_common.c.obj
 .debug_ranges  0x00004860       0xd8 examples/serial/CMakeFiles/serial_nrf52832_xxAA_s132_3.1.0.dir/__/__/mesh/serial/src/serial_handler_access.c.obj
 .debug_ranges  0x00004938       0x28 examples/serial/CMakeFiles/serial_nrf52832_xxAA_s132_3.1.0.dir/__/__/mesh/serial/src/serial_handler_config.c.obj
 .debug_ranges  0x00004960       0x28 examples/serial/CMakeFiles/serial_nrf52832_xxAA_s132_3.1.0.dir/__/__/mesh/serial/src/serial_handler_openmesh.c.obj
 .debug_ranges  0x00004988      0x260 examples/serial/CMakeFiles/serial_nrf52832_xxAA_s132_3.1.0.dir/__/__/mesh/serial/src/serial.c.obj
 .debug_ranges  0x00004be8      0x4f8 examples/serial/CMakeFiles/serial_nrf52832_xxAA_s132_3.1.0.dir/__/__/mesh/serial/src/serial_handler_prov.c.obj
 .debug_ranges  0x000050e0       0xf8 examples/serial/CMakeFiles/serial_nrf52832_xxAA_s132_3.1.0.dir/__/__/mesh/serial/src/serial_handler_dfu.c.obj
 .debug_ranges  0x000051d8      0x1f8 examples/serial/CMakeFiles/serial_nrf52832_xxAA_s132_3.1.0.dir/__/__/mesh/serial/src/serial_handler_mesh.c.obj
 .debug_ranges  0x000053d0       0x98 examples/serial/CMakeFiles/serial_nrf52832_xxAA_s132_3.1.0.dir/__/__/mesh/serial/src/serial_handler_models.c.obj
 .debug_ranges  0x00005468      0x128 examples/serial/CMakeFiles/serial_nrf52832_xxAA_s132_3.1.0.dir/__/__/mesh/serial/src/serial_handler_device.c.obj
 .debug_ranges  0x00005590       0x40 examples/serial/CMakeFiles/serial_nrf52832_xxAA_s132_3.1.0.dir/__/__/mesh/serial/src/nrf_mesh_serial.c.obj
 .debug_ranges  0x000055d0       0x18 examples/serial/CMakeFiles/serial_nrf52832_xxAA_s132_3.1.0.dir/__/__/mesh/serial/src/serial_handler_app.c.obj
 .debug_ranges  0x000055e8       0x18 examples/serial/CMakeFiles/serial_nrf52832_xxAA_s132_3.1.0.dir/__/nrf_mesh_weak.c.obj
 .debug_ranges  0x00005600      0x148 examples/serial/CMakeFiles/serial_nrf52832_xxAA_s132_3.1.0.dir/__/__/external/nRF5_SDK_14.0.0_3bcc1f7/components/toolchain/system_nrf52.c.obj
 .debug_ranges  0x00005748       0x20 mesh/core/libmesh_core_nrf52832_xxAA.a(internal_event.c.obj)
 .debug_ranges  0x00005768       0x20 mesh/core/libmesh_core_nrf52832_xxAA.a(nrf_mesh_configure.c.obj)
 .debug_ranges  0x00005788      0x128 mesh/core/libmesh_core_nrf52832_xxAA.a(event.c.obj)
 .debug_ranges  0x000058b0      0x758 mesh/core/libmesh_core_nrf52832_xxAA.a(packet_buffer.c.obj)
 .debug_ranges  0x00006008       0xa0 mesh/core/libmesh_core_nrf52832_xxAA.a(fifo.c.obj)
 .debug_ranges  0x000060a8      0x590 mesh/core/libmesh_core_nrf52832_xxAA.a(net_state.c.obj)
 .debug_ranges  0x00006638       0x20 mesh/core/libmesh_core_nrf52832_xxAA.a(nrf_mesh_utils.c.obj)
 .debug_ranges  0x00006658      0x120 mesh/core/libmesh_core_nrf52832_xxAA.a(nrf_mesh.c.obj)
 .debug_ranges  0x00006778       0x28 mesh/core/libmesh_core_nrf52832_xxAA.a(hal.c.obj)
 .debug_ranges  0x000067a0      0x528 mesh/core/libmesh_core_nrf52832_xxAA.a(timer_scheduler.c.obj)
 .debug_ranges  0x00006cc8      0x1c0 mesh/core/libmesh_core_nrf52832_xxAA.a(timer.c.obj)
 .debug_ranges  0x00006e88       0x20 mesh/core/libmesh_core_nrf52832_xxAA.a(ticker.c.obj)
 .debug_ranges  0x00006ea8       0x48 mesh/core/libmesh_core_nrf52832_xxAA.a(rand.c.obj)
 .debug_ranges  0x00006ef0       0x18 mesh/core/libmesh_core_nrf52832_xxAA.a(nrf_mesh_opt.c.obj)
 .debug_ranges  0x00006f08      0x340 mesh/core/libmesh_core_nrf52832_xxAA.a(timeslot.c.obj)
 .debug_ranges  0x00007248      0x2b0 mesh/core/libmesh_core_nrf52832_xxAA.a(bearer_event.c.obj)
 .debug_ranges  0x000074f8      0x1b0 mesh/core/libmesh_core_nrf52832_xxAA.a(enc.c.obj)
 .debug_ranges  0x000076a8      0x758 mesh/core/libmesh_core_nrf52832_xxAA.a(network.c.obj)
 .debug_ranges  0x00007e00       0x30 mesh/core/libmesh_core_nrf52832_xxAA.a(nrf_mesh_keygen.c.obj)
 .debug_ranges  0x00007e30       0x58 mesh/core/libmesh_core_nrf52832_xxAA.a(log.c.obj)
 .debug_ranges  0x00007e88     0x11d0 mesh/core/libmesh_core_nrf52832_xxAA.a(flash_manager.c.obj)
 .debug_ranges  0x00009058      0x120 mesh/core/libmesh_core_nrf52832_xxAA.a(ccm_soft.c.obj)
 .debug_ranges  0x00009178       0xb0 mesh/core/libmesh_core_nrf52832_xxAA.a(beacon.c.obj)
 .debug_ranges  0x00009228       0x68 mesh/core/libmesh_core_nrf52832_xxAA.a(flash_manager_internal.c.obj)
 .debug_ranges  0x00009290      0x258 mesh/core/libmesh_core_nrf52832_xxAA.a(core_tx.c.obj)
 .debug_ranges  0x000094e8       0xb8 mesh/core/libmesh_core_nrf52832_xxAA.a(net_beacon.c.obj)
 .debug_ranges  0x000095a0      0x620 mesh/core/libmesh_core_nrf52832_xxAA.a(advertiser.c.obj)
 .debug_ranges  0x00009bc0      0x2e0 mesh/core/libmesh_core_nrf52832_xxAA.a(bearer_handler.c.obj)
 .debug_ranges  0x00009ea0      0x108 mesh/core/libmesh_core_nrf52832_xxAA.a(broadcast.c.obj)
 .debug_ranges  0x00009fa8       0xe8 mesh/core/libmesh_core_nrf52832_xxAA.a(radio_config.c.obj)
 .debug_ranges  0x0000a090      0x4d0 mesh/core/libmesh_core_nrf52832_xxAA.a(scanner.c.obj)
 .debug_ranges  0x0000a560       0x18 mesh/core/libmesh_core_nrf52832_xxAA.a(aes.c.obj)
 .debug_ranges  0x0000a578       0x40 mesh/core/libmesh_core_nrf52832_xxAA.a(msg_cache.c.obj)
 .debug_ranges  0x0000a5b8      0xfd8 mesh/core/libmesh_core_nrf52832_xxAA.a(transport.c.obj)
 .debug_ranges  0x0000b590      0x608 mesh/core/libmesh_core_nrf52832_xxAA.a(flash_manager_defrag.c.obj)
 .debug_ranges  0x0000bb98      0x178 mesh/core/libmesh_core_nrf52832_xxAA.a(packet_mgr.c.obj)
 .debug_ranges  0x0000bd10      0x390 mesh/core/libmesh_core_nrf52832_xxAA.a(mesh_flash.c.obj)
 .debug_ranges  0x0000c0a0       0xa0 mesh/core/libmesh_core_nrf52832_xxAA.a(queue.c.obj)
 .debug_ranges  0x0000c140      0x118 mesh/core/libmesh_core_nrf52832_xxAA.a(aes_cmac.c.obj)
 .debug_ranges  0x0000c258      0x120 mesh/core/libmesh_core_nrf52832_xxAA.a(msqueue.c.obj)
 .debug_ranges  0x0000c378       0x58 mesh/core/libmesh_core_nrf52832_xxAA.a(replay_cache.c.obj)
 .debug_ranges  0x0000c3d0      0x100 mesh/core/libmesh_core_nrf52832_xxAA.a(filter_engine.c.obj)
 .debug_ranges  0x0000c4d0       0x30 mesh/core/libmesh_core_nrf52832_xxAA.a(nrf_flash.c.obj)
 .debug_ranges  0x0000c500     0x12d8 external/micro-ecc/libuECC_nrf52832_xxAA.a(uECC.c.obj)
 .debug_ranges  0x0000d7d8      0x490 external/rtt/librtt_nrf52832_xxAA.a(SEGGER_RTT.c.obj)
 .debug_ranges  0x0000dc68      0x180 external/rtt/librtt_nrf52832_xxAA.a(SEGGER_RTT_printf.c.obj)

.debug_line     0x00000000    0x1c403
 .debug_line    0x00000000      0x52e examples/serial/CMakeFiles/serial_nrf52832_xxAA_s132_3.1.0.dir/src/main.c.obj
 .debug_line    0x0000052e      0x809 examples/serial/CMakeFiles/serial_nrf52832_xxAA_s132_3.1.0.dir/__/nrf_mesh_sdk.c.obj
 .debug_line    0x00000d37      0x6fb examples/serial/CMakeFiles/serial_nrf52832_xxAA_s132_3.1.0.dir/__/__/mesh/prov/src/prov_provisioner.c.obj
 .debug_line    0x00001432      0x79a examples/serial/CMakeFiles/serial_nrf52832_xxAA_s132_3.1.0.dir/__/__/mesh/prov/src/prov_provisionee.c.obj
 .debug_line    0x00001bcc      0x4fa examples/serial/CMakeFiles/serial_nrf52832_xxAA_s132_3.1.0.dir/__/__/mesh/prov/src/nrf_mesh_prov.c.obj
 .debug_line    0x000020c6      0x6b8 examples/serial/CMakeFiles/serial_nrf52832_xxAA_s132_3.1.0.dir/__/__/mesh/prov/src/provisioning.c.obj
 .debug_line    0x0000277e      0x49b examples/serial/CMakeFiles/serial_nrf52832_xxAA_s132_3.1.0.dir/__/__/mesh/prov/src/prov_beacon.c.obj
 .debug_line    0x00002c19      0x56c examples/serial/CMakeFiles/serial_nrf52832_xxAA_s132_3.1.0.dir/__/__/mesh/prov/src/prov_utils.c.obj
 .debug_line    0x00003185      0xe78 examples/serial/CMakeFiles/serial_nrf52832_xxAA_s132_3.1.0.dir/__/__/mesh/prov/src/prov_bearer_adv.c.obj
 .debug_line    0x00003ffd      0x4ef examples/serial/CMakeFiles/serial_nrf52832_xxAA_s132_3.1.0.dir/__/__/mesh/access/src/access_publish.c.obj
 .debug_line    0x000044ec     0x105e examples/serial/CMakeFiles/serial_nrf52832_xxAA_s132_3.1.0.dir/__/__/mesh/access/src/access.c.obj
 .debug_line    0x0000554a      0x52c examples/serial/CMakeFiles/serial_nrf52832_xxAA_s132_3.1.0.dir/__/__/mesh/access/src/access_reliable.c.obj
 .debug_line    0x00005a76     0x20d6 examples/serial/CMakeFiles/serial_nrf52832_xxAA_s132_3.1.0.dir/__/__/mesh/access/src/device_state_manager.c.obj
 .debug_line    0x00007b4c      0x36b examples/serial/CMakeFiles/serial_nrf52832_xxAA_s132_3.1.0.dir/__/__/mesh/serial/src/serial_uart.c.obj
 .debug_line    0x00007eb7      0x605 examples/serial/CMakeFiles/serial_nrf52832_xxAA_s132_3.1.0.dir/__/__/mesh/serial/src/serial_bearer.c.obj
 .debug_line    0x000084bc      0x363 examples/serial/CMakeFiles/serial_nrf52832_xxAA_s132_3.1.0.dir/__/__/mesh/serial/src/serial_handler_common.c.obj
 .debug_line    0x0000881f      0x550 examples/serial/CMakeFiles/serial_nrf52832_xxAA_s132_3.1.0.dir/__/__/mesh/serial/src/serial_handler_access.c.obj
 .debug_line    0x00008d6f      0x3f6 examples/serial/CMakeFiles/serial_nrf52832_xxAA_s132_3.1.0.dir/__/__/mesh/serial/src/serial_handler_config.c.obj
 .debug_line    0x00009165      0x318 examples/serial/CMakeFiles/serial_nrf52832_xxAA_s132_3.1.0.dir/__/__/mesh/serial/src/serial_handler_openmesh.c.obj
 .debug_line    0x0000947d      0x691 examples/serial/CMakeFiles/serial_nrf52832_xxAA_s132_3.1.0.dir/__/__/mesh/serial/src/serial.c.obj
 .debug_line    0x00009b0e      0x700 examples/serial/CMakeFiles/serial_nrf52832_xxAA_s132_3.1.0.dir/__/__/mesh/serial/src/serial_handler_prov.c.obj
 .debug_line    0x0000a20e      0x520 examples/serial/CMakeFiles/serial_nrf52832_xxAA_s132_3.1.0.dir/__/__/mesh/serial/src/serial_handler_dfu.c.obj
 .debug_line    0x0000a72e      0x764 examples/serial/CMakeFiles/serial_nrf52832_xxAA_s132_3.1.0.dir/__/__/mesh/serial/src/serial_handler_mesh.c.obj
 .debug_line    0x0000ae92      0x426 examples/serial/CMakeFiles/serial_nrf52832_xxAA_s132_3.1.0.dir/__/__/mesh/serial/src/serial_handler_models.c.obj
 .debug_line    0x0000b2b8      0x629 examples/serial/CMakeFiles/serial_nrf52832_xxAA_s132_3.1.0.dir/__/__/mesh/serial/src/serial_handler_device.c.obj
 .debug_line    0x0000b8e1      0x42b examples/serial/CMakeFiles/serial_nrf52832_xxAA_s132_3.1.0.dir/__/__/mesh/serial/src/nrf_mesh_serial.c.obj
 .debug_line    0x0000bd0c      0x335 examples/serial/CMakeFiles/serial_nrf52832_xxAA_s132_3.1.0.dir/__/__/mesh/serial/src/serial_handler_app.c.obj
 .debug_line    0x0000c041      0x225 examples/serial/CMakeFiles/serial_nrf52832_xxAA_s132_3.1.0.dir/__/nrf_mesh_weak.c.obj
 .debug_line    0x0000c266      0x2e2 examples/serial/CMakeFiles/serial_nrf52832_xxAA_s132_3.1.0.dir/__/__/external/nRF5_SDK_14.0.0_3bcc1f7/components/toolchain/system_nrf52.c.obj
 .debug_line    0x0000c548       0xa0 examples/serial/CMakeFiles/serial_nrf52832_xxAA_s132_3.1.0.dir/__/__/external/nRF5_SDK_14.0.0_3bcc1f7/components/toolchain/gcc/gcc_startup_nrf52.S.obj
 .debug_line    0x0000c5e8      0x2a9 mesh/core/libmesh_core_nrf52832_xxAA.a(internal_event.c.obj)
 .debug_line    0x0000c891      0x263 mesh/core/libmesh_core_nrf52832_xxAA.a(nrf_mesh_configure.c.obj)
 .debug_line    0x0000caf4      0x32e mesh/core/libmesh_core_nrf52832_xxAA.a(event.c.obj)
 .debug_line    0x0000ce22      0x79b mesh/core/libmesh_core_nrf52832_xxAA.a(packet_buffer.c.obj)
 .debug_line    0x0000d5bd      0x3fa mesh/core/libmesh_core_nrf52832_xxAA.a(fifo.c.obj)
 .debug_line    0x0000d9b7      0x87d mesh/core/libmesh_core_nrf52832_xxAA.a(net_state.c.obj)
 .debug_line    0x0000e234      0x263 mesh/core/libmesh_core_nrf52832_xxAA.a(nrf_mesh_utils.c.obj)
 .debug_line    0x0000e497      0x7ac mesh/core/libmesh_core_nrf52832_xxAA.a(nrf_mesh.c.obj)
 .debug_line    0x0000ec43      0x250 mesh/core/libmesh_core_nrf52832_xxAA.a(hal.c.obj)
 .debug_line    0x0000ee93      0x4c7 mesh/core/libmesh_core_nrf52832_xxAA.a(timer_scheduler.c.obj)
 .debug_line    0x0000f35a      0x4e3 mesh/core/libmesh_core_nrf52832_xxAA.a(timer.c.obj)
 .debug_line    0x0000f83d      0x123 mesh/core/libmesh_core_nrf52832_xxAA.a(ticker.c.obj)
 .debug_line    0x0000f960      0x2a0 mesh/core/libmesh_core_nrf52832_xxAA.a(rand.c.obj)
 .debug_line    0x0000fc00      0x295 mesh/core/libmesh_core_nrf52832_xxAA.a(nrf_mesh_opt.c.obj)
 .debug_line    0x0000fe95      0x6b0 mesh/core/libmesh_core_nrf52832_xxAA.a(timeslot.c.obj)
 .debug_line    0x00010545      0x5ef mesh/core/libmesh_core_nrf52832_xxAA.a(bearer_event.c.obj)
 .debug_line    0x00010b34      0x4b9 mesh/core/libmesh_core_nrf52832_xxAA.a(enc.c.obj)
 .debug_line    0x00010fed      0x91c mesh/core/libmesh_core_nrf52832_xxAA.a(network.c.obj)
 .debug_line    0x00011909      0x247 mesh/core/libmesh_core_nrf52832_xxAA.a(nrf_mesh_keygen.c.obj)
 .debug_line    0x00011b50      0x29b mesh/core/libmesh_core_nrf52832_xxAA.a(log.c.obj)
 .debug_line    0x00011deb      0xd4f mesh/core/libmesh_core_nrf52832_xxAA.a(flash_manager.c.obj)
 .debug_line    0x00012b3a      0x460 mesh/core/libmesh_core_nrf52832_xxAA.a(ccm_soft.c.obj)
 .debug_line    0x00012f9a      0x54a mesh/core/libmesh_core_nrf52832_xxAA.a(beacon.c.obj)
 .debug_line    0x000134e4      0x29a mesh/core/libmesh_core_nrf52832_xxAA.a(flash_manager_internal.c.obj)
 .debug_line    0x0001377e      0x5ca mesh/core/libmesh_core_nrf52832_xxAA.a(core_tx.c.obj)
 .debug_line    0x00013d48      0x40f mesh/core/libmesh_core_nrf52832_xxAA.a(net_beacon.c.obj)
 .debug_line    0x00014157      0x8b5 mesh/core/libmesh_core_nrf52832_xxAA.a(advertiser.c.obj)
 .debug_line    0x00014a0c      0x606 mesh/core/libmesh_core_nrf52832_xxAA.a(bearer_handler.c.obj)
 .debug_line    0x00015012      0x3d3 mesh/core/libmesh_core_nrf52832_xxAA.a(broadcast.c.obj)
 .debug_line    0x000153e5      0x33c mesh/core/libmesh_core_nrf52832_xxAA.a(radio_config.c.obj)
 .debug_line    0x00015721      0x836 mesh/core/libmesh_core_nrf52832_xxAA.a(scanner.c.obj)
 .debug_line    0x00015f57      0x254 mesh/core/libmesh_core_nrf52832_xxAA.a(aes.c.obj)
 .debug_line    0x000161ab      0x262 mesh/core/libmesh_core_nrf52832_xxAA.a(msg_cache.c.obj)
 .debug_line    0x0001640d     0x132d mesh/core/libmesh_core_nrf52832_xxAA.a(transport.c.obj)
 .debug_line    0x0001773a      0x942 mesh/core/libmesh_core_nrf52832_xxAA.a(flash_manager_defrag.c.obj)
 .debug_line    0x0001807c      0x45e mesh/core/libmesh_core_nrf52832_xxAA.a(packet_mgr.c.obj)
 .debug_line    0x000184da      0x5e8 mesh/core/libmesh_core_nrf52832_xxAA.a(mesh_flash.c.obj)
 .debug_line    0x00018ac2      0x2f7 mesh/core/libmesh_core_nrf52832_xxAA.a(queue.c.obj)
 .debug_line    0x00018db9      0x420 mesh/core/libmesh_core_nrf52832_xxAA.a(aes_cmac.c.obj)
 .debug_line    0x000191d9      0x395 mesh/core/libmesh_core_nrf52832_xxAA.a(msqueue.c.obj)
 .debug_line    0x0001956e      0x1f6 mesh/core/libmesh_core_nrf52832_xxAA.a(replay_cache.c.obj)
 .debug_line    0x00019764      0x3d1 mesh/core/libmesh_core_nrf52832_xxAA.a(filter_engine.c.obj)
 .debug_line    0x00019b35      0x2b6 mesh/core/libmesh_core_nrf52832_xxAA.a(nrf_flash.c.obj)
 .debug_line    0x00019deb     0x17f0 external/micro-ecc/libuECC_nrf52832_xxAA.a(uECC.c.obj)
 .debug_line    0x0001b5db      0xaba external/rtt/librtt_nrf52832_xxAA.a(SEGGER_RTT.c.obj)
 .debug_line    0x0001c095      0x36e external/rtt/librtt_nrf52832_xxAA.a(SEGGER_RTT_printf.c.obj)

.debug_str      0x00000000    0x11a13
 .debug_str     0x00000000      0x997 examples/serial/CMakeFiles/serial_nrf52832_xxAA_s132_3.1.0.dir/src/main.c.obj
                                0xa69 (size before relaxing)
 .debug_str     0x00000997     0x18ff examples/serial/CMakeFiles/serial_nrf52832_xxAA_s132_3.1.0.dir/__/nrf_mesh_sdk.c.obj
                               0x21db (size before relaxing)
 .debug_str     0x00002296     0x26c3 examples/serial/CMakeFiles/serial_nrf52832_xxAA_s132_3.1.0.dir/__/__/mesh/prov/src/prov_provisioner.c.obj
                               0x309e (size before relaxing)
 .debug_str     0x00004959      0x204 examples/serial/CMakeFiles/serial_nrf52832_xxAA_s132_3.1.0.dir/__/__/mesh/prov/src/prov_provisionee.c.obj
                               0x31da (size before relaxing)
 .debug_str     0x00004b5d      0x1d5 examples/serial/CMakeFiles/serial_nrf52832_xxAA_s132_3.1.0.dir/__/__/mesh/prov/src/nrf_mesh_prov.c.obj
                               0x1cb5 (size before relaxing)
 .debug_str     0x00004d32      0x12a examples/serial/CMakeFiles/serial_nrf52832_xxAA_s132_3.1.0.dir/__/__/mesh/prov/src/provisioning.c.obj
                               0x1952 (size before relaxing)
 .debug_str     0x00004e5c      0x12d examples/serial/CMakeFiles/serial_nrf52832_xxAA_s132_3.1.0.dir/__/__/mesh/prov/src/prov_beacon.c.obj
                               0x22ac (size before relaxing)
 .debug_str     0x00004f89      0x223 examples/serial/CMakeFiles/serial_nrf52832_xxAA_s132_3.1.0.dir/__/__/mesh/prov/src/prov_utils.c.obj
                               0x2024 (size before relaxing)
 .debug_str     0x000051ac      0x5a8 examples/serial/CMakeFiles/serial_nrf52832_xxAA_s132_3.1.0.dir/__/__/mesh/prov/src/prov_bearer_adv.c.obj
                               0x1a7a (size before relaxing)
 .debug_str     0x00005754      0x3eb examples/serial/CMakeFiles/serial_nrf52832_xxAA_s132_3.1.0.dir/__/__/mesh/access/src/access_publish.c.obj
                                0xbe6 (size before relaxing)
 .debug_str     0x00005b3f     0x11e9 examples/serial/CMakeFiles/serial_nrf52832_xxAA_s132_3.1.0.dir/__/__/mesh/access/src/access.c.obj
                               0x3290 (size before relaxing)
 .debug_str     0x00006d28      0x209 examples/serial/CMakeFiles/serial_nrf52832_xxAA_s132_3.1.0.dir/__/__/mesh/access/src/access_reliable.c.obj
                                0xc93 (size before relaxing)
 .debug_str     0x00006f31     0x10b2 examples/serial/CMakeFiles/serial_nrf52832_xxAA_s132_3.1.0.dir/__/__/mesh/access/src/device_state_manager.c.obj
                               0x344b (size before relaxing)
 .debug_str     0x00007fe3      0x1f6 examples/serial/CMakeFiles/serial_nrf52832_xxAA_s132_3.1.0.dir/__/__/mesh/serial/src/serial_uart.c.obj
                                0xbed (size before relaxing)
 .debug_str     0x000081d9     0x1822 examples/serial/CMakeFiles/serial_nrf52832_xxAA_s132_3.1.0.dir/__/__/mesh/serial/src/serial_bearer.c.obj
                               0x29bc (size before relaxing)
 .debug_str     0x000099fb      0x132 examples/serial/CMakeFiles/serial_nrf52832_xxAA_s132_3.1.0.dir/__/__/mesh/serial/src/serial_handler_common.c.obj
                               0x2127 (size before relaxing)
 .debug_str     0x00009b2d      0x1c4 examples/serial/CMakeFiles/serial_nrf52832_xxAA_s132_3.1.0.dir/__/__/mesh/serial/src/serial_handler_access.c.obj
                               0x2604 (size before relaxing)
 .debug_str     0x00009cf1       0x86 examples/serial/CMakeFiles/serial_nrf52832_xxAA_s132_3.1.0.dir/__/__/mesh/serial/src/serial_handler_config.c.obj
                               0x20cb (size before relaxing)
 .debug_str     0x00009d77       0x58 examples/serial/CMakeFiles/serial_nrf52832_xxAA_s132_3.1.0.dir/__/__/mesh/serial/src/serial_handler_openmesh.c.obj
                               0x206e (size before relaxing)
 .debug_str     0x00009dcf      0x2a3 examples/serial/CMakeFiles/serial_nrf52832_xxAA_s132_3.1.0.dir/__/__/mesh/serial/src/serial.c.obj
                               0x2520 (size before relaxing)
 .debug_str     0x0000a072      0x1f4 examples/serial/CMakeFiles/serial_nrf52832_xxAA_s132_3.1.0.dir/__/__/mesh/serial/src/serial_handler_prov.c.obj
                               0x3968 (size before relaxing)
 .debug_str     0x0000a266      0x2b4 examples/serial/CMakeFiles/serial_nrf52832_xxAA_s132_3.1.0.dir/__/__/mesh/serial/src/serial_handler_dfu.c.obj
                               0x371d (size before relaxing)
 .debug_str     0x0000a51a      0x4a5 examples/serial/CMakeFiles/serial_nrf52832_xxAA_s132_3.1.0.dir/__/__/mesh/serial/src/serial_handler_mesh.c.obj
                               0x3c52 (size before relaxing)
 .debug_str     0x0000a9bf      0x17d examples/serial/CMakeFiles/serial_nrf52832_xxAA_s132_3.1.0.dir/__/__/mesh/serial/src/serial_handler_models.c.obj
                               0x22b5 (size before relaxing)
 .debug_str     0x0000ab3c      0x50b examples/serial/CMakeFiles/serial_nrf52832_xxAA_s132_3.1.0.dir/__/__/mesh/serial/src/serial_handler_device.c.obj
                               0x2c9b (size before relaxing)
 .debug_str     0x0000b047       0x88 examples/serial/CMakeFiles/serial_nrf52832_xxAA_s132_3.1.0.dir/__/__/mesh/serial/src/nrf_mesh_serial.c.obj
                               0x21e5 (size before relaxing)
 .debug_str     0x0000b0cf       0x4a examples/serial/CMakeFiles/serial_nrf52832_xxAA_s132_3.1.0.dir/__/__/mesh/serial/src/serial_handler_app.c.obj
                               0x2085 (size before relaxing)
 .debug_str     0x0000b119       0x3c examples/serial/CMakeFiles/serial_nrf52832_xxAA_s132_3.1.0.dir/__/nrf_mesh_weak.c.obj
                                0x653 (size before relaxing)
 .debug_str     0x0000b155      0x3a5 examples/serial/CMakeFiles/serial_nrf52832_xxAA_s132_3.1.0.dir/__/__/external/nRF5_SDK_14.0.0_3bcc1f7/components/toolchain/system_nrf52.c.obj
                                0x779 (size before relaxing)
 .debug_str     0x0000b4fa       0xee mesh/core/libmesh_core_nrf52832_xxAA.a(internal_event.c.obj)
                                0xa7e (size before relaxing)
 .debug_str     0x0000b5e8       0x52 mesh/core/libmesh_core_nrf52832_xxAA.a(nrf_mesh_configure.c.obj)
                                0x77e (size before relaxing)
 .debug_str     0x0000b63a       0xb9 mesh/core/libmesh_core_nrf52832_xxAA.a(event.c.obj)
                               0x1880 (size before relaxing)
 .debug_str     0x0000b6f3      0x2d4 mesh/core/libmesh_core_nrf52832_xxAA.a(packet_buffer.c.obj)
                                0xc35 (size before relaxing)
 .debug_str     0x0000b9c7       0x76 mesh/core/libmesh_core_nrf52832_xxAA.a(fifo.c.obj)
                                0x6f5 (size before relaxing)
 .debug_str     0x0000ba3d      0x34d mesh/core/libmesh_core_nrf52832_xxAA.a(net_state.c.obj)
                               0x2565 (size before relaxing)
 .debug_str     0x0000bd8a       0x8b mesh/core/libmesh_core_nrf52832_xxAA.a(nrf_mesh_utils.c.obj)
                                0x76b (size before relaxing)
 .debug_str     0x0000be15      0x410 mesh/core/libmesh_core_nrf52832_xxAA.a(nrf_mesh.c.obj)
                               0x3020 (size before relaxing)
 .debug_str     0x0000c225       0x98 mesh/core/libmesh_core_nrf52832_xxAA.a(hal.c.obj)
                                0x752 (size before relaxing)
 .debug_str     0x0000c2bd      0x13d mesh/core/libmesh_core_nrf52832_xxAA.a(timer_scheduler.c.obj)
                                0x94e (size before relaxing)
 .debug_str     0x0000c3fa      0x225 mesh/core/libmesh_core_nrf52832_xxAA.a(timer.c.obj)
                                0x883 (size before relaxing)
 .debug_str     0x0000c61f       0x3c mesh/core/libmesh_core_nrf52832_xxAA.a(ticker.c.obj)
                                0x34c (size before relaxing)
 .debug_str     0x0000c65b       0xac mesh/core/libmesh_core_nrf52832_xxAA.a(rand.c.obj)
                                0x6cf (size before relaxing)
 .debug_str     0x0000c707       0x75 mesh/core/libmesh_core_nrf52832_xxAA.a(nrf_mesh_opt.c.obj)
                                0x8d1 (size before relaxing)
 .debug_str     0x0000c77c      0x8ba mesh/core/libmesh_core_nrf52832_xxAA.a(timeslot.c.obj)
                               0x17e8 (size before relaxing)
 .debug_str     0x0000d036      0x24f mesh/core/libmesh_core_nrf52832_xxAA.a(bearer_event.c.obj)
                                0xe3b (size before relaxing)
 .debug_str     0x0000d285      0x1ad mesh/core/libmesh_core_nrf52832_xxAA.a(enc.c.obj)
                                0x9cd (size before relaxing)
 .debug_str     0x0000d432      0x688 mesh/core/libmesh_core_nrf52832_xxAA.a(network.c.obj)
                               0x187c (size before relaxing)
 .debug_str     0x0000daba       0x57 mesh/core/libmesh_core_nrf52832_xxAA.a(nrf_mesh_keygen.c.obj)
                                0x397 (size before relaxing)
 .debug_str     0x0000db11      0x182 mesh/core/libmesh_core_nrf52832_xxAA.a(log.c.obj)
                                0x7d6 (size before relaxing)
 .debug_str     0x0000dc93      0x72a mesh/core/libmesh_core_nrf52832_xxAA.a(flash_manager.c.obj)
                               0x1955 (size before relaxing)
 .debug_str     0x0000e3bd       0x85 mesh/core/libmesh_core_nrf52832_xxAA.a(ccm_soft.c.obj)
                                0x763 (size before relaxing)
 .debug_str     0x0000e442       0xa6 mesh/core/libmesh_core_nrf52832_xxAA.a(beacon.c.obj)
                               0x1093 (size before relaxing)
 .debug_str     0x0000e4e8       0x38 mesh/core/libmesh_core_nrf52832_xxAA.a(flash_manager_internal.c.obj)
                                0x7c4 (size before relaxing)
 .debug_str     0x0000e520      0x1cd mesh/core/libmesh_core_nrf52832_xxAA.a(core_tx.c.obj)
                               0x10d4 (size before relaxing)
 .debug_str     0x0000e6ed      0x198 mesh/core/libmesh_core_nrf52832_xxAA.a(net_beacon.c.obj)
                                0xcde (size before relaxing)
 .debug_str     0x0000e885      0x2ab mesh/core/libmesh_core_nrf52832_xxAA.a(advertiser.c.obj)
                               0x14fa (size before relaxing)
 .debug_str     0x0000eb30      0x34c mesh/core/libmesh_core_nrf52832_xxAA.a(bearer_handler.c.obj)
                                0xf95 (size before relaxing)
 .debug_str     0x0000ee7c      0x1ac mesh/core/libmesh_core_nrf52832_xxAA.a(broadcast.c.obj)
                                0xf38 (size before relaxing)
 .debug_str     0x0000f028       0x79 mesh/core/libmesh_core_nrf52832_xxAA.a(radio_config.c.obj)
                                0x780 (size before relaxing)
 .debug_str     0x0000f0a1      0x41f mesh/core/libmesh_core_nrf52832_xxAA.a(scanner.c.obj)
                               0x17e4 (size before relaxing)
 .debug_str     0x0000f4c0       0xc1 mesh/core/libmesh_core_nrf52832_xxAA.a(aes.c.obj)
                                0xa61 (size before relaxing)
 .debug_str     0x0000f581       0x68 mesh/core/libmesh_core_nrf52832_xxAA.a(msg_cache.c.obj)
                                0x6bf (size before relaxing)
 .debug_str     0x0000f5e9      0xe4a mesh/core/libmesh_core_nrf52832_xxAA.a(transport.c.obj)
                               0x3717 (size before relaxing)
 .debug_str     0x00010433      0x36b mesh/core/libmesh_core_nrf52832_xxAA.a(flash_manager_defrag.c.obj)
                               0x1513 (size before relaxing)
 .debug_str     0x0001079e      0x266 mesh/core/libmesh_core_nrf52832_xxAA.a(packet_mgr.c.obj)
                                0x9c8 (size before relaxing)
 .debug_str     0x00010a04      0x343 mesh/core/libmesh_core_nrf52832_xxAA.a(mesh_flash.c.obj)
                                0xcfc (size before relaxing)
 .debug_str     0x00010d47       0x19 mesh/core/libmesh_core_nrf52832_xxAA.a(queue.c.obj)
                                0x69d (size before relaxing)
 .debug_str     0x00010d60       0xb8 mesh/core/libmesh_core_nrf52832_xxAA.a(aes_cmac.c.obj)
                                0x71b (size before relaxing)
 .debug_str     0x00010e18       0x53 mesh/core/libmesh_core_nrf52832_xxAA.a(msqueue.c.obj)
                                0x6d9 (size before relaxing)
 .debug_str     0x00010e6b       0x9f mesh/core/libmesh_core_nrf52832_xxAA.a(replay_cache.c.obj)
                                0x6b0 (size before relaxing)
 .debug_str     0x00010f0a       0x92 mesh/core/libmesh_core_nrf52832_xxAA.a(filter_engine.c.obj)
                                0x844 (size before relaxing)
 .debug_str     0x00010f9c       0x36 mesh/core/libmesh_core_nrf52832_xxAA.a(nrf_flash.c.obj)
                                0x6ec (size before relaxing)
 .debug_str     0x00010fd2      0x691 external/micro-ecc/libuECC_nrf52832_xxAA.a(uECC.c.obj)
                                0x880 (size before relaxing)
 .debug_str     0x00011663      0x2d1 external/rtt/librtt_nrf52832_xxAA.a(SEGGER_RTT.c.obj)
                                0x922 (size before relaxing)
 .debug_str     0x00011934       0xdf external/rtt/librtt_nrf52832_xxAA.a(SEGGER_RTT_printf.c.obj)
                                0x792 (size before relaxing)

.debug_frame    0x00000000     0x6280
 .debug_frame   0x00000000       0x30 examples/serial/CMakeFiles/serial_nrf52832_xxAA_s132_3.1.0.dir/src/main.c.obj
 .debug_frame   0x00000030      0x158 examples/serial/CMakeFiles/serial_nrf52832_xxAA_s132_3.1.0.dir/__/nrf_mesh_sdk.c.obj
 .debug_frame   0x00000188      0x15c examples/serial/CMakeFiles/serial_nrf52832_xxAA_s132_3.1.0.dir/__/__/mesh/prov/src/prov_provisioner.c.obj
 .debug_frame   0x000002e4      0x16c examples/serial/CMakeFiles/serial_nrf52832_xxAA_s132_3.1.0.dir/__/__/mesh/prov/src/prov_provisionee.c.obj
 .debug_frame   0x00000450       0xcc examples/serial/CMakeFiles/serial_nrf52832_xxAA_s132_3.1.0.dir/__/__/mesh/prov/src/nrf_mesh_prov.c.obj
 .debug_frame   0x0000051c      0x27c examples/serial/CMakeFiles/serial_nrf52832_xxAA_s132_3.1.0.dir/__/__/mesh/prov/src/provisioning.c.obj
 .debug_frame   0x00000798       0x70 examples/serial/CMakeFiles/serial_nrf52832_xxAA_s132_3.1.0.dir/__/__/mesh/prov/src/prov_beacon.c.obj
 .debug_frame   0x00000808      0x11c examples/serial/CMakeFiles/serial_nrf52832_xxAA_s132_3.1.0.dir/__/__/mesh/prov/src/prov_utils.c.obj
 .debug_frame   0x00000924      0x2c4 examples/serial/CMakeFiles/serial_nrf52832_xxAA_s132_3.1.0.dir/__/__/mesh/prov/src/prov_bearer_adv.c.obj
 .debug_frame   0x00000be8       0xfc examples/serial/CMakeFiles/serial_nrf52832_xxAA_s132_3.1.0.dir/__/__/mesh/access/src/access_publish.c.obj
 .debug_frame   0x00000ce4      0x538 examples/serial/CMakeFiles/serial_nrf52832_xxAA_s132_3.1.0.dir/__/__/mesh/access/src/access.c.obj
 .debug_frame   0x0000121c      0x10c examples/serial/CMakeFiles/serial_nrf52832_xxAA_s132_3.1.0.dir/__/__/mesh/access/src/access_reliable.c.obj
 .debug_frame   0x00001328      0x984 examples/serial/CMakeFiles/serial_nrf52832_xxAA_s132_3.1.0.dir/__/__/mesh/access/src/device_state_manager.c.obj
 .debug_frame   0x00001cac       0xa0 examples/serial/CMakeFiles/serial_nrf52832_xxAA_s132_3.1.0.dir/__/__/mesh/serial/src/serial_uart.c.obj
 .debug_frame   0x00001d4c      0x140 examples/serial/CMakeFiles/serial_nrf52832_xxAA_s132_3.1.0.dir/__/__/mesh/serial/src/serial_bearer.c.obj
 .debug_frame   0x00001e8c       0x74 examples/serial/CMakeFiles/serial_nrf52832_xxAA_s132_3.1.0.dir/__/__/mesh/serial/src/serial_handler_common.c.obj
 .debug_frame   0x00001f00      0x2e0 examples/serial/CMakeFiles/serial_nrf52832_xxAA_s132_3.1.0.dir/__/__/mesh/serial/src/serial_handler_access.c.obj
 .debug_frame   0x000021e0       0x44 examples/serial/CMakeFiles/serial_nrf52832_xxAA_s132_3.1.0.dir/__/__/mesh/serial/src/serial_handler_config.c.obj
 .debug_frame   0x00002224       0x2c examples/serial/CMakeFiles/serial_nrf52832_xxAA_s132_3.1.0.dir/__/__/mesh/serial/src/serial_handler_openmesh.c.obj
 .debug_frame   0x00002250      0x11c examples/serial/CMakeFiles/serial_nrf52832_xxAA_s132_3.1.0.dir/__/__/mesh/serial/src/serial.c.obj
 .debug_frame   0x0000236c       0xd0 examples/serial/CMakeFiles/serial_nrf52832_xxAA_s132_3.1.0.dir/__/__/mesh/serial/src/serial_handler_prov.c.obj
 .debug_frame   0x0000243c       0x8c examples/serial/CMakeFiles/serial_nrf52832_xxAA_s132_3.1.0.dir/__/__/mesh/serial/src/serial_handler_dfu.c.obj
 .debug_frame   0x000024c8      0x43c examples/serial/CMakeFiles/serial_nrf52832_xxAA_s132_3.1.0.dir/__/__/mesh/serial/src/serial_handler_mesh.c.obj
 .debug_frame   0x00002904       0xbc examples/serial/CMakeFiles/serial_nrf52832_xxAA_s132_3.1.0.dir/__/__/mesh/serial/src/serial_handler_models.c.obj
 .debug_frame   0x000029c0      0x18c examples/serial/CMakeFiles/serial_nrf52832_xxAA_s132_3.1.0.dir/__/__/mesh/serial/src/serial_handler_device.c.obj
 .debug_frame   0x00002b4c       0x70 examples/serial/CMakeFiles/serial_nrf52832_xxAA_s132_3.1.0.dir/__/__/mesh/serial/src/nrf_mesh_serial.c.obj
 .debug_frame   0x00002bbc       0x3c examples/serial/CMakeFiles/serial_nrf52832_xxAA_s132_3.1.0.dir/__/__/mesh/serial/src/serial_handler_app.c.obj
 .debug_frame   0x00002bf8       0x30 examples/serial/CMakeFiles/serial_nrf52832_xxAA_s132_3.1.0.dir/__/nrf_mesh_weak.c.obj
 .debug_frame   0x00002c28       0x48 examples/serial/CMakeFiles/serial_nrf52832_xxAA_s132_3.1.0.dir/__/__/external/nRF5_SDK_14.0.0_3bcc1f7/components/toolchain/system_nrf52.c.obj
 .debug_frame   0x00002c70       0x48 mesh/core/libmesh_core_nrf52832_xxAA.a(internal_event.c.obj)
 .debug_frame   0x00002cb8       0x4c mesh/core/libmesh_core_nrf52832_xxAA.a(nrf_mesh_configure.c.obj)
 .debug_frame   0x00002d04       0x68 mesh/core/libmesh_core_nrf52832_xxAA.a(event.c.obj)
 .debug_frame   0x00002d6c      0x138 mesh/core/libmesh_core_nrf52832_xxAA.a(packet_buffer.c.obj)
 .debug_frame   0x00002ea4       0xdc mesh/core/libmesh_core_nrf52832_xxAA.a(fifo.c.obj)
 .debug_frame   0x00002f80      0x294 mesh/core/libmesh_core_nrf52832_xxAA.a(net_state.c.obj)
 .debug_frame   0x00003214       0x60 mesh/core/libmesh_core_nrf52832_xxAA.a(nrf_mesh_utils.c.obj)
 .debug_frame   0x00003274      0x13c mesh/core/libmesh_core_nrf52832_xxAA.a(nrf_mesh.c.obj)
 .debug_frame   0x000033b0       0x58 mesh/core/libmesh_core_nrf52832_xxAA.a(hal.c.obj)
 .debug_frame   0x00003408      0x104 mesh/core/libmesh_core_nrf52832_xxAA.a(timer_scheduler.c.obj)
 .debug_frame   0x0000350c      0x130 mesh/core/libmesh_core_nrf52832_xxAA.a(timer.c.obj)
 .debug_frame   0x0000363c       0x4c mesh/core/libmesh_core_nrf52832_xxAA.a(ticker.c.obj)
 .debug_frame   0x00003688       0x94 mesh/core/libmesh_core_nrf52832_xxAA.a(rand.c.obj)
 .debug_frame   0x0000371c       0x30 mesh/core/libmesh_core_nrf52832_xxAA.a(nrf_mesh_opt.c.obj)
 .debug_frame   0x0000374c      0x18c mesh/core/libmesh_core_nrf52832_xxAA.a(timeslot.c.obj)
 .debug_frame   0x000038d8      0x188 mesh/core/libmesh_core_nrf52832_xxAA.a(bearer_event.c.obj)
 .debug_frame   0x00003a60      0x160 mesh/core/libmesh_core_nrf52832_xxAA.a(enc.c.obj)
 .debug_frame   0x00003bc0      0x138 mesh/core/libmesh_core_nrf52832_xxAA.a(network.c.obj)
 .debug_frame   0x00003cf8       0xc8 mesh/core/libmesh_core_nrf52832_xxAA.a(nrf_mesh_keygen.c.obj)
 .debug_frame   0x00003dc0       0xc8 mesh/core/libmesh_core_nrf52832_xxAA.a(log.c.obj)
 .debug_frame   0x00003e88      0x250 mesh/core/libmesh_core_nrf52832_xxAA.a(flash_manager.c.obj)
 .debug_frame   0x000040d8       0xd0 mesh/core/libmesh_core_nrf52832_xxAA.a(ccm_soft.c.obj)
 .debug_frame   0x000041a8       0xcc mesh/core/libmesh_core_nrf52832_xxAA.a(beacon.c.obj)
 .debug_frame   0x00004274       0x34 mesh/core/libmesh_core_nrf52832_xxAA.a(flash_manager_internal.c.obj)
 .debug_frame   0x000042a8      0x178 mesh/core/libmesh_core_nrf52832_xxAA.a(core_tx.c.obj)
 .debug_frame   0x00004420       0xb8 mesh/core/libmesh_core_nrf52832_xxAA.a(net_beacon.c.obj)
 .debug_frame   0x000044d8      0x268 mesh/core/libmesh_core_nrf52832_xxAA.a(advertiser.c.obj)
 .debug_frame   0x00004740      0x168 mesh/core/libmesh_core_nrf52832_xxAA.a(bearer_handler.c.obj)
 .debug_frame   0x000048a8       0x74 mesh/core/libmesh_core_nrf52832_xxAA.a(broadcast.c.obj)
 .debug_frame   0x0000491c       0xa0 mesh/core/libmesh_core_nrf52832_xxAA.a(radio_config.c.obj)
 .debug_frame   0x000049bc      0x21c mesh/core/libmesh_core_nrf52832_xxAA.a(scanner.c.obj)
 .debug_frame   0x00004bd8       0x40 mesh/core/libmesh_core_nrf52832_xxAA.a(aes.c.obj)
 .debug_frame   0x00004c18       0x80 mesh/core/libmesh_core_nrf52832_xxAA.a(msg_cache.c.obj)
 .debug_frame   0x00004c98      0x350 mesh/core/libmesh_core_nrf52832_xxAA.a(transport.c.obj)
 .debug_frame   0x00004fe8      0x264 mesh/core/libmesh_core_nrf52832_xxAA.a(flash_manager_defrag.c.obj)
 .debug_frame   0x0000524c       0xb0 mesh/core/libmesh_core_nrf52832_xxAA.a(packet_mgr.c.obj)
 .debug_frame   0x000052fc      0x164 mesh/core/libmesh_core_nrf52832_xxAA.a(mesh_flash.c.obj)
 .debug_frame   0x00005460       0x74 mesh/core/libmesh_core_nrf52832_xxAA.a(queue.c.obj)
 .debug_frame   0x000054d4       0x60 mesh/core/libmesh_core_nrf52832_xxAA.a(aes_cmac.c.obj)
 .debug_frame   0x00005534       0x94 mesh/core/libmesh_core_nrf52832_xxAA.a(msqueue.c.obj)
 .debug_frame   0x000055c8       0xe8 mesh/core/libmesh_core_nrf52832_xxAA.a(replay_cache.c.obj)
 .debug_frame   0x000056b0       0x74 mesh/core/libmesh_core_nrf52832_xxAA.a(filter_engine.c.obj)
 .debug_frame   0x00005724       0x3c mesh/core/libmesh_core_nrf52832_xxAA.a(nrf_flash.c.obj)
 .debug_frame   0x00005760      0x4c0 external/micro-ecc/libuECC_nrf52832_xxAA.a(uECC.c.obj)
 .debug_frame   0x00005c20      0x2fc external/rtt/librtt_nrf52832_xxAA.a(SEGGER_RTT.c.obj)
 .debug_frame   0x00005f1c       0xa0 external/rtt/librtt_nrf52832_xxAA.a(SEGGER_RTT_printf.c.obj)
 .debug_frame   0x00005fbc       0x28 c:/a/gcc_arm/6/bin/../lib/gcc/arm-none-eabi/6.3.1/../../../../arm-none-eabi/lib/thumb/v7e-m/fpv4-sp/hard\libg_nano.a(lib_a-exit.o)
 .debug_frame   0x00005fe4       0x2c c:/a/gcc_arm/6/bin/../lib/gcc/arm-none-eabi/6.3.1/../../../../arm-none-eabi/lib/thumb/v7e-m/fpv4-sp/hard\libg_nano.a(lib_a-init.o)
 .debug_frame   0x00006010       0x30 c:/a/gcc_arm/6/bin/../lib/gcc/arm-none-eabi/6.3.1/../../../../arm-none-eabi/lib/thumb/v7e-m/fpv4-sp/hard\libg_nano.a(lib_a-malloc.o)
 .debug_frame   0x00006040       0x28 c:/a/gcc_arm/6/bin/../lib/gcc/arm-none-eabi/6.3.1/../../../../arm-none-eabi/lib/thumb/v7e-m/fpv4-sp/hard\libg_nano.a(lib_a-memcmp.o)
 .debug_frame   0x00006068       0x28 c:/a/gcc_arm/6/bin/../lib/gcc/arm-none-eabi/6.3.1/../../../../arm-none-eabi/lib/thumb/v7e-m/fpv4-sp/hard\libg_nano.a(lib_a-memcpy-stub.o)
 .debug_frame   0x00006090       0x20 c:/a/gcc_arm/6/bin/../lib/gcc/arm-none-eabi/6.3.1/../../../../arm-none-eabi/lib/thumb/v7e-m/fpv4-sp/hard\libg_nano.a(lib_a-memset.o)
 .debug_frame   0x000060b0       0x38 c:/a/gcc_arm/6/bin/../lib/gcc/arm-none-eabi/6.3.1/../../../../arm-none-eabi/lib/thumb/v7e-m/fpv4-sp/hard\libg_nano.a(lib_a-nano-freer.o)
 .debug_frame   0x000060e8       0x2c c:/a/gcc_arm/6/bin/../lib/gcc/arm-none-eabi/6.3.1/../../../../arm-none-eabi/lib/thumb/v7e-m/fpv4-sp/hard\libg_nano.a(lib_a-nano-mallocr.o)
 .debug_frame   0x00006114       0x2c c:/a/gcc_arm/6/bin/../lib/gcc/arm-none-eabi/6.3.1/../../../../arm-none-eabi/lib/thumb/v7e-m/fpv4-sp/hard\libg_nano.a(lib_a-sbrkr.o)
 .debug_frame   0x00006140       0x20 c:/a/gcc_arm/6/bin/../lib/gcc/arm-none-eabi/6.3.1/../../../../arm-none-eabi/lib/thumb/v7e-m/fpv4-sp/hard\libg_nano.a(lib_a-strcpy.o)
 .debug_frame   0x00006160       0x34 c:/a/gcc_arm/6/bin/../lib/gcc/arm-none-eabi/6.3.1/../../../../arm-none-eabi/lib/thumb/v7e-m/fpv4-sp/hard\libg_nano.a(lib_a-strrchr.o)
 .debug_frame   0x00006194       0x30 c:/a/gcc_arm/6/bin/../lib/gcc/arm-none-eabi/6.3.1/../../../../arm-none-eabi/lib/thumb/v7e-m/fpv4-sp/hard\libg_nano.a(lib_a-mlock.o)
 .debug_frame   0x000061c4       0x5c c:/a/gcc_arm/6/bin/../lib/gcc/arm-none-eabi/6.3.1/../../../../arm-none-eabi/lib/thumb/v7e-m/fpv4-sp/hard\libg_nano.a(lib_a-reent.o)
 .debug_frame   0x00006220       0x20 c:/a/gcc_arm/6/bin/../lib/gcc/arm-none-eabi/6.3.1/../../../../arm-none-eabi/lib/thumb/v7e-m/fpv4-sp/hard\libg_nano.a(lib_a-strchr.o)
 .debug_frame   0x00006240       0x20 c:/a/gcc_arm/6/bin/../lib/gcc/arm-none-eabi/6.3.1/../../../../arm-none-eabi/lib/thumb/v7e-m/fpv4-sp/hard\libnosys.a(sbrk.o)
 .debug_frame   0x00006260       0x20 c:/a/gcc_arm/6/bin/../lib/gcc/arm-none-eabi/6.3.1/../../../../arm-none-eabi/lib/thumb/v7e-m/fpv4-sp/hard\libnosys.a(_exit.o)
