Archive member included to satisfy reference by file (symbol)

mesh/core/libmesh_core_nrf52840_xxAA.a(event.c.obj)
                              examples/beaconing/CMakeFiles/beaconing_nrf52840_xxAA_s140_5.0.0-3.alpha.dir/__/__/mesh/access/src/access.c.obj (event_handle)
mesh/core/libmesh_core_nrf52840_xxAA.a(net_state.c.obj)
                              examples/beaconing/CMakeFiles/beaconing_nrf52840_xxAA_s140_5.0.0-3.alpha.dir/__/__/mesh/access/src/device_state_manager.c.obj (net_state_flash_area_get)
mesh/core/libmesh_core_nrf52840_xxAA.a(nrf_mesh_utils.c.obj)
                              examples/beaconing/CMakeFiles/beaconing_nrf52840_xxAA_s140_5.0.0-3.alpha.dir/__/__/mesh/access/src/device_state_manager.c.obj (nrf_mesh_address_type_get)
mesh/core/libmesh_core_nrf52840_xxAA.a(nrf_mesh.c.obj)
                              examples/beaconing/CMakeFiles/beaconing_nrf52840_xxAA_s140_5.0.0-3.alpha.dir/__/nrf_mesh_sdk.c.obj (nrf_mesh_init)
mesh/core/libmesh_core_nrf52840_xxAA.a(hal.c.obj)
                              mesh/core/libmesh_core_nrf52840_xxAA.a(nrf_mesh.c.obj) (hal_lfclk_ppm_get)
mesh/core/libmesh_core_nrf52840_xxAA.a(timer_scheduler.c.obj)
                              mesh/core/libmesh_core_nrf52840_xxAA.a(nrf_mesh.c.obj) (timer_sch_init)
mesh/core/libmesh_core_nrf52840_xxAA.a(timer.c.obj)
                              mesh/core/libmesh_core_nrf52840_xxAA.a(timer_scheduler.c.obj) (timer_order_cb)
mesh/core/libmesh_core_nrf52840_xxAA.a(ticker.c.obj)
                              mesh/core/libmesh_core_nrf52840_xxAA.a(nrf_mesh.c.obj) (ticker_init)
mesh/core/libmesh_core_nrf52840_xxAA.a(rand.c.obj)
                              mesh/core/libmesh_core_nrf52840_xxAA.a(nrf_mesh_utils.c.obj) (rand_hw_rng_get)
mesh/core/libmesh_core_nrf52840_xxAA.a(timeslot.c.obj)
                              mesh/core/libmesh_core_nrf52840_xxAA.a(nrf_mesh.c.obj) (timeslot_sd_event_handler)
mesh/core/libmesh_core_nrf52840_xxAA.a(bearer_event.c.obj)
                              mesh/core/libmesh_core_nrf52840_xxAA.a(nrf_mesh.c.obj) (bearer_event_init)
mesh/core/libmesh_core_nrf52840_xxAA.a(network.c.obj)
                              mesh/core/libmesh_core_nrf52840_xxAA.a(nrf_mesh.c.obj) (network_init)
mesh/core/libmesh_core_nrf52840_xxAA.a(nrf_mesh_keygen.c.obj)
                              examples/beaconing/CMakeFiles/beaconing_nrf52840_xxAA_s140_5.0.0-3.alpha.dir/__/__/mesh/access/src/device_state_manager.c.obj (nrf_mesh_keygen_aid)
mesh/core/libmesh_core_nrf52840_xxAA.a(log.c.obj)
                              examples/beaconing/CMakeFiles/beaconing_nrf52840_xxAA_s140_5.0.0-3.alpha.dir/src/main.c.obj (log_callback_rtt)
mesh/core/libmesh_core_nrf52840_xxAA.a(flash_manager.c.obj)
                              mesh/core/libmesh_core_nrf52840_xxAA.a(nrf_mesh.c.obj) (flash_manager_init)
mesh/core/libmesh_core_nrf52840_xxAA.a(beacon.c.obj)
                              mesh/core/libmesh_core_nrf52840_xxAA.a(nrf_mesh.c.obj) (beacon_init)
mesh/core/libmesh_core_nrf52840_xxAA.a(flash_manager_internal.c.obj)
                              mesh/core/libmesh_core_nrf52840_xxAA.a(flash_manager.c.obj) (entry_get)
mesh/core/libmesh_core_nrf52840_xxAA.a(core_tx.c.obj)
                              mesh/core/libmesh_core_nrf52840_xxAA.a(nrf_mesh.c.obj) (core_tx_init)
mesh/core/libmesh_core_nrf52840_xxAA.a(net_beacon.c.obj)
                              mesh/core/libmesh_core_nrf52840_xxAA.a(network.c.obj) (net_beacon_init)
mesh/core/libmesh_core_nrf52840_xxAA.a(advertiser.c.obj)
                              mesh/core/libmesh_core_nrf52840_xxAA.a(nrf_mesh.c.obj) (advertiser_init)
mesh/core/libmesh_core_nrf52840_xxAA.a(bearer_handler.c.obj)
                              mesh/core/libmesh_core_nrf52840_xxAA.a(nrf_mesh.c.obj) (bearer_handler_init)
mesh/core/libmesh_core_nrf52840_xxAA.a(broadcast.c.obj)
                              mesh/core/libmesh_core_nrf52840_xxAA.a(advertiser.c.obj) (broadcast_send)
mesh/core/libmesh_core_nrf52840_xxAA.a(radio_config.c.obj)
                              mesh/core/libmesh_core_nrf52840_xxAA.a(broadcast.c.obj) (radio_config_reset)
mesh/core/libmesh_core_nrf52840_xxAA.a(scanner.c.obj)
                              mesh/core/libmesh_core_nrf52840_xxAA.a(bearer_handler.c.obj) (scanner_radio_start)
mesh/core/libmesh_core_nrf52840_xxAA.a(internal_event.c.obj)
                              mesh/core/libmesh_core_nrf52840_xxAA.a(network.c.obj) (internal_event_push)
mesh/core/libmesh_core_nrf52840_xxAA.a(nrf_mesh_configure.c.obj)
                              mesh/core/libmesh_core_nrf52840_xxAA.a(nrf_mesh.c.obj) (nrf_mesh_configure_device_uuid_reset)
mesh/core/libmesh_core_nrf52840_xxAA.a(msg_cache.c.obj)
                              mesh/core/libmesh_core_nrf52840_xxAA.a(nrf_mesh.c.obj) (msg_cache_init)
mesh/core/libmesh_core_nrf52840_xxAA.a(transport.c.obj)
                              mesh/core/libmesh_core_nrf52840_xxAA.a(nrf_mesh.c.obj) (transport_init)
mesh/core/libmesh_core_nrf52840_xxAA.a(packet_buffer.c.obj)
                              mesh/core/libmesh_core_nrf52840_xxAA.a(flash_manager.c.obj) (packet_buffer_init)
mesh/core/libmesh_core_nrf52840_xxAA.a(flash_manager_defrag.c.obj)
                              mesh/core/libmesh_core_nrf52840_xxAA.a(flash_manager.c.obj) (flash_manager_defrag_init)
mesh/core/libmesh_core_nrf52840_xxAA.a(fifo.c.obj)
                              mesh/core/libmesh_core_nrf52840_xxAA.a(bearer_event.c.obj) (fifo_init)
mesh/core/libmesh_core_nrf52840_xxAA.a(packet_mgr.c.obj)
                              mesh/core/libmesh_core_nrf52840_xxAA.a(nrf_mesh.c.obj) (packet_mgr_init)
mesh/core/libmesh_core_nrf52840_xxAA.a(mesh_flash.c.obj)
                              mesh/core/libmesh_core_nrf52840_xxAA.a(flash_manager.c.obj) (mesh_flash_user_callback_set)
mesh/core/libmesh_core_nrf52840_xxAA.a(queue.c.obj)
                              mesh/core/libmesh_core_nrf52840_xxAA.a(bearer_event.c.obj) (queue_init)
mesh/core/libmesh_core_nrf52840_xxAA.a(enc.c.obj)
                              mesh/core/libmesh_core_nrf52840_xxAA.a(network.c.obj) (enc_aes_encrypt)
mesh/core/libmesh_core_nrf52840_xxAA.a(msqueue.c.obj)
                              mesh/core/libmesh_core_nrf52840_xxAA.a(mesh_flash.c.obj) (msq_init)
mesh/core/libmesh_core_nrf52840_xxAA.a(ccm_soft.c.obj)
                              mesh/core/libmesh_core_nrf52840_xxAA.a(enc.c.obj) (ccm_soft_encrypt)
mesh/core/libmesh_core_nrf52840_xxAA.a(replay_cache.c.obj)
                              mesh/core/libmesh_core_nrf52840_xxAA.a(transport.c.obj) (replay_cache_init)
mesh/core/libmesh_core_nrf52840_xxAA.a(filter_engine.c.obj)
                              mesh/core/libmesh_core_nrf52840_xxAA.a(scanner.c.obj) (fen_filters_apply)
mesh/core/libmesh_core_nrf52840_xxAA.a(aes.c.obj)
                              mesh/core/libmesh_core_nrf52840_xxAA.a(enc.c.obj) (aes_encrypt)
mesh/core/libmesh_core_nrf52840_xxAA.a(nrf_flash.c.obj)
                              mesh/core/libmesh_core_nrf52840_xxAA.a(mesh_flash.c.obj) (nrf_flash_erase)
mesh/core/libmesh_core_nrf52840_xxAA.a(aes_cmac.c.obj)
                              mesh/core/libmesh_core_nrf52840_xxAA.a(enc.c.obj) (aes_cmac)
external/rtt/librtt_nrf52840_xxAA.a(SEGGER_RTT.c.obj)
                              mesh/core/libmesh_core_nrf52840_xxAA.a(log.c.obj) (SEGGER_RTT_Write)
external/rtt/librtt_nrf52840_xxAA.a(SEGGER_RTT_printf.c.obj)
                              mesh/core/libmesh_core_nrf52840_xxAA.a(log.c.obj) (SEGGER_RTT_vprintf)
c:/a/gcc_arm/6/bin/../lib/gcc/arm-none-eabi/6.3.1/../../../../arm-none-eabi/lib/thumb/v7e-m/fpv4-sp/hard\libc_nano.a(lib_a-exit.o)
                              c:/a/gcc_arm/6/bin/../lib/gcc/arm-none-eabi/6.3.1/../../../../arm-none-eabi/lib/thumb/v7e-m/fpv4-sp/hard/crt0.o (exit)
c:/a/gcc_arm/6/bin/../lib/gcc/arm-none-eabi/6.3.1/../../../../arm-none-eabi/lib/thumb/v7e-m/fpv4-sp/hard\libc_nano.a(lib_a-impure.o)
                              c:/a/gcc_arm/6/bin/../lib/gcc/arm-none-eabi/6.3.1/../../../../arm-none-eabi/lib/thumb/v7e-m/fpv4-sp/hard\libc_nano.a(lib_a-exit.o) (_global_impure_ptr)
c:/a/gcc_arm/6/bin/../lib/gcc/arm-none-eabi/6.3.1/../../../../arm-none-eabi/lib/thumb/v7e-m/fpv4-sp/hard\libc_nano.a(lib_a-init.o)
                              c:/a/gcc_arm/6/bin/../lib/gcc/arm-none-eabi/6.3.1/../../../../arm-none-eabi/lib/thumb/v7e-m/fpv4-sp/hard/crt0.o (__libc_init_array)
c:/a/gcc_arm/6/bin/../lib/gcc/arm-none-eabi/6.3.1/../../../../arm-none-eabi/lib/thumb/v7e-m/fpv4-sp/hard\libc_nano.a(lib_a-malloc.o)
                              mesh/core/libmesh_core_nrf52840_xxAA.a(transport.c.obj) (malloc)
c:/a/gcc_arm/6/bin/../lib/gcc/arm-none-eabi/6.3.1/../../../../arm-none-eabi/lib/thumb/v7e-m/fpv4-sp/hard\libc_nano.a(lib_a-memcmp.o)
                              examples/beaconing/CMakeFiles/beaconing_nrf52840_xxAA_s140_5.0.0-3.alpha.dir/__/__/mesh/access/src/device_state_manager.c.obj (memcmp)
c:/a/gcc_arm/6/bin/../lib/gcc/arm-none-eabi/6.3.1/../../../../arm-none-eabi/lib/thumb/v7e-m/fpv4-sp/hard\libc_nano.a(lib_a-memcpy-stub.o)
                              examples/beaconing/CMakeFiles/beaconing_nrf52840_xxAA_s140_5.0.0-3.alpha.dir/src/main.c.obj (memcpy)
c:/a/gcc_arm/6/bin/../lib/gcc/arm-none-eabi/6.3.1/../../../../arm-none-eabi/lib/thumb/v7e-m/fpv4-sp/hard\libc_nano.a(lib_a-memset.o)
                              c:/a/gcc_arm/6/bin/../lib/gcc/arm-none-eabi/6.3.1/../../../../arm-none-eabi/lib/thumb/v7e-m/fpv4-sp/hard/crt0.o (memset)
c:/a/gcc_arm/6/bin/../lib/gcc/arm-none-eabi/6.3.1/../../../../arm-none-eabi/lib/thumb/v7e-m/fpv4-sp/hard\libc_nano.a(lib_a-nano-freer.o)
                              c:/a/gcc_arm/6/bin/../lib/gcc/arm-none-eabi/6.3.1/../../../../arm-none-eabi/lib/thumb/v7e-m/fpv4-sp/hard\libc_nano.a(lib_a-malloc.o) (_free_r)
c:/a/gcc_arm/6/bin/../lib/gcc/arm-none-eabi/6.3.1/../../../../arm-none-eabi/lib/thumb/v7e-m/fpv4-sp/hard\libc_nano.a(lib_a-nano-mallocr.o)
                              c:/a/gcc_arm/6/bin/../lib/gcc/arm-none-eabi/6.3.1/../../../../arm-none-eabi/lib/thumb/v7e-m/fpv4-sp/hard\libc_nano.a(lib_a-malloc.o) (_malloc_r)
c:/a/gcc_arm/6/bin/../lib/gcc/arm-none-eabi/6.3.1/../../../../arm-none-eabi/lib/thumb/v7e-m/fpv4-sp/hard\libc_nano.a(lib_a-sbrkr.o)
                              c:/a/gcc_arm/6/bin/../lib/gcc/arm-none-eabi/6.3.1/../../../../arm-none-eabi/lib/thumb/v7e-m/fpv4-sp/hard\libc_nano.a(lib_a-nano-mallocr.o) (_sbrk_r)
c:/a/gcc_arm/6/bin/../lib/gcc/arm-none-eabi/6.3.1/../../../../arm-none-eabi/lib/thumb/v7e-m/fpv4-sp/hard\libc_nano.a(lib_a-sprintf.o)
                              examples/beaconing/CMakeFiles/beaconing_nrf52840_xxAA_s140_5.0.0-3.alpha.dir/src/main.c.obj (sprintf)
c:/a/gcc_arm/6/bin/../lib/gcc/arm-none-eabi/6.3.1/../../../../arm-none-eabi/lib/thumb/v7e-m/fpv4-sp/hard\libc_nano.a(lib_a-strcpy.o)
                              external/rtt/librtt_nrf52840_xxAA.a(SEGGER_RTT.c.obj) (strcpy)
c:/a/gcc_arm/6/bin/../lib/gcc/arm-none-eabi/6.3.1/../../../../arm-none-eabi/lib/thumb/v7e-m/fpv4-sp/hard\libc_nano.a(lib_a-strlen.o)
                              external/rtt/librtt_nrf52840_xxAA.a(SEGGER_RTT.c.obj) (strlen)
c:/a/gcc_arm/6/bin/../lib/gcc/arm-none-eabi/6.3.1/../../../../arm-none-eabi/lib/thumb/v7e-m/fpv4-sp/hard\libc_nano.a(lib_a-strrchr.o)
                              examples/beaconing/CMakeFiles/beaconing_nrf52840_xxAA_s140_5.0.0-3.alpha.dir/src/main.c.obj (strrchr)
c:/a/gcc_arm/6/bin/../lib/gcc/arm-none-eabi/6.3.1/../../../../arm-none-eabi/lib/thumb/v7e-m/fpv4-sp/hard\libc_nano.a(lib_a-mlock.o)
                              c:/a/gcc_arm/6/bin/../lib/gcc/arm-none-eabi/6.3.1/../../../../arm-none-eabi/lib/thumb/v7e-m/fpv4-sp/hard\libc_nano.a(lib_a-nano-freer.o) (__malloc_lock)
c:/a/gcc_arm/6/bin/../lib/gcc/arm-none-eabi/6.3.1/../../../../arm-none-eabi/lib/thumb/v7e-m/fpv4-sp/hard\libc_nano.a(lib_a-nano-svfprintf.o)
                              c:/a/gcc_arm/6/bin/../lib/gcc/arm-none-eabi/6.3.1/../../../../arm-none-eabi/lib/thumb/v7e-m/fpv4-sp/hard\libc_nano.a(lib_a-sprintf.o) (_svfprintf_r)
c:/a/gcc_arm/6/bin/../lib/gcc/arm-none-eabi/6.3.1/../../../../arm-none-eabi/lib/thumb/v7e-m/fpv4-sp/hard\libc_nano.a(lib_a-nano-vfprintf_i.o)
                              c:/a/gcc_arm/6/bin/../lib/gcc/arm-none-eabi/6.3.1/../../../../arm-none-eabi/lib/thumb/v7e-m/fpv4-sp/hard\libc_nano.a(lib_a-nano-svfprintf.o) (_printf_i)
c:/a/gcc_arm/6/bin/../lib/gcc/arm-none-eabi/6.3.1/../../../../arm-none-eabi/lib/thumb/v7e-m/fpv4-sp/hard\libc_nano.a(lib_a-reent.o)
                              c:/a/gcc_arm/6/bin/../lib/gcc/arm-none-eabi/6.3.1/../../../../arm-none-eabi/lib/thumb/v7e-m/fpv4-sp/hard\libc_nano.a(lib_a-sbrkr.o) (errno)
c:/a/gcc_arm/6/bin/../lib/gcc/arm-none-eabi/6.3.1/../../../../arm-none-eabi/lib/thumb/v7e-m/fpv4-sp/hard\libc_nano.a(lib_a-strchr.o)
                              c:/a/gcc_arm/6/bin/../lib/gcc/arm-none-eabi/6.3.1/../../../../arm-none-eabi/lib/thumb/v7e-m/fpv4-sp/hard\libc_nano.a(lib_a-strrchr.o) (strchr)
c:/a/gcc_arm/6/bin/../lib/gcc/arm-none-eabi/6.3.1/../../../../arm-none-eabi/lib/thumb/v7e-m/fpv4-sp/hard\libc_nano.a(lib_a-memchr.o)
                              c:/a/gcc_arm/6/bin/../lib/gcc/arm-none-eabi/6.3.1/../../../../arm-none-eabi/lib/thumb/v7e-m/fpv4-sp/hard\libc_nano.a(lib_a-nano-svfprintf.o) (memchr)
c:/a/gcc_arm/6/bin/../lib/gcc/arm-none-eabi/6.3.1/../../../../arm-none-eabi/lib/thumb/v7e-m/fpv4-sp/hard\libc_nano.a(lib_a-memmove.o)
                              c:/a/gcc_arm/6/bin/../lib/gcc/arm-none-eabi/6.3.1/../../../../arm-none-eabi/lib/thumb/v7e-m/fpv4-sp/hard\libc_nano.a(lib_a-nano-svfprintf.o) (memmove)
c:/a/gcc_arm/6/bin/../lib/gcc/arm-none-eabi/6.3.1/../../../../arm-none-eabi/lib/thumb/v7e-m/fpv4-sp/hard\libc_nano.a(lib_a-nano-reallocr.o)
                              c:/a/gcc_arm/6/bin/../lib/gcc/arm-none-eabi/6.3.1/../../../../arm-none-eabi/lib/thumb/v7e-m/fpv4-sp/hard\libc_nano.a(lib_a-nano-svfprintf.o) (_realloc_r)
c:/a/gcc_arm/6/bin/../lib/gcc/arm-none-eabi/6.3.1/../../../../arm-none-eabi/lib/thumb/v7e-m/fpv4-sp/hard\libc_nano.a(lib_a-nano-msizer.o)
                              c:/a/gcc_arm/6/bin/../lib/gcc/arm-none-eabi/6.3.1/../../../../arm-none-eabi/lib/thumb/v7e-m/fpv4-sp/hard\libc_nano.a(lib_a-nano-reallocr.o) (_malloc_usable_size_r)
c:/a/gcc_arm/6/bin/../lib/gcc/arm-none-eabi/6.3.1/../../../../arm-none-eabi/lib/thumb/v7e-m/fpv4-sp/hard\libnosys.a(sbrk.o)
                              c:/a/gcc_arm/6/bin/../lib/gcc/arm-none-eabi/6.3.1/../../../../arm-none-eabi/lib/thumb/v7e-m/fpv4-sp/hard\libc_nano.a(lib_a-sbrkr.o) (_sbrk)
c:/a/gcc_arm/6/bin/../lib/gcc/arm-none-eabi/6.3.1/../../../../arm-none-eabi/lib/thumb/v7e-m/fpv4-sp/hard\libnosys.a(_exit.o)
                              c:/a/gcc_arm/6/bin/../lib/gcc/arm-none-eabi/6.3.1/../../../../arm-none-eabi/lib/thumb/v7e-m/fpv4-sp/hard\libc_nano.a(lib_a-exit.o) (_exit)

Allocating common symbols
Common symbol       size              file

nrf_nvic_state      0xc               examples/beaconing/CMakeFiles/beaconing_nrf52840_xxAA_s140_5.0.0-3.alpha.dir/__/nrf_mesh_sdk.c.obj
errno               0x4               c:/a/gcc_arm/6/bin/../lib/gcc/arm-none-eabi/6.3.1/../../../../arm-none-eabi/lib/thumb/v7e-m/fpv4-sp/hard\libc_nano.a(lib_a-reent.o)
m_assertion_handler
                    0x4               mesh/core/libmesh_core_nrf52840_xxAA.a(nrf_mesh.c.obj)
_SEGGER_RTT         0x78              external/rtt/librtt_nrf52840_xxAA.a(SEGGER_RTT.c.obj)

Discarded input sections

 .text          0x00000000        0x0 c:/a/gcc_arm/6/bin/../lib/gcc/arm-none-eabi/6.3.1/thumb/v7e-m/fpv4-sp/hard/crti.o
 .data          0x00000000        0x0 c:/a/gcc_arm/6/bin/../lib/gcc/arm-none-eabi/6.3.1/thumb/v7e-m/fpv4-sp/hard/crti.o
 .bss           0x00000000        0x0 c:/a/gcc_arm/6/bin/../lib/gcc/arm-none-eabi/6.3.1/thumb/v7e-m/fpv4-sp/hard/crti.o
 .data          0x00000000        0x4 c:/a/gcc_arm/6/bin/../lib/gcc/arm-none-eabi/6.3.1/thumb/v7e-m/fpv4-sp/hard/crtbegin.o
 .data          0x00000000        0x0 c:/a/gcc_arm/6/bin/../lib/gcc/arm-none-eabi/6.3.1/../../../../arm-none-eabi/lib/thumb/v7e-m/fpv4-sp/hard/crt0.o
 .bss           0x00000000        0x0 c:/a/gcc_arm/6/bin/../lib/gcc/arm-none-eabi/6.3.1/../../../../arm-none-eabi/lib/thumb/v7e-m/fpv4-sp/hard/crt0.o
 .ARM.extab     0x00000000        0x0 c:/a/gcc_arm/6/bin/../lib/gcc/arm-none-eabi/6.3.1/../../../../arm-none-eabi/lib/thumb/v7e-m/fpv4-sp/hard/crt0.o
 .text          0x00000000        0x0 examples/beaconing/CMakeFiles/beaconing_nrf52840_xxAA_s140_5.0.0-3.alpha.dir/src/main.c.obj
 .data          0x00000000        0x0 examples/beaconing/CMakeFiles/beaconing_nrf52840_xxAA_s140_5.0.0-3.alpha.dir/src/main.c.obj
 .bss           0x00000000        0x0 examples/beaconing/CMakeFiles/beaconing_nrf52840_xxAA_s140_5.0.0-3.alpha.dir/src/main.c.obj
 .text          0x00000000        0x0 examples/beaconing/CMakeFiles/beaconing_nrf52840_xxAA_s140_5.0.0-3.alpha.dir/__/nrf_mesh_sdk.c.obj
 .data          0x00000000        0x0 examples/beaconing/CMakeFiles/beaconing_nrf52840_xxAA_s140_5.0.0-3.alpha.dir/__/nrf_mesh_sdk.c.obj
 .bss           0x00000000        0x0 examples/beaconing/CMakeFiles/beaconing_nrf52840_xxAA_s140_5.0.0-3.alpha.dir/__/nrf_mesh_sdk.c.obj
 .text.mesh_softdevice_setup
                0x00000000      0x1b4 examples/beaconing/CMakeFiles/beaconing_nrf52840_xxAA_s140_5.0.0-3.alpha.dir/__/nrf_mesh_sdk.c.obj
 .text          0x00000000        0x0 examples/beaconing/CMakeFiles/beaconing_nrf52840_xxAA_s140_5.0.0-3.alpha.dir/__/__/mesh/access/src/access_publish.c.obj
 .data          0x00000000        0x0 examples/beaconing/CMakeFiles/beaconing_nrf52840_xxAA_s140_5.0.0-3.alpha.dir/__/__/mesh/access/src/access_publish.c.obj
 .bss           0x00000000        0x0 examples/beaconing/CMakeFiles/beaconing_nrf52840_xxAA_s140_5.0.0-3.alpha.dir/__/__/mesh/access/src/access_publish.c.obj
 .text.add_to_publication_list
                0x00000000       0x8c examples/beaconing/CMakeFiles/beaconing_nrf52840_xxAA_s140_5.0.0-3.alpha.dir/__/__/mesh/access/src/access_publish.c.obj
 .text.schedule_publication_timer
                0x00000000      0x2f4 examples/beaconing/CMakeFiles/beaconing_nrf52840_xxAA_s140_5.0.0-3.alpha.dir/__/__/mesh/access/src/access_publish.c.obj
 .text.publish_timer_tick
                0x00000000       0xd0 examples/beaconing/CMakeFiles/beaconing_nrf52840_xxAA_s140_5.0.0-3.alpha.dir/__/__/mesh/access/src/access_publish.c.obj
 .text.access_publish_init
                0x00000000       0x38 examples/beaconing/CMakeFiles/beaconing_nrf52840_xxAA_s140_5.0.0-3.alpha.dir/__/__/mesh/access/src/access_publish.c.obj
 .text.access_publish_period_set
                0x00000000       0xa4 examples/beaconing/CMakeFiles/beaconing_nrf52840_xxAA_s140_5.0.0-3.alpha.dir/__/__/mesh/access/src/access_publish.c.obj
 .text.access_publish_period_get
                0x00000000       0x38 examples/beaconing/CMakeFiles/beaconing_nrf52840_xxAA_s140_5.0.0-3.alpha.dir/__/__/mesh/access/src/access_publish.c.obj
 .bss.m_publish_timer
                0x00000000       0x18 examples/beaconing/CMakeFiles/beaconing_nrf52840_xxAA_s140_5.0.0-3.alpha.dir/__/__/mesh/access/src/access_publish.c.obj
 .bss.m_publish_timer_counter
                0x00000000        0x4 examples/beaconing/CMakeFiles/beaconing_nrf52840_xxAA_s140_5.0.0-3.alpha.dir/__/__/mesh/access/src/access_publish.c.obj
 .bss.m_publish_timer_running
                0x00000000        0x1 examples/beaconing/CMakeFiles/beaconing_nrf52840_xxAA_s140_5.0.0-3.alpha.dir/__/__/mesh/access/src/access_publish.c.obj
 .bss.m_timer_resolution
                0x00000000        0x1 examples/beaconing/CMakeFiles/beaconing_nrf52840_xxAA_s140_5.0.0-3.alpha.dir/__/__/mesh/access/src/access_publish.c.obj
 .bss.mp_publication_list
                0x00000000        0x4 examples/beaconing/CMakeFiles/beaconing_nrf52840_xxAA_s140_5.0.0-3.alpha.dir/__/__/mesh/access/src/access_publish.c.obj
 .comment       0x00000000       0x80 examples/beaconing/CMakeFiles/beaconing_nrf52840_xxAA_s140_5.0.0-3.alpha.dir/__/__/mesh/access/src/access_publish.c.obj
 .ARM.attributes
                0x00000000       0x39 examples/beaconing/CMakeFiles/beaconing_nrf52840_xxAA_s140_5.0.0-3.alpha.dir/__/__/mesh/access/src/access_publish.c.obj
 .text          0x00000000        0x0 examples/beaconing/CMakeFiles/beaconing_nrf52840_xxAA_s140_5.0.0-3.alpha.dir/__/__/mesh/access/src/access.c.obj
 .data          0x00000000        0x0 examples/beaconing/CMakeFiles/beaconing_nrf52840_xxAA_s140_5.0.0-3.alpha.dir/__/__/mesh/access/src/access.c.obj
 .bss           0x00000000        0x0 examples/beaconing/CMakeFiles/beaconing_nrf52840_xxAA_s140_5.0.0-3.alpha.dir/__/__/mesh/access/src/access.c.obj
 .text.flash_invalidate_complete
                0x00000000       0x14 examples/beaconing/CMakeFiles/beaconing_nrf52840_xxAA_s140_5.0.0-3.alpha.dir/__/__/mesh/access/src/access.c.obj
 .text.flash_manager_mem_available
                0x00000000        0x4 examples/beaconing/CMakeFiles/beaconing_nrf52840_xxAA_s140_5.0.0-3.alpha.dir/__/__/mesh/access/src/access.c.obj
 .text.access_flash_config_clear
                0x00000000       0x28 examples/beaconing/CMakeFiles/beaconing_nrf52840_xxAA_s140_5.0.0-3.alpha.dir/__/__/mesh/access/src/access.c.obj
 .text.access_flash_config_store
                0x00000000      0x138 examples/beaconing/CMakeFiles/beaconing_nrf52840_xxAA_s140_5.0.0-3.alpha.dir/__/__/mesh/access/src/access.c.obj
 .text.handle_incoming
                0x00000000      0x1b8 examples/beaconing/CMakeFiles/beaconing_nrf52840_xxAA_s140_5.0.0-3.alpha.dir/__/__/mesh/access/src/access.c.obj
 .text.mesh_evt_cb
                0x00000000      0x15c examples/beaconing/CMakeFiles/beaconing_nrf52840_xxAA_s140_5.0.0-3.alpha.dir/__/__/mesh/access/src/access.c.obj
 .text.add_flash_manager
                0x00000000       0x58 examples/beaconing/CMakeFiles/beaconing_nrf52840_xxAA_s140_5.0.0-3.alpha.dir/__/__/mesh/access/src/access.c.obj
 .text.flash_write_complete
                0x00000000       0x58 examples/beaconing/CMakeFiles/beaconing_nrf52840_xxAA_s140_5.0.0-3.alpha.dir/__/__/mesh/access/src/access.c.obj
 .text.flash_remove_complete
                0x00000000       0xb0 examples/beaconing/CMakeFiles/beaconing_nrf52840_xxAA_s140_5.0.0-3.alpha.dir/__/__/mesh/access/src/access.c.obj
 .text.access_flash_config_load
                0x00000000      0x2d8 examples/beaconing/CMakeFiles/beaconing_nrf52840_xxAA_s140_5.0.0-3.alpha.dir/__/__/mesh/access/src/access.c.obj
 .text.access_clear
                0x00000000       0x6c examples/beaconing/CMakeFiles/beaconing_nrf52840_xxAA_s140_5.0.0-3.alpha.dir/__/__/mesh/access/src/access.c.obj
 .text.access_init
                0x00000000       0xb4 examples/beaconing/CMakeFiles/beaconing_nrf52840_xxAA_s140_5.0.0-3.alpha.dir/__/__/mesh/access/src/access.c.obj
 .text.access_model_add
                0x00000000      0x1f4 examples/beaconing/CMakeFiles/beaconing_nrf52840_xxAA_s140_5.0.0-3.alpha.dir/__/__/mesh/access/src/access.c.obj
 .text.access_model_publish
                0x00000000      0x2d4 examples/beaconing/CMakeFiles/beaconing_nrf52840_xxAA_s140_5.0.0-3.alpha.dir/__/__/mesh/access/src/access.c.obj
 .text.access_model_reply
                0x00000000      0x2d0 examples/beaconing/CMakeFiles/beaconing_nrf52840_xxAA_s140_5.0.0-3.alpha.dir/__/__/mesh/access/src/access.c.obj
 .text.access_model_publish_address_set
                0x00000000       0x3c examples/beaconing/CMakeFiles/beaconing_nrf52840_xxAA_s140_5.0.0-3.alpha.dir/__/__/mesh/access/src/access.c.obj
 .text.access_model_publish_address_get
                0x00000000       0x2c examples/beaconing/CMakeFiles/beaconing_nrf52840_xxAA_s140_5.0.0-3.alpha.dir/__/__/mesh/access/src/access.c.obj
 .text.access_model_publish_period_set
                0x00000000       0x78 examples/beaconing/CMakeFiles/beaconing_nrf52840_xxAA_s140_5.0.0-3.alpha.dir/__/__/mesh/access/src/access.c.obj
 .text.access_model_publish_period_get
                0x00000000       0x40 examples/beaconing/CMakeFiles/beaconing_nrf52840_xxAA_s140_5.0.0-3.alpha.dir/__/__/mesh/access/src/access.c.obj
 .text.access_model_subscription_list_alloc
                0x00000000       0x60 examples/beaconing/CMakeFiles/beaconing_nrf52840_xxAA_s140_5.0.0-3.alpha.dir/__/__/mesh/access/src/access.c.obj
 .text.access_model_subscription_lists_share
                0x00000000       0x60 examples/beaconing/CMakeFiles/beaconing_nrf52840_xxAA_s140_5.0.0-3.alpha.dir/__/__/mesh/access/src/access.c.obj
 .text.access_model_subscription_add
                0x00000000       0x60 examples/beaconing/CMakeFiles/beaconing_nrf52840_xxAA_s140_5.0.0-3.alpha.dir/__/__/mesh/access/src/access.c.obj
 .text.access_model_subscription_remove
                0x00000000       0x60 examples/beaconing/CMakeFiles/beaconing_nrf52840_xxAA_s140_5.0.0-3.alpha.dir/__/__/mesh/access/src/access.c.obj
 .text.access_model_subscriptions_get
                0x00000000       0x7c examples/beaconing/CMakeFiles/beaconing_nrf52840_xxAA_s140_5.0.0-3.alpha.dir/__/__/mesh/access/src/access.c.obj
 .text.access_model_application_bind
                0x00000000       0x58 examples/beaconing/CMakeFiles/beaconing_nrf52840_xxAA_s140_5.0.0-3.alpha.dir/__/__/mesh/access/src/access.c.obj
 .text.access_model_application_unbind
                0x00000000       0x58 examples/beaconing/CMakeFiles/beaconing_nrf52840_xxAA_s140_5.0.0-3.alpha.dir/__/__/mesh/access/src/access.c.obj
 .text.access_model_applications_get
                0x00000000       0xfc examples/beaconing/CMakeFiles/beaconing_nrf52840_xxAA_s140_5.0.0-3.alpha.dir/__/__/mesh/access/src/access.c.obj
 .text.access_model_publish_application_set
                0x00000000       0x3c examples/beaconing/CMakeFiles/beaconing_nrf52840_xxAA_s140_5.0.0-3.alpha.dir/__/__/mesh/access/src/access.c.obj
 .text.access_model_publish_application_get
                0x00000000       0x2c examples/beaconing/CMakeFiles/beaconing_nrf52840_xxAA_s140_5.0.0-3.alpha.dir/__/__/mesh/access/src/access.c.obj
 .text.access_default_ttl_set
                0x00000000       0x10 examples/beaconing/CMakeFiles/beaconing_nrf52840_xxAA_s140_5.0.0-3.alpha.dir/__/__/mesh/access/src/access.c.obj
 .text.access_default_ttl_get
                0x00000000        0xc examples/beaconing/CMakeFiles/beaconing_nrf52840_xxAA_s140_5.0.0-3.alpha.dir/__/__/mesh/access/src/access.c.obj
 .text.access_model_publish_ttl_set
                0x00000000       0x40 examples/beaconing/CMakeFiles/beaconing_nrf52840_xxAA_s140_5.0.0-3.alpha.dir/__/__/mesh/access/src/access.c.obj
 .text.access_model_publish_ttl_get
                0x00000000       0x2c examples/beaconing/CMakeFiles/beaconing_nrf52840_xxAA_s140_5.0.0-3.alpha.dir/__/__/mesh/access/src/access.c.obj
 .text.access_element_location_set
                0x00000000       0x20 examples/beaconing/CMakeFiles/beaconing_nrf52840_xxAA_s140_5.0.0-3.alpha.dir/__/__/mesh/access/src/access.c.obj
 .text.access_element_location_get
                0x00000000       0x18 examples/beaconing/CMakeFiles/beaconing_nrf52840_xxAA_s140_5.0.0-3.alpha.dir/__/__/mesh/access/src/access.c.obj
 .text.access_element_sig_model_count_get
                0x00000000       0x18 examples/beaconing/CMakeFiles/beaconing_nrf52840_xxAA_s140_5.0.0-3.alpha.dir/__/__/mesh/access/src/access.c.obj
 .text.access_element_vendor_model_count_get
                0x00000000       0x18 examples/beaconing/CMakeFiles/beaconing_nrf52840_xxAA_s140_5.0.0-3.alpha.dir/__/__/mesh/access/src/access.c.obj
 .text.access_model_id_get
                0x00000000       0x40 examples/beaconing/CMakeFiles/beaconing_nrf52840_xxAA_s140_5.0.0-3.alpha.dir/__/__/mesh/access/src/access.c.obj
 .text.access_handle_get
                0x00000000       0x5c examples/beaconing/CMakeFiles/beaconing_nrf52840_xxAA_s140_5.0.0-3.alpha.dir/__/__/mesh/access/src/access.c.obj
 .text.access_element_models_get
                0x00000000       0x60 examples/beaconing/CMakeFiles/beaconing_nrf52840_xxAA_s140_5.0.0-3.alpha.dir/__/__/mesh/access/src/access.c.obj
 .text.access_model_p_args_get
                0x00000000       0x2c examples/beaconing/CMakeFiles/beaconing_nrf52840_xxAA_s140_5.0.0-3.alpha.dir/__/__/mesh/access/src/access.c.obj
 .bss.m_element_pool
                0x00000000        0x6 examples/beaconing/CMakeFiles/beaconing_nrf52840_xxAA_s140_5.0.0-3.alpha.dir/__/__/mesh/access/src/access.c.obj
 .bss.m_evt_handler
                0x00000000        0x8 examples/beaconing/CMakeFiles/beaconing_nrf52840_xxAA_s140_5.0.0-3.alpha.dir/__/__/mesh/access/src/access.c.obj
 .bss.m_flash_manager
                0x00000000       0x24 examples/beaconing/CMakeFiles/beaconing_nrf52840_xxAA_s140_5.0.0-3.alpha.dir/__/__/mesh/access/src/access.c.obj
 .bss.m_flash_not_ready
                0x00000000        0x1 examples/beaconing/CMakeFiles/beaconing_nrf52840_xxAA_s140_5.0.0-3.alpha.dir/__/__/mesh/access/src/access.c.obj
 .bss.m_metadata_stored
                0x00000000        0x1 examples/beaconing/CMakeFiles/beaconing_nrf52840_xxAA_s140_5.0.0-3.alpha.dir/__/__/mesh/access/src/access.c.obj
 .bss.m_model_pool
                0x00000000       0x68 examples/beaconing/CMakeFiles/beaconing_nrf52840_xxAA_s140_5.0.0-3.alpha.dir/__/__/mesh/access/src/access.c.obj
 .bss.m_subscription_list_pool
                0x00000000       0x10 examples/beaconing/CMakeFiles/beaconing_nrf52840_xxAA_s140_5.0.0-3.alpha.dir/__/__/mesh/access/src/access.c.obj
 .data.flash_add_mem_available_struct.10546
                0x00000000       0x10 examples/beaconing/CMakeFiles/beaconing_nrf52840_xxAA_s140_5.0.0-3.alpha.dir/__/__/mesh/access/src/access.c.obj
 .data.flash_clear_mem_available_struct.10635
                0x00000000       0x10 examples/beaconing/CMakeFiles/beaconing_nrf52840_xxAA_s140_5.0.0-3.alpha.dir/__/__/mesh/access/src/access.c.obj
 .data.flash_store_mem_available_struct.10659
                0x00000000       0x10 examples/beaconing/CMakeFiles/beaconing_nrf52840_xxAA_s140_5.0.0-3.alpha.dir/__/__/mesh/access/src/access.c.obj
 .data.m_default_ttl
                0x00000000        0x1 examples/beaconing/CMakeFiles/beaconing_nrf52840_xxAA_s140_5.0.0-3.alpha.dir/__/__/mesh/access/src/access.c.obj
 .rodata.access_model_publish.str1.4
                0x00000000       0x13 examples/beaconing/CMakeFiles/beaconing_nrf52840_xxAA_s140_5.0.0-3.alpha.dir/__/__/mesh/access/src/access.c.obj
 .rodata.mesh_evt_cb.str1.4
                0x00000000       0x2f examples/beaconing/CMakeFiles/beaconing_nrf52840_xxAA_s140_5.0.0-3.alpha.dir/__/__/mesh/access/src/access.c.obj
 .rodata.multiply_de_bruijn_bit_position.9295
                0x00000000       0x20 examples/beaconing/CMakeFiles/beaconing_nrf52840_xxAA_s140_5.0.0-3.alpha.dir/__/__/mesh/access/src/access.c.obj
 .comment       0x00000000       0x80 examples/beaconing/CMakeFiles/beaconing_nrf52840_xxAA_s140_5.0.0-3.alpha.dir/__/__/mesh/access/src/access.c.obj
 .ARM.attributes
                0x00000000       0x39 examples/beaconing/CMakeFiles/beaconing_nrf52840_xxAA_s140_5.0.0-3.alpha.dir/__/__/mesh/access/src/access.c.obj
 .text          0x00000000        0x0 examples/beaconing/CMakeFiles/beaconing_nrf52840_xxAA_s140_5.0.0-3.alpha.dir/__/__/mesh/access/src/access_reliable.c.obj
 .data          0x00000000        0x0 examples/beaconing/CMakeFiles/beaconing_nrf52840_xxAA_s140_5.0.0-3.alpha.dir/__/__/mesh/access/src/access_reliable.c.obj
 .bss           0x00000000        0x0 examples/beaconing/CMakeFiles/beaconing_nrf52840_xxAA_s140_5.0.0-3.alpha.dir/__/__/mesh/access/src/access_reliable.c.obj
 .text.remove_and_reschedule
                0x00000000      0x108 examples/beaconing/CMakeFiles/beaconing_nrf52840_xxAA_s140_5.0.0-3.alpha.dir/__/__/mesh/access/src/access_reliable.c.obj
 .text.reliable_timer_cb
                0x00000000      0x1dc examples/beaconing/CMakeFiles/beaconing_nrf52840_xxAA_s140_5.0.0-3.alpha.dir/__/__/mesh/access/src/access_reliable.c.obj
 .text.access_reliable_message_rx_cb
                0x00000000       0x8c examples/beaconing/CMakeFiles/beaconing_nrf52840_xxAA_s140_5.0.0-3.alpha.dir/__/__/mesh/access/src/access_reliable.c.obj
 .text.access_reliable_init
                0x00000000       0x1c examples/beaconing/CMakeFiles/beaconing_nrf52840_xxAA_s140_5.0.0-3.alpha.dir/__/__/mesh/access/src/access_reliable.c.obj
 .text.access_reliable_cancel_all
                0x00000000       0x34 examples/beaconing/CMakeFiles/beaconing_nrf52840_xxAA_s140_5.0.0-3.alpha.dir/__/__/mesh/access/src/access_reliable.c.obj
 .text.access_model_reliable_cancel
                0x00000000       0x50 examples/beaconing/CMakeFiles/beaconing_nrf52840_xxAA_s140_5.0.0-3.alpha.dir/__/__/mesh/access/src/access_reliable.c.obj
 .text.access_model_reliable_publish
                0x00000000      0x1d0 examples/beaconing/CMakeFiles/beaconing_nrf52840_xxAA_s140_5.0.0-3.alpha.dir/__/__/mesh/access/src/access_reliable.c.obj
 .bss.m_reliable
                0x00000000       0x6c examples/beaconing/CMakeFiles/beaconing_nrf52840_xxAA_s140_5.0.0-3.alpha.dir/__/__/mesh/access/src/access_reliable.c.obj
 .comment       0x00000000       0x80 examples/beaconing/CMakeFiles/beaconing_nrf52840_xxAA_s140_5.0.0-3.alpha.dir/__/__/mesh/access/src/access_reliable.c.obj
 .ARM.attributes
                0x00000000       0x39 examples/beaconing/CMakeFiles/beaconing_nrf52840_xxAA_s140_5.0.0-3.alpha.dir/__/__/mesh/access/src/access_reliable.c.obj
 .text          0x00000000        0x0 examples/beaconing/CMakeFiles/beaconing_nrf52840_xxAA_s140_5.0.0-3.alpha.dir/__/__/mesh/access/src/device_state_manager.c.obj
 .data          0x00000000        0x0 examples/beaconing/CMakeFiles/beaconing_nrf52840_xxAA_s140_5.0.0-3.alpha.dir/__/__/mesh/access/src/device_state_manager.c.obj
 .bss           0x00000000        0x0 examples/beaconing/CMakeFiles/beaconing_nrf52840_xxAA_s140_5.0.0-3.alpha.dir/__/__/mesh/access/src/device_state_manager.c.obj
 .text.addr_nonvirtual_to_dsm_entry
                0x00000000       0x48 examples/beaconing/CMakeFiles/beaconing_nrf52840_xxAA_s140_5.0.0-3.alpha.dir/__/__/mesh/access/src/device_state_manager.c.obj
 .text.addr_nonvirtual_to_flash_entry
                0x00000000       0x10 examples/beaconing/CMakeFiles/beaconing_nrf52840_xxAA_s140_5.0.0-3.alpha.dir/__/__/mesh/access/src/device_state_manager.c.obj
 .text.flash_mem_listener_callback
                0x00000000       0x28 examples/beaconing/CMakeFiles/beaconing_nrf52840_xxAA_s140_5.0.0-3.alpha.dir/__/__/mesh/access/src/device_state_manager.c.obj
 .text.devkey_to_flash_entry
                0x00000000       0x28 examples/beaconing/CMakeFiles/beaconing_nrf52840_xxAA_s140_5.0.0-3.alpha.dir/__/__/mesh/access/src/device_state_manager.c.obj
 .text.appkey_to_flash_entry
                0x00000000       0x28 examples/beaconing/CMakeFiles/beaconing_nrf52840_xxAA_s140_5.0.0-3.alpha.dir/__/__/mesh/access/src/device_state_manager.c.obj
 .text.subnet_to_flash_entry
                0x00000000       0x24 examples/beaconing/CMakeFiles/beaconing_nrf52840_xxAA_s140_5.0.0-3.alpha.dir/__/__/mesh/access/src/device_state_manager.c.obj
 .text.addr_virtual_to_flash_entry
                0x00000000       0x18 examples/beaconing/CMakeFiles/beaconing_nrf52840_xxAA_s140_5.0.0-3.alpha.dir/__/__/mesh/access/src/device_state_manager.c.obj
 .text.addr_unicast_to_dsm_entry
                0x00000000        0xc examples/beaconing/CMakeFiles/beaconing_nrf52840_xxAA_s140_5.0.0-3.alpha.dir/__/__/mesh/access/src/device_state_manager.c.obj
 .text.addr_unicast_to_flash_entry
                0x00000000       0x10 examples/beaconing/CMakeFiles/beaconing_nrf52840_xxAA_s140_5.0.0-3.alpha.dir/__/__/mesh/access/src/device_state_manager.c.obj
 .text.subnet_set
                0x00000000       0xac examples/beaconing/CMakeFiles/beaconing_nrf52840_xxAA_s140_5.0.0-3.alpha.dir/__/__/mesh/access/src/device_state_manager.c.obj
 .text.flash_save
                0x00000000       0xa8 examples/beaconing/CMakeFiles/beaconing_nrf52840_xxAA_s140_5.0.0-3.alpha.dir/__/__/mesh/access/src/device_state_manager.c.obj
 .text.reset_flash_area
                0x00000000       0x28 examples/beaconing/CMakeFiles/beaconing_nrf52840_xxAA_s140_5.0.0-3.alpha.dir/__/__/mesh/access/src/device_state_manager.c.obj
 .text.build_flash_area
                0x00000000       0x90 examples/beaconing/CMakeFiles/beaconing_nrf52840_xxAA_s140_5.0.0-3.alpha.dir/__/__/mesh/access/src/device_state_manager.c.obj
 .text.flash_invalidate_complete
                0x00000000       0x5c examples/beaconing/CMakeFiles/beaconing_nrf52840_xxAA_s140_5.0.0-3.alpha.dir/__/__/mesh/access/src/device_state_manager.c.obj
 .text.devkey_to_dsm_entry
                0x00000000       0x70 examples/beaconing/CMakeFiles/beaconing_nrf52840_xxAA_s140_5.0.0-3.alpha.dir/__/__/mesh/access/src/device_state_manager.c.obj
 .text.addr_virtual_to_dsm_entry
                0x00000000       0x6c examples/beaconing/CMakeFiles/beaconing_nrf52840_xxAA_s140_5.0.0-3.alpha.dir/__/__/mesh/access/src/device_state_manager.c.obj
 .text.flash_write_complete
                0x00000000       0x5c examples/beaconing/CMakeFiles/beaconing_nrf52840_xxAA_s140_5.0.0-3.alpha.dir/__/__/mesh/access/src/device_state_manager.c.obj
 .text.appkey_to_dsm_entry
                0x00000000       0x94 examples/beaconing/CMakeFiles/beaconing_nrf52840_xxAA_s140_5.0.0-3.alpha.dir/__/__/mesh/access/src/device_state_manager.c.obj
 .text.flash_update_all
                0x00000000      0x144 examples/beaconing/CMakeFiles/beaconing_nrf52840_xxAA_s140_5.0.0-3.alpha.dir/__/__/mesh/access/src/device_state_manager.c.obj
 .text.flash_remove_complete
                0x00000000       0x90 examples/beaconing/CMakeFiles/beaconing_nrf52840_xxAA_s140_5.0.0-3.alpha.dir/__/__/mesh/access/src/device_state_manager.c.obj
 .text.subnet_to_dsm_entry
                0x00000000       0xbc examples/beaconing/CMakeFiles/beaconing_nrf52840_xxAA_s140_5.0.0-3.alpha.dir/__/__/mesh/access/src/device_state_manager.c.obj
 .text.address_delete_if_unused
                0x00000000      0x100 examples/beaconing/CMakeFiles/beaconing_nrf52840_xxAA_s140_5.0.0-3.alpha.dir/__/__/mesh/access/src/device_state_manager.c.obj
 .text.dsm_init
                0x00000000       0xa8 examples/beaconing/CMakeFiles/beaconing_nrf52840_xxAA_s140_5.0.0-3.alpha.dir/__/__/mesh/access/src/device_state_manager.c.obj
 .text.dsm_flash_config_load
                0x00000000      0x190 examples/beaconing/CMakeFiles/beaconing_nrf52840_xxAA_s140_5.0.0-3.alpha.dir/__/__/mesh/access/src/device_state_manager.c.obj
 .text.dsm_has_unflashed_data
                0x00000000       0x58 examples/beaconing/CMakeFiles/beaconing_nrf52840_xxAA_s140_5.0.0-3.alpha.dir/__/__/mesh/access/src/device_state_manager.c.obj
 .text.dsm_flash_area_get
                0x00000000        0xc examples/beaconing/CMakeFiles/beaconing_nrf52840_xxAA_s140_5.0.0-3.alpha.dir/__/__/mesh/access/src/device_state_manager.c.obj
 .text.dsm_clear
                0x00000000      0x10c examples/beaconing/CMakeFiles/beaconing_nrf52840_xxAA_s140_5.0.0-3.alpha.dir/__/__/mesh/access/src/device_state_manager.c.obj
 .text.dsm_local_unicast_addresses_set
                0x00000000       0x78 examples/beaconing/CMakeFiles/beaconing_nrf52840_xxAA_s140_5.0.0-3.alpha.dir/__/__/mesh/access/src/device_state_manager.c.obj
 .text.dsm_local_unicast_addresses_get
                0x00000000       0x2c examples/beaconing/CMakeFiles/beaconing_nrf52840_xxAA_s140_5.0.0-3.alpha.dir/__/__/mesh/access/src/device_state_manager.c.obj
 .text.dsm_address_publish_add
                0x00000000      0x330 examples/beaconing/CMakeFiles/beaconing_nrf52840_xxAA_s140_5.0.0-3.alpha.dir/__/__/mesh/access/src/device_state_manager.c.obj
 .text.dsm_address_publish_add_handle
                0x00000000       0x54 examples/beaconing/CMakeFiles/beaconing_nrf52840_xxAA_s140_5.0.0-3.alpha.dir/__/__/mesh/access/src/device_state_manager.c.obj
 .text.dsm_address_publish_virtual_add
                0x00000000      0x268 examples/beaconing/CMakeFiles/beaconing_nrf52840_xxAA_s140_5.0.0-3.alpha.dir/__/__/mesh/access/src/device_state_manager.c.obj
 .text.dsm_address_publish_remove
                0x00000000       0xbc examples/beaconing/CMakeFiles/beaconing_nrf52840_xxAA_s140_5.0.0-3.alpha.dir/__/__/mesh/access/src/device_state_manager.c.obj
 .text.dsm_address_subscription_add
                0x00000000      0x31c examples/beaconing/CMakeFiles/beaconing_nrf52840_xxAA_s140_5.0.0-3.alpha.dir/__/__/mesh/access/src/device_state_manager.c.obj
 .text.dsm_address_subscription_virtual_add
                0x00000000      0x268 examples/beaconing/CMakeFiles/beaconing_nrf52840_xxAA_s140_5.0.0-3.alpha.dir/__/__/mesh/access/src/device_state_manager.c.obj
 .text.dsm_address_subscription_add_handle
                0x00000000       0x54 examples/beaconing/CMakeFiles/beaconing_nrf52840_xxAA_s140_5.0.0-3.alpha.dir/__/__/mesh/access/src/device_state_manager.c.obj
 .text.dsm_address_subscription_get
                0x00000000       0x5c examples/beaconing/CMakeFiles/beaconing_nrf52840_xxAA_s140_5.0.0-3.alpha.dir/__/__/mesh/access/src/device_state_manager.c.obj
 .text.dsm_address_subscription_count_get
                0x00000000       0x80 examples/beaconing/CMakeFiles/beaconing_nrf52840_xxAA_s140_5.0.0-3.alpha.dir/__/__/mesh/access/src/device_state_manager.c.obj
 .text.dsm_address_subscription_remove
                0x00000000       0x94 examples/beaconing/CMakeFiles/beaconing_nrf52840_xxAA_s140_5.0.0-3.alpha.dir/__/__/mesh/access/src/device_state_manager.c.obj
 .text.dsm_address_get
                0x00000000       0x7c examples/beaconing/CMakeFiles/beaconing_nrf52840_xxAA_s140_5.0.0-3.alpha.dir/__/__/mesh/access/src/device_state_manager.c.obj
 .text.dsm_address_get_all
                0x00000000      0x258 examples/beaconing/CMakeFiles/beaconing_nrf52840_xxAA_s140_5.0.0-3.alpha.dir/__/__/mesh/access/src/device_state_manager.c.obj
 .text.dsm_address_handle_get
                0x00000000      0x3cc examples/beaconing/CMakeFiles/beaconing_nrf52840_xxAA_s140_5.0.0-3.alpha.dir/__/__/mesh/access/src/device_state_manager.c.obj
 .text.dsm_net_key_index_to_subnet_handle
                0x00000000       0x6c examples/beaconing/CMakeFiles/beaconing_nrf52840_xxAA_s140_5.0.0-3.alpha.dir/__/__/mesh/access/src/device_state_manager.c.obj
 .text.dsm_subnet_handle_get
                0x00000000       0x2c examples/beaconing/CMakeFiles/beaconing_nrf52840_xxAA_s140_5.0.0-3.alpha.dir/__/__/mesh/access/src/device_state_manager.c.obj
 .text.dsm_subnet_handle_to_netkey_index
                0x00000000       0x34 examples/beaconing/CMakeFiles/beaconing_nrf52840_xxAA_s140_5.0.0-3.alpha.dir/__/__/mesh/access/src/device_state_manager.c.obj
 .text.dsm_app_key_index_to_appkey_handle
                0x00000000       0xc8 examples/beaconing/CMakeFiles/beaconing_nrf52840_xxAA_s140_5.0.0-3.alpha.dir/__/__/mesh/access/src/device_state_manager.c.obj
 .text.dsm_appkey_handle_get
                0x00000000       0x40 examples/beaconing/CMakeFiles/beaconing_nrf52840_xxAA_s140_5.0.0-3.alpha.dir/__/__/mesh/access/src/device_state_manager.c.obj
 .text.dsm_appkey_handle_to_appkey_index
                0x00000000       0x34 examples/beaconing/CMakeFiles/beaconing_nrf52840_xxAA_s140_5.0.0-3.alpha.dir/__/__/mesh/access/src/device_state_manager.c.obj
 .text.dsm_subnet_add
                0x00000000       0xfc examples/beaconing/CMakeFiles/beaconing_nrf52840_xxAA_s140_5.0.0-3.alpha.dir/__/__/mesh/access/src/device_state_manager.c.obj
 .text.dsm_subnet_update
                0x00000000       0x90 examples/beaconing/CMakeFiles/beaconing_nrf52840_xxAA_s140_5.0.0-3.alpha.dir/__/__/mesh/access/src/device_state_manager.c.obj
 .text.dsm_subnet_delete
                0x00000000      0x160 examples/beaconing/CMakeFiles/beaconing_nrf52840_xxAA_s140_5.0.0-3.alpha.dir/__/__/mesh/access/src/device_state_manager.c.obj
 .text.dsm_subnet_get_all
                0x00000000       0x90 examples/beaconing/CMakeFiles/beaconing_nrf52840_xxAA_s140_5.0.0-3.alpha.dir/__/__/mesh/access/src/device_state_manager.c.obj
 .text.dsm_devkey_add
                0x00000000       0xb0 examples/beaconing/CMakeFiles/beaconing_nrf52840_xxAA_s140_5.0.0-3.alpha.dir/__/__/mesh/access/src/device_state_manager.c.obj
 .text.dsm_devkey_delete
                0x00000000       0x6c examples/beaconing/CMakeFiles/beaconing_nrf52840_xxAA_s140_5.0.0-3.alpha.dir/__/__/mesh/access/src/device_state_manager.c.obj
 .text.dsm_devkey_handle_get
                0x00000000       0x3c examples/beaconing/CMakeFiles/beaconing_nrf52840_xxAA_s140_5.0.0-3.alpha.dir/__/__/mesh/access/src/device_state_manager.c.obj
 .text.dsm_appkey_add
                0x00000000      0x1cc examples/beaconing/CMakeFiles/beaconing_nrf52840_xxAA_s140_5.0.0-3.alpha.dir/__/__/mesh/access/src/device_state_manager.c.obj
 .text.dsm_appkey_update
                0x00000000       0xf0 examples/beaconing/CMakeFiles/beaconing_nrf52840_xxAA_s140_5.0.0-3.alpha.dir/__/__/mesh/access/src/device_state_manager.c.obj
 .text.dsm_appkey_delete
                0x00000000       0x68 examples/beaconing/CMakeFiles/beaconing_nrf52840_xxAA_s140_5.0.0-3.alpha.dir/__/__/mesh/access/src/device_state_manager.c.obj
 .text.dsm_appkey_get_all
                0x00000000      0x154 examples/beaconing/CMakeFiles/beaconing_nrf52840_xxAA_s140_5.0.0-3.alpha.dir/__/__/mesh/access/src/device_state_manager.c.obj
 .text.dsm_tx_secmat_get
                0x00000000       0xfc examples/beaconing/CMakeFiles/beaconing_nrf52840_xxAA_s140_5.0.0-3.alpha.dir/__/__/mesh/access/src/device_state_manager.c.obj
 .text.dsm_beacon_secmat_get
                0x00000000       0x34 examples/beaconing/CMakeFiles/beaconing_nrf52840_xxAA_s140_5.0.0-3.alpha.dir/__/__/mesh/access/src/device_state_manager.c.obj
 .text.dsm_proxy_identity_get
                0x00000000        0x4 examples/beaconing/CMakeFiles/beaconing_nrf52840_xxAA_s140_5.0.0-3.alpha.dir/__/__/mesh/access/src/device_state_manager.c.obj
 .bss.m_addr_nonvirtual_needs_flashing
                0x00000000        0x4 examples/beaconing/CMakeFiles/beaconing_nrf52840_xxAA_s140_5.0.0-3.alpha.dir/__/__/mesh/access/src/device_state_manager.c.obj
 .bss.m_addr_unicast_needs_flashing
                0x00000000        0x4 examples/beaconing/CMakeFiles/beaconing_nrf52840_xxAA_s140_5.0.0-3.alpha.dir/__/__/mesh/access/src/device_state_manager.c.obj
 .bss.m_addr_virtual_needs_flashing
                0x00000000        0x4 examples/beaconing/CMakeFiles/beaconing_nrf52840_xxAA_s140_5.0.0-3.alpha.dir/__/__/mesh/access/src/device_state_manager.c.obj
 .bss.m_appkey_needs_flashing
                0x00000000        0x4 examples/beaconing/CMakeFiles/beaconing_nrf52840_xxAA_s140_5.0.0-3.alpha.dir/__/__/mesh/access/src/device_state_manager.c.obj
 .bss.m_devkey_allocated
                0x00000000        0x4 examples/beaconing/CMakeFiles/beaconing_nrf52840_xxAA_s140_5.0.0-3.alpha.dir/__/__/mesh/access/src/device_state_manager.c.obj
 .bss.m_devkey_needs_flashing
                0x00000000        0x4 examples/beaconing/CMakeFiles/beaconing_nrf52840_xxAA_s140_5.0.0-3.alpha.dir/__/__/mesh/access/src/device_state_manager.c.obj
 .bss.m_flash_is_available
                0x00000000        0x1 examples/beaconing/CMakeFiles/beaconing_nrf52840_xxAA_s140_5.0.0-3.alpha.dir/__/__/mesh/access/src/device_state_manager.c.obj
 .bss.m_flash_manager
                0x00000000       0x24 examples/beaconing/CMakeFiles/beaconing_nrf52840_xxAA_s140_5.0.0-3.alpha.dir/__/__/mesh/access/src/device_state_manager.c.obj
 .bss.m_flash_mem_listener_update_all
                0x00000000       0x10 examples/beaconing/CMakeFiles/beaconing_nrf52840_xxAA_s140_5.0.0-3.alpha.dir/__/__/mesh/access/src/device_state_manager.c.obj
 .bss.m_subnet_needs_flashing
                0x00000000        0x4 examples/beaconing/CMakeFiles/beaconing_nrf52840_xxAA_s140_5.0.0-3.alpha.dir/__/__/mesh/access/src/device_state_manager.c.obj
 .data.mem_listener.10798
                0x00000000       0x10 examples/beaconing/CMakeFiles/beaconing_nrf52840_xxAA_s140_5.0.0-3.alpha.dir/__/__/mesh/access/src/device_state_manager.c.obj
 .data.mem_listener.10824
                0x00000000       0x10 examples/beaconing/CMakeFiles/beaconing_nrf52840_xxAA_s140_5.0.0-3.alpha.dir/__/__/mesh/access/src/device_state_manager.c.obj
 .rodata.m_flash_groups
                0x00000000       0xc0 examples/beaconing/CMakeFiles/beaconing_nrf52840_xxAA_s140_5.0.0-3.alpha.dir/__/__/mesh/access/src/device_state_manager.c.obj
 .text          0x00000000        0x0 examples/beaconing/CMakeFiles/beaconing_nrf52840_xxAA_s140_5.0.0-3.alpha.dir/__/nrf_mesh_weak.c.obj
 .data          0x00000000        0x0 examples/beaconing/CMakeFiles/beaconing_nrf52840_xxAA_s140_5.0.0-3.alpha.dir/__/nrf_mesh_weak.c.obj
 .bss           0x00000000        0x0 examples/beaconing/CMakeFiles/beaconing_nrf52840_xxAA_s140_5.0.0-3.alpha.dir/__/nrf_mesh_weak.c.obj
 .text._weak_handler_ptr
                0x00000000        0x4 examples/beaconing/CMakeFiles/beaconing_nrf52840_xxAA_s140_5.0.0-3.alpha.dir/__/nrf_mesh_weak.c.obj
 .text          0x00000000        0x0 examples/beaconing/CMakeFiles/beaconing_nrf52840_xxAA_s140_5.0.0-3.alpha.dir/__/__/external/nRF5_SDK_14.0.0_3bcc1f7/components/toolchain/system_nrf52840.c.obj
 .data          0x00000000        0x0 examples/beaconing/CMakeFiles/beaconing_nrf52840_xxAA_s140_5.0.0-3.alpha.dir/__/__/external/nRF5_SDK_14.0.0_3bcc1f7/components/toolchain/system_nrf52840.c.obj
 .bss           0x00000000        0x0 examples/beaconing/CMakeFiles/beaconing_nrf52840_xxAA_s140_5.0.0-3.alpha.dir/__/__/external/nRF5_SDK_14.0.0_3bcc1f7/components/toolchain/system_nrf52840.c.obj
 .text.SystemCoreClockUpdate
                0x00000000       0x10 examples/beaconing/CMakeFiles/beaconing_nrf52840_xxAA_s140_5.0.0-3.alpha.dir/__/__/external/nRF5_SDK_14.0.0_3bcc1f7/components/toolchain/system_nrf52840.c.obj
 .data          0x00000000        0x0 examples/beaconing/CMakeFiles/beaconing_nrf52840_xxAA_s140_5.0.0-3.alpha.dir/__/__/external/nRF5_SDK_14.0.0_3bcc1f7/components/toolchain/gcc/gcc_startup_nrf52840.S.obj
 .bss           0x00000000        0x0 examples/beaconing/CMakeFiles/beaconing_nrf52840_xxAA_s140_5.0.0-3.alpha.dir/__/__/external/nRF5_SDK_14.0.0_3bcc1f7/components/toolchain/gcc/gcc_startup_nrf52840.S.obj
 .text          0x00000000        0x0 mesh/core/libmesh_core_nrf52840_xxAA.a(event.c.obj)
 .data          0x00000000        0x0 mesh/core/libmesh_core_nrf52840_xxAA.a(event.c.obj)
 .bss           0x00000000        0x0 mesh/core/libmesh_core_nrf52840_xxAA.a(event.c.obj)
 .text.event_handler_add
                0x00000000       0x90 mesh/core/libmesh_core_nrf52840_xxAA.a(event.c.obj)
 .text.event_handler_remove
                0x00000000       0x6c mesh/core/libmesh_core_nrf52840_xxAA.a(event.c.obj)
 .text          0x00000000        0x0 mesh/core/libmesh_core_nrf52840_xxAA.a(net_state.c.obj)
 .data          0x00000000        0x0 mesh/core/libmesh_core_nrf52840_xxAA.a(net_state.c.obj)
 .bss           0x00000000        0x0 mesh/core/libmesh_core_nrf52840_xxAA.a(net_state.c.obj)
 .text.net_state_reset
                0x00000000       0x3c mesh/core/libmesh_core_nrf52840_xxAA.a(net_state.c.obj)
 .text.net_state_flash_area_get
                0x00000000        0xc mesh/core/libmesh_core_nrf52840_xxAA.a(net_state.c.obj)
 .text.net_state_iv_update_start
                0x00000000       0x90 mesh/core/libmesh_core_nrf52840_xxAA.a(net_state.c.obj)
 .text.net_state_iv_update_test_mode_set
                0x00000000        0xc mesh/core/libmesh_core_nrf52840_xxAA.a(net_state.c.obj)
 .data.mem_listener.10054
                0x00000000       0x10 mesh/core/libmesh_core_nrf52840_xxAA.a(net_state.c.obj)
 .text          0x00000000        0x0 mesh/core/libmesh_core_nrf52840_xxAA.a(nrf_mesh_utils.c.obj)
 .data          0x00000000        0x0 mesh/core/libmesh_core_nrf52840_xxAA.a(nrf_mesh_utils.c.obj)
 .bss           0x00000000        0x0 mesh/core/libmesh_core_nrf52840_xxAA.a(nrf_mesh_utils.c.obj)
 .text.nrf_mesh_rand_get
                0x00000000       0x10 mesh/core/libmesh_core_nrf52840_xxAA.a(nrf_mesh_utils.c.obj)
 .text.nrf_mesh_gap_address_type_get
                0x00000000       0x40 mesh/core/libmesh_core_nrf52840_xxAA.a(nrf_mesh_utils.c.obj)
 .text          0x00000000        0x0 mesh/core/libmesh_core_nrf52840_xxAA.a(nrf_mesh.c.obj)
 .data          0x00000000        0x0 mesh/core/libmesh_core_nrf52840_xxAA.a(nrf_mesh.c.obj)
 .bss           0x00000000        0x0 mesh/core/libmesh_core_nrf52840_xxAA.a(nrf_mesh.c.obj)
 .text.nrf_mesh_disable
                0x00000000       0x2c mesh/core/libmesh_core_nrf52840_xxAA.a(nrf_mesh.c.obj)
 .text.nrf_mesh_packet_send
                0x00000000        0x4 mesh/core/libmesh_core_nrf52840_xxAA.a(nrf_mesh.c.obj)
 .text.nrf_mesh_evt_handler_add
                0x00000000        0x4 mesh/core/libmesh_core_nrf52840_xxAA.a(nrf_mesh.c.obj)
 .text.nrf_mesh_evt_handler_remove
                0x00000000        0x4 mesh/core/libmesh_core_nrf52840_xxAA.a(nrf_mesh.c.obj)
 .text.nrf_mesh_rx_cb_clear
                0x00000000        0xc mesh/core/libmesh_core_nrf52840_xxAA.a(nrf_mesh.c.obj)
 .text          0x00000000        0x0 mesh/core/libmesh_core_nrf52840_xxAA.a(hal.c.obj)
 .data          0x00000000        0x0 mesh/core/libmesh_core_nrf52840_xxAA.a(hal.c.obj)
 .bss           0x00000000        0x0 mesh/core/libmesh_core_nrf52840_xxAA.a(hal.c.obj)
 .text.sd_power_reset_reason_clr
                0x00000000        0x4 mesh/core/libmesh_core_nrf52840_xxAA.a(hal.c.obj)
 .text.hal_device_reset
                0x00000000       0x2c mesh/core/libmesh_core_nrf52840_xxAA.a(hal.c.obj)
 .text          0x00000000        0x0 mesh/core/libmesh_core_nrf52840_xxAA.a(timer_scheduler.c.obj)
 .data          0x00000000        0x0 mesh/core/libmesh_core_nrf52840_xxAA.a(timer_scheduler.c.obj)
 .bss           0x00000000        0x0 mesh/core/libmesh_core_nrf52840_xxAA.a(timer_scheduler.c.obj)
 .text          0x00000000        0x0 mesh/core/libmesh_core_nrf52840_xxAA.a(timer.c.obj)
 .data          0x00000000        0x0 mesh/core/libmesh_core_nrf52840_xxAA.a(timer.c.obj)
 .bss           0x00000000        0x0 mesh/core/libmesh_core_nrf52840_xxAA.a(timer.c.obj)
 .text.timer_order_cb_ppi
                0x00000000       0xd8 mesh/core/libmesh_core_nrf52840_xxAA.a(timer.c.obj)
 .text.timer_order_ppi
                0x00000000       0x88 mesh/core/libmesh_core_nrf52840_xxAA.a(timer.c.obj)
 .text.timer_abort
                0x00000000       0x84 mesh/core/libmesh_core_nrf52840_xxAA.a(timer.c.obj)
 .text          0x00000000        0x0 mesh/core/libmesh_core_nrf52840_xxAA.a(ticker.c.obj)
 .data          0x00000000        0x0 mesh/core/libmesh_core_nrf52840_xxAA.a(ticker.c.obj)
 .bss           0x00000000        0x0 mesh/core/libmesh_core_nrf52840_xxAA.a(ticker.c.obj)
 .text.ticker_get
                0x00000000        0xc mesh/core/libmesh_core_nrf52840_xxAA.a(ticker.c.obj)
 .text          0x00000000        0x0 mesh/core/libmesh_core_nrf52840_xxAA.a(rand.c.obj)
 .data          0x00000000        0x0 mesh/core/libmesh_core_nrf52840_xxAA.a(rand.c.obj)
 .bss           0x00000000        0x0 mesh/core/libmesh_core_nrf52840_xxAA.a(rand.c.obj)
 .text          0x00000000        0x0 mesh/core/libmesh_core_nrf52840_xxAA.a(timeslot.c.obj)
 .data          0x00000000        0x0 mesh/core/libmesh_core_nrf52840_xxAA.a(timeslot.c.obj)
 .bss           0x00000000        0x0 mesh/core/libmesh_core_nrf52840_xxAA.a(timeslot.c.obj)
 .text.timeslot_restart
                0x00000000       0x30 mesh/core/libmesh_core_nrf52840_xxAA.a(timeslot.c.obj)
 .text.timeslot_end_time_get
                0x00000000       0x30 mesh/core/libmesh_core_nrf52840_xxAA.a(timeslot.c.obj)
 .text.timeslot_is_in_ts
                0x00000000        0xc mesh/core/libmesh_core_nrf52840_xxAA.a(timeslot.c.obj)
 .text          0x00000000        0x0 mesh/core/libmesh_core_nrf52840_xxAA.a(bearer_event.c.obj)
 .data          0x00000000        0x0 mesh/core/libmesh_core_nrf52840_xxAA.a(bearer_event.c.obj)
 .bss           0x00000000        0x0 mesh/core/libmesh_core_nrf52840_xxAA.a(bearer_event.c.obj)
 .text.bearer_event_generic_post
                0x00000000       0x50 mesh/core/libmesh_core_nrf52840_xxAA.a(bearer_event.c.obj)
 .text.bearer_event_timer_sch_post
                0x00000000       0x54 mesh/core/libmesh_core_nrf52840_xxAA.a(bearer_event.c.obj)
 .text          0x00000000        0x0 mesh/core/libmesh_core_nrf52840_xxAA.a(network.c.obj)
 .data          0x00000000        0x0 mesh/core/libmesh_core_nrf52840_xxAA.a(network.c.obj)
 .bss           0x00000000        0x0 mesh/core/libmesh_core_nrf52840_xxAA.a(network.c.obj)
 .text.network_opt_set
                0x00000000       0x58 mesh/core/libmesh_core_nrf52840_xxAA.a(network.c.obj)
 .text.network_opt_get
                0x00000000       0x4c mesh/core/libmesh_core_nrf52840_xxAA.a(network.c.obj)
 .text.network_packet_discard
                0x00000000       0x4c mesh/core/libmesh_core_nrf52840_xxAA.a(network.c.obj)
 .text          0x00000000        0x0 mesh/core/libmesh_core_nrf52840_xxAA.a(nrf_mesh_keygen.c.obj)
 .data          0x00000000        0x0 mesh/core/libmesh_core_nrf52840_xxAA.a(nrf_mesh_keygen.c.obj)
 .bss           0x00000000        0x0 mesh/core/libmesh_core_nrf52840_xxAA.a(nrf_mesh_keygen.c.obj)
 .text.nrf_mesh_keygen_aid
                0x00000000       0x18 mesh/core/libmesh_core_nrf52840_xxAA.a(nrf_mesh_keygen.c.obj)
 .text.nrf_mesh_keygen_network_secmat
                0x00000000       0x24 mesh/core/libmesh_core_nrf52840_xxAA.a(nrf_mesh_keygen.c.obj)
 .text.nrf_mesh_keygen_beacon_secmat
                0x00000000       0x50 mesh/core/libmesh_core_nrf52840_xxAA.a(nrf_mesh_keygen.c.obj)
 .text.nrf_mesh_keygen_identitykey
                0x00000000       0x4c mesh/core/libmesh_core_nrf52840_xxAA.a(nrf_mesh_keygen.c.obj)
 .text.nrf_mesh_keygen_virtual_address
                0x00000000       0x50 mesh/core/libmesh_core_nrf52840_xxAA.a(nrf_mesh_keygen.c.obj)
 .rodata        0x00000000        0x7 mesh/core/libmesh_core_nrf52840_xxAA.a(nrf_mesh_keygen.c.obj)
 .comment       0x00000000       0x80 mesh/core/libmesh_core_nrf52840_xxAA.a(nrf_mesh_keygen.c.obj)
 .ARM.attributes
                0x00000000       0x39 mesh/core/libmesh_core_nrf52840_xxAA.a(nrf_mesh_keygen.c.obj)
 .text          0x00000000        0x0 mesh/core/libmesh_core_nrf52840_xxAA.a(log.c.obj)
 .data          0x00000000        0x0 mesh/core/libmesh_core_nrf52840_xxAA.a(log.c.obj)
 .bss           0x00000000        0x0 mesh/core/libmesh_core_nrf52840_xxAA.a(log.c.obj)
 .text.log_callback_logview
                0x00000000       0x38 mesh/core/libmesh_core_nrf52840_xxAA.a(log.c.obj)
 .text.log_set_callback
                0x00000000        0xc mesh/core/libmesh_core_nrf52840_xxAA.a(log.c.obj)
 .text.log_vprintf
                0x00000000       0x18 mesh/core/libmesh_core_nrf52840_xxAA.a(log.c.obj)
 .rodata.log_callback_logview.str1.4
                0x00000000       0x12 mesh/core/libmesh_core_nrf52840_xxAA.a(log.c.obj)
 .text          0x00000000        0x0 mesh/core/libmesh_core_nrf52840_xxAA.a(flash_manager.c.obj)
 .data          0x00000000        0x0 mesh/core/libmesh_core_nrf52840_xxAA.a(flash_manager.c.obj)
 .bss           0x00000000        0x0 mesh/core/libmesh_core_nrf52840_xxAA.a(flash_manager.c.obj)
 .text.flash_manager_remove
                0x00000000       0x78 mesh/core/libmesh_core_nrf52840_xxAA.a(flash_manager.c.obj)
 .text.flash_manager_entry_get
                0x00000000       0x54 mesh/core/libmesh_core_nrf52840_xxAA.a(flash_manager.c.obj)
 .text.flash_manager_entry_count_get
                0x00000000      0x110 mesh/core/libmesh_core_nrf52840_xxAA.a(flash_manager.c.obj)
 .text.flash_manager_entry_release
                0x00000000       0xb4 mesh/core/libmesh_core_nrf52840_xxAA.a(flash_manager.c.obj)
 .text          0x00000000        0x0 mesh/core/libmesh_core_nrf52840_xxAA.a(beacon.c.obj)
 .data          0x00000000        0x0 mesh/core/libmesh_core_nrf52840_xxAA.a(beacon.c.obj)
 .bss           0x00000000        0x0 mesh/core/libmesh_core_nrf52840_xxAA.a(beacon.c.obj)
 .text.beacon_create
                0x00000000       0x50 mesh/core/libmesh_core_nrf52840_xxAA.a(beacon.c.obj)
 .text          0x00000000        0x0 mesh/core/libmesh_core_nrf52840_xxAA.a(flash_manager_internal.c.obj)
 .data          0x00000000        0x0 mesh/core/libmesh_core_nrf52840_xxAA.a(flash_manager_internal.c.obj)
 .bss           0x00000000        0x0 mesh/core/libmesh_core_nrf52840_xxAA.a(flash_manager_internal.c.obj)
 .text          0x00000000        0x0 mesh/core/libmesh_core_nrf52840_xxAA.a(core_tx.c.obj)
 .data          0x00000000        0x0 mesh/core/libmesh_core_nrf52840_xxAA.a(core_tx.c.obj)
 .bss           0x00000000        0x0 mesh/core/libmesh_core_nrf52840_xxAA.a(core_tx.c.obj)
 .text.core_tx_adv_count_set
                0x00000000       0x40 mesh/core/libmesh_core_nrf52840_xxAA.a(core_tx.c.obj)
 .text.core_tx_adv_count_get
                0x00000000       0x2c mesh/core/libmesh_core_nrf52840_xxAA.a(core_tx.c.obj)
 .text.core_tx_adv_interval_set
                0x00000000       0x34 mesh/core/libmesh_core_nrf52840_xxAA.a(core_tx.c.obj)
 .text.core_tx_adv_interval_get
                0x00000000       0x38 mesh/core/libmesh_core_nrf52840_xxAA.a(core_tx.c.obj)
 .text.core_tx_adv_address_set
                0x00000000       0x34 mesh/core/libmesh_core_nrf52840_xxAA.a(core_tx.c.obj)
 .text          0x00000000        0x0 mesh/core/libmesh_core_nrf52840_xxAA.a(net_beacon.c.obj)
 .data          0x00000000        0x0 mesh/core/libmesh_core_nrf52840_xxAA.a(net_beacon.c.obj)
 .bss           0x00000000        0x0 mesh/core/libmesh_core_nrf52840_xxAA.a(net_beacon.c.obj)
 .text.net_beacon_state_set
                0x00000000       0x3c mesh/core/libmesh_core_nrf52840_xxAA.a(net_beacon.c.obj)
 .text.net_beacon_state_get
                0x00000000        0xc mesh/core/libmesh_core_nrf52840_xxAA.a(net_beacon.c.obj)
 .text          0x00000000        0x0 mesh/core/libmesh_core_nrf52840_xxAA.a(advertiser.c.obj)
 .data          0x00000000        0x0 mesh/core/libmesh_core_nrf52840_xxAA.a(advertiser.c.obj)
 .bss           0x00000000        0x0 mesh/core/libmesh_core_nrf52840_xxAA.a(advertiser.c.obj)
 .text.advertiser_disable
                0x00000000        0xc mesh/core/libmesh_core_nrf52840_xxAA.a(advertiser.c.obj)
 .text.advertiser_channels_set
                0x00000000       0xac mesh/core/libmesh_core_nrf52840_xxAA.a(advertiser.c.obj)
 .text.advertiser_config_set
                0x00000000      0x12c mesh/core/libmesh_core_nrf52840_xxAA.a(advertiser.c.obj)
 .text.advertiser_address_set
                0x00000000       0x80 mesh/core/libmesh_core_nrf52840_xxAA.a(advertiser.c.obj)
 .text.advertiser_config_get
                0x00000000       0x30 mesh/core/libmesh_core_nrf52840_xxAA.a(advertiser.c.obj)
 .text.advertiser_flush
                0x00000000       0x20 mesh/core/libmesh_core_nrf52840_xxAA.a(advertiser.c.obj)
 .text.advertiser_address_default_get
                0x00000000       0x68 mesh/core/libmesh_core_nrf52840_xxAA.a(advertiser.c.obj)
 .text          0x00000000        0x0 mesh/core/libmesh_core_nrf52840_xxAA.a(bearer_handler.c.obj)
 .data          0x00000000        0x0 mesh/core/libmesh_core_nrf52840_xxAA.a(bearer_handler.c.obj)
 .bss           0x00000000        0x0 mesh/core/libmesh_core_nrf52840_xxAA.a(bearer_handler.c.obj)
 .text.bearer_handler_stop
                0x00000000       0x20 mesh/core/libmesh_core_nrf52840_xxAA.a(bearer_handler.c.obj)
 .text.bearer_handler_action_fire
                0x00000000       0xb0 mesh/core/libmesh_core_nrf52840_xxAA.a(bearer_handler.c.obj)
 .text          0x00000000        0x0 mesh/core/libmesh_core_nrf52840_xxAA.a(broadcast.c.obj)
 .data          0x00000000        0x0 mesh/core/libmesh_core_nrf52840_xxAA.a(broadcast.c.obj)
 .bss           0x00000000        0x0 mesh/core/libmesh_core_nrf52840_xxAA.a(broadcast.c.obj)
 .text          0x00000000        0x0 mesh/core/libmesh_core_nrf52840_xxAA.a(radio_config.c.obj)
 .data          0x00000000        0x0 mesh/core/libmesh_core_nrf52840_xxAA.a(radio_config.c.obj)
 .bss           0x00000000        0x0 mesh/core/libmesh_core_nrf52840_xxAA.a(radio_config.c.obj)
 .text.radio_config_access_addr_get
                0x00000000       0x6c mesh/core/libmesh_core_nrf52840_xxAA.a(radio_config.c.obj)
 .text          0x00000000        0x0 mesh/core/libmesh_core_nrf52840_xxAA.a(scanner.c.obj)
 .data          0x00000000        0x0 mesh/core/libmesh_core_nrf52840_xxAA.a(scanner.c.obj)
 .bss           0x00000000        0x0 mesh/core/libmesh_core_nrf52840_xxAA.a(scanner.c.obj)
 .text.scanner_disable
                0x00000000       0x5c mesh/core/libmesh_core_nrf52840_xxAA.a(scanner.c.obj)
 .text.scanner_is_enabled
                0x00000000       0x14 mesh/core/libmesh_core_nrf52840_xxAA.a(scanner.c.obj)
 .text.scanner_stats_get
                0x00000000        0x8 mesh/core/libmesh_core_nrf52840_xxAA.a(scanner.c.obj)
 .text.scanner_config_radio_mode_set
                0x00000000       0x10 mesh/core/libmesh_core_nrf52840_xxAA.a(scanner.c.obj)
 .text.scanner_config_scan_time_set
                0x00000000       0x94 mesh/core/libmesh_core_nrf52840_xxAA.a(scanner.c.obj)
 .text.scanner_config_channels_set
                0x00000000       0x64 mesh/core/libmesh_core_nrf52840_xxAA.a(scanner.c.obj)
 .text.scanner_config_access_addresses_set
                0x00000000       0x44 mesh/core/libmesh_core_nrf52840_xxAA.a(scanner.c.obj)
 .text          0x00000000        0x0 mesh/core/libmesh_core_nrf52840_xxAA.a(internal_event.c.obj)
 .data          0x00000000        0x0 mesh/core/libmesh_core_nrf52840_xxAA.a(internal_event.c.obj)
 .bss           0x00000000        0x0 mesh/core/libmesh_core_nrf52840_xxAA.a(internal_event.c.obj)
 .text.internal_event_init
                0x00000000       0x48 mesh/core/libmesh_core_nrf52840_xxAA.a(internal_event.c.obj)
 .text.internal_event_pop
                0x00000000       0x1c mesh/core/libmesh_core_nrf52840_xxAA.a(internal_event.c.obj)
 .bss.m_internal_event_fifo_buffer
                0x00000000      0x100 mesh/core/libmesh_core_nrf52840_xxAA.a(internal_event.c.obj)
 .text          0x00000000        0x0 mesh/core/libmesh_core_nrf52840_xxAA.a(nrf_mesh_configure.c.obj)
 .data          0x00000000        0x0 mesh/core/libmesh_core_nrf52840_xxAA.a(nrf_mesh_configure.c.obj)
 .bss           0x00000000        0x0 mesh/core/libmesh_core_nrf52840_xxAA.a(nrf_mesh_configure.c.obj)
 .text.nrf_mesh_configure_device_uuid_set
                0x00000000       0x10 mesh/core/libmesh_core_nrf52840_xxAA.a(nrf_mesh_configure.c.obj)
 .text.nrf_mesh_configure_device_uuid_get
                0x00000000        0x8 mesh/core/libmesh_core_nrf52840_xxAA.a(nrf_mesh_configure.c.obj)
 .text          0x00000000        0x0 mesh/core/libmesh_core_nrf52840_xxAA.a(msg_cache.c.obj)
 .data          0x00000000        0x0 mesh/core/libmesh_core_nrf52840_xxAA.a(msg_cache.c.obj)
 .bss           0x00000000        0x0 mesh/core/libmesh_core_nrf52840_xxAA.a(msg_cache.c.obj)
 .text.msg_cache_clear
                0x00000000       0x18 mesh/core/libmesh_core_nrf52840_xxAA.a(msg_cache.c.obj)
 .text          0x00000000        0x0 mesh/core/libmesh_core_nrf52840_xxAA.a(transport.c.obj)
 .data          0x00000000        0x0 mesh/core/libmesh_core_nrf52840_xxAA.a(transport.c.obj)
 .bss           0x00000000        0x0 mesh/core/libmesh_core_nrf52840_xxAA.a(transport.c.obj)
 .text.transport_sar_mem_funcs_reset
                0x00000000       0x30 mesh/core/libmesh_core_nrf52840_xxAA.a(transport.c.obj)
 .text.transport_sar_mem_funcs_set
                0x00000000       0x48 mesh/core/libmesh_core_nrf52840_xxAA.a(transport.c.obj)
 .text.transport_tx
                0x00000000      0x32c mesh/core/libmesh_core_nrf52840_xxAA.a(transport.c.obj)
 .text.transport_opt_set
                0x00000000       0xdc mesh/core/libmesh_core_nrf52840_xxAA.a(transport.c.obj)
 .text.transport_opt_get
                0x00000000       0x84 mesh/core/libmesh_core_nrf52840_xxAA.a(transport.c.obj)
 .rodata.transport_tx.str1.4
                0x00000000       0x38 mesh/core/libmesh_core_nrf52840_xxAA.a(transport.c.obj)
 .text          0x00000000        0x0 mesh/core/libmesh_core_nrf52840_xxAA.a(packet_buffer.c.obj)
 .data          0x00000000        0x0 mesh/core/libmesh_core_nrf52840_xxAA.a(packet_buffer.c.obj)
 .bss           0x00000000        0x0 mesh/core/libmesh_core_nrf52840_xxAA.a(packet_buffer.c.obj)
 .text.packet_buffer_max_packet_len_get
                0x00000000       0x3c mesh/core/libmesh_core_nrf52840_xxAA.a(packet_buffer.c.obj)
 .text.packet_buffer_flush
                0x00000000       0xd4 mesh/core/libmesh_core_nrf52840_xxAA.a(packet_buffer.c.obj)
 .text          0x00000000        0x0 mesh/core/libmesh_core_nrf52840_xxAA.a(flash_manager_defrag.c.obj)
 .data          0x00000000        0x0 mesh/core/libmesh_core_nrf52840_xxAA.a(flash_manager_defrag.c.obj)
 .bss           0x00000000        0x0 mesh/core/libmesh_core_nrf52840_xxAA.a(flash_manager_defrag.c.obj)
 .text.flash_manager_defragging
                0x00000000       0x50 mesh/core/libmesh_core_nrf52840_xxAA.a(flash_manager_defrag.c.obj)
 .text          0x00000000        0x0 mesh/core/libmesh_core_nrf52840_xxAA.a(fifo.c.obj)
 .data          0x00000000        0x0 mesh/core/libmesh_core_nrf52840_xxAA.a(fifo.c.obj)
 .bss           0x00000000        0x0 mesh/core/libmesh_core_nrf52840_xxAA.a(fifo.c.obj)
 .text.fifo_peek_at
                0x00000000       0x54 mesh/core/libmesh_core_nrf52840_xxAA.a(fifo.c.obj)
 .text.fifo_peek
                0x00000000       0x50 mesh/core/libmesh_core_nrf52840_xxAA.a(fifo.c.obj)
 .text.fifo_flush
                0x00000000        0x8 mesh/core/libmesh_core_nrf52840_xxAA.a(fifo.c.obj)
 .text.fifo_get_len
                0x00000000        0x8 mesh/core/libmesh_core_nrf52840_xxAA.a(fifo.c.obj)
 .text.fifo_is_full
                0x00000000       0x14 mesh/core/libmesh_core_nrf52840_xxAA.a(fifo.c.obj)
 .text.fifo_is_empty
                0x00000000       0x10 mesh/core/libmesh_core_nrf52840_xxAA.a(fifo.c.obj)
 .text          0x00000000        0x0 mesh/core/libmesh_core_nrf52840_xxAA.a(packet_mgr.c.obj)
 .data          0x00000000        0x0 mesh/core/libmesh_core_nrf52840_xxAA.a(packet_mgr.c.obj)
 .bss           0x00000000        0x0 mesh/core/libmesh_core_nrf52840_xxAA.a(packet_mgr.c.obj)
 .text.packet_mgr_alloc
                0x00000000      0x1dc mesh/core/libmesh_core_nrf52840_xxAA.a(packet_mgr.c.obj)
 .text.packet_mgr_free
                0x00000000       0x70 mesh/core/libmesh_core_nrf52840_xxAA.a(packet_mgr.c.obj)
 .text.packet_mgr_get_free_space
                0x00000000       0x1c mesh/core/libmesh_core_nrf52840_xxAA.a(packet_mgr.c.obj)
 .text.packet_mgr_refcount_get
                0x00000000        0x8 mesh/core/libmesh_core_nrf52840_xxAA.a(packet_mgr.c.obj)
 .text.packet_mgr_size_get
                0x00000000        0x8 mesh/core/libmesh_core_nrf52840_xxAA.a(packet_mgr.c.obj)
 .text          0x00000000        0x0 mesh/core/libmesh_core_nrf52840_xxAA.a(mesh_flash.c.obj)
 .data          0x00000000        0x0 mesh/core/libmesh_core_nrf52840_xxAA.a(mesh_flash.c.obj)
 .bss           0x00000000        0x0 mesh/core/libmesh_core_nrf52840_xxAA.a(mesh_flash.c.obj)
 .text.mesh_flash_op_available_slots
                0x00000000       0x2c mesh/core/libmesh_core_nrf52840_xxAA.a(mesh_flash.c.obj)
 .text.mesh_flash_in_progress
                0x00000000       0x34 mesh/core/libmesh_core_nrf52840_xxAA.a(mesh_flash.c.obj)
 .text.mesh_flash_set_suspended
                0x00000000       0x90 mesh/core/libmesh_core_nrf52840_xxAA.a(mesh_flash.c.obj)
 .bss.suspend_count.10174
                0x00000000        0x4 mesh/core/libmesh_core_nrf52840_xxAA.a(mesh_flash.c.obj)
 .text          0x00000000        0x0 mesh/core/libmesh_core_nrf52840_xxAA.a(queue.c.obj)
 .data          0x00000000        0x0 mesh/core/libmesh_core_nrf52840_xxAA.a(queue.c.obj)
 .bss           0x00000000        0x0 mesh/core/libmesh_core_nrf52840_xxAA.a(queue.c.obj)
 .text          0x00000000        0x0 mesh/core/libmesh_core_nrf52840_xxAA.a(enc.c.obj)
 .data          0x00000000        0x0 mesh/core/libmesh_core_nrf52840_xxAA.a(enc.c.obj)
 .bss           0x00000000        0x0 mesh/core/libmesh_core_nrf52840_xxAA.a(enc.c.obj)
 .text.enc_key_generate
                0x00000000        0x8 mesh/core/libmesh_core_nrf52840_xxAA.a(enc.c.obj)
 .text.enc_k1   0x00000000       0x50 mesh/core/libmesh_core_nrf52840_xxAA.a(enc.c.obj)
 .text.enc_k2   0x00000000       0xec mesh/core/libmesh_core_nrf52840_xxAA.a(enc.c.obj)
 .text.enc_k3   0x00000000       0x74 mesh/core/libmesh_core_nrf52840_xxAA.a(enc.c.obj)
 .text.enc_k4   0x00000000       0x6c mesh/core/libmesh_core_nrf52840_xxAA.a(enc.c.obj)
 .rodata        0x00000000       0x18 mesh/core/libmesh_core_nrf52840_xxAA.a(enc.c.obj)
 .text          0x00000000        0x0 mesh/core/libmesh_core_nrf52840_xxAA.a(msqueue.c.obj)
 .data          0x00000000        0x0 mesh/core/libmesh_core_nrf52840_xxAA.a(msqueue.c.obj)
 .bss           0x00000000        0x0 mesh/core/libmesh_core_nrf52840_xxAA.a(msqueue.c.obj)
 .text.msq_reset
                0x00000000       0x34 mesh/core/libmesh_core_nrf52840_xxAA.a(msqueue.c.obj)
 .text          0x00000000        0x0 mesh/core/libmesh_core_nrf52840_xxAA.a(ccm_soft.c.obj)
 .data          0x00000000        0x0 mesh/core/libmesh_core_nrf52840_xxAA.a(ccm_soft.c.obj)
 .bss           0x00000000        0x0 mesh/core/libmesh_core_nrf52840_xxAA.a(ccm_soft.c.obj)
 .text          0x00000000        0x0 mesh/core/libmesh_core_nrf52840_xxAA.a(replay_cache.c.obj)
 .data          0x00000000        0x0 mesh/core/libmesh_core_nrf52840_xxAA.a(replay_cache.c.obj)
 .bss           0x00000000        0x0 mesh/core/libmesh_core_nrf52840_xxAA.a(replay_cache.c.obj)
 .text.replay_cache_on_iv_update
                0x00000000       0x2c mesh/core/libmesh_core_nrf52840_xxAA.a(replay_cache.c.obj)
 .text.replay_cache_clear
                0x00000000       0x28 mesh/core/libmesh_core_nrf52840_xxAA.a(replay_cache.c.obj)
 .text          0x00000000        0x0 mesh/core/libmesh_core_nrf52840_xxAA.a(filter_engine.c.obj)
 .data          0x00000000        0x0 mesh/core/libmesh_core_nrf52840_xxAA.a(filter_engine.c.obj)
 .bss           0x00000000        0x0 mesh/core/libmesh_core_nrf52840_xxAA.a(filter_engine.c.obj)
 .text.fen_filter_start
                0x00000000       0x84 mesh/core/libmesh_core_nrf52840_xxAA.a(filter_engine.c.obj)
 .text.fen_filter_stop
                0x00000000       0x70 mesh/core/libmesh_core_nrf52840_xxAA.a(filter_engine.c.obj)
 .text.fen_accepted_amount_get
                0x00000000        0xc mesh/core/libmesh_core_nrf52840_xxAA.a(filter_engine.c.obj)
 .text          0x00000000        0x0 mesh/core/libmesh_core_nrf52840_xxAA.a(aes.c.obj)
 .data          0x00000000        0x0 mesh/core/libmesh_core_nrf52840_xxAA.a(aes.c.obj)
 .bss           0x00000000        0x0 mesh/core/libmesh_core_nrf52840_xxAA.a(aes.c.obj)
 .text          0x00000000        0x0 mesh/core/libmesh_core_nrf52840_xxAA.a(nrf_flash.c.obj)
 .data          0x00000000        0x0 mesh/core/libmesh_core_nrf52840_xxAA.a(nrf_flash.c.obj)
 .bss           0x00000000        0x0 mesh/core/libmesh_core_nrf52840_xxAA.a(nrf_flash.c.obj)
 .text          0x00000000        0x0 mesh/core/libmesh_core_nrf52840_xxAA.a(aes_cmac.c.obj)
 .data          0x00000000        0x0 mesh/core/libmesh_core_nrf52840_xxAA.a(aes_cmac.c.obj)
 .bss           0x00000000        0x0 mesh/core/libmesh_core_nrf52840_xxAA.a(aes_cmac.c.obj)
 .text          0x00000000        0x0 external/rtt/librtt_nrf52840_xxAA.a(SEGGER_RTT.c.obj)
 .data          0x00000000        0x0 external/rtt/librtt_nrf52840_xxAA.a(SEGGER_RTT.c.obj)
 .bss           0x00000000        0x0 external/rtt/librtt_nrf52840_xxAA.a(SEGGER_RTT.c.obj)
 .text.SEGGER_RTT_ReadNoLock
                0x00000000      0x100 external/rtt/librtt_nrf52840_xxAA.a(SEGGER_RTT.c.obj)
 .text.SEGGER_RTT_Read
                0x00000000      0x114 external/rtt/librtt_nrf52840_xxAA.a(SEGGER_RTT.c.obj)
 .text.SEGGER_RTT_WriteSkipNoLock
                0x00000000      0x184 external/rtt/librtt_nrf52840_xxAA.a(SEGGER_RTT.c.obj)
 .text.SEGGER_RTT_WriteNoLock
                0x00000000      0x188 external/rtt/librtt_nrf52840_xxAA.a(SEGGER_RTT.c.obj)
 .text.SEGGER_RTT_WriteString
                0x00000000      0x20c external/rtt/librtt_nrf52840_xxAA.a(SEGGER_RTT.c.obj)
 .text.SEGGER_RTT_GetKey
                0x00000000       0xec external/rtt/librtt_nrf52840_xxAA.a(SEGGER_RTT.c.obj)
 .text.SEGGER_RTT_WaitKey
                0x00000000      0x114 external/rtt/librtt_nrf52840_xxAA.a(SEGGER_RTT.c.obj)
 .text.SEGGER_RTT_HasKey
                0x00000000       0x6c external/rtt/librtt_nrf52840_xxAA.a(SEGGER_RTT.c.obj)
 .text.SEGGER_RTT_HasData
                0x00000000       0x18 external/rtt/librtt_nrf52840_xxAA.a(SEGGER_RTT.c.obj)
 .text.SEGGER_RTT_AllocDownBuffer
                0x00000000       0xbc external/rtt/librtt_nrf52840_xxAA.a(SEGGER_RTT.c.obj)
 .text.SEGGER_RTT_AllocUpBuffer
                0x00000000       0xd8 external/rtt/librtt_nrf52840_xxAA.a(SEGGER_RTT.c.obj)
 .text.SEGGER_RTT_ConfigUpBuffer
                0x00000000       0xd0 external/rtt/librtt_nrf52840_xxAA.a(SEGGER_RTT.c.obj)
 .text.SEGGER_RTT_ConfigDownBuffer
                0x00000000       0xb8 external/rtt/librtt_nrf52840_xxAA.a(SEGGER_RTT.c.obj)
 .text.SEGGER_RTT_SetNameUpBuffer
                0x00000000       0x90 external/rtt/librtt_nrf52840_xxAA.a(SEGGER_RTT.c.obj)
 .text.SEGGER_RTT_SetNameDownBuffer
                0x00000000       0x90 external/rtt/librtt_nrf52840_xxAA.a(SEGGER_RTT.c.obj)
 .text.SEGGER_RTT_Init
                0x00000000       0x60 external/rtt/librtt_nrf52840_xxAA.a(SEGGER_RTT.c.obj)
 .text.SEGGER_RTT_SetTerminal
                0x00000000      0x15c external/rtt/librtt_nrf52840_xxAA.a(SEGGER_RTT.c.obj)
 .text.SEGGER_RTT_TerminalOut
                0x00000000      0x40c external/rtt/librtt_nrf52840_xxAA.a(SEGGER_RTT.c.obj)
 .bss._ActiveTerminal
                0x00000000        0x1 external/rtt/librtt_nrf52840_xxAA.a(SEGGER_RTT.c.obj)
 .rodata._aTerminalId
                0x00000000       0x10 external/rtt/librtt_nrf52840_xxAA.a(SEGGER_RTT.c.obj)
 .text          0x00000000        0x0 external/rtt/librtt_nrf52840_xxAA.a(SEGGER_RTT_printf.c.obj)
 .data          0x00000000        0x0 external/rtt/librtt_nrf52840_xxAA.a(SEGGER_RTT_printf.c.obj)
 .bss           0x00000000        0x0 external/rtt/librtt_nrf52840_xxAA.a(SEGGER_RTT_printf.c.obj)
 .text          0x00000000        0x0 c:/a/gcc_arm/6/bin/../lib/gcc/arm-none-eabi/6.3.1/../../../../arm-none-eabi/lib/thumb/v7e-m/fpv4-sp/hard\libc_nano.a(lib_a-exit.o)
 .data          0x00000000        0x0 c:/a/gcc_arm/6/bin/../lib/gcc/arm-none-eabi/6.3.1/../../../../arm-none-eabi/lib/thumb/v7e-m/fpv4-sp/hard\libc_nano.a(lib_a-exit.o)
 .bss           0x00000000        0x0 c:/a/gcc_arm/6/bin/../lib/gcc/arm-none-eabi/6.3.1/../../../../arm-none-eabi/lib/thumb/v7e-m/fpv4-sp/hard\libc_nano.a(lib_a-exit.o)
 .text          0x00000000        0x0 c:/a/gcc_arm/6/bin/../lib/gcc/arm-none-eabi/6.3.1/../../../../arm-none-eabi/lib/thumb/v7e-m/fpv4-sp/hard\libc_nano.a(lib_a-impure.o)
 .data          0x00000000        0x0 c:/a/gcc_arm/6/bin/../lib/gcc/arm-none-eabi/6.3.1/../../../../arm-none-eabi/lib/thumb/v7e-m/fpv4-sp/hard\libc_nano.a(lib_a-impure.o)
 .bss           0x00000000        0x0 c:/a/gcc_arm/6/bin/../lib/gcc/arm-none-eabi/6.3.1/../../../../arm-none-eabi/lib/thumb/v7e-m/fpv4-sp/hard\libc_nano.a(lib_a-impure.o)
 .text          0x00000000        0x0 c:/a/gcc_arm/6/bin/../lib/gcc/arm-none-eabi/6.3.1/../../../../arm-none-eabi/lib/thumb/v7e-m/fpv4-sp/hard\libc_nano.a(lib_a-init.o)
 .data          0x00000000        0x0 c:/a/gcc_arm/6/bin/../lib/gcc/arm-none-eabi/6.3.1/../../../../arm-none-eabi/lib/thumb/v7e-m/fpv4-sp/hard\libc_nano.a(lib_a-init.o)
 .bss           0x00000000        0x0 c:/a/gcc_arm/6/bin/../lib/gcc/arm-none-eabi/6.3.1/../../../../arm-none-eabi/lib/thumb/v7e-m/fpv4-sp/hard\libc_nano.a(lib_a-init.o)
 .text          0x00000000        0x0 c:/a/gcc_arm/6/bin/../lib/gcc/arm-none-eabi/6.3.1/../../../../arm-none-eabi/lib/thumb/v7e-m/fpv4-sp/hard\libc_nano.a(lib_a-malloc.o)
 .data          0x00000000        0x0 c:/a/gcc_arm/6/bin/../lib/gcc/arm-none-eabi/6.3.1/../../../../arm-none-eabi/lib/thumb/v7e-m/fpv4-sp/hard\libc_nano.a(lib_a-malloc.o)
 .bss           0x00000000        0x0 c:/a/gcc_arm/6/bin/../lib/gcc/arm-none-eabi/6.3.1/../../../../arm-none-eabi/lib/thumb/v7e-m/fpv4-sp/hard\libc_nano.a(lib_a-malloc.o)
 .text          0x00000000        0x0 c:/a/gcc_arm/6/bin/../lib/gcc/arm-none-eabi/6.3.1/../../../../arm-none-eabi/lib/thumb/v7e-m/fpv4-sp/hard\libc_nano.a(lib_a-memcmp.o)
 .data          0x00000000        0x0 c:/a/gcc_arm/6/bin/../lib/gcc/arm-none-eabi/6.3.1/../../../../arm-none-eabi/lib/thumb/v7e-m/fpv4-sp/hard\libc_nano.a(lib_a-memcmp.o)
 .bss           0x00000000        0x0 c:/a/gcc_arm/6/bin/../lib/gcc/arm-none-eabi/6.3.1/../../../../arm-none-eabi/lib/thumb/v7e-m/fpv4-sp/hard\libc_nano.a(lib_a-memcmp.o)
 .text          0x00000000        0x0 c:/a/gcc_arm/6/bin/../lib/gcc/arm-none-eabi/6.3.1/../../../../arm-none-eabi/lib/thumb/v7e-m/fpv4-sp/hard\libc_nano.a(lib_a-memcpy-stub.o)
 .data          0x00000000        0x0 c:/a/gcc_arm/6/bin/../lib/gcc/arm-none-eabi/6.3.1/../../../../arm-none-eabi/lib/thumb/v7e-m/fpv4-sp/hard\libc_nano.a(lib_a-memcpy-stub.o)
 .bss           0x00000000        0x0 c:/a/gcc_arm/6/bin/../lib/gcc/arm-none-eabi/6.3.1/../../../../arm-none-eabi/lib/thumb/v7e-m/fpv4-sp/hard\libc_nano.a(lib_a-memcpy-stub.o)
 .text          0x00000000        0x0 c:/a/gcc_arm/6/bin/../lib/gcc/arm-none-eabi/6.3.1/../../../../arm-none-eabi/lib/thumb/v7e-m/fpv4-sp/hard\libc_nano.a(lib_a-memset.o)
 .data          0x00000000        0x0 c:/a/gcc_arm/6/bin/../lib/gcc/arm-none-eabi/6.3.1/../../../../arm-none-eabi/lib/thumb/v7e-m/fpv4-sp/hard\libc_nano.a(lib_a-memset.o)
 .bss           0x00000000        0x0 c:/a/gcc_arm/6/bin/../lib/gcc/arm-none-eabi/6.3.1/../../../../arm-none-eabi/lib/thumb/v7e-m/fpv4-sp/hard\libc_nano.a(lib_a-memset.o)
 .text          0x00000000        0x0 c:/a/gcc_arm/6/bin/../lib/gcc/arm-none-eabi/6.3.1/../../../../arm-none-eabi/lib/thumb/v7e-m/fpv4-sp/hard\libc_nano.a(lib_a-nano-freer.o)
 .data          0x00000000        0x0 c:/a/gcc_arm/6/bin/../lib/gcc/arm-none-eabi/6.3.1/../../../../arm-none-eabi/lib/thumb/v7e-m/fpv4-sp/hard\libc_nano.a(lib_a-nano-freer.o)
 .bss           0x00000000        0x0 c:/a/gcc_arm/6/bin/../lib/gcc/arm-none-eabi/6.3.1/../../../../arm-none-eabi/lib/thumb/v7e-m/fpv4-sp/hard\libc_nano.a(lib_a-nano-freer.o)
 .text          0x00000000        0x0 c:/a/gcc_arm/6/bin/../lib/gcc/arm-none-eabi/6.3.1/../../../../arm-none-eabi/lib/thumb/v7e-m/fpv4-sp/hard\libc_nano.a(lib_a-nano-mallocr.o)
 .data          0x00000000        0x0 c:/a/gcc_arm/6/bin/../lib/gcc/arm-none-eabi/6.3.1/../../../../arm-none-eabi/lib/thumb/v7e-m/fpv4-sp/hard\libc_nano.a(lib_a-nano-mallocr.o)
 .bss           0x00000000        0x0 c:/a/gcc_arm/6/bin/../lib/gcc/arm-none-eabi/6.3.1/../../../../arm-none-eabi/lib/thumb/v7e-m/fpv4-sp/hard\libc_nano.a(lib_a-nano-mallocr.o)
 .text          0x00000000        0x0 c:/a/gcc_arm/6/bin/../lib/gcc/arm-none-eabi/6.3.1/../../../../arm-none-eabi/lib/thumb/v7e-m/fpv4-sp/hard\libc_nano.a(lib_a-sbrkr.o)
 .data          0x00000000        0x0 c:/a/gcc_arm/6/bin/../lib/gcc/arm-none-eabi/6.3.1/../../../../arm-none-eabi/lib/thumb/v7e-m/fpv4-sp/hard\libc_nano.a(lib_a-sbrkr.o)
 .bss           0x00000000        0x0 c:/a/gcc_arm/6/bin/../lib/gcc/arm-none-eabi/6.3.1/../../../../arm-none-eabi/lib/thumb/v7e-m/fpv4-sp/hard\libc_nano.a(lib_a-sbrkr.o)
 .text          0x00000000        0x0 c:/a/gcc_arm/6/bin/../lib/gcc/arm-none-eabi/6.3.1/../../../../arm-none-eabi/lib/thumb/v7e-m/fpv4-sp/hard\libc_nano.a(lib_a-sprintf.o)
 .data          0x00000000        0x0 c:/a/gcc_arm/6/bin/../lib/gcc/arm-none-eabi/6.3.1/../../../../arm-none-eabi/lib/thumb/v7e-m/fpv4-sp/hard\libc_nano.a(lib_a-sprintf.o)
 .bss           0x00000000        0x0 c:/a/gcc_arm/6/bin/../lib/gcc/arm-none-eabi/6.3.1/../../../../arm-none-eabi/lib/thumb/v7e-m/fpv4-sp/hard\libc_nano.a(lib_a-sprintf.o)
 .text._sprintf_r
                0x00000000       0x40 c:/a/gcc_arm/6/bin/../lib/gcc/arm-none-eabi/6.3.1/../../../../arm-none-eabi/lib/thumb/v7e-m/fpv4-sp/hard\libc_nano.a(lib_a-sprintf.o)
 .text          0x00000000        0x0 c:/a/gcc_arm/6/bin/../lib/gcc/arm-none-eabi/6.3.1/../../../../arm-none-eabi/lib/thumb/v7e-m/fpv4-sp/hard\libc_nano.a(lib_a-strcpy.o)
 .data          0x00000000        0x0 c:/a/gcc_arm/6/bin/../lib/gcc/arm-none-eabi/6.3.1/../../../../arm-none-eabi/lib/thumb/v7e-m/fpv4-sp/hard\libc_nano.a(lib_a-strcpy.o)
 .bss           0x00000000        0x0 c:/a/gcc_arm/6/bin/../lib/gcc/arm-none-eabi/6.3.1/../../../../arm-none-eabi/lib/thumb/v7e-m/fpv4-sp/hard\libc_nano.a(lib_a-strcpy.o)
 .text          0x00000000       0x10 c:/a/gcc_arm/6/bin/../lib/gcc/arm-none-eabi/6.3.1/../../../../arm-none-eabi/lib/thumb/v7e-m/fpv4-sp/hard\libc_nano.a(lib_a-strlen.o)
 .data          0x00000000        0x0 c:/a/gcc_arm/6/bin/../lib/gcc/arm-none-eabi/6.3.1/../../../../arm-none-eabi/lib/thumb/v7e-m/fpv4-sp/hard\libc_nano.a(lib_a-strlen.o)
 .bss           0x00000000        0x0 c:/a/gcc_arm/6/bin/../lib/gcc/arm-none-eabi/6.3.1/../../../../arm-none-eabi/lib/thumb/v7e-m/fpv4-sp/hard\libc_nano.a(lib_a-strlen.o)
 .ARM.attributes
                0x00000000       0x1b c:/a/gcc_arm/6/bin/../lib/gcc/arm-none-eabi/6.3.1/../../../../arm-none-eabi/lib/thumb/v7e-m/fpv4-sp/hard\libc_nano.a(lib_a-strlen.o)
 .text          0x00000000        0x0 c:/a/gcc_arm/6/bin/../lib/gcc/arm-none-eabi/6.3.1/../../../../arm-none-eabi/lib/thumb/v7e-m/fpv4-sp/hard\libc_nano.a(lib_a-strrchr.o)
 .data          0x00000000        0x0 c:/a/gcc_arm/6/bin/../lib/gcc/arm-none-eabi/6.3.1/../../../../arm-none-eabi/lib/thumb/v7e-m/fpv4-sp/hard\libc_nano.a(lib_a-strrchr.o)
 .bss           0x00000000        0x0 c:/a/gcc_arm/6/bin/../lib/gcc/arm-none-eabi/6.3.1/../../../../arm-none-eabi/lib/thumb/v7e-m/fpv4-sp/hard\libc_nano.a(lib_a-strrchr.o)
 .text          0x00000000        0x0 c:/a/gcc_arm/6/bin/../lib/gcc/arm-none-eabi/6.3.1/../../../../arm-none-eabi/lib/thumb/v7e-m/fpv4-sp/hard\libc_nano.a(lib_a-mlock.o)
 .data          0x00000000        0x0 c:/a/gcc_arm/6/bin/../lib/gcc/arm-none-eabi/6.3.1/../../../../arm-none-eabi/lib/thumb/v7e-m/fpv4-sp/hard\libc_nano.a(lib_a-mlock.o)
 .bss           0x00000000        0x0 c:/a/gcc_arm/6/bin/../lib/gcc/arm-none-eabi/6.3.1/../../../../arm-none-eabi/lib/thumb/v7e-m/fpv4-sp/hard\libc_nano.a(lib_a-mlock.o)
 .text          0x00000000        0x0 c:/a/gcc_arm/6/bin/../lib/gcc/arm-none-eabi/6.3.1/../../../../arm-none-eabi/lib/thumb/v7e-m/fpv4-sp/hard\libc_nano.a(lib_a-nano-svfprintf.o)
 .data          0x00000000        0x0 c:/a/gcc_arm/6/bin/../lib/gcc/arm-none-eabi/6.3.1/../../../../arm-none-eabi/lib/thumb/v7e-m/fpv4-sp/hard\libc_nano.a(lib_a-nano-svfprintf.o)
 .bss           0x00000000        0x0 c:/a/gcc_arm/6/bin/../lib/gcc/arm-none-eabi/6.3.1/../../../../arm-none-eabi/lib/thumb/v7e-m/fpv4-sp/hard\libc_nano.a(lib_a-nano-svfprintf.o)
 .text.__ssprint_r
                0x00000000       0xf4 c:/a/gcc_arm/6/bin/../lib/gcc/arm-none-eabi/6.3.1/../../../../arm-none-eabi/lib/thumb/v7e-m/fpv4-sp/hard\libc_nano.a(lib_a-nano-svfprintf.o)
 .text          0x00000000        0x0 c:/a/gcc_arm/6/bin/../lib/gcc/arm-none-eabi/6.3.1/../../../../arm-none-eabi/lib/thumb/v7e-m/fpv4-sp/hard\libc_nano.a(lib_a-nano-vfprintf_i.o)
 .data          0x00000000        0x0 c:/a/gcc_arm/6/bin/../lib/gcc/arm-none-eabi/6.3.1/../../../../arm-none-eabi/lib/thumb/v7e-m/fpv4-sp/hard\libc_nano.a(lib_a-nano-vfprintf_i.o)
 .bss           0x00000000        0x0 c:/a/gcc_arm/6/bin/../lib/gcc/arm-none-eabi/6.3.1/../../../../arm-none-eabi/lib/thumb/v7e-m/fpv4-sp/hard\libc_nano.a(lib_a-nano-vfprintf_i.o)
 .text          0x00000000        0x0 c:/a/gcc_arm/6/bin/../lib/gcc/arm-none-eabi/6.3.1/../../../../arm-none-eabi/lib/thumb/v7e-m/fpv4-sp/hard\libc_nano.a(lib_a-reent.o)
 .data          0x00000000        0x0 c:/a/gcc_arm/6/bin/../lib/gcc/arm-none-eabi/6.3.1/../../../../arm-none-eabi/lib/thumb/v7e-m/fpv4-sp/hard\libc_nano.a(lib_a-reent.o)
 .bss           0x00000000        0x0 c:/a/gcc_arm/6/bin/../lib/gcc/arm-none-eabi/6.3.1/../../../../arm-none-eabi/lib/thumb/v7e-m/fpv4-sp/hard\libc_nano.a(lib_a-reent.o)
 .text.cleanup_glue
                0x00000000       0x1a c:/a/gcc_arm/6/bin/../lib/gcc/arm-none-eabi/6.3.1/../../../../arm-none-eabi/lib/thumb/v7e-m/fpv4-sp/hard\libc_nano.a(lib_a-reent.o)
 .text._reclaim_reent
                0x00000000       0xb8 c:/a/gcc_arm/6/bin/../lib/gcc/arm-none-eabi/6.3.1/../../../../arm-none-eabi/lib/thumb/v7e-m/fpv4-sp/hard\libc_nano.a(lib_a-reent.o)
 .text          0x00000000        0x0 c:/a/gcc_arm/6/bin/../lib/gcc/arm-none-eabi/6.3.1/../../../../arm-none-eabi/lib/thumb/v7e-m/fpv4-sp/hard\libc_nano.a(lib_a-strchr.o)
 .data          0x00000000        0x0 c:/a/gcc_arm/6/bin/../lib/gcc/arm-none-eabi/6.3.1/../../../../arm-none-eabi/lib/thumb/v7e-m/fpv4-sp/hard\libc_nano.a(lib_a-strchr.o)
 .bss           0x00000000        0x0 c:/a/gcc_arm/6/bin/../lib/gcc/arm-none-eabi/6.3.1/../../../../arm-none-eabi/lib/thumb/v7e-m/fpv4-sp/hard\libc_nano.a(lib_a-strchr.o)
 .data          0x00000000        0x0 c:/a/gcc_arm/6/bin/../lib/gcc/arm-none-eabi/6.3.1/../../../../arm-none-eabi/lib/thumb/v7e-m/fpv4-sp/hard\libc_nano.a(lib_a-memchr.o)
 .bss           0x00000000        0x0 c:/a/gcc_arm/6/bin/../lib/gcc/arm-none-eabi/6.3.1/../../../../arm-none-eabi/lib/thumb/v7e-m/fpv4-sp/hard\libc_nano.a(lib_a-memchr.o)
 .text          0x00000000        0x0 c:/a/gcc_arm/6/bin/../lib/gcc/arm-none-eabi/6.3.1/../../../../arm-none-eabi/lib/thumb/v7e-m/fpv4-sp/hard\libc_nano.a(lib_a-memmove.o)
 .data          0x00000000        0x0 c:/a/gcc_arm/6/bin/../lib/gcc/arm-none-eabi/6.3.1/../../../../arm-none-eabi/lib/thumb/v7e-m/fpv4-sp/hard\libc_nano.a(lib_a-memmove.o)
 .bss           0x00000000        0x0 c:/a/gcc_arm/6/bin/../lib/gcc/arm-none-eabi/6.3.1/../../../../arm-none-eabi/lib/thumb/v7e-m/fpv4-sp/hard\libc_nano.a(lib_a-memmove.o)
 .text          0x00000000        0x0 c:/a/gcc_arm/6/bin/../lib/gcc/arm-none-eabi/6.3.1/../../../../arm-none-eabi/lib/thumb/v7e-m/fpv4-sp/hard\libc_nano.a(lib_a-nano-reallocr.o)
 .data          0x00000000        0x0 c:/a/gcc_arm/6/bin/../lib/gcc/arm-none-eabi/6.3.1/../../../../arm-none-eabi/lib/thumb/v7e-m/fpv4-sp/hard\libc_nano.a(lib_a-nano-reallocr.o)
 .bss           0x00000000        0x0 c:/a/gcc_arm/6/bin/../lib/gcc/arm-none-eabi/6.3.1/../../../../arm-none-eabi/lib/thumb/v7e-m/fpv4-sp/hard\libc_nano.a(lib_a-nano-reallocr.o)
 .text          0x00000000        0x0 c:/a/gcc_arm/6/bin/../lib/gcc/arm-none-eabi/6.3.1/../../../../arm-none-eabi/lib/thumb/v7e-m/fpv4-sp/hard\libc_nano.a(lib_a-nano-msizer.o)
 .data          0x00000000        0x0 c:/a/gcc_arm/6/bin/../lib/gcc/arm-none-eabi/6.3.1/../../../../arm-none-eabi/lib/thumb/v7e-m/fpv4-sp/hard\libc_nano.a(lib_a-nano-msizer.o)
 .bss           0x00000000        0x0 c:/a/gcc_arm/6/bin/../lib/gcc/arm-none-eabi/6.3.1/../../../../arm-none-eabi/lib/thumb/v7e-m/fpv4-sp/hard\libc_nano.a(lib_a-nano-msizer.o)
 .text          0x00000000        0x0 c:/a/gcc_arm/6/bin/../lib/gcc/arm-none-eabi/6.3.1/thumb/v7e-m/fpv4-sp/hard/crtend.o
 .data          0x00000000        0x0 c:/a/gcc_arm/6/bin/../lib/gcc/arm-none-eabi/6.3.1/thumb/v7e-m/fpv4-sp/hard/crtend.o
 .bss           0x00000000        0x0 c:/a/gcc_arm/6/bin/../lib/gcc/arm-none-eabi/6.3.1/thumb/v7e-m/fpv4-sp/hard/crtend.o
 .text          0x00000000        0x0 c:/a/gcc_arm/6/bin/../lib/gcc/arm-none-eabi/6.3.1/thumb/v7e-m/fpv4-sp/hard/crtn.o
 .data          0x00000000        0x0 c:/a/gcc_arm/6/bin/../lib/gcc/arm-none-eabi/6.3.1/thumb/v7e-m/fpv4-sp/hard/crtn.o
 .bss           0x00000000        0x0 c:/a/gcc_arm/6/bin/../lib/gcc/arm-none-eabi/6.3.1/thumb/v7e-m/fpv4-sp/hard/crtn.o
 .text          0x00000000        0x0 c:/a/gcc_arm/6/bin/../lib/gcc/arm-none-eabi/6.3.1/../../../../arm-none-eabi/lib/thumb/v7e-m/fpv4-sp/hard\libnosys.a(sbrk.o)
 .data          0x00000000        0x0 c:/a/gcc_arm/6/bin/../lib/gcc/arm-none-eabi/6.3.1/../../../../arm-none-eabi/lib/thumb/v7e-m/fpv4-sp/hard\libnosys.a(sbrk.o)
 .bss           0x00000000        0x0 c:/a/gcc_arm/6/bin/../lib/gcc/arm-none-eabi/6.3.1/../../../../arm-none-eabi/lib/thumb/v7e-m/fpv4-sp/hard\libnosys.a(sbrk.o)
 .text          0x00000000        0x0 c:/a/gcc_arm/6/bin/../lib/gcc/arm-none-eabi/6.3.1/../../../../arm-none-eabi/lib/thumb/v7e-m/fpv4-sp/hard\libnosys.a(_exit.o)
 .data          0x00000000        0x0 c:/a/gcc_arm/6/bin/../lib/gcc/arm-none-eabi/6.3.1/../../../../arm-none-eabi/lib/thumb/v7e-m/fpv4-sp/hard\libnosys.a(_exit.o)
 .bss           0x00000000        0x0 c:/a/gcc_arm/6/bin/../lib/gcc/arm-none-eabi/6.3.1/../../../../arm-none-eabi/lib/thumb/v7e-m/fpv4-sp/hard\libnosys.a(_exit.o)

Memory Configuration

Name             Origin             Length             Attributes
FLASH            0x00024000         0x000dc000         xr
RAM              0x200031b8         0x0003be4a         xrw
*default*        0x00000000         0xffffffff

Linker script and memory map

LOAD c:/a/gcc_arm/6/bin/../lib/gcc/arm-none-eabi/6.3.1/thumb/v7e-m/fpv4-sp/hard/crti.o
LOAD c:/a/gcc_arm/6/bin/../lib/gcc/arm-none-eabi/6.3.1/thumb/v7e-m/fpv4-sp/hard/crtbegin.o
LOAD c:/a/gcc_arm/6/bin/../lib/gcc/arm-none-eabi/6.3.1/../../../../arm-none-eabi/lib/thumb/v7e-m/fpv4-sp/hard/crt0.o
LOAD examples/beaconing/CMakeFiles/beaconing_nrf52840_xxAA_s140_5.0.0-3.alpha.dir/src/main.c.obj
LOAD examples/beaconing/CMakeFiles/beaconing_nrf52840_xxAA_s140_5.0.0-3.alpha.dir/__/nrf_mesh_sdk.c.obj
LOAD examples/beaconing/CMakeFiles/beaconing_nrf52840_xxAA_s140_5.0.0-3.alpha.dir/__/__/mesh/access/src/access_publish.c.obj
LOAD examples/beaconing/CMakeFiles/beaconing_nrf52840_xxAA_s140_5.0.0-3.alpha.dir/__/__/mesh/access/src/access.c.obj
LOAD examples/beaconing/CMakeFiles/beaconing_nrf52840_xxAA_s140_5.0.0-3.alpha.dir/__/__/mesh/access/src/access_reliable.c.obj
LOAD examples/beaconing/CMakeFiles/beaconing_nrf52840_xxAA_s140_5.0.0-3.alpha.dir/__/__/mesh/access/src/device_state_manager.c.obj
LOAD examples/beaconing/CMakeFiles/beaconing_nrf52840_xxAA_s140_5.0.0-3.alpha.dir/__/nrf_mesh_weak.c.obj
LOAD examples/beaconing/CMakeFiles/beaconing_nrf52840_xxAA_s140_5.0.0-3.alpha.dir/__/__/external/nRF5_SDK_14.0.0_3bcc1f7/components/toolchain/system_nrf52840.c.obj
LOAD examples/beaconing/CMakeFiles/beaconing_nrf52840_xxAA_s140_5.0.0-3.alpha.dir/__/__/external/nRF5_SDK_14.0.0_3bcc1f7/components/toolchain/gcc/gcc_startup_nrf52840.S.obj
LOAD mesh/core/libmesh_core_nrf52840_xxAA.a
LOAD external/rtt/librtt_nrf52840_xxAA.a
START GROUP
LOAD c:/a/gcc_arm/6/bin/../lib/gcc/arm-none-eabi/6.3.1/thumb/v7e-m/fpv4-sp/hard\libgcc.a
LOAD c:/a/gcc_arm/6/bin/../lib/gcc/arm-none-eabi/6.3.1/../../../../arm-none-eabi/lib/thumb/v7e-m/fpv4-sp/hard\libc_nano.a
END GROUP
START GROUP
LOAD c:/a/gcc_arm/6/bin/../lib/gcc/arm-none-eabi/6.3.1/thumb/v7e-m/fpv4-sp/hard\libgcc.a
LOAD c:/a/gcc_arm/6/bin/../lib/gcc/arm-none-eabi/6.3.1/../../../../arm-none-eabi/lib/thumb/v7e-m/fpv4-sp/hard\libc_nano.a
END GROUP
LOAD c:/a/gcc_arm/6/bin/../lib/gcc/arm-none-eabi/6.3.1/thumb/v7e-m/fpv4-sp/hard/crtend.o
LOAD c:/a/gcc_arm/6/bin/../lib/gcc/arm-none-eabi/6.3.1/thumb/v7e-m/fpv4-sp/hard/crtn.o
START GROUP
LOAD c:/a/gcc_arm/6/bin/../lib/gcc/arm-none-eabi/6.3.1/thumb/v7e-m/fpv4-sp/hard\libgcc.a
LOAD c:/a/gcc_arm/6/bin/../lib/gcc/arm-none-eabi/6.3.1/../../../../arm-none-eabi/lib/thumb/v7e-m/fpv4-sp/hard\libc.a
LOAD c:/a/gcc_arm/6/bin/../lib/gcc/arm-none-eabi/6.3.1/../../../../arm-none-eabi/lib/thumb/v7e-m/fpv4-sp/hard\libnosys.a
END GROUP

.text           0x00024000     0xc7e0
 *(.isr_vector)
 .isr_vector    0x00024000      0x200 examples/beaconing/CMakeFiles/beaconing_nrf52840_xxAA_s140_5.0.0-3.alpha.dir/__/__/external/nRF5_SDK_14.0.0_3bcc1f7/components/toolchain/gcc/gcc_startup_nrf52840.S.obj
                0x00024000                __isr_vector
 *(.text*)
 .text          0x00024200       0x6c c:/a/gcc_arm/6/bin/../lib/gcc/arm-none-eabi/6.3.1/thumb/v7e-m/fpv4-sp/hard/crtbegin.o
 .text          0x0002426c       0x74 c:/a/gcc_arm/6/bin/../lib/gcc/arm-none-eabi/6.3.1/../../../../arm-none-eabi/lib/thumb/v7e-m/fpv4-sp/hard/crt0.o
                0x0002426c                _start
                0x0002426c                _mainCRTStartup
 .text.rx_callback
                0x000242e0      0x11c examples/beaconing/CMakeFiles/beaconing_nrf52840_xxAA_s140_5.0.0-3.alpha.dir/src/main.c.obj
 .text.startup.main
                0x000243fc      0x150 examples/beaconing/CMakeFiles/beaconing_nrf52840_xxAA_s140_5.0.0-3.alpha.dir/src/main.c.obj
                0x000243fc                main
 .text.sd_evt_get
                0x0002454c        0x4 examples/beaconing/CMakeFiles/beaconing_nrf52840_xxAA_s140_5.0.0-3.alpha.dir/__/nrf_mesh_sdk.c.obj
 .text.sd_softdevice_enable
                0x00024550        0x4 examples/beaconing/CMakeFiles/beaconing_nrf52840_xxAA_s140_5.0.0-3.alpha.dir/__/nrf_mesh_sdk.c.obj
 .text.sd_ble_enable
                0x00024554        0x4 examples/beaconing/CMakeFiles/beaconing_nrf52840_xxAA_s140_5.0.0-3.alpha.dir/__/nrf_mesh_sdk.c.obj
 .text.sd_ble_evt_get
                0x00024558        0x4 examples/beaconing/CMakeFiles/beaconing_nrf52840_xxAA_s140_5.0.0-3.alpha.dir/__/nrf_mesh_sdk.c.obj
 .text.mesh_assert_handler
                0x0002455c       0x80 examples/beaconing/CMakeFiles/beaconing_nrf52840_xxAA_s140_5.0.0-3.alpha.dir/__/nrf_mesh_sdk.c.obj
                0x0002455c                mesh_assert_handler
 .text.softdevice_assert_handler
                0x000245dc       0x94 examples/beaconing/CMakeFiles/beaconing_nrf52840_xxAA_s140_5.0.0-3.alpha.dir/__/nrf_mesh_sdk.c.obj
                0x000245dc                softdevice_assert_handler
 .text.app_error_handler
                0x00024670       0x88 examples/beaconing/CMakeFiles/beaconing_nrf52840_xxAA_s140_5.0.0-3.alpha.dir/__/nrf_mesh_sdk.c.obj
                0x00024670                app_error_handler
 .text.HardFault_Handler
                0x000246f8       0x78 examples/beaconing/CMakeFiles/beaconing_nrf52840_xxAA_s140_5.0.0-3.alpha.dir/__/nrf_mesh_sdk.c.obj
                0x000246f8                HardFault_Handler
 .text.SWI2_EGU2_IRQHandler
                0x00024770       0x40 examples/beaconing/CMakeFiles/beaconing_nrf52840_xxAA_s140_5.0.0-3.alpha.dir/__/nrf_mesh_sdk.c.obj
                0x00024770                SWI2_EGU2_IRQHandler
 .text.mesh_softdevice_enable
                0x000247b0      0x14c examples/beaconing/CMakeFiles/beaconing_nrf52840_xxAA_s140_5.0.0-3.alpha.dir/__/nrf_mesh_sdk.c.obj
                0x000247b0                mesh_softdevice_enable
 .text.mesh_core_setup
                0x000248fc      0x1c4 examples/beaconing/CMakeFiles/beaconing_nrf52840_xxAA_s140_5.0.0-3.alpha.dir/__/nrf_mesh_sdk.c.obj
                0x000248fc                mesh_core_setup
 .text.nrf_mesh_net_secmat_next_get
                0x00024ac0       0xfc examples/beaconing/CMakeFiles/beaconing_nrf52840_xxAA_s140_5.0.0-3.alpha.dir/__/__/mesh/access/src/device_state_manager.c.obj
                0x00024ac0                nrf_mesh_net_secmat_next_get
 .text.nrf_mesh_app_secmat_next_get
                0x00024bbc      0x220 examples/beaconing/CMakeFiles/beaconing_nrf52840_xxAA_s140_5.0.0-3.alpha.dir/__/__/mesh/access/src/device_state_manager.c.obj
                0x00024bbc                nrf_mesh_app_secmat_next_get
 .text.nrf_mesh_devkey_secmat_get
                0x00024ddc       0x3c examples/beaconing/CMakeFiles/beaconing_nrf52840_xxAA_s140_5.0.0-3.alpha.dir/__/__/mesh/access/src/device_state_manager.c.obj
                0x00024ddc                nrf_mesh_devkey_secmat_get
 .text.nrf_mesh_beacon_info_next_get
                0x00024e18      0x11c examples/beaconing/CMakeFiles/beaconing_nrf52840_xxAA_s140_5.0.0-3.alpha.dir/__/__/mesh/access/src/device_state_manager.c.obj
                0x00024e18                nrf_mesh_beacon_info_next_get
 .text.nrf_mesh_rx_address_get
                0x00024f34      0x558 examples/beaconing/CMakeFiles/beaconing_nrf52840_xxAA_s140_5.0.0-3.alpha.dir/__/__/mesh/access/src/device_state_manager.c.obj
                0x00024f34                nrf_mesh_rx_address_get
 .text._weak_handler
                0x0002548c        0x4 examples/beaconing/CMakeFiles/beaconing_nrf52840_xxAA_s140_5.0.0-3.alpha.dir/__/nrf_mesh_weak.c.obj
                0x0002548c                nrf_mesh_dfu_init
                0x0002548c                prov_beacon_unprov_packet_in
                0x0002548c                nrf_mesh_dfu_jump_to_bootloader
                0x0002548c                prov_utils_opt_get
                0x0002548c                nrf_mesh_dfu_rx
                0x0002548c                prov_utils_opt_set
                0x0002548c                prov_provisioner_provision
                0x0002548c                nrf_mesh_dfu_bank_info_get
                0x0002548c                prov_provisioner_oob_pubkey
                0x0002548c                nrf_mesh_dfu_request
                0x0002548c                nrf_mesh_dfu_bank_flash
                0x0002548c                _weak_handler
                0x0002548c                prov_provisionee_auth_data
                0x0002548c                nrf_mesh_dfu_relay
                0x0002548c                prov_provisionee_shared_secret
                0x0002548c                nrf_mesh_dfu_abort
                0x0002548c                mesh_flash_op_execute
                0x0002548c                prov_provisionee_init
                0x0002548c                nrf_mesh_dfu_state_get
                0x0002548c                prov_provisioner_shared_secret
                0x0002548c                prov_provisioner_auth_data
                0x0002548c                prov_bearer_adv_packet_in
                0x0002548c                prov_provisioner_oob_use
 .text.SystemInit
                0x00025490      0x1bc examples/beaconing/CMakeFiles/beaconing_nrf52840_xxAA_s140_5.0.0-3.alpha.dir/__/__/external/nRF5_SDK_14.0.0_3bcc1f7/components/toolchain/system_nrf52840.c.obj
                0x00025490                SystemInit
 .text          0x0002564c       0x3c examples/beaconing/CMakeFiles/beaconing_nrf52840_xxAA_s140_5.0.0-3.alpha.dir/__/__/external/nRF5_SDK_14.0.0_3bcc1f7/components/toolchain/gcc/gcc_startup_nrf52840.S.obj
                0x0002564c                Reset_Handler
                0x00025674                NMI_Handler
                0x00025678                MemoryManagement_Handler
                0x0002567a                BusFault_Handler
                0x0002567c                UsageFault_Handler
                0x0002567e                SVC_Handler
                0x00025680                DebugMon_Handler
                0x00025682                PendSV_Handler
                0x00025684                SysTick_Handler
                0x00025686                POWER_CLOCK_IRQHandler
                0x00025686                RADIO_IRQHandler
                0x00025686                PDM_IRQHandler
                0x00025686                TEMP_IRQHandler
                0x00025686                RTC0_IRQHandler
                0x00025686                PWM3_IRQHandler
                0x00025686                FPU_IRQHandler
                0x00025686                USBD_IRQHandler
                0x00025686                SPIM0_SPIS0_TWIM0_TWIS0_SPI0_TWI0_IRQHandler
                0x00025686                GPIOTE_IRQHandler
                0x00025686                UARTE0_UART0_IRQHandler
                0x00025686                TIMER3_IRQHandler
                0x00025686                CRYPTOCELL_IRQHandler
                0x00025686                I2S_IRQHandler
                0x00025686                SWI4_EGU4_IRQHandler
                0x00025686                PWM1_IRQHandler
                0x00025686                TIMER2_IRQHandler
                0x00025686                UARTE1_IRQHandler
                0x00025686                TIMER1_IRQHandler
                0x00025686                SPIM3_IRQHandler
                0x00025686                PWM2_IRQHandler
                0x00025686                ECB_IRQHandler
                0x00025686                SPIM1_SPIS1_TWIM1_TWIS1_SPI1_TWI1_IRQHandler
                0x00025686                Default_Handler
                0x00025686                SAADC_IRQHandler
                0x00025686                CCM_AAR_IRQHandler
                0x00025686                WDT_IRQHandler
                0x00025686                TIMER4_IRQHandler
                0x00025686                SWI5_EGU5_IRQHandler
                0x00025686                RNG_IRQHandler
                0x00025686                RTC2_IRQHandler
                0x00025686                PWM0_IRQHandler
                0x00025686                SWI3_EGU3_IRQHandler
                0x00025686                RTC1_IRQHandler
                0x00025686                SWI1_EGU1_IRQHandler
                0x00025686                SPIM2_SPIS2_SPI2_IRQHandler
                0x00025686                NFCT_IRQHandler
                0x00025686                SWI0_EGU0_IRQHandler
                0x00025686                MWU_IRQHandler
                0x00025686                TIMER0_IRQHandler
                0x00025686                QSPI_IRQHandler
                0x00025686                COMP_LPCOMP_IRQHandler
 .text.event_handle
                0x00025688       0x34 mesh/core/libmesh_core_nrf52840_xxAA.a(event.c.obj)
                0x00025688                event_handle
 .text.flash_mem_available
                0x000256bc       0x28 mesh/core/libmesh_core_nrf52840_xxAA.a(net_state.c.obj)
 .text.flash_store_iv_index
                0x000256e4       0x38 mesh/core/libmesh_core_nrf52840_xxAA.a(net_state.c.obj)
 .text.init_flash_storage
                0x0002571c       0x44 mesh/core/libmesh_core_nrf52840_xxAA.a(net_state.c.obj)
 .text.flash_write_complete
                0x00025760       0x7c mesh/core/libmesh_core_nrf52840_xxAA.a(net_state.c.obj)
 .text.seqnum_block_allocate
                0x000257dc       0x4c mesh/core/libmesh_core_nrf52840_xxAA.a(net_state.c.obj)
 .text.iv_update_trigger_if_pending
                0x00025828      0x17c mesh/core/libmesh_core_nrf52840_xxAA.a(net_state.c.obj)
 .text.iv_update_timer_handler
                0x000259a4       0x80 mesh/core/libmesh_core_nrf52840_xxAA.a(net_state.c.obj)
 .text.net_state_recover_from_flash
                0x00025a24      0x10c mesh/core/libmesh_core_nrf52840_xxAA.a(net_state.c.obj)
                0x00025a24                net_state_recover_from_flash
 .text.net_state_init
                0x00025b30       0x80 mesh/core/libmesh_core_nrf52840_xxAA.a(net_state.c.obj)
                0x00025b30                net_state_init
 .text.net_state_seqnum_alloc
                0x00025bb0       0xd4 mesh/core/libmesh_core_nrf52840_xxAA.a(net_state.c.obj)
                0x00025bb0                net_state_seqnum_alloc
 .text.net_state_iv_index_lock
                0x00025c84       0x50 mesh/core/libmesh_core_nrf52840_xxAA.a(net_state.c.obj)
                0x00025c84                net_state_iv_index_lock
 .text.net_state_beacon_received
                0x00025cd4       0xec mesh/core/libmesh_core_nrf52840_xxAA.a(net_state.c.obj)
                0x00025cd4                net_state_beacon_received
 .text.net_state_beacon_iv_index_get
                0x00025dc0        0xc mesh/core/libmesh_core_nrf52840_xxAA.a(net_state.c.obj)
                0x00025dc0                net_state_beacon_iv_index_get
 .text.net_state_tx_iv_index_get
                0x00025dcc       0x14 mesh/core/libmesh_core_nrf52840_xxAA.a(net_state.c.obj)
                0x00025dcc                net_state_tx_iv_index_get
 .text.net_state_rx_iv_index_get
                0x00025de0       0x18 mesh/core/libmesh_core_nrf52840_xxAA.a(net_state.c.obj)
                0x00025de0                net_state_rx_iv_index_get
 .text.net_state_iv_update_get
                0x00025df8        0xc mesh/core/libmesh_core_nrf52840_xxAA.a(net_state.c.obj)
                0x00025df8                net_state_iv_update_get
 .text.nrf_mesh_address_type_get
                0x00025e04       0x10 mesh/core/libmesh_core_nrf52840_xxAA.a(nrf_mesh_utils.c.obj)
                0x00025e04                nrf_mesh_address_type_get
 .text.sd_softdevice_is_enabled
                0x00025e14        0x4 mesh/core/libmesh_core_nrf52840_xxAA.a(nrf_mesh.c.obj)
 .text.nrf_mesh_init
                0x00025e18       0xb8 mesh/core/libmesh_core_nrf52840_xxAA.a(nrf_mesh.c.obj)
                0x00025e18                nrf_mesh_init
 .text.nrf_mesh_enable
                0x00025ed0       0x50 mesh/core/libmesh_core_nrf52840_xxAA.a(nrf_mesh.c.obj)
                0x00025ed0                nrf_mesh_enable
 .text.nrf_mesh_process
                0x00025f20      0x21c mesh/core/libmesh_core_nrf52840_xxAA.a(nrf_mesh.c.obj)
                0x00025f20                nrf_mesh_process
 .text.nrf_mesh_on_ble_evt
                0x0002613c        0x4 mesh/core/libmesh_core_nrf52840_xxAA.a(nrf_mesh.c.obj)
                0x0002613c                nrf_mesh_on_ble_evt
 .text.nrf_mesh_on_sd_evt
                0x00026140        0xc mesh/core/libmesh_core_nrf52840_xxAA.a(nrf_mesh.c.obj)
                0x00026140                nrf_mesh_on_sd_evt
 .text.nrf_mesh_rx_cb_set
                0x0002614c        0xc mesh/core/libmesh_core_nrf52840_xxAA.a(nrf_mesh.c.obj)
                0x0002614c                nrf_mesh_rx_cb_set
 .text.hal_lfclk_ppm_get
                0x00026158       0x14 mesh/core/libmesh_core_nrf52840_xxAA.a(hal.c.obj)
                0x00026158                hal_lfclk_ppm_get
 .text.timer_cb
                0x0002616c        0xc mesh/core/libmesh_core_nrf52840_xxAA.a(timer_scheduler.c.obj)
 .text.add_evt.constprop.0
                0x00026178       0x78 mesh/core/libmesh_core_nrf52840_xxAA.a(timer_scheduler.c.obj)
 .text.flag_event_cb
                0x000261f0      0x2e4 mesh/core/libmesh_core_nrf52840_xxAA.a(timer_scheduler.c.obj)
 .text.timer_sch_init
                0x000264d4       0x24 mesh/core/libmesh_core_nrf52840_xxAA.a(timer_scheduler.c.obj)
                0x000264d4                timer_sch_init
 .text.timer_sch_schedule
                0x000264f8       0x84 mesh/core/libmesh_core_nrf52840_xxAA.a(timer_scheduler.c.obj)
                0x000264f8                timer_sch_schedule
 .text.timer_sch_abort
                0x0002657c       0x68 mesh/core/libmesh_core_nrf52840_xxAA.a(timer_scheduler.c.obj)
                0x0002657c                timer_sch_abort
 .text.timer_sch_reschedule
                0x000265e4       0xa4 mesh/core/libmesh_core_nrf52840_xxAA.a(timer_scheduler.c.obj)
                0x000265e4                timer_sch_reschedule
 .text.timer_event_handler
                0x00026688       0xd8 mesh/core/libmesh_core_nrf52840_xxAA.a(timer.c.obj)
                0x00026688                timer_event_handler
 .text.timer_order_cb
                0x00026760       0x98 mesh/core/libmesh_core_nrf52840_xxAA.a(timer.c.obj)
                0x00026760                timer_order_cb
 .text.timer_now
                0x000267f8       0x58 mesh/core/libmesh_core_nrf52840_xxAA.a(timer.c.obj)
                0x000267f8                timer_now
 .text.timer_on_ts_begin
                0x00026850      0x110 mesh/core/libmesh_core_nrf52840_xxAA.a(timer.c.obj)
                0x00026850                timer_on_ts_begin
 .text.timer_on_ts_end
                0x00026960       0x78 mesh/core/libmesh_core_nrf52840_xxAA.a(timer.c.obj)
                0x00026960                timer_on_ts_end
 .text.timer_cb
                0x000269d8       0x10 mesh/core/libmesh_core_nrf52840_xxAA.a(ticker.c.obj)
 .text.ticker_init
                0x000269e8       0x3c mesh/core/libmesh_core_nrf52840_xxAA.a(ticker.c.obj)
                0x000269e8                ticker_init
 .text.sd_rand_application_bytes_available_get
                0x00026a24        0x4 mesh/core/libmesh_core_nrf52840_xxAA.a(rand.c.obj)
 .text.sd_rand_application_vector_get
                0x00026a28        0x4 mesh/core/libmesh_core_nrf52840_xxAA.a(rand.c.obj)
 .text.rand_prng_seed
                0x00026a2c       0x6c mesh/core/libmesh_core_nrf52840_xxAA.a(rand.c.obj)
                0x00026a2c                rand_prng_seed
 .text.rand_prng_get
                0x00026a98       0x28 mesh/core/libmesh_core_nrf52840_xxAA.a(rand.c.obj)
                0x00026a98                rand_prng_get
 .text.rand_hw_rng_get
                0x00026ac0       0x58 mesh/core/libmesh_core_nrf52840_xxAA.a(rand.c.obj)
                0x00026ac0                rand_hw_rng_get
 .text.sd_radio_session_open
                0x00026b18        0x4 mesh/core/libmesh_core_nrf52840_xxAA.a(timeslot.c.obj)
 .text.sd_radio_session_close
                0x00026b1c        0x4 mesh/core/libmesh_core_nrf52840_xxAA.a(timeslot.c.obj)
 .text.sd_radio_request
                0x00026b20        0x4 mesh/core/libmesh_core_nrf52840_xxAA.a(timeslot.c.obj)
 .text.end_timer_handler
                0x00026b24       0x2c mesh/core/libmesh_core_nrf52840_xxAA.a(timeslot.c.obj)
 .text.radio_signal_callback
                0x00026b50      0x324 mesh/core/libmesh_core_nrf52840_xxAA.a(timeslot.c.obj)
 .text.timeslot_sd_event_handler
                0x00026e74       0x50 mesh/core/libmesh_core_nrf52840_xxAA.a(timeslot.c.obj)
                0x00026e74                timeslot_sd_event_handler
 .text.timeslot_init
                0x00026ec4       0x4c mesh/core/libmesh_core_nrf52840_xxAA.a(timeslot.c.obj)
                0x00026ec4                timeslot_init
 .text.timeslot_start
                0x00026f10       0x20 mesh/core/libmesh_core_nrf52840_xxAA.a(timeslot.c.obj)
                0x00026f10                timeslot_start
 .text.timeslot_stop
                0x00026f30       0x30 mesh/core/libmesh_core_nrf52840_xxAA.a(timeslot.c.obj)
                0x00026f30                timeslot_stop
 .text.timeslot_state_lock
                0x00026f60       0x44 mesh/core/libmesh_core_nrf52840_xxAA.a(timeslot.c.obj)
                0x00026f60                timeslot_state_lock
 .text.timeslot_end_is_pending
                0x00026fa4       0x24 mesh/core/libmesh_core_nrf52840_xxAA.a(timeslot.c.obj)
                0x00026fa4                timeslot_end_is_pending
 .text.timeslot_start_time_get
                0x00026fc8        0xc mesh/core/libmesh_core_nrf52840_xxAA.a(timeslot.c.obj)
                0x00026fc8                timeslot_start_time_get
 .text.timeslot_remaining_time_get
                0x00026fd4       0x40 mesh/core/libmesh_core_nrf52840_xxAA.a(timeslot.c.obj)
                0x00026fd4                timeslot_remaining_time_get
 .text.timeslot_is_in_cb
                0x00027014        0xc mesh/core/libmesh_core_nrf52840_xxAA.a(timeslot.c.obj)
                0x00027014                timeslot_is_in_cb
 .text.timeslot_trigger
                0x00027020       0x24 mesh/core/libmesh_core_nrf52840_xxAA.a(timeslot.c.obj)
                0x00027020                timeslot_trigger
 .text.QDEC_IRQHandler
                0x00027044       0xe0 mesh/core/libmesh_core_nrf52840_xxAA.a(bearer_event.c.obj)
                0x00027044                QDEC_IRQHandler
 .text.bearer_event_init
                0x00027124       0x3c mesh/core/libmesh_core_nrf52840_xxAA.a(bearer_event.c.obj)
                0x00027124                bearer_event_init
 .text.bearer_event_timer_post
                0x00027160       0x50 mesh/core/libmesh_core_nrf52840_xxAA.a(bearer_event.c.obj)
                0x00027160                bearer_event_timer_post
 .text.bearer_event_critical_section_begin
                0x000271b0       0x44 mesh/core/libmesh_core_nrf52840_xxAA.a(bearer_event.c.obj)
                0x000271b0                bearer_event_critical_section_begin
 .text.bearer_event_critical_section_end
                0x000271f4       0x44 mesh/core/libmesh_core_nrf52840_xxAA.a(bearer_event.c.obj)
                0x000271f4                bearer_event_critical_section_end
 .text.bearer_event_flag_add
                0x00027238       0x50 mesh/core/libmesh_core_nrf52840_xxAA.a(bearer_event.c.obj)
                0x00027238                bearer_event_flag_add
 .text.bearer_event_flag_set
                0x00027288       0x58 mesh/core/libmesh_core_nrf52840_xxAA.a(bearer_event.c.obj)
                0x00027288                bearer_event_flag_set
 .text.bearer_event_sequential_add
                0x000272e0       0x48 mesh/core/libmesh_core_nrf52840_xxAA.a(bearer_event.c.obj)
                0x000272e0                bearer_event_sequential_add
 .text.bearer_event_sequential_post
                0x00027328       0x6c mesh/core/libmesh_core_nrf52840_xxAA.a(bearer_event.c.obj)
                0x00027328                bearer_event_sequential_post
 .text.bearer_event_sequential_pending
                0x00027394       0x20 mesh/core/libmesh_core_nrf52840_xxAA.a(bearer_event.c.obj)
                0x00027394                bearer_event_sequential_pending
 .text.network_init
                0x000273b4       0x28 mesh/core/libmesh_core_nrf52840_xxAA.a(network.c.obj)
                0x000273b4                network_init
 .text.network_packet_alloc
                0x000273dc      0x1a4 mesh/core/libmesh_core_nrf52840_xxAA.a(network.c.obj)
                0x000273dc                network_packet_alloc
 .text.network_packet_send
                0x00027580      0x1ec mesh/core/libmesh_core_nrf52840_xxAA.a(network.c.obj)
                0x00027580                network_packet_send
 .text.network_packet_in
                0x0002776c      0x6c8 mesh/core/libmesh_core_nrf52840_xxAA.a(network.c.obj)
                0x0002776c                network_packet_in
 .text.log_callback_rtt
                0x00027e34       0x2c mesh/core/libmesh_core_nrf52840_xxAA.a(log.c.obj)
                0x00027e34                log_callback_rtt
 .text.log_init
                0x00027e60       0x20 mesh/core/libmesh_core_nrf52840_xxAA.a(log.c.obj)
                0x00027e60                log_init
 .text.log_printf
                0x00027e80       0x20 mesh/core/libmesh_core_nrf52840_xxAA.a(log.c.obj)
                0x00027e80                log_printf
 .text.process_action_queue
                0x00027ea0      0x834 mesh/core/libmesh_core_nrf52840_xxAA.a(flash_manager.c.obj)
 .text.flash_op_ended_callback
                0x000286d4       0x24 mesh/core/libmesh_core_nrf52840_xxAA.a(flash_manager.c.obj)
 .text.flash_manager_init
                0x000286f8       0x68 mesh/core/libmesh_core_nrf52840_xxAA.a(flash_manager.c.obj)
                0x000286f8                flash_manager_init
 .text.flash_manager_entry_next_get
                0x00028760      0x15c mesh/core/libmesh_core_nrf52840_xxAA.a(flash_manager.c.obj)
                0x00028760                flash_manager_entry_next_get
 .text.flash_manager_entry_alloc
                0x000288bc       0x9c mesh/core/libmesh_core_nrf52840_xxAA.a(flash_manager.c.obj)
                0x000288bc                flash_manager_entry_alloc
 .text.flash_manager_entry_commit
                0x00028958       0x6c mesh/core/libmesh_core_nrf52840_xxAA.a(flash_manager.c.obj)
                0x00028958                flash_manager_entry_commit
 .text.flash_manager_entry_invalidate
                0x000289c4       0xb8 mesh/core/libmesh_core_nrf52840_xxAA.a(flash_manager.c.obj)
                0x000289c4                flash_manager_entry_invalidate
 .text.flash_manager_add
                0x00028a7c      0x474 mesh/core/libmesh_core_nrf52840_xxAA.a(flash_manager.c.obj)
                0x00028a7c                flash_manager_add
 .text.flash_manager_mem_listener_register
                0x00028ef0       0x50 mesh/core/libmesh_core_nrf52840_xxAA.a(flash_manager.c.obj)
                0x00028ef0                flash_manager_mem_listener_register
 .text.flash_manager_is_stable
                0x00028f40       0x20 mesh/core/libmesh_core_nrf52840_xxAA.a(flash_manager.c.obj)
                0x00028f40                flash_manager_is_stable
 .text.flash_manager_on_defrag_end
                0x00028f60       0x64 mesh/core/libmesh_core_nrf52840_xxAA.a(flash_manager.c.obj)
                0x00028f60                flash_manager_on_defrag_end
 .text.flash_manager_recovery_page_get
                0x00028fc4        0x4 mesh/core/libmesh_core_nrf52840_xxAA.a(flash_manager.c.obj)
                0x00028fc4                flash_manager_recovery_page_get
 .text.beacon_init
                0x00028fc8       0x48 mesh/core/libmesh_core_nrf52840_xxAA.a(beacon.c.obj)
                0x00028fc8                beacon_init
 .text.beacon_tx
                0x00029010       0x6c mesh/core/libmesh_core_nrf52840_xxAA.a(beacon.c.obj)
                0x00029010                beacon_tx
 .text.beacon_packet_in
                0x0002907c      0x180 mesh/core/libmesh_core_nrf52840_xxAA.a(beacon.c.obj)
                0x0002907c                beacon_packet_in
 .text.entry_get
                0x000291fc       0x8c mesh/core/libmesh_core_nrf52840_xxAA.a(flash_manager_internal.c.obj)
                0x000291fc                entry_get
 .text.adv_tx_complete_callback
                0x00029288       0x58 mesh/core/libmesh_core_nrf52840_xxAA.a(core_tx.c.obj)
 .text.core_tx_init
                0x000292e0       0x4c mesh/core/libmesh_core_nrf52840_xxAA.a(core_tx.c.obj)
                0x000292e0                core_tx_init
 .text.core_tx_complete_cb_set
                0x0002932c        0xc mesh/core/libmesh_core_nrf52840_xxAA.a(core_tx.c.obj)
                0x0002932c                core_tx_complete_cb_set
 .text.core_tx_packet_alloc
                0x00029338       0xa4 mesh/core/libmesh_core_nrf52840_xxAA.a(core_tx.c.obj)
                0x00029338                core_tx_packet_alloc
 .text.core_tx_packet_send
                0x000293dc       0x74 mesh/core/libmesh_core_nrf52840_xxAA.a(core_tx.c.obj)
                0x000293dc                core_tx_packet_send
 .text.core_tx_packet_discard
                0x00029450       0x74 mesh/core/libmesh_core_nrf52840_xxAA.a(core_tx.c.obj)
                0x00029450                core_tx_packet_discard
 .text.network_beacon_tx_cb
                0x000294c4      0x10c mesh/core/libmesh_core_nrf52840_xxAA.a(net_beacon.c.obj)
 .text.net_beacon_init
                0x000295d0       0x64 mesh/core/libmesh_core_nrf52840_xxAA.a(net_beacon.c.obj)
                0x000295d0                net_beacon_init
 .text.net_beacon_packet_in
                0x00029634       0xe0 mesh/core/libmesh_core_nrf52840_xxAA.a(net_beacon.c.obj)
                0x00029634                net_beacon_packet_in
 .text.tx_complete_event_callback
                0x00029714       0x40 mesh/core/libmesh_core_nrf52840_xxAA.a(advertiser.c.obj)
 .text.broadcast_complete_cb
                0x00029754       0x70 mesh/core/libmesh_core_nrf52840_xxAA.a(advertiser.c.obj)
 .text.timeout_event
                0x000297c4      0x13c mesh/core/libmesh_core_nrf52840_xxAA.a(advertiser.c.obj)
 .text.advertiser_init
                0x00029900        0xc mesh/core/libmesh_core_nrf52840_xxAA.a(advertiser.c.obj)
                0x00029900                advertiser_init
 .text.advertiser_instance_init
                0x0002990c      0x11c mesh/core/libmesh_core_nrf52840_xxAA.a(advertiser.c.obj)
                0x0002990c                advertiser_instance_init
 .text.advertiser_enable
                0x00029a28       0x44 mesh/core/libmesh_core_nrf52840_xxAA.a(advertiser.c.obj)
                0x00029a28                advertiser_enable
 .text.advertiser_packet_alloc
                0x00029a6c       0x9c mesh/core/libmesh_core_nrf52840_xxAA.a(advertiser.c.obj)
                0x00029a6c                advertiser_packet_alloc
 .text.advertiser_packet_send
                0x00029b08       0x98 mesh/core/libmesh_core_nrf52840_xxAA.a(advertiser.c.obj)
                0x00029b08                advertiser_packet_send
 .text.advertiser_packet_discard
                0x00029ba0       0x34 mesh/core/libmesh_core_nrf52840_xxAA.a(advertiser.c.obj)
                0x00029ba0                advertiser_packet_discard
 .text.advertiser_interval_set
                0x00029bd4       0x80 mesh/core/libmesh_core_nrf52840_xxAA.a(advertiser.c.obj)
                0x00029bd4                advertiser_interval_set
 .text.action_switch.part.2
                0x00029c54       0xc0 mesh/core/libmesh_core_nrf52840_xxAA.a(bearer_handler.c.obj)
 .text.bearer_handler_init
                0x00029d14       0x2c mesh/core/libmesh_core_nrf52840_xxAA.a(bearer_handler.c.obj)
                0x00029d14                bearer_handler_init
 .text.bearer_handler_start
                0x00029d40       0x1c mesh/core/libmesh_core_nrf52840_xxAA.a(bearer_handler.c.obj)
                0x00029d40                bearer_handler_start
 .text.bearer_handler_action_enqueue
                0x00029d5c       0xa0 mesh/core/libmesh_core_nrf52840_xxAA.a(bearer_handler.c.obj)
                0x00029d5c                bearer_handler_action_enqueue
 .text.bearer_handler_action_end
                0x00029dfc       0x84 mesh/core/libmesh_core_nrf52840_xxAA.a(bearer_handler.c.obj)
                0x00029dfc                bearer_handler_action_end
 .text.bearer_handler_radio_irq_handler
                0x00029e80       0x70 mesh/core/libmesh_core_nrf52840_xxAA.a(bearer_handler.c.obj)
                0x00029e80                bearer_handler_radio_irq_handler
 .text.bearer_handler_timer_irq_handler
                0x00029ef0       0x3c mesh/core/libmesh_core_nrf52840_xxAA.a(bearer_handler.c.obj)
                0x00029ef0                bearer_handler_timer_irq_handler
 .text.bearer_handler_on_ts_begin
                0x00029f2c       0x4c mesh/core/libmesh_core_nrf52840_xxAA.a(bearer_handler.c.obj)
                0x00029f2c                bearer_handler_on_ts_begin
 .text.bearer_handler_on_ts_end
                0x00029f78       0x48 mesh/core/libmesh_core_nrf52840_xxAA.a(bearer_handler.c.obj)
                0x00029f78                bearer_handler_on_ts_end
 .text.radio_irq_handler
                0x00029fc0       0xb4 mesh/core/libmesh_core_nrf52840_xxAA.a(broadcast.c.obj)
 .text.broadcast_start
                0x0002a074       0x8c mesh/core/libmesh_core_nrf52840_xxAA.a(broadcast.c.obj)
 .text.broadcast_send
                0x0002a100       0x8c mesh/core/libmesh_core_nrf52840_xxAA.a(broadcast.c.obj)
                0x0002a100                broadcast_send
 .text.radio_config_reset
                0x0002a18c       0x38 mesh/core/libmesh_core_nrf52840_xxAA.a(radio_config.c.obj)
                0x0002a18c                radio_config_reset
 .text.radio_config_channel_set
                0x0002a1c4       0x34 mesh/core/libmesh_core_nrf52840_xxAA.a(radio_config.c.obj)
                0x0002a1c4                radio_config_channel_set
 .text.radio_config_config
                0x0002a1f8       0x78 mesh/core/libmesh_core_nrf52840_xxAA.a(radio_config.c.obj)
                0x0002a1f8                radio_config_config
 .text.radio_config_access_addr_set
                0x0002a270       0x68 mesh/core/libmesh_core_nrf52840_xxAA.a(radio_config.c.obj)
                0x0002a270                radio_config_access_addr_set
 .text.scan_window_end
                0x0002a2d8       0x28 mesh/core/libmesh_core_nrf52840_xxAA.a(scanner.c.obj)
 .text.scan_window_start
                0x0002a300       0x38 mesh/core/libmesh_core_nrf52840_xxAA.a(scanner.c.obj)
 .text.radio_start
                0x0002a338      0x19c mesh/core/libmesh_core_nrf52840_xxAA.a(scanner.c.obj)
 .text.scanner_radio_start
                0x0002a4d4      0x14c mesh/core/libmesh_core_nrf52840_xxAA.a(scanner.c.obj)
                0x0002a4d4                scanner_radio_start
 .text.scanner_radio_stop
                0x0002a620       0x34 mesh/core/libmesh_core_nrf52840_xxAA.a(scanner.c.obj)
                0x0002a620                scanner_radio_stop
 .text.scanner_radio_irq_handler
                0x0002a654      0x200 mesh/core/libmesh_core_nrf52840_xxAA.a(scanner.c.obj)
                0x0002a654                scanner_radio_irq_handler
 .text.scanner_enable
                0x0002a854       0x5c mesh/core/libmesh_core_nrf52840_xxAA.a(scanner.c.obj)
                0x0002a854                scanner_enable
 .text.scanner_rx
                0x0002a8b0       0x84 mesh/core/libmesh_core_nrf52840_xxAA.a(scanner.c.obj)
                0x0002a8b0                scanner_rx
 .text.scanner_packet_release
                0x0002a934       0x4c mesh/core/libmesh_core_nrf52840_xxAA.a(scanner.c.obj)
                0x0002a934                scanner_packet_release
 .text.scanner_config_reset
                0x0002a980       0xa8 mesh/core/libmesh_core_nrf52840_xxAA.a(scanner.c.obj)
                0x0002a980                scanner_config_reset
 .text.scanner_init
                0x0002aa28       0x48 mesh/core/libmesh_core_nrf52840_xxAA.a(scanner.c.obj)
                0x0002aa28                scanner_init
 .text.internal_event_push
                0x0002aa70       0x28 mesh/core/libmesh_core_nrf52840_xxAA.a(internal_event.c.obj)
                0x0002aa70                internal_event_push
 .text.nrf_mesh_configure_device_uuid_reset
                0x0002aa98       0x2c mesh/core/libmesh_core_nrf52840_xxAA.a(nrf_mesh_configure.c.obj)
                0x0002aa98                nrf_mesh_configure_device_uuid_reset
 .text.msg_cache_init
                0x0002aac4       0x24 mesh/core/libmesh_core_nrf52840_xxAA.a(msg_cache.c.obj)
                0x0002aac4                msg_cache_init
 .text.msg_cache_entry_exists
                0x0002aae8       0x40 mesh/core/libmesh_core_nrf52840_xxAA.a(msg_cache.c.obj)
                0x0002aae8                msg_cache_entry_exists
 .text.msg_cache_entry_add
                0x0002ab28       0x30 mesh/core/libmesh_core_nrf52840_xxAA.a(msg_cache.c.obj)
                0x0002ab28                msg_cache_entry_add
 .text.tx_complete
                0x0002ab58       0x34 mesh/core/libmesh_core_nrf52840_xxAA.a(transport.c.obj)
 .text.upper_trs_packet_encrypt
                0x0002ab8c       0xe0 mesh/core/libmesh_core_nrf52840_xxAA.a(transport.c.obj)
 .text.sar_ctx_alloc
                0x0002ac6c       0xd0 mesh/core/libmesh_core_nrf52840_xxAA.a(transport.c.obj)
 .text.trs_packet_header_build
                0x0002ad3c       0xac mesh/core/libmesh_core_nrf52840_xxAA.a(transport.c.obj)
 .text.sar_ack_send
                0x0002ade8      0x144 mesh/core/libmesh_core_nrf52840_xxAA.a(transport.c.obj)
 .text.test_transport_decrypt
                0x0002af2c       0x98 mesh/core/libmesh_core_nrf52840_xxAA.a(transport.c.obj)
 .text.upper_transport_access_packet_in
                0x0002afc4      0x34c mesh/core/libmesh_core_nrf52840_xxAA.a(transport.c.obj)
 .text.trs_sar_packet_out
                0x0002b310      0x19c mesh/core/libmesh_core_nrf52840_xxAA.a(transport.c.obj)
 .text.sar_ctx_cancel
                0x0002b4ac      0x1d0 mesh/core/libmesh_core_nrf52840_xxAA.a(transport.c.obj)
 .text.abort_timeout
                0x0002b67c        0x8 mesh/core/libmesh_core_nrf52840_xxAA.a(transport.c.obj)
 .text.retry_timeout
                0x0002b684       0xb0 mesh/core/libmesh_core_nrf52840_xxAA.a(transport.c.obj)
 .text.transport_sar_process
                0x0002b734      0x2a8 mesh/core/libmesh_core_nrf52840_xxAA.a(transport.c.obj)
 .text.upper_transport_packet_in
                0x0002b9dc      0x2e0 mesh/core/libmesh_core_nrf52840_xxAA.a(transport.c.obj)
 .text.ack_timeout
                0x0002bcbc      0x15c mesh/core/libmesh_core_nrf52840_xxAA.a(transport.c.obj)
 .text.transport_init
                0x0002be18       0x98 mesh/core/libmesh_core_nrf52840_xxAA.a(transport.c.obj)
                0x0002be18                transport_init
 .text.transport_packet_in
                0x0002beb0      0x824 mesh/core/libmesh_core_nrf52840_xxAA.a(transport.c.obj)
                0x0002beb0                transport_packet_in
 .text.packet_buffer_init
                0x0002c6d4       0xec mesh/core/libmesh_core_nrf52840_xxAA.a(packet_buffer.c.obj)
                0x0002c6d4                packet_buffer_init
 .text.packet_buffer_reserve
                0x0002c7c0      0x150 mesh/core/libmesh_core_nrf52840_xxAA.a(packet_buffer.c.obj)
                0x0002c7c0                packet_buffer_reserve
 .text.packet_buffer_commit
                0x0002c910      0x144 mesh/core/libmesh_core_nrf52840_xxAA.a(packet_buffer.c.obj)
                0x0002c910                packet_buffer_commit
 .text.packet_buffer_pop
                0x0002ca54       0xc8 mesh/core/libmesh_core_nrf52840_xxAA.a(packet_buffer.c.obj)
                0x0002ca54                packet_buffer_pop
 .text.packet_buffer_can_pop
                0x0002cb1c       0x84 mesh/core/libmesh_core_nrf52840_xxAA.a(packet_buffer.c.obj)
                0x0002cb1c                packet_buffer_can_pop
 .text.packet_buffer_packets_ready_to_pop
                0x0002cba0       0xb4 mesh/core/libmesh_core_nrf52840_xxAA.a(packet_buffer.c.obj)
                0x0002cba0                packet_buffer_packets_ready_to_pop
 .text.packet_buffer_free
                0x0002cc54       0xf0 mesh/core/libmesh_core_nrf52840_xxAA.a(packet_buffer.c.obj)
                0x0002cc54                packet_buffer_free
 .text.erase_source
                0x0002cd44       0x34 mesh/core/libmesh_core_nrf52840_xxAA.a(flash_manager_defrag.c.obj)
 .text.erase_recovery_area
                0x0002cd78       0x34 mesh/core/libmesh_core_nrf52840_xxAA.a(flash_manager_defrag.c.obj)
 .text.write_back
                0x0002cdac       0x44 mesh/core/libmesh_core_nrf52840_xxAA.a(flash_manager_defrag.c.obj)
 .text.write_defrag_start_pointer
                0x0002cdf0       0x38 mesh/core/libmesh_core_nrf52840_xxAA.a(flash_manager_defrag.c.obj)
 .text.copy_metadata
                0x0002ce28       0x58 mesh/core/libmesh_core_nrf52840_xxAA.a(flash_manager_defrag.c.obj)
 .text.seal_storage_page
                0x0002ce80       0x70 mesh/core/libmesh_core_nrf52840_xxAA.a(flash_manager_defrag.c.obj)
 .text.post_process
                0x0002cef0       0x64 mesh/core/libmesh_core_nrf52840_xxAA.a(flash_manager_defrag.c.obj)
 .text.check_for_invalid_entries
                0x0002cf54       0x40 mesh/core/libmesh_core_nrf52840_xxAA.a(flash_manager_defrag.c.obj)
 .text.execute_procedure_step
                0x0002cf94       0xc0 mesh/core/libmesh_core_nrf52840_xxAA.a(flash_manager_defrag.c.obj)
 .text.on_flash_op_end
                0x0002d054       0x4c mesh/core/libmesh_core_nrf52840_xxAA.a(flash_manager_defrag.c.obj)
 .text.invalidate_duplicate_entries
                0x0002d0a0      0x148 mesh/core/libmesh_core_nrf52840_xxAA.a(flash_manager_defrag.c.obj)
 .text.backup_entries
                0x0002d1e8      0x1fc mesh/core/libmesh_core_nrf52840_xxAA.a(flash_manager_defrag.c.obj)
 .text.flash_manager_defrag_init
                0x0002d3e4       0x68 mesh/core/libmesh_core_nrf52840_xxAA.a(flash_manager_defrag.c.obj)
                0x0002d3e4                flash_manager_defrag_init
 .text.flash_manager_defrag_is_running
                0x0002d44c       0x10 mesh/core/libmesh_core_nrf52840_xxAA.a(flash_manager_defrag.c.obj)
                0x0002d44c                flash_manager_defrag_is_running
 .text.flash_manager_defrag
                0x0002d45c       0xe4 mesh/core/libmesh_core_nrf52840_xxAA.a(flash_manager_defrag.c.obj)
                0x0002d45c                flash_manager_defrag
 .text.flash_manager_defrag_recovery_page_get
                0x0002d540        0xc mesh/core/libmesh_core_nrf52840_xxAA.a(flash_manager_defrag.c.obj)
                0x0002d540                flash_manager_defrag_recovery_page_get
 .text.fifo_init
                0x0002d54c       0x5c mesh/core/libmesh_core_nrf52840_xxAA.a(fifo.c.obj)
                0x0002d54c                fifo_init
 .text.fifo_push
                0x0002d5a8       0x54 mesh/core/libmesh_core_nrf52840_xxAA.a(fifo.c.obj)
                0x0002d5a8                fifo_push
 .text.fifo_pop
                0x0002d5fc       0x58 mesh/core/libmesh_core_nrf52840_xxAA.a(fifo.c.obj)
                0x0002d5fc                fifo_pop
 .text.packet_mgr_init
                0x0002d654       0x4c mesh/core/libmesh_core_nrf52840_xxAA.a(packet_mgr.c.obj)
                0x0002d654                packet_mgr_init
 .text.send_end_events
                0x0002d6a0       0x8c mesh/core/libmesh_core_nrf52840_xxAA.a(mesh_flash.c.obj)
 .text.flash_op_schedule
                0x0002d72c       0xac mesh/core/libmesh_core_nrf52840_xxAA.a(mesh_flash.c.obj)
 .text.flash_op_start
                0x0002d7d8      0x1c4 mesh/core/libmesh_core_nrf52840_xxAA.a(mesh_flash.c.obj)
 .text.mesh_flash_init
                0x0002d99c       0x88 mesh/core/libmesh_core_nrf52840_xxAA.a(mesh_flash.c.obj)
                0x0002d99c                mesh_flash_init
 .text.mesh_flash_user_callback_set
                0x0002da24       0x2c mesh/core/libmesh_core_nrf52840_xxAA.a(mesh_flash.c.obj)
                0x0002da24                mesh_flash_user_callback_set
 .text.mesh_flash_op_push
                0x0002da50      0x140 mesh/core/libmesh_core_nrf52840_xxAA.a(mesh_flash.c.obj)
                0x0002da50                mesh_flash_op_push
 .text.queue_init
                0x0002db90       0x28 mesh/core/libmesh_core_nrf52840_xxAA.a(queue.c.obj)
                0x0002db90                queue_init
 .text.queue_push
                0x0002dbb8       0x50 mesh/core/libmesh_core_nrf52840_xxAA.a(queue.c.obj)
                0x0002dbb8                queue_push
 .text.queue_pop
                0x0002dc08       0x40 mesh/core/libmesh_core_nrf52840_xxAA.a(queue.c.obj)
                0x0002dc08                queue_pop
 .text.queue_peek
                0x0002dc48       0x20 mesh/core/libmesh_core_nrf52840_xxAA.a(queue.c.obj)
                0x0002dc48                queue_peek
 .text.enc_aes_encrypt
                0x0002dc68        0x4 mesh/core/libmesh_core_nrf52840_xxAA.a(enc.c.obj)
                0x0002dc68                enc_aes_encrypt
 .text.enc_aes_cmac
                0x0002dc6c        0x4 mesh/core/libmesh_core_nrf52840_xxAA.a(enc.c.obj)
                0x0002dc6c                enc_aes_cmac
 .text.enc_aes_ccm_encrypt
                0x0002dc70        0x4 mesh/core/libmesh_core_nrf52840_xxAA.a(enc.c.obj)
                0x0002dc70                enc_aes_ccm_encrypt
 .text.enc_aes_ccm_decrypt
                0x0002dc74        0x4 mesh/core/libmesh_core_nrf52840_xxAA.a(enc.c.obj)
                0x0002dc74                enc_aes_ccm_decrypt
 .text.enc_nonce_generate
                0x0002dc78       0xc4 mesh/core/libmesh_core_nrf52840_xxAA.a(enc.c.obj)
                0x0002dc78                enc_nonce_generate
 .text.enc_s1   0x0002dd3c       0x40 mesh/core/libmesh_core_nrf52840_xxAA.a(enc.c.obj)
                0x0002dd3c                enc_s1
 .text.msq_init
                0x0002dd7c       0x98 mesh/core/libmesh_core_nrf52840_xxAA.a(msqueue.c.obj)
                0x0002dd7c                msq_init
 .text.msq_get  0x0002de14       0x68 mesh/core/libmesh_core_nrf52840_xxAA.a(msqueue.c.obj)
                0x0002de14                msq_get
 .text.msq_move
                0x0002de7c       0x60 mesh/core/libmesh_core_nrf52840_xxAA.a(msqueue.c.obj)
                0x0002de7c                msq_move
 .text.msq_available
                0x0002dedc       0x58 mesh/core/libmesh_core_nrf52840_xxAA.a(msqueue.c.obj)
                0x0002dedc                msq_available
 .text.ccm_soft_crypt.constprop.0
                0x0002df34      0x298 mesh/core/libmesh_core_nrf52840_xxAA.a(ccm_soft.c.obj)
 .text.ccm_soft_authenticate
                0x0002e1cc      0x324 mesh/core/libmesh_core_nrf52840_xxAA.a(ccm_soft.c.obj)
 .text.ccm_soft_encrypt
                0x0002e4f0       0x78 mesh/core/libmesh_core_nrf52840_xxAA.a(ccm_soft.c.obj)
                0x0002e4f0                ccm_soft_encrypt
 .text.ccm_soft_decrypt
                0x0002e568      0x10c mesh/core/libmesh_core_nrf52840_xxAA.a(ccm_soft.c.obj)
                0x0002e568                ccm_soft_decrypt
 .text.replay_cache_init
                0x0002e674       0x28 mesh/core/libmesh_core_nrf52840_xxAA.a(replay_cache.c.obj)
                0x0002e674                replay_cache_init
 .text.replay_cache_add
                0x0002e69c       0x68 mesh/core/libmesh_core_nrf52840_xxAA.a(replay_cache.c.obj)
                0x0002e69c                replay_cache_add
 .text.replay_cache_has_room
                0x0002e704       0x48 mesh/core/libmesh_core_nrf52840_xxAA.a(replay_cache.c.obj)
                0x0002e704                replay_cache_has_room
 .text.replay_cache_has_elem
                0x0002e74c       0x40 mesh/core/libmesh_core_nrf52840_xxAA.a(replay_cache.c.obj)
                0x0002e74c                replay_cache_has_elem
 .text.fen_filters_apply
                0x0002e78c       0x38 mesh/core/libmesh_core_nrf52840_xxAA.a(filter_engine.c.obj)
                0x0002e78c                fen_filters_apply
 .text.sd_ecb_block_encrypt
                0x0002e7c4        0x4 mesh/core/libmesh_core_nrf52840_xxAA.a(aes.c.obj)
 .text.aes_encrypt
                0x0002e7c8       0x34 mesh/core/libmesh_core_nrf52840_xxAA.a(aes.c.obj)
                0x0002e7c8                aes_encrypt
 .text.nrf_flash_erase
                0x0002e7fc       0x5c mesh/core/libmesh_core_nrf52840_xxAA.a(nrf_flash.c.obj)
                0x0002e7fc                nrf_flash_erase
 .text.nrf_flash_write
                0x0002e858       0x6c mesh/core/libmesh_core_nrf52840_xxAA.a(nrf_flash.c.obj)
                0x0002e858                nrf_flash_write
 .text.aes_cmac_subkey_generate
                0x0002e8c4      0x2b0 mesh/core/libmesh_core_nrf52840_xxAA.a(aes_cmac.c.obj)
                0x0002e8c4                aes_cmac_subkey_generate
 .text.aes_cmac
                0x0002eb74      0x49c mesh/core/libmesh_core_nrf52840_xxAA.a(aes_cmac.c.obj)
                0x0002eb74                aes_cmac
 .text.SEGGER_RTT_Write
                0x0002f010      0x1e4 external/rtt/librtt_nrf52840_xxAA.a(SEGGER_RTT.c.obj)
                0x0002f010                SEGGER_RTT_Write
 .text._PrintUnsigned
                0x0002f1f4      0x194 external/rtt/librtt_nrf52840_xxAA.a(SEGGER_RTT_printf.c.obj)
 .text.SEGGER_RTT_vprintf
                0x0002f388      0x464 external/rtt/librtt_nrf52840_xxAA.a(SEGGER_RTT_printf.c.obj)
                0x0002f388                SEGGER_RTT_vprintf
 .text.SEGGER_RTT_printf
                0x0002f7ec       0x20 external/rtt/librtt_nrf52840_xxAA.a(SEGGER_RTT_printf.c.obj)
                0x0002f7ec                SEGGER_RTT_printf
 .text.exit     0x0002f80c       0x28 c:/a/gcc_arm/6/bin/../lib/gcc/arm-none-eabi/6.3.1/../../../../arm-none-eabi/lib/thumb/v7e-m/fpv4-sp/hard\libc_nano.a(lib_a-exit.o)
                0x0002f80c                exit
 .text.__libc_init_array
                0x0002f834       0x48 c:/a/gcc_arm/6/bin/../lib/gcc/arm-none-eabi/6.3.1/../../../../arm-none-eabi/lib/thumb/v7e-m/fpv4-sp/hard\libc_nano.a(lib_a-init.o)
                0x0002f834                __libc_init_array
 .text.malloc   0x0002f87c       0x10 c:/a/gcc_arm/6/bin/../lib/gcc/arm-none-eabi/6.3.1/../../../../arm-none-eabi/lib/thumb/v7e-m/fpv4-sp/hard\libc_nano.a(lib_a-malloc.o)
                0x0002f87c                malloc
 .text.free     0x0002f88c       0x10 c:/a/gcc_arm/6/bin/../lib/gcc/arm-none-eabi/6.3.1/../../../../arm-none-eabi/lib/thumb/v7e-m/fpv4-sp/hard\libc_nano.a(lib_a-malloc.o)
                0x0002f88c                free
 .text.memcmp   0x0002f89c       0x1e c:/a/gcc_arm/6/bin/../lib/gcc/arm-none-eabi/6.3.1/../../../../arm-none-eabi/lib/thumb/v7e-m/fpv4-sp/hard\libc_nano.a(lib_a-memcmp.o)
                0x0002f89c                memcmp
 .text.memcpy   0x0002f8ba       0x16 c:/a/gcc_arm/6/bin/../lib/gcc/arm-none-eabi/6.3.1/../../../../arm-none-eabi/lib/thumb/v7e-m/fpv4-sp/hard\libc_nano.a(lib_a-memcpy-stub.o)
                0x0002f8ba                memcpy
 .text.memset   0x0002f8d0       0x10 c:/a/gcc_arm/6/bin/../lib/gcc/arm-none-eabi/6.3.1/../../../../arm-none-eabi/lib/thumb/v7e-m/fpv4-sp/hard\libc_nano.a(lib_a-memset.o)
                0x0002f8d0                memset
 .text._free_r  0x0002f8e0       0x9c c:/a/gcc_arm/6/bin/../lib/gcc/arm-none-eabi/6.3.1/../../../../arm-none-eabi/lib/thumb/v7e-m/fpv4-sp/hard\libc_nano.a(lib_a-nano-freer.o)
                0x0002f8e0                _free_r
 .text._malloc_r
                0x0002f97c       0xbc c:/a/gcc_arm/6/bin/../lib/gcc/arm-none-eabi/6.3.1/../../../../arm-none-eabi/lib/thumb/v7e-m/fpv4-sp/hard\libc_nano.a(lib_a-nano-mallocr.o)
                0x0002f97c                _malloc_r
 .text._sbrk_r  0x0002fa38       0x20 c:/a/gcc_arm/6/bin/../lib/gcc/arm-none-eabi/6.3.1/../../../../arm-none-eabi/lib/thumb/v7e-m/fpv4-sp/hard\libc_nano.a(lib_a-sbrkr.o)
                0x0002fa38                _sbrk_r
 .text.sprintf  0x0002fa58       0x48 c:/a/gcc_arm/6/bin/../lib/gcc/arm-none-eabi/6.3.1/../../../../arm-none-eabi/lib/thumb/v7e-m/fpv4-sp/hard\libc_nano.a(lib_a-sprintf.o)
                0x0002fa58                siprintf
                0x0002fa58                sprintf
 .text.strcpy   0x0002faa0       0x10 c:/a/gcc_arm/6/bin/../lib/gcc/arm-none-eabi/6.3.1/../../../../arm-none-eabi/lib/thumb/v7e-m/fpv4-sp/hard\libc_nano.a(lib_a-strcpy.o)
                0x0002faa0                strcpy
 .text.strrchr  0x0002fab0       0x26 c:/a/gcc_arm/6/bin/../lib/gcc/arm-none-eabi/6.3.1/../../../../arm-none-eabi/lib/thumb/v7e-m/fpv4-sp/hard\libc_nano.a(lib_a-strrchr.o)
                0x0002fab0                strrchr
 .text.__malloc_lock
                0x0002fad6        0x2 c:/a/gcc_arm/6/bin/../lib/gcc/arm-none-eabi/6.3.1/../../../../arm-none-eabi/lib/thumb/v7e-m/fpv4-sp/hard\libc_nano.a(lib_a-mlock.o)
                0x0002fad6                __malloc_lock
 .text.__malloc_unlock
                0x0002fad8        0x2 c:/a/gcc_arm/6/bin/../lib/gcc/arm-none-eabi/6.3.1/../../../../arm-none-eabi/lib/thumb/v7e-m/fpv4-sp/hard\libc_nano.a(lib_a-mlock.o)
                0x0002fad8                __malloc_unlock
 .text.__ssputs_r
                0x0002fada       0xb6 c:/a/gcc_arm/6/bin/../lib/gcc/arm-none-eabi/6.3.1/../../../../arm-none-eabi/lib/thumb/v7e-m/fpv4-sp/hard\libc_nano.a(lib_a-nano-svfprintf.o)
                0x0002fada                __ssputs_r
 .text._svfprintf_r
                0x0002fb90      0x1e8 c:/a/gcc_arm/6/bin/../lib/gcc/arm-none-eabi/6.3.1/../../../../arm-none-eabi/lib/thumb/v7e-m/fpv4-sp/hard\libc_nano.a(lib_a-nano-svfprintf.o)
                0x0002fb90                _svfiprintf_r
                0x0002fb90                _svfprintf_r
 .text._printf_common
                0x0002fd78       0xec c:/a/gcc_arm/6/bin/../lib/gcc/arm-none-eabi/6.3.1/../../../../arm-none-eabi/lib/thumb/v7e-m/fpv4-sp/hard\libc_nano.a(lib_a-nano-vfprintf_i.o)
                0x0002fd78                _printf_common
 .text._printf_i
                0x0002fe64      0x240 c:/a/gcc_arm/6/bin/../lib/gcc/arm-none-eabi/6.3.1/../../../../arm-none-eabi/lib/thumb/v7e-m/fpv4-sp/hard\libc_nano.a(lib_a-nano-vfprintf_i.o)
                0x0002fe64                _printf_i
 .text.strchr   0x000300a4       0x1c c:/a/gcc_arm/6/bin/../lib/gcc/arm-none-eabi/6.3.1/../../../../arm-none-eabi/lib/thumb/v7e-m/fpv4-sp/hard\libc_nano.a(lib_a-strchr.o)
                0x000300a4                strchr
 .text          0x000300c0       0xa0 c:/a/gcc_arm/6/bin/../lib/gcc/arm-none-eabi/6.3.1/../../../../arm-none-eabi/lib/thumb/v7e-m/fpv4-sp/hard\libc_nano.a(lib_a-memchr.o)
                0x000300c0                memchr
 .text.memmove  0x00030160       0x34 c:/a/gcc_arm/6/bin/../lib/gcc/arm-none-eabi/6.3.1/../../../../arm-none-eabi/lib/thumb/v7e-m/fpv4-sp/hard\libc_nano.a(lib_a-memmove.o)
                0x00030160                memmove
 .text._realloc_r
                0x00030194       0x4c c:/a/gcc_arm/6/bin/../lib/gcc/arm-none-eabi/6.3.1/../../../../arm-none-eabi/lib/thumb/v7e-m/fpv4-sp/hard\libc_nano.a(lib_a-nano-reallocr.o)
                0x00030194                _realloc_r
 .text._malloc_usable_size_r
                0x000301e0       0x12 c:/a/gcc_arm/6/bin/../lib/gcc/arm-none-eabi/6.3.1/../../../../arm-none-eabi/lib/thumb/v7e-m/fpv4-sp/hard\libc_nano.a(lib_a-nano-msizer.o)
                0x000301e0                _malloc_usable_size_r
 *fill*         0x000301f2        0x2 
 .text._sbrk    0x000301f4       0x1c c:/a/gcc_arm/6/bin/../lib/gcc/arm-none-eabi/6.3.1/../../../../arm-none-eabi/lib/thumb/v7e-m/fpv4-sp/hard\libnosys.a(sbrk.o)
                0x000301f4                _sbrk
 .text._exit    0x00030210        0x4 c:/a/gcc_arm/6/bin/../lib/gcc/arm-none-eabi/6.3.1/../../../../arm-none-eabi/lib/thumb/v7e-m/fpv4-sp/hard\libnosys.a(_exit.o)
                0x00030210                _exit
 *(.init)
 .init          0x00030214        0x4 c:/a/gcc_arm/6/bin/../lib/gcc/arm-none-eabi/6.3.1/thumb/v7e-m/fpv4-sp/hard/crti.o
                0x00030214                _init
 .init          0x00030218        0x8 c:/a/gcc_arm/6/bin/../lib/gcc/arm-none-eabi/6.3.1/thumb/v7e-m/fpv4-sp/hard/crtn.o
 *(.fini)
 .fini          0x00030220        0x4 c:/a/gcc_arm/6/bin/../lib/gcc/arm-none-eabi/6.3.1/thumb/v7e-m/fpv4-sp/hard/crti.o
                0x00030220                _fini
 .fini          0x00030224        0x8 c:/a/gcc_arm/6/bin/../lib/gcc/arm-none-eabi/6.3.1/thumb/v7e-m/fpv4-sp/hard/crtn.o
 *crtbegin.o(.ctors)
 *crtbegin?.o(.ctors)
 *(EXCLUDE_FILE(*crtend.o *crtend?.o) .ctors)
 *(SORT(.ctors.*))
 *(.ctors)
 *crtbegin.o(.dtors)
 *crtbegin?.o(.dtors)
 *(EXCLUDE_FILE(*crtend.o *crtend?.o) .dtors)
 *(SORT(.dtors.*))
 *(.dtors)
 *(.rodata*)
 .rodata.adv_data.11168
                0x0003022c       0x12 examples/beaconing/CMakeFiles/beaconing_nrf52840_xxAA_s140_5.0.0-3.alpha.dir/src/main.c.obj
 *fill*         0x0003023e        0x2 
 .rodata.main.str1.4
                0x00030240       0x46 examples/beaconing/CMakeFiles/beaconing_nrf52840_xxAA_s140_5.0.0-3.alpha.dir/src/main.c.obj
 *fill*         0x00030286        0x2 
 .rodata.rx_callback.str1.4
                0x00030288       0x74 examples/beaconing/CMakeFiles/beaconing_nrf52840_xxAA_s140_5.0.0-3.alpha.dir/src/main.c.obj
 .rodata.HardFault_Handler.str1.4
                0x000302fc        0xe examples/beaconing/CMakeFiles/beaconing_nrf52840_xxAA_s140_5.0.0-3.alpha.dir/__/nrf_mesh_sdk.c.obj
 *fill*         0x0003030a        0x2 
 .rodata.app_error_handler.str1.4
                0x0003030c       0x1d examples/beaconing/CMakeFiles/beaconing_nrf52840_xxAA_s140_5.0.0-3.alpha.dir/__/nrf_mesh_sdk.c.obj
 *fill*         0x00030329        0x3 
 .rodata.mesh_assert_handler.str1.4
                0x0003032c       0x35 examples/beaconing/CMakeFiles/beaconing_nrf52840_xxAA_s140_5.0.0-3.alpha.dir/__/nrf_mesh_sdk.c.obj
 *fill*         0x00030361        0x3 
 .rodata.mesh_core_setup.str1.4
                0x00030364       0x4d examples/beaconing/CMakeFiles/beaconing_nrf52840_xxAA_s140_5.0.0-3.alpha.dir/__/nrf_mesh_sdk.c.obj
 *fill*         0x000303b1        0x3 
 .rodata.mesh_softdevice_enable.str1.4
                0x000303b4       0x65 examples/beaconing/CMakeFiles/beaconing_nrf52840_xxAA_s140_5.0.0-3.alpha.dir/__/nrf_mesh_sdk.c.obj
 *fill*         0x00030419        0x3 
 .rodata.softdevice_assert_handler.str1.4
                0x0003041c       0x1d examples/beaconing/CMakeFiles/beaconing_nrf52840_xxAA_s140_5.0.0-3.alpha.dir/__/nrf_mesh_sdk.c.obj
 *fill*         0x00030439        0x3 
 .rodata.types_lookup.9118
                0x0003043c        0x4 mesh/core/libmesh_core_nrf52840_xxAA.a(nrf_mesh_utils.c.obj)
 .rodata.nrf_mesh_process.str1.4
                0x00030440       0x73 mesh/core/libmesh_core_nrf52840_xxAA.a(nrf_mesh.c.obj)
 *fill*         0x000304b3        0x1 
 .rodata.CSWTCH.8
                0x000304b4       0x20 mesh/core/libmesh_core_nrf52840_xxAA.a(hal.c.obj)
 .rodata.network_packet_in.str1.4
                0x000304d4       0x41 mesh/core/libmesh_core_nrf52840_xxAA.a(network.c.obj)
                                 0x49 (size before relaxing)
 *fill*         0x00030515        0x3 
 .rodata.network_packet_send.str1.4
                0x00030518       0x4a mesh/core/libmesh_core_nrf52840_xxAA.a(network.c.obj)
 *fill*         0x00030562        0x2 
 .rodata.log_callback_rtt.str1.4
                0x00030564       0x15 mesh/core/libmesh_core_nrf52840_xxAA.a(log.c.obj)
 *fill*         0x00030579        0x3 
 .rodata.str1.4
                0x0003057c       0x11 mesh/core/libmesh_core_nrf52840_xxAA.a(log.c.obj)
 *fill*         0x0003058d        0x3 
 .rodata.INVALID_HEADER
                0x00030590        0x4 mesh/core/libmesh_core_nrf52840_xxAA.a(flash_manager.c.obj)
                0x00030590                INVALID_HEADER
 .rodata.PADDING_HEADER
                0x00030594        0x4 mesh/core/libmesh_core_nrf52840_xxAA.a(flash_manager.c.obj)
                0x00030594                PADDING_HEADER
 .rodata.SEAL_HEADER
                0x00030598        0x4 mesh/core/libmesh_core_nrf52840_xxAA.a(flash_manager.c.obj)
                0x00030598                SEAL_HEADER
 .rodata.process_action_queue.str1.4
                0x0003059c       0x21 mesh/core/libmesh_core_nrf52840_xxAA.a(flash_manager.c.obj)
                                 0x52 (size before relaxing)
 *fill*         0x000305bd        0x3 
 .rodata.beacon_packet_in.str1.4
                0x000305c0       0x55 mesh/core/libmesh_core_nrf52840_xxAA.a(beacon.c.obj)
                                 0x60 (size before relaxing)
 *fill*         0x00030615        0x3 
 .rodata.net_beacon_init.str1.4
                0x00030618        0x5 mesh/core/libmesh_core_nrf52840_xxAA.a(net_beacon.c.obj)
 *fill*         0x0003061d        0x3 
 .rodata.radio_mode_to_us_per_byte.9494
                0x00030620        0x6 mesh/core/libmesh_core_nrf52840_xxAA.a(broadcast.c.obj)
 *fill*         0x00030626        0x2 
 .rodata.channel_rf_offsets.8756
                0x00030628       0x28 mesh/core/libmesh_core_nrf52840_xxAA.a(radio_config.c.obj)
 .rodata.sar_ack_send.str1.4
                0x00030650       0x1d mesh/core/libmesh_core_nrf52840_xxAA.a(transport.c.obj)
                                 0x4e (size before relaxing)
 *fill*         0x0003066d        0x3 
 .rodata.sar_ctx_cancel.str1.4
                0x00030670       0x18 mesh/core/libmesh_core_nrf52840_xxAA.a(transport.c.obj)
 .rodata.test_transport_decrypt.str1.4
                0x00030688       0x13 mesh/core/libmesh_core_nrf52840_xxAA.a(transport.c.obj)
 *fill*         0x0003069b        0x1 
 .rodata.transport_packet_in.str1.4
                0x0003069c       0x24 mesh/core/libmesh_core_nrf52840_xxAA.a(transport.c.obj)
 .rodata.upper_transport_access_packet_in.str1.4
                0x000306c0       0x29 mesh/core/libmesh_core_nrf52840_xxAA.a(transport.c.obj)
 *fill*         0x000306e9        0x3 
 .rodata.upper_transport_packet_in.str1.4
                0x000306ec       0x2e mesh/core/libmesh_core_nrf52840_xxAA.a(transport.c.obj)
 *fill*         0x0003071a        0x2 
 .rodata.flash_manager_defrag.str1.4
                0x0003071c       0x28 mesh/core/libmesh_core_nrf52840_xxAA.a(flash_manager_defrag.c.obj)
                                 0x56 (size before relaxing)
 .rodata.m_procedure_steps
                0x00030744       0x28 mesh/core/libmesh_core_nrf52840_xxAA.a(flash_manager_defrag.c.obj)
 .rodata.m_all_operations
                0x0003076c       0x10 mesh/core/libmesh_core_nrf52840_xxAA.a(mesh_flash.c.obj)
 .rodata.SEGGER_RTT_ReadNoLock.str1.4
                0x0003077c       0x18 external/rtt/librtt_nrf52840_xxAA.a(SEGGER_RTT.c.obj)
                                 0x17 (size before relaxing)
 .rodata._aV2C.5497
                0x00030794       0x10 external/rtt/librtt_nrf52840_xxAA.a(SEGGER_RTT_printf.c.obj)
 .rodata._global_impure_ptr
                0x000307a4        0x4 c:/a/gcc_arm/6/bin/../lib/gcc/arm-none-eabi/6.3.1/../../../../arm-none-eabi/lib/thumb/v7e-m/fpv4-sp/hard\libc_nano.a(lib_a-impure.o)
                0x000307a4                _global_impure_ptr
 .rodata._svfprintf_r.str1.1
                0x000307a8       0x11 c:/a/gcc_arm/6/bin/../lib/gcc/arm-none-eabi/6.3.1/../../../../arm-none-eabi/lib/thumb/v7e-m/fpv4-sp/hard\libc_nano.a(lib_a-nano-svfprintf.o)
 .rodata._printf_i.str1.1
                0x000307b9       0x22 c:/a/gcc_arm/6/bin/../lib/gcc/arm-none-eabi/6.3.1/../../../../arm-none-eabi/lib/thumb/v7e-m/fpv4-sp/hard\libc_nano.a(lib_a-nano-vfprintf_i.o)
 *(.eh_frame*)
 *fill*         0x000307db        0x1 
 .eh_frame      0x000307dc        0x0 c:/a/gcc_arm/6/bin/../lib/gcc/arm-none-eabi/6.3.1/thumb/v7e-m/fpv4-sp/hard/crtbegin.o
 .eh_frame      0x000307dc        0x4 c:/a/gcc_arm/6/bin/../lib/gcc/arm-none-eabi/6.3.1/thumb/v7e-m/fpv4-sp/hard/crtend.o

.glue_7         0x000307e0        0x0
 .glue_7        0x000307e0        0x0 linker stubs

.glue_7t        0x000307e0        0x0
 .glue_7t       0x000307e0        0x0 linker stubs

.vfp11_veneer   0x000307e0        0x0
 .vfp11_veneer  0x000307e0        0x0 linker stubs

.v4_bx          0x000307e0        0x0
 .v4_bx         0x000307e0        0x0 linker stubs

.iplt           0x000307e0        0x0
 .iplt          0x000307e0        0x0 c:/a/gcc_arm/6/bin/../lib/gcc/arm-none-eabi/6.3.1/thumb/v7e-m/fpv4-sp/hard/crtbegin.o

.ARM.extab
 *(.ARM.extab* .gnu.linkonce.armextab.*)
                0x000307e0                __exidx_start = .

.ARM.exidx      0x000307e0        0x8
 *(.ARM.exidx* .gnu.linkonce.armexidx.*)
 .ARM.exidx     0x000307e0        0x8 c:/a/gcc_arm/6/bin/../lib/gcc/arm-none-eabi/6.3.1/../../../../arm-none-eabi/lib/thumb/v7e-m/fpv4-sp/hard/crt0.o
                0x000307e8                __exidx_end = .
                0x000307e8                __etext = .

.rel.dyn        0x000307e8        0x0
 .rel.iplt      0x000307e8        0x0 c:/a/gcc_arm/6/bin/../lib/gcc/arm-none-eabi/6.3.1/thumb/v7e-m/fpv4-sp/hard/crtbegin.o

.data           0x200031b8       0xb4 load address 0x000307e8
                0x200031b8                __data_start__ = .
 *(vtable)
 *(.data*)
 .data.SystemCoreClock
                0x200031b8        0x4 examples/beaconing/CMakeFiles/beaconing_nrf52840_xxAA_s140_5.0.0-3.alpha.dir/__/__/external/nRF5_SDK_14.0.0_3bcc1f7/components/toolchain/system_nrf52840.c.obj
                0x200031b8                SystemCoreClock
 .data.mem_listener.10018
                0x200031bc       0x10 mesh/core/libmesh_core_nrf52840_xxAA.a(net_state.c.obj)
 .data.mem_listener.10023
                0x200031cc       0x10 mesh/core/libmesh_core_nrf52840_xxAA.a(net_state.c.obj)
 .data.mem_listener.10037
                0x200031dc       0x10 mesh/core/libmesh_core_nrf52840_xxAA.a(net_state.c.obj)
 .data.g_log_debug_level
                0x200031ec        0x4 mesh/core/libmesh_core_nrf52840_xxAA.a(log.c.obj)
                0x200031ec                g_log_debug_level
 .data.g_log_debug_msk
                0x200031f0        0x4 mesh/core/libmesh_core_nrf52840_xxAA.a(log.c.obj)
                0x200031f0                g_log_debug_msk
 .data.g_log_hex_digits
                0x200031f4        0x4 mesh/core/libmesh_core_nrf52840_xxAA.a(log.c.obj)
                0x200031f4                g_log_hex_digits
 .data.m_log_callback
                0x200031f8        0x4 mesh/core/libmesh_core_nrf52840_xxAA.a(log.c.obj)
                0x200031f8                m_log_callback
 .data._impure_ptr
                0x200031fc        0x4 c:/a/gcc_arm/6/bin/../lib/gcc/arm-none-eabi/6.3.1/../../../../arm-none-eabi/lib/thumb/v7e-m/fpv4-sp/hard\libc_nano.a(lib_a-impure.o)
                0x200031fc                _impure_ptr
 .data.impure_data
                0x20003200       0x60 c:/a/gcc_arm/6/bin/../lib/gcc/arm-none-eabi/6.3.1/../../../../arm-none-eabi/lib/thumb/v7e-m/fpv4-sp/hard\libc_nano.a(lib_a-impure.o)
                0x20003260                . = ALIGN (0x4)
                0x20003260                PROVIDE (__preinit_array_start, .)
 *(.preinit_array)
                0x20003260                PROVIDE (__preinit_array_end, .)
                0x20003260                . = ALIGN (0x4)
                0x20003260                PROVIDE (__init_array_start, .)
 *(SORT(.init_array.*))
 *(.init_array)
 .init_array    0x20003260        0x4 c:/a/gcc_arm/6/bin/../lib/gcc/arm-none-eabi/6.3.1/thumb/v7e-m/fpv4-sp/hard/crtbegin.o
                0x20003264                PROVIDE (__init_array_end, .)
                0x20003264                . = ALIGN (0x4)
                [!provide]                PROVIDE (__fini_array_start, .)
 *(SORT(.fini_array.*))
 *(.fini_array)
 .fini_array    0x20003264        0x4 c:/a/gcc_arm/6/bin/../lib/gcc/arm-none-eabi/6.3.1/thumb/v7e-m/fpv4-sp/hard/crtbegin.o
                [!provide]                PROVIDE (__fini_array_end, .)
 *(.jcr*)
 .jcr           0x20003268        0x0 c:/a/gcc_arm/6/bin/../lib/gcc/arm-none-eabi/6.3.1/thumb/v7e-m/fpv4-sp/hard/crtbegin.o
 .jcr           0x20003268        0x4 c:/a/gcc_arm/6/bin/../lib/gcc/arm-none-eabi/6.3.1/thumb/v7e-m/fpv4-sp/hard/crtend.o
                0x2000326c                . = ALIGN (0x4)
                0x2000326c                __data_end__ = .

.igot.plt       0x2000326c        0x0 load address 0x0003089c
 .igot.plt      0x2000326c        0x0 c:/a/gcc_arm/6/bin/../lib/gcc/arm-none-eabi/6.3.1/thumb/v7e-m/fpv4-sp/hard/crtbegin.o

.bss            0x20003270     0x2bb4 load address 0x000308a0
                0x20003270                . = ALIGN (0x4)
                0x20003270                __bss_start__ = .
 *(.bss*)
 .bss           0x20003270       0x1c c:/a/gcc_arm/6/bin/../lib/gcc/arm-none-eabi/6.3.1/thumb/v7e-m/fpv4-sp/hard/crtbegin.o
 .bss.m_adv_buffer
                0x2000328c       0x80 examples/beaconing/CMakeFiles/beaconing_nrf52840_xxAA_s140_5.0.0-3.alpha.dir/src/main.c.obj
 .bss.m_advertiser
                0x2000330c       0x94 examples/beaconing/CMakeFiles/beaconing_nrf52840_xxAA_s140_5.0.0-3.alpha.dir/src/main.c.obj
 .bss.m_ble_evt_buffer
                0x200033a0       0x57 examples/beaconing/CMakeFiles/beaconing_nrf52840_xxAA_s140_5.0.0-3.alpha.dir/__/nrf_mesh_sdk.c.obj
 *fill*         0x200033f7        0x1 
 .bss.m_addr_nonvirtual_allocated
                0x200033f8        0x4 examples/beaconing/CMakeFiles/beaconing_nrf52840_xxAA_s140_5.0.0-3.alpha.dir/__/__/mesh/access/src/device_state_manager.c.obj
 .bss.m_addr_unicast_allocated
                0x200033fc        0x4 examples/beaconing/CMakeFiles/beaconing_nrf52840_xxAA_s140_5.0.0-3.alpha.dir/__/__/mesh/access/src/device_state_manager.c.obj
 .bss.m_addr_virtual_allocated
                0x20003400        0x4 examples/beaconing/CMakeFiles/beaconing_nrf52840_xxAA_s140_5.0.0-3.alpha.dir/__/__/mesh/access/src/device_state_manager.c.obj
 .bss.m_addresses
                0x20003404       0x40 examples/beaconing/CMakeFiles/beaconing_nrf52840_xxAA_s140_5.0.0-3.alpha.dir/__/__/mesh/access/src/device_state_manager.c.obj
 .bss.m_appkey_allocated
                0x20003444        0x4 examples/beaconing/CMakeFiles/beaconing_nrf52840_xxAA_s140_5.0.0-3.alpha.dir/__/__/mesh/access/src/device_state_manager.c.obj
 .bss.m_appkeys
                0x20003448       0xb0 examples/beaconing/CMakeFiles/beaconing_nrf52840_xxAA_s140_5.0.0-3.alpha.dir/__/__/mesh/access/src/device_state_manager.c.obj
 .bss.m_devkeys
                0x200034f8       0x16 examples/beaconing/CMakeFiles/beaconing_nrf52840_xxAA_s140_5.0.0-3.alpha.dir/__/__/mesh/access/src/device_state_manager.c.obj
 .bss.m_has_primary_subnet
                0x2000350e        0x1 examples/beaconing/CMakeFiles/beaconing_nrf52840_xxAA_s140_5.0.0-3.alpha.dir/__/__/mesh/access/src/device_state_manager.c.obj
 *fill*         0x2000350f        0x1 
 .bss.m_local_unicast_addr
                0x20003510        0x4 examples/beaconing/CMakeFiles/beaconing_nrf52840_xxAA_s140_5.0.0-3.alpha.dir/__/__/mesh/access/src/device_state_manager.c.obj
 .bss.m_subnet_allocated
                0x20003514        0x4 examples/beaconing/CMakeFiles/beaconing_nrf52840_xxAA_s140_5.0.0-3.alpha.dir/__/__/mesh/access/src/device_state_manager.c.obj
 .bss.m_subnets
                0x20003518      0x170 examples/beaconing/CMakeFiles/beaconing_nrf52840_xxAA_s140_5.0.0-3.alpha.dir/__/__/mesh/access/src/device_state_manager.c.obj
 .bss.m_virtual_addresses
                0x20003688       0xa0 examples/beaconing/CMakeFiles/beaconing_nrf52840_xxAA_s140_5.0.0-3.alpha.dir/__/__/mesh/access/src/device_state_manager.c.obj
 .bss.mp_evt_handlers_head
                0x20003728        0x4 mesh/core/libmesh_core_nrf52840_xxAA.a(event.c.obj)
 .bss.lock_count.10077
                0x2000372c        0x4 mesh/core/libmesh_core_nrf52840_xxAA.a(net_state.c.obj)
 .bss.m_flash_manager
                0x20003730       0x24 mesh/core/libmesh_core_nrf52840_xxAA.a(net_state.c.obj)
 .bss.m_iv_update_timer
                0x20003754       0x18 mesh/core/libmesh_core_nrf52840_xxAA.a(net_state.c.obj)
 .bss.m_net_state
                0x2000376c       0x14 mesh/core/libmesh_core_nrf52840_xxAA.a(net_state.c.obj)
 .bss.m_seqnum_allocation_in_progress
                0x20003780        0x1 mesh/core/libmesh_core_nrf52840_xxAA.a(net_state.c.obj)
 .bss.m_test_mode
                0x20003781        0x1 mesh/core/libmesh_core_nrf52840_xxAA.a(net_state.c.obj)
 .bss.m_is_enabled
                0x20003782        0x1 mesh/core/libmesh_core_nrf52840_xxAA.a(nrf_mesh.c.obj)
 .bss.m_is_initialized
                0x20003783        0x1 mesh/core/libmesh_core_nrf52840_xxAA.a(nrf_mesh.c.obj)
 .bss.m_rx_cb   0x20003784        0x4 mesh/core/libmesh_core_nrf52840_xxAA.a(nrf_mesh.c.obj)
 .bss.m_event_flag
                0x20003788        0x4 mesh/core/libmesh_core_nrf52840_xxAA.a(timer_scheduler.c.obj)
 .bss.m_scheduler
                0x2000378c       0x10 mesh/core/libmesh_core_nrf52840_xxAA.a(timer_scheduler.c.obj)
 .bss.m_attributes
                0x2000379c        0x3 mesh/core/libmesh_core_nrf52840_xxAA.a(timer.c.obj)
 *fill*         0x2000379f        0x1 
 .bss.m_callbacks
                0x200037a0        0xc mesh/core/libmesh_core_nrf52840_xxAA.a(timer.c.obj)
 .bss.m_is_in_ts
                0x200037ac        0x1 mesh/core/libmesh_core_nrf52840_xxAA.a(timer.c.obj)
 *fill*         0x200037ad        0x3 
 .bss.m_reference_time
                0x200037b0        0x4 mesh/core/libmesh_core_nrf52840_xxAA.a(timer.c.obj)
 .bss.m_timeouts
                0x200037b4        0xc mesh/core/libmesh_core_nrf52840_xxAA.a(timer.c.obj)
 .bss.m_timer_mut
                0x200037c0        0x4 mesh/core/libmesh_core_nrf52840_xxAA.a(timer.c.obj)
 .bss.m_ts_end_time
                0x200037c4        0x4 mesh/core/libmesh_core_nrf52840_xxAA.a(timer.c.obj)
 .bss.mp_ppi_tasks
                0x200037c8        0xc mesh/core/libmesh_core_nrf52840_xxAA.a(timer.c.obj)
 .bss.m_current_time
                0x200037d4        0x4 mesh/core/libmesh_core_nrf52840_xxAA.a(ticker.c.obj)
 .bss.m_timer   0x200037d8       0x18 mesh/core/libmesh_core_nrf52840_xxAA.a(ticker.c.obj)
 .bss.m_current_timeslot
                0x200037f0       0x1c mesh/core/libmesh_core_nrf52840_xxAA.a(timeslot.c.obj)
 .bss.m_lfclk_ppm
                0x2000380c        0x4 mesh/core/libmesh_core_nrf52840_xxAA.a(timeslot.c.obj)
 .bss.m_radio_request_earliest
                0x20003810       0x10 mesh/core/libmesh_core_nrf52840_xxAA.a(timeslot.c.obj)
 .bss.m_state_lock
                0x20003820        0x1 mesh/core/libmesh_core_nrf52840_xxAA.a(timeslot.c.obj)
 .bss.m_timeslot_forced_command
                0x20003821        0x1 mesh/core/libmesh_core_nrf52840_xxAA.a(timeslot.c.obj)
 *fill*         0x20003822        0x6 
 .bss.s_last_rtc_value.9342
                0x20003828        0x8 mesh/core/libmesh_core_nrf52840_xxAA.a(timeslot.c.obj)
 .bss.m_bearer_event_fifo
                0x20003830       0x14 mesh/core/libmesh_core_nrf52840_xxAA.a(bearer_event.c.obj)
 .bss.m_bearer_event_fifo_buffer
                0x20003844      0x100 mesh/core/libmesh_core_nrf52840_xxAA.a(bearer_event.c.obj)
 .bss.m_critical
                0x20003944        0x4 mesh/core/libmesh_core_nrf52840_xxAA.a(bearer_event.c.obj)
 .bss.m_flag_count
                0x20003948        0x4 mesh/core/libmesh_core_nrf52840_xxAA.a(bearer_event.c.obj)
 .bss.m_flag_event_callbacks
                0x2000394c       0x18 mesh/core/libmesh_core_nrf52840_xxAA.a(bearer_event.c.obj)
 .bss.m_flags   0x20003964        0x4 mesh/core/libmesh_core_nrf52840_xxAA.a(bearer_event.c.obj)
 .bss.m_sequential_event_queue
                0x20003968        0x8 mesh/core/libmesh_core_nrf52840_xxAA.a(bearer_event.c.obj)
 .bss.m_relay_check_cb
                0x20003970        0x4 mesh/core/libmesh_core_nrf52840_xxAA.a(network.c.obj)
 .bss.m_relay_enable
                0x20003974        0x1 mesh/core/libmesh_core_nrf52840_xxAA.a(network.c.obj)
 *fill*         0x20003975        0x3 
 .bss.m_action_queue
                0x20003978        0xc mesh/core/libmesh_core_nrf52840_xxAA.a(flash_manager.c.obj)
 .bss.m_action_queue_buffer
                0x20003984      0x104 mesh/core/libmesh_core_nrf52840_xxAA.a(flash_manager.c.obj)
 .bss.m_action_state
                0x20003a88        0x1 mesh/core/libmesh_core_nrf52840_xxAA.a(flash_manager.c.obj)
 *fill*         0x20003a89        0x3 
 .bss.m_memory_listener_queue
                0x20003a8c        0x8 mesh/core/libmesh_core_nrf52840_xxAA.a(flash_manager.c.obj)
 .bss.m_processing_flag
                0x20003a94        0x4 mesh/core/libmesh_core_nrf52840_xxAA.a(flash_manager.c.obj)
 .bss.m_state   0x20003a98        0x1 mesh/core/libmesh_core_nrf52840_xxAA.a(flash_manager.c.obj)
 *fill*         0x20003a99        0x1 
 .bss.m_token   0x20003a9a        0x2 mesh/core/libmesh_core_nrf52840_xxAA.a(flash_manager.c.obj)
 .bss.p_current.11194
                0x20003a9c        0x4 mesh/core/libmesh_core_nrf52840_xxAA.a(flash_manager.c.obj)
 .bss.result.11195
                0x20003aa0        0x1 mesh/core/libmesh_core_nrf52840_xxAA.a(flash_manager.c.obj)
 *fill*         0x20003aa1        0x3 
 .bss.m_adv_buffer
                0x20003aa4       0x68 mesh/core/libmesh_core_nrf52840_xxAA.a(beacon.c.obj)
 .bss.m_advertiser
                0x20003b0c       0x94 mesh/core/libmesh_core_nrf52840_xxAA.a(beacon.c.obj)
 .bss.m_adv_tx_count
                0x20003ba0        0x8 mesh/core/libmesh_core_nrf52840_xxAA.a(core_tx.c.obj)
 .bss.m_advertisers
                0x20003ba8      0x128 mesh/core/libmesh_core_nrf52840_xxAA.a(core_tx.c.obj)
 .bss.m_originator_adv_packet_buffer
                0x20003cd0      0x100 mesh/core/libmesh_core_nrf52840_xxAA.a(core_tx.c.obj)
 .bss.m_relay_adv_packet_buffer
                0x20003dd0       0x80 mesh/core/libmesh_core_nrf52840_xxAA.a(core_tx.c.obj)
 .bss.m_tx_complete_callback
                0x20003e50        0x4 mesh/core/libmesh_core_nrf52840_xxAA.a(core_tx.c.obj)
 .bss.m_beacon_salt
                0x20003e54       0x10 mesh/core/libmesh_core_nrf52840_xxAA.a(net_beacon.c.obj)
 .bss.m_enabled
                0x20003e64        0x1 mesh/core/libmesh_core_nrf52840_xxAA.a(net_beacon.c.obj)
 *fill*         0x20003e65        0x3 
 .bss.m_tx_event
                0x20003e68       0x18 mesh/core/libmesh_core_nrf52840_xxAA.a(net_beacon.c.obj)
 .bss.m_adv_prng
                0x20003e80       0x10 mesh/core/libmesh_core_nrf52840_xxAA.a(advertiser.c.obj)
 .bss.m_action_queue
                0x20003e90        0x8 mesh/core/libmesh_core_nrf52840_xxAA.a(bearer_handler.c.obj)
 .bss.m_end_time
                0x20003e98        0x4 mesh/core/libmesh_core_nrf52840_xxAA.a(bearer_handler.c.obj)
 .bss.m_scanner_is_active
                0x20003e9c        0x1 mesh/core/libmesh_core_nrf52840_xxAA.a(bearer_handler.c.obj)
 .bss.m_stopped
                0x20003e9d        0x1 mesh/core/libmesh_core_nrf52840_xxAA.a(bearer_handler.c.obj)
 *fill*         0x20003e9e        0x2 
 .bss.mp_action
                0x20003ea0        0x4 mesh/core/libmesh_core_nrf52840_xxAA.a(bearer_handler.c.obj)
 .bss.m_next_channel_index
                0x20003ea4        0x1 mesh/core/libmesh_core_nrf52840_xxAA.a(broadcast.c.obj)
 *fill*         0x20003ea5        0x3 
 .bss.m_scanner
                0x20003ea8      0x284 mesh/core/libmesh_core_nrf52840_xxAA.a(scanner.c.obj)
 .bss.m_internal_event_fifo
                0x2000412c       0x14 mesh/core/libmesh_core_nrf52840_xxAA.a(internal_event.c.obj)
 .bss.m_internal_event_initialized
                0x20004140        0x1 mesh/core/libmesh_core_nrf52840_xxAA.a(internal_event.c.obj)
 *fill*         0x20004141        0x3 
 .bss.m_report_cb
                0x20004144        0x4 mesh/core/libmesh_core_nrf52840_xxAA.a(internal_event.c.obj)
 .bss.m_uuid    0x20004148       0x10 mesh/core/libmesh_core_nrf52840_xxAA.a(nrf_mesh_configure.c.obj)
 .bss.m_msg_cache
                0x20004158      0x100 mesh/core/libmesh_core_nrf52840_xxAA.a(msg_cache.c.obj)
 .bss.m_msg_cache_head
                0x20004258        0x4 mesh/core/libmesh_core_nrf52840_xxAA.a(msg_cache.c.obj)
 .bss.m_sar_alloc
                0x2000425c        0x4 mesh/core/libmesh_core_nrf52840_xxAA.a(transport.c.obj)
 .bss.m_sar_process_flag
                0x20004260        0x4 mesh/core/libmesh_core_nrf52840_xxAA.a(transport.c.obj)
 .bss.m_sar_release
                0x20004264        0x4 mesh/core/libmesh_core_nrf52840_xxAA.a(transport.c.obj)
 .bss.m_sar_session_cache
                0x20004268       0x40 mesh/core/libmesh_core_nrf52840_xxAA.a(transport.c.obj)
 .bss.m_sar_session_cache_head
                0x200042a8        0x4 mesh/core/libmesh_core_nrf52840_xxAA.a(transport.c.obj)
 .bss.m_trs_config
                0x200042ac       0x18 mesh/core/libmesh_core_nrf52840_xxAA.a(transport.c.obj)
 .bss.m_trs_sar_sessions
                0x200042c4      0x1b0 mesh/core/libmesh_core_nrf52840_xxAA.a(transport.c.obj)
 .bss.m_defrag  0x20004474       0x1c mesh/core/libmesh_core_nrf52840_xxAA.a(flash_manager_defrag.c.obj)
 .bss.m_token   0x20004490        0x2 mesh/core/libmesh_core_nrf52840_xxAA.a(flash_manager_defrag.c.obj)
 *fill*         0x20004492        0x2 
 .bss.mp_recovery_area
                0x20004494        0x4 mesh/core/libmesh_core_nrf52840_xxAA.a(flash_manager_defrag.c.obj)
 .bss.p_null_ptr.10247
                0x20004498        0x4 mesh/core/libmesh_core_nrf52840_xxAA.a(flash_manager_defrag.c.obj)
 .bss.m_pool    0x2000449c     0x1000 mesh/core/libmesh_core_nrf52840_xxAA.a(packet_mgr.c.obj)
 .bss.mp_free_head
                0x2000549c        0x4 mesh/core/libmesh_core_nrf52840_xxAA.a(packet_mgr.c.obj)
 .bss.m_event_flag
                0x200054a0        0x4 mesh/core/libmesh_core_nrf52840_xxAA.a(mesh_flash.c.obj)
 .bss.m_suspended
                0x200054a4        0x1 mesh/core/libmesh_core_nrf52840_xxAA.a(mesh_flash.c.obj)
 *fill*         0x200054a5        0x3 
 .bss.m_users   0x200054a8      0x228 mesh/core/libmesh_core_nrf52840_xxAA.a(mesh_flash.c.obj)
 .bss.m_cache_full
                0x200056d0        0x1 mesh/core/libmesh_core_nrf52840_xxAA.a(replay_cache.c.obj)
 .bss.m_cache_index
                0x200056d1        0x1 mesh/core/libmesh_core_nrf52840_xxAA.a(replay_cache.c.obj)
 *fill*         0x200056d2        0x2 
 .bss.m_replay_cache
                0x200056d4      0x200 mesh/core/libmesh_core_nrf52840_xxAA.a(replay_cache.c.obj)
 .bss.m_accepted_amount
                0x200058d4        0x4 mesh/core/libmesh_core_nrf52840_xxAA.a(filter_engine.c.obj)
 .bss.m_filter_list_head
                0x200058d8        0x4 mesh/core/libmesh_core_nrf52840_xxAA.a(filter_engine.c.obj)
 .bss.m_128buf  0x200058dc       0x10 mesh/core/libmesh_core_nrf52840_xxAA.a(aes_cmac.c.obj)
 .bss.m_subkey1
                0x200058ec       0x10 mesh/core/libmesh_core_nrf52840_xxAA.a(aes_cmac.c.obj)
 .bss.m_subkey2
                0x200058fc       0x10 mesh/core/libmesh_core_nrf52840_xxAA.a(aes_cmac.c.obj)
 .bss._acDownBuffer
                0x2000590c       0x80 external/rtt/librtt_nrf52840_xxAA.a(SEGGER_RTT.c.obj)
 .bss._acUpBuffer
                0x2000598c      0x400 external/rtt/librtt_nrf52840_xxAA.a(SEGGER_RTT.c.obj)
 .bss.__malloc_free_list
                0x20005d8c        0x4 c:/a/gcc_arm/6/bin/../lib/gcc/arm-none-eabi/6.3.1/../../../../arm-none-eabi/lib/thumb/v7e-m/fpv4-sp/hard\libc_nano.a(lib_a-nano-mallocr.o)
                0x20005d8c                __malloc_free_list
 .bss.__malloc_sbrk_start
                0x20005d90        0x4 c:/a/gcc_arm/6/bin/../lib/gcc/arm-none-eabi/6.3.1/../../../../arm-none-eabi/lib/thumb/v7e-m/fpv4-sp/hard\libc_nano.a(lib_a-nano-mallocr.o)
                0x20005d90                __malloc_sbrk_start
 .bss.heap_end.5239
                0x20005d94        0x4 c:/a/gcc_arm/6/bin/../lib/gcc/arm-none-eabi/6.3.1/../../../../arm-none-eabi/lib/thumb/v7e-m/fpv4-sp/hard\libnosys.a(sbrk.o)
 *(COMMON)
 COMMON         0x20005d98        0xc examples/beaconing/CMakeFiles/beaconing_nrf52840_xxAA_s140_5.0.0-3.alpha.dir/__/nrf_mesh_sdk.c.obj
                0x20005d98                nrf_nvic_state
 COMMON         0x20005da4        0x4 mesh/core/libmesh_core_nrf52840_xxAA.a(nrf_mesh.c.obj)
                0x20005da4                m_assertion_handler
 COMMON         0x20005da8       0x78 external/rtt/librtt_nrf52840_xxAA.a(SEGGER_RTT.c.obj)
                0x20005da8                _SEGGER_RTT
 COMMON         0x20005e20        0x4 c:/a/gcc_arm/6/bin/../lib/gcc/arm-none-eabi/6.3.1/../../../../arm-none-eabi/lib/thumb/v7e-m/fpv4-sp/hard\libc_nano.a(lib_a-reent.o)
                0x20005e20                errno
                0x20005e24                . = ALIGN (0x4)
                0x20005e24                __bss_end__ = .

.heap           0x20005e28     0x2000
                0x20005e28                __HeapBase = .
                0x20005e28                __end__ = .
                0x20005e28                PROVIDE (end, .)
 *(.heap*)
 .heap          0x20005e28     0x2000 examples/beaconing/CMakeFiles/beaconing_nrf52840_xxAA_s140_5.0.0-3.alpha.dir/__/__/external/nRF5_SDK_14.0.0_3bcc1f7/components/toolchain/gcc/gcc_startup_nrf52840.S.obj
                0x20007e28                __HeapLimit = .

.stack_dummy    0x20005e28     0x2000
 *(.stack*)
 .stack         0x20005e28     0x2000 examples/beaconing/CMakeFiles/beaconing_nrf52840_xxAA_s140_5.0.0-3.alpha.dir/__/__/external/nRF5_SDK_14.0.0_3bcc1f7/components/toolchain/gcc/gcc_startup_nrf52840.S.obj
                0x2003f002                __StackTop = (ORIGIN (RAM) + LENGTH (RAM))
                0x2003d002                __StackLimit = (__StackTop - SIZEOF (.stack_dummy))
                0x2003f002                PROVIDE (__stack, __StackTop)
                0x00000001                ASSERT ((__StackLimit >= __HeapLimit), region RAM overflowed with stack)
OUTPUT(examples\beaconing\beaconing_nrf52840_xxAA_s140_5.0.0-3.alpha.elf elf32-littlearm)

.ARM.attributes
                0x00000000       0x30
 .ARM.attributes
                0x00000000       0x22 c:/a/gcc_arm/6/bin/../lib/gcc/arm-none-eabi/6.3.1/thumb/v7e-m/fpv4-sp/hard/crti.o
 .ARM.attributes
                0x00000022       0x34 c:/a/gcc_arm/6/bin/../lib/gcc/arm-none-eabi/6.3.1/thumb/v7e-m/fpv4-sp/hard/crtbegin.o
 .ARM.attributes
                0x00000056       0x20 c:/a/gcc_arm/6/bin/../lib/gcc/arm-none-eabi/6.3.1/../../../../arm-none-eabi/lib/thumb/v7e-m/fpv4-sp/hard/crt0.o
 .ARM.attributes
                0x00000076       0x39 examples/beaconing/CMakeFiles/beaconing_nrf52840_xxAA_s140_5.0.0-3.alpha.dir/src/main.c.obj
 .ARM.attributes
                0x000000af       0x39 examples/beaconing/CMakeFiles/beaconing_nrf52840_xxAA_s140_5.0.0-3.alpha.dir/__/nrf_mesh_sdk.c.obj
 .ARM.attributes
                0x000000e8       0x39 examples/beaconing/CMakeFiles/beaconing_nrf52840_xxAA_s140_5.0.0-3.alpha.dir/__/__/mesh/access/src/device_state_manager.c.obj
 .ARM.attributes
                0x00000121       0x39 examples/beaconing/CMakeFiles/beaconing_nrf52840_xxAA_s140_5.0.0-3.alpha.dir/__/nrf_mesh_weak.c.obj
 .ARM.attributes
                0x0000015a       0x39 examples/beaconing/CMakeFiles/beaconing_nrf52840_xxAA_s140_5.0.0-3.alpha.dir/__/__/external/nRF5_SDK_14.0.0_3bcc1f7/components/toolchain/system_nrf52840.c.obj
 .ARM.attributes
                0x00000193       0x20 examples/beaconing/CMakeFiles/beaconing_nrf52840_xxAA_s140_5.0.0-3.alpha.dir/__/__/external/nRF5_SDK_14.0.0_3bcc1f7/components/toolchain/gcc/gcc_startup_nrf52840.S.obj
 .ARM.attributes
                0x000001b3       0x39 mesh/core/libmesh_core_nrf52840_xxAA.a(event.c.obj)
 .ARM.attributes
                0x000001ec       0x39 mesh/core/libmesh_core_nrf52840_xxAA.a(net_state.c.obj)
 .ARM.attributes
                0x00000225       0x39 mesh/core/libmesh_core_nrf52840_xxAA.a(nrf_mesh_utils.c.obj)
 .ARM.attributes
                0x0000025e       0x39 mesh/core/libmesh_core_nrf52840_xxAA.a(nrf_mesh.c.obj)
 .ARM.attributes
                0x00000297       0x39 mesh/core/libmesh_core_nrf52840_xxAA.a(hal.c.obj)
 .ARM.attributes
                0x000002d0       0x39 mesh/core/libmesh_core_nrf52840_xxAA.a(timer_scheduler.c.obj)
 .ARM.attributes
                0x00000309       0x39 mesh/core/libmesh_core_nrf52840_xxAA.a(timer.c.obj)
 .ARM.attributes
                0x00000342       0x39 mesh/core/libmesh_core_nrf52840_xxAA.a(ticker.c.obj)
 .ARM.attributes
                0x0000037b       0x39 mesh/core/libmesh_core_nrf52840_xxAA.a(rand.c.obj)
 .ARM.attributes
                0x000003b4       0x39 mesh/core/libmesh_core_nrf52840_xxAA.a(timeslot.c.obj)
 .ARM.attributes
                0x000003ed       0x39 mesh/core/libmesh_core_nrf52840_xxAA.a(bearer_event.c.obj)
 .ARM.attributes
                0x00000426       0x39 mesh/core/libmesh_core_nrf52840_xxAA.a(network.c.obj)
 .ARM.attributes
                0x0000045f       0x39 mesh/core/libmesh_core_nrf52840_xxAA.a(log.c.obj)
 .ARM.attributes
                0x00000498       0x39 mesh/core/libmesh_core_nrf52840_xxAA.a(flash_manager.c.obj)
 .ARM.attributes
                0x000004d1       0x39 mesh/core/libmesh_core_nrf52840_xxAA.a(beacon.c.obj)
 .ARM.attributes
                0x0000050a       0x39 mesh/core/libmesh_core_nrf52840_xxAA.a(flash_manager_internal.c.obj)
 .ARM.attributes
                0x00000543       0x39 mesh/core/libmesh_core_nrf52840_xxAA.a(core_tx.c.obj)
 .ARM.attributes
                0x0000057c       0x39 mesh/core/libmesh_core_nrf52840_xxAA.a(net_beacon.c.obj)
 .ARM.attributes
                0x000005b5       0x39 mesh/core/libmesh_core_nrf52840_xxAA.a(advertiser.c.obj)
 .ARM.attributes
                0x000005ee       0x39 mesh/core/libmesh_core_nrf52840_xxAA.a(bearer_handler.c.obj)
 .ARM.attributes
                0x00000627       0x39 mesh/core/libmesh_core_nrf52840_xxAA.a(broadcast.c.obj)
 .ARM.attributes
                0x00000660       0x39 mesh/core/libmesh_core_nrf52840_xxAA.a(radio_config.c.obj)
 .ARM.attributes
                0x00000699       0x39 mesh/core/libmesh_core_nrf52840_xxAA.a(scanner.c.obj)
 .ARM.attributes
                0x000006d2       0x39 mesh/core/libmesh_core_nrf52840_xxAA.a(internal_event.c.obj)
 .ARM.attributes
                0x0000070b       0x39 mesh/core/libmesh_core_nrf52840_xxAA.a(nrf_mesh_configure.c.obj)
 .ARM.attributes
                0x00000744       0x39 mesh/core/libmesh_core_nrf52840_xxAA.a(msg_cache.c.obj)
 .ARM.attributes
                0x0000077d       0x39 mesh/core/libmesh_core_nrf52840_xxAA.a(transport.c.obj)
 .ARM.attributes
                0x000007b6       0x39 mesh/core/libmesh_core_nrf52840_xxAA.a(packet_buffer.c.obj)
 .ARM.attributes
                0x000007ef       0x39 mesh/core/libmesh_core_nrf52840_xxAA.a(flash_manager_defrag.c.obj)
 .ARM.attributes
                0x00000828       0x39 mesh/core/libmesh_core_nrf52840_xxAA.a(fifo.c.obj)
 .ARM.attributes
                0x00000861       0x39 mesh/core/libmesh_core_nrf52840_xxAA.a(packet_mgr.c.obj)
 .ARM.attributes
                0x0000089a       0x39 mesh/core/libmesh_core_nrf52840_xxAA.a(mesh_flash.c.obj)
 .ARM.attributes
                0x000008d3       0x39 mesh/core/libmesh_core_nrf52840_xxAA.a(queue.c.obj)
 .ARM.attributes
                0x0000090c       0x39 mesh/core/libmesh_core_nrf52840_xxAA.a(enc.c.obj)
 .ARM.attributes
                0x00000945       0x39 mesh/core/libmesh_core_nrf52840_xxAA.a(msqueue.c.obj)
 .ARM.attributes
                0x0000097e       0x39 mesh/core/libmesh_core_nrf52840_xxAA.a(ccm_soft.c.obj)
 .ARM.attributes
                0x000009b7       0x39 mesh/core/libmesh_core_nrf52840_xxAA.a(replay_cache.c.obj)
 .ARM.attributes
                0x000009f0       0x39 mesh/core/libmesh_core_nrf52840_xxAA.a(filter_engine.c.obj)
 .ARM.attributes
                0x00000a29       0x39 mesh/core/libmesh_core_nrf52840_xxAA.a(aes.c.obj)
 .ARM.attributes
                0x00000a62       0x39 mesh/core/libmesh_core_nrf52840_xxAA.a(nrf_flash.c.obj)
 .ARM.attributes
                0x00000a9b       0x39 mesh/core/libmesh_core_nrf52840_xxAA.a(aes_cmac.c.obj)
 .ARM.attributes
                0x00000ad4       0x39 external/rtt/librtt_nrf52840_xxAA.a(SEGGER_RTT.c.obj)
 .ARM.attributes
                0x00000b0d       0x39 external/rtt/librtt_nrf52840_xxAA.a(SEGGER_RTT_printf.c.obj)
 .ARM.attributes
                0x00000b46       0x34 c:/a/gcc_arm/6/bin/../lib/gcc/arm-none-eabi/6.3.1/../../../../arm-none-eabi/lib/thumb/v7e-m/fpv4-sp/hard\libc_nano.a(lib_a-exit.o)
 .ARM.attributes
                0x00000b7a       0x34 c:/a/gcc_arm/6/bin/../lib/gcc/arm-none-eabi/6.3.1/../../../../arm-none-eabi/lib/thumb/v7e-m/fpv4-sp/hard\libc_nano.a(lib_a-impure.o)
 .ARM.attributes
                0x00000bae       0x34 c:/a/gcc_arm/6/bin/../lib/gcc/arm-none-eabi/6.3.1/../../../../arm-none-eabi/lib/thumb/v7e-m/fpv4-sp/hard\libc_nano.a(lib_a-init.o)
 .ARM.attributes
                0x00000be2       0x34 c:/a/gcc_arm/6/bin/../lib/gcc/arm-none-eabi/6.3.1/../../../../arm-none-eabi/lib/thumb/v7e-m/fpv4-sp/hard\libc_nano.a(lib_a-malloc.o)
 .ARM.attributes
                0x00000c16       0x34 c:/a/gcc_arm/6/bin/../lib/gcc/arm-none-eabi/6.3.1/../../../../arm-none-eabi/lib/thumb/v7e-m/fpv4-sp/hard\libc_nano.a(lib_a-memcmp.o)
 .ARM.attributes
                0x00000c4a       0x34 c:/a/gcc_arm/6/bin/../lib/gcc/arm-none-eabi/6.3.1/../../../../arm-none-eabi/lib/thumb/v7e-m/fpv4-sp/hard\libc_nano.a(lib_a-memcpy-stub.o)
 .ARM.attributes
                0x00000c7e       0x34 c:/a/gcc_arm/6/bin/../lib/gcc/arm-none-eabi/6.3.1/../../../../arm-none-eabi/lib/thumb/v7e-m/fpv4-sp/hard\libc_nano.a(lib_a-memset.o)
 .ARM.attributes
                0x00000cb2       0x34 c:/a/gcc_arm/6/bin/../lib/gcc/arm-none-eabi/6.3.1/../../../../arm-none-eabi/lib/thumb/v7e-m/fpv4-sp/hard\libc_nano.a(lib_a-nano-freer.o)
 .ARM.attributes
                0x00000ce6       0x34 c:/a/gcc_arm/6/bin/../lib/gcc/arm-none-eabi/6.3.1/../../../../arm-none-eabi/lib/thumb/v7e-m/fpv4-sp/hard\libc_nano.a(lib_a-nano-mallocr.o)
 .ARM.attributes
                0x00000d1a       0x34 c:/a/gcc_arm/6/bin/../lib/gcc/arm-none-eabi/6.3.1/../../../../arm-none-eabi/lib/thumb/v7e-m/fpv4-sp/hard\libc_nano.a(lib_a-sbrkr.o)
 .ARM.attributes
                0x00000d4e       0x34 c:/a/gcc_arm/6/bin/../lib/gcc/arm-none-eabi/6.3.1/../../../../arm-none-eabi/lib/thumb/v7e-m/fpv4-sp/hard\libc_nano.a(lib_a-sprintf.o)
 .ARM.attributes
                0x00000d82       0x34 c:/a/gcc_arm/6/bin/../lib/gcc/arm-none-eabi/6.3.1/../../../../arm-none-eabi/lib/thumb/v7e-m/fpv4-sp/hard\libc_nano.a(lib_a-strcpy.o)
 .ARM.attributes
                0x00000db6       0x34 c:/a/gcc_arm/6/bin/../lib/gcc/arm-none-eabi/6.3.1/../../../../arm-none-eabi/lib/thumb/v7e-m/fpv4-sp/hard\libc_nano.a(lib_a-strrchr.o)
 .ARM.attributes
                0x00000dea       0x34 c:/a/gcc_arm/6/bin/../lib/gcc/arm-none-eabi/6.3.1/../../../../arm-none-eabi/lib/thumb/v7e-m/fpv4-sp/hard\libc_nano.a(lib_a-mlock.o)
 .ARM.attributes
                0x00000e1e       0x34 c:/a/gcc_arm/6/bin/../lib/gcc/arm-none-eabi/6.3.1/../../../../arm-none-eabi/lib/thumb/v7e-m/fpv4-sp/hard\libc_nano.a(lib_a-nano-svfprintf.o)
 .ARM.attributes
                0x00000e52       0x34 c:/a/gcc_arm/6/bin/../lib/gcc/arm-none-eabi/6.3.1/../../../../arm-none-eabi/lib/thumb/v7e-m/fpv4-sp/hard\libc_nano.a(lib_a-nano-vfprintf_i.o)
 .ARM.attributes
                0x00000e86       0x34 c:/a/gcc_arm/6/bin/../lib/gcc/arm-none-eabi/6.3.1/../../../../arm-none-eabi/lib/thumb/v7e-m/fpv4-sp/hard\libc_nano.a(lib_a-reent.o)
 .ARM.attributes
                0x00000eba       0x34 c:/a/gcc_arm/6/bin/../lib/gcc/arm-none-eabi/6.3.1/../../../../arm-none-eabi/lib/thumb/v7e-m/fpv4-sp/hard\libc_nano.a(lib_a-strchr.o)
 .ARM.attributes
                0x00000eee       0x20 c:/a/gcc_arm/6/bin/../lib/gcc/arm-none-eabi/6.3.1/../../../../arm-none-eabi/lib/thumb/v7e-m/fpv4-sp/hard\libc_nano.a(lib_a-memchr.o)
 .ARM.attributes
                0x00000f0e       0x34 c:/a/gcc_arm/6/bin/../lib/gcc/arm-none-eabi/6.3.1/../../../../arm-none-eabi/lib/thumb/v7e-m/fpv4-sp/hard\libc_nano.a(lib_a-memmove.o)
 .ARM.attributes
                0x00000f42       0x34 c:/a/gcc_arm/6/bin/../lib/gcc/arm-none-eabi/6.3.1/../../../../arm-none-eabi/lib/thumb/v7e-m/fpv4-sp/hard\libc_nano.a(lib_a-nano-reallocr.o)
 .ARM.attributes
                0x00000f76       0x34 c:/a/gcc_arm/6/bin/../lib/gcc/arm-none-eabi/6.3.1/../../../../arm-none-eabi/lib/thumb/v7e-m/fpv4-sp/hard\libc_nano.a(lib_a-nano-msizer.o)
 .ARM.attributes
                0x00000faa       0x34 c:/a/gcc_arm/6/bin/../lib/gcc/arm-none-eabi/6.3.1/thumb/v7e-m/fpv4-sp/hard/crtend.o
 .ARM.attributes
                0x00000fde       0x22 c:/a/gcc_arm/6/bin/../lib/gcc/arm-none-eabi/6.3.1/thumb/v7e-m/fpv4-sp/hard/crtn.o
 .ARM.attributes
                0x00001000       0x34 c:/a/gcc_arm/6/bin/../lib/gcc/arm-none-eabi/6.3.1/../../../../arm-none-eabi/lib/thumb/v7e-m/fpv4-sp/hard\libnosys.a(sbrk.o)
 .ARM.attributes
                0x00001034       0x34 c:/a/gcc_arm/6/bin/../lib/gcc/arm-none-eabi/6.3.1/../../../../arm-none-eabi/lib/thumb/v7e-m/fpv4-sp/hard\libnosys.a(_exit.o)

.comment        0x00000000       0x7f
 .comment       0x00000000       0x7f examples/beaconing/CMakeFiles/beaconing_nrf52840_xxAA_s140_5.0.0-3.alpha.dir/src/main.c.obj
                                 0x80 (size before relaxing)
 .comment       0x0000007f       0x80 examples/beaconing/CMakeFiles/beaconing_nrf52840_xxAA_s140_5.0.0-3.alpha.dir/__/nrf_mesh_sdk.c.obj
 .comment       0x0000007f       0x80 examples/beaconing/CMakeFiles/beaconing_nrf52840_xxAA_s140_5.0.0-3.alpha.dir/__/__/mesh/access/src/device_state_manager.c.obj
 .comment       0x0000007f       0x80 examples/beaconing/CMakeFiles/beaconing_nrf52840_xxAA_s140_5.0.0-3.alpha.dir/__/nrf_mesh_weak.c.obj
 .comment       0x0000007f       0x80 examples/beaconing/CMakeFiles/beaconing_nrf52840_xxAA_s140_5.0.0-3.alpha.dir/__/__/external/nRF5_SDK_14.0.0_3bcc1f7/components/toolchain/system_nrf52840.c.obj
 .comment       0x0000007f       0x80 mesh/core/libmesh_core_nrf52840_xxAA.a(event.c.obj)
 .comment       0x0000007f       0x80 mesh/core/libmesh_core_nrf52840_xxAA.a(net_state.c.obj)
 .comment       0x0000007f       0x80 mesh/core/libmesh_core_nrf52840_xxAA.a(nrf_mesh_utils.c.obj)
 .comment       0x0000007f       0x80 mesh/core/libmesh_core_nrf52840_xxAA.a(nrf_mesh.c.obj)
 .comment       0x0000007f       0x80 mesh/core/libmesh_core_nrf52840_xxAA.a(hal.c.obj)
 .comment       0x0000007f       0x80 mesh/core/libmesh_core_nrf52840_xxAA.a(timer_scheduler.c.obj)
 .comment       0x0000007f       0x80 mesh/core/libmesh_core_nrf52840_xxAA.a(timer.c.obj)
 .comment       0x0000007f       0x80 mesh/core/libmesh_core_nrf52840_xxAA.a(ticker.c.obj)
 .comment       0x0000007f       0x80 mesh/core/libmesh_core_nrf52840_xxAA.a(rand.c.obj)
 .comment       0x0000007f       0x80 mesh/core/libmesh_core_nrf52840_xxAA.a(timeslot.c.obj)
 .comment       0x0000007f       0x80 mesh/core/libmesh_core_nrf52840_xxAA.a(bearer_event.c.obj)
 .comment       0x0000007f       0x80 mesh/core/libmesh_core_nrf52840_xxAA.a(network.c.obj)
 .comment       0x0000007f       0x80 mesh/core/libmesh_core_nrf52840_xxAA.a(log.c.obj)
 .comment       0x0000007f       0x80 mesh/core/libmesh_core_nrf52840_xxAA.a(flash_manager.c.obj)
 .comment       0x0000007f       0x80 mesh/core/libmesh_core_nrf52840_xxAA.a(beacon.c.obj)
 .comment       0x0000007f       0x80 mesh/core/libmesh_core_nrf52840_xxAA.a(flash_manager_internal.c.obj)
 .comment       0x0000007f       0x80 mesh/core/libmesh_core_nrf52840_xxAA.a(core_tx.c.obj)
 .comment       0x0000007f       0x80 mesh/core/libmesh_core_nrf52840_xxAA.a(net_beacon.c.obj)
 .comment       0x0000007f       0x80 mesh/core/libmesh_core_nrf52840_xxAA.a(advertiser.c.obj)
 .comment       0x0000007f       0x80 mesh/core/libmesh_core_nrf52840_xxAA.a(bearer_handler.c.obj)
 .comment       0x0000007f       0x80 mesh/core/libmesh_core_nrf52840_xxAA.a(broadcast.c.obj)
 .comment       0x0000007f       0x80 mesh/core/libmesh_core_nrf52840_xxAA.a(radio_config.c.obj)
 .comment       0x0000007f       0x80 mesh/core/libmesh_core_nrf52840_xxAA.a(scanner.c.obj)
 .comment       0x0000007f       0x80 mesh/core/libmesh_core_nrf52840_xxAA.a(internal_event.c.obj)
 .comment       0x0000007f       0x80 mesh/core/libmesh_core_nrf52840_xxAA.a(nrf_mesh_configure.c.obj)
 .comment       0x0000007f       0x80 mesh/core/libmesh_core_nrf52840_xxAA.a(msg_cache.c.obj)
 .comment       0x0000007f       0x80 mesh/core/libmesh_core_nrf52840_xxAA.a(transport.c.obj)
 .comment       0x0000007f       0x80 mesh/core/libmesh_core_nrf52840_xxAA.a(packet_buffer.c.obj)
 .comment       0x0000007f       0x80 mesh/core/libmesh_core_nrf52840_xxAA.a(flash_manager_defrag.c.obj)
 .comment       0x0000007f       0x80 mesh/core/libmesh_core_nrf52840_xxAA.a(fifo.c.obj)
 .comment       0x0000007f       0x80 mesh/core/libmesh_core_nrf52840_xxAA.a(packet_mgr.c.obj)
 .comment       0x0000007f       0x80 mesh/core/libmesh_core_nrf52840_xxAA.a(mesh_flash.c.obj)
 .comment       0x0000007f       0x80 mesh/core/libmesh_core_nrf52840_xxAA.a(queue.c.obj)
 .comment       0x0000007f       0x80 mesh/core/libmesh_core_nrf52840_xxAA.a(enc.c.obj)
 .comment       0x0000007f       0x80 mesh/core/libmesh_core_nrf52840_xxAA.a(msqueue.c.obj)
 .comment       0x0000007f       0x80 mesh/core/libmesh_core_nrf52840_xxAA.a(ccm_soft.c.obj)
 .comment       0x0000007f       0x80 mesh/core/libmesh_core_nrf52840_xxAA.a(replay_cache.c.obj)
 .comment       0x0000007f       0x80 mesh/core/libmesh_core_nrf52840_xxAA.a(filter_engine.c.obj)
 .comment       0x0000007f       0x80 mesh/core/libmesh_core_nrf52840_xxAA.a(aes.c.obj)
 .comment       0x0000007f       0x80 mesh/core/libmesh_core_nrf52840_xxAA.a(nrf_flash.c.obj)
 .comment       0x0000007f       0x80 mesh/core/libmesh_core_nrf52840_xxAA.a(aes_cmac.c.obj)
 .comment       0x0000007f       0x80 external/rtt/librtt_nrf52840_xxAA.a(SEGGER_RTT.c.obj)
 .comment       0x0000007f       0x80 external/rtt/librtt_nrf52840_xxAA.a(SEGGER_RTT_printf.c.obj)

.debug_frame    0x00000000      0x4a8
 .debug_frame   0x00000000       0x28 c:/a/gcc_arm/6/bin/../lib/gcc/arm-none-eabi/6.3.1/../../../../arm-none-eabi/lib/thumb/v7e-m/fpv4-sp/hard\libc_nano.a(lib_a-exit.o)
 .debug_frame   0x00000028       0x2c c:/a/gcc_arm/6/bin/../lib/gcc/arm-none-eabi/6.3.1/../../../../arm-none-eabi/lib/thumb/v7e-m/fpv4-sp/hard\libc_nano.a(lib_a-init.o)
 .debug_frame   0x00000054       0x30 c:/a/gcc_arm/6/bin/../lib/gcc/arm-none-eabi/6.3.1/../../../../arm-none-eabi/lib/thumb/v7e-m/fpv4-sp/hard\libc_nano.a(lib_a-malloc.o)
 .debug_frame   0x00000084       0x28 c:/a/gcc_arm/6/bin/../lib/gcc/arm-none-eabi/6.3.1/../../../../arm-none-eabi/lib/thumb/v7e-m/fpv4-sp/hard\libc_nano.a(lib_a-memcmp.o)
 .debug_frame   0x000000ac       0x28 c:/a/gcc_arm/6/bin/../lib/gcc/arm-none-eabi/6.3.1/../../../../arm-none-eabi/lib/thumb/v7e-m/fpv4-sp/hard\libc_nano.a(lib_a-memcpy-stub.o)
 .debug_frame   0x000000d4       0x20 c:/a/gcc_arm/6/bin/../lib/gcc/arm-none-eabi/6.3.1/../../../../arm-none-eabi/lib/thumb/v7e-m/fpv4-sp/hard\libc_nano.a(lib_a-memset.o)
 .debug_frame   0x000000f4       0x38 c:/a/gcc_arm/6/bin/../lib/gcc/arm-none-eabi/6.3.1/../../../../arm-none-eabi/lib/thumb/v7e-m/fpv4-sp/hard\libc_nano.a(lib_a-nano-freer.o)
 .debug_frame   0x0000012c       0x2c c:/a/gcc_arm/6/bin/../lib/gcc/arm-none-eabi/6.3.1/../../../../arm-none-eabi/lib/thumb/v7e-m/fpv4-sp/hard\libc_nano.a(lib_a-nano-mallocr.o)
 .debug_frame   0x00000158       0x2c c:/a/gcc_arm/6/bin/../lib/gcc/arm-none-eabi/6.3.1/../../../../arm-none-eabi/lib/thumb/v7e-m/fpv4-sp/hard\libc_nano.a(lib_a-sbrkr.o)
 .debug_frame   0x00000184       0x70 c:/a/gcc_arm/6/bin/../lib/gcc/arm-none-eabi/6.3.1/../../../../arm-none-eabi/lib/thumb/v7e-m/fpv4-sp/hard\libc_nano.a(lib_a-sprintf.o)
 .debug_frame   0x000001f4       0x20 c:/a/gcc_arm/6/bin/../lib/gcc/arm-none-eabi/6.3.1/../../../../arm-none-eabi/lib/thumb/v7e-m/fpv4-sp/hard\libc_nano.a(lib_a-strcpy.o)
 .debug_frame   0x00000214       0x34 c:/a/gcc_arm/6/bin/../lib/gcc/arm-none-eabi/6.3.1/../../../../arm-none-eabi/lib/thumb/v7e-m/fpv4-sp/hard\libc_nano.a(lib_a-strrchr.o)
 .debug_frame   0x00000248       0x30 c:/a/gcc_arm/6/bin/../lib/gcc/arm-none-eabi/6.3.1/../../../../arm-none-eabi/lib/thumb/v7e-m/fpv4-sp/hard\libc_nano.a(lib_a-mlock.o)
 .debug_frame   0x00000278       0x90 c:/a/gcc_arm/6/bin/../lib/gcc/arm-none-eabi/6.3.1/../../../../arm-none-eabi/lib/thumb/v7e-m/fpv4-sp/hard\libc_nano.a(lib_a-nano-svfprintf.o)
 .debug_frame   0x00000308       0x60 c:/a/gcc_arm/6/bin/../lib/gcc/arm-none-eabi/6.3.1/../../../../arm-none-eabi/lib/thumb/v7e-m/fpv4-sp/hard\libc_nano.a(lib_a-nano-vfprintf_i.o)
 .debug_frame   0x00000368       0x5c c:/a/gcc_arm/6/bin/../lib/gcc/arm-none-eabi/6.3.1/../../../../arm-none-eabi/lib/thumb/v7e-m/fpv4-sp/hard\libc_nano.a(lib_a-reent.o)
 .debug_frame   0x000003c4       0x20 c:/a/gcc_arm/6/bin/../lib/gcc/arm-none-eabi/6.3.1/../../../../arm-none-eabi/lib/thumb/v7e-m/fpv4-sp/hard\libc_nano.a(lib_a-strchr.o)
 .debug_frame   0x000003e4       0x28 c:/a/gcc_arm/6/bin/../lib/gcc/arm-none-eabi/6.3.1/../../../../arm-none-eabi/lib/thumb/v7e-m/fpv4-sp/hard\libc_nano.a(lib_a-memmove.o)
 .debug_frame   0x0000040c       0x3c c:/a/gcc_arm/6/bin/../lib/gcc/arm-none-eabi/6.3.1/../../../../arm-none-eabi/lib/thumb/v7e-m/fpv4-sp/hard\libc_nano.a(lib_a-nano-reallocr.o)
 .debug_frame   0x00000448       0x20 c:/a/gcc_arm/6/bin/../lib/gcc/arm-none-eabi/6.3.1/../../../../arm-none-eabi/lib/thumb/v7e-m/fpv4-sp/hard\libc_nano.a(lib_a-nano-msizer.o)
 .debug_frame   0x00000468       0x20 c:/a/gcc_arm/6/bin/../lib/gcc/arm-none-eabi/6.3.1/../../../../arm-none-eabi/lib/thumb/v7e-m/fpv4-sp/hard\libnosys.a(sbrk.o)
 .debug_frame   0x00000488       0x20 c:/a/gcc_arm/6/bin/../lib/gcc/arm-none-eabi/6.3.1/../../../../arm-none-eabi/lib/thumb/v7e-m/fpv4-sp/hard\libnosys.a(_exit.o)
