Archive member included to satisfy reference by file (symbol)

mesh/core/libmesh_core_nrf52840_xxAA.a(internal_event.c.obj)
                              examples/dfu/CMakeFiles/dfu_nrf52840_xxAA_s140_5.0.0-3.alpha.dir/__/__/mesh/serial/src/serial_handler_device.c.obj (internal_event_init)
mesh/core/libmesh_core_nrf52840_xxAA.a(nrf_mesh_configure.c.obj)
                              examples/dfu/CMakeFiles/dfu_nrf52840_xxAA_s140_5.0.0-3.alpha.dir/__/__/mesh/serial/src/serial_handler_config.c.obj (nrf_mesh_configure_device_uuid_set)
mesh/core/libmesh_core_nrf52840_xxAA.a(event.c.obj)
                              examples/dfu/CMakeFiles/dfu_nrf52840_xxAA_s140_5.0.0-3.alpha.dir/__/__/mesh/access/src/access.c.obj (event_handle)
mesh/core/libmesh_core_nrf52840_xxAA.a(packet_buffer.c.obj)
                              examples/dfu/CMakeFiles/dfu_nrf52840_xxAA_s140_5.0.0-3.alpha.dir/__/__/mesh/serial/src/serial_bearer.c.obj (packet_buffer_max_packet_len_get)
mesh/core/libmesh_core_nrf52840_xxAA.a(fifo.c.obj)
                              mesh/core/libmesh_core_nrf52840_xxAA.a(internal_event.c.obj) (fifo_init)
mesh/core/libmesh_core_nrf52840_xxAA.a(net_state.c.obj)
                              examples/dfu/CMakeFiles/dfu_nrf52840_xxAA_s140_5.0.0-3.alpha.dir/__/__/mesh/serial/src/serial_handler_mesh.c.obj (net_state_reset)
mesh/core/libmesh_core_nrf52840_xxAA.a(mesh_flash.c.obj)
                              examples/dfu/CMakeFiles/dfu_nrf52840_xxAA_s140_5.0.0-3.alpha.dir/__/__/mesh/dfu/src/nrf_mesh_dfu.c.obj (mesh_flash_user_callback_set)
mesh/core/libmesh_core_nrf52840_xxAA.a(nrf_mesh_utils.c.obj)
                              examples/dfu/CMakeFiles/dfu_nrf52840_xxAA_s140_5.0.0-3.alpha.dir/__/__/mesh/access/src/device_state_manager.c.obj (nrf_mesh_address_type_get)
mesh/core/libmesh_core_nrf52840_xxAA.a(nrf_mesh.c.obj)
                              examples/dfu/CMakeFiles/dfu_nrf52840_xxAA_s140_5.0.0-3.alpha.dir/__/nrf_mesh_sdk.c.obj (nrf_mesh_init)
mesh/core/libmesh_core_nrf52840_xxAA.a(hal.c.obj)
                              examples/dfu/CMakeFiles/dfu_nrf52840_xxAA_s140_5.0.0-3.alpha.dir/__/__/mesh/serial/src/serial_handler_device.c.obj (hal_device_reset)
mesh/core/libmesh_core_nrf52840_xxAA.a(timer_scheduler.c.obj)
                              mesh/core/libmesh_core_nrf52840_xxAA.a(nrf_mesh.c.obj) (timer_sch_init)
mesh/core/libmesh_core_nrf52840_xxAA.a(timer.c.obj)
                              mesh/core/libmesh_core_nrf52840_xxAA.a(timer_scheduler.c.obj) (timer_order_cb)
mesh/core/libmesh_core_nrf52840_xxAA.a(ticker.c.obj)
                              mesh/core/libmesh_core_nrf52840_xxAA.a(nrf_mesh.c.obj) (ticker_init)
mesh/core/libmesh_core_nrf52840_xxAA.a(rand.c.obj)
                              examples/dfu/CMakeFiles/dfu_nrf52840_xxAA_s140_5.0.0-3.alpha.dir/__/__/mesh/dfu/src/nrf_mesh_dfu.c.obj (rand_prng_seed)
mesh/core/libmesh_core_nrf52840_xxAA.a(timeslot.c.obj)
                              mesh/core/libmesh_core_nrf52840_xxAA.a(nrf_mesh.c.obj) (timeslot_sd_event_handler)
mesh/core/libmesh_core_nrf52840_xxAA.a(bearer_event.c.obj)
                              mesh/core/libmesh_core_nrf52840_xxAA.a(nrf_mesh.c.obj) (bearer_event_init)
mesh/core/libmesh_core_nrf52840_xxAA.a(enc.c.obj)
                              examples/dfu/CMakeFiles/dfu_nrf52840_xxAA_s140_5.0.0-3.alpha.dir/__/__/mesh/prov/src/prov_utils.c.obj (enc_aes_cmac)
mesh/core/libmesh_core_nrf52840_xxAA.a(network.c.obj)
                              mesh/core/libmesh_core_nrf52840_xxAA.a(nrf_mesh.c.obj) (network_init)
mesh/core/libmesh_core_nrf52840_xxAA.a(msqueue.c.obj)
                              mesh/core/libmesh_core_nrf52840_xxAA.a(mesh_flash.c.obj) (msq_init)
mesh/core/libmesh_core_nrf52840_xxAA.a(nrf_mesh_keygen.c.obj)
                              examples/dfu/CMakeFiles/dfu_nrf52840_xxAA_s140_5.0.0-3.alpha.dir/__/__/mesh/access/src/device_state_manager.c.obj (nrf_mesh_keygen_aid)
mesh/core/libmesh_core_nrf52840_xxAA.a(log.c.obj)
                              examples/dfu/CMakeFiles/dfu_nrf52840_xxAA_s140_5.0.0-3.alpha.dir/src/main.c.obj (log_callback_rtt)
mesh/core/libmesh_core_nrf52840_xxAA.a(flash_manager.c.obj)
                              mesh/core/libmesh_core_nrf52840_xxAA.a(nrf_mesh.c.obj) (flash_manager_init)
mesh/core/libmesh_core_nrf52840_xxAA.a(ccm_soft.c.obj)
                              mesh/core/libmesh_core_nrf52840_xxAA.a(enc.c.obj) (ccm_soft_encrypt)
mesh/core/libmesh_core_nrf52840_xxAA.a(beacon.c.obj)
                              mesh/core/libmesh_core_nrf52840_xxAA.a(nrf_mesh.c.obj) (beacon_init)
mesh/core/libmesh_core_nrf52840_xxAA.a(flash_manager_internal.c.obj)
                              mesh/core/libmesh_core_nrf52840_xxAA.a(flash_manager.c.obj) (entry_get)
mesh/core/libmesh_core_nrf52840_xxAA.a(core_tx.c.obj)
                              mesh/core/libmesh_core_nrf52840_xxAA.a(nrf_mesh.c.obj) (core_tx_init)
mesh/core/libmesh_core_nrf52840_xxAA.a(net_beacon.c.obj)
                              mesh/core/libmesh_core_nrf52840_xxAA.a(network.c.obj) (net_beacon_init)
mesh/core/libmesh_core_nrf52840_xxAA.a(advertiser.c.obj)
                              mesh/core/libmesh_core_nrf52840_xxAA.a(nrf_mesh.c.obj) (advertiser_init)
mesh/core/libmesh_core_nrf52840_xxAA.a(bearer_handler.c.obj)
                              mesh/core/libmesh_core_nrf52840_xxAA.a(nrf_mesh.c.obj) (bearer_handler_init)
mesh/core/libmesh_core_nrf52840_xxAA.a(broadcast.c.obj)
                              examples/dfu/CMakeFiles/dfu_nrf52840_xxAA_s140_5.0.0-3.alpha.dir/__/__/mesh/dfu/src/nrf_mesh_dfu.c.obj (broadcast_send)
mesh/core/libmesh_core_nrf52840_xxAA.a(radio_config.c.obj)
                              mesh/core/libmesh_core_nrf52840_xxAA.a(broadcast.c.obj) (radio_config_reset)
mesh/core/libmesh_core_nrf52840_xxAA.a(scanner.c.obj)
                              mesh/core/libmesh_core_nrf52840_xxAA.a(bearer_handler.c.obj) (scanner_radio_start)
mesh/core/libmesh_core_nrf52840_xxAA.a(aes.c.obj)
                              mesh/core/libmesh_core_nrf52840_xxAA.a(enc.c.obj) (aes_encrypt)
mesh/core/libmesh_core_nrf52840_xxAA.a(msg_cache.c.obj)
                              mesh/core/libmesh_core_nrf52840_xxAA.a(nrf_mesh.c.obj) (msg_cache_init)
mesh/core/libmesh_core_nrf52840_xxAA.a(transport.c.obj)
                              mesh/core/libmesh_core_nrf52840_xxAA.a(nrf_mesh.c.obj) (transport_init)
mesh/core/libmesh_core_nrf52840_xxAA.a(flash_manager_defrag.c.obj)
                              mesh/core/libmesh_core_nrf52840_xxAA.a(flash_manager.c.obj) (flash_manager_defrag_init)
mesh/core/libmesh_core_nrf52840_xxAA.a(nrf_flash.c.obj)
                              mesh/core/libmesh_core_nrf52840_xxAA.a(mesh_flash.c.obj) (nrf_flash_erase)
mesh/core/libmesh_core_nrf52840_xxAA.a(packet_mgr.c.obj)
                              mesh/core/libmesh_core_nrf52840_xxAA.a(nrf_mesh.c.obj) (packet_mgr_init)
mesh/core/libmesh_core_nrf52840_xxAA.a(queue.c.obj)
                              mesh/core/libmesh_core_nrf52840_xxAA.a(bearer_event.c.obj) (queue_init)
mesh/core/libmesh_core_nrf52840_xxAA.a(aes_cmac.c.obj)
                              mesh/core/libmesh_core_nrf52840_xxAA.a(enc.c.obj) (aes_cmac)
mesh/core/libmesh_core_nrf52840_xxAA.a(replay_cache.c.obj)
                              mesh/core/libmesh_core_nrf52840_xxAA.a(transport.c.obj) (replay_cache_init)
mesh/core/libmesh_core_nrf52840_xxAA.a(filter_engine.c.obj)
                              mesh/core/libmesh_core_nrf52840_xxAA.a(scanner.c.obj) (fen_filters_apply)
external/rtt/librtt_nrf52840_xxAA.a(SEGGER_RTT.c.obj)
                              mesh/core/libmesh_core_nrf52840_xxAA.a(log.c.obj) (SEGGER_RTT_Write)
external/rtt/librtt_nrf52840_xxAA.a(SEGGER_RTT_printf.c.obj)
                              mesh/core/libmesh_core_nrf52840_xxAA.a(log.c.obj) (SEGGER_RTT_vprintf)
external/micro-ecc/libuECC_nrf52840_xxAA.a(uECC.c.obj)
                              examples/dfu/CMakeFiles/dfu_nrf52840_xxAA_s140_5.0.0-3.alpha.dir/__/__/mesh/prov/src/prov_utils.c.obj (uECC_secp256r1)
c:/a/gcc_arm/6/bin/../lib/gcc/arm-none-eabi/6.3.1/../../../../arm-none-eabi/lib/thumb/v7e-m/fpv4-sp/hard\libc_nano.a(lib_a-exit.o)
                              c:/a/gcc_arm/6/bin/../lib/gcc/arm-none-eabi/6.3.1/../../../../arm-none-eabi/lib/thumb/v7e-m/fpv4-sp/hard/crt0.o (exit)
c:/a/gcc_arm/6/bin/../lib/gcc/arm-none-eabi/6.3.1/../../../../arm-none-eabi/lib/thumb/v7e-m/fpv4-sp/hard\libc_nano.a(lib_a-impure.o)
                              c:/a/gcc_arm/6/bin/../lib/gcc/arm-none-eabi/6.3.1/../../../../arm-none-eabi/lib/thumb/v7e-m/fpv4-sp/hard\libc_nano.a(lib_a-exit.o) (_global_impure_ptr)
c:/a/gcc_arm/6/bin/../lib/gcc/arm-none-eabi/6.3.1/../../../../arm-none-eabi/lib/thumb/v7e-m/fpv4-sp/hard\libc_nano.a(lib_a-init.o)
                              c:/a/gcc_arm/6/bin/../lib/gcc/arm-none-eabi/6.3.1/../../../../arm-none-eabi/lib/thumb/v7e-m/fpv4-sp/hard/crt0.o (__libc_init_array)
c:/a/gcc_arm/6/bin/../lib/gcc/arm-none-eabi/6.3.1/../../../../arm-none-eabi/lib/thumb/v7e-m/fpv4-sp/hard\libc_nano.a(lib_a-malloc.o)
                              mesh/core/libmesh_core_nrf52840_xxAA.a(transport.c.obj) (malloc)
c:/a/gcc_arm/6/bin/../lib/gcc/arm-none-eabi/6.3.1/../../../../arm-none-eabi/lib/thumb/v7e-m/fpv4-sp/hard\libc_nano.a(lib_a-memcmp.o)
                              examples/dfu/CMakeFiles/dfu_nrf52840_xxAA_s140_5.0.0-3.alpha.dir/__/__/mesh/access/src/device_state_manager.c.obj (memcmp)
c:/a/gcc_arm/6/bin/../lib/gcc/arm-none-eabi/6.3.1/../../../../arm-none-eabi/lib/thumb/v7e-m/fpv4-sp/hard\libc_nano.a(lib_a-memcpy-stub.o)
                              examples/dfu/CMakeFiles/dfu_nrf52840_xxAA_s140_5.0.0-3.alpha.dir/__/__/mesh/access/src/access.c.obj (memcpy)
c:/a/gcc_arm/6/bin/../lib/gcc/arm-none-eabi/6.3.1/../../../../arm-none-eabi/lib/thumb/v7e-m/fpv4-sp/hard\libc_nano.a(lib_a-memset.o)
                              c:/a/gcc_arm/6/bin/../lib/gcc/arm-none-eabi/6.3.1/../../../../arm-none-eabi/lib/thumb/v7e-m/fpv4-sp/hard/crt0.o (memset)
c:/a/gcc_arm/6/bin/../lib/gcc/arm-none-eabi/6.3.1/../../../../arm-none-eabi/lib/thumb/v7e-m/fpv4-sp/hard\libc_nano.a(lib_a-nano-freer.o)
                              c:/a/gcc_arm/6/bin/../lib/gcc/arm-none-eabi/6.3.1/../../../../arm-none-eabi/lib/thumb/v7e-m/fpv4-sp/hard\libc_nano.a(lib_a-malloc.o) (_free_r)
c:/a/gcc_arm/6/bin/../lib/gcc/arm-none-eabi/6.3.1/../../../../arm-none-eabi/lib/thumb/v7e-m/fpv4-sp/hard\libc_nano.a(lib_a-nano-mallocr.o)
                              c:/a/gcc_arm/6/bin/../lib/gcc/arm-none-eabi/6.3.1/../../../../arm-none-eabi/lib/thumb/v7e-m/fpv4-sp/hard\libc_nano.a(lib_a-malloc.o) (_malloc_r)
c:/a/gcc_arm/6/bin/../lib/gcc/arm-none-eabi/6.3.1/../../../../arm-none-eabi/lib/thumb/v7e-m/fpv4-sp/hard\libc_nano.a(lib_a-sbrkr.o)
                              c:/a/gcc_arm/6/bin/../lib/gcc/arm-none-eabi/6.3.1/../../../../arm-none-eabi/lib/thumb/v7e-m/fpv4-sp/hard\libc_nano.a(lib_a-nano-mallocr.o) (_sbrk_r)
c:/a/gcc_arm/6/bin/../lib/gcc/arm-none-eabi/6.3.1/../../../../arm-none-eabi/lib/thumb/v7e-m/fpv4-sp/hard\libc_nano.a(lib_a-strcpy.o)
                              external/rtt/librtt_nrf52840_xxAA.a(SEGGER_RTT.c.obj) (strcpy)
c:/a/gcc_arm/6/bin/../lib/gcc/arm-none-eabi/6.3.1/../../../../arm-none-eabi/lib/thumb/v7e-m/fpv4-sp/hard\libc_nano.a(lib_a-strlen.o)
                              examples/dfu/CMakeFiles/dfu_nrf52840_xxAA_s140_5.0.0-3.alpha.dir/__/__/mesh/prov/src/prov_beacon.c.obj (strlen)
c:/a/gcc_arm/6/bin/../lib/gcc/arm-none-eabi/6.3.1/../../../../arm-none-eabi/lib/thumb/v7e-m/fpv4-sp/hard\libc_nano.a(lib_a-strrchr.o)
                              examples/dfu/CMakeFiles/dfu_nrf52840_xxAA_s140_5.0.0-3.alpha.dir/src/main.c.obj (strrchr)
c:/a/gcc_arm/6/bin/../lib/gcc/arm-none-eabi/6.3.1/../../../../arm-none-eabi/lib/thumb/v7e-m/fpv4-sp/hard\libc_nano.a(lib_a-mlock.o)
                              c:/a/gcc_arm/6/bin/../lib/gcc/arm-none-eabi/6.3.1/../../../../arm-none-eabi/lib/thumb/v7e-m/fpv4-sp/hard\libc_nano.a(lib_a-nano-freer.o) (__malloc_lock)
c:/a/gcc_arm/6/bin/../lib/gcc/arm-none-eabi/6.3.1/../../../../arm-none-eabi/lib/thumb/v7e-m/fpv4-sp/hard\libc_nano.a(lib_a-reent.o)
                              c:/a/gcc_arm/6/bin/../lib/gcc/arm-none-eabi/6.3.1/../../../../arm-none-eabi/lib/thumb/v7e-m/fpv4-sp/hard\libc_nano.a(lib_a-sbrkr.o) (errno)
c:/a/gcc_arm/6/bin/../lib/gcc/arm-none-eabi/6.3.1/../../../../arm-none-eabi/lib/thumb/v7e-m/fpv4-sp/hard\libc_nano.a(lib_a-strchr.o)
                              c:/a/gcc_arm/6/bin/../lib/gcc/arm-none-eabi/6.3.1/../../../../arm-none-eabi/lib/thumb/v7e-m/fpv4-sp/hard\libc_nano.a(lib_a-strrchr.o) (strchr)
c:/a/gcc_arm/6/bin/../lib/gcc/arm-none-eabi/6.3.1/../../../../arm-none-eabi/lib/thumb/v7e-m/fpv4-sp/hard\libnosys.a(sbrk.o)
                              c:/a/gcc_arm/6/bin/../lib/gcc/arm-none-eabi/6.3.1/../../../../arm-none-eabi/lib/thumb/v7e-m/fpv4-sp/hard\libc_nano.a(lib_a-sbrkr.o) (_sbrk)
c:/a/gcc_arm/6/bin/../lib/gcc/arm-none-eabi/6.3.1/../../../../arm-none-eabi/lib/thumb/v7e-m/fpv4-sp/hard\libnosys.a(_exit.o)
                              c:/a/gcc_arm/6/bin/../lib/gcc/arm-none-eabi/6.3.1/../../../../arm-none-eabi/lib/thumb/v7e-m/fpv4-sp/hard\libc_nano.a(lib_a-exit.o) (_exit)

Allocating common symbols
Common symbol       size              file

nrf_nvic_state      0xc               examples/dfu/CMakeFiles/dfu_nrf52840_xxAA_s140_5.0.0-3.alpha.dir/__/nrf_mesh_sdk.c.obj
bank_addr           0x4               examples/dfu/CMakeFiles/dfu_nrf52840_xxAA_s140_5.0.0-3.alpha.dir/src/main.c.obj
rom_length          0x4               examples/dfu/CMakeFiles/dfu_nrf52840_xxAA_s140_5.0.0-3.alpha.dir/src/main.c.obj
m_cmd_handler       0x4               examples/dfu/CMakeFiles/dfu_nrf52840_xxAA_s140_5.0.0-3.alpha.dir/__/__/mesh/dfu/src/nrf_mesh_dfu.c.obj
errno               0x4               c:/a/gcc_arm/6/bin/../lib/gcc/arm-none-eabi/6.3.1/../../../../arm-none-eabi/lib/thumb/v7e-m/fpv4-sp/hard\libc_nano.a(lib_a-reent.o)
m_assertion_handler
                    0x4               mesh/core/libmesh_core_nrf52840_xxAA.a(nrf_mesh.c.obj)
_SEGGER_RTT         0x78              external/rtt/librtt_nrf52840_xxAA.a(SEGGER_RTT.c.obj)

Discarded input sections

 .text          0x00000000        0x0 c:/a/gcc_arm/6/bin/../lib/gcc/arm-none-eabi/6.3.1/thumb/v7e-m/fpv4-sp/hard/crti.o
 .data          0x00000000        0x0 c:/a/gcc_arm/6/bin/../lib/gcc/arm-none-eabi/6.3.1/thumb/v7e-m/fpv4-sp/hard/crti.o
 .bss           0x00000000        0x0 c:/a/gcc_arm/6/bin/../lib/gcc/arm-none-eabi/6.3.1/thumb/v7e-m/fpv4-sp/hard/crti.o
 .data          0x00000000        0x4 c:/a/gcc_arm/6/bin/../lib/gcc/arm-none-eabi/6.3.1/thumb/v7e-m/fpv4-sp/hard/crtbegin.o
 .data          0x00000000        0x0 c:/a/gcc_arm/6/bin/../lib/gcc/arm-none-eabi/6.3.1/../../../../arm-none-eabi/lib/thumb/v7e-m/fpv4-sp/hard/crt0.o
 .bss           0x00000000        0x0 c:/a/gcc_arm/6/bin/../lib/gcc/arm-none-eabi/6.3.1/../../../../arm-none-eabi/lib/thumb/v7e-m/fpv4-sp/hard/crt0.o
 .ARM.extab     0x00000000        0x0 c:/a/gcc_arm/6/bin/../lib/gcc/arm-none-eabi/6.3.1/../../../../arm-none-eabi/lib/thumb/v7e-m/fpv4-sp/hard/crt0.o
 .text          0x00000000        0x0 examples/dfu/CMakeFiles/dfu_nrf52840_xxAA_s140_5.0.0-3.alpha.dir/src/main.c.obj
 .data          0x00000000        0x0 examples/dfu/CMakeFiles/dfu_nrf52840_xxAA_s140_5.0.0-3.alpha.dir/src/main.c.obj
 .bss           0x00000000        0x0 examples/dfu/CMakeFiles/dfu_nrf52840_xxAA_s140_5.0.0-3.alpha.dir/src/main.c.obj
 .text          0x00000000        0x0 examples/dfu/CMakeFiles/dfu_nrf52840_xxAA_s140_5.0.0-3.alpha.dir/__/nrf_mesh_sdk.c.obj
 .data          0x00000000        0x0 examples/dfu/CMakeFiles/dfu_nrf52840_xxAA_s140_5.0.0-3.alpha.dir/__/nrf_mesh_sdk.c.obj
 .bss           0x00000000        0x0 examples/dfu/CMakeFiles/dfu_nrf52840_xxAA_s140_5.0.0-3.alpha.dir/__/nrf_mesh_sdk.c.obj
 .text.mesh_softdevice_setup
                0x00000000      0x1b4 examples/dfu/CMakeFiles/dfu_nrf52840_xxAA_s140_5.0.0-3.alpha.dir/__/nrf_mesh_sdk.c.obj
 .text          0x00000000        0x0 examples/dfu/CMakeFiles/dfu_nrf52840_xxAA_s140_5.0.0-3.alpha.dir/__/__/mesh/access/src/access_publish.c.obj
 .data          0x00000000        0x0 examples/dfu/CMakeFiles/dfu_nrf52840_xxAA_s140_5.0.0-3.alpha.dir/__/__/mesh/access/src/access_publish.c.obj
 .bss           0x00000000        0x0 examples/dfu/CMakeFiles/dfu_nrf52840_xxAA_s140_5.0.0-3.alpha.dir/__/__/mesh/access/src/access_publish.c.obj
 .text.publish_timer_tick
                0x00000000       0xd0 examples/dfu/CMakeFiles/dfu_nrf52840_xxAA_s140_5.0.0-3.alpha.dir/__/__/mesh/access/src/access_publish.c.obj
 .text.access_publish_init
                0x00000000       0x38 examples/dfu/CMakeFiles/dfu_nrf52840_xxAA_s140_5.0.0-3.alpha.dir/__/__/mesh/access/src/access_publish.c.obj
 .text          0x00000000        0x0 examples/dfu/CMakeFiles/dfu_nrf52840_xxAA_s140_5.0.0-3.alpha.dir/__/__/mesh/access/src/access.c.obj
 .data          0x00000000        0x0 examples/dfu/CMakeFiles/dfu_nrf52840_xxAA_s140_5.0.0-3.alpha.dir/__/__/mesh/access/src/access.c.obj
 .bss           0x00000000        0x0 examples/dfu/CMakeFiles/dfu_nrf52840_xxAA_s140_5.0.0-3.alpha.dir/__/__/mesh/access/src/access.c.obj
 .text.flash_invalidate_complete
                0x00000000       0x14 examples/dfu/CMakeFiles/dfu_nrf52840_xxAA_s140_5.0.0-3.alpha.dir/__/__/mesh/access/src/access.c.obj
 .text.handle_incoming
                0x00000000      0x1b8 examples/dfu/CMakeFiles/dfu_nrf52840_xxAA_s140_5.0.0-3.alpha.dir/__/__/mesh/access/src/access.c.obj
 .text.mesh_evt_cb
                0x00000000      0x15c examples/dfu/CMakeFiles/dfu_nrf52840_xxAA_s140_5.0.0-3.alpha.dir/__/__/mesh/access/src/access.c.obj
 .text.add_flash_manager
                0x00000000       0x58 examples/dfu/CMakeFiles/dfu_nrf52840_xxAA_s140_5.0.0-3.alpha.dir/__/__/mesh/access/src/access.c.obj
 .text.flash_write_complete
                0x00000000       0x58 examples/dfu/CMakeFiles/dfu_nrf52840_xxAA_s140_5.0.0-3.alpha.dir/__/__/mesh/access/src/access.c.obj
 .text.flash_remove_complete
                0x00000000       0xb0 examples/dfu/CMakeFiles/dfu_nrf52840_xxAA_s140_5.0.0-3.alpha.dir/__/__/mesh/access/src/access.c.obj
 .text.access_flash_config_load
                0x00000000      0x2d8 examples/dfu/CMakeFiles/dfu_nrf52840_xxAA_s140_5.0.0-3.alpha.dir/__/__/mesh/access/src/access.c.obj
 .text.access_init
                0x00000000       0xb4 examples/dfu/CMakeFiles/dfu_nrf52840_xxAA_s140_5.0.0-3.alpha.dir/__/__/mesh/access/src/access.c.obj
 .text.access_model_add
                0x00000000      0x1f4 examples/dfu/CMakeFiles/dfu_nrf52840_xxAA_s140_5.0.0-3.alpha.dir/__/__/mesh/access/src/access.c.obj
 .text.access_model_publish
                0x00000000      0x2d4 examples/dfu/CMakeFiles/dfu_nrf52840_xxAA_s140_5.0.0-3.alpha.dir/__/__/mesh/access/src/access.c.obj
 .text.access_model_reply
                0x00000000      0x2d0 examples/dfu/CMakeFiles/dfu_nrf52840_xxAA_s140_5.0.0-3.alpha.dir/__/__/mesh/access/src/access.c.obj
 .text.access_model_subscription_list_alloc
                0x00000000       0x60 examples/dfu/CMakeFiles/dfu_nrf52840_xxAA_s140_5.0.0-3.alpha.dir/__/__/mesh/access/src/access.c.obj
 .text.access_model_subscription_lists_share
                0x00000000       0x60 examples/dfu/CMakeFiles/dfu_nrf52840_xxAA_s140_5.0.0-3.alpha.dir/__/__/mesh/access/src/access.c.obj
 .text.access_default_ttl_set
                0x00000000       0x10 examples/dfu/CMakeFiles/dfu_nrf52840_xxAA_s140_5.0.0-3.alpha.dir/__/__/mesh/access/src/access.c.obj
 .text.access_default_ttl_get
                0x00000000        0xc examples/dfu/CMakeFiles/dfu_nrf52840_xxAA_s140_5.0.0-3.alpha.dir/__/__/mesh/access/src/access.c.obj
 .text.access_model_p_args_get
                0x00000000       0x2c examples/dfu/CMakeFiles/dfu_nrf52840_xxAA_s140_5.0.0-3.alpha.dir/__/__/mesh/access/src/access.c.obj
 .bss.m_evt_handler
                0x00000000        0x8 examples/dfu/CMakeFiles/dfu_nrf52840_xxAA_s140_5.0.0-3.alpha.dir/__/__/mesh/access/src/access.c.obj
 .data.flash_add_mem_available_struct.10546
                0x00000000       0x10 examples/dfu/CMakeFiles/dfu_nrf52840_xxAA_s140_5.0.0-3.alpha.dir/__/__/mesh/access/src/access.c.obj
 .data.m_default_ttl
                0x00000000        0x1 examples/dfu/CMakeFiles/dfu_nrf52840_xxAA_s140_5.0.0-3.alpha.dir/__/__/mesh/access/src/access.c.obj
 .rodata.access_model_publish.str1.4
                0x00000000       0x13 examples/dfu/CMakeFiles/dfu_nrf52840_xxAA_s140_5.0.0-3.alpha.dir/__/__/mesh/access/src/access.c.obj
 .rodata.mesh_evt_cb.str1.4
                0x00000000       0x2f examples/dfu/CMakeFiles/dfu_nrf52840_xxAA_s140_5.0.0-3.alpha.dir/__/__/mesh/access/src/access.c.obj
 .rodata.multiply_de_bruijn_bit_position.9295
                0x00000000       0x20 examples/dfu/CMakeFiles/dfu_nrf52840_xxAA_s140_5.0.0-3.alpha.dir/__/__/mesh/access/src/access.c.obj
 .text          0x00000000        0x0 examples/dfu/CMakeFiles/dfu_nrf52840_xxAA_s140_5.0.0-3.alpha.dir/__/__/mesh/access/src/access_reliable.c.obj
 .data          0x00000000        0x0 examples/dfu/CMakeFiles/dfu_nrf52840_xxAA_s140_5.0.0-3.alpha.dir/__/__/mesh/access/src/access_reliable.c.obj
 .bss           0x00000000        0x0 examples/dfu/CMakeFiles/dfu_nrf52840_xxAA_s140_5.0.0-3.alpha.dir/__/__/mesh/access/src/access_reliable.c.obj
 .text.remove_and_reschedule
                0x00000000      0x108 examples/dfu/CMakeFiles/dfu_nrf52840_xxAA_s140_5.0.0-3.alpha.dir/__/__/mesh/access/src/access_reliable.c.obj
 .text.reliable_timer_cb
                0x00000000      0x1dc examples/dfu/CMakeFiles/dfu_nrf52840_xxAA_s140_5.0.0-3.alpha.dir/__/__/mesh/access/src/access_reliable.c.obj
 .text.access_reliable_message_rx_cb
                0x00000000       0x8c examples/dfu/CMakeFiles/dfu_nrf52840_xxAA_s140_5.0.0-3.alpha.dir/__/__/mesh/access/src/access_reliable.c.obj
 .text.access_reliable_init
                0x00000000       0x1c examples/dfu/CMakeFiles/dfu_nrf52840_xxAA_s140_5.0.0-3.alpha.dir/__/__/mesh/access/src/access_reliable.c.obj
 .text.access_model_reliable_cancel
                0x00000000       0x50 examples/dfu/CMakeFiles/dfu_nrf52840_xxAA_s140_5.0.0-3.alpha.dir/__/__/mesh/access/src/access_reliable.c.obj
 .text.access_model_reliable_publish
                0x00000000      0x1d0 examples/dfu/CMakeFiles/dfu_nrf52840_xxAA_s140_5.0.0-3.alpha.dir/__/__/mesh/access/src/access_reliable.c.obj
 .text          0x00000000        0x0 examples/dfu/CMakeFiles/dfu_nrf52840_xxAA_s140_5.0.0-3.alpha.dir/__/__/mesh/access/src/device_state_manager.c.obj
 .data          0x00000000        0x0 examples/dfu/CMakeFiles/dfu_nrf52840_xxAA_s140_5.0.0-3.alpha.dir/__/__/mesh/access/src/device_state_manager.c.obj
 .bss           0x00000000        0x0 examples/dfu/CMakeFiles/dfu_nrf52840_xxAA_s140_5.0.0-3.alpha.dir/__/__/mesh/access/src/device_state_manager.c.obj
 .text.build_flash_area
                0x00000000       0x90 examples/dfu/CMakeFiles/dfu_nrf52840_xxAA_s140_5.0.0-3.alpha.dir/__/__/mesh/access/src/device_state_manager.c.obj
 .text.flash_invalidate_complete
                0x00000000       0x5c examples/dfu/CMakeFiles/dfu_nrf52840_xxAA_s140_5.0.0-3.alpha.dir/__/__/mesh/access/src/device_state_manager.c.obj
 .text.flash_write_complete
                0x00000000       0x5c examples/dfu/CMakeFiles/dfu_nrf52840_xxAA_s140_5.0.0-3.alpha.dir/__/__/mesh/access/src/device_state_manager.c.obj
 .text.flash_update_all
                0x00000000      0x144 examples/dfu/CMakeFiles/dfu_nrf52840_xxAA_s140_5.0.0-3.alpha.dir/__/__/mesh/access/src/device_state_manager.c.obj
 .text.flash_remove_complete
                0x00000000       0x90 examples/dfu/CMakeFiles/dfu_nrf52840_xxAA_s140_5.0.0-3.alpha.dir/__/__/mesh/access/src/device_state_manager.c.obj
 .text.dsm_init
                0x00000000       0xa8 examples/dfu/CMakeFiles/dfu_nrf52840_xxAA_s140_5.0.0-3.alpha.dir/__/__/mesh/access/src/device_state_manager.c.obj
 .text.dsm_flash_config_load
                0x00000000      0x190 examples/dfu/CMakeFiles/dfu_nrf52840_xxAA_s140_5.0.0-3.alpha.dir/__/__/mesh/access/src/device_state_manager.c.obj
 .text.dsm_has_unflashed_data
                0x00000000       0x58 examples/dfu/CMakeFiles/dfu_nrf52840_xxAA_s140_5.0.0-3.alpha.dir/__/__/mesh/access/src/device_state_manager.c.obj
 .text.dsm_flash_area_get
                0x00000000        0xc examples/dfu/CMakeFiles/dfu_nrf52840_xxAA_s140_5.0.0-3.alpha.dir/__/__/mesh/access/src/device_state_manager.c.obj
 .text.dsm_address_publish_add_handle
                0x00000000       0x54 examples/dfu/CMakeFiles/dfu_nrf52840_xxAA_s140_5.0.0-3.alpha.dir/__/__/mesh/access/src/device_state_manager.c.obj
 .text.dsm_address_subscription_add_handle
                0x00000000       0x54 examples/dfu/CMakeFiles/dfu_nrf52840_xxAA_s140_5.0.0-3.alpha.dir/__/__/mesh/access/src/device_state_manager.c.obj
 .text.dsm_address_subscription_count_get
                0x00000000       0x80 examples/dfu/CMakeFiles/dfu_nrf52840_xxAA_s140_5.0.0-3.alpha.dir/__/__/mesh/access/src/device_state_manager.c.obj
 .text.dsm_net_key_index_to_subnet_handle
                0x00000000       0x6c examples/dfu/CMakeFiles/dfu_nrf52840_xxAA_s140_5.0.0-3.alpha.dir/__/__/mesh/access/src/device_state_manager.c.obj
 .text.dsm_subnet_handle_to_netkey_index
                0x00000000       0x34 examples/dfu/CMakeFiles/dfu_nrf52840_xxAA_s140_5.0.0-3.alpha.dir/__/__/mesh/access/src/device_state_manager.c.obj
 .text.dsm_app_key_index_to_appkey_handle
                0x00000000       0xc8 examples/dfu/CMakeFiles/dfu_nrf52840_xxAA_s140_5.0.0-3.alpha.dir/__/__/mesh/access/src/device_state_manager.c.obj
 .text.dsm_appkey_handle_to_appkey_index
                0x00000000       0x34 examples/dfu/CMakeFiles/dfu_nrf52840_xxAA_s140_5.0.0-3.alpha.dir/__/__/mesh/access/src/device_state_manager.c.obj
 .text.dsm_devkey_handle_get
                0x00000000       0x3c examples/dfu/CMakeFiles/dfu_nrf52840_xxAA_s140_5.0.0-3.alpha.dir/__/__/mesh/access/src/device_state_manager.c.obj
 .text.dsm_beacon_secmat_get
                0x00000000       0x34 examples/dfu/CMakeFiles/dfu_nrf52840_xxAA_s140_5.0.0-3.alpha.dir/__/__/mesh/access/src/device_state_manager.c.obj
 .text.dsm_proxy_identity_get
                0x00000000        0x4 examples/dfu/CMakeFiles/dfu_nrf52840_xxAA_s140_5.0.0-3.alpha.dir/__/__/mesh/access/src/device_state_manager.c.obj
 .data.mem_listener.10824
                0x00000000       0x10 examples/dfu/CMakeFiles/dfu_nrf52840_xxAA_s140_5.0.0-3.alpha.dir/__/__/mesh/access/src/device_state_manager.c.obj
 .text          0x00000000        0x0 examples/dfu/CMakeFiles/dfu_nrf52840_xxAA_s140_5.0.0-3.alpha.dir/__/__/mesh/serial/src/serial_uart.c.obj
 .data          0x00000000        0x0 examples/dfu/CMakeFiles/dfu_nrf52840_xxAA_s140_5.0.0-3.alpha.dir/__/__/mesh/serial/src/serial_uart.c.obj
 .bss           0x00000000        0x0 examples/dfu/CMakeFiles/dfu_nrf52840_xxAA_s140_5.0.0-3.alpha.dir/__/__/mesh/serial/src/serial_uart.c.obj
 .text          0x00000000        0x0 examples/dfu/CMakeFiles/dfu_nrf52840_xxAA_s140_5.0.0-3.alpha.dir/__/__/mesh/serial/src/serial_bearer.c.obj
 .data          0x00000000        0x0 examples/dfu/CMakeFiles/dfu_nrf52840_xxAA_s140_5.0.0-3.alpha.dir/__/__/mesh/serial/src/serial_bearer.c.obj
 .bss           0x00000000        0x0 examples/dfu/CMakeFiles/dfu_nrf52840_xxAA_s140_5.0.0-3.alpha.dir/__/__/mesh/serial/src/serial_bearer.c.obj
 .text.serial_bearer_packet_buffer_get
                0x00000000       0x28 examples/dfu/CMakeFiles/dfu_nrf52840_xxAA_s140_5.0.0-3.alpha.dir/__/__/mesh/serial/src/serial_bearer.c.obj
 .text.serial_bearer_rx_pending
                0x00000000        0xc examples/dfu/CMakeFiles/dfu_nrf52840_xxAA_s140_5.0.0-3.alpha.dir/__/__/mesh/serial/src/serial_bearer.c.obj
 .text          0x00000000        0x0 examples/dfu/CMakeFiles/dfu_nrf52840_xxAA_s140_5.0.0-3.alpha.dir/__/__/mesh/serial/src/serial_handler_common.c.obj
 .data          0x00000000        0x0 examples/dfu/CMakeFiles/dfu_nrf52840_xxAA_s140_5.0.0-3.alpha.dir/__/__/mesh/serial/src/serial_handler_common.c.obj
 .bss           0x00000000        0x0 examples/dfu/CMakeFiles/dfu_nrf52840_xxAA_s140_5.0.0-3.alpha.dir/__/__/mesh/serial/src/serial_handler_common.c.obj
 .text          0x00000000        0x0 examples/dfu/CMakeFiles/dfu_nrf52840_xxAA_s140_5.0.0-3.alpha.dir/__/__/mesh/serial/src/serial_handler_access.c.obj
 .data          0x00000000        0x0 examples/dfu/CMakeFiles/dfu_nrf52840_xxAA_s140_5.0.0-3.alpha.dir/__/__/mesh/serial/src/serial_handler_access.c.obj
 .bss           0x00000000        0x0 examples/dfu/CMakeFiles/dfu_nrf52840_xxAA_s140_5.0.0-3.alpha.dir/__/__/mesh/serial/src/serial_handler_access.c.obj
 .text          0x00000000        0x0 examples/dfu/CMakeFiles/dfu_nrf52840_xxAA_s140_5.0.0-3.alpha.dir/__/__/mesh/serial/src/serial_handler_config.c.obj
 .data          0x00000000        0x0 examples/dfu/CMakeFiles/dfu_nrf52840_xxAA_s140_5.0.0-3.alpha.dir/__/__/mesh/serial/src/serial_handler_config.c.obj
 .bss           0x00000000        0x0 examples/dfu/CMakeFiles/dfu_nrf52840_xxAA_s140_5.0.0-3.alpha.dir/__/__/mesh/serial/src/serial_handler_config.c.obj
 .text          0x00000000        0x0 examples/dfu/CMakeFiles/dfu_nrf52840_xxAA_s140_5.0.0-3.alpha.dir/__/__/mesh/serial/src/serial_handler_openmesh.c.obj
 .data          0x00000000        0x0 examples/dfu/CMakeFiles/dfu_nrf52840_xxAA_s140_5.0.0-3.alpha.dir/__/__/mesh/serial/src/serial_handler_openmesh.c.obj
 .bss           0x00000000        0x0 examples/dfu/CMakeFiles/dfu_nrf52840_xxAA_s140_5.0.0-3.alpha.dir/__/__/mesh/serial/src/serial_handler_openmesh.c.obj
 .text          0x00000000        0x0 examples/dfu/CMakeFiles/dfu_nrf52840_xxAA_s140_5.0.0-3.alpha.dir/__/__/mesh/serial/src/serial.c.obj
 .data          0x00000000        0x0 examples/dfu/CMakeFiles/dfu_nrf52840_xxAA_s140_5.0.0-3.alpha.dir/__/__/mesh/serial/src/serial.c.obj
 .bss           0x00000000        0x0 examples/dfu/CMakeFiles/dfu_nrf52840_xxAA_s140_5.0.0-3.alpha.dir/__/__/mesh/serial/src/serial.c.obj
 .text          0x00000000        0x0 examples/dfu/CMakeFiles/dfu_nrf52840_xxAA_s140_5.0.0-3.alpha.dir/__/__/mesh/serial/src/serial_handler_prov.c.obj
 .data          0x00000000        0x0 examples/dfu/CMakeFiles/dfu_nrf52840_xxAA_s140_5.0.0-3.alpha.dir/__/__/mesh/serial/src/serial_handler_prov.c.obj
 .bss           0x00000000        0x0 examples/dfu/CMakeFiles/dfu_nrf52840_xxAA_s140_5.0.0-3.alpha.dir/__/__/mesh/serial/src/serial_handler_prov.c.obj
 .text.serial_handler_prov_context_get
                0x00000000       0x1c examples/dfu/CMakeFiles/dfu_nrf52840_xxAA_s140_5.0.0-3.alpha.dir/__/__/mesh/serial/src/serial_handler_prov.c.obj
 .text.serial_handler_prov_keys_get
                0x00000000       0x14 examples/dfu/CMakeFiles/dfu_nrf52840_xxAA_s140_5.0.0-3.alpha.dir/__/__/mesh/serial/src/serial_handler_prov.c.obj
 .text.serial_handler_prov_oob_caps_get
                0x00000000        0xc examples/dfu/CMakeFiles/dfu_nrf52840_xxAA_s140_5.0.0-3.alpha.dir/__/__/mesh/serial/src/serial_handler_prov.c.obj
 .text          0x00000000        0x0 examples/dfu/CMakeFiles/dfu_nrf52840_xxAA_s140_5.0.0-3.alpha.dir/__/__/mesh/serial/src/serial_handler_dfu.c.obj
 .data          0x00000000        0x0 examples/dfu/CMakeFiles/dfu_nrf52840_xxAA_s140_5.0.0-3.alpha.dir/__/__/mesh/serial/src/serial_handler_dfu.c.obj
 .bss           0x00000000        0x0 examples/dfu/CMakeFiles/dfu_nrf52840_xxAA_s140_5.0.0-3.alpha.dir/__/__/mesh/serial/src/serial_handler_dfu.c.obj
 .text          0x00000000        0x0 examples/dfu/CMakeFiles/dfu_nrf52840_xxAA_s140_5.0.0-3.alpha.dir/__/__/mesh/serial/src/serial_handler_mesh.c.obj
 .data          0x00000000        0x0 examples/dfu/CMakeFiles/dfu_nrf52840_xxAA_s140_5.0.0-3.alpha.dir/__/__/mesh/serial/src/serial_handler_mesh.c.obj
 .bss           0x00000000        0x0 examples/dfu/CMakeFiles/dfu_nrf52840_xxAA_s140_5.0.0-3.alpha.dir/__/__/mesh/serial/src/serial_handler_mesh.c.obj
 .text          0x00000000        0x0 examples/dfu/CMakeFiles/dfu_nrf52840_xxAA_s140_5.0.0-3.alpha.dir/__/__/mesh/serial/src/serial_handler_models.c.obj
 .data          0x00000000        0x0 examples/dfu/CMakeFiles/dfu_nrf52840_xxAA_s140_5.0.0-3.alpha.dir/__/__/mesh/serial/src/serial_handler_models.c.obj
 .bss           0x00000000        0x0 examples/dfu/CMakeFiles/dfu_nrf52840_xxAA_s140_5.0.0-3.alpha.dir/__/__/mesh/serial/src/serial_handler_models.c.obj
 .text.serial_handler_models_register
                0x00000000       0x38 examples/dfu/CMakeFiles/dfu_nrf52840_xxAA_s140_5.0.0-3.alpha.dir/__/__/mesh/serial/src/serial_handler_models.c.obj
 .text          0x00000000        0x0 examples/dfu/CMakeFiles/dfu_nrf52840_xxAA_s140_5.0.0-3.alpha.dir/__/__/mesh/serial/src/serial_handler_device.c.obj
 .data          0x00000000        0x0 examples/dfu/CMakeFiles/dfu_nrf52840_xxAA_s140_5.0.0-3.alpha.dir/__/__/mesh/serial/src/serial_handler_device.c.obj
 .bss           0x00000000        0x0 examples/dfu/CMakeFiles/dfu_nrf52840_xxAA_s140_5.0.0-3.alpha.dir/__/__/mesh/serial/src/serial_handler_device.c.obj
 .text          0x00000000        0x0 examples/dfu/CMakeFiles/dfu_nrf52840_xxAA_s140_5.0.0-3.alpha.dir/__/__/mesh/serial/src/nrf_mesh_serial.c.obj
 .data          0x00000000        0x0 examples/dfu/CMakeFiles/dfu_nrf52840_xxAA_s140_5.0.0-3.alpha.dir/__/__/mesh/serial/src/nrf_mesh_serial.c.obj
 .bss           0x00000000        0x0 examples/dfu/CMakeFiles/dfu_nrf52840_xxAA_s140_5.0.0-3.alpha.dir/__/__/mesh/serial/src/nrf_mesh_serial.c.obj
 .text.nrf_mesh_serial_state_get
                0x00000000        0x4 examples/dfu/CMakeFiles/dfu_nrf52840_xxAA_s140_5.0.0-3.alpha.dir/__/__/mesh/serial/src/nrf_mesh_serial.c.obj
 .text.nrf_mesh_serial_tx
                0x00000000       0x60 examples/dfu/CMakeFiles/dfu_nrf52840_xxAA_s140_5.0.0-3.alpha.dir/__/__/mesh/serial/src/nrf_mesh_serial.c.obj
 .text          0x00000000        0x0 examples/dfu/CMakeFiles/dfu_nrf52840_xxAA_s140_5.0.0-3.alpha.dir/__/__/mesh/serial/src/serial_handler_app.c.obj
 .data          0x00000000        0x0 examples/dfu/CMakeFiles/dfu_nrf52840_xxAA_s140_5.0.0-3.alpha.dir/__/__/mesh/serial/src/serial_handler_app.c.obj
 .bss           0x00000000        0x0 examples/dfu/CMakeFiles/dfu_nrf52840_xxAA_s140_5.0.0-3.alpha.dir/__/__/mesh/serial/src/serial_handler_app.c.obj
 .text          0x00000000        0x0 examples/dfu/CMakeFiles/dfu_nrf52840_xxAA_s140_5.0.0-3.alpha.dir/__/__/mesh/prov/src/prov_provisioner.c.obj
 .data          0x00000000        0x0 examples/dfu/CMakeFiles/dfu_nrf52840_xxAA_s140_5.0.0-3.alpha.dir/__/__/mesh/prov/src/prov_provisioner.c.obj
 .bss           0x00000000        0x0 examples/dfu/CMakeFiles/dfu_nrf52840_xxAA_s140_5.0.0-3.alpha.dir/__/__/mesh/prov/src/prov_provisioner.c.obj
 .text.prov_provisioner_oob_pubkey
                0x00000000       0x38 examples/dfu/CMakeFiles/dfu_nrf52840_xxAA_s140_5.0.0-3.alpha.dir/__/__/mesh/prov/src/prov_provisioner.c.obj
 .text          0x00000000        0x0 examples/dfu/CMakeFiles/dfu_nrf52840_xxAA_s140_5.0.0-3.alpha.dir/__/__/mesh/prov/src/prov_provisionee.c.obj
 .data          0x00000000        0x0 examples/dfu/CMakeFiles/dfu_nrf52840_xxAA_s140_5.0.0-3.alpha.dir/__/__/mesh/prov/src/prov_provisionee.c.obj
 .bss           0x00000000        0x0 examples/dfu/CMakeFiles/dfu_nrf52840_xxAA_s140_5.0.0-3.alpha.dir/__/__/mesh/prov/src/prov_provisionee.c.obj
 .text          0x00000000        0x0 examples/dfu/CMakeFiles/dfu_nrf52840_xxAA_s140_5.0.0-3.alpha.dir/__/__/mesh/prov/src/nrf_mesh_prov.c.obj
 .data          0x00000000        0x0 examples/dfu/CMakeFiles/dfu_nrf52840_xxAA_s140_5.0.0-3.alpha.dir/__/__/mesh/prov/src/nrf_mesh_prov.c.obj
 .bss           0x00000000        0x0 examples/dfu/CMakeFiles/dfu_nrf52840_xxAA_s140_5.0.0-3.alpha.dir/__/__/mesh/prov/src/nrf_mesh_prov.c.obj
 .text.nrf_mesh_prov_pubkey_provide
                0x00000000       0x10 examples/dfu/CMakeFiles/dfu_nrf52840_xxAA_s140_5.0.0-3.alpha.dir/__/__/mesh/prov/src/nrf_mesh_prov.c.obj
 .text          0x00000000        0x0 examples/dfu/CMakeFiles/dfu_nrf52840_xxAA_s140_5.0.0-3.alpha.dir/__/__/mesh/prov/src/provisioning.c.obj
 .data          0x00000000        0x0 examples/dfu/CMakeFiles/dfu_nrf52840_xxAA_s140_5.0.0-3.alpha.dir/__/__/mesh/prov/src/provisioning.c.obj
 .bss           0x00000000        0x0 examples/dfu/CMakeFiles/dfu_nrf52840_xxAA_s140_5.0.0-3.alpha.dir/__/__/mesh/prov/src/provisioning.c.obj
 .text.prov_listen_stop
                0x00000000        0x8 examples/dfu/CMakeFiles/dfu_nrf52840_xxAA_s140_5.0.0-3.alpha.dir/__/__/mesh/prov/src/provisioning.c.obj
 .text.prov_tx  0x00000000       0x50 examples/dfu/CMakeFiles/dfu_nrf52840_xxAA_s140_5.0.0-3.alpha.dir/__/__/mesh/prov/src/provisioning.c.obj
 .text          0x00000000        0x0 examples/dfu/CMakeFiles/dfu_nrf52840_xxAA_s140_5.0.0-3.alpha.dir/__/__/mesh/prov/src/prov_beacon.c.obj
 .data          0x00000000        0x0 examples/dfu/CMakeFiles/dfu_nrf52840_xxAA_s140_5.0.0-3.alpha.dir/__/__/mesh/prov/src/prov_beacon.c.obj
 .bss           0x00000000        0x0 examples/dfu/CMakeFiles/dfu_nrf52840_xxAA_s140_5.0.0-3.alpha.dir/__/__/mesh/prov/src/prov_beacon.c.obj
 .text.prov_beacon_unprov_report
                0x00000000        0xc examples/dfu/CMakeFiles/dfu_nrf52840_xxAA_s140_5.0.0-3.alpha.dir/__/__/mesh/prov/src/prov_beacon.c.obj
 .text          0x00000000        0x0 examples/dfu/CMakeFiles/dfu_nrf52840_xxAA_s140_5.0.0-3.alpha.dir/__/__/mesh/prov/src/prov_utils.c.obj
 .data          0x00000000        0x0 examples/dfu/CMakeFiles/dfu_nrf52840_xxAA_s140_5.0.0-3.alpha.dir/__/__/mesh/prov/src/prov_utils.c.obj
 .bss           0x00000000        0x0 examples/dfu/CMakeFiles/dfu_nrf52840_xxAA_s140_5.0.0-3.alpha.dir/__/__/mesh/prov/src/prov_utils.c.obj
 .text.prov_utils_opt_set
                0x00000000       0x24 examples/dfu/CMakeFiles/dfu_nrf52840_xxAA_s140_5.0.0-3.alpha.dir/__/__/mesh/prov/src/prov_utils.c.obj
 .text.prov_utils_opt_get
                0x00000000       0x1c examples/dfu/CMakeFiles/dfu_nrf52840_xxAA_s140_5.0.0-3.alpha.dir/__/__/mesh/prov/src/prov_utils.c.obj
 .text          0x00000000        0x0 examples/dfu/CMakeFiles/dfu_nrf52840_xxAA_s140_5.0.0-3.alpha.dir/__/__/mesh/prov/src/prov_bearer_adv.c.obj
 .data          0x00000000        0x0 examples/dfu/CMakeFiles/dfu_nrf52840_xxAA_s140_5.0.0-3.alpha.dir/__/__/mesh/prov/src/prov_bearer_adv.c.obj
 .bss           0x00000000        0x0 examples/dfu/CMakeFiles/dfu_nrf52840_xxAA_s140_5.0.0-3.alpha.dir/__/__/mesh/prov/src/prov_bearer_adv.c.obj
 .text.calculate_3GPP_CRC
                0x00000000       0x28 examples/dfu/CMakeFiles/dfu_nrf52840_xxAA_s140_5.0.0-3.alpha.dir/__/__/mesh/prov/src/prov_bearer_adv.c.obj
 .text          0x00000000        0x0 examples/dfu/CMakeFiles/dfu_nrf52840_xxAA_s140_5.0.0-3.alpha.dir/__/__/mesh/dfu/src/nrf_mesh_dfu.c.obj
 .data          0x00000000        0x0 examples/dfu/CMakeFiles/dfu_nrf52840_xxAA_s140_5.0.0-3.alpha.dir/__/__/mesh/dfu/src/nrf_mesh_dfu.c.obj
 .bss           0x00000000        0x0 examples/dfu/CMakeFiles/dfu_nrf52840_xxAA_s140_5.0.0-3.alpha.dir/__/__/mesh/dfu/src/nrf_mesh_dfu.c.obj
 .text          0x00000000        0x0 examples/dfu/CMakeFiles/dfu_nrf52840_xxAA_s140_5.0.0-3.alpha.dir/__/nrf_mesh_weak.c.obj
 .data          0x00000000        0x0 examples/dfu/CMakeFiles/dfu_nrf52840_xxAA_s140_5.0.0-3.alpha.dir/__/nrf_mesh_weak.c.obj
 .bss           0x00000000        0x0 examples/dfu/CMakeFiles/dfu_nrf52840_xxAA_s140_5.0.0-3.alpha.dir/__/nrf_mesh_weak.c.obj
 .text._weak_handler
                0x00000000        0x4 examples/dfu/CMakeFiles/dfu_nrf52840_xxAA_s140_5.0.0-3.alpha.dir/__/nrf_mesh_weak.c.obj
 .text._weak_handler_ptr
                0x00000000        0x4 examples/dfu/CMakeFiles/dfu_nrf52840_xxAA_s140_5.0.0-3.alpha.dir/__/nrf_mesh_weak.c.obj
 .comment       0x00000000       0x80 examples/dfu/CMakeFiles/dfu_nrf52840_xxAA_s140_5.0.0-3.alpha.dir/__/nrf_mesh_weak.c.obj
 .ARM.attributes
                0x00000000       0x39 examples/dfu/CMakeFiles/dfu_nrf52840_xxAA_s140_5.0.0-3.alpha.dir/__/nrf_mesh_weak.c.obj
 .text          0x00000000        0x0 examples/dfu/CMakeFiles/dfu_nrf52840_xxAA_s140_5.0.0-3.alpha.dir/__/__/external/nRF5_SDK_14.0.0_3bcc1f7/components/toolchain/system_nrf52840.c.obj
 .data          0x00000000        0x0 examples/dfu/CMakeFiles/dfu_nrf52840_xxAA_s140_5.0.0-3.alpha.dir/__/__/external/nRF5_SDK_14.0.0_3bcc1f7/components/toolchain/system_nrf52840.c.obj
 .bss           0x00000000        0x0 examples/dfu/CMakeFiles/dfu_nrf52840_xxAA_s140_5.0.0-3.alpha.dir/__/__/external/nRF5_SDK_14.0.0_3bcc1f7/components/toolchain/system_nrf52840.c.obj
 .text.SystemCoreClockUpdate
                0x00000000       0x10 examples/dfu/CMakeFiles/dfu_nrf52840_xxAA_s140_5.0.0-3.alpha.dir/__/__/external/nRF5_SDK_14.0.0_3bcc1f7/components/toolchain/system_nrf52840.c.obj
 .data          0x00000000        0x0 examples/dfu/CMakeFiles/dfu_nrf52840_xxAA_s140_5.0.0-3.alpha.dir/__/__/external/nRF5_SDK_14.0.0_3bcc1f7/components/toolchain/gcc/gcc_startup_nrf52840.S.obj
 .bss           0x00000000        0x0 examples/dfu/CMakeFiles/dfu_nrf52840_xxAA_s140_5.0.0-3.alpha.dir/__/__/external/nRF5_SDK_14.0.0_3bcc1f7/components/toolchain/gcc/gcc_startup_nrf52840.S.obj
 .text          0x00000000        0x0 mesh/core/libmesh_core_nrf52840_xxAA.a(internal_event.c.obj)
 .data          0x00000000        0x0 mesh/core/libmesh_core_nrf52840_xxAA.a(internal_event.c.obj)
 .bss           0x00000000        0x0 mesh/core/libmesh_core_nrf52840_xxAA.a(internal_event.c.obj)
 .text.internal_event_pop
                0x00000000       0x1c mesh/core/libmesh_core_nrf52840_xxAA.a(internal_event.c.obj)
 .text          0x00000000        0x0 mesh/core/libmesh_core_nrf52840_xxAA.a(nrf_mesh_configure.c.obj)
 .data          0x00000000        0x0 mesh/core/libmesh_core_nrf52840_xxAA.a(nrf_mesh_configure.c.obj)
 .bss           0x00000000        0x0 mesh/core/libmesh_core_nrf52840_xxAA.a(nrf_mesh_configure.c.obj)
 .text          0x00000000        0x0 mesh/core/libmesh_core_nrf52840_xxAA.a(event.c.obj)
 .data          0x00000000        0x0 mesh/core/libmesh_core_nrf52840_xxAA.a(event.c.obj)
 .bss           0x00000000        0x0 mesh/core/libmesh_core_nrf52840_xxAA.a(event.c.obj)
 .text.event_handler_remove
                0x00000000       0x6c mesh/core/libmesh_core_nrf52840_xxAA.a(event.c.obj)
 .text          0x00000000        0x0 mesh/core/libmesh_core_nrf52840_xxAA.a(packet_buffer.c.obj)
 .data          0x00000000        0x0 mesh/core/libmesh_core_nrf52840_xxAA.a(packet_buffer.c.obj)
 .bss           0x00000000        0x0 mesh/core/libmesh_core_nrf52840_xxAA.a(packet_buffer.c.obj)
 .text          0x00000000        0x0 mesh/core/libmesh_core_nrf52840_xxAA.a(fifo.c.obj)
 .data          0x00000000        0x0 mesh/core/libmesh_core_nrf52840_xxAA.a(fifo.c.obj)
 .bss           0x00000000        0x0 mesh/core/libmesh_core_nrf52840_xxAA.a(fifo.c.obj)
 .text.fifo_peek_at
                0x00000000       0x54 mesh/core/libmesh_core_nrf52840_xxAA.a(fifo.c.obj)
 .text.fifo_peek
                0x00000000       0x50 mesh/core/libmesh_core_nrf52840_xxAA.a(fifo.c.obj)
 .text.fifo_flush
                0x00000000        0x8 mesh/core/libmesh_core_nrf52840_xxAA.a(fifo.c.obj)
 .text.fifo_get_len
                0x00000000        0x8 mesh/core/libmesh_core_nrf52840_xxAA.a(fifo.c.obj)
 .text.fifo_is_full
                0x00000000       0x14 mesh/core/libmesh_core_nrf52840_xxAA.a(fifo.c.obj)
 .text.fifo_is_empty
                0x00000000       0x10 mesh/core/libmesh_core_nrf52840_xxAA.a(fifo.c.obj)
 .text          0x00000000        0x0 mesh/core/libmesh_core_nrf52840_xxAA.a(net_state.c.obj)
 .data          0x00000000        0x0 mesh/core/libmesh_core_nrf52840_xxAA.a(net_state.c.obj)
 .bss           0x00000000        0x0 mesh/core/libmesh_core_nrf52840_xxAA.a(net_state.c.obj)
 .text.net_state_flash_area_get
                0x00000000        0xc mesh/core/libmesh_core_nrf52840_xxAA.a(net_state.c.obj)
 .text.net_state_iv_update_start
                0x00000000       0x90 mesh/core/libmesh_core_nrf52840_xxAA.a(net_state.c.obj)
 .text.net_state_iv_update_test_mode_set
                0x00000000        0xc mesh/core/libmesh_core_nrf52840_xxAA.a(net_state.c.obj)
 .text          0x00000000        0x0 mesh/core/libmesh_core_nrf52840_xxAA.a(mesh_flash.c.obj)
 .data          0x00000000        0x0 mesh/core/libmesh_core_nrf52840_xxAA.a(mesh_flash.c.obj)
 .bss           0x00000000        0x0 mesh/core/libmesh_core_nrf52840_xxAA.a(mesh_flash.c.obj)
 .text.mesh_flash_op_available_slots
                0x00000000       0x2c mesh/core/libmesh_core_nrf52840_xxAA.a(mesh_flash.c.obj)
 .text          0x00000000        0x0 mesh/core/libmesh_core_nrf52840_xxAA.a(nrf_mesh_utils.c.obj)
 .data          0x00000000        0x0 mesh/core/libmesh_core_nrf52840_xxAA.a(nrf_mesh_utils.c.obj)
 .bss           0x00000000        0x0 mesh/core/libmesh_core_nrf52840_xxAA.a(nrf_mesh_utils.c.obj)
 .text.nrf_mesh_rand_get
                0x00000000       0x10 mesh/core/libmesh_core_nrf52840_xxAA.a(nrf_mesh_utils.c.obj)
 .text.nrf_mesh_gap_address_type_get
                0x00000000       0x40 mesh/core/libmesh_core_nrf52840_xxAA.a(nrf_mesh_utils.c.obj)
 .text          0x00000000        0x0 mesh/core/libmesh_core_nrf52840_xxAA.a(nrf_mesh.c.obj)
 .data          0x00000000        0x0 mesh/core/libmesh_core_nrf52840_xxAA.a(nrf_mesh.c.obj)
 .bss           0x00000000        0x0 mesh/core/libmesh_core_nrf52840_xxAA.a(nrf_mesh.c.obj)
 .text.nrf_mesh_evt_handler_remove
                0x00000000        0x4 mesh/core/libmesh_core_nrf52840_xxAA.a(nrf_mesh.c.obj)
 .text.nrf_mesh_rx_cb_set
                0x00000000        0xc mesh/core/libmesh_core_nrf52840_xxAA.a(nrf_mesh.c.obj)
 .text.nrf_mesh_rx_cb_clear
                0x00000000        0xc mesh/core/libmesh_core_nrf52840_xxAA.a(nrf_mesh.c.obj)
 .text          0x00000000        0x0 mesh/core/libmesh_core_nrf52840_xxAA.a(hal.c.obj)
 .data          0x00000000        0x0 mesh/core/libmesh_core_nrf52840_xxAA.a(hal.c.obj)
 .bss           0x00000000        0x0 mesh/core/libmesh_core_nrf52840_xxAA.a(hal.c.obj)
 .text          0x00000000        0x0 mesh/core/libmesh_core_nrf52840_xxAA.a(timer_scheduler.c.obj)
 .data          0x00000000        0x0 mesh/core/libmesh_core_nrf52840_xxAA.a(timer_scheduler.c.obj)
 .bss           0x00000000        0x0 mesh/core/libmesh_core_nrf52840_xxAA.a(timer_scheduler.c.obj)
 .text          0x00000000        0x0 mesh/core/libmesh_core_nrf52840_xxAA.a(timer.c.obj)
 .data          0x00000000        0x0 mesh/core/libmesh_core_nrf52840_xxAA.a(timer.c.obj)
 .bss           0x00000000        0x0 mesh/core/libmesh_core_nrf52840_xxAA.a(timer.c.obj)
 .text.timer_order_cb_ppi
                0x00000000       0xd8 mesh/core/libmesh_core_nrf52840_xxAA.a(timer.c.obj)
 .text.timer_order_ppi
                0x00000000       0x88 mesh/core/libmesh_core_nrf52840_xxAA.a(timer.c.obj)
 .text.timer_abort
                0x00000000       0x84 mesh/core/libmesh_core_nrf52840_xxAA.a(timer.c.obj)
 .text          0x00000000        0x0 mesh/core/libmesh_core_nrf52840_xxAA.a(ticker.c.obj)
 .data          0x00000000        0x0 mesh/core/libmesh_core_nrf52840_xxAA.a(ticker.c.obj)
 .bss           0x00000000        0x0 mesh/core/libmesh_core_nrf52840_xxAA.a(ticker.c.obj)
 .text.ticker_get
                0x00000000        0xc mesh/core/libmesh_core_nrf52840_xxAA.a(ticker.c.obj)
 .text          0x00000000        0x0 mesh/core/libmesh_core_nrf52840_xxAA.a(rand.c.obj)
 .data          0x00000000        0x0 mesh/core/libmesh_core_nrf52840_xxAA.a(rand.c.obj)
 .bss           0x00000000        0x0 mesh/core/libmesh_core_nrf52840_xxAA.a(rand.c.obj)
 .text          0x00000000        0x0 mesh/core/libmesh_core_nrf52840_xxAA.a(timeslot.c.obj)
 .data          0x00000000        0x0 mesh/core/libmesh_core_nrf52840_xxAA.a(timeslot.c.obj)
 .bss           0x00000000        0x0 mesh/core/libmesh_core_nrf52840_xxAA.a(timeslot.c.obj)
 .text.timeslot_restart
                0x00000000       0x30 mesh/core/libmesh_core_nrf52840_xxAA.a(timeslot.c.obj)
 .text.timeslot_end_time_get
                0x00000000       0x30 mesh/core/libmesh_core_nrf52840_xxAA.a(timeslot.c.obj)
 .text.timeslot_is_in_ts
                0x00000000        0xc mesh/core/libmesh_core_nrf52840_xxAA.a(timeslot.c.obj)
 .text          0x00000000        0x0 mesh/core/libmesh_core_nrf52840_xxAA.a(bearer_event.c.obj)
 .data          0x00000000        0x0 mesh/core/libmesh_core_nrf52840_xxAA.a(bearer_event.c.obj)
 .bss           0x00000000        0x0 mesh/core/libmesh_core_nrf52840_xxAA.a(bearer_event.c.obj)
 .text.bearer_event_timer_sch_post
                0x00000000       0x54 mesh/core/libmesh_core_nrf52840_xxAA.a(bearer_event.c.obj)
 .text          0x00000000        0x0 mesh/core/libmesh_core_nrf52840_xxAA.a(enc.c.obj)
 .data          0x00000000        0x0 mesh/core/libmesh_core_nrf52840_xxAA.a(enc.c.obj)
 .bss           0x00000000        0x0 mesh/core/libmesh_core_nrf52840_xxAA.a(enc.c.obj)
 .text.enc_key_generate
                0x00000000        0x8 mesh/core/libmesh_core_nrf52840_xxAA.a(enc.c.obj)
 .text          0x00000000        0x0 mesh/core/libmesh_core_nrf52840_xxAA.a(network.c.obj)
 .data          0x00000000        0x0 mesh/core/libmesh_core_nrf52840_xxAA.a(network.c.obj)
 .bss           0x00000000        0x0 mesh/core/libmesh_core_nrf52840_xxAA.a(network.c.obj)
 .text.network_opt_set
                0x00000000       0x58 mesh/core/libmesh_core_nrf52840_xxAA.a(network.c.obj)
 .text.network_opt_get
                0x00000000       0x4c mesh/core/libmesh_core_nrf52840_xxAA.a(network.c.obj)
 .text.network_packet_discard
                0x00000000       0x4c mesh/core/libmesh_core_nrf52840_xxAA.a(network.c.obj)
 .text          0x00000000        0x0 mesh/core/libmesh_core_nrf52840_xxAA.a(msqueue.c.obj)
 .data          0x00000000        0x0 mesh/core/libmesh_core_nrf52840_xxAA.a(msqueue.c.obj)
 .bss           0x00000000        0x0 mesh/core/libmesh_core_nrf52840_xxAA.a(msqueue.c.obj)
 .text.msq_reset
                0x00000000       0x34 mesh/core/libmesh_core_nrf52840_xxAA.a(msqueue.c.obj)
 .text          0x00000000        0x0 mesh/core/libmesh_core_nrf52840_xxAA.a(nrf_mesh_keygen.c.obj)
 .data          0x00000000        0x0 mesh/core/libmesh_core_nrf52840_xxAA.a(nrf_mesh_keygen.c.obj)
 .bss           0x00000000        0x0 mesh/core/libmesh_core_nrf52840_xxAA.a(nrf_mesh_keygen.c.obj)
 .text.nrf_mesh_keygen_identitykey
                0x00000000       0x4c mesh/core/libmesh_core_nrf52840_xxAA.a(nrf_mesh_keygen.c.obj)
 .text          0x00000000        0x0 mesh/core/libmesh_core_nrf52840_xxAA.a(log.c.obj)
 .data          0x00000000        0x0 mesh/core/libmesh_core_nrf52840_xxAA.a(log.c.obj)
 .bss           0x00000000        0x0 mesh/core/libmesh_core_nrf52840_xxAA.a(log.c.obj)
 .text.log_callback_logview
                0x00000000       0x38 mesh/core/libmesh_core_nrf52840_xxAA.a(log.c.obj)
 .text.log_set_callback
                0x00000000        0xc mesh/core/libmesh_core_nrf52840_xxAA.a(log.c.obj)
 .text.log_vprintf
                0x00000000       0x18 mesh/core/libmesh_core_nrf52840_xxAA.a(log.c.obj)
 .rodata.log_callback_logview.str1.4
                0x00000000       0x12 mesh/core/libmesh_core_nrf52840_xxAA.a(log.c.obj)
 .text          0x00000000        0x0 mesh/core/libmesh_core_nrf52840_xxAA.a(flash_manager.c.obj)
 .data          0x00000000        0x0 mesh/core/libmesh_core_nrf52840_xxAA.a(flash_manager.c.obj)
 .bss           0x00000000        0x0 mesh/core/libmesh_core_nrf52840_xxAA.a(flash_manager.c.obj)
 .text.flash_manager_entry_get
                0x00000000       0x54 mesh/core/libmesh_core_nrf52840_xxAA.a(flash_manager.c.obj)
 .text.flash_manager_entry_count_get
                0x00000000      0x110 mesh/core/libmesh_core_nrf52840_xxAA.a(flash_manager.c.obj)
 .text.flash_manager_entry_release
                0x00000000       0xb4 mesh/core/libmesh_core_nrf52840_xxAA.a(flash_manager.c.obj)
 .text          0x00000000        0x0 mesh/core/libmesh_core_nrf52840_xxAA.a(ccm_soft.c.obj)
 .data          0x00000000        0x0 mesh/core/libmesh_core_nrf52840_xxAA.a(ccm_soft.c.obj)
 .bss           0x00000000        0x0 mesh/core/libmesh_core_nrf52840_xxAA.a(ccm_soft.c.obj)
 .text          0x00000000        0x0 mesh/core/libmesh_core_nrf52840_xxAA.a(beacon.c.obj)
 .data          0x00000000        0x0 mesh/core/libmesh_core_nrf52840_xxAA.a(beacon.c.obj)
 .bss           0x00000000        0x0 mesh/core/libmesh_core_nrf52840_xxAA.a(beacon.c.obj)
 .text          0x00000000        0x0 mesh/core/libmesh_core_nrf52840_xxAA.a(flash_manager_internal.c.obj)
 .data          0x00000000        0x0 mesh/core/libmesh_core_nrf52840_xxAA.a(flash_manager_internal.c.obj)
 .bss           0x00000000        0x0 mesh/core/libmesh_core_nrf52840_xxAA.a(flash_manager_internal.c.obj)
 .text          0x00000000        0x0 mesh/core/libmesh_core_nrf52840_xxAA.a(core_tx.c.obj)
 .data          0x00000000        0x0 mesh/core/libmesh_core_nrf52840_xxAA.a(core_tx.c.obj)
 .bss           0x00000000        0x0 mesh/core/libmesh_core_nrf52840_xxAA.a(core_tx.c.obj)
 .text.core_tx_adv_count_set
                0x00000000       0x40 mesh/core/libmesh_core_nrf52840_xxAA.a(core_tx.c.obj)
 .text.core_tx_adv_count_get
                0x00000000       0x2c mesh/core/libmesh_core_nrf52840_xxAA.a(core_tx.c.obj)
 .text.core_tx_adv_interval_set
                0x00000000       0x34 mesh/core/libmesh_core_nrf52840_xxAA.a(core_tx.c.obj)
 .text.core_tx_adv_interval_get
                0x00000000       0x38 mesh/core/libmesh_core_nrf52840_xxAA.a(core_tx.c.obj)
 .text.core_tx_adv_address_set
                0x00000000       0x34 mesh/core/libmesh_core_nrf52840_xxAA.a(core_tx.c.obj)
 .text          0x00000000        0x0 mesh/core/libmesh_core_nrf52840_xxAA.a(net_beacon.c.obj)
 .data          0x00000000        0x0 mesh/core/libmesh_core_nrf52840_xxAA.a(net_beacon.c.obj)
 .bss           0x00000000        0x0 mesh/core/libmesh_core_nrf52840_xxAA.a(net_beacon.c.obj)
 .text.net_beacon_state_set
                0x00000000       0x3c mesh/core/libmesh_core_nrf52840_xxAA.a(net_beacon.c.obj)
 .text.net_beacon_state_get
                0x00000000        0xc mesh/core/libmesh_core_nrf52840_xxAA.a(net_beacon.c.obj)
 .text          0x00000000        0x0 mesh/core/libmesh_core_nrf52840_xxAA.a(advertiser.c.obj)
 .data          0x00000000        0x0 mesh/core/libmesh_core_nrf52840_xxAA.a(advertiser.c.obj)
 .bss           0x00000000        0x0 mesh/core/libmesh_core_nrf52840_xxAA.a(advertiser.c.obj)
 .text.advertiser_config_set
                0x00000000      0x12c mesh/core/libmesh_core_nrf52840_xxAA.a(advertiser.c.obj)
 .text.advertiser_address_set
                0x00000000       0x80 mesh/core/libmesh_core_nrf52840_xxAA.a(advertiser.c.obj)
 .text.advertiser_config_get
                0x00000000       0x30 mesh/core/libmesh_core_nrf52840_xxAA.a(advertiser.c.obj)
 .text          0x00000000        0x0 mesh/core/libmesh_core_nrf52840_xxAA.a(bearer_handler.c.obj)
 .data          0x00000000        0x0 mesh/core/libmesh_core_nrf52840_xxAA.a(bearer_handler.c.obj)
 .bss           0x00000000        0x0 mesh/core/libmesh_core_nrf52840_xxAA.a(bearer_handler.c.obj)
 .text.bearer_handler_action_fire
                0x00000000       0xb0 mesh/core/libmesh_core_nrf52840_xxAA.a(bearer_handler.c.obj)
 .text          0x00000000        0x0 mesh/core/libmesh_core_nrf52840_xxAA.a(broadcast.c.obj)
 .data          0x00000000        0x0 mesh/core/libmesh_core_nrf52840_xxAA.a(broadcast.c.obj)
 .bss           0x00000000        0x0 mesh/core/libmesh_core_nrf52840_xxAA.a(broadcast.c.obj)
 .text          0x00000000        0x0 mesh/core/libmesh_core_nrf52840_xxAA.a(radio_config.c.obj)
 .data          0x00000000        0x0 mesh/core/libmesh_core_nrf52840_xxAA.a(radio_config.c.obj)
 .bss           0x00000000        0x0 mesh/core/libmesh_core_nrf52840_xxAA.a(radio_config.c.obj)
 .text.radio_config_access_addr_get
                0x00000000       0x6c mesh/core/libmesh_core_nrf52840_xxAA.a(radio_config.c.obj)
 .text          0x00000000        0x0 mesh/core/libmesh_core_nrf52840_xxAA.a(scanner.c.obj)
 .data          0x00000000        0x0 mesh/core/libmesh_core_nrf52840_xxAA.a(scanner.c.obj)
 .bss           0x00000000        0x0 mesh/core/libmesh_core_nrf52840_xxAA.a(scanner.c.obj)
 .text.scanner_is_enabled
                0x00000000       0x14 mesh/core/libmesh_core_nrf52840_xxAA.a(scanner.c.obj)
 .text.scanner_stats_get
                0x00000000        0x8 mesh/core/libmesh_core_nrf52840_xxAA.a(scanner.c.obj)
 .text.scanner_config_radio_mode_set
                0x00000000       0x10 mesh/core/libmesh_core_nrf52840_xxAA.a(scanner.c.obj)
 .text.scanner_config_scan_time_set
                0x00000000       0x94 mesh/core/libmesh_core_nrf52840_xxAA.a(scanner.c.obj)
 .text.scanner_config_channels_set
                0x00000000       0x64 mesh/core/libmesh_core_nrf52840_xxAA.a(scanner.c.obj)
 .text.scanner_config_access_addresses_set
                0x00000000       0x44 mesh/core/libmesh_core_nrf52840_xxAA.a(scanner.c.obj)
 .text          0x00000000        0x0 mesh/core/libmesh_core_nrf52840_xxAA.a(aes.c.obj)
 .data          0x00000000        0x0 mesh/core/libmesh_core_nrf52840_xxAA.a(aes.c.obj)
 .bss           0x00000000        0x0 mesh/core/libmesh_core_nrf52840_xxAA.a(aes.c.obj)
 .text          0x00000000        0x0 mesh/core/libmesh_core_nrf52840_xxAA.a(msg_cache.c.obj)
 .data          0x00000000        0x0 mesh/core/libmesh_core_nrf52840_xxAA.a(msg_cache.c.obj)
 .bss           0x00000000        0x0 mesh/core/libmesh_core_nrf52840_xxAA.a(msg_cache.c.obj)
 .text.msg_cache_clear
                0x00000000       0x18 mesh/core/libmesh_core_nrf52840_xxAA.a(msg_cache.c.obj)
 .text          0x00000000        0x0 mesh/core/libmesh_core_nrf52840_xxAA.a(transport.c.obj)
 .data          0x00000000        0x0 mesh/core/libmesh_core_nrf52840_xxAA.a(transport.c.obj)
 .bss           0x00000000        0x0 mesh/core/libmesh_core_nrf52840_xxAA.a(transport.c.obj)
 .text.transport_sar_mem_funcs_reset
                0x00000000       0x30 mesh/core/libmesh_core_nrf52840_xxAA.a(transport.c.obj)
 .text.transport_sar_mem_funcs_set
                0x00000000       0x48 mesh/core/libmesh_core_nrf52840_xxAA.a(transport.c.obj)
 .text.transport_opt_set
                0x00000000       0xdc mesh/core/libmesh_core_nrf52840_xxAA.a(transport.c.obj)
 .text.transport_opt_get
                0x00000000       0x84 mesh/core/libmesh_core_nrf52840_xxAA.a(transport.c.obj)
 .text          0x00000000        0x0 mesh/core/libmesh_core_nrf52840_xxAA.a(flash_manager_defrag.c.obj)
 .data          0x00000000        0x0 mesh/core/libmesh_core_nrf52840_xxAA.a(flash_manager_defrag.c.obj)
 .bss           0x00000000        0x0 mesh/core/libmesh_core_nrf52840_xxAA.a(flash_manager_defrag.c.obj)
 .text.flash_manager_defragging
                0x00000000       0x50 mesh/core/libmesh_core_nrf52840_xxAA.a(flash_manager_defrag.c.obj)
 .text          0x00000000        0x0 mesh/core/libmesh_core_nrf52840_xxAA.a(nrf_flash.c.obj)
 .data          0x00000000        0x0 mesh/core/libmesh_core_nrf52840_xxAA.a(nrf_flash.c.obj)
 .bss           0x00000000        0x0 mesh/core/libmesh_core_nrf52840_xxAA.a(nrf_flash.c.obj)
 .text          0x00000000        0x0 mesh/core/libmesh_core_nrf52840_xxAA.a(packet_mgr.c.obj)
 .data          0x00000000        0x0 mesh/core/libmesh_core_nrf52840_xxAA.a(packet_mgr.c.obj)
 .bss           0x00000000        0x0 mesh/core/libmesh_core_nrf52840_xxAA.a(packet_mgr.c.obj)
 .text.packet_mgr_alloc
                0x00000000      0x1dc mesh/core/libmesh_core_nrf52840_xxAA.a(packet_mgr.c.obj)
 .text.packet_mgr_free
                0x00000000       0x70 mesh/core/libmesh_core_nrf52840_xxAA.a(packet_mgr.c.obj)
 .text.packet_mgr_get_free_space
                0x00000000       0x1c mesh/core/libmesh_core_nrf52840_xxAA.a(packet_mgr.c.obj)
 .text.packet_mgr_refcount_get
                0x00000000        0x8 mesh/core/libmesh_core_nrf52840_xxAA.a(packet_mgr.c.obj)
 .text.packet_mgr_size_get
                0x00000000        0x8 mesh/core/libmesh_core_nrf52840_xxAA.a(packet_mgr.c.obj)
 .text          0x00000000        0x0 mesh/core/libmesh_core_nrf52840_xxAA.a(queue.c.obj)
 .data          0x00000000        0x0 mesh/core/libmesh_core_nrf52840_xxAA.a(queue.c.obj)
 .bss           0x00000000        0x0 mesh/core/libmesh_core_nrf52840_xxAA.a(queue.c.obj)
 .text          0x00000000        0x0 mesh/core/libmesh_core_nrf52840_xxAA.a(aes_cmac.c.obj)
 .data          0x00000000        0x0 mesh/core/libmesh_core_nrf52840_xxAA.a(aes_cmac.c.obj)
 .bss           0x00000000        0x0 mesh/core/libmesh_core_nrf52840_xxAA.a(aes_cmac.c.obj)
 .text          0x00000000        0x0 mesh/core/libmesh_core_nrf52840_xxAA.a(replay_cache.c.obj)
 .data          0x00000000        0x0 mesh/core/libmesh_core_nrf52840_xxAA.a(replay_cache.c.obj)
 .bss           0x00000000        0x0 mesh/core/libmesh_core_nrf52840_xxAA.a(replay_cache.c.obj)
 .text.replay_cache_on_iv_update
                0x00000000       0x2c mesh/core/libmesh_core_nrf52840_xxAA.a(replay_cache.c.obj)
 .text.replay_cache_clear
                0x00000000       0x28 mesh/core/libmesh_core_nrf52840_xxAA.a(replay_cache.c.obj)
 .text          0x00000000        0x0 mesh/core/libmesh_core_nrf52840_xxAA.a(filter_engine.c.obj)
 .data          0x00000000        0x0 mesh/core/libmesh_core_nrf52840_xxAA.a(filter_engine.c.obj)
 .bss           0x00000000        0x0 mesh/core/libmesh_core_nrf52840_xxAA.a(filter_engine.c.obj)
 .text.fen_filter_start
                0x00000000       0x84 mesh/core/libmesh_core_nrf52840_xxAA.a(filter_engine.c.obj)
 .text.fen_filter_stop
                0x00000000       0x70 mesh/core/libmesh_core_nrf52840_xxAA.a(filter_engine.c.obj)
 .text.fen_accepted_amount_get
                0x00000000        0xc mesh/core/libmesh_core_nrf52840_xxAA.a(filter_engine.c.obj)
 .text          0x00000000        0x0 external/rtt/librtt_nrf52840_xxAA.a(SEGGER_RTT.c.obj)
 .data          0x00000000        0x0 external/rtt/librtt_nrf52840_xxAA.a(SEGGER_RTT.c.obj)
 .bss           0x00000000        0x0 external/rtt/librtt_nrf52840_xxAA.a(SEGGER_RTT.c.obj)
 .text.SEGGER_RTT_ReadNoLock
                0x00000000      0x100 external/rtt/librtt_nrf52840_xxAA.a(SEGGER_RTT.c.obj)
 .text.SEGGER_RTT_Read
                0x00000000      0x114 external/rtt/librtt_nrf52840_xxAA.a(SEGGER_RTT.c.obj)
 .text.SEGGER_RTT_WriteSkipNoLock
                0x00000000      0x184 external/rtt/librtt_nrf52840_xxAA.a(SEGGER_RTT.c.obj)
 .text.SEGGER_RTT_WriteNoLock
                0x00000000      0x188 external/rtt/librtt_nrf52840_xxAA.a(SEGGER_RTT.c.obj)
 .text.SEGGER_RTT_WriteString
                0x00000000      0x20c external/rtt/librtt_nrf52840_xxAA.a(SEGGER_RTT.c.obj)
 .text.SEGGER_RTT_GetKey
                0x00000000       0xec external/rtt/librtt_nrf52840_xxAA.a(SEGGER_RTT.c.obj)
 .text.SEGGER_RTT_WaitKey
                0x00000000      0x114 external/rtt/librtt_nrf52840_xxAA.a(SEGGER_RTT.c.obj)
 .text.SEGGER_RTT_HasKey
                0x00000000       0x6c external/rtt/librtt_nrf52840_xxAA.a(SEGGER_RTT.c.obj)
 .text.SEGGER_RTT_HasData
                0x00000000       0x18 external/rtt/librtt_nrf52840_xxAA.a(SEGGER_RTT.c.obj)
 .text.SEGGER_RTT_AllocDownBuffer
                0x00000000       0xbc external/rtt/librtt_nrf52840_xxAA.a(SEGGER_RTT.c.obj)
 .text.SEGGER_RTT_AllocUpBuffer
                0x00000000       0xd8 external/rtt/librtt_nrf52840_xxAA.a(SEGGER_RTT.c.obj)
 .text.SEGGER_RTT_ConfigUpBuffer
                0x00000000       0xd0 external/rtt/librtt_nrf52840_xxAA.a(SEGGER_RTT.c.obj)
 .text.SEGGER_RTT_ConfigDownBuffer
                0x00000000       0xb8 external/rtt/librtt_nrf52840_xxAA.a(SEGGER_RTT.c.obj)
 .text.SEGGER_RTT_SetNameUpBuffer
                0x00000000       0x90 external/rtt/librtt_nrf52840_xxAA.a(SEGGER_RTT.c.obj)
 .text.SEGGER_RTT_SetNameDownBuffer
                0x00000000       0x90 external/rtt/librtt_nrf52840_xxAA.a(SEGGER_RTT.c.obj)
 .text.SEGGER_RTT_Init
                0x00000000       0x60 external/rtt/librtt_nrf52840_xxAA.a(SEGGER_RTT.c.obj)
 .text.SEGGER_RTT_SetTerminal
                0x00000000      0x15c external/rtt/librtt_nrf52840_xxAA.a(SEGGER_RTT.c.obj)
 .text.SEGGER_RTT_TerminalOut
                0x00000000      0x40c external/rtt/librtt_nrf52840_xxAA.a(SEGGER_RTT.c.obj)
 .bss._ActiveTerminal
                0x00000000        0x1 external/rtt/librtt_nrf52840_xxAA.a(SEGGER_RTT.c.obj)
 .rodata._aTerminalId
                0x00000000       0x10 external/rtt/librtt_nrf52840_xxAA.a(SEGGER_RTT.c.obj)
 .text          0x00000000        0x0 external/rtt/librtt_nrf52840_xxAA.a(SEGGER_RTT_printf.c.obj)
 .data          0x00000000        0x0 external/rtt/librtt_nrf52840_xxAA.a(SEGGER_RTT_printf.c.obj)
 .bss           0x00000000        0x0 external/rtt/librtt_nrf52840_xxAA.a(SEGGER_RTT_printf.c.obj)
 .text          0x00000000        0x0 external/micro-ecc/libuECC_nrf52840_xxAA.a(uECC.c.obj)
 .data          0x00000000        0x0 external/micro-ecc/libuECC_nrf52840_xxAA.a(uECC.c.obj)
 .bss           0x00000000        0x0 external/micro-ecc/libuECC_nrf52840_xxAA.a(uECC.c.obj)
 .text.HMAC_finish
                0x00000000       0x70 external/micro-ecc/libuECC_nrf52840_xxAA.a(uECC.c.obj)
 .text.uECC_vli_mmod
                0x00000000      0x3c8 external/micro-ecc/libuECC_nrf52840_xxAA.a(uECC.c.obj)
 .text.uECC_vli_modSub.isra.2
                0x00000000       0x98 external/micro-ecc/libuECC_nrf52840_xxAA.a(uECC.c.obj)
 .text.bits2int
                0x00000000      0x14c external/micro-ecc/libuECC_nrf52840_xxAA.a(uECC.c.obj)
 .text.uECC_sign_with_k
                0x00000000      0x60c external/micro-ecc/libuECC_nrf52840_xxAA.a(uECC.c.obj)
 .text.uECC_set_rng
                0x00000000        0xc external/micro-ecc/libuECC_nrf52840_xxAA.a(uECC.c.obj)
 .text.uECC_get_rng
                0x00000000        0xc external/micro-ecc/libuECC_nrf52840_xxAA.a(uECC.c.obj)
 .text.uECC_curve_private_key_size
                0x00000000       0x10 external/micro-ecc/libuECC_nrf52840_xxAA.a(uECC.c.obj)
 .text.uECC_curve_public_key_size
                0x00000000        0x8 external/micro-ecc/libuECC_nrf52840_xxAA.a(uECC.c.obj)
 .text.uECC_compute_public_key
                0x00000000      0x2e4 external/micro-ecc/libuECC_nrf52840_xxAA.a(uECC.c.obj)
 .text.uECC_sign
                0x00000000       0x60 external/micro-ecc/libuECC_nrf52840_xxAA.a(uECC.c.obj)
 .text.uECC_sign_deterministic
                0x00000000      0x400 external/micro-ecc/libuECC_nrf52840_xxAA.a(uECC.c.obj)
 .text.uECC_verify
                0x00000000      0x95c external/micro-ecc/libuECC_nrf52840_xxAA.a(uECC.c.obj)
 .text          0x00000000        0x0 c:/a/gcc_arm/6/bin/../lib/gcc/arm-none-eabi/6.3.1/../../../../arm-none-eabi/lib/thumb/v7e-m/fpv4-sp/hard\libc_nano.a(lib_a-exit.o)
 .data          0x00000000        0x0 c:/a/gcc_arm/6/bin/../lib/gcc/arm-none-eabi/6.3.1/../../../../arm-none-eabi/lib/thumb/v7e-m/fpv4-sp/hard\libc_nano.a(lib_a-exit.o)
 .bss           0x00000000        0x0 c:/a/gcc_arm/6/bin/../lib/gcc/arm-none-eabi/6.3.1/../../../../arm-none-eabi/lib/thumb/v7e-m/fpv4-sp/hard\libc_nano.a(lib_a-exit.o)
 .text          0x00000000        0x0 c:/a/gcc_arm/6/bin/../lib/gcc/arm-none-eabi/6.3.1/../../../../arm-none-eabi/lib/thumb/v7e-m/fpv4-sp/hard\libc_nano.a(lib_a-impure.o)
 .data          0x00000000        0x0 c:/a/gcc_arm/6/bin/../lib/gcc/arm-none-eabi/6.3.1/../../../../arm-none-eabi/lib/thumb/v7e-m/fpv4-sp/hard\libc_nano.a(lib_a-impure.o)
 .bss           0x00000000        0x0 c:/a/gcc_arm/6/bin/../lib/gcc/arm-none-eabi/6.3.1/../../../../arm-none-eabi/lib/thumb/v7e-m/fpv4-sp/hard\libc_nano.a(lib_a-impure.o)
 .text          0x00000000        0x0 c:/a/gcc_arm/6/bin/../lib/gcc/arm-none-eabi/6.3.1/../../../../arm-none-eabi/lib/thumb/v7e-m/fpv4-sp/hard\libc_nano.a(lib_a-init.o)
 .data          0x00000000        0x0 c:/a/gcc_arm/6/bin/../lib/gcc/arm-none-eabi/6.3.1/../../../../arm-none-eabi/lib/thumb/v7e-m/fpv4-sp/hard\libc_nano.a(lib_a-init.o)
 .bss           0x00000000        0x0 c:/a/gcc_arm/6/bin/../lib/gcc/arm-none-eabi/6.3.1/../../../../arm-none-eabi/lib/thumb/v7e-m/fpv4-sp/hard\libc_nano.a(lib_a-init.o)
 .text          0x00000000        0x0 c:/a/gcc_arm/6/bin/../lib/gcc/arm-none-eabi/6.3.1/../../../../arm-none-eabi/lib/thumb/v7e-m/fpv4-sp/hard\libc_nano.a(lib_a-malloc.o)
 .data          0x00000000        0x0 c:/a/gcc_arm/6/bin/../lib/gcc/arm-none-eabi/6.3.1/../../../../arm-none-eabi/lib/thumb/v7e-m/fpv4-sp/hard\libc_nano.a(lib_a-malloc.o)
 .bss           0x00000000        0x0 c:/a/gcc_arm/6/bin/../lib/gcc/arm-none-eabi/6.3.1/../../../../arm-none-eabi/lib/thumb/v7e-m/fpv4-sp/hard\libc_nano.a(lib_a-malloc.o)
 .text          0x00000000        0x0 c:/a/gcc_arm/6/bin/../lib/gcc/arm-none-eabi/6.3.1/../../../../arm-none-eabi/lib/thumb/v7e-m/fpv4-sp/hard\libc_nano.a(lib_a-memcmp.o)
 .data          0x00000000        0x0 c:/a/gcc_arm/6/bin/../lib/gcc/arm-none-eabi/6.3.1/../../../../arm-none-eabi/lib/thumb/v7e-m/fpv4-sp/hard\libc_nano.a(lib_a-memcmp.o)
 .bss           0x00000000        0x0 c:/a/gcc_arm/6/bin/../lib/gcc/arm-none-eabi/6.3.1/../../../../arm-none-eabi/lib/thumb/v7e-m/fpv4-sp/hard\libc_nano.a(lib_a-memcmp.o)
 .text          0x00000000        0x0 c:/a/gcc_arm/6/bin/../lib/gcc/arm-none-eabi/6.3.1/../../../../arm-none-eabi/lib/thumb/v7e-m/fpv4-sp/hard\libc_nano.a(lib_a-memcpy-stub.o)
 .data          0x00000000        0x0 c:/a/gcc_arm/6/bin/../lib/gcc/arm-none-eabi/6.3.1/../../../../arm-none-eabi/lib/thumb/v7e-m/fpv4-sp/hard\libc_nano.a(lib_a-memcpy-stub.o)
 .bss           0x00000000        0x0 c:/a/gcc_arm/6/bin/../lib/gcc/arm-none-eabi/6.3.1/../../../../arm-none-eabi/lib/thumb/v7e-m/fpv4-sp/hard\libc_nano.a(lib_a-memcpy-stub.o)
 .text          0x00000000        0x0 c:/a/gcc_arm/6/bin/../lib/gcc/arm-none-eabi/6.3.1/../../../../arm-none-eabi/lib/thumb/v7e-m/fpv4-sp/hard\libc_nano.a(lib_a-memset.o)
 .data          0x00000000        0x0 c:/a/gcc_arm/6/bin/../lib/gcc/arm-none-eabi/6.3.1/../../../../arm-none-eabi/lib/thumb/v7e-m/fpv4-sp/hard\libc_nano.a(lib_a-memset.o)
 .bss           0x00000000        0x0 c:/a/gcc_arm/6/bin/../lib/gcc/arm-none-eabi/6.3.1/../../../../arm-none-eabi/lib/thumb/v7e-m/fpv4-sp/hard\libc_nano.a(lib_a-memset.o)
 .text          0x00000000        0x0 c:/a/gcc_arm/6/bin/../lib/gcc/arm-none-eabi/6.3.1/../../../../arm-none-eabi/lib/thumb/v7e-m/fpv4-sp/hard\libc_nano.a(lib_a-nano-freer.o)
 .data          0x00000000        0x0 c:/a/gcc_arm/6/bin/../lib/gcc/arm-none-eabi/6.3.1/../../../../arm-none-eabi/lib/thumb/v7e-m/fpv4-sp/hard\libc_nano.a(lib_a-nano-freer.o)
 .bss           0x00000000        0x0 c:/a/gcc_arm/6/bin/../lib/gcc/arm-none-eabi/6.3.1/../../../../arm-none-eabi/lib/thumb/v7e-m/fpv4-sp/hard\libc_nano.a(lib_a-nano-freer.o)
 .text          0x00000000        0x0 c:/a/gcc_arm/6/bin/../lib/gcc/arm-none-eabi/6.3.1/../../../../arm-none-eabi/lib/thumb/v7e-m/fpv4-sp/hard\libc_nano.a(lib_a-nano-mallocr.o)
 .data          0x00000000        0x0 c:/a/gcc_arm/6/bin/../lib/gcc/arm-none-eabi/6.3.1/../../../../arm-none-eabi/lib/thumb/v7e-m/fpv4-sp/hard\libc_nano.a(lib_a-nano-mallocr.o)
 .bss           0x00000000        0x0 c:/a/gcc_arm/6/bin/../lib/gcc/arm-none-eabi/6.3.1/../../../../arm-none-eabi/lib/thumb/v7e-m/fpv4-sp/hard\libc_nano.a(lib_a-nano-mallocr.o)
 .text          0x00000000        0x0 c:/a/gcc_arm/6/bin/../lib/gcc/arm-none-eabi/6.3.1/../../../../arm-none-eabi/lib/thumb/v7e-m/fpv4-sp/hard\libc_nano.a(lib_a-sbrkr.o)
 .data          0x00000000        0x0 c:/a/gcc_arm/6/bin/../lib/gcc/arm-none-eabi/6.3.1/../../../../arm-none-eabi/lib/thumb/v7e-m/fpv4-sp/hard\libc_nano.a(lib_a-sbrkr.o)
 .bss           0x00000000        0x0 c:/a/gcc_arm/6/bin/../lib/gcc/arm-none-eabi/6.3.1/../../../../arm-none-eabi/lib/thumb/v7e-m/fpv4-sp/hard\libc_nano.a(lib_a-sbrkr.o)
 .text          0x00000000        0x0 c:/a/gcc_arm/6/bin/../lib/gcc/arm-none-eabi/6.3.1/../../../../arm-none-eabi/lib/thumb/v7e-m/fpv4-sp/hard\libc_nano.a(lib_a-strcpy.o)
 .data          0x00000000        0x0 c:/a/gcc_arm/6/bin/../lib/gcc/arm-none-eabi/6.3.1/../../../../arm-none-eabi/lib/thumb/v7e-m/fpv4-sp/hard\libc_nano.a(lib_a-strcpy.o)
 .bss           0x00000000        0x0 c:/a/gcc_arm/6/bin/../lib/gcc/arm-none-eabi/6.3.1/../../../../arm-none-eabi/lib/thumb/v7e-m/fpv4-sp/hard\libc_nano.a(lib_a-strcpy.o)
 .data          0x00000000        0x0 c:/a/gcc_arm/6/bin/../lib/gcc/arm-none-eabi/6.3.1/../../../../arm-none-eabi/lib/thumb/v7e-m/fpv4-sp/hard\libc_nano.a(lib_a-strlen.o)
 .bss           0x00000000        0x0 c:/a/gcc_arm/6/bin/../lib/gcc/arm-none-eabi/6.3.1/../../../../arm-none-eabi/lib/thumb/v7e-m/fpv4-sp/hard\libc_nano.a(lib_a-strlen.o)
 .text          0x00000000        0x0 c:/a/gcc_arm/6/bin/../lib/gcc/arm-none-eabi/6.3.1/../../../../arm-none-eabi/lib/thumb/v7e-m/fpv4-sp/hard\libc_nano.a(lib_a-strrchr.o)
 .data          0x00000000        0x0 c:/a/gcc_arm/6/bin/../lib/gcc/arm-none-eabi/6.3.1/../../../../arm-none-eabi/lib/thumb/v7e-m/fpv4-sp/hard\libc_nano.a(lib_a-strrchr.o)
 .bss           0x00000000        0x0 c:/a/gcc_arm/6/bin/../lib/gcc/arm-none-eabi/6.3.1/../../../../arm-none-eabi/lib/thumb/v7e-m/fpv4-sp/hard\libc_nano.a(lib_a-strrchr.o)
 .text          0x00000000        0x0 c:/a/gcc_arm/6/bin/../lib/gcc/arm-none-eabi/6.3.1/../../../../arm-none-eabi/lib/thumb/v7e-m/fpv4-sp/hard\libc_nano.a(lib_a-mlock.o)
 .data          0x00000000        0x0 c:/a/gcc_arm/6/bin/../lib/gcc/arm-none-eabi/6.3.1/../../../../arm-none-eabi/lib/thumb/v7e-m/fpv4-sp/hard\libc_nano.a(lib_a-mlock.o)
 .bss           0x00000000        0x0 c:/a/gcc_arm/6/bin/../lib/gcc/arm-none-eabi/6.3.1/../../../../arm-none-eabi/lib/thumb/v7e-m/fpv4-sp/hard\libc_nano.a(lib_a-mlock.o)
 .text          0x00000000        0x0 c:/a/gcc_arm/6/bin/../lib/gcc/arm-none-eabi/6.3.1/../../../../arm-none-eabi/lib/thumb/v7e-m/fpv4-sp/hard\libc_nano.a(lib_a-reent.o)
 .data          0x00000000        0x0 c:/a/gcc_arm/6/bin/../lib/gcc/arm-none-eabi/6.3.1/../../../../arm-none-eabi/lib/thumb/v7e-m/fpv4-sp/hard\libc_nano.a(lib_a-reent.o)
 .bss           0x00000000        0x0 c:/a/gcc_arm/6/bin/../lib/gcc/arm-none-eabi/6.3.1/../../../../arm-none-eabi/lib/thumb/v7e-m/fpv4-sp/hard\libc_nano.a(lib_a-reent.o)
 .text.cleanup_glue
                0x00000000       0x1a c:/a/gcc_arm/6/bin/../lib/gcc/arm-none-eabi/6.3.1/../../../../arm-none-eabi/lib/thumb/v7e-m/fpv4-sp/hard\libc_nano.a(lib_a-reent.o)
 .text._reclaim_reent
                0x00000000       0xb8 c:/a/gcc_arm/6/bin/../lib/gcc/arm-none-eabi/6.3.1/../../../../arm-none-eabi/lib/thumb/v7e-m/fpv4-sp/hard\libc_nano.a(lib_a-reent.o)
 .text          0x00000000        0x0 c:/a/gcc_arm/6/bin/../lib/gcc/arm-none-eabi/6.3.1/../../../../arm-none-eabi/lib/thumb/v7e-m/fpv4-sp/hard\libc_nano.a(lib_a-strchr.o)
 .data          0x00000000        0x0 c:/a/gcc_arm/6/bin/../lib/gcc/arm-none-eabi/6.3.1/../../../../arm-none-eabi/lib/thumb/v7e-m/fpv4-sp/hard\libc_nano.a(lib_a-strchr.o)
 .bss           0x00000000        0x0 c:/a/gcc_arm/6/bin/../lib/gcc/arm-none-eabi/6.3.1/../../../../arm-none-eabi/lib/thumb/v7e-m/fpv4-sp/hard\libc_nano.a(lib_a-strchr.o)
 .text          0x00000000        0x0 c:/a/gcc_arm/6/bin/../lib/gcc/arm-none-eabi/6.3.1/thumb/v7e-m/fpv4-sp/hard/crtend.o
 .data          0x00000000        0x0 c:/a/gcc_arm/6/bin/../lib/gcc/arm-none-eabi/6.3.1/thumb/v7e-m/fpv4-sp/hard/crtend.o
 .bss           0x00000000        0x0 c:/a/gcc_arm/6/bin/../lib/gcc/arm-none-eabi/6.3.1/thumb/v7e-m/fpv4-sp/hard/crtend.o
 .text          0x00000000        0x0 c:/a/gcc_arm/6/bin/../lib/gcc/arm-none-eabi/6.3.1/thumb/v7e-m/fpv4-sp/hard/crtn.o
 .data          0x00000000        0x0 c:/a/gcc_arm/6/bin/../lib/gcc/arm-none-eabi/6.3.1/thumb/v7e-m/fpv4-sp/hard/crtn.o
 .bss           0x00000000        0x0 c:/a/gcc_arm/6/bin/../lib/gcc/arm-none-eabi/6.3.1/thumb/v7e-m/fpv4-sp/hard/crtn.o
 .text          0x00000000        0x0 c:/a/gcc_arm/6/bin/../lib/gcc/arm-none-eabi/6.3.1/../../../../arm-none-eabi/lib/thumb/v7e-m/fpv4-sp/hard\libnosys.a(sbrk.o)
 .data          0x00000000        0x0 c:/a/gcc_arm/6/bin/../lib/gcc/arm-none-eabi/6.3.1/../../../../arm-none-eabi/lib/thumb/v7e-m/fpv4-sp/hard\libnosys.a(sbrk.o)
 .bss           0x00000000        0x0 c:/a/gcc_arm/6/bin/../lib/gcc/arm-none-eabi/6.3.1/../../../../arm-none-eabi/lib/thumb/v7e-m/fpv4-sp/hard\libnosys.a(sbrk.o)
 .text          0x00000000        0x0 c:/a/gcc_arm/6/bin/../lib/gcc/arm-none-eabi/6.3.1/../../../../arm-none-eabi/lib/thumb/v7e-m/fpv4-sp/hard\libnosys.a(_exit.o)
 .data          0x00000000        0x0 c:/a/gcc_arm/6/bin/../lib/gcc/arm-none-eabi/6.3.1/../../../../arm-none-eabi/lib/thumb/v7e-m/fpv4-sp/hard\libnosys.a(_exit.o)
 .bss           0x00000000        0x0 c:/a/gcc_arm/6/bin/../lib/gcc/arm-none-eabi/6.3.1/../../../../arm-none-eabi/lib/thumb/v7e-m/fpv4-sp/hard\libnosys.a(_exit.o)

Memory Configuration

Name             Origin             Length             Attributes
FLASH            0x00024000         0x000dc000         xr
RAM              0x200031b8         0x0003ae4a         xrw
*default*        0x00000000         0xffffffff

Linker script and memory map

LOAD c:/a/gcc_arm/6/bin/../lib/gcc/arm-none-eabi/6.3.1/thumb/v7e-m/fpv4-sp/hard/crti.o
LOAD c:/a/gcc_arm/6/bin/../lib/gcc/arm-none-eabi/6.3.1/thumb/v7e-m/fpv4-sp/hard/crtbegin.o
LOAD c:/a/gcc_arm/6/bin/../lib/gcc/arm-none-eabi/6.3.1/../../../../arm-none-eabi/lib/thumb/v7e-m/fpv4-sp/hard/crt0.o
LOAD examples/dfu/CMakeFiles/dfu_nrf52840_xxAA_s140_5.0.0-3.alpha.dir/src/main.c.obj
LOAD examples/dfu/CMakeFiles/dfu_nrf52840_xxAA_s140_5.0.0-3.alpha.dir/__/nrf_mesh_sdk.c.obj
LOAD examples/dfu/CMakeFiles/dfu_nrf52840_xxAA_s140_5.0.0-3.alpha.dir/__/__/mesh/access/src/access_publish.c.obj
LOAD examples/dfu/CMakeFiles/dfu_nrf52840_xxAA_s140_5.0.0-3.alpha.dir/__/__/mesh/access/src/access.c.obj
LOAD examples/dfu/CMakeFiles/dfu_nrf52840_xxAA_s140_5.0.0-3.alpha.dir/__/__/mesh/access/src/access_reliable.c.obj
LOAD examples/dfu/CMakeFiles/dfu_nrf52840_xxAA_s140_5.0.0-3.alpha.dir/__/__/mesh/access/src/device_state_manager.c.obj
LOAD examples/dfu/CMakeFiles/dfu_nrf52840_xxAA_s140_5.0.0-3.alpha.dir/__/__/mesh/serial/src/serial_uart.c.obj
LOAD examples/dfu/CMakeFiles/dfu_nrf52840_xxAA_s140_5.0.0-3.alpha.dir/__/__/mesh/serial/src/serial_bearer.c.obj
LOAD examples/dfu/CMakeFiles/dfu_nrf52840_xxAA_s140_5.0.0-3.alpha.dir/__/__/mesh/serial/src/serial_handler_common.c.obj
LOAD examples/dfu/CMakeFiles/dfu_nrf52840_xxAA_s140_5.0.0-3.alpha.dir/__/__/mesh/serial/src/serial_handler_access.c.obj
LOAD examples/dfu/CMakeFiles/dfu_nrf52840_xxAA_s140_5.0.0-3.alpha.dir/__/__/mesh/serial/src/serial_handler_config.c.obj
LOAD examples/dfu/CMakeFiles/dfu_nrf52840_xxAA_s140_5.0.0-3.alpha.dir/__/__/mesh/serial/src/serial_handler_openmesh.c.obj
LOAD examples/dfu/CMakeFiles/dfu_nrf52840_xxAA_s140_5.0.0-3.alpha.dir/__/__/mesh/serial/src/serial.c.obj
LOAD examples/dfu/CMakeFiles/dfu_nrf52840_xxAA_s140_5.0.0-3.alpha.dir/__/__/mesh/serial/src/serial_handler_prov.c.obj
LOAD examples/dfu/CMakeFiles/dfu_nrf52840_xxAA_s140_5.0.0-3.alpha.dir/__/__/mesh/serial/src/serial_handler_dfu.c.obj
LOAD examples/dfu/CMakeFiles/dfu_nrf52840_xxAA_s140_5.0.0-3.alpha.dir/__/__/mesh/serial/src/serial_handler_mesh.c.obj
LOAD examples/dfu/CMakeFiles/dfu_nrf52840_xxAA_s140_5.0.0-3.alpha.dir/__/__/mesh/serial/src/serial_handler_models.c.obj
LOAD examples/dfu/CMakeFiles/dfu_nrf52840_xxAA_s140_5.0.0-3.alpha.dir/__/__/mesh/serial/src/serial_handler_device.c.obj
LOAD examples/dfu/CMakeFiles/dfu_nrf52840_xxAA_s140_5.0.0-3.alpha.dir/__/__/mesh/serial/src/nrf_mesh_serial.c.obj
LOAD examples/dfu/CMakeFiles/dfu_nrf52840_xxAA_s140_5.0.0-3.alpha.dir/__/__/mesh/serial/src/serial_handler_app.c.obj
LOAD examples/dfu/CMakeFiles/dfu_nrf52840_xxAA_s140_5.0.0-3.alpha.dir/__/__/mesh/prov/src/prov_provisioner.c.obj
LOAD examples/dfu/CMakeFiles/dfu_nrf52840_xxAA_s140_5.0.0-3.alpha.dir/__/__/mesh/prov/src/prov_provisionee.c.obj
LOAD examples/dfu/CMakeFiles/dfu_nrf52840_xxAA_s140_5.0.0-3.alpha.dir/__/__/mesh/prov/src/nrf_mesh_prov.c.obj
LOAD examples/dfu/CMakeFiles/dfu_nrf52840_xxAA_s140_5.0.0-3.alpha.dir/__/__/mesh/prov/src/provisioning.c.obj
LOAD examples/dfu/CMakeFiles/dfu_nrf52840_xxAA_s140_5.0.0-3.alpha.dir/__/__/mesh/prov/src/prov_beacon.c.obj
LOAD examples/dfu/CMakeFiles/dfu_nrf52840_xxAA_s140_5.0.0-3.alpha.dir/__/__/mesh/prov/src/prov_utils.c.obj
LOAD examples/dfu/CMakeFiles/dfu_nrf52840_xxAA_s140_5.0.0-3.alpha.dir/__/__/mesh/prov/src/prov_bearer_adv.c.obj
LOAD examples/dfu/CMakeFiles/dfu_nrf52840_xxAA_s140_5.0.0-3.alpha.dir/__/__/mesh/dfu/src/nrf_mesh_dfu.c.obj
LOAD examples/dfu/CMakeFiles/dfu_nrf52840_xxAA_s140_5.0.0-3.alpha.dir/__/nrf_mesh_weak.c.obj
LOAD examples/dfu/CMakeFiles/dfu_nrf52840_xxAA_s140_5.0.0-3.alpha.dir/__/__/external/nRF5_SDK_14.0.0_3bcc1f7/components/toolchain/system_nrf52840.c.obj
LOAD examples/dfu/CMakeFiles/dfu_nrf52840_xxAA_s140_5.0.0-3.alpha.dir/__/__/external/nRF5_SDK_14.0.0_3bcc1f7/components/toolchain/gcc/gcc_startup_nrf52840.S.obj
LOAD mesh/core/libmesh_core_nrf52840_xxAA.a
LOAD external/rtt/librtt_nrf52840_xxAA.a
LOAD external/micro-ecc/libuECC_nrf52840_xxAA.a
START GROUP
LOAD c:/a/gcc_arm/6/bin/../lib/gcc/arm-none-eabi/6.3.1/thumb/v7e-m/fpv4-sp/hard\libgcc.a
LOAD c:/a/gcc_arm/6/bin/../lib/gcc/arm-none-eabi/6.3.1/../../../../arm-none-eabi/lib/thumb/v7e-m/fpv4-sp/hard\libc_nano.a
END GROUP
START GROUP
LOAD c:/a/gcc_arm/6/bin/../lib/gcc/arm-none-eabi/6.3.1/thumb/v7e-m/fpv4-sp/hard\libgcc.a
LOAD c:/a/gcc_arm/6/bin/../lib/gcc/arm-none-eabi/6.3.1/../../../../arm-none-eabi/lib/thumb/v7e-m/fpv4-sp/hard\libc_nano.a
END GROUP
LOAD c:/a/gcc_arm/6/bin/../lib/gcc/arm-none-eabi/6.3.1/thumb/v7e-m/fpv4-sp/hard/crtend.o
LOAD c:/a/gcc_arm/6/bin/../lib/gcc/arm-none-eabi/6.3.1/thumb/v7e-m/fpv4-sp/hard/crtn.o
START GROUP
LOAD c:/a/gcc_arm/6/bin/../lib/gcc/arm-none-eabi/6.3.1/thumb/v7e-m/fpv4-sp/hard\libgcc.a
LOAD c:/a/gcc_arm/6/bin/../lib/gcc/arm-none-eabi/6.3.1/../../../../arm-none-eabi/lib/thumb/v7e-m/fpv4-sp/hard\libc.a
LOAD c:/a/gcc_arm/6/bin/../lib/gcc/arm-none-eabi/6.3.1/../../../../arm-none-eabi/lib/thumb/v7e-m/fpv4-sp/hard\libnosys.a
END GROUP

.text           0x00024000    0x1b64c
 *(.isr_vector)
 .isr_vector    0x00024000      0x200 examples/dfu/CMakeFiles/dfu_nrf52840_xxAA_s140_5.0.0-3.alpha.dir/__/__/external/nRF5_SDK_14.0.0_3bcc1f7/components/toolchain/gcc/gcc_startup_nrf52840.S.obj
                0x00024000                __isr_vector
 *(.text*)
 .text          0x00024200       0x6c c:/a/gcc_arm/6/bin/../lib/gcc/arm-none-eabi/6.3.1/thumb/v7e-m/fpv4-sp/hard/crtbegin.o
 .text          0x0002426c       0x74 c:/a/gcc_arm/6/bin/../lib/gcc/arm-none-eabi/6.3.1/../../../../arm-none-eabi/lib/thumb/v7e-m/fpv4-sp/hard/crt0.o
                0x0002426c                _start
                0x0002426c                _mainCRTStartup
 .text.mesh_evt_handler
                0x000242e0       0xe0 examples/dfu/CMakeFiles/dfu_nrf52840_xxAA_s140_5.0.0-3.alpha.dir/src/main.c.obj
 .text.startup.main
                0x000243c0      0x3bc examples/dfu/CMakeFiles/dfu_nrf52840_xxAA_s140_5.0.0-3.alpha.dir/src/main.c.obj
                0x000243c0                main
 .text.sd_evt_get
                0x0002477c        0x4 examples/dfu/CMakeFiles/dfu_nrf52840_xxAA_s140_5.0.0-3.alpha.dir/__/nrf_mesh_sdk.c.obj
 .text.sd_softdevice_enable
                0x00024780        0x4 examples/dfu/CMakeFiles/dfu_nrf52840_xxAA_s140_5.0.0-3.alpha.dir/__/nrf_mesh_sdk.c.obj
 .text.sd_ble_enable
                0x00024784        0x4 examples/dfu/CMakeFiles/dfu_nrf52840_xxAA_s140_5.0.0-3.alpha.dir/__/nrf_mesh_sdk.c.obj
 .text.sd_ble_evt_get
                0x00024788        0x4 examples/dfu/CMakeFiles/dfu_nrf52840_xxAA_s140_5.0.0-3.alpha.dir/__/nrf_mesh_sdk.c.obj
 .text.mesh_assert_handler
                0x0002478c       0x80 examples/dfu/CMakeFiles/dfu_nrf52840_xxAA_s140_5.0.0-3.alpha.dir/__/nrf_mesh_sdk.c.obj
                0x0002478c                mesh_assert_handler
 .text.softdevice_assert_handler
                0x0002480c       0x94 examples/dfu/CMakeFiles/dfu_nrf52840_xxAA_s140_5.0.0-3.alpha.dir/__/nrf_mesh_sdk.c.obj
                0x0002480c                softdevice_assert_handler
 .text.app_error_handler
                0x000248a0       0x88 examples/dfu/CMakeFiles/dfu_nrf52840_xxAA_s140_5.0.0-3.alpha.dir/__/nrf_mesh_sdk.c.obj
                0x000248a0                app_error_handler
 .text.HardFault_Handler
                0x00024928       0x78 examples/dfu/CMakeFiles/dfu_nrf52840_xxAA_s140_5.0.0-3.alpha.dir/__/nrf_mesh_sdk.c.obj
                0x00024928                HardFault_Handler
 .text.SWI2_EGU2_IRQHandler
                0x000249a0       0x40 examples/dfu/CMakeFiles/dfu_nrf52840_xxAA_s140_5.0.0-3.alpha.dir/__/nrf_mesh_sdk.c.obj
                0x000249a0                SWI2_EGU2_IRQHandler
 .text.mesh_softdevice_enable
                0x000249e0      0x14c examples/dfu/CMakeFiles/dfu_nrf52840_xxAA_s140_5.0.0-3.alpha.dir/__/nrf_mesh_sdk.c.obj
                0x000249e0                mesh_softdevice_enable
 .text.mesh_core_setup
                0x00024b2c      0x1c4 examples/dfu/CMakeFiles/dfu_nrf52840_xxAA_s140_5.0.0-3.alpha.dir/__/nrf_mesh_sdk.c.obj
                0x00024b2c                mesh_core_setup
 .text.add_to_publication_list
                0x00024cf0       0x8c examples/dfu/CMakeFiles/dfu_nrf52840_xxAA_s140_5.0.0-3.alpha.dir/__/__/mesh/access/src/access_publish.c.obj
 .text.schedule_publication_timer
                0x00024d7c      0x2f4 examples/dfu/CMakeFiles/dfu_nrf52840_xxAA_s140_5.0.0-3.alpha.dir/__/__/mesh/access/src/access_publish.c.obj
 .text.access_publish_period_set
                0x00025070       0xa4 examples/dfu/CMakeFiles/dfu_nrf52840_xxAA_s140_5.0.0-3.alpha.dir/__/__/mesh/access/src/access_publish.c.obj
                0x00025070                access_publish_period_set
 .text.access_publish_period_get
                0x00025114       0x38 examples/dfu/CMakeFiles/dfu_nrf52840_xxAA_s140_5.0.0-3.alpha.dir/__/__/mesh/access/src/access_publish.c.obj
                0x00025114                access_publish_period_get
 .text.flash_manager_mem_available
                0x0002514c        0x4 examples/dfu/CMakeFiles/dfu_nrf52840_xxAA_s140_5.0.0-3.alpha.dir/__/__/mesh/access/src/access.c.obj
 .text.access_flash_config_clear
                0x00025150       0x28 examples/dfu/CMakeFiles/dfu_nrf52840_xxAA_s140_5.0.0-3.alpha.dir/__/__/mesh/access/src/access.c.obj
 .text.access_flash_config_store
                0x00025178      0x138 examples/dfu/CMakeFiles/dfu_nrf52840_xxAA_s140_5.0.0-3.alpha.dir/__/__/mesh/access/src/access.c.obj
                0x00025178                access_flash_config_store
 .text.access_clear
                0x000252b0       0x6c examples/dfu/CMakeFiles/dfu_nrf52840_xxAA_s140_5.0.0-3.alpha.dir/__/__/mesh/access/src/access.c.obj
                0x000252b0                access_clear
 .text.access_model_publish_address_set
                0x0002531c       0x3c examples/dfu/CMakeFiles/dfu_nrf52840_xxAA_s140_5.0.0-3.alpha.dir/__/__/mesh/access/src/access.c.obj
                0x0002531c                access_model_publish_address_set
 .text.access_model_publish_address_get
                0x00025358       0x2c examples/dfu/CMakeFiles/dfu_nrf52840_xxAA_s140_5.0.0-3.alpha.dir/__/__/mesh/access/src/access.c.obj
                0x00025358                access_model_publish_address_get
 .text.access_model_publish_period_set
                0x00025384       0x78 examples/dfu/CMakeFiles/dfu_nrf52840_xxAA_s140_5.0.0-3.alpha.dir/__/__/mesh/access/src/access.c.obj
                0x00025384                access_model_publish_period_set
 .text.access_model_publish_period_get
                0x000253fc       0x40 examples/dfu/CMakeFiles/dfu_nrf52840_xxAA_s140_5.0.0-3.alpha.dir/__/__/mesh/access/src/access.c.obj
                0x000253fc                access_model_publish_period_get
 .text.access_model_subscription_add
                0x0002543c       0x60 examples/dfu/CMakeFiles/dfu_nrf52840_xxAA_s140_5.0.0-3.alpha.dir/__/__/mesh/access/src/access.c.obj
                0x0002543c                access_model_subscription_add
 .text.access_model_subscription_remove
                0x0002549c       0x60 examples/dfu/CMakeFiles/dfu_nrf52840_xxAA_s140_5.0.0-3.alpha.dir/__/__/mesh/access/src/access.c.obj
                0x0002549c                access_model_subscription_remove
 .text.access_model_subscriptions_get
                0x000254fc       0x7c examples/dfu/CMakeFiles/dfu_nrf52840_xxAA_s140_5.0.0-3.alpha.dir/__/__/mesh/access/src/access.c.obj
                0x000254fc                access_model_subscriptions_get
 .text.access_model_application_bind
                0x00025578       0x58 examples/dfu/CMakeFiles/dfu_nrf52840_xxAA_s140_5.0.0-3.alpha.dir/__/__/mesh/access/src/access.c.obj
                0x00025578                access_model_application_bind
 .text.access_model_application_unbind
                0x000255d0       0x58 examples/dfu/CMakeFiles/dfu_nrf52840_xxAA_s140_5.0.0-3.alpha.dir/__/__/mesh/access/src/access.c.obj
                0x000255d0                access_model_application_unbind
 .text.access_model_applications_get
                0x00025628       0xfc examples/dfu/CMakeFiles/dfu_nrf52840_xxAA_s140_5.0.0-3.alpha.dir/__/__/mesh/access/src/access.c.obj
                0x00025628                access_model_applications_get
 .text.access_model_publish_application_set
                0x00025724       0x3c examples/dfu/CMakeFiles/dfu_nrf52840_xxAA_s140_5.0.0-3.alpha.dir/__/__/mesh/access/src/access.c.obj
                0x00025724                access_model_publish_application_set
 .text.access_model_publish_application_get
                0x00025760       0x2c examples/dfu/CMakeFiles/dfu_nrf52840_xxAA_s140_5.0.0-3.alpha.dir/__/__/mesh/access/src/access.c.obj
                0x00025760                access_model_publish_application_get
 .text.access_model_publish_ttl_set
                0x0002578c       0x40 examples/dfu/CMakeFiles/dfu_nrf52840_xxAA_s140_5.0.0-3.alpha.dir/__/__/mesh/access/src/access.c.obj
                0x0002578c                access_model_publish_ttl_set
 .text.access_model_publish_ttl_get
                0x000257cc       0x2c examples/dfu/CMakeFiles/dfu_nrf52840_xxAA_s140_5.0.0-3.alpha.dir/__/__/mesh/access/src/access.c.obj
                0x000257cc                access_model_publish_ttl_get
 .text.access_element_location_set
                0x000257f8       0x20 examples/dfu/CMakeFiles/dfu_nrf52840_xxAA_s140_5.0.0-3.alpha.dir/__/__/mesh/access/src/access.c.obj
                0x000257f8                access_element_location_set
 .text.access_element_location_get
                0x00025818       0x18 examples/dfu/CMakeFiles/dfu_nrf52840_xxAA_s140_5.0.0-3.alpha.dir/__/__/mesh/access/src/access.c.obj
                0x00025818                access_element_location_get
 .text.access_element_sig_model_count_get
                0x00025830       0x18 examples/dfu/CMakeFiles/dfu_nrf52840_xxAA_s140_5.0.0-3.alpha.dir/__/__/mesh/access/src/access.c.obj
                0x00025830                access_element_sig_model_count_get
 .text.access_element_vendor_model_count_get
                0x00025848       0x18 examples/dfu/CMakeFiles/dfu_nrf52840_xxAA_s140_5.0.0-3.alpha.dir/__/__/mesh/access/src/access.c.obj
                0x00025848                access_element_vendor_model_count_get
 .text.access_model_id_get
                0x00025860       0x40 examples/dfu/CMakeFiles/dfu_nrf52840_xxAA_s140_5.0.0-3.alpha.dir/__/__/mesh/access/src/access.c.obj
                0x00025860                access_model_id_get
 .text.access_handle_get
                0x000258a0       0x5c examples/dfu/CMakeFiles/dfu_nrf52840_xxAA_s140_5.0.0-3.alpha.dir/__/__/mesh/access/src/access.c.obj
                0x000258a0                access_handle_get
 .text.access_element_models_get
                0x000258fc       0x60 examples/dfu/CMakeFiles/dfu_nrf52840_xxAA_s140_5.0.0-3.alpha.dir/__/__/mesh/access/src/access.c.obj
                0x000258fc                access_element_models_get
 .text.access_reliable_cancel_all
                0x0002595c       0x34 examples/dfu/CMakeFiles/dfu_nrf52840_xxAA_s140_5.0.0-3.alpha.dir/__/__/mesh/access/src/access_reliable.c.obj
                0x0002595c                access_reliable_cancel_all
 .text.addr_nonvirtual_to_dsm_entry
                0x00025990       0x48 examples/dfu/CMakeFiles/dfu_nrf52840_xxAA_s140_5.0.0-3.alpha.dir/__/__/mesh/access/src/device_state_manager.c.obj
 .text.addr_nonvirtual_to_flash_entry
                0x000259d8       0x10 examples/dfu/CMakeFiles/dfu_nrf52840_xxAA_s140_5.0.0-3.alpha.dir/__/__/mesh/access/src/device_state_manager.c.obj
 .text.flash_mem_listener_callback
                0x000259e8       0x28 examples/dfu/CMakeFiles/dfu_nrf52840_xxAA_s140_5.0.0-3.alpha.dir/__/__/mesh/access/src/device_state_manager.c.obj
 .text.devkey_to_flash_entry
                0x00025a10       0x28 examples/dfu/CMakeFiles/dfu_nrf52840_xxAA_s140_5.0.0-3.alpha.dir/__/__/mesh/access/src/device_state_manager.c.obj
 .text.appkey_to_flash_entry
                0x00025a38       0x28 examples/dfu/CMakeFiles/dfu_nrf52840_xxAA_s140_5.0.0-3.alpha.dir/__/__/mesh/access/src/device_state_manager.c.obj
 .text.subnet_to_flash_entry
                0x00025a60       0x24 examples/dfu/CMakeFiles/dfu_nrf52840_xxAA_s140_5.0.0-3.alpha.dir/__/__/mesh/access/src/device_state_manager.c.obj
 .text.addr_virtual_to_flash_entry
                0x00025a84       0x18 examples/dfu/CMakeFiles/dfu_nrf52840_xxAA_s140_5.0.0-3.alpha.dir/__/__/mesh/access/src/device_state_manager.c.obj
 .text.addr_unicast_to_dsm_entry
                0x00025a9c        0xc examples/dfu/CMakeFiles/dfu_nrf52840_xxAA_s140_5.0.0-3.alpha.dir/__/__/mesh/access/src/device_state_manager.c.obj
 .text.addr_unicast_to_flash_entry
                0x00025aa8       0x10 examples/dfu/CMakeFiles/dfu_nrf52840_xxAA_s140_5.0.0-3.alpha.dir/__/__/mesh/access/src/device_state_manager.c.obj
 .text.subnet_set
                0x00025ab8       0xac examples/dfu/CMakeFiles/dfu_nrf52840_xxAA_s140_5.0.0-3.alpha.dir/__/__/mesh/access/src/device_state_manager.c.obj
 .text.flash_save
                0x00025b64       0xa8 examples/dfu/CMakeFiles/dfu_nrf52840_xxAA_s140_5.0.0-3.alpha.dir/__/__/mesh/access/src/device_state_manager.c.obj
 .text.reset_flash_area
                0x00025c0c       0x28 examples/dfu/CMakeFiles/dfu_nrf52840_xxAA_s140_5.0.0-3.alpha.dir/__/__/mesh/access/src/device_state_manager.c.obj
 .text.devkey_to_dsm_entry
                0x00025c34       0x70 examples/dfu/CMakeFiles/dfu_nrf52840_xxAA_s140_5.0.0-3.alpha.dir/__/__/mesh/access/src/device_state_manager.c.obj
 .text.addr_virtual_to_dsm_entry
                0x00025ca4       0x6c examples/dfu/CMakeFiles/dfu_nrf52840_xxAA_s140_5.0.0-3.alpha.dir/__/__/mesh/access/src/device_state_manager.c.obj
 .text.appkey_to_dsm_entry
                0x00025d10       0x94 examples/dfu/CMakeFiles/dfu_nrf52840_xxAA_s140_5.0.0-3.alpha.dir/__/__/mesh/access/src/device_state_manager.c.obj
 .text.subnet_to_dsm_entry
                0x00025da4       0xbc examples/dfu/CMakeFiles/dfu_nrf52840_xxAA_s140_5.0.0-3.alpha.dir/__/__/mesh/access/src/device_state_manager.c.obj
 .text.address_delete_if_unused
                0x00025e60      0x100 examples/dfu/CMakeFiles/dfu_nrf52840_xxAA_s140_5.0.0-3.alpha.dir/__/__/mesh/access/src/device_state_manager.c.obj
 .text.dsm_clear
                0x00025f60      0x10c examples/dfu/CMakeFiles/dfu_nrf52840_xxAA_s140_5.0.0-3.alpha.dir/__/__/mesh/access/src/device_state_manager.c.obj
                0x00025f60                dsm_clear
 .text.dsm_local_unicast_addresses_set
                0x0002606c       0x78 examples/dfu/CMakeFiles/dfu_nrf52840_xxAA_s140_5.0.0-3.alpha.dir/__/__/mesh/access/src/device_state_manager.c.obj
                0x0002606c                dsm_local_unicast_addresses_set
 .text.dsm_local_unicast_addresses_get
                0x000260e4       0x2c examples/dfu/CMakeFiles/dfu_nrf52840_xxAA_s140_5.0.0-3.alpha.dir/__/__/mesh/access/src/device_state_manager.c.obj
                0x000260e4                dsm_local_unicast_addresses_get
 .text.dsm_address_publish_add
                0x00026110      0x330 examples/dfu/CMakeFiles/dfu_nrf52840_xxAA_s140_5.0.0-3.alpha.dir/__/__/mesh/access/src/device_state_manager.c.obj
                0x00026110                dsm_address_publish_add
 .text.dsm_address_publish_virtual_add
                0x00026440      0x268 examples/dfu/CMakeFiles/dfu_nrf52840_xxAA_s140_5.0.0-3.alpha.dir/__/__/mesh/access/src/device_state_manager.c.obj
                0x00026440                dsm_address_publish_virtual_add
 .text.dsm_address_publish_remove
                0x000266a8       0xbc examples/dfu/CMakeFiles/dfu_nrf52840_xxAA_s140_5.0.0-3.alpha.dir/__/__/mesh/access/src/device_state_manager.c.obj
                0x000266a8                dsm_address_publish_remove
 .text.dsm_address_subscription_add
                0x00026764      0x31c examples/dfu/CMakeFiles/dfu_nrf52840_xxAA_s140_5.0.0-3.alpha.dir/__/__/mesh/access/src/device_state_manager.c.obj
                0x00026764                dsm_address_subscription_add
 .text.dsm_address_subscription_virtual_add
                0x00026a80      0x268 examples/dfu/CMakeFiles/dfu_nrf52840_xxAA_s140_5.0.0-3.alpha.dir/__/__/mesh/access/src/device_state_manager.c.obj
                0x00026a80                dsm_address_subscription_virtual_add
 .text.dsm_address_subscription_get
                0x00026ce8       0x5c examples/dfu/CMakeFiles/dfu_nrf52840_xxAA_s140_5.0.0-3.alpha.dir/__/__/mesh/access/src/device_state_manager.c.obj
                0x00026ce8                dsm_address_subscription_get
 .text.dsm_address_subscription_remove
                0x00026d44       0x94 examples/dfu/CMakeFiles/dfu_nrf52840_xxAA_s140_5.0.0-3.alpha.dir/__/__/mesh/access/src/device_state_manager.c.obj
                0x00026d44                dsm_address_subscription_remove
 .text.dsm_address_get
                0x00026dd8       0x7c examples/dfu/CMakeFiles/dfu_nrf52840_xxAA_s140_5.0.0-3.alpha.dir/__/__/mesh/access/src/device_state_manager.c.obj
                0x00026dd8                dsm_address_get
 .text.dsm_address_get_all
                0x00026e54      0x258 examples/dfu/CMakeFiles/dfu_nrf52840_xxAA_s140_5.0.0-3.alpha.dir/__/__/mesh/access/src/device_state_manager.c.obj
                0x00026e54                dsm_address_get_all
 .text.dsm_address_handle_get
                0x000270ac      0x3cc examples/dfu/CMakeFiles/dfu_nrf52840_xxAA_s140_5.0.0-3.alpha.dir/__/__/mesh/access/src/device_state_manager.c.obj
                0x000270ac                dsm_address_handle_get
 .text.dsm_subnet_handle_get
                0x00027478       0x2c examples/dfu/CMakeFiles/dfu_nrf52840_xxAA_s140_5.0.0-3.alpha.dir/__/__/mesh/access/src/device_state_manager.c.obj
                0x00027478                dsm_subnet_handle_get
 .text.dsm_appkey_handle_get
                0x000274a4       0x40 examples/dfu/CMakeFiles/dfu_nrf52840_xxAA_s140_5.0.0-3.alpha.dir/__/__/mesh/access/src/device_state_manager.c.obj
                0x000274a4                dsm_appkey_handle_get
 .text.dsm_subnet_add
                0x000274e4       0xfc examples/dfu/CMakeFiles/dfu_nrf52840_xxAA_s140_5.0.0-3.alpha.dir/__/__/mesh/access/src/device_state_manager.c.obj
                0x000274e4                dsm_subnet_add
 .text.dsm_subnet_update
                0x000275e0       0x90 examples/dfu/CMakeFiles/dfu_nrf52840_xxAA_s140_5.0.0-3.alpha.dir/__/__/mesh/access/src/device_state_manager.c.obj
                0x000275e0                dsm_subnet_update
 .text.dsm_subnet_delete
                0x00027670      0x160 examples/dfu/CMakeFiles/dfu_nrf52840_xxAA_s140_5.0.0-3.alpha.dir/__/__/mesh/access/src/device_state_manager.c.obj
                0x00027670                dsm_subnet_delete
 .text.dsm_subnet_get_all
                0x000277d0       0x90 examples/dfu/CMakeFiles/dfu_nrf52840_xxAA_s140_5.0.0-3.alpha.dir/__/__/mesh/access/src/device_state_manager.c.obj
                0x000277d0                dsm_subnet_get_all
 .text.dsm_devkey_add
                0x00027860       0xb0 examples/dfu/CMakeFiles/dfu_nrf52840_xxAA_s140_5.0.0-3.alpha.dir/__/__/mesh/access/src/device_state_manager.c.obj
                0x00027860                dsm_devkey_add
 .text.dsm_devkey_delete
                0x00027910       0x6c examples/dfu/CMakeFiles/dfu_nrf52840_xxAA_s140_5.0.0-3.alpha.dir/__/__/mesh/access/src/device_state_manager.c.obj
                0x00027910                dsm_devkey_delete
 .text.dsm_appkey_add
                0x0002797c      0x1cc examples/dfu/CMakeFiles/dfu_nrf52840_xxAA_s140_5.0.0-3.alpha.dir/__/__/mesh/access/src/device_state_manager.c.obj
                0x0002797c                dsm_appkey_add
 .text.dsm_appkey_update
                0x00027b48       0xf0 examples/dfu/CMakeFiles/dfu_nrf52840_xxAA_s140_5.0.0-3.alpha.dir/__/__/mesh/access/src/device_state_manager.c.obj
                0x00027b48                dsm_appkey_update
 .text.dsm_appkey_delete
                0x00027c38       0x68 examples/dfu/CMakeFiles/dfu_nrf52840_xxAA_s140_5.0.0-3.alpha.dir/__/__/mesh/access/src/device_state_manager.c.obj
                0x00027c38                dsm_appkey_delete
 .text.dsm_appkey_get_all
                0x00027ca0      0x154 examples/dfu/CMakeFiles/dfu_nrf52840_xxAA_s140_5.0.0-3.alpha.dir/__/__/mesh/access/src/device_state_manager.c.obj
                0x00027ca0                dsm_appkey_get_all
 .text.dsm_tx_secmat_get
                0x00027df4       0xfc examples/dfu/CMakeFiles/dfu_nrf52840_xxAA_s140_5.0.0-3.alpha.dir/__/__/mesh/access/src/device_state_manager.c.obj
                0x00027df4                dsm_tx_secmat_get
 .text.nrf_mesh_net_secmat_next_get
                0x00027ef0       0xfc examples/dfu/CMakeFiles/dfu_nrf52840_xxAA_s140_5.0.0-3.alpha.dir/__/__/mesh/access/src/device_state_manager.c.obj
                0x00027ef0                nrf_mesh_net_secmat_next_get
 .text.nrf_mesh_app_secmat_next_get
                0x00027fec      0x220 examples/dfu/CMakeFiles/dfu_nrf52840_xxAA_s140_5.0.0-3.alpha.dir/__/__/mesh/access/src/device_state_manager.c.obj
                0x00027fec                nrf_mesh_app_secmat_next_get
 .text.nrf_mesh_devkey_secmat_get
                0x0002820c       0x3c examples/dfu/CMakeFiles/dfu_nrf52840_xxAA_s140_5.0.0-3.alpha.dir/__/__/mesh/access/src/device_state_manager.c.obj
                0x0002820c                nrf_mesh_devkey_secmat_get
 .text.nrf_mesh_beacon_info_next_get
                0x00028248      0x11c examples/dfu/CMakeFiles/dfu_nrf52840_xxAA_s140_5.0.0-3.alpha.dir/__/__/mesh/access/src/device_state_manager.c.obj
                0x00028248                nrf_mesh_beacon_info_next_get
 .text.nrf_mesh_rx_address_get
                0x00028364      0x558 examples/dfu/CMakeFiles/dfu_nrf52840_xxAA_s140_5.0.0-3.alpha.dir/__/__/mesh/access/src/device_state_manager.c.obj
                0x00028364                nrf_mesh_rx_address_get
 .text.UARTE0_UART0_IRQHandler
                0x000288bc       0x74 examples/dfu/CMakeFiles/dfu_nrf52840_xxAA_s140_5.0.0-3.alpha.dir/__/__/mesh/serial/src/serial_uart.c.obj
                0x000288bc                UARTE0_UART0_IRQHandler
 .text.serial_uart_init
                0x00028930       0xac examples/dfu/CMakeFiles/dfu_nrf52840_xxAA_s140_5.0.0-3.alpha.dir/__/__/mesh/serial/src/serial_uart.c.obj
                0x00028930                serial_uart_init
 .text.serial_uart_process
                0x000289dc       0x74 examples/dfu/CMakeFiles/dfu_nrf52840_xxAA_s140_5.0.0-3.alpha.dir/__/__/mesh/serial/src/serial_uart.c.obj
                0x000289dc                serial_uart_process
 .text.serial_uart_receive_set
                0x00028a50        0xc examples/dfu/CMakeFiles/dfu_nrf52840_xxAA_s140_5.0.0-3.alpha.dir/__/__/mesh/serial/src/serial_uart.c.obj
                0x00028a50                serial_uart_receive_set
 .text.do_transmit
                0x00028a5c       0x48 examples/dfu/CMakeFiles/dfu_nrf52840_xxAA_s140_5.0.0-3.alpha.dir/__/__/mesh/serial/src/serial_bearer.c.obj
 .text.char_tx  0x00028aa4       0x94 examples/dfu/CMakeFiles/dfu_nrf52840_xxAA_s140_5.0.0-3.alpha.dir/__/__/mesh/serial/src/serial_bearer.c.obj
 .text.serial_bearer_init
                0x00028b38       0x80 examples/dfu/CMakeFiles/dfu_nrf52840_xxAA_s140_5.0.0-3.alpha.dir/__/__/mesh/serial/src/serial_bearer.c.obj
                0x00028b38                serial_bearer_init
 .text.serial_bearer_blocking_buffer_get
                0x00028bb8       0x90 examples/dfu/CMakeFiles/dfu_nrf52840_xxAA_s140_5.0.0-3.alpha.dir/__/__/mesh/serial/src/serial_bearer.c.obj
                0x00028bb8                serial_bearer_blocking_buffer_get
 .text.serial_bearer_tx
                0x00028c48       0x70 examples/dfu/CMakeFiles/dfu_nrf52840_xxAA_s140_5.0.0-3.alpha.dir/__/__/mesh/serial/src/serial_bearer.c.obj
                0x00028c48                serial_bearer_tx
 .text.char_rx  0x00028cb8       0xd0 examples/dfu/CMakeFiles/dfu_nrf52840_xxAA_s140_5.0.0-3.alpha.dir/__/__/mesh/serial/src/serial_bearer.c.obj
 .text.serial_bearer_rx_get
                0x00028d88       0x3c examples/dfu/CMakeFiles/dfu_nrf52840_xxAA_s140_5.0.0-3.alpha.dir/__/__/mesh/serial/src/serial_bearer.c.obj
                0x00028d88                serial_bearer_rx_get
 .text.serial_handler_common_cmd_rsp_nodata_on_error
                0x00028dc4       0x38 examples/dfu/CMakeFiles/dfu_nrf52840_xxAA_s140_5.0.0-3.alpha.dir/__/__/mesh/serial/src/serial_handler_common.c.obj
                0x00028dc4                serial_handler_common_cmd_rsp_nodata_on_error
 .text.serial_handler_common_rx
                0x00028dfc       0x60 examples/dfu/CMakeFiles/dfu_nrf52840_xxAA_s140_5.0.0-3.alpha.dir/__/__/mesh/serial/src/serial_handler_common.c.obj
                0x00028dfc                serial_handler_common_rx
 .text.access_flash_store
                0x00028e5c       0x18 examples/dfu/CMakeFiles/dfu_nrf52840_xxAA_s140_5.0.0-3.alpha.dir/__/__/mesh/serial/src/serial_handler_access.c.obj
 .text.elem_models_get
                0x00028e74       0x50 examples/dfu/CMakeFiles/dfu_nrf52840_xxAA_s140_5.0.0-3.alpha.dir/__/__/mesh/serial/src/serial_handler_access.c.obj
 .text.handle_get
                0x00028ec4       0x20 examples/dfu/CMakeFiles/dfu_nrf52840_xxAA_s140_5.0.0-3.alpha.dir/__/__/mesh/serial/src/serial_handler_access.c.obj
 .text.model_id_get
                0x00028ee4       0x20 examples/dfu/CMakeFiles/dfu_nrf52840_xxAA_s140_5.0.0-3.alpha.dir/__/__/mesh/serial/src/serial_handler_access.c.obj
 .text.elem_vendor_model_cnt_get
                0x00028f04       0x20 examples/dfu/CMakeFiles/dfu_nrf52840_xxAA_s140_5.0.0-3.alpha.dir/__/__/mesh/serial/src/serial_handler_access.c.obj
 .text.elem_sig_model_cnt_get
                0x00028f24       0x20 examples/dfu/CMakeFiles/dfu_nrf52840_xxAA_s140_5.0.0-3.alpha.dir/__/__/mesh/serial/src/serial_handler_access.c.obj
 .text.elem_loc_get
                0x00028f44       0x20 examples/dfu/CMakeFiles/dfu_nrf52840_xxAA_s140_5.0.0-3.alpha.dir/__/__/mesh/serial/src/serial_handler_access.c.obj
 .text.elem_loc_set
                0x00028f64       0x24 examples/dfu/CMakeFiles/dfu_nrf52840_xxAA_s140_5.0.0-3.alpha.dir/__/__/mesh/serial/src/serial_handler_access.c.obj
 .text.model_pub_ttl_get
                0x00028f88       0x20 examples/dfu/CMakeFiles/dfu_nrf52840_xxAA_s140_5.0.0-3.alpha.dir/__/__/mesh/serial/src/serial_handler_access.c.obj
 .text.model_pub_ttl_set
                0x00028fa8       0x24 examples/dfu/CMakeFiles/dfu_nrf52840_xxAA_s140_5.0.0-3.alpha.dir/__/__/mesh/serial/src/serial_handler_access.c.obj
 .text.model_pub_app_get
                0x00028fcc       0x20 examples/dfu/CMakeFiles/dfu_nrf52840_xxAA_s140_5.0.0-3.alpha.dir/__/__/mesh/serial/src/serial_handler_access.c.obj
 .text.model_pub_app_set
                0x00028fec       0x24 examples/dfu/CMakeFiles/dfu_nrf52840_xxAA_s140_5.0.0-3.alpha.dir/__/__/mesh/serial/src/serial_handler_access.c.obj
 .text.model_app_get
                0x00029010       0x50 examples/dfu/CMakeFiles/dfu_nrf52840_xxAA_s140_5.0.0-3.alpha.dir/__/__/mesh/serial/src/serial_handler_access.c.obj
 .text.model_app_unbind
                0x00029060       0x24 examples/dfu/CMakeFiles/dfu_nrf52840_xxAA_s140_5.0.0-3.alpha.dir/__/__/mesh/serial/src/serial_handler_access.c.obj
 .text.model_app_bind
                0x00029084       0x24 examples/dfu/CMakeFiles/dfu_nrf52840_xxAA_s140_5.0.0-3.alpha.dir/__/__/mesh/serial/src/serial_handler_access.c.obj
 .text.model_subs_get
                0x000290a8       0x50 examples/dfu/CMakeFiles/dfu_nrf52840_xxAA_s140_5.0.0-3.alpha.dir/__/__/mesh/serial/src/serial_handler_access.c.obj
 .text.model_subs_remove
                0x000290f8       0x24 examples/dfu/CMakeFiles/dfu_nrf52840_xxAA_s140_5.0.0-3.alpha.dir/__/__/mesh/serial/src/serial_handler_access.c.obj
 .text.model_subs_add
                0x0002911c       0x24 examples/dfu/CMakeFiles/dfu_nrf52840_xxAA_s140_5.0.0-3.alpha.dir/__/__/mesh/serial/src/serial_handler_access.c.obj
 .text.model_pub_period_get
                0x00029140       0x24 examples/dfu/CMakeFiles/dfu_nrf52840_xxAA_s140_5.0.0-3.alpha.dir/__/__/mesh/serial/src/serial_handler_access.c.obj
 .text.model_pub_period_set
                0x00029164       0x24 examples/dfu/CMakeFiles/dfu_nrf52840_xxAA_s140_5.0.0-3.alpha.dir/__/__/mesh/serial/src/serial_handler_access.c.obj
 .text.model_pub_addr_get
                0x00029188       0x20 examples/dfu/CMakeFiles/dfu_nrf52840_xxAA_s140_5.0.0-3.alpha.dir/__/__/mesh/serial/src/serial_handler_access.c.obj
 .text.model_pub_addr_set
                0x000291a8       0x24 examples/dfu/CMakeFiles/dfu_nrf52840_xxAA_s140_5.0.0-3.alpha.dir/__/__/mesh/serial/src/serial_handler_access.c.obj
 .text.serial_handler_access_rx
                0x000291cc       0x30 examples/dfu/CMakeFiles/dfu_nrf52840_xxAA_s140_5.0.0-3.alpha.dir/__/__/mesh/serial/src/serial_handler_access.c.obj
                0x000291cc                serial_handler_access_rx
 .text.serial_handler_config_rx
                0x000291fc       0xf8 examples/dfu/CMakeFiles/dfu_nrf52840_xxAA_s140_5.0.0-3.alpha.dir/__/__/mesh/serial/src/serial_handler_config.c.obj
                0x000291fc                serial_handler_config_rx
 .text.serial_handler_openmesh_rx
                0x000292f4       0x38 examples/dfu/CMakeFiles/dfu_nrf52840_xxAA_s140_5.0.0-3.alpha.dir/__/__/mesh/serial/src/serial_handler_openmesh.c.obj
                0x000292f4                serial_handler_openmesh_rx
 .text.serial_process_cmd
                0x0002932c      0x218 examples/dfu/CMakeFiles/dfu_nrf52840_xxAA_s140_5.0.0-3.alpha.dir/__/__/mesh/serial/src/serial.c.obj
 .text.serial_init
                0x00029544       0x1c examples/dfu/CMakeFiles/dfu_nrf52840_xxAA_s140_5.0.0-3.alpha.dir/__/__/mesh/serial/src/serial.c.obj
                0x00029544                serial_init
 .text.serial_start
                0x00029560      0x134 examples/dfu/CMakeFiles/dfu_nrf52840_xxAA_s140_5.0.0-3.alpha.dir/__/__/mesh/serial/src/serial.c.obj
                0x00029560                serial_start
 .text.serial_packet_buffer_get
                0x00029694       0x14 examples/dfu/CMakeFiles/dfu_nrf52840_xxAA_s140_5.0.0-3.alpha.dir/__/__/mesh/serial/src/serial.c.obj
                0x00029694                serial_packet_buffer_get
 .text.serial_tx
                0x000296a8       0x34 examples/dfu/CMakeFiles/dfu_nrf52840_xxAA_s140_5.0.0-3.alpha.dir/__/__/mesh/serial/src/serial.c.obj
                0x000296a8                serial_tx
 .text.serial_process
                0x000296dc       0x34 examples/dfu/CMakeFiles/dfu_nrf52840_xxAA_s140_5.0.0-3.alpha.dir/__/__/mesh/serial/src/serial.c.obj
                0x000296dc                serial_process
 .text.serial_translate_error
                0x00029710       0x70 examples/dfu/CMakeFiles/dfu_nrf52840_xxAA_s140_5.0.0-3.alpha.dir/__/__/mesh/serial/src/serial.c.obj
                0x00029710                serial_translate_error
 .text.serial_state_get
                0x00029780        0xc examples/dfu/CMakeFiles/dfu_nrf52840_xxAA_s140_5.0.0-3.alpha.dir/__/__/mesh/serial/src/serial.c.obj
                0x00029780                serial_state_get
 .text.serial_cmd_rsp_send
                0x0002978c       0x8c examples/dfu/CMakeFiles/dfu_nrf52840_xxAA_s140_5.0.0-3.alpha.dir/__/__/mesh/serial/src/serial.c.obj
                0x0002978c                serial_cmd_rsp_send
 .text.serial_handler_prov_evt_in
                0x00029818      0x3a8 examples/dfu/CMakeFiles/dfu_nrf52840_xxAA_s140_5.0.0-3.alpha.dir/__/__/mesh/serial/src/serial_handler_prov.c.obj
 .text.serial_handler_prov_init
                0x00029bc0       0x98 examples/dfu/CMakeFiles/dfu_nrf52840_xxAA_s140_5.0.0-3.alpha.dir/__/__/mesh/serial/src/serial_handler_prov.c.obj
                0x00029bc0                serial_handler_prov_init
 .text.serial_handler_prov_pkt_in
                0x00029c58      0x264 examples/dfu/CMakeFiles/dfu_nrf52840_xxAA_s140_5.0.0-3.alpha.dir/__/__/mesh/serial/src/serial_handler_prov.c.obj
                0x00029c58                serial_handler_prov_pkt_in
 .text.serial_handler_mesh_evt_handle
                0x00029ebc      0x204 examples/dfu/CMakeFiles/dfu_nrf52840_xxAA_s140_5.0.0-3.alpha.dir/__/__/mesh/serial/src/serial_handler_dfu.c.obj
 .text.serial_handler_dfu_init
                0x0002a0c0       0x14 examples/dfu/CMakeFiles/dfu_nrf52840_xxAA_s140_5.0.0-3.alpha.dir/__/__/mesh/serial/src/serial_handler_dfu.c.obj
                0x0002a0c0                serial_handler_dfu_init
 .text.serial_handler_dfu_rx
                0x0002a0d4      0x178 examples/dfu/CMakeFiles/dfu_nrf52840_xxAA_s140_5.0.0-3.alpha.dir/__/__/mesh/serial/src/serial_handler_dfu.c.obj
                0x0002a0d4                serial_handler_dfu_rx
 .text.serial_handler_mesh_evt_handle
                0x0002a24c      0x168 examples/dfu/CMakeFiles/dfu_nrf52840_xxAA_s140_5.0.0-3.alpha.dir/__/__/mesh/serial/src/serial_handler_mesh.c.obj
 .text.handle_cmd_clear
                0x0002a3b4       0x20 examples/dfu/CMakeFiles/dfu_nrf52840_xxAA_s140_5.0.0-3.alpha.dir/__/__/mesh/serial/src/serial_handler_mesh.c.obj
 .text.handle_cmd_packet_send
                0x0002a3d4       0x90 examples/dfu/CMakeFiles/dfu_nrf52840_xxAA_s140_5.0.0-3.alpha.dir/__/__/mesh/serial/src/serial_handler_mesh.c.obj
 .text.handle_cmd_addr_virtual_count_max_get
                0x0002a464       0x1c examples/dfu/CMakeFiles/dfu_nrf52840_xxAA_s140_5.0.0-3.alpha.dir/__/__/mesh/serial/src/serial_handler_mesh.c.obj
 .text.handle_cmd_addr_nonvirtual_count_max_get
                0x0002a480       0x1c examples/dfu/CMakeFiles/dfu_nrf52840_xxAA_s140_5.0.0-3.alpha.dir/__/__/mesh/serial/src/serial_handler_mesh.c.obj
 .text.handle_cmd_addr_local_unicast_get
                0x0002a49c       0x24 examples/dfu/CMakeFiles/dfu_nrf52840_xxAA_s140_5.0.0-3.alpha.dir/__/__/mesh/serial/src/serial_handler_mesh.c.obj
 .text.handle_cmd_devkey_count_max_get
                0x0002a4c0       0x1c examples/dfu/CMakeFiles/dfu_nrf52840_xxAA_s140_5.0.0-3.alpha.dir/__/__/mesh/serial/src/serial_handler_mesh.c.obj
 .text.handle_cmd_subnet_count_max_get
                0x0002a4dc       0x1c examples/dfu/CMakeFiles/dfu_nrf52840_xxAA_s140_5.0.0-3.alpha.dir/__/__/mesh/serial/src/serial_handler_mesh.c.obj
 .text.handle_cmd_addr_get_all
                0x0002a4f8       0x28 examples/dfu/CMakeFiles/dfu_nrf52840_xxAA_s140_5.0.0-3.alpha.dir/__/__/mesh/serial/src/serial_handler_mesh.c.obj
 .text.handle_cmd_addr_get
                0x0002a520       0x64 examples/dfu/CMakeFiles/dfu_nrf52840_xxAA_s140_5.0.0-3.alpha.dir/__/__/mesh/serial/src/serial_handler_mesh.c.obj
 .text.handle_cmd_addr_publication_remove
                0x0002a584       0x28 examples/dfu/CMakeFiles/dfu_nrf52840_xxAA_s140_5.0.0-3.alpha.dir/__/__/mesh/serial/src/serial_handler_mesh.c.obj
 .text.handle_cmd_addr_publication_add_virtual
                0x0002a5ac       0x28 examples/dfu/CMakeFiles/dfu_nrf52840_xxAA_s140_5.0.0-3.alpha.dir/__/__/mesh/serial/src/serial_handler_mesh.c.obj
 .text.handle_cmd_addr_publication_add
                0x0002a5d4       0x28 examples/dfu/CMakeFiles/dfu_nrf52840_xxAA_s140_5.0.0-3.alpha.dir/__/__/mesh/serial/src/serial_handler_mesh.c.obj
 .text.handle_cmd_addr_subscription_remove
                0x0002a5fc       0x28 examples/dfu/CMakeFiles/dfu_nrf52840_xxAA_s140_5.0.0-3.alpha.dir/__/__/mesh/serial/src/serial_handler_mesh.c.obj
 .text.handle_cmd_addr_subscription_add_virtual
                0x0002a624       0x28 examples/dfu/CMakeFiles/dfu_nrf52840_xxAA_s140_5.0.0-3.alpha.dir/__/__/mesh/serial/src/serial_handler_mesh.c.obj
 .text.handle_cmd_addr_subscription_add
                0x0002a64c       0x28 examples/dfu/CMakeFiles/dfu_nrf52840_xxAA_s140_5.0.0-3.alpha.dir/__/__/mesh/serial/src/serial_handler_mesh.c.obj
 .text.handle_cmd_addr_local_unicast_set
                0x0002a674       0x24 examples/dfu/CMakeFiles/dfu_nrf52840_xxAA_s140_5.0.0-3.alpha.dir/__/__/mesh/serial/src/serial_handler_mesh.c.obj
 .text.handle_cmd_devkey_delete
                0x0002a698       0x28 examples/dfu/CMakeFiles/dfu_nrf52840_xxAA_s140_5.0.0-3.alpha.dir/__/__/mesh/serial/src/serial_handler_mesh.c.obj
 .text.handle_cmd_devkey_add
                0x0002a6c0       0x24 examples/dfu/CMakeFiles/dfu_nrf52840_xxAA_s140_5.0.0-3.alpha.dir/__/__/mesh/serial/src/serial_handler_mesh.c.obj
 .text.handle_cmd_appkey_get_all
                0x0002a6e4       0x40 examples/dfu/CMakeFiles/dfu_nrf52840_xxAA_s140_5.0.0-3.alpha.dir/__/__/mesh/serial/src/serial_handler_mesh.c.obj
 .text.handle_cmd_appkey_delete
                0x0002a724       0x28 examples/dfu/CMakeFiles/dfu_nrf52840_xxAA_s140_5.0.0-3.alpha.dir/__/__/mesh/serial/src/serial_handler_mesh.c.obj
 .text.handle_cmd_appkey_update
                0x0002a74c       0x2c examples/dfu/CMakeFiles/dfu_nrf52840_xxAA_s140_5.0.0-3.alpha.dir/__/__/mesh/serial/src/serial_handler_mesh.c.obj
 .text.handle_cmd_appkey_add
                0x0002a778       0x2c examples/dfu/CMakeFiles/dfu_nrf52840_xxAA_s140_5.0.0-3.alpha.dir/__/__/mesh/serial/src/serial_handler_mesh.c.obj
 .text.handle_cmd_subnet_get_all
                0x0002a7a4       0x38 examples/dfu/CMakeFiles/dfu_nrf52840_xxAA_s140_5.0.0-3.alpha.dir/__/__/mesh/serial/src/serial_handler_mesh.c.obj
 .text.handle_cmd_subnet_delete
                0x0002a7dc       0x28 examples/dfu/CMakeFiles/dfu_nrf52840_xxAA_s140_5.0.0-3.alpha.dir/__/__/mesh/serial/src/serial_handler_mesh.c.obj
 .text.handle_cmd_subnet_update
                0x0002a804       0x2c examples/dfu/CMakeFiles/dfu_nrf52840_xxAA_s140_5.0.0-3.alpha.dir/__/__/mesh/serial/src/serial_handler_mesh.c.obj
 .text.handle_cmd_subnet_add
                0x0002a830       0x2c examples/dfu/CMakeFiles/dfu_nrf52840_xxAA_s140_5.0.0-3.alpha.dir/__/__/mesh/serial/src/serial_handler_mesh.c.obj
 .text.handle_cmd_disable
                0x0002a85c       0x18 examples/dfu/CMakeFiles/dfu_nrf52840_xxAA_s140_5.0.0-3.alpha.dir/__/__/mesh/serial/src/serial_handler_mesh.c.obj
 .text.handle_cmd_enable
                0x0002a874       0x18 examples/dfu/CMakeFiles/dfu_nrf52840_xxAA_s140_5.0.0-3.alpha.dir/__/__/mesh/serial/src/serial_handler_mesh.c.obj
 .text.handle_cmd_appkey_count_max_get
                0x0002a88c       0x1c examples/dfu/CMakeFiles/dfu_nrf52840_xxAA_s140_5.0.0-3.alpha.dir/__/__/mesh/serial/src/serial_handler_mesh.c.obj
 .text.serial_handler_mesh_init
                0x0002a8a8       0x14 examples/dfu/CMakeFiles/dfu_nrf52840_xxAA_s140_5.0.0-3.alpha.dir/__/__/mesh/serial/src/serial_handler_mesh.c.obj
                0x0002a8a8                serial_handler_mesh_init
 .text.serial_handler_mesh_rx
                0x0002a8bc       0x8c examples/dfu/CMakeFiles/dfu_nrf52840_xxAA_s140_5.0.0-3.alpha.dir/__/__/mesh/serial/src/serial_handler_mesh.c.obj
                0x0002a8bc                serial_handler_mesh_rx
 .text.model_command
                0x0002a948       0x8c examples/dfu/CMakeFiles/dfu_nrf52840_xxAA_s140_5.0.0-3.alpha.dir/__/__/mesh/serial/src/serial_handler_models.c.obj
 .text.models_get
                0x0002a9d4       0x74 examples/dfu/CMakeFiles/dfu_nrf52840_xxAA_s140_5.0.0-3.alpha.dir/__/__/mesh/serial/src/serial_handler_models.c.obj
 .text.model_init
                0x0002aa48       0x64 examples/dfu/CMakeFiles/dfu_nrf52840_xxAA_s140_5.0.0-3.alpha.dir/__/__/mesh/serial/src/serial_handler_models.c.obj
 .text.serial_handler_models_rx
                0x0002aaac       0x30 examples/dfu/CMakeFiles/dfu_nrf52840_xxAA_s140_5.0.0-3.alpha.dir/__/__/mesh/serial/src/serial_handler_models.c.obj
                0x0002aaac                serial_handler_models_rx
 .text.handle_cmd_device_beacon_params_get
                0x0002aadc       0xb0 examples/dfu/CMakeFiles/dfu_nrf52840_xxAA_s140_5.0.0-3.alpha.dir/__/__/mesh/serial/src/serial_handler_device.c.obj
 .text.handle_cmd_device_fw_info_get
                0x0002ab8c        0xc examples/dfu/CMakeFiles/dfu_nrf52840_xxAA_s140_5.0.0-3.alpha.dir/__/__/mesh/serial/src/serial_handler_device.c.obj
 .text.handle_cmd_device_serial_version_get
                0x0002ab98       0x1c examples/dfu/CMakeFiles/dfu_nrf52840_xxAA_s140_5.0.0-3.alpha.dir/__/__/mesh/serial/src/serial_handler_device.c.obj
 .text.handle_cmd_device_beacon_params_set
                0x0002abb4       0x8c examples/dfu/CMakeFiles/dfu_nrf52840_xxAA_s140_5.0.0-3.alpha.dir/__/__/mesh/serial/src/serial_handler_device.c.obj
 .text.handle_cmd_device_beacon_stop
                0x0002ac40       0x48 examples/dfu/CMakeFiles/dfu_nrf52840_xxAA_s140_5.0.0-3.alpha.dir/__/__/mesh/serial/src/serial_handler_device.c.obj
 .text.handle_cmd_device_beacon_start
                0x0002ac88       0x70 examples/dfu/CMakeFiles/dfu_nrf52840_xxAA_s140_5.0.0-3.alpha.dir/__/__/mesh/serial/src/serial_handler_device.c.obj
 .text.handle_cmd_device_radio_reset
                0x0002acf8       0x1c examples/dfu/CMakeFiles/dfu_nrf52840_xxAA_s140_5.0.0-3.alpha.dir/__/__/mesh/serial/src/serial_handler_device.c.obj
 .text.handle_cmd_device_internal_events_report
                0x0002ad14       0x20 examples/dfu/CMakeFiles/dfu_nrf52840_xxAA_s140_5.0.0-3.alpha.dir/__/__/mesh/serial/src/serial_handler_device.c.obj
 .text.event_report_cb
                0x0002ad34       0x5c examples/dfu/CMakeFiles/dfu_nrf52840_xxAA_s140_5.0.0-3.alpha.dir/__/__/mesh/serial/src/serial_handler_device.c.obj
 .text.handle_cmd_device_echo
                0x0002ad90       0x40 examples/dfu/CMakeFiles/dfu_nrf52840_xxAA_s140_5.0.0-3.alpha.dir/__/__/mesh/serial/src/serial_handler_device.c.obj
 .text.serial_handler_device_init
                0x0002add0       0x14 examples/dfu/CMakeFiles/dfu_nrf52840_xxAA_s140_5.0.0-3.alpha.dir/__/__/mesh/serial/src/serial_handler_device.c.obj
                0x0002add0                serial_handler_device_init
 .text.serial_handler_device_rx
                0x0002ade4       0x30 examples/dfu/CMakeFiles/dfu_nrf52840_xxAA_s140_5.0.0-3.alpha.dir/__/__/mesh/serial/src/serial_handler_device.c.obj
                0x0002ade4                serial_handler_device_rx
 .text.nrf_mesh_serial_init
                0x0002ae14       0x3c examples/dfu/CMakeFiles/dfu_nrf52840_xxAA_s140_5.0.0-3.alpha.dir/__/__/mesh/serial/src/nrf_mesh_serial.c.obj
                0x0002ae14                nrf_mesh_serial_init
 .text.nrf_mesh_serial_enable
                0x0002ae50        0x4 examples/dfu/CMakeFiles/dfu_nrf52840_xxAA_s140_5.0.0-3.alpha.dir/__/__/mesh/serial/src/nrf_mesh_serial.c.obj
                0x0002ae50                nrf_mesh_serial_enable
 .text.serial_handler_app_cb_set
                0x0002ae54        0xc examples/dfu/CMakeFiles/dfu_nrf52840_xxAA_s140_5.0.0-3.alpha.dir/__/__/mesh/serial/src/serial_handler_app.c.obj
                0x0002ae54                serial_handler_app_cb_set
 .text.serial_handler_app_rx
                0x0002ae60       0x30 examples/dfu/CMakeFiles/dfu_nrf52840_xxAA_s140_5.0.0-3.alpha.dir/__/__/mesh/serial/src/serial_handler_app.c.obj
                0x0002ae60                serial_handler_app_rx
 .text.prov_provisioner_cb_link_closed
                0x0002ae90       0x2c examples/dfu/CMakeFiles/dfu_nrf52840_xxAA_s140_5.0.0-3.alpha.dir/__/__/mesh/prov/src/prov_provisioner.c.obj
 .text.prov_provisioner_cb_link_established
                0x0002aebc       0x44 examples/dfu/CMakeFiles/dfu_nrf52840_xxAA_s140_5.0.0-3.alpha.dir/__/__/mesh/prov/src/prov_provisioner.c.obj
 .text.prov_provisioner_cb_ack_received
                0x0002af00       0x4c examples/dfu/CMakeFiles/dfu_nrf52840_xxAA_s140_5.0.0-3.alpha.dir/__/__/mesh/prov/src/prov_provisioner.c.obj
 .text.prov_provisioner_pkt_in
                0x0002af4c      0x350 examples/dfu/CMakeFiles/dfu_nrf52840_xxAA_s140_5.0.0-3.alpha.dir/__/__/mesh/prov/src/prov_provisioner.c.obj
 .text.prov_provisioner_provision
                0x0002b29c       0x4c examples/dfu/CMakeFiles/dfu_nrf52840_xxAA_s140_5.0.0-3.alpha.dir/__/__/mesh/prov/src/prov_provisioner.c.obj
                0x0002b29c                prov_provisioner_provision
 .text.prov_provisioner_oob_use
                0x0002b2e8       0xb0 examples/dfu/CMakeFiles/dfu_nrf52840_xxAA_s140_5.0.0-3.alpha.dir/__/__/mesh/prov/src/prov_provisioner.c.obj
                0x0002b2e8                prov_provisioner_oob_use
 .text.prov_provisioner_auth_data
                0x0002b398       0x64 examples/dfu/CMakeFiles/dfu_nrf52840_xxAA_s140_5.0.0-3.alpha.dir/__/__/mesh/prov/src/prov_provisioner.c.obj
                0x0002b398                prov_provisioner_auth_data
 .text.prov_provisioner_shared_secret
                0x0002b3fc       0xcc examples/dfu/CMakeFiles/dfu_nrf52840_xxAA_s140_5.0.0-3.alpha.dir/__/__/mesh/prov/src/prov_provisioner.c.obj
                0x0002b3fc                prov_provisioner_shared_secret
 .text.prov_provisionee_cb_link_established
                0x0002b4c8       0x24 examples/dfu/CMakeFiles/dfu_nrf52840_xxAA_s140_5.0.0-3.alpha.dir/__/__/mesh/prov/src/prov_provisionee.c.obj
 .text.prov_provisionee_cb_link_closed
                0x0002b4ec       0x80 examples/dfu/CMakeFiles/dfu_nrf52840_xxAA_s140_5.0.0-3.alpha.dir/__/__/mesh/prov/src/prov_provisionee.c.obj
 .text.start_authentication
                0x0002b56c      0x128 examples/dfu/CMakeFiles/dfu_nrf52840_xxAA_s140_5.0.0-3.alpha.dir/__/__/mesh/prov/src/prov_provisionee.c.obj
 .text.prov_provisionee_cb_ack_received
                0x0002b694      0x11c examples/dfu/CMakeFiles/dfu_nrf52840_xxAA_s140_5.0.0-3.alpha.dir/__/__/mesh/prov/src/prov_provisionee.c.obj
 .text.prov_provisionee_pkt_in
                0x0002b7b0      0x30c examples/dfu/CMakeFiles/dfu_nrf52840_xxAA_s140_5.0.0-3.alpha.dir/__/__/mesh/prov/src/prov_provisionee.c.obj
 .text.prov_provisionee_init
                0x0002babc       0x40 examples/dfu/CMakeFiles/dfu_nrf52840_xxAA_s140_5.0.0-3.alpha.dir/__/__/mesh/prov/src/prov_provisionee.c.obj
                0x0002babc                prov_provisionee_init
 .text.prov_provisionee_auth_data
                0x0002bafc       0x84 examples/dfu/CMakeFiles/dfu_nrf52840_xxAA_s140_5.0.0-3.alpha.dir/__/__/mesh/prov/src/prov_provisionee.c.obj
                0x0002bafc                prov_provisionee_auth_data
 .text.prov_provisionee_shared_secret
                0x0002bb80       0xb4 examples/dfu/CMakeFiles/dfu_nrf52840_xxAA_s140_5.0.0-3.alpha.dir/__/__/mesh/prov/src/prov_provisionee.c.obj
                0x0002bb80                prov_provisionee_shared_secret
 .text.nrf_mesh_prov_init
                0x0002bc34       0x24 examples/dfu/CMakeFiles/dfu_nrf52840_xxAA_s140_5.0.0-3.alpha.dir/__/__/mesh/prov/src/nrf_mesh_prov.c.obj
                0x0002bc34                nrf_mesh_prov_init
 .text.nrf_mesh_prov_generate_keys
                0x0002bc58        0x4 examples/dfu/CMakeFiles/dfu_nrf52840_xxAA_s140_5.0.0-3.alpha.dir/__/__/mesh/prov/src/nrf_mesh_prov.c.obj
                0x0002bc58                nrf_mesh_prov_generate_keys
 .text.nrf_mesh_prov_listen
                0x0002bc5c       0x28 examples/dfu/CMakeFiles/dfu_nrf52840_xxAA_s140_5.0.0-3.alpha.dir/__/__/mesh/prov/src/nrf_mesh_prov.c.obj
                0x0002bc5c                nrf_mesh_prov_listen
 .text.nrf_mesh_prov_provision
                0x0002bc84       0x50 examples/dfu/CMakeFiles/dfu_nrf52840_xxAA_s140_5.0.0-3.alpha.dir/__/__/mesh/prov/src/nrf_mesh_prov.c.obj
                0x0002bc84                nrf_mesh_prov_provision
 .text.nrf_mesh_prov_oob_use
                0x0002bcd4       0x10 examples/dfu/CMakeFiles/dfu_nrf52840_xxAA_s140_5.0.0-3.alpha.dir/__/__/mesh/prov/src/nrf_mesh_prov.c.obj
                0x0002bcd4                nrf_mesh_prov_oob_use
 .text.nrf_mesh_prov_auth_data_provide
                0x0002bce4       0x10 examples/dfu/CMakeFiles/dfu_nrf52840_xxAA_s140_5.0.0-3.alpha.dir/__/__/mesh/prov/src/nrf_mesh_prov.c.obj
                0x0002bce4                nrf_mesh_prov_auth_data_provide
 .text.nrf_mesh_prov_shared_secret_provide
                0x0002bcf4       0x10 examples/dfu/CMakeFiles/dfu_nrf52840_xxAA_s140_5.0.0-3.alpha.dir/__/__/mesh/prov/src/nrf_mesh_prov.c.obj
                0x0002bcf4                nrf_mesh_prov_shared_secret_provide
 .text.prov_packet_length_valid
                0x0002bd04       0x20 examples/dfu/CMakeFiles/dfu_nrf52840_xxAA_s140_5.0.0-3.alpha.dir/__/__/mesh/prov/src/provisioning.c.obj
                0x0002bd04                prov_packet_length_valid
 .text.prov_init
                0x0002bd24       0x34 examples/dfu/CMakeFiles/dfu_nrf52840_xxAA_s140_5.0.0-3.alpha.dir/__/__/mesh/prov/src/provisioning.c.obj
                0x0002bd24                prov_init
 .text.prov_listen_start
                0x0002bd58       0x14 examples/dfu/CMakeFiles/dfu_nrf52840_xxAA_s140_5.0.0-3.alpha.dir/__/__/mesh/prov/src/provisioning.c.obj
                0x0002bd58                prov_listen_start
 .text.prov_link_open
                0x0002bd6c       0x14 examples/dfu/CMakeFiles/dfu_nrf52840_xxAA_s140_5.0.0-3.alpha.dir/__/__/mesh/prov/src/provisioning.c.obj
                0x0002bd6c                prov_link_open
 .text.prov_link_close
                0x0002bd80        0x8 examples/dfu/CMakeFiles/dfu_nrf52840_xxAA_s140_5.0.0-3.alpha.dir/__/__/mesh/prov/src/provisioning.c.obj
                0x0002bd80                prov_link_close
 .text.prov_tx_invite
                0x0002bd88       0x44 examples/dfu/CMakeFiles/dfu_nrf52840_xxAA_s140_5.0.0-3.alpha.dir/__/__/mesh/prov/src/provisioning.c.obj
                0x0002bd88                prov_tx_invite
 .text.prov_tx_capabilities
                0x0002bdcc       0x4c examples/dfu/CMakeFiles/dfu_nrf52840_xxAA_s140_5.0.0-3.alpha.dir/__/__/mesh/prov/src/provisioning.c.obj
                0x0002bdcc                prov_tx_capabilities
 .text.prov_tx_start
                0x0002be18       0x4c examples/dfu/CMakeFiles/dfu_nrf52840_xxAA_s140_5.0.0-3.alpha.dir/__/__/mesh/prov/src/provisioning.c.obj
                0x0002be18                prov_tx_start
 .text.prov_tx_public_key
                0x0002be64       0x40 examples/dfu/CMakeFiles/dfu_nrf52840_xxAA_s140_5.0.0-3.alpha.dir/__/__/mesh/prov/src/provisioning.c.obj
                0x0002be64                prov_tx_public_key
 .text.prov_tx_input_complete
                0x0002bea4       0x34 examples/dfu/CMakeFiles/dfu_nrf52840_xxAA_s140_5.0.0-3.alpha.dir/__/__/mesh/prov/src/provisioning.c.obj
                0x0002bea4                prov_tx_input_complete
 .text.prov_tx_confirmation
                0x0002bed8       0x40 examples/dfu/CMakeFiles/dfu_nrf52840_xxAA_s140_5.0.0-3.alpha.dir/__/__/mesh/prov/src/provisioning.c.obj
                0x0002bed8                prov_tx_confirmation
 .text.prov_tx_random
                0x0002bf18       0x40 examples/dfu/CMakeFiles/dfu_nrf52840_xxAA_s140_5.0.0-3.alpha.dir/__/__/mesh/prov/src/provisioning.c.obj
                0x0002bf18                prov_tx_random
 .text.prov_tx_complete
                0x0002bf58       0x34 examples/dfu/CMakeFiles/dfu_nrf52840_xxAA_s140_5.0.0-3.alpha.dir/__/__/mesh/prov/src/provisioning.c.obj
                0x0002bf58                prov_tx_complete
 .text.prov_tx_failed
                0x0002bf8c       0x38 examples/dfu/CMakeFiles/dfu_nrf52840_xxAA_s140_5.0.0-3.alpha.dir/__/__/mesh/prov/src/provisioning.c.obj
                0x0002bf8c                prov_tx_failed
 .text.prov_tx_data
                0x0002bfc4       0x48 examples/dfu/CMakeFiles/dfu_nrf52840_xxAA_s140_5.0.0-3.alpha.dir/__/__/mesh/prov/src/provisioning.c.obj
                0x0002bfc4                prov_tx_data
 .text.prov_cb_link_opened
                0x0002c00c        0x8 examples/dfu/CMakeFiles/dfu_nrf52840_xxAA_s140_5.0.0-3.alpha.dir/__/__/mesh/prov/src/provisioning.c.obj
                0x0002c00c                prov_cb_link_opened
 .text.prov_cb_link_closed
                0x0002c014        0x8 examples/dfu/CMakeFiles/dfu_nrf52840_xxAA_s140_5.0.0-3.alpha.dir/__/__/mesh/prov/src/provisioning.c.obj
                0x0002c014                prov_cb_link_closed
 .text.prov_cb_pkt_in
                0x0002c01c       0x88 examples/dfu/CMakeFiles/dfu_nrf52840_xxAA_s140_5.0.0-3.alpha.dir/__/__/mesh/prov/src/provisioning.c.obj
                0x0002c01c                prov_cb_pkt_in
 .text.prov_cb_ack_in
                0x0002c0a4        0x8 examples/dfu/CMakeFiles/dfu_nrf52840_xxAA_s140_5.0.0-3.alpha.dir/__/__/mesh/prov/src/provisioning.c.obj
                0x0002c0a4                prov_cb_ack_in
 .text.prov_beacon_unprov_build
                0x0002c0ac       0x54 examples/dfu/CMakeFiles/dfu_nrf52840_xxAA_s140_5.0.0-3.alpha.dir/__/__/mesh/prov/src/prov_beacon.c.obj
                0x0002c0ac                prov_beacon_unprov_build
 .text.prov_beacon_unprov_packet_in
                0x0002c100       0xbc examples/dfu/CMakeFiles/dfu_nrf52840_xxAA_s140_5.0.0-3.alpha.dir/__/__/mesh/prov/src/prov_beacon.c.obj
                0x0002c100                prov_beacon_unprov_packet_in
 .text.prov_utils_use_ecdh_offloading
                0x0002c1bc        0xc examples/dfu/CMakeFiles/dfu_nrf52840_xxAA_s140_5.0.0-3.alpha.dir/__/__/mesh/prov/src/prov_utils.c.obj
                0x0002c1bc                prov_utils_use_ecdh_offloading
 .text.prov_utils_authentication_values_derive
                0x0002c1c8       0xac examples/dfu/CMakeFiles/dfu_nrf52840_xxAA_s140_5.0.0-3.alpha.dir/__/__/mesh/prov/src/prov_utils.c.obj
                0x0002c1c8                prov_utils_authentication_values_derive
 .text.prov_utils_keys_generate
                0x0002c274       0x20 examples/dfu/CMakeFiles/dfu_nrf52840_xxAA_s140_5.0.0-3.alpha.dir/__/__/mesh/prov/src/prov_utils.c.obj
                0x0002c274                prov_utils_keys_generate
 .text.prov_utils_derive_keys
                0x0002c294       0xb4 examples/dfu/CMakeFiles/dfu_nrf52840_xxAA_s140_5.0.0-3.alpha.dir/__/__/mesh/prov/src/prov_utils.c.obj
                0x0002c294                prov_utils_derive_keys
 .text.prov_utils_calculate_shared_secret
                0x0002c348       0x38 examples/dfu/CMakeFiles/dfu_nrf52840_xxAA_s140_5.0.0-3.alpha.dir/__/__/mesh/prov/src/prov_utils.c.obj
                0x0002c348                prov_utils_calculate_shared_secret
 .text.prov_utils_generate_oob_data
                0x0002c380      0x1c8 examples/dfu/CMakeFiles/dfu_nrf52840_xxAA_s140_5.0.0-3.alpha.dir/__/__/mesh/prov/src/prov_utils.c.obj
                0x0002c380                prov_utils_generate_oob_data
 .text.prov_utils_confirmation_check
                0x0002c548       0x5c examples/dfu/CMakeFiles/dfu_nrf52840_xxAA_s140_5.0.0-3.alpha.dir/__/__/mesh/prov/src/prov_utils.c.obj
                0x0002c548                prov_utils_confirmation_check
 .text.remove_active_bearer
                0x0002c5a4       0x70 examples/dfu/CMakeFiles/dfu_nrf52840_xxAA_s140_5.0.0-3.alpha.dir/__/__/mesh/prov/src/prov_bearer_adv.c.obj
 .text.prov_bearer_adv_listen_stop
                0x0002c614       0x3c examples/dfu/CMakeFiles/dfu_nrf52840_xxAA_s140_5.0.0-3.alpha.dir/__/__/mesh/prov/src/prov_bearer_adv.c.obj
 .text.link_timeout_cb
                0x0002c650        0x8 examples/dfu/CMakeFiles/dfu_nrf52840_xxAA_s140_5.0.0-3.alpha.dir/__/__/mesh/prov/src/prov_bearer_adv.c.obj
 .text.tx_complete_cb
                0x0002c658       0x20 examples/dfu/CMakeFiles/dfu_nrf52840_xxAA_s140_5.0.0-3.alpha.dir/__/__/mesh/prov/src/prov_bearer_adv.c.obj
 .text.prov_bearer_adv_listen
                0x0002c678      0x160 examples/dfu/CMakeFiles/dfu_nrf52840_xxAA_s140_5.0.0-3.alpha.dir/__/__/mesh/prov/src/prov_bearer_adv.c.obj
 .text.prov_buffer_tx
                0x0002c7d8      0x218 examples/dfu/CMakeFiles/dfu_nrf52840_xxAA_s140_5.0.0-3.alpha.dir/__/__/mesh/prov/src/prov_bearer_adv.c.obj
 .text.prov_bearer_adv_tx
                0x0002c9f0       0xd4 examples/dfu/CMakeFiles/dfu_nrf52840_xxAA_s140_5.0.0-3.alpha.dir/__/__/mesh/prov/src/prov_bearer_adv.c.obj
 .text.send_link_ack
                0x0002cac4       0x90 examples/dfu/CMakeFiles/dfu_nrf52840_xxAA_s140_5.0.0-3.alpha.dir/__/__/mesh/prov/src/prov_bearer_adv.c.obj
 .text.tx_retry_cb
                0x0002cb54      0x148 examples/dfu/CMakeFiles/dfu_nrf52840_xxAA_s140_5.0.0-3.alpha.dir/__/__/mesh/prov/src/prov_bearer_adv.c.obj
 .text.send_transaction_ack
                0x0002cc9c       0x78 examples/dfu/CMakeFiles/dfu_nrf52840_xxAA_s140_5.0.0-3.alpha.dir/__/__/mesh/prov/src/prov_bearer_adv.c.obj
 .text.prov_buffer_rx
                0x0002cd14       0xa4 examples/dfu/CMakeFiles/dfu_nrf52840_xxAA_s140_5.0.0-3.alpha.dir/__/__/mesh/prov/src/prov_bearer_adv.c.obj
 .text.async_process
                0x0002cdb8       0xb4 examples/dfu/CMakeFiles/dfu_nrf52840_xxAA_s140_5.0.0-3.alpha.dir/__/__/mesh/prov/src/prov_bearer_adv.c.obj
 .text.prov_bearer_adv_link_open
                0x0002ce6c      0x1c4 examples/dfu/CMakeFiles/dfu_nrf52840_xxAA_s140_5.0.0-3.alpha.dir/__/__/mesh/prov/src/prov_bearer_adv.c.obj
 .text.prov_bearer_adv_link_close
                0x0002d030      0x154 examples/dfu/CMakeFiles/dfu_nrf52840_xxAA_s140_5.0.0-3.alpha.dir/__/__/mesh/prov/src/prov_bearer_adv.c.obj
 .text.prov_bearer_adv_interface_get
                0x0002d184       0x28 examples/dfu/CMakeFiles/dfu_nrf52840_xxAA_s140_5.0.0-3.alpha.dir/__/__/mesh/prov/src/prov_bearer_adv.c.obj
                0x0002d184                prov_bearer_adv_interface_get
 .text.prov_bearer_adv_packet_in
                0x0002d1ac      0x9d0 examples/dfu/CMakeFiles/dfu_nrf52840_xxAA_s140_5.0.0-3.alpha.dir/__/__/mesh/prov/src/prov_bearer_adv.c.obj
                0x0002d1ac                prov_bearer_adv_packet_in
 .text.tx_complete_cb
                0x0002db7c        0x4 examples/dfu/CMakeFiles/dfu_nrf52840_xxAA_s140_5.0.0-3.alpha.dir/__/__/mesh/dfu/src/nrf_mesh_dfu.c.obj
 .text.nrf_mesh_dfu_cmd_send.part.3
                0x0002db80       0x5c examples/dfu/CMakeFiles/dfu_nrf52840_xxAA_s140_5.0.0-3.alpha.dir/__/__/mesh/dfu/src/nrf_mesh_dfu.c.obj
 .text.tx_timeout
                0x0002dbdc      0x1fc examples/dfu/CMakeFiles/dfu_nrf52840_xxAA_s140_5.0.0-3.alpha.dir/__/__/mesh/dfu/src/nrf_mesh_dfu.c.obj
 .text.abort_timeout
                0x0002ddd8      0x148 examples/dfu/CMakeFiles/dfu_nrf52840_xxAA_s140_5.0.0-3.alpha.dir/__/__/mesh/dfu/src/nrf_mesh_dfu.c.obj
 .text.timer_timeout
                0x0002df20       0xf4 examples/dfu/CMakeFiles/dfu_nrf52840_xxAA_s140_5.0.0-3.alpha.dir/__/__/mesh/dfu/src/nrf_mesh_dfu.c.obj
 .text.flash_op_complete
                0x0002e014      0x210 examples/dfu/CMakeFiles/dfu_nrf52840_xxAA_s140_5.0.0-3.alpha.dir/__/__/mesh/dfu/src/nrf_mesh_dfu.c.obj
 .text.dfu_evt_handler
                0x0002e224      0xa8c examples/dfu/CMakeFiles/dfu_nrf52840_xxAA_s140_5.0.0-3.alpha.dir/__/__/mesh/dfu/src/nrf_mesh_dfu.c.obj
 .text.nrf_mesh_dfu_jump_to_bootloader
                0x0002ecb0       0x40 examples/dfu/CMakeFiles/dfu_nrf52840_xxAA_s140_5.0.0-3.alpha.dir/__/__/mesh/dfu/src/nrf_mesh_dfu.c.obj
                0x0002ecb0                nrf_mesh_dfu_jump_to_bootloader
 .text.nrf_mesh_dfu_request
                0x0002ecf0       0xe0 examples/dfu/CMakeFiles/dfu_nrf52840_xxAA_s140_5.0.0-3.alpha.dir/__/__/mesh/dfu/src/nrf_mesh_dfu.c.obj
                0x0002ecf0                nrf_mesh_dfu_request
 .text.nrf_mesh_dfu_relay
                0x0002edd0      0x10c examples/dfu/CMakeFiles/dfu_nrf52840_xxAA_s140_5.0.0-3.alpha.dir/__/__/mesh/dfu/src/nrf_mesh_dfu.c.obj
                0x0002edd0                nrf_mesh_dfu_relay
 .text.nrf_mesh_dfu_abort
                0x0002eedc       0xc4 examples/dfu/CMakeFiles/dfu_nrf52840_xxAA_s140_5.0.0-3.alpha.dir/__/__/mesh/dfu/src/nrf_mesh_dfu.c.obj
                0x0002eedc                nrf_mesh_dfu_abort
 .text.nrf_mesh_dfu_bank_info_get
                0x0002efa0       0xc0 examples/dfu/CMakeFiles/dfu_nrf52840_xxAA_s140_5.0.0-3.alpha.dir/__/__/mesh/dfu/src/nrf_mesh_dfu.c.obj
                0x0002efa0                nrf_mesh_dfu_bank_info_get
 .text.nrf_mesh_dfu_bank_flash
                0x0002f060       0xb4 examples/dfu/CMakeFiles/dfu_nrf52840_xxAA_s140_5.0.0-3.alpha.dir/__/__/mesh/dfu/src/nrf_mesh_dfu.c.obj
                0x0002f060                nrf_mesh_dfu_bank_flash
 .text.nrf_mesh_dfu_state_get
                0x0002f114       0x4c examples/dfu/CMakeFiles/dfu_nrf52840_xxAA_s140_5.0.0-3.alpha.dir/__/__/mesh/dfu/src/nrf_mesh_dfu.c.obj
                0x0002f114                nrf_mesh_dfu_state_get
 .text.nrf_mesh_dfu_cmd_send
                0x0002f160       0xa8 examples/dfu/CMakeFiles/dfu_nrf52840_xxAA_s140_5.0.0-3.alpha.dir/__/__/mesh/dfu/src/nrf_mesh_dfu.c.obj
                0x0002f160                nrf_mesh_dfu_cmd_send
 .text.nrf_mesh_dfu_init
                0x0002f208      0x228 examples/dfu/CMakeFiles/dfu_nrf52840_xxAA_s140_5.0.0-3.alpha.dir/__/__/mesh/dfu/src/nrf_mesh_dfu.c.obj
                0x0002f208                nrf_mesh_dfu_init
 .text.nrf_mesh_dfu_rx
                0x0002f430      0x224 examples/dfu/CMakeFiles/dfu_nrf52840_xxAA_s140_5.0.0-3.alpha.dir/__/__/mesh/dfu/src/nrf_mesh_dfu.c.obj
                0x0002f430                nrf_mesh_dfu_rx
 .text.SystemInit
                0x0002f654      0x1bc examples/dfu/CMakeFiles/dfu_nrf52840_xxAA_s140_5.0.0-3.alpha.dir/__/__/external/nRF5_SDK_14.0.0_3bcc1f7/components/toolchain/system_nrf52840.c.obj
                0x0002f654                SystemInit
 .text          0x0002f810       0x3c examples/dfu/CMakeFiles/dfu_nrf52840_xxAA_s140_5.0.0-3.alpha.dir/__/__/external/nRF5_SDK_14.0.0_3bcc1f7/components/toolchain/gcc/gcc_startup_nrf52840.S.obj
                0x0002f810                Reset_Handler
                0x0002f838                NMI_Handler
                0x0002f83c                MemoryManagement_Handler
                0x0002f83e                BusFault_Handler
                0x0002f840                UsageFault_Handler
                0x0002f842                SVC_Handler
                0x0002f844                DebugMon_Handler
                0x0002f846                PendSV_Handler
                0x0002f848                SysTick_Handler
                0x0002f84a                POWER_CLOCK_IRQHandler
                0x0002f84a                RADIO_IRQHandler
                0x0002f84a                PDM_IRQHandler
                0x0002f84a                TEMP_IRQHandler
                0x0002f84a                TIMER3_IRQHandler
                0x0002f84a                PWM3_IRQHandler
                0x0002f84a                FPU_IRQHandler
                0x0002f84a                USBD_IRQHandler
                0x0002f84a                SPIM0_SPIS0_TWIM0_TWIS0_SPI0_TWI0_IRQHandler
                0x0002f84a                PWM1_IRQHandler
                0x0002f84a                TIMER4_IRQHandler
                0x0002f84a                CRYPTOCELL_IRQHandler
                0x0002f84a                RTC0_IRQHandler
                0x0002f84a                SWI4_EGU4_IRQHandler
                0x0002f84a                TIMER0_IRQHandler
                0x0002f84a                GPIOTE_IRQHandler
                0x0002f84a                UARTE1_IRQHandler
                0x0002f84a                TIMER1_IRQHandler
                0x0002f84a                SPIM3_IRQHandler
                0x0002f84a                PWM2_IRQHandler
                0x0002f84a                ECB_IRQHandler
                0x0002f84a                SPIM1_SPIS1_TWIM1_TWIS1_SPI1_TWI1_IRQHandler
                0x0002f84a                Default_Handler
                0x0002f84a                SAADC_IRQHandler
                0x0002f84a                CCM_AAR_IRQHandler
                0x0002f84a                WDT_IRQHandler
                0x0002f84a                I2S_IRQHandler
                0x0002f84a                SWI5_EGU5_IRQHandler
                0x0002f84a                RNG_IRQHandler
                0x0002f84a                RTC2_IRQHandler
                0x0002f84a                PWM0_IRQHandler
                0x0002f84a                SWI3_EGU3_IRQHandler
                0x0002f84a                RTC1_IRQHandler
                0x0002f84a                SWI1_EGU1_IRQHandler
                0x0002f84a                SPIM2_SPIS2_SPI2_IRQHandler
                0x0002f84a                NFCT_IRQHandler
                0x0002f84a                SWI0_EGU0_IRQHandler
                0x0002f84a                MWU_IRQHandler
                0x0002f84a                TIMER2_IRQHandler
                0x0002f84a                QSPI_IRQHandler
                0x0002f84a                COMP_LPCOMP_IRQHandler
 .text.internal_event_init
                0x0002f84c       0x48 mesh/core/libmesh_core_nrf52840_xxAA.a(internal_event.c.obj)
                0x0002f84c                internal_event_init
 .text.internal_event_push
                0x0002f894       0x28 mesh/core/libmesh_core_nrf52840_xxAA.a(internal_event.c.obj)
                0x0002f894                internal_event_push
 .text.nrf_mesh_configure_device_uuid_set
                0x0002f8bc       0x10 mesh/core/libmesh_core_nrf52840_xxAA.a(nrf_mesh_configure.c.obj)
                0x0002f8bc                nrf_mesh_configure_device_uuid_set
 .text.nrf_mesh_configure_device_uuid_reset
                0x0002f8cc       0x2c mesh/core/libmesh_core_nrf52840_xxAA.a(nrf_mesh_configure.c.obj)
                0x0002f8cc                nrf_mesh_configure_device_uuid_reset
 .text.nrf_mesh_configure_device_uuid_get
                0x0002f8f8        0x8 mesh/core/libmesh_core_nrf52840_xxAA.a(nrf_mesh_configure.c.obj)
                0x0002f8f8                nrf_mesh_configure_device_uuid_get
 .text.event_handle
                0x0002f900       0x34 mesh/core/libmesh_core_nrf52840_xxAA.a(event.c.obj)
                0x0002f900                event_handle
 .text.event_handler_add
                0x0002f934       0x90 mesh/core/libmesh_core_nrf52840_xxAA.a(event.c.obj)
                0x0002f934                event_handler_add
 .text.packet_buffer_max_packet_len_get
                0x0002f9c4       0x3c mesh/core/libmesh_core_nrf52840_xxAA.a(packet_buffer.c.obj)
                0x0002f9c4                packet_buffer_max_packet_len_get
 .text.packet_buffer_init
                0x0002fa00       0xec mesh/core/libmesh_core_nrf52840_xxAA.a(packet_buffer.c.obj)
                0x0002fa00                packet_buffer_init
 .text.packet_buffer_flush
                0x0002faec       0xd4 mesh/core/libmesh_core_nrf52840_xxAA.a(packet_buffer.c.obj)
                0x0002faec                packet_buffer_flush
 .text.packet_buffer_reserve
                0x0002fbc0      0x150 mesh/core/libmesh_core_nrf52840_xxAA.a(packet_buffer.c.obj)
                0x0002fbc0                packet_buffer_reserve
 .text.packet_buffer_commit
                0x0002fd10      0x144 mesh/core/libmesh_core_nrf52840_xxAA.a(packet_buffer.c.obj)
                0x0002fd10                packet_buffer_commit
 .text.packet_buffer_pop
                0x0002fe54       0xc8 mesh/core/libmesh_core_nrf52840_xxAA.a(packet_buffer.c.obj)
                0x0002fe54                packet_buffer_pop
 .text.packet_buffer_can_pop
                0x0002ff1c       0x84 mesh/core/libmesh_core_nrf52840_xxAA.a(packet_buffer.c.obj)
                0x0002ff1c                packet_buffer_can_pop
 .text.packet_buffer_packets_ready_to_pop
                0x0002ffa0       0xb4 mesh/core/libmesh_core_nrf52840_xxAA.a(packet_buffer.c.obj)
                0x0002ffa0                packet_buffer_packets_ready_to_pop
 .text.packet_buffer_free
                0x00030054       0xf0 mesh/core/libmesh_core_nrf52840_xxAA.a(packet_buffer.c.obj)
                0x00030054                packet_buffer_free
 .text.fifo_init
                0x00030144       0x5c mesh/core/libmesh_core_nrf52840_xxAA.a(fifo.c.obj)
                0x00030144                fifo_init
 .text.fifo_push
                0x000301a0       0x54 mesh/core/libmesh_core_nrf52840_xxAA.a(fifo.c.obj)
                0x000301a0                fifo_push
 .text.fifo_pop
                0x000301f4       0x58 mesh/core/libmesh_core_nrf52840_xxAA.a(fifo.c.obj)
                0x000301f4                fifo_pop
 .text.flash_mem_available
                0x0003024c       0x28 mesh/core/libmesh_core_nrf52840_xxAA.a(net_state.c.obj)
 .text.flash_store_iv_index
                0x00030274       0x38 mesh/core/libmesh_core_nrf52840_xxAA.a(net_state.c.obj)
 .text.init_flash_storage
                0x000302ac       0x44 mesh/core/libmesh_core_nrf52840_xxAA.a(net_state.c.obj)
 .text.net_state_reset
                0x000302f0       0x3c mesh/core/libmesh_core_nrf52840_xxAA.a(net_state.c.obj)
                0x000302f0                net_state_reset
 .text.flash_write_complete
                0x0003032c       0x7c mesh/core/libmesh_core_nrf52840_xxAA.a(net_state.c.obj)
 .text.seqnum_block_allocate
                0x000303a8       0x4c mesh/core/libmesh_core_nrf52840_xxAA.a(net_state.c.obj)
 .text.iv_update_trigger_if_pending
                0x000303f4      0x17c mesh/core/libmesh_core_nrf52840_xxAA.a(net_state.c.obj)
 .text.iv_update_timer_handler
                0x00030570       0x80 mesh/core/libmesh_core_nrf52840_xxAA.a(net_state.c.obj)
 .text.net_state_recover_from_flash
                0x000305f0      0x10c mesh/core/libmesh_core_nrf52840_xxAA.a(net_state.c.obj)
                0x000305f0                net_state_recover_from_flash
 .text.net_state_init
                0x000306fc       0x80 mesh/core/libmesh_core_nrf52840_xxAA.a(net_state.c.obj)
                0x000306fc                net_state_init
 .text.net_state_seqnum_alloc
                0x0003077c       0xd4 mesh/core/libmesh_core_nrf52840_xxAA.a(net_state.c.obj)
                0x0003077c                net_state_seqnum_alloc
 .text.net_state_iv_index_lock
                0x00030850       0x50 mesh/core/libmesh_core_nrf52840_xxAA.a(net_state.c.obj)
                0x00030850                net_state_iv_index_lock
 .text.net_state_beacon_received
                0x000308a0       0xec mesh/core/libmesh_core_nrf52840_xxAA.a(net_state.c.obj)
                0x000308a0                net_state_beacon_received
 .text.net_state_beacon_iv_index_get
                0x0003098c        0xc mesh/core/libmesh_core_nrf52840_xxAA.a(net_state.c.obj)
                0x0003098c                net_state_beacon_iv_index_get
 .text.net_state_tx_iv_index_get
                0x00030998       0x14 mesh/core/libmesh_core_nrf52840_xxAA.a(net_state.c.obj)
                0x00030998                net_state_tx_iv_index_get
 .text.net_state_rx_iv_index_get
                0x000309ac       0x18 mesh/core/libmesh_core_nrf52840_xxAA.a(net_state.c.obj)
                0x000309ac                net_state_rx_iv_index_get
 .text.net_state_iv_update_get
                0x000309c4        0xc mesh/core/libmesh_core_nrf52840_xxAA.a(net_state.c.obj)
                0x000309c4                net_state_iv_update_get
 .text.send_end_events
                0x000309d0       0x8c mesh/core/libmesh_core_nrf52840_xxAA.a(mesh_flash.c.obj)
 .text.flash_op_schedule
                0x00030a5c       0xac mesh/core/libmesh_core_nrf52840_xxAA.a(mesh_flash.c.obj)
 .text.flash_op_start
                0x00030b08      0x1c4 mesh/core/libmesh_core_nrf52840_xxAA.a(mesh_flash.c.obj)
 .text.mesh_flash_init
                0x00030ccc       0x88 mesh/core/libmesh_core_nrf52840_xxAA.a(mesh_flash.c.obj)
                0x00030ccc                mesh_flash_init
 .text.mesh_flash_user_callback_set
                0x00030d54       0x2c mesh/core/libmesh_core_nrf52840_xxAA.a(mesh_flash.c.obj)
                0x00030d54                mesh_flash_user_callback_set
 .text.mesh_flash_op_push
                0x00030d80      0x140 mesh/core/libmesh_core_nrf52840_xxAA.a(mesh_flash.c.obj)
                0x00030d80                mesh_flash_op_push
 .text.mesh_flash_in_progress
                0x00030ec0       0x34 mesh/core/libmesh_core_nrf52840_xxAA.a(mesh_flash.c.obj)
                0x00030ec0                mesh_flash_in_progress
 .text.mesh_flash_set_suspended
                0x00030ef4       0x90 mesh/core/libmesh_core_nrf52840_xxAA.a(mesh_flash.c.obj)
                0x00030ef4                mesh_flash_set_suspended
 .text.nrf_mesh_address_type_get
                0x00030f84       0x10 mesh/core/libmesh_core_nrf52840_xxAA.a(nrf_mesh_utils.c.obj)
                0x00030f84                nrf_mesh_address_type_get
 .text.sd_softdevice_is_enabled
                0x00030f94        0x4 mesh/core/libmesh_core_nrf52840_xxAA.a(nrf_mesh.c.obj)
 .text.nrf_mesh_init
                0x00030f98       0xb8 mesh/core/libmesh_core_nrf52840_xxAA.a(nrf_mesh.c.obj)
                0x00030f98                nrf_mesh_init
 .text.nrf_mesh_enable
                0x00031050       0x50 mesh/core/libmesh_core_nrf52840_xxAA.a(nrf_mesh.c.obj)
                0x00031050                nrf_mesh_enable
 .text.nrf_mesh_disable
                0x000310a0       0x2c mesh/core/libmesh_core_nrf52840_xxAA.a(nrf_mesh.c.obj)
                0x000310a0                nrf_mesh_disable
 .text.nrf_mesh_packet_send
                0x000310cc        0x4 mesh/core/libmesh_core_nrf52840_xxAA.a(nrf_mesh.c.obj)
                0x000310cc                nrf_mesh_packet_send
 .text.nrf_mesh_process
                0x000310d0      0x21c mesh/core/libmesh_core_nrf52840_xxAA.a(nrf_mesh.c.obj)
                0x000310d0                nrf_mesh_process
 .text.nrf_mesh_on_ble_evt
                0x000312ec        0x4 mesh/core/libmesh_core_nrf52840_xxAA.a(nrf_mesh.c.obj)
                0x000312ec                nrf_mesh_on_ble_evt
 .text.nrf_mesh_on_sd_evt
                0x000312f0        0xc mesh/core/libmesh_core_nrf52840_xxAA.a(nrf_mesh.c.obj)
                0x000312f0                nrf_mesh_on_sd_evt
 .text.nrf_mesh_evt_handler_add
                0x000312fc        0x4 mesh/core/libmesh_core_nrf52840_xxAA.a(nrf_mesh.c.obj)
                0x000312fc                nrf_mesh_evt_handler_add
 .text.sd_power_reset_reason_clr
                0x00031300        0x4 mesh/core/libmesh_core_nrf52840_xxAA.a(hal.c.obj)
 .text.hal_device_reset
                0x00031304       0x2c mesh/core/libmesh_core_nrf52840_xxAA.a(hal.c.obj)
                0x00031304                hal_device_reset
 .text.hal_lfclk_ppm_get
                0x00031330       0x14 mesh/core/libmesh_core_nrf52840_xxAA.a(hal.c.obj)
                0x00031330                hal_lfclk_ppm_get
 .text.timer_cb
                0x00031344        0xc mesh/core/libmesh_core_nrf52840_xxAA.a(timer_scheduler.c.obj)
 .text.add_evt.constprop.0
                0x00031350       0x78 mesh/core/libmesh_core_nrf52840_xxAA.a(timer_scheduler.c.obj)
 .text.flag_event_cb
                0x000313c8      0x2e4 mesh/core/libmesh_core_nrf52840_xxAA.a(timer_scheduler.c.obj)
 .text.timer_sch_init
                0x000316ac       0x24 mesh/core/libmesh_core_nrf52840_xxAA.a(timer_scheduler.c.obj)
                0x000316ac                timer_sch_init
 .text.timer_sch_schedule
                0x000316d0       0x84 mesh/core/libmesh_core_nrf52840_xxAA.a(timer_scheduler.c.obj)
                0x000316d0                timer_sch_schedule
 .text.timer_sch_abort
                0x00031754       0x68 mesh/core/libmesh_core_nrf52840_xxAA.a(timer_scheduler.c.obj)
                0x00031754                timer_sch_abort
 .text.timer_sch_reschedule
                0x000317bc       0xa4 mesh/core/libmesh_core_nrf52840_xxAA.a(timer_scheduler.c.obj)
                0x000317bc                timer_sch_reschedule
 .text.timer_event_handler
                0x00031860       0xd8 mesh/core/libmesh_core_nrf52840_xxAA.a(timer.c.obj)
                0x00031860                timer_event_handler
 .text.timer_order_cb
                0x00031938       0x98 mesh/core/libmesh_core_nrf52840_xxAA.a(timer.c.obj)
                0x00031938                timer_order_cb
 .text.timer_now
                0x000319d0       0x58 mesh/core/libmesh_core_nrf52840_xxAA.a(timer.c.obj)
                0x000319d0                timer_now
 .text.timer_on_ts_begin
                0x00031a28      0x110 mesh/core/libmesh_core_nrf52840_xxAA.a(timer.c.obj)
                0x00031a28                timer_on_ts_begin
 .text.timer_on_ts_end
                0x00031b38       0x78 mesh/core/libmesh_core_nrf52840_xxAA.a(timer.c.obj)
                0x00031b38                timer_on_ts_end
 .text.timer_cb
                0x00031bb0       0x10 mesh/core/libmesh_core_nrf52840_xxAA.a(ticker.c.obj)
 .text.ticker_init
                0x00031bc0       0x3c mesh/core/libmesh_core_nrf52840_xxAA.a(ticker.c.obj)
                0x00031bc0                ticker_init
 .text.sd_rand_application_bytes_available_get
                0x00031bfc        0x4 mesh/core/libmesh_core_nrf52840_xxAA.a(rand.c.obj)
 .text.sd_rand_application_vector_get
                0x00031c00        0x4 mesh/core/libmesh_core_nrf52840_xxAA.a(rand.c.obj)
 .text.rand_prng_seed
                0x00031c04       0x6c mesh/core/libmesh_core_nrf52840_xxAA.a(rand.c.obj)
                0x00031c04                rand_prng_seed
 .text.rand_prng_get
                0x00031c70       0x28 mesh/core/libmesh_core_nrf52840_xxAA.a(rand.c.obj)
                0x00031c70                rand_prng_get
 .text.rand_hw_rng_get
                0x00031c98       0x58 mesh/core/libmesh_core_nrf52840_xxAA.a(rand.c.obj)
                0x00031c98                rand_hw_rng_get
 .text.sd_radio_session_open
                0x00031cf0        0x4 mesh/core/libmesh_core_nrf52840_xxAA.a(timeslot.c.obj)
 .text.sd_radio_session_close
                0x00031cf4        0x4 mesh/core/libmesh_core_nrf52840_xxAA.a(timeslot.c.obj)
 .text.sd_radio_request
                0x00031cf8        0x4 mesh/core/libmesh_core_nrf52840_xxAA.a(timeslot.c.obj)
 .text.end_timer_handler
                0x00031cfc       0x2c mesh/core/libmesh_core_nrf52840_xxAA.a(timeslot.c.obj)
 .text.radio_signal_callback
                0x00031d28      0x324 mesh/core/libmesh_core_nrf52840_xxAA.a(timeslot.c.obj)
 .text.timeslot_sd_event_handler
                0x0003204c       0x50 mesh/core/libmesh_core_nrf52840_xxAA.a(timeslot.c.obj)
                0x0003204c                timeslot_sd_event_handler
 .text.timeslot_init
                0x0003209c       0x4c mesh/core/libmesh_core_nrf52840_xxAA.a(timeslot.c.obj)
                0x0003209c                timeslot_init
 .text.timeslot_start
                0x000320e8       0x20 mesh/core/libmesh_core_nrf52840_xxAA.a(timeslot.c.obj)
                0x000320e8                timeslot_start
 .text.timeslot_stop
                0x00032108       0x30 mesh/core/libmesh_core_nrf52840_xxAA.a(timeslot.c.obj)
                0x00032108                timeslot_stop
 .text.timeslot_state_lock
                0x00032138       0x44 mesh/core/libmesh_core_nrf52840_xxAA.a(timeslot.c.obj)
                0x00032138                timeslot_state_lock
 .text.timeslot_end_is_pending
                0x0003217c       0x24 mesh/core/libmesh_core_nrf52840_xxAA.a(timeslot.c.obj)
                0x0003217c                timeslot_end_is_pending
 .text.timeslot_start_time_get
                0x000321a0        0xc mesh/core/libmesh_core_nrf52840_xxAA.a(timeslot.c.obj)
                0x000321a0                timeslot_start_time_get
 .text.timeslot_remaining_time_get
                0x000321ac       0x40 mesh/core/libmesh_core_nrf52840_xxAA.a(timeslot.c.obj)
                0x000321ac                timeslot_remaining_time_get
 .text.timeslot_is_in_cb
                0x000321ec        0xc mesh/core/libmesh_core_nrf52840_xxAA.a(timeslot.c.obj)
                0x000321ec                timeslot_is_in_cb
 .text.timeslot_trigger
                0x000321f8       0x24 mesh/core/libmesh_core_nrf52840_xxAA.a(timeslot.c.obj)
                0x000321f8                timeslot_trigger
 .text.QDEC_IRQHandler
                0x0003221c       0xe0 mesh/core/libmesh_core_nrf52840_xxAA.a(bearer_event.c.obj)
                0x0003221c                QDEC_IRQHandler
 .text.bearer_event_init
                0x000322fc       0x3c mesh/core/libmesh_core_nrf52840_xxAA.a(bearer_event.c.obj)
                0x000322fc                bearer_event_init
 .text.bearer_event_generic_post
                0x00032338       0x50 mesh/core/libmesh_core_nrf52840_xxAA.a(bearer_event.c.obj)
                0x00032338                bearer_event_generic_post
 .text.bearer_event_timer_post
                0x00032388       0x50 mesh/core/libmesh_core_nrf52840_xxAA.a(bearer_event.c.obj)
                0x00032388                bearer_event_timer_post
 .text.bearer_event_critical_section_begin
                0x000323d8       0x44 mesh/core/libmesh_core_nrf52840_xxAA.a(bearer_event.c.obj)
                0x000323d8                bearer_event_critical_section_begin
 .text.bearer_event_critical_section_end
                0x0003241c       0x44 mesh/core/libmesh_core_nrf52840_xxAA.a(bearer_event.c.obj)
                0x0003241c                bearer_event_critical_section_end
 .text.bearer_event_flag_add
                0x00032460       0x50 mesh/core/libmesh_core_nrf52840_xxAA.a(bearer_event.c.obj)
                0x00032460                bearer_event_flag_add
 .text.bearer_event_flag_set
                0x000324b0       0x58 mesh/core/libmesh_core_nrf52840_xxAA.a(bearer_event.c.obj)
                0x000324b0                bearer_event_flag_set
 .text.bearer_event_sequential_add
                0x00032508       0x48 mesh/core/libmesh_core_nrf52840_xxAA.a(bearer_event.c.obj)
                0x00032508                bearer_event_sequential_add
 .text.bearer_event_sequential_post
                0x00032550       0x6c mesh/core/libmesh_core_nrf52840_xxAA.a(bearer_event.c.obj)
                0x00032550                bearer_event_sequential_post
 .text.bearer_event_sequential_pending
                0x000325bc       0x20 mesh/core/libmesh_core_nrf52840_xxAA.a(bearer_event.c.obj)
                0x000325bc                bearer_event_sequential_pending
 .text.enc_aes_encrypt
                0x000325dc        0x4 mesh/core/libmesh_core_nrf52840_xxAA.a(enc.c.obj)
                0x000325dc                enc_aes_encrypt
 .text.enc_aes_cmac
                0x000325e0        0x4 mesh/core/libmesh_core_nrf52840_xxAA.a(enc.c.obj)
                0x000325e0                enc_aes_cmac
 .text.enc_aes_ccm_encrypt
                0x000325e4        0x4 mesh/core/libmesh_core_nrf52840_xxAA.a(enc.c.obj)
                0x000325e4                enc_aes_ccm_encrypt
 .text.enc_aes_ccm_decrypt
                0x000325e8        0x4 mesh/core/libmesh_core_nrf52840_xxAA.a(enc.c.obj)
                0x000325e8                enc_aes_ccm_decrypt
 .text.enc_nonce_generate
                0x000325ec       0xc4 mesh/core/libmesh_core_nrf52840_xxAA.a(enc.c.obj)
                0x000325ec                enc_nonce_generate
 .text.enc_s1   0x000326b0       0x40 mesh/core/libmesh_core_nrf52840_xxAA.a(enc.c.obj)
                0x000326b0                enc_s1
 .text.enc_k1   0x000326f0       0x50 mesh/core/libmesh_core_nrf52840_xxAA.a(enc.c.obj)
                0x000326f0                enc_k1
 .text.enc_k2   0x00032740       0xec mesh/core/libmesh_core_nrf52840_xxAA.a(enc.c.obj)
                0x00032740                enc_k2
 .text.enc_k3   0x0003282c       0x74 mesh/core/libmesh_core_nrf52840_xxAA.a(enc.c.obj)
                0x0003282c                enc_k3
 .text.enc_k4   0x000328a0       0x6c mesh/core/libmesh_core_nrf52840_xxAA.a(enc.c.obj)
                0x000328a0                enc_k4
 .text.network_init
                0x0003290c       0x28 mesh/core/libmesh_core_nrf52840_xxAA.a(network.c.obj)
                0x0003290c                network_init
 .text.network_packet_alloc
                0x00032934      0x1a4 mesh/core/libmesh_core_nrf52840_xxAA.a(network.c.obj)
                0x00032934                network_packet_alloc
 .text.network_packet_send
                0x00032ad8      0x1ec mesh/core/libmesh_core_nrf52840_xxAA.a(network.c.obj)
                0x00032ad8                network_packet_send
 .text.network_packet_in
                0x00032cc4      0x6c8 mesh/core/libmesh_core_nrf52840_xxAA.a(network.c.obj)
                0x00032cc4                network_packet_in
 .text.msq_init
                0x0003338c       0x98 mesh/core/libmesh_core_nrf52840_xxAA.a(msqueue.c.obj)
                0x0003338c                msq_init
 .text.msq_get  0x00033424       0x68 mesh/core/libmesh_core_nrf52840_xxAA.a(msqueue.c.obj)
                0x00033424                msq_get
 .text.msq_move
                0x0003348c       0x60 mesh/core/libmesh_core_nrf52840_xxAA.a(msqueue.c.obj)
                0x0003348c                msq_move
 .text.msq_available
                0x000334ec       0x58 mesh/core/libmesh_core_nrf52840_xxAA.a(msqueue.c.obj)
                0x000334ec                msq_available
 .text.nrf_mesh_keygen_aid
                0x00033544       0x18 mesh/core/libmesh_core_nrf52840_xxAA.a(nrf_mesh_keygen.c.obj)
                0x00033544                nrf_mesh_keygen_aid
 .text.nrf_mesh_keygen_network_secmat
                0x0003355c       0x24 mesh/core/libmesh_core_nrf52840_xxAA.a(nrf_mesh_keygen.c.obj)
                0x0003355c                nrf_mesh_keygen_network_secmat
 .text.nrf_mesh_keygen_beacon_secmat
                0x00033580       0x50 mesh/core/libmesh_core_nrf52840_xxAA.a(nrf_mesh_keygen.c.obj)
                0x00033580                nrf_mesh_keygen_beacon_secmat
 .text.nrf_mesh_keygen_virtual_address
                0x000335d0       0x50 mesh/core/libmesh_core_nrf52840_xxAA.a(nrf_mesh_keygen.c.obj)
                0x000335d0                nrf_mesh_keygen_virtual_address
 .text.log_callback_rtt
                0x00033620       0x2c mesh/core/libmesh_core_nrf52840_xxAA.a(log.c.obj)
                0x00033620                log_callback_rtt
 .text.log_init
                0x0003364c       0x20 mesh/core/libmesh_core_nrf52840_xxAA.a(log.c.obj)
                0x0003364c                log_init
 .text.log_printf
                0x0003366c       0x20 mesh/core/libmesh_core_nrf52840_xxAA.a(log.c.obj)
                0x0003366c                log_printf
 .text.process_action_queue
                0x0003368c      0x834 mesh/core/libmesh_core_nrf52840_xxAA.a(flash_manager.c.obj)
 .text.flash_op_ended_callback
                0x00033ec0       0x24 mesh/core/libmesh_core_nrf52840_xxAA.a(flash_manager.c.obj)
 .text.flash_manager_init
                0x00033ee4       0x68 mesh/core/libmesh_core_nrf52840_xxAA.a(flash_manager.c.obj)
                0x00033ee4                flash_manager_init
 .text.flash_manager_remove
                0x00033f4c       0x78 mesh/core/libmesh_core_nrf52840_xxAA.a(flash_manager.c.obj)
                0x00033f4c                flash_manager_remove
 .text.flash_manager_entry_next_get
                0x00033fc4      0x15c mesh/core/libmesh_core_nrf52840_xxAA.a(flash_manager.c.obj)
                0x00033fc4                flash_manager_entry_next_get
 .text.flash_manager_entry_alloc
                0x00034120       0x9c mesh/core/libmesh_core_nrf52840_xxAA.a(flash_manager.c.obj)
                0x00034120                flash_manager_entry_alloc
 .text.flash_manager_entry_commit
                0x000341bc       0x6c mesh/core/libmesh_core_nrf52840_xxAA.a(flash_manager.c.obj)
                0x000341bc                flash_manager_entry_commit
 .text.flash_manager_entry_invalidate
                0x00034228       0xb8 mesh/core/libmesh_core_nrf52840_xxAA.a(flash_manager.c.obj)
                0x00034228                flash_manager_entry_invalidate
 .text.flash_manager_add
                0x000342e0      0x474 mesh/core/libmesh_core_nrf52840_xxAA.a(flash_manager.c.obj)
                0x000342e0                flash_manager_add
 .text.flash_manager_mem_listener_register
                0x00034754       0x50 mesh/core/libmesh_core_nrf52840_xxAA.a(flash_manager.c.obj)
                0x00034754                flash_manager_mem_listener_register
 .text.flash_manager_is_stable
                0x000347a4       0x20 mesh/core/libmesh_core_nrf52840_xxAA.a(flash_manager.c.obj)
                0x000347a4                flash_manager_is_stable
 .text.flash_manager_on_defrag_end
                0x000347c4       0x64 mesh/core/libmesh_core_nrf52840_xxAA.a(flash_manager.c.obj)
                0x000347c4                flash_manager_on_defrag_end
 .text.flash_manager_recovery_page_get
                0x00034828        0x4 mesh/core/libmesh_core_nrf52840_xxAA.a(flash_manager.c.obj)
                0x00034828                flash_manager_recovery_page_get
 .text.ccm_soft_crypt.constprop.0
                0x0003482c      0x298 mesh/core/libmesh_core_nrf52840_xxAA.a(ccm_soft.c.obj)
 .text.ccm_soft_authenticate
                0x00034ac4      0x324 mesh/core/libmesh_core_nrf52840_xxAA.a(ccm_soft.c.obj)
 .text.ccm_soft_encrypt
                0x00034de8       0x78 mesh/core/libmesh_core_nrf52840_xxAA.a(ccm_soft.c.obj)
                0x00034de8                ccm_soft_encrypt
 .text.ccm_soft_decrypt
                0x00034e60      0x10c mesh/core/libmesh_core_nrf52840_xxAA.a(ccm_soft.c.obj)
                0x00034e60                ccm_soft_decrypt
 .text.beacon_init
                0x00034f6c       0x48 mesh/core/libmesh_core_nrf52840_xxAA.a(beacon.c.obj)
                0x00034f6c                beacon_init
 .text.beacon_tx
                0x00034fb4       0x6c mesh/core/libmesh_core_nrf52840_xxAA.a(beacon.c.obj)
                0x00034fb4                beacon_tx
 .text.beacon_create
                0x00035020       0x50 mesh/core/libmesh_core_nrf52840_xxAA.a(beacon.c.obj)
                0x00035020                beacon_create
 .text.beacon_packet_in
                0x00035070      0x180 mesh/core/libmesh_core_nrf52840_xxAA.a(beacon.c.obj)
                0x00035070                beacon_packet_in
 .text.entry_get
                0x000351f0       0x8c mesh/core/libmesh_core_nrf52840_xxAA.a(flash_manager_internal.c.obj)
                0x000351f0                entry_get
 .text.adv_tx_complete_callback
                0x0003527c       0x58 mesh/core/libmesh_core_nrf52840_xxAA.a(core_tx.c.obj)
 .text.core_tx_init
                0x000352d4       0x4c mesh/core/libmesh_core_nrf52840_xxAA.a(core_tx.c.obj)
                0x000352d4                core_tx_init
 .text.core_tx_complete_cb_set
                0x00035320        0xc mesh/core/libmesh_core_nrf52840_xxAA.a(core_tx.c.obj)
                0x00035320                core_tx_complete_cb_set
 .text.core_tx_packet_alloc
                0x0003532c       0xa4 mesh/core/libmesh_core_nrf52840_xxAA.a(core_tx.c.obj)
                0x0003532c                core_tx_packet_alloc
 .text.core_tx_packet_send
                0x000353d0       0x74 mesh/core/libmesh_core_nrf52840_xxAA.a(core_tx.c.obj)
                0x000353d0                core_tx_packet_send
 .text.core_tx_packet_discard
                0x00035444       0x74 mesh/core/libmesh_core_nrf52840_xxAA.a(core_tx.c.obj)
                0x00035444                core_tx_packet_discard
 .text.network_beacon_tx_cb
                0x000354b8      0x10c mesh/core/libmesh_core_nrf52840_xxAA.a(net_beacon.c.obj)
 .text.net_beacon_init
                0x000355c4       0x64 mesh/core/libmesh_core_nrf52840_xxAA.a(net_beacon.c.obj)
                0x000355c4                net_beacon_init
 .text.net_beacon_packet_in
                0x00035628       0xe0 mesh/core/libmesh_core_nrf52840_xxAA.a(net_beacon.c.obj)
                0x00035628                net_beacon_packet_in
 .text.tx_complete_event_callback
                0x00035708       0x40 mesh/core/libmesh_core_nrf52840_xxAA.a(advertiser.c.obj)
 .text.broadcast_complete_cb
                0x00035748       0x70 mesh/core/libmesh_core_nrf52840_xxAA.a(advertiser.c.obj)
 .text.timeout_event
                0x000357b8      0x13c mesh/core/libmesh_core_nrf52840_xxAA.a(advertiser.c.obj)
 .text.advertiser_init
                0x000358f4        0xc mesh/core/libmesh_core_nrf52840_xxAA.a(advertiser.c.obj)
                0x000358f4                advertiser_init
 .text.advertiser_instance_init
                0x00035900      0x11c mesh/core/libmesh_core_nrf52840_xxAA.a(advertiser.c.obj)
                0x00035900                advertiser_instance_init
 .text.advertiser_enable
                0x00035a1c       0x44 mesh/core/libmesh_core_nrf52840_xxAA.a(advertiser.c.obj)
                0x00035a1c                advertiser_enable
 .text.advertiser_disable
                0x00035a60        0xc mesh/core/libmesh_core_nrf52840_xxAA.a(advertiser.c.obj)
                0x00035a60                advertiser_disable
 .text.advertiser_packet_alloc
                0x00035a6c       0x9c mesh/core/libmesh_core_nrf52840_xxAA.a(advertiser.c.obj)
                0x00035a6c                advertiser_packet_alloc
 .text.advertiser_packet_send
                0x00035b08       0x98 mesh/core/libmesh_core_nrf52840_xxAA.a(advertiser.c.obj)
                0x00035b08                advertiser_packet_send
 .text.advertiser_packet_discard
                0x00035ba0       0x34 mesh/core/libmesh_core_nrf52840_xxAA.a(advertiser.c.obj)
                0x00035ba0                advertiser_packet_discard
 .text.advertiser_channels_set
                0x00035bd4       0xac mesh/core/libmesh_core_nrf52840_xxAA.a(advertiser.c.obj)
                0x00035bd4                advertiser_channels_set
 .text.advertiser_interval_set
                0x00035c80       0x80 mesh/core/libmesh_core_nrf52840_xxAA.a(advertiser.c.obj)
                0x00035c80                advertiser_interval_set
 .text.advertiser_flush
                0x00035d00       0x20 mesh/core/libmesh_core_nrf52840_xxAA.a(advertiser.c.obj)
                0x00035d00                advertiser_flush
 .text.advertiser_address_default_get
                0x00035d20       0x68 mesh/core/libmesh_core_nrf52840_xxAA.a(advertiser.c.obj)
                0x00035d20                advertiser_address_default_get
 .text.action_switch.part.2
                0x00035d88       0xc0 mesh/core/libmesh_core_nrf52840_xxAA.a(bearer_handler.c.obj)
 .text.bearer_handler_init
                0x00035e48       0x2c mesh/core/libmesh_core_nrf52840_xxAA.a(bearer_handler.c.obj)
                0x00035e48                bearer_handler_init
 .text.bearer_handler_start
                0x00035e74       0x1c mesh/core/libmesh_core_nrf52840_xxAA.a(bearer_handler.c.obj)
                0x00035e74                bearer_handler_start
 .text.bearer_handler_stop
                0x00035e90       0x20 mesh/core/libmesh_core_nrf52840_xxAA.a(bearer_handler.c.obj)
                0x00035e90                bearer_handler_stop
 .text.bearer_handler_action_enqueue
                0x00035eb0       0xa0 mesh/core/libmesh_core_nrf52840_xxAA.a(bearer_handler.c.obj)
                0x00035eb0                bearer_handler_action_enqueue
 .text.bearer_handler_action_end
                0x00035f50       0x84 mesh/core/libmesh_core_nrf52840_xxAA.a(bearer_handler.c.obj)
                0x00035f50                bearer_handler_action_end
 .text.bearer_handler_radio_irq_handler
                0x00035fd4       0x70 mesh/core/libmesh_core_nrf52840_xxAA.a(bearer_handler.c.obj)
                0x00035fd4                bearer_handler_radio_irq_handler
 .text.bearer_handler_timer_irq_handler
                0x00036044       0x3c mesh/core/libmesh_core_nrf52840_xxAA.a(bearer_handler.c.obj)
                0x00036044                bearer_handler_timer_irq_handler
 .text.bearer_handler_on_ts_begin
                0x00036080       0x4c mesh/core/libmesh_core_nrf52840_xxAA.a(bearer_handler.c.obj)
                0x00036080                bearer_handler_on_ts_begin
 .text.bearer_handler_on_ts_end
                0x000360cc       0x48 mesh/core/libmesh_core_nrf52840_xxAA.a(bearer_handler.c.obj)
                0x000360cc                bearer_handler_on_ts_end
 .text.radio_irq_handler
                0x00036114       0xb4 mesh/core/libmesh_core_nrf52840_xxAA.a(broadcast.c.obj)
 .text.broadcast_start
                0x000361c8       0x8c mesh/core/libmesh_core_nrf52840_xxAA.a(broadcast.c.obj)
 .text.broadcast_send
                0x00036254       0x8c mesh/core/libmesh_core_nrf52840_xxAA.a(broadcast.c.obj)
                0x00036254                broadcast_send
 .text.radio_config_reset
                0x000362e0       0x38 mesh/core/libmesh_core_nrf52840_xxAA.a(radio_config.c.obj)
                0x000362e0                radio_config_reset
 .text.radio_config_channel_set
                0x00036318       0x34 mesh/core/libmesh_core_nrf52840_xxAA.a(radio_config.c.obj)
                0x00036318                radio_config_channel_set
 .text.radio_config_config
                0x0003634c       0x78 mesh/core/libmesh_core_nrf52840_xxAA.a(radio_config.c.obj)
                0x0003634c                radio_config_config
 .text.radio_config_access_addr_set
                0x000363c4       0x68 mesh/core/libmesh_core_nrf52840_xxAA.a(radio_config.c.obj)
                0x000363c4                radio_config_access_addr_set
 .text.scan_window_end
                0x0003642c       0x28 mesh/core/libmesh_core_nrf52840_xxAA.a(scanner.c.obj)
 .text.scan_window_start
                0x00036454       0x38 mesh/core/libmesh_core_nrf52840_xxAA.a(scanner.c.obj)
 .text.radio_start
                0x0003648c      0x19c mesh/core/libmesh_core_nrf52840_xxAA.a(scanner.c.obj)
 .text.scanner_radio_start
                0x00036628      0x14c mesh/core/libmesh_core_nrf52840_xxAA.a(scanner.c.obj)
                0x00036628                scanner_radio_start
 .text.scanner_radio_stop
                0x00036774       0x34 mesh/core/libmesh_core_nrf52840_xxAA.a(scanner.c.obj)
                0x00036774                scanner_radio_stop
 .text.scanner_radio_irq_handler
                0x000367a8      0x200 mesh/core/libmesh_core_nrf52840_xxAA.a(scanner.c.obj)
                0x000367a8                scanner_radio_irq_handler
 .text.scanner_enable
                0x000369a8       0x5c mesh/core/libmesh_core_nrf52840_xxAA.a(scanner.c.obj)
                0x000369a8                scanner_enable
 .text.scanner_disable
                0x00036a04       0x5c mesh/core/libmesh_core_nrf52840_xxAA.a(scanner.c.obj)
                0x00036a04                scanner_disable
 .text.scanner_rx
                0x00036a60       0x84 mesh/core/libmesh_core_nrf52840_xxAA.a(scanner.c.obj)
                0x00036a60                scanner_rx
 .text.scanner_packet_release
                0x00036ae4       0x4c mesh/core/libmesh_core_nrf52840_xxAA.a(scanner.c.obj)
                0x00036ae4                scanner_packet_release
 .text.scanner_config_reset
                0x00036b30       0xa8 mesh/core/libmesh_core_nrf52840_xxAA.a(scanner.c.obj)
                0x00036b30                scanner_config_reset
 .text.scanner_init
                0x00036bd8       0x48 mesh/core/libmesh_core_nrf52840_xxAA.a(scanner.c.obj)
                0x00036bd8                scanner_init
 .text.sd_ecb_block_encrypt
                0x00036c20        0x4 mesh/core/libmesh_core_nrf52840_xxAA.a(aes.c.obj)
 .text.aes_encrypt
                0x00036c24       0x34 mesh/core/libmesh_core_nrf52840_xxAA.a(aes.c.obj)
                0x00036c24                aes_encrypt
 .text.msg_cache_init
                0x00036c58       0x24 mesh/core/libmesh_core_nrf52840_xxAA.a(msg_cache.c.obj)
                0x00036c58                msg_cache_init
 .text.msg_cache_entry_exists
                0x00036c7c       0x40 mesh/core/libmesh_core_nrf52840_xxAA.a(msg_cache.c.obj)
                0x00036c7c                msg_cache_entry_exists
 .text.msg_cache_entry_add
                0x00036cbc       0x30 mesh/core/libmesh_core_nrf52840_xxAA.a(msg_cache.c.obj)
                0x00036cbc                msg_cache_entry_add
 .text.tx_complete
                0x00036cec       0x34 mesh/core/libmesh_core_nrf52840_xxAA.a(transport.c.obj)
 .text.upper_trs_packet_encrypt
                0x00036d20       0xe0 mesh/core/libmesh_core_nrf52840_xxAA.a(transport.c.obj)
 .text.sar_ctx_alloc
                0x00036e00       0xd0 mesh/core/libmesh_core_nrf52840_xxAA.a(transport.c.obj)
 .text.trs_packet_header_build
                0x00036ed0       0xac mesh/core/libmesh_core_nrf52840_xxAA.a(transport.c.obj)
 .text.sar_ack_send
                0x00036f7c      0x144 mesh/core/libmesh_core_nrf52840_xxAA.a(transport.c.obj)
 .text.test_transport_decrypt
                0x000370c0       0x98 mesh/core/libmesh_core_nrf52840_xxAA.a(transport.c.obj)
 .text.upper_transport_access_packet_in
                0x00037158      0x34c mesh/core/libmesh_core_nrf52840_xxAA.a(transport.c.obj)
 .text.trs_sar_packet_out
                0x000374a4      0x19c mesh/core/libmesh_core_nrf52840_xxAA.a(transport.c.obj)
 .text.sar_ctx_cancel
                0x00037640      0x1d0 mesh/core/libmesh_core_nrf52840_xxAA.a(transport.c.obj)
 .text.abort_timeout
                0x00037810        0x8 mesh/core/libmesh_core_nrf52840_xxAA.a(transport.c.obj)
 .text.retry_timeout
                0x00037818       0xb0 mesh/core/libmesh_core_nrf52840_xxAA.a(transport.c.obj)
 .text.transport_sar_process
                0x000378c8      0x2a8 mesh/core/libmesh_core_nrf52840_xxAA.a(transport.c.obj)
 .text.upper_transport_packet_in
                0x00037b70      0x2e0 mesh/core/libmesh_core_nrf52840_xxAA.a(transport.c.obj)
 .text.ack_timeout
                0x00037e50      0x15c mesh/core/libmesh_core_nrf52840_xxAA.a(transport.c.obj)
 .text.transport_init
                0x00037fac       0x98 mesh/core/libmesh_core_nrf52840_xxAA.a(transport.c.obj)
                0x00037fac                transport_init
 .text.transport_packet_in
                0x00038044      0x824 mesh/core/libmesh_core_nrf52840_xxAA.a(transport.c.obj)
                0x00038044                transport_packet_in
 .text.transport_tx
                0x00038868      0x32c mesh/core/libmesh_core_nrf52840_xxAA.a(transport.c.obj)
                0x00038868                transport_tx
 .text.erase_source
                0x00038b94       0x34 mesh/core/libmesh_core_nrf52840_xxAA.a(flash_manager_defrag.c.obj)
 .text.erase_recovery_area
                0x00038bc8       0x34 mesh/core/libmesh_core_nrf52840_xxAA.a(flash_manager_defrag.c.obj)
 .text.write_back
                0x00038bfc       0x44 mesh/core/libmesh_core_nrf52840_xxAA.a(flash_manager_defrag.c.obj)
 .text.write_defrag_start_pointer
                0x00038c40       0x38 mesh/core/libmesh_core_nrf52840_xxAA.a(flash_manager_defrag.c.obj)
 .text.copy_metadata
                0x00038c78       0x58 mesh/core/libmesh_core_nrf52840_xxAA.a(flash_manager_defrag.c.obj)
 .text.seal_storage_page
                0x00038cd0       0x70 mesh/core/libmesh_core_nrf52840_xxAA.a(flash_manager_defrag.c.obj)
 .text.post_process
                0x00038d40       0x64 mesh/core/libmesh_core_nrf52840_xxAA.a(flash_manager_defrag.c.obj)
 .text.check_for_invalid_entries
                0x00038da4       0x40 mesh/core/libmesh_core_nrf52840_xxAA.a(flash_manager_defrag.c.obj)
 .text.execute_procedure_step
                0x00038de4       0xc0 mesh/core/libmesh_core_nrf52840_xxAA.a(flash_manager_defrag.c.obj)
 .text.on_flash_op_end
                0x00038ea4       0x4c mesh/core/libmesh_core_nrf52840_xxAA.a(flash_manager_defrag.c.obj)
 .text.invalidate_duplicate_entries
                0x00038ef0      0x148 mesh/core/libmesh_core_nrf52840_xxAA.a(flash_manager_defrag.c.obj)
 .text.backup_entries
                0x00039038      0x1fc mesh/core/libmesh_core_nrf52840_xxAA.a(flash_manager_defrag.c.obj)
 .text.flash_manager_defrag_init
                0x00039234       0x68 mesh/core/libmesh_core_nrf52840_xxAA.a(flash_manager_defrag.c.obj)
                0x00039234                flash_manager_defrag_init
 .text.flash_manager_defrag_is_running
                0x0003929c       0x10 mesh/core/libmesh_core_nrf52840_xxAA.a(flash_manager_defrag.c.obj)
                0x0003929c                flash_manager_defrag_is_running
 .text.flash_manager_defrag
                0x000392ac       0xe4 mesh/core/libmesh_core_nrf52840_xxAA.a(flash_manager_defrag.c.obj)
                0x000392ac                flash_manager_defrag
 .text.flash_manager_defrag_recovery_page_get
                0x00039390        0xc mesh/core/libmesh_core_nrf52840_xxAA.a(flash_manager_defrag.c.obj)
                0x00039390                flash_manager_defrag_recovery_page_get
 .text.nrf_flash_erase
                0x0003939c       0x5c mesh/core/libmesh_core_nrf52840_xxAA.a(nrf_flash.c.obj)
                0x0003939c                nrf_flash_erase
 .text.nrf_flash_write
                0x000393f8       0x6c mesh/core/libmesh_core_nrf52840_xxAA.a(nrf_flash.c.obj)
                0x000393f8                nrf_flash_write
 .text.packet_mgr_init
                0x00039464       0x4c mesh/core/libmesh_core_nrf52840_xxAA.a(packet_mgr.c.obj)
                0x00039464                packet_mgr_init
 .text.queue_init
                0x000394b0       0x28 mesh/core/libmesh_core_nrf52840_xxAA.a(queue.c.obj)
                0x000394b0                queue_init
 .text.queue_push
                0x000394d8       0x50 mesh/core/libmesh_core_nrf52840_xxAA.a(queue.c.obj)
                0x000394d8                queue_push
 .text.queue_pop
                0x00039528       0x40 mesh/core/libmesh_core_nrf52840_xxAA.a(queue.c.obj)
                0x00039528                queue_pop
 .text.queue_peek
                0x00039568       0x20 mesh/core/libmesh_core_nrf52840_xxAA.a(queue.c.obj)
                0x00039568                queue_peek
 .text.aes_cmac_subkey_generate
                0x00039588      0x2b0 mesh/core/libmesh_core_nrf52840_xxAA.a(aes_cmac.c.obj)
                0x00039588                aes_cmac_subkey_generate
 .text.aes_cmac
                0x00039838      0x49c mesh/core/libmesh_core_nrf52840_xxAA.a(aes_cmac.c.obj)
                0x00039838                aes_cmac
 .text.replay_cache_init
                0x00039cd4       0x28 mesh/core/libmesh_core_nrf52840_xxAA.a(replay_cache.c.obj)
                0x00039cd4                replay_cache_init
 .text.replay_cache_add
                0x00039cfc       0x68 mesh/core/libmesh_core_nrf52840_xxAA.a(replay_cache.c.obj)
                0x00039cfc                replay_cache_add
 .text.replay_cache_has_room
                0x00039d64       0x48 mesh/core/libmesh_core_nrf52840_xxAA.a(replay_cache.c.obj)
                0x00039d64                replay_cache_has_room
 .text.replay_cache_has_elem
                0x00039dac       0x40 mesh/core/libmesh_core_nrf52840_xxAA.a(replay_cache.c.obj)
                0x00039dac                replay_cache_has_elem
 .text.fen_filters_apply
                0x00039dec       0x38 mesh/core/libmesh_core_nrf52840_xxAA.a(filter_engine.c.obj)
                0x00039dec                fen_filters_apply
 .text.SEGGER_RTT_Write
                0x00039e24      0x1e4 external/rtt/librtt_nrf52840_xxAA.a(SEGGER_RTT.c.obj)
                0x00039e24                SEGGER_RTT_Write
 .text._PrintUnsigned
                0x0003a008      0x194 external/rtt/librtt_nrf52840_xxAA.a(SEGGER_RTT_printf.c.obj)
 .text.SEGGER_RTT_vprintf
                0x0003a19c      0x464 external/rtt/librtt_nrf52840_xxAA.a(SEGGER_RTT_printf.c.obj)
                0x0003a19c                SEGGER_RTT_vprintf
 .text.SEGGER_RTT_printf
                0x0003a600       0x20 external/rtt/librtt_nrf52840_xxAA.a(SEGGER_RTT_printf.c.obj)
                0x0003a600                SEGGER_RTT_printf
 .text.default_RNG
                0x0003a620        0xc external/micro-ecc/libuECC_nrf52840_xxAA.a(uECC.c.obj)
 .text.uECC_generate_random_int
                0x0003a62c      0x170 external/micro-ecc/libuECC_nrf52840_xxAA.a(uECC.c.obj)
 .text.apply_z  0x0003a79c      0x1a8 external/micro-ecc/libuECC_nrf52840_xxAA.a(uECC.c.obj)
 .text.uECC_vli_modAdd
                0x0003a944       0xc8 external/micro-ecc/libuECC_nrf52840_xxAA.a(uECC.c.obj)
 .text.x_side_default
                0x0003aa0c      0x254 external/micro-ecc/libuECC_nrf52840_xxAA.a(uECC.c.obj)
 .text.vli_mmod_fast_secp256r1
                0x0003ac60      0x520 external/micro-ecc/libuECC_nrf52840_xxAA.a(uECC.c.obj)
 .text.XYcZ_add
                0x0003b180      0x6dc external/micro-ecc/libuECC_nrf52840_xxAA.a(uECC.c.obj)
 .text.XYcZ_addC
                0x0003b85c      0xa94 external/micro-ecc/libuECC_nrf52840_xxAA.a(uECC.c.obj)
 .text.uECC_vli_modInv.part.4
                0x0003c2f0      0x6e8 external/micro-ecc/libuECC_nrf52840_xxAA.a(uECC.c.obj)
 .text.EccPoint_mult.constprop.5
                0x0003c9d8      0x470 external/micro-ecc/libuECC_nrf52840_xxAA.a(uECC.c.obj)
 .text.double_jacobian_default
                0x0003ce48      0x7ec external/micro-ecc/libuECC_nrf52840_xxAA.a(uECC.c.obj)
 .text.uECC_secp256r1
                0x0003d634        0x8 external/micro-ecc/libuECC_nrf52840_xxAA.a(uECC.c.obj)
                0x0003d634                uECC_secp256r1
 .text.uECC_make_key
                0x0003d63c      0x23c external/micro-ecc/libuECC_nrf52840_xxAA.a(uECC.c.obj)
                0x0003d63c                uECC_make_key
 .text.uECC_shared_secret
                0x0003d878      0x788 external/micro-ecc/libuECC_nrf52840_xxAA.a(uECC.c.obj)
                0x0003d878                uECC_shared_secret
 .text.uECC_valid_point
                0x0003e000      0x134 external/micro-ecc/libuECC_nrf52840_xxAA.a(uECC.c.obj)
                0x0003e000                uECC_valid_point
 .text.uECC_valid_public_key
                0x0003e134       0xe8 external/micro-ecc/libuECC_nrf52840_xxAA.a(uECC.c.obj)
                0x0003e134                uECC_valid_public_key
 .text.exit     0x0003e21c       0x28 c:/a/gcc_arm/6/bin/../lib/gcc/arm-none-eabi/6.3.1/../../../../arm-none-eabi/lib/thumb/v7e-m/fpv4-sp/hard\libc_nano.a(lib_a-exit.o)
                0x0003e21c                exit
 .text.__libc_init_array
                0x0003e244       0x48 c:/a/gcc_arm/6/bin/../lib/gcc/arm-none-eabi/6.3.1/../../../../arm-none-eabi/lib/thumb/v7e-m/fpv4-sp/hard\libc_nano.a(lib_a-init.o)
                0x0003e244                __libc_init_array
 .text.malloc   0x0003e28c       0x10 c:/a/gcc_arm/6/bin/../lib/gcc/arm-none-eabi/6.3.1/../../../../arm-none-eabi/lib/thumb/v7e-m/fpv4-sp/hard\libc_nano.a(lib_a-malloc.o)
                0x0003e28c                malloc
 .text.free     0x0003e29c       0x10 c:/a/gcc_arm/6/bin/../lib/gcc/arm-none-eabi/6.3.1/../../../../arm-none-eabi/lib/thumb/v7e-m/fpv4-sp/hard\libc_nano.a(lib_a-malloc.o)
                0x0003e29c                free
 .text.memcmp   0x0003e2ac       0x1e c:/a/gcc_arm/6/bin/../lib/gcc/arm-none-eabi/6.3.1/../../../../arm-none-eabi/lib/thumb/v7e-m/fpv4-sp/hard\libc_nano.a(lib_a-memcmp.o)
                0x0003e2ac                memcmp
 .text.memcpy   0x0003e2ca       0x16 c:/a/gcc_arm/6/bin/../lib/gcc/arm-none-eabi/6.3.1/../../../../arm-none-eabi/lib/thumb/v7e-m/fpv4-sp/hard\libc_nano.a(lib_a-memcpy-stub.o)
                0x0003e2ca                memcpy
 .text.memset   0x0003e2e0       0x10 c:/a/gcc_arm/6/bin/../lib/gcc/arm-none-eabi/6.3.1/../../../../arm-none-eabi/lib/thumb/v7e-m/fpv4-sp/hard\libc_nano.a(lib_a-memset.o)
                0x0003e2e0                memset
 .text._free_r  0x0003e2f0       0x9c c:/a/gcc_arm/6/bin/../lib/gcc/arm-none-eabi/6.3.1/../../../../arm-none-eabi/lib/thumb/v7e-m/fpv4-sp/hard\libc_nano.a(lib_a-nano-freer.o)
                0x0003e2f0                _free_r
 .text._malloc_r
                0x0003e38c       0xbc c:/a/gcc_arm/6/bin/../lib/gcc/arm-none-eabi/6.3.1/../../../../arm-none-eabi/lib/thumb/v7e-m/fpv4-sp/hard\libc_nano.a(lib_a-nano-mallocr.o)
                0x0003e38c                _malloc_r
 .text._sbrk_r  0x0003e448       0x20 c:/a/gcc_arm/6/bin/../lib/gcc/arm-none-eabi/6.3.1/../../../../arm-none-eabi/lib/thumb/v7e-m/fpv4-sp/hard\libc_nano.a(lib_a-sbrkr.o)
                0x0003e448                _sbrk_r
 .text.strcpy   0x0003e468       0x10 c:/a/gcc_arm/6/bin/../lib/gcc/arm-none-eabi/6.3.1/../../../../arm-none-eabi/lib/thumb/v7e-m/fpv4-sp/hard\libc_nano.a(lib_a-strcpy.o)
                0x0003e468                strcpy
 .text          0x0003e478       0x10 c:/a/gcc_arm/6/bin/../lib/gcc/arm-none-eabi/6.3.1/../../../../arm-none-eabi/lib/thumb/v7e-m/fpv4-sp/hard\libc_nano.a(lib_a-strlen.o)
                0x0003e478                strlen
 .text.strrchr  0x0003e488       0x26 c:/a/gcc_arm/6/bin/../lib/gcc/arm-none-eabi/6.3.1/../../../../arm-none-eabi/lib/thumb/v7e-m/fpv4-sp/hard\libc_nano.a(lib_a-strrchr.o)
                0x0003e488                strrchr
 .text.__malloc_lock
                0x0003e4ae        0x2 c:/a/gcc_arm/6/bin/../lib/gcc/arm-none-eabi/6.3.1/../../../../arm-none-eabi/lib/thumb/v7e-m/fpv4-sp/hard\libc_nano.a(lib_a-mlock.o)
                0x0003e4ae                __malloc_lock
 .text.__malloc_unlock
                0x0003e4b0        0x2 c:/a/gcc_arm/6/bin/../lib/gcc/arm-none-eabi/6.3.1/../../../../arm-none-eabi/lib/thumb/v7e-m/fpv4-sp/hard\libc_nano.a(lib_a-mlock.o)
                0x0003e4b0                __malloc_unlock
 .text.strchr   0x0003e4b2       0x1c c:/a/gcc_arm/6/bin/../lib/gcc/arm-none-eabi/6.3.1/../../../../arm-none-eabi/lib/thumb/v7e-m/fpv4-sp/hard\libc_nano.a(lib_a-strchr.o)
                0x0003e4b2                strchr
 *fill*         0x0003e4ce        0x2 
 .text._sbrk    0x0003e4d0       0x1c c:/a/gcc_arm/6/bin/../lib/gcc/arm-none-eabi/6.3.1/../../../../arm-none-eabi/lib/thumb/v7e-m/fpv4-sp/hard\libnosys.a(sbrk.o)
                0x0003e4d0                _sbrk
 .text._exit    0x0003e4ec        0x4 c:/a/gcc_arm/6/bin/../lib/gcc/arm-none-eabi/6.3.1/../../../../arm-none-eabi/lib/thumb/v7e-m/fpv4-sp/hard\libnosys.a(_exit.o)
                0x0003e4ec                _exit
 *(.init)
 .init          0x0003e4f0        0x4 c:/a/gcc_arm/6/bin/../lib/gcc/arm-none-eabi/6.3.1/thumb/v7e-m/fpv4-sp/hard/crti.o
                0x0003e4f0                _init
 .init          0x0003e4f4        0x8 c:/a/gcc_arm/6/bin/../lib/gcc/arm-none-eabi/6.3.1/thumb/v7e-m/fpv4-sp/hard/crtn.o
 *(.fini)
 .fini          0x0003e4fc        0x4 c:/a/gcc_arm/6/bin/../lib/gcc/arm-none-eabi/6.3.1/thumb/v7e-m/fpv4-sp/hard/crti.o
                0x0003e4fc                _fini
 .fini          0x0003e500        0x8 c:/a/gcc_arm/6/bin/../lib/gcc/arm-none-eabi/6.3.1/thumb/v7e-m/fpv4-sp/hard/crtn.o
 *crtbegin.o(.ctors)
 *crtbegin?.o(.ctors)
 *(EXCLUDE_FILE(*crtend.o *crtend?.o) .ctors)
 *(SORT(.ctors.*))
 *(.ctors)
 *crtbegin.o(.dtors)
 *crtbegin?.o(.dtors)
 *(EXCLUDE_FILE(*crtend.o *crtend?.o) .dtors)
 *(SORT(.dtors.*))
 *(.dtors)
 *(.rodata*)
 .rodata.main.str1.4
                0x0003e508       0xa2 examples/dfu/CMakeFiles/dfu_nrf52840_xxAA_s140_5.0.0-3.alpha.dir/src/main.c.obj
 *fill*         0x0003e5aa        0x2 
 .rodata.mesh_evt_handler.str1.4
                0x0003e5ac       0x1b examples/dfu/CMakeFiles/dfu_nrf52840_xxAA_s140_5.0.0-3.alpha.dir/src/main.c.obj
 *fill*         0x0003e5c7        0x1 
 .rodata.HardFault_Handler.str1.4
                0x0003e5c8        0xe examples/dfu/CMakeFiles/dfu_nrf52840_xxAA_s140_5.0.0-3.alpha.dir/__/nrf_mesh_sdk.c.obj
 *fill*         0x0003e5d6        0x2 
 .rodata.app_error_handler.str1.4
                0x0003e5d8       0x1d examples/dfu/CMakeFiles/dfu_nrf52840_xxAA_s140_5.0.0-3.alpha.dir/__/nrf_mesh_sdk.c.obj
 *fill*         0x0003e5f5        0x3 
 .rodata.mesh_assert_handler.str1.4
                0x0003e5f8       0x35 examples/dfu/CMakeFiles/dfu_nrf52840_xxAA_s140_5.0.0-3.alpha.dir/__/nrf_mesh_sdk.c.obj
 *fill*         0x0003e62d        0x3 
 .rodata.mesh_core_setup.str1.4
                0x0003e630       0x4d examples/dfu/CMakeFiles/dfu_nrf52840_xxAA_s140_5.0.0-3.alpha.dir/__/nrf_mesh_sdk.c.obj
 *fill*         0x0003e67d        0x3 
 .rodata.mesh_softdevice_enable.str1.4
                0x0003e680       0x65 examples/dfu/CMakeFiles/dfu_nrf52840_xxAA_s140_5.0.0-3.alpha.dir/__/nrf_mesh_sdk.c.obj
 *fill*         0x0003e6e5        0x3 
 .rodata.softdevice_assert_handler.str1.4
                0x0003e6e8       0x1d examples/dfu/CMakeFiles/dfu_nrf52840_xxAA_s140_5.0.0-3.alpha.dir/__/nrf_mesh_sdk.c.obj
 *fill*         0x0003e705        0x3 
 .rodata.m_flash_groups
                0x0003e708       0xc0 examples/dfu/CMakeFiles/dfu_nrf52840_xxAA_s140_5.0.0-3.alpha.dir/__/__/mesh/access/src/device_state_manager.c.obj
 .rodata.m_cmd_handlers
                0x0003e7c8       0xb0 examples/dfu/CMakeFiles/dfu_nrf52840_xxAA_s140_5.0.0-3.alpha.dir/__/__/mesh/serial/src/serial_handler_access.c.obj
 .rodata.serial_process_cmd.str1.4
                0x0003e878       0x6a examples/dfu/CMakeFiles/dfu_nrf52840_xxAA_s140_5.0.0-3.alpha.dir/__/__/mesh/serial/src/serial.c.obj
 *fill*         0x0003e8e2        0x2 
 .rodata.serial_start.str1.4
                0x0003e8e4       0x11 examples/dfu/CMakeFiles/dfu_nrf52840_xxAA_s140_5.0.0-3.alpha.dir/__/__/mesh/serial/src/serial.c.obj
 *fill*         0x0003e8f5        0x3 
 .rodata.serial_handler_prov_init.str1.4
                0x0003e8f8       0x4e examples/dfu/CMakeFiles/dfu_nrf52840_xxAA_s140_5.0.0-3.alpha.dir/__/__/mesh/serial/src/serial_handler_prov.c.obj
 *fill*         0x0003e946        0x2 
 .rodata.lengths.11111
                0x0003e948        0x7 examples/dfu/CMakeFiles/dfu_nrf52840_xxAA_s140_5.0.0-3.alpha.dir/__/__/mesh/serial/src/serial_handler_dfu.c.obj
 *fill*         0x0003e94f        0x1 
 .rodata.m_handlers
                0x0003e950       0xe8 examples/dfu/CMakeFiles/dfu_nrf52840_xxAA_s140_5.0.0-3.alpha.dir/__/__/mesh/serial/src/serial_handler_mesh.c.obj
 .rodata.m_cmd_handlers
                0x0003ea38       0x18 examples/dfu/CMakeFiles/dfu_nrf52840_xxAA_s140_5.0.0-3.alpha.dir/__/__/mesh/serial/src/serial_handler_models.c.obj
 .rodata.m_cmd_handlers
                0x0003ea50       0x48 examples/dfu/CMakeFiles/dfu_nrf52840_xxAA_s140_5.0.0-3.alpha.dir/__/__/mesh/serial/src/serial_handler_device.c.obj
 .rodata.m_prov_callbacks
                0x0003ea98       0x10 examples/dfu/CMakeFiles/dfu_nrf52840_xxAA_s140_5.0.0-3.alpha.dir/__/__/mesh/prov/src/prov_provisioner.c.obj
 .rodata.m_prov_callbacks
                0x0003eaa8       0x10 examples/dfu/CMakeFiles/dfu_nrf52840_xxAA_s140_5.0.0-3.alpha.dir/__/__/mesh/prov/src/prov_provisionee.c.obj
 .rodata.prov_provisionee_cb_ack_received.str1.4
                0x0003eab8       0x53 examples/dfu/CMakeFiles/dfu_nrf52840_xxAA_s140_5.0.0-3.alpha.dir/__/__/mesh/prov/src/prov_provisionee.c.obj
 *fill*         0x0003eb0b        0x1 
 .rodata.pdu_sizes.10990
                0x0003eb0c        0xa examples/dfu/CMakeFiles/dfu_nrf52840_xxAA_s140_5.0.0-3.alpha.dir/__/__/mesh/prov/src/provisioning.c.obj
 *fill*         0x0003eb16        0x2 
 .rodata.prov_cb_pkt_in.str1.4
                0x0003eb18       0x34 examples/dfu/CMakeFiles/dfu_nrf52840_xxAA_s140_5.0.0-3.alpha.dir/__/__/mesh/prov/src/provisioning.c.obj
 .rodata.alphanumeric.11094
                0x0003eb4c       0x25 examples/dfu/CMakeFiles/dfu_nrf52840_xxAA_s140_5.0.0-3.alpha.dir/__/__/mesh/prov/src/prov_utils.c.obj
 *fill*         0x0003eb71        0x3 
 .rodata.numeric_max.11088
                0x0003eb74       0x24 examples/dfu/CMakeFiles/dfu_nrf52840_xxAA_s140_5.0.0-3.alpha.dir/__/__/mesh/prov/src/prov_utils.c.obj
 .rodata.prov_utils_authentication_values_derive.str1.4
                0x0003eb98        0x5 examples/dfu/CMakeFiles/dfu_nrf52840_xxAA_s140_5.0.0-3.alpha.dir/__/__/mesh/prov/src/prov_utils.c.obj
 *fill*         0x0003eb9d        0x3 
 .rodata.prov_utils_derive_keys.str1.4
                0x0003eba0       0x15 examples/dfu/CMakeFiles/dfu_nrf52840_xxAA_s140_5.0.0-3.alpha.dir/__/__/mesh/prov/src/prov_utils.c.obj
 *fill*         0x0003ebb5        0x3 
 .rodata.crctable.10852
                0x0003ebb8      0x100 examples/dfu/CMakeFiles/dfu_nrf52840_xxAA_s140_5.0.0-3.alpha.dir/__/__/mesh/prov/src/prov_bearer_adv.c.obj
 .rodata.interface.11081
                0x0003ecb8       0x14 examples/dfu/CMakeFiles/dfu_nrf52840_xxAA_s140_5.0.0-3.alpha.dir/__/__/mesh/prov/src/prov_bearer_adv.c.obj
 .rodata.prov_bearer_adv_listen.str1.4
                0x0003eccc       0x50 examples/dfu/CMakeFiles/dfu_nrf52840_xxAA_s140_5.0.0-3.alpha.dir/__/__/mesh/prov/src/prov_bearer_adv.c.obj
 .rodata.prov_bearer_adv_packet_in.str1.4
                0x0003ed1c      0x283 examples/dfu/CMakeFiles/dfu_nrf52840_xxAA_s140_5.0.0-3.alpha.dir/__/__/mesh/prov/src/prov_bearer_adv.c.obj
 *fill*         0x0003ef9f        0x1 
 .rodata.tx_retry_cb.str1.4
                0x0003efa0       0x14 examples/dfu/CMakeFiles/dfu_nrf52840_xxAA_s140_5.0.0-3.alpha.dir/__/__/mesh/prov/src/prov_bearer_adv.c.obj
 .rodata.abort_timeout.str1.4
                0x0003efb4       0x19 examples/dfu/CMakeFiles/dfu_nrf52840_xxAA_s140_5.0.0-3.alpha.dir/__/__/mesh/dfu/src/nrf_mesh_dfu.c.obj
 *fill*         0x0003efcd        0x3 
 .rodata.dfu_evt_handler.str1.4
                0x0003efd0      0x174 examples/dfu/CMakeFiles/dfu_nrf52840_xxAA_s140_5.0.0-3.alpha.dir/__/__/mesh/dfu/src/nrf_mesh_dfu.c.obj
 .rodata.flash_op_complete.str1.4
                0x0003f144       0x3d examples/dfu/CMakeFiles/dfu_nrf52840_xxAA_s140_5.0.0-3.alpha.dir/__/__/mesh/dfu/src/nrf_mesh_dfu.c.obj
 *fill*         0x0003f181        0x3 
 .rodata.m_adv_channels
                0x0003f184        0x3 examples/dfu/CMakeFiles/dfu_nrf52840_xxAA_s140_5.0.0-3.alpha.dir/__/__/mesh/dfu/src/nrf_mesh_dfu.c.obj
 *fill*         0x0003f187        0x1 
 .rodata.nrf_mesh_dfu_cmd_send.part.3.str1.4
                0x0003f188       0x38 examples/dfu/CMakeFiles/dfu_nrf52840_xxAA_s140_5.0.0-3.alpha.dir/__/__/mesh/dfu/src/nrf_mesh_dfu.c.obj
 .rodata.timer_timeout.str1.4
                0x0003f1c0       0x13 examples/dfu/CMakeFiles/dfu_nrf52840_xxAA_s140_5.0.0-3.alpha.dir/__/__/mesh/dfu/src/nrf_mesh_dfu.c.obj
 *fill*         0x0003f1d3        0x1 
 .rodata.m_all_operations
                0x0003f1d4       0x10 mesh/core/libmesh_core_nrf52840_xxAA.a(mesh_flash.c.obj)
 .rodata.types_lookup.9118
                0x0003f1e4        0x4 mesh/core/libmesh_core_nrf52840_xxAA.a(nrf_mesh_utils.c.obj)
 .rodata.nrf_mesh_process.str1.4
                0x0003f1e8       0x73 mesh/core/libmesh_core_nrf52840_xxAA.a(nrf_mesh.c.obj)
 *fill*         0x0003f25b        0x1 
 .rodata.CSWTCH.8
                0x0003f25c       0x20 mesh/core/libmesh_core_nrf52840_xxAA.a(hal.c.obj)
 .rodata        0x0003f27c       0x18 mesh/core/libmesh_core_nrf52840_xxAA.a(enc.c.obj)
 .rodata.network_packet_in.str1.4
                0x0003f294       0x49 mesh/core/libmesh_core_nrf52840_xxAA.a(network.c.obj)
 *fill*         0x0003f2dd        0x3 
 .rodata.network_packet_send.str1.4
                0x0003f2e0       0x4a mesh/core/libmesh_core_nrf52840_xxAA.a(network.c.obj)
 *fill*         0x0003f32a        0x2 
 .rodata        0x0003f32c        0x7 mesh/core/libmesh_core_nrf52840_xxAA.a(nrf_mesh_keygen.c.obj)
 *fill*         0x0003f333        0x1 
 .rodata.log_callback_rtt.str1.4
                0x0003f334       0x15 mesh/core/libmesh_core_nrf52840_xxAA.a(log.c.obj)
 *fill*         0x0003f349        0x3 
 .rodata.str1.4
                0x0003f34c       0x11 mesh/core/libmesh_core_nrf52840_xxAA.a(log.c.obj)
 *fill*         0x0003f35d        0x3 
 .rodata.INVALID_HEADER
                0x0003f360        0x4 mesh/core/libmesh_core_nrf52840_xxAA.a(flash_manager.c.obj)
                0x0003f360                INVALID_HEADER
 .rodata.PADDING_HEADER
                0x0003f364        0x4 mesh/core/libmesh_core_nrf52840_xxAA.a(flash_manager.c.obj)
                0x0003f364                PADDING_HEADER
 .rodata.SEAL_HEADER
                0x0003f368        0x4 mesh/core/libmesh_core_nrf52840_xxAA.a(flash_manager.c.obj)
                0x0003f368                SEAL_HEADER
 .rodata.process_action_queue.str1.4
                0x0003f36c       0x21 mesh/core/libmesh_core_nrf52840_xxAA.a(flash_manager.c.obj)
                                 0x52 (size before relaxing)
 *fill*         0x0003f38d        0x3 
 .rodata.beacon_packet_in.str1.4
                0x0003f390       0x55 mesh/core/libmesh_core_nrf52840_xxAA.a(beacon.c.obj)
                                 0x60 (size before relaxing)
 *fill*         0x0003f3e5        0x3 
 .rodata.net_beacon_init.str1.4
                0x0003f3e8        0x5 mesh/core/libmesh_core_nrf52840_xxAA.a(net_beacon.c.obj)
 *fill*         0x0003f3ed        0x3 
 .rodata.radio_mode_to_us_per_byte.9494
                0x0003f3f0        0x6 mesh/core/libmesh_core_nrf52840_xxAA.a(broadcast.c.obj)
 *fill*         0x0003f3f6        0x2 
 .rodata.channel_rf_offsets.8756
                0x0003f3f8       0x28 mesh/core/libmesh_core_nrf52840_xxAA.a(radio_config.c.obj)
 .rodata.sar_ack_send.str1.4
                0x0003f420       0x1d mesh/core/libmesh_core_nrf52840_xxAA.a(transport.c.obj)
                                 0x4e (size before relaxing)
 *fill*         0x0003f43d        0x3 
 .rodata.sar_ctx_cancel.str1.4
                0x0003f440       0x18 mesh/core/libmesh_core_nrf52840_xxAA.a(transport.c.obj)
 .rodata.test_transport_decrypt.str1.4
                0x0003f458       0x13 mesh/core/libmesh_core_nrf52840_xxAA.a(transport.c.obj)
 *fill*         0x0003f46b        0x1 
 .rodata.transport_packet_in.str1.4
                0x0003f46c       0x24 mesh/core/libmesh_core_nrf52840_xxAA.a(transport.c.obj)
 .rodata.transport_tx.str1.4
                0x0003f490       0x2f mesh/core/libmesh_core_nrf52840_xxAA.a(transport.c.obj)
                                 0x38 (size before relaxing)
 *fill*         0x0003f4bf        0x1 
 .rodata.upper_transport_access_packet_in.str1.4
                0x0003f4c0       0x29 mesh/core/libmesh_core_nrf52840_xxAA.a(transport.c.obj)
 *fill*         0x0003f4e9        0x3 
 .rodata.upper_transport_packet_in.str1.4
                0x0003f4ec       0x2e mesh/core/libmesh_core_nrf52840_xxAA.a(transport.c.obj)
 *fill*         0x0003f51a        0x2 
 .rodata.flash_manager_defrag.str1.4
                0x0003f51c       0x28 mesh/core/libmesh_core_nrf52840_xxAA.a(flash_manager_defrag.c.obj)
                                 0x56 (size before relaxing)
 .rodata.m_procedure_steps
                0x0003f544       0x28 mesh/core/libmesh_core_nrf52840_xxAA.a(flash_manager_defrag.c.obj)
 .rodata.SEGGER_RTT_ReadNoLock.str1.4
                0x0003f56c       0x18 external/rtt/librtt_nrf52840_xxAA.a(SEGGER_RTT.c.obj)
                                 0x17 (size before relaxing)
 .rodata._aV2C.5497
                0x0003f584       0x10 external/rtt/librtt_nrf52840_xxAA.a(SEGGER_RTT_printf.c.obj)
 .rodata.curve_secp256r1
                0x0003f594       0xb0 external/micro-ecc/libuECC_nrf52840_xxAA.a(uECC.c.obj)
 .rodata._global_impure_ptr
                0x0003f644        0x4 c:/a/gcc_arm/6/bin/../lib/gcc/arm-none-eabi/6.3.1/../../../../arm-none-eabi/lib/thumb/v7e-m/fpv4-sp/hard\libc_nano.a(lib_a-impure.o)
                0x0003f644                _global_impure_ptr
 *(.eh_frame*)
 .eh_frame      0x0003f648        0x0 c:/a/gcc_arm/6/bin/../lib/gcc/arm-none-eabi/6.3.1/thumb/v7e-m/fpv4-sp/hard/crtbegin.o
 .eh_frame      0x0003f648        0x4 c:/a/gcc_arm/6/bin/../lib/gcc/arm-none-eabi/6.3.1/thumb/v7e-m/fpv4-sp/hard/crtend.o

.glue_7         0x0003f64c        0x0
 .glue_7        0x0003f64c        0x0 linker stubs

.glue_7t        0x0003f64c        0x0
 .glue_7t       0x0003f64c        0x0 linker stubs

.vfp11_veneer   0x0003f64c        0x0
 .vfp11_veneer  0x0003f64c        0x0 linker stubs

.v4_bx          0x0003f64c        0x0
 .v4_bx         0x0003f64c        0x0 linker stubs

.iplt           0x0003f64c        0x0
 .iplt          0x0003f64c        0x0 c:/a/gcc_arm/6/bin/../lib/gcc/arm-none-eabi/6.3.1/thumb/v7e-m/fpv4-sp/hard/crtbegin.o

.ARM.extab
 *(.ARM.extab* .gnu.linkonce.armextab.*)
                0x0003f64c                __exidx_start = .

.ARM.exidx      0x0003f64c        0x8
 *(.ARM.exidx* .gnu.linkonce.armexidx.*)
 .ARM.exidx     0x0003f64c        0x8 c:/a/gcc_arm/6/bin/../lib/gcc/arm-none-eabi/6.3.1/../../../../arm-none-eabi/lib/thumb/v7e-m/fpv4-sp/hard/crt0.o
                0x0003f654                __exidx_end = .
                0x0003f654                __etext = .

.rel.dyn        0x0003f654        0x0
 .rel.iplt      0x0003f654        0x0 c:/a/gcc_arm/6/bin/../lib/gcc/arm-none-eabi/6.3.1/thumb/v7e-m/fpv4-sp/hard/crtbegin.o

.data           0x200031b8      0x108 load address 0x0003f654
                0x200031b8                __data_start__ = .
 *(vtable)
 *(.data*)
 .data.rom_base
                0x200031b8        0x4 examples/dfu/CMakeFiles/dfu_nrf52840_xxAA_s140_5.0.0-3.alpha.dir/src/main.c.obj
                0x200031b8                rom_base
 .data.rom_end  0x200031bc        0x4 examples/dfu/CMakeFiles/dfu_nrf52840_xxAA_s140_5.0.0-3.alpha.dir/src/main.c.obj
                0x200031bc                rom_end
 .data.flash_clear_mem_available_struct.10635
                0x200031c0       0x10 examples/dfu/CMakeFiles/dfu_nrf52840_xxAA_s140_5.0.0-3.alpha.dir/__/__/mesh/access/src/access.c.obj
 .data.flash_store_mem_available_struct.10659
                0x200031d0       0x10 examples/dfu/CMakeFiles/dfu_nrf52840_xxAA_s140_5.0.0-3.alpha.dir/__/__/mesh/access/src/access.c.obj
 .data.mem_listener.10798
                0x200031e0       0x10 examples/dfu/CMakeFiles/dfu_nrf52840_xxAA_s140_5.0.0-3.alpha.dir/__/__/mesh/access/src/device_state_manager.c.obj
 .data.m_unprov_report
                0x200031f0        0x1 examples/dfu/CMakeFiles/dfu_nrf52840_xxAA_s140_5.0.0-3.alpha.dir/__/__/mesh/prov/src/prov_beacon.c.obj
 *fill*         0x200031f1        0x3 
 .data.m_async_process_flag
                0x200031f4        0x4 examples/dfu/CMakeFiles/dfu_nrf52840_xxAA_s140_5.0.0-3.alpha.dir/__/__/mesh/prov/src/prov_bearer_adv.c.obj
 .data.SystemCoreClock
                0x200031f8        0x4 examples/dfu/CMakeFiles/dfu_nrf52840_xxAA_s140_5.0.0-3.alpha.dir/__/__/external/nRF5_SDK_14.0.0_3bcc1f7/components/toolchain/system_nrf52840.c.obj
                0x200031f8                SystemCoreClock
 .data.mem_listener.10018
                0x200031fc       0x10 mesh/core/libmesh_core_nrf52840_xxAA.a(net_state.c.obj)
 .data.mem_listener.10023
                0x2000320c       0x10 mesh/core/libmesh_core_nrf52840_xxAA.a(net_state.c.obj)
 .data.mem_listener.10037
                0x2000321c       0x10 mesh/core/libmesh_core_nrf52840_xxAA.a(net_state.c.obj)
 .data.mem_listener.10054
                0x2000322c       0x10 mesh/core/libmesh_core_nrf52840_xxAA.a(net_state.c.obj)
 .data.g_log_debug_level
                0x2000323c        0x4 mesh/core/libmesh_core_nrf52840_xxAA.a(log.c.obj)
                0x2000323c                g_log_debug_level
 .data.g_log_debug_msk
                0x20003240        0x4 mesh/core/libmesh_core_nrf52840_xxAA.a(log.c.obj)
                0x20003240                g_log_debug_msk
 .data.g_log_hex_digits
                0x20003244        0x4 mesh/core/libmesh_core_nrf52840_xxAA.a(log.c.obj)
                0x20003244                g_log_hex_digits
 .data.m_log_callback
                0x20003248        0x4 mesh/core/libmesh_core_nrf52840_xxAA.a(log.c.obj)
                0x20003248                m_log_callback
 .data.g_rng_function
                0x2000324c        0x4 external/micro-ecc/libuECC_nrf52840_xxAA.a(uECC.c.obj)
 .data._impure_ptr
                0x20003250        0x4 c:/a/gcc_arm/6/bin/../lib/gcc/arm-none-eabi/6.3.1/../../../../arm-none-eabi/lib/thumb/v7e-m/fpv4-sp/hard\libc_nano.a(lib_a-impure.o)
                0x20003250                _impure_ptr
 .data.impure_data
                0x20003254       0x60 c:/a/gcc_arm/6/bin/../lib/gcc/arm-none-eabi/6.3.1/../../../../arm-none-eabi/lib/thumb/v7e-m/fpv4-sp/hard\libc_nano.a(lib_a-impure.o)
                0x200032b4                . = ALIGN (0x4)
                0x200032b4                PROVIDE (__preinit_array_start, .)
 *(.preinit_array)
                0x200032b4                PROVIDE (__preinit_array_end, .)
                0x200032b4                . = ALIGN (0x4)
                0x200032b4                PROVIDE (__init_array_start, .)
 *(SORT(.init_array.*))
 *(.init_array)
 .init_array    0x200032b4        0x4 c:/a/gcc_arm/6/bin/../lib/gcc/arm-none-eabi/6.3.1/thumb/v7e-m/fpv4-sp/hard/crtbegin.o
                0x200032b8                PROVIDE (__init_array_end, .)
                0x200032b8                . = ALIGN (0x4)
                [!provide]                PROVIDE (__fini_array_start, .)
 *(SORT(.fini_array.*))
 *(.fini_array)
 .fini_array    0x200032b8        0x4 c:/a/gcc_arm/6/bin/../lib/gcc/arm-none-eabi/6.3.1/thumb/v7e-m/fpv4-sp/hard/crtbegin.o
                [!provide]                PROVIDE (__fini_array_end, .)
 *(.jcr*)
 .jcr           0x200032bc        0x0 c:/a/gcc_arm/6/bin/../lib/gcc/arm-none-eabi/6.3.1/thumb/v7e-m/fpv4-sp/hard/crtbegin.o
 .jcr           0x200032bc        0x4 c:/a/gcc_arm/6/bin/../lib/gcc/arm-none-eabi/6.3.1/thumb/v7e-m/fpv4-sp/hard/crtend.o
                0x200032c0                . = ALIGN (0x4)
                0x200032c0                __data_end__ = .

.igot.plt       0x200032c0        0x0 load address 0x0003f75c
 .igot.plt      0x200032c0        0x0 c:/a/gcc_arm/6/bin/../lib/gcc/arm-none-eabi/6.3.1/thumb/v7e-m/fpv4-sp/hard/crtbegin.o

.bss            0x200032c0     0x38d4 load address 0x0003f760
                0x200032c0                . = ALIGN (0x4)
                0x200032c0                __bss_start__ = .
 *(.bss*)
 .bss           0x200032c0       0x1c c:/a/gcc_arm/6/bin/../lib/gcc/arm-none-eabi/6.3.1/thumb/v7e-m/fpv4-sp/hard/crtbegin.o
 .bss.m_evt_handler
                0x200032dc        0x8 examples/dfu/CMakeFiles/dfu_nrf52840_xxAA_s140_5.0.0-3.alpha.dir/src/main.c.obj
 .bss.m_ble_evt_buffer
                0x200032e4       0x57 examples/dfu/CMakeFiles/dfu_nrf52840_xxAA_s140_5.0.0-3.alpha.dir/__/nrf_mesh_sdk.c.obj
 *fill*         0x2000333b        0x1 
 .bss.m_publish_timer
                0x2000333c       0x18 examples/dfu/CMakeFiles/dfu_nrf52840_xxAA_s140_5.0.0-3.alpha.dir/__/__/mesh/access/src/access_publish.c.obj
 .bss.m_publish_timer_counter
                0x20003354        0x4 examples/dfu/CMakeFiles/dfu_nrf52840_xxAA_s140_5.0.0-3.alpha.dir/__/__/mesh/access/src/access_publish.c.obj
 .bss.m_publish_timer_running
                0x20003358        0x1 examples/dfu/CMakeFiles/dfu_nrf52840_xxAA_s140_5.0.0-3.alpha.dir/__/__/mesh/access/src/access_publish.c.obj
 .bss.m_timer_resolution
                0x20003359        0x1 examples/dfu/CMakeFiles/dfu_nrf52840_xxAA_s140_5.0.0-3.alpha.dir/__/__/mesh/access/src/access_publish.c.obj
 *fill*         0x2000335a        0x2 
 .bss.mp_publication_list
                0x2000335c        0x4 examples/dfu/CMakeFiles/dfu_nrf52840_xxAA_s140_5.0.0-3.alpha.dir/__/__/mesh/access/src/access_publish.c.obj
 .bss.m_element_pool
                0x20003360        0x6 examples/dfu/CMakeFiles/dfu_nrf52840_xxAA_s140_5.0.0-3.alpha.dir/__/__/mesh/access/src/access.c.obj
 *fill*         0x20003366        0x2 
 .bss.m_flash_manager
                0x20003368       0x24 examples/dfu/CMakeFiles/dfu_nrf52840_xxAA_s140_5.0.0-3.alpha.dir/__/__/mesh/access/src/access.c.obj
 .bss.m_flash_not_ready
                0x2000338c        0x1 examples/dfu/CMakeFiles/dfu_nrf52840_xxAA_s140_5.0.0-3.alpha.dir/__/__/mesh/access/src/access.c.obj
 .bss.m_metadata_stored
                0x2000338d        0x1 examples/dfu/CMakeFiles/dfu_nrf52840_xxAA_s140_5.0.0-3.alpha.dir/__/__/mesh/access/src/access.c.obj
 *fill*         0x2000338e        0x2 
 .bss.m_model_pool
                0x20003390       0x68 examples/dfu/CMakeFiles/dfu_nrf52840_xxAA_s140_5.0.0-3.alpha.dir/__/__/mesh/access/src/access.c.obj
 .bss.m_subscription_list_pool
                0x200033f8       0x10 examples/dfu/CMakeFiles/dfu_nrf52840_xxAA_s140_5.0.0-3.alpha.dir/__/__/mesh/access/src/access.c.obj
 .bss.m_reliable
                0x20003408       0x6c examples/dfu/CMakeFiles/dfu_nrf52840_xxAA_s140_5.0.0-3.alpha.dir/__/__/mesh/access/src/access_reliable.c.obj
 .bss.m_addr_nonvirtual_allocated
                0x20003474        0x4 examples/dfu/CMakeFiles/dfu_nrf52840_xxAA_s140_5.0.0-3.alpha.dir/__/__/mesh/access/src/device_state_manager.c.obj
 .bss.m_addr_nonvirtual_needs_flashing
                0x20003478        0x4 examples/dfu/CMakeFiles/dfu_nrf52840_xxAA_s140_5.0.0-3.alpha.dir/__/__/mesh/access/src/device_state_manager.c.obj
 .bss.m_addr_unicast_allocated
                0x2000347c        0x4 examples/dfu/CMakeFiles/dfu_nrf52840_xxAA_s140_5.0.0-3.alpha.dir/__/__/mesh/access/src/device_state_manager.c.obj
 .bss.m_addr_unicast_needs_flashing
                0x20003480        0x4 examples/dfu/CMakeFiles/dfu_nrf52840_xxAA_s140_5.0.0-3.alpha.dir/__/__/mesh/access/src/device_state_manager.c.obj
 .bss.m_addr_virtual_allocated
                0x20003484        0x4 examples/dfu/CMakeFiles/dfu_nrf52840_xxAA_s140_5.0.0-3.alpha.dir/__/__/mesh/access/src/device_state_manager.c.obj
 .bss.m_addr_virtual_needs_flashing
                0x20003488        0x4 examples/dfu/CMakeFiles/dfu_nrf52840_xxAA_s140_5.0.0-3.alpha.dir/__/__/mesh/access/src/device_state_manager.c.obj
 .bss.m_addresses
                0x2000348c       0x40 examples/dfu/CMakeFiles/dfu_nrf52840_xxAA_s140_5.0.0-3.alpha.dir/__/__/mesh/access/src/device_state_manager.c.obj
 .bss.m_appkey_allocated
                0x200034cc        0x4 examples/dfu/CMakeFiles/dfu_nrf52840_xxAA_s140_5.0.0-3.alpha.dir/__/__/mesh/access/src/device_state_manager.c.obj
 .bss.m_appkey_needs_flashing
                0x200034d0        0x4 examples/dfu/CMakeFiles/dfu_nrf52840_xxAA_s140_5.0.0-3.alpha.dir/__/__/mesh/access/src/device_state_manager.c.obj
 .bss.m_appkeys
                0x200034d4       0xb0 examples/dfu/CMakeFiles/dfu_nrf52840_xxAA_s140_5.0.0-3.alpha.dir/__/__/mesh/access/src/device_state_manager.c.obj
 .bss.m_devkey_allocated
                0x20003584        0x4 examples/dfu/CMakeFiles/dfu_nrf52840_xxAA_s140_5.0.0-3.alpha.dir/__/__/mesh/access/src/device_state_manager.c.obj
 .bss.m_devkey_needs_flashing
                0x20003588        0x4 examples/dfu/CMakeFiles/dfu_nrf52840_xxAA_s140_5.0.0-3.alpha.dir/__/__/mesh/access/src/device_state_manager.c.obj
 .bss.m_devkeys
                0x2000358c       0x16 examples/dfu/CMakeFiles/dfu_nrf52840_xxAA_s140_5.0.0-3.alpha.dir/__/__/mesh/access/src/device_state_manager.c.obj
 .bss.m_flash_is_available
                0x200035a2        0x1 examples/dfu/CMakeFiles/dfu_nrf52840_xxAA_s140_5.0.0-3.alpha.dir/__/__/mesh/access/src/device_state_manager.c.obj
 *fill*         0x200035a3        0x1 
 .bss.m_flash_manager
                0x200035a4       0x24 examples/dfu/CMakeFiles/dfu_nrf52840_xxAA_s140_5.0.0-3.alpha.dir/__/__/mesh/access/src/device_state_manager.c.obj
 .bss.m_flash_mem_listener_update_all
                0x200035c8       0x10 examples/dfu/CMakeFiles/dfu_nrf52840_xxAA_s140_5.0.0-3.alpha.dir/__/__/mesh/access/src/device_state_manager.c.obj
 .bss.m_has_primary_subnet
                0x200035d8        0x1 examples/dfu/CMakeFiles/dfu_nrf52840_xxAA_s140_5.0.0-3.alpha.dir/__/__/mesh/access/src/device_state_manager.c.obj
 *fill*         0x200035d9        0x3 
 .bss.m_local_unicast_addr
                0x200035dc        0x4 examples/dfu/CMakeFiles/dfu_nrf52840_xxAA_s140_5.0.0-3.alpha.dir/__/__/mesh/access/src/device_state_manager.c.obj
 .bss.m_subnet_allocated
                0x200035e0        0x4 examples/dfu/CMakeFiles/dfu_nrf52840_xxAA_s140_5.0.0-3.alpha.dir/__/__/mesh/access/src/device_state_manager.c.obj
 .bss.m_subnet_needs_flashing
                0x200035e4        0x4 examples/dfu/CMakeFiles/dfu_nrf52840_xxAA_s140_5.0.0-3.alpha.dir/__/__/mesh/access/src/device_state_manager.c.obj
 .bss.m_subnets
                0x200035e8      0x170 examples/dfu/CMakeFiles/dfu_nrf52840_xxAA_s140_5.0.0-3.alpha.dir/__/__/mesh/access/src/device_state_manager.c.obj
 .bss.m_virtual_addresses
                0x20003758       0xa0 examples/dfu/CMakeFiles/dfu_nrf52840_xxAA_s140_5.0.0-3.alpha.dir/__/__/mesh/access/src/device_state_manager.c.obj
 .bss.m_can_receive
                0x200037f8        0x1 examples/dfu/CMakeFiles/dfu_nrf52840_xxAA_s140_5.0.0-3.alpha.dir/__/__/mesh/serial/src/serial_uart.c.obj
 *fill*         0x200037f9        0x3 
 .bss.m_char_rx_cb
                0x200037fc        0x4 examples/dfu/CMakeFiles/dfu_nrf52840_xxAA_s140_5.0.0-3.alpha.dir/__/__/mesh/serial/src/serial_uart.c.obj
 .bss.m_char_tx_cb
                0x20003800        0x4 examples/dfu/CMakeFiles/dfu_nrf52840_xxAA_s140_5.0.0-3.alpha.dir/__/__/mesh/serial/src/serial_uart.c.obj
 .bss.m_cur_tx_packet_index
                0x20003804        0x2 examples/dfu/CMakeFiles/dfu_nrf52840_xxAA_s140_5.0.0-3.alpha.dir/__/__/mesh/serial/src/serial_bearer.c.obj
 *fill*         0x20003806        0x2 
 .bss.m_event_flag
                0x20003808        0x4 examples/dfu/CMakeFiles/dfu_nrf52840_xxAA_s140_5.0.0-3.alpha.dir/__/__/mesh/serial/src/serial_bearer.c.obj
 .bss.m_rx_buffer
                0x2000380c       0xd0 examples/dfu/CMakeFiles/dfu_nrf52840_xxAA_s140_5.0.0-3.alpha.dir/__/__/mesh/serial/src/serial_bearer.c.obj
 .bss.m_rx_packet_buf
                0x200038dc        0xc examples/dfu/CMakeFiles/dfu_nrf52840_xxAA_s140_5.0.0-3.alpha.dir/__/__/mesh/serial/src/serial_bearer.c.obj
 .bss.m_serial_state
                0x200038e8        0x1 examples/dfu/CMakeFiles/dfu_nrf52840_xxAA_s140_5.0.0-3.alpha.dir/__/__/mesh/serial/src/serial_bearer.c.obj
 *fill*         0x200038e9        0x1 
 .bss.m_stored_pac_len
                0x200038ea        0x2 examples/dfu/CMakeFiles/dfu_nrf52840_xxAA_s140_5.0.0-3.alpha.dir/__/__/mesh/serial/src/serial_bearer.c.obj
 .bss.m_tx_buffer
                0x200038ec       0xd0 examples/dfu/CMakeFiles/dfu_nrf52840_xxAA_s140_5.0.0-3.alpha.dir/__/__/mesh/serial/src/serial_bearer.c.obj
 .bss.m_tx_packet_buf
                0x200039bc        0xc examples/dfu/CMakeFiles/dfu_nrf52840_xxAA_s140_5.0.0-3.alpha.dir/__/__/mesh/serial/src/serial_bearer.c.obj
 .bss.mp_current_rx_packet
                0x200039c8        0x4 examples/dfu/CMakeFiles/dfu_nrf52840_xxAA_s140_5.0.0-3.alpha.dir/__/__/mesh/serial/src/serial_bearer.c.obj
 .bss.mp_current_tx_packet
                0x200039cc        0x4 examples/dfu/CMakeFiles/dfu_nrf52840_xxAA_s140_5.0.0-3.alpha.dir/__/__/mesh/serial/src/serial_bearer.c.obj
 .bss.rx_index.11065
                0x200039d0        0x2 examples/dfu/CMakeFiles/dfu_nrf52840_xxAA_s140_5.0.0-3.alpha.dir/__/__/mesh/serial/src/serial_bearer.c.obj
 .bss.m_cmd_handler_scheduled
                0x200039d2        0x1 examples/dfu/CMakeFiles/dfu_nrf52840_xxAA_s140_5.0.0-3.alpha.dir/__/__/mesh/serial/src/serial.c.obj
 .bss.m_state   0x200039d3        0x1 examples/dfu/CMakeFiles/dfu_nrf52840_xxAA_s140_5.0.0-3.alpha.dir/__/__/mesh/serial/src/serial.c.obj
 .bss.m_mesh_evt_handler
                0x200039d4        0x8 examples/dfu/CMakeFiles/dfu_nrf52840_xxAA_s140_5.0.0-3.alpha.dir/__/__/mesh/serial/src/serial_handler_prov.c.obj
 .bss.m_private_key
                0x200039dc       0x20 examples/dfu/CMakeFiles/dfu_nrf52840_xxAA_s140_5.0.0-3.alpha.dir/__/__/mesh/serial/src/serial_handler_prov.c.obj
 .bss.m_prov_contexts
                0x200039fc      0x5f8 examples/dfu/CMakeFiles/dfu_nrf52840_xxAA_s140_5.0.0-3.alpha.dir/__/__/mesh/serial/src/serial_handler_prov.c.obj
 .bss.m_provisioning_caps
                0x20003ff4        0xb examples/dfu/CMakeFiles/dfu_nrf52840_xxAA_s140_5.0.0-3.alpha.dir/__/__/mesh/serial/src/serial_handler_prov.c.obj
 *fill*         0x20003fff        0x1 
 .bss.m_public_key
                0x20004000       0x40 examples/dfu/CMakeFiles/dfu_nrf52840_xxAA_s140_5.0.0-3.alpha.dir/__/__/mesh/serial/src/serial_handler_prov.c.obj
 .bss.m_scanning_running
                0x20004040        0x1 examples/dfu/CMakeFiles/dfu_nrf52840_xxAA_s140_5.0.0-3.alpha.dir/__/__/mesh/serial/src/serial_handler_prov.c.obj
 *fill*         0x20004041        0x3 
 .bss.m_evt_handler
                0x20004044        0x8 examples/dfu/CMakeFiles/dfu_nrf52840_xxAA_s140_5.0.0-3.alpha.dir/__/__/mesh/serial/src/serial_handler_dfu.c.obj
 .bss.m_evt_handler
                0x2000404c        0x8 examples/dfu/CMakeFiles/dfu_nrf52840_xxAA_s140_5.0.0-3.alpha.dir/__/__/mesh/serial/src/serial_handler_mesh.c.obj
 .bss.p_serial_evt.11297
                0x20004054        0x4 examples/dfu/CMakeFiles/dfu_nrf52840_xxAA_s140_5.0.0-3.alpha.dir/__/__/mesh/serial/src/serial_handler_mesh.c.obj
 .bss.m_models_list
                0x20004058       0x18 examples/dfu/CMakeFiles/dfu_nrf52840_xxAA_s140_5.0.0-3.alpha.dir/__/__/mesh/serial/src/serial_handler_models.c.obj
 .bss.m_beacons
                0x20004070      0x134 examples/dfu/CMakeFiles/dfu_nrf52840_xxAA_s140_5.0.0-3.alpha.dir/__/__/mesh/serial/src/serial_handler_device.c.obj
 .bss.m_app_rx_cb
                0x200041a4        0x4 examples/dfu/CMakeFiles/dfu_nrf52840_xxAA_s140_5.0.0-3.alpha.dir/__/__/mesh/serial/src/serial_handler_app.c.obj
 .bss.m_offload_ecdh
                0x200041a8        0x1 examples/dfu/CMakeFiles/dfu_nrf52840_xxAA_s140_5.0.0-3.alpha.dir/__/__/mesh/prov/src/prov_utils.c.obj
 *fill*         0x200041a9        0x3 
 .bss.mp_bearer_head
                0x200041ac        0x4 examples/dfu/CMakeFiles/dfu_nrf52840_xxAA_s140_5.0.0-3.alpha.dir/__/__/mesh/prov/src/prov_bearer_adv.c.obj
 .bss.m_adv_packet
                0x200041b0       0x28 examples/dfu/CMakeFiles/dfu_nrf52840_xxAA_s140_5.0.0-3.alpha.dir/__/__/mesh/dfu/src/nrf_mesh_dfu.c.obj
 .bss.m_broadcast
                0x200041d8       0x34 examples/dfu/CMakeFiles/dfu_nrf52840_xxAA_s140_5.0.0-3.alpha.dir/__/__/mesh/dfu/src/nrf_mesh_dfu.c.obj
 .bss.m_prng    0x2000420c       0x10 examples/dfu/CMakeFiles/dfu_nrf52840_xxAA_s140_5.0.0-3.alpha.dir/__/__/mesh/dfu/src/nrf_mesh_dfu.c.obj
 .bss.m_timer_evt
                0x2000421c       0x18 examples/dfu/CMakeFiles/dfu_nrf52840_xxAA_s140_5.0.0-3.alpha.dir/__/__/mesh/dfu/src/nrf_mesh_dfu.c.obj
 .bss.m_transfer_state
                0x20004234       0x12 examples/dfu/CMakeFiles/dfu_nrf52840_xxAA_s140_5.0.0-3.alpha.dir/__/__/mesh/dfu/src/nrf_mesh_dfu.c.obj
 *fill*         0x20004246        0x2 
 .bss.m_tx_slots
                0x20004248      0x120 examples/dfu/CMakeFiles/dfu_nrf52840_xxAA_s140_5.0.0-3.alpha.dir/__/__/mesh/dfu/src/nrf_mesh_dfu.c.obj
 .bss.m_tx_timer_evt
                0x20004368       0x18 examples/dfu/CMakeFiles/dfu_nrf52840_xxAA_s140_5.0.0-3.alpha.dir/__/__/mesh/dfu/src/nrf_mesh_dfu.c.obj
 .bss.mp_curr_fwid
                0x20004380        0x4 examples/dfu/CMakeFiles/dfu_nrf52840_xxAA_s140_5.0.0-3.alpha.dir/__/__/mesh/dfu/src/nrf_mesh_dfu.c.obj
 .bss.m_internal_event_fifo
                0x20004384       0x14 mesh/core/libmesh_core_nrf52840_xxAA.a(internal_event.c.obj)
 .bss.m_internal_event_fifo_buffer
                0x20004398      0x100 mesh/core/libmesh_core_nrf52840_xxAA.a(internal_event.c.obj)
 .bss.m_internal_event_initialized
                0x20004498        0x1 mesh/core/libmesh_core_nrf52840_xxAA.a(internal_event.c.obj)
 *fill*         0x20004499        0x3 
 .bss.m_report_cb
                0x2000449c        0x4 mesh/core/libmesh_core_nrf52840_xxAA.a(internal_event.c.obj)
 .bss.m_uuid    0x200044a0       0x10 mesh/core/libmesh_core_nrf52840_xxAA.a(nrf_mesh_configure.c.obj)
 .bss.mp_evt_handlers_head
                0x200044b0        0x4 mesh/core/libmesh_core_nrf52840_xxAA.a(event.c.obj)
 .bss.lock_count.10077
                0x200044b4        0x4 mesh/core/libmesh_core_nrf52840_xxAA.a(net_state.c.obj)
 .bss.m_flash_manager
                0x200044b8       0x24 mesh/core/libmesh_core_nrf52840_xxAA.a(net_state.c.obj)
 .bss.m_iv_update_timer
                0x200044dc       0x18 mesh/core/libmesh_core_nrf52840_xxAA.a(net_state.c.obj)
 .bss.m_net_state
                0x200044f4       0x14 mesh/core/libmesh_core_nrf52840_xxAA.a(net_state.c.obj)
 .bss.m_seqnum_allocation_in_progress
                0x20004508        0x1 mesh/core/libmesh_core_nrf52840_xxAA.a(net_state.c.obj)
 .bss.m_test_mode
                0x20004509        0x1 mesh/core/libmesh_core_nrf52840_xxAA.a(net_state.c.obj)
 *fill*         0x2000450a        0x2 
 .bss.m_event_flag
                0x2000450c        0x4 mesh/core/libmesh_core_nrf52840_xxAA.a(mesh_flash.c.obj)
 .bss.m_suspended
                0x20004510        0x1 mesh/core/libmesh_core_nrf52840_xxAA.a(mesh_flash.c.obj)
 *fill*         0x20004511        0x3 
 .bss.m_users   0x20004514      0x228 mesh/core/libmesh_core_nrf52840_xxAA.a(mesh_flash.c.obj)
 .bss.suspend_count.10174
                0x2000473c        0x4 mesh/core/libmesh_core_nrf52840_xxAA.a(mesh_flash.c.obj)
 .bss.m_is_enabled
                0x20004740        0x1 mesh/core/libmesh_core_nrf52840_xxAA.a(nrf_mesh.c.obj)
 .bss.m_is_initialized
                0x20004741        0x1 mesh/core/libmesh_core_nrf52840_xxAA.a(nrf_mesh.c.obj)
 *fill*         0x20004742        0x2 
 .bss.m_rx_cb   0x20004744        0x4 mesh/core/libmesh_core_nrf52840_xxAA.a(nrf_mesh.c.obj)
 .bss.m_event_flag
                0x20004748        0x4 mesh/core/libmesh_core_nrf52840_xxAA.a(timer_scheduler.c.obj)
 .bss.m_scheduler
                0x2000474c       0x10 mesh/core/libmesh_core_nrf52840_xxAA.a(timer_scheduler.c.obj)
 .bss.m_attributes
                0x2000475c        0x3 mesh/core/libmesh_core_nrf52840_xxAA.a(timer.c.obj)
 *fill*         0x2000475f        0x1 
 .bss.m_callbacks
                0x20004760        0xc mesh/core/libmesh_core_nrf52840_xxAA.a(timer.c.obj)
 .bss.m_is_in_ts
                0x2000476c        0x1 mesh/core/libmesh_core_nrf52840_xxAA.a(timer.c.obj)
 *fill*         0x2000476d        0x3 
 .bss.m_reference_time
                0x20004770        0x4 mesh/core/libmesh_core_nrf52840_xxAA.a(timer.c.obj)
 .bss.m_timeouts
                0x20004774        0xc mesh/core/libmesh_core_nrf52840_xxAA.a(timer.c.obj)
 .bss.m_timer_mut
                0x20004780        0x4 mesh/core/libmesh_core_nrf52840_xxAA.a(timer.c.obj)
 .bss.m_ts_end_time
                0x20004784        0x4 mesh/core/libmesh_core_nrf52840_xxAA.a(timer.c.obj)
 .bss.mp_ppi_tasks
                0x20004788        0xc mesh/core/libmesh_core_nrf52840_xxAA.a(timer.c.obj)
 .bss.m_current_time
                0x20004794        0x4 mesh/core/libmesh_core_nrf52840_xxAA.a(ticker.c.obj)
 .bss.m_timer   0x20004798       0x18 mesh/core/libmesh_core_nrf52840_xxAA.a(ticker.c.obj)
 .bss.m_current_timeslot
                0x200047b0       0x1c mesh/core/libmesh_core_nrf52840_xxAA.a(timeslot.c.obj)
 .bss.m_lfclk_ppm
                0x200047cc        0x4 mesh/core/libmesh_core_nrf52840_xxAA.a(timeslot.c.obj)
 .bss.m_radio_request_earliest
                0x200047d0       0x10 mesh/core/libmesh_core_nrf52840_xxAA.a(timeslot.c.obj)
 .bss.m_state_lock
                0x200047e0        0x1 mesh/core/libmesh_core_nrf52840_xxAA.a(timeslot.c.obj)
 .bss.m_timeslot_forced_command
                0x200047e1        0x1 mesh/core/libmesh_core_nrf52840_xxAA.a(timeslot.c.obj)
 *fill*         0x200047e2        0x6 
 .bss.s_last_rtc_value.9342
                0x200047e8        0x8 mesh/core/libmesh_core_nrf52840_xxAA.a(timeslot.c.obj)
 .bss.m_bearer_event_fifo
                0x200047f0       0x14 mesh/core/libmesh_core_nrf52840_xxAA.a(bearer_event.c.obj)
 .bss.m_bearer_event_fifo_buffer
                0x20004804      0x100 mesh/core/libmesh_core_nrf52840_xxAA.a(bearer_event.c.obj)
 .bss.m_critical
                0x20004904        0x4 mesh/core/libmesh_core_nrf52840_xxAA.a(bearer_event.c.obj)
 .bss.m_flag_count
                0x20004908        0x4 mesh/core/libmesh_core_nrf52840_xxAA.a(bearer_event.c.obj)
 .bss.m_flag_event_callbacks
                0x2000490c       0x18 mesh/core/libmesh_core_nrf52840_xxAA.a(bearer_event.c.obj)
 .bss.m_flags   0x20004924        0x4 mesh/core/libmesh_core_nrf52840_xxAA.a(bearer_event.c.obj)
 .bss.m_sequential_event_queue
                0x20004928        0x8 mesh/core/libmesh_core_nrf52840_xxAA.a(bearer_event.c.obj)
 .bss.m_relay_check_cb
                0x20004930        0x4 mesh/core/libmesh_core_nrf52840_xxAA.a(network.c.obj)
 .bss.m_relay_enable
                0x20004934        0x1 mesh/core/libmesh_core_nrf52840_xxAA.a(network.c.obj)
 *fill*         0x20004935        0x3 
 .bss.m_action_queue
                0x20004938        0xc mesh/core/libmesh_core_nrf52840_xxAA.a(flash_manager.c.obj)
 .bss.m_action_queue_buffer
                0x20004944      0x104 mesh/core/libmesh_core_nrf52840_xxAA.a(flash_manager.c.obj)
 .bss.m_action_state
                0x20004a48        0x1 mesh/core/libmesh_core_nrf52840_xxAA.a(flash_manager.c.obj)
 *fill*         0x20004a49        0x3 
 .bss.m_memory_listener_queue
                0x20004a4c        0x8 mesh/core/libmesh_core_nrf52840_xxAA.a(flash_manager.c.obj)
 .bss.m_processing_flag
                0x20004a54        0x4 mesh/core/libmesh_core_nrf52840_xxAA.a(flash_manager.c.obj)
 .bss.m_state   0x20004a58        0x1 mesh/core/libmesh_core_nrf52840_xxAA.a(flash_manager.c.obj)
 *fill*         0x20004a59        0x1 
 .bss.m_token   0x20004a5a        0x2 mesh/core/libmesh_core_nrf52840_xxAA.a(flash_manager.c.obj)
 .bss.p_current.11194
                0x20004a5c        0x4 mesh/core/libmesh_core_nrf52840_xxAA.a(flash_manager.c.obj)
 .bss.result.11195
                0x20004a60        0x1 mesh/core/libmesh_core_nrf52840_xxAA.a(flash_manager.c.obj)
 *fill*         0x20004a61        0x3 
 .bss.m_adv_buffer
                0x20004a64       0x68 mesh/core/libmesh_core_nrf52840_xxAA.a(beacon.c.obj)
 .bss.m_advertiser
                0x20004acc       0x94 mesh/core/libmesh_core_nrf52840_xxAA.a(beacon.c.obj)
 .bss.m_adv_tx_count
                0x20004b60        0x8 mesh/core/libmesh_core_nrf52840_xxAA.a(core_tx.c.obj)
 .bss.m_advertisers
                0x20004b68      0x128 mesh/core/libmesh_core_nrf52840_xxAA.a(core_tx.c.obj)
 .bss.m_originator_adv_packet_buffer
                0x20004c90      0x100 mesh/core/libmesh_core_nrf52840_xxAA.a(core_tx.c.obj)
 .bss.m_relay_adv_packet_buffer
                0x20004d90       0x80 mesh/core/libmesh_core_nrf52840_xxAA.a(core_tx.c.obj)
 .bss.m_tx_complete_callback
                0x20004e10        0x4 mesh/core/libmesh_core_nrf52840_xxAA.a(core_tx.c.obj)
 .bss.m_beacon_salt
                0x20004e14       0x10 mesh/core/libmesh_core_nrf52840_xxAA.a(net_beacon.c.obj)
 .bss.m_enabled
                0x20004e24        0x1 mesh/core/libmesh_core_nrf52840_xxAA.a(net_beacon.c.obj)
 *fill*         0x20004e25        0x3 
 .bss.m_tx_event
                0x20004e28       0x18 mesh/core/libmesh_core_nrf52840_xxAA.a(net_beacon.c.obj)
 .bss.m_adv_prng
                0x20004e40       0x10 mesh/core/libmesh_core_nrf52840_xxAA.a(advertiser.c.obj)
 .bss.m_action_queue
                0x20004e50        0x8 mesh/core/libmesh_core_nrf52840_xxAA.a(bearer_handler.c.obj)
 .bss.m_end_time
                0x20004e58        0x4 mesh/core/libmesh_core_nrf52840_xxAA.a(bearer_handler.c.obj)
 .bss.m_scanner_is_active
                0x20004e5c        0x1 mesh/core/libmesh_core_nrf52840_xxAA.a(bearer_handler.c.obj)
 .bss.m_stopped
                0x20004e5d        0x1 mesh/core/libmesh_core_nrf52840_xxAA.a(bearer_handler.c.obj)
 *fill*         0x20004e5e        0x2 
 .bss.mp_action
                0x20004e60        0x4 mesh/core/libmesh_core_nrf52840_xxAA.a(bearer_handler.c.obj)
 .bss.m_next_channel_index
                0x20004e64        0x1 mesh/core/libmesh_core_nrf52840_xxAA.a(broadcast.c.obj)
 *fill*         0x20004e65        0x3 
 .bss.m_scanner
                0x20004e68      0x284 mesh/core/libmesh_core_nrf52840_xxAA.a(scanner.c.obj)
 .bss.m_msg_cache
                0x200050ec      0x100 mesh/core/libmesh_core_nrf52840_xxAA.a(msg_cache.c.obj)
 .bss.m_msg_cache_head
                0x200051ec        0x4 mesh/core/libmesh_core_nrf52840_xxAA.a(msg_cache.c.obj)
 .bss.m_sar_alloc
                0x200051f0        0x4 mesh/core/libmesh_core_nrf52840_xxAA.a(transport.c.obj)
 .bss.m_sar_process_flag
                0x200051f4        0x4 mesh/core/libmesh_core_nrf52840_xxAA.a(transport.c.obj)
 .bss.m_sar_release
                0x200051f8        0x4 mesh/core/libmesh_core_nrf52840_xxAA.a(transport.c.obj)
 .bss.m_sar_session_cache
                0x200051fc       0x40 mesh/core/libmesh_core_nrf52840_xxAA.a(transport.c.obj)
 .bss.m_sar_session_cache_head
                0x2000523c        0x4 mesh/core/libmesh_core_nrf52840_xxAA.a(transport.c.obj)
 .bss.m_trs_config
                0x20005240       0x18 mesh/core/libmesh_core_nrf52840_xxAA.a(transport.c.obj)
 .bss.m_trs_sar_sessions
                0x20005258      0x1b0 mesh/core/libmesh_core_nrf52840_xxAA.a(transport.c.obj)
 .bss.m_defrag  0x20005408       0x1c mesh/core/libmesh_core_nrf52840_xxAA.a(flash_manager_defrag.c.obj)
 .bss.m_token   0x20005424        0x2 mesh/core/libmesh_core_nrf52840_xxAA.a(flash_manager_defrag.c.obj)
 *fill*         0x20005426        0x2 
 .bss.mp_recovery_area
                0x20005428        0x4 mesh/core/libmesh_core_nrf52840_xxAA.a(flash_manager_defrag.c.obj)
 .bss.p_null_ptr.10247
                0x2000542c        0x4 mesh/core/libmesh_core_nrf52840_xxAA.a(flash_manager_defrag.c.obj)
 .bss.m_pool    0x20005430     0x1000 mesh/core/libmesh_core_nrf52840_xxAA.a(packet_mgr.c.obj)
 .bss.mp_free_head
                0x20006430        0x4 mesh/core/libmesh_core_nrf52840_xxAA.a(packet_mgr.c.obj)
 .bss.m_128buf  0x20006434       0x10 mesh/core/libmesh_core_nrf52840_xxAA.a(aes_cmac.c.obj)
 .bss.m_subkey1
                0x20006444       0x10 mesh/core/libmesh_core_nrf52840_xxAA.a(aes_cmac.c.obj)
 .bss.m_subkey2
                0x20006454       0x10 mesh/core/libmesh_core_nrf52840_xxAA.a(aes_cmac.c.obj)
 .bss.m_cache_full
                0x20006464        0x1 mesh/core/libmesh_core_nrf52840_xxAA.a(replay_cache.c.obj)
 .bss.m_cache_index
                0x20006465        0x1 mesh/core/libmesh_core_nrf52840_xxAA.a(replay_cache.c.obj)
 *fill*         0x20006466        0x2 
 .bss.m_replay_cache
                0x20006468      0x200 mesh/core/libmesh_core_nrf52840_xxAA.a(replay_cache.c.obj)
 .bss.m_accepted_amount
                0x20006668        0x4 mesh/core/libmesh_core_nrf52840_xxAA.a(filter_engine.c.obj)
 .bss.m_filter_list_head
                0x2000666c        0x4 mesh/core/libmesh_core_nrf52840_xxAA.a(filter_engine.c.obj)
 .bss._acDownBuffer
                0x20006670       0x80 external/rtt/librtt_nrf52840_xxAA.a(SEGGER_RTT.c.obj)
 .bss._acUpBuffer
                0x200066f0      0x400 external/rtt/librtt_nrf52840_xxAA.a(SEGGER_RTT.c.obj)
 .bss.__malloc_free_list
                0x20006af0        0x4 c:/a/gcc_arm/6/bin/../lib/gcc/arm-none-eabi/6.3.1/../../../../arm-none-eabi/lib/thumb/v7e-m/fpv4-sp/hard\libc_nano.a(lib_a-nano-mallocr.o)
                0x20006af0                __malloc_free_list
 .bss.__malloc_sbrk_start
                0x20006af4        0x4 c:/a/gcc_arm/6/bin/../lib/gcc/arm-none-eabi/6.3.1/../../../../arm-none-eabi/lib/thumb/v7e-m/fpv4-sp/hard\libc_nano.a(lib_a-nano-mallocr.o)
                0x20006af4                __malloc_sbrk_start
 .bss.heap_end.5239
                0x20006af8        0x4 c:/a/gcc_arm/6/bin/../lib/gcc/arm-none-eabi/6.3.1/../../../../arm-none-eabi/lib/thumb/v7e-m/fpv4-sp/hard\libnosys.a(sbrk.o)
 *(COMMON)
 COMMON         0x20006afc        0x8 examples/dfu/CMakeFiles/dfu_nrf52840_xxAA_s140_5.0.0-3.alpha.dir/src/main.c.obj
                0x20006afc                bank_addr
                0x20006b00                rom_length
 COMMON         0x20006b04        0xc examples/dfu/CMakeFiles/dfu_nrf52840_xxAA_s140_5.0.0-3.alpha.dir/__/nrf_mesh_sdk.c.obj
                0x20006b04                nrf_nvic_state
 COMMON         0x20006b10        0x4 examples/dfu/CMakeFiles/dfu_nrf52840_xxAA_s140_5.0.0-3.alpha.dir/__/__/mesh/dfu/src/nrf_mesh_dfu.c.obj
                0x20006b10                m_cmd_handler
 COMMON         0x20006b14        0x4 mesh/core/libmesh_core_nrf52840_xxAA.a(nrf_mesh.c.obj)
                0x20006b14                m_assertion_handler
 COMMON         0x20006b18       0x78 external/rtt/librtt_nrf52840_xxAA.a(SEGGER_RTT.c.obj)
                0x20006b18                _SEGGER_RTT
 COMMON         0x20006b90        0x4 c:/a/gcc_arm/6/bin/../lib/gcc/arm-none-eabi/6.3.1/../../../../arm-none-eabi/lib/thumb/v7e-m/fpv4-sp/hard\libc_nano.a(lib_a-reent.o)
                0x20006b90                errno
                0x20006b94                . = ALIGN (0x4)
                0x20006b94                __bss_end__ = .

.heap           0x20006b98     0x2000
                0x20006b98                __HeapBase = .
                0x20006b98                __end__ = .
                0x20006b98                PROVIDE (end, .)
 *(.heap*)
 .heap          0x20006b98     0x2000 examples/dfu/CMakeFiles/dfu_nrf52840_xxAA_s140_5.0.0-3.alpha.dir/__/__/external/nRF5_SDK_14.0.0_3bcc1f7/components/toolchain/gcc/gcc_startup_nrf52840.S.obj
                0x20008b98                __HeapLimit = .

.stack_dummy    0x20006b98     0x2000
 *(.stack*)
 .stack         0x20006b98     0x2000 examples/dfu/CMakeFiles/dfu_nrf52840_xxAA_s140_5.0.0-3.alpha.dir/__/__/external/nRF5_SDK_14.0.0_3bcc1f7/components/toolchain/gcc/gcc_startup_nrf52840.S.obj
                0x2003e002                __StackTop = (ORIGIN (RAM) + LENGTH (RAM))
                0x2003c002                __StackLimit = (__StackTop - SIZEOF (.stack_dummy))
                0x2003e002                PROVIDE (__stack, __StackTop)
                0x00000001                ASSERT ((__StackLimit >= __HeapLimit), region RAM overflowed with stack)
OUTPUT(examples\dfu\dfu_nrf52840_xxAA_s140_5.0.0-3.alpha.elf elf32-littlearm)

.ARM.attributes
                0x00000000       0x30
 .ARM.attributes
                0x00000000       0x22 c:/a/gcc_arm/6/bin/../lib/gcc/arm-none-eabi/6.3.1/thumb/v7e-m/fpv4-sp/hard/crti.o
 .ARM.attributes
                0x00000022       0x34 c:/a/gcc_arm/6/bin/../lib/gcc/arm-none-eabi/6.3.1/thumb/v7e-m/fpv4-sp/hard/crtbegin.o
 .ARM.attributes
                0x00000056       0x20 c:/a/gcc_arm/6/bin/../lib/gcc/arm-none-eabi/6.3.1/../../../../arm-none-eabi/lib/thumb/v7e-m/fpv4-sp/hard/crt0.o
 .ARM.attributes
                0x00000076       0x39 examples/dfu/CMakeFiles/dfu_nrf52840_xxAA_s140_5.0.0-3.alpha.dir/src/main.c.obj
 .ARM.attributes
                0x000000af       0x39 examples/dfu/CMakeFiles/dfu_nrf52840_xxAA_s140_5.0.0-3.alpha.dir/__/nrf_mesh_sdk.c.obj
 .ARM.attributes
                0x000000e8       0x39 examples/dfu/CMakeFiles/dfu_nrf52840_xxAA_s140_5.0.0-3.alpha.dir/__/__/mesh/access/src/access_publish.c.obj
 .ARM.attributes
                0x00000121       0x39 examples/dfu/CMakeFiles/dfu_nrf52840_xxAA_s140_5.0.0-3.alpha.dir/__/__/mesh/access/src/access.c.obj
 .ARM.attributes
                0x0000015a       0x39 examples/dfu/CMakeFiles/dfu_nrf52840_xxAA_s140_5.0.0-3.alpha.dir/__/__/mesh/access/src/access_reliable.c.obj
 .ARM.attributes
                0x00000193       0x39 examples/dfu/CMakeFiles/dfu_nrf52840_xxAA_s140_5.0.0-3.alpha.dir/__/__/mesh/access/src/device_state_manager.c.obj
 .ARM.attributes
                0x000001cc       0x39 examples/dfu/CMakeFiles/dfu_nrf52840_xxAA_s140_5.0.0-3.alpha.dir/__/__/mesh/serial/src/serial_uart.c.obj
 .ARM.attributes
                0x00000205       0x39 examples/dfu/CMakeFiles/dfu_nrf52840_xxAA_s140_5.0.0-3.alpha.dir/__/__/mesh/serial/src/serial_bearer.c.obj
 .ARM.attributes
                0x0000023e       0x39 examples/dfu/CMakeFiles/dfu_nrf52840_xxAA_s140_5.0.0-3.alpha.dir/__/__/mesh/serial/src/serial_handler_common.c.obj
 .ARM.attributes
                0x00000277       0x39 examples/dfu/CMakeFiles/dfu_nrf52840_xxAA_s140_5.0.0-3.alpha.dir/__/__/mesh/serial/src/serial_handler_access.c.obj
 .ARM.attributes
                0x000002b0       0x39 examples/dfu/CMakeFiles/dfu_nrf52840_xxAA_s140_5.0.0-3.alpha.dir/__/__/mesh/serial/src/serial_handler_config.c.obj
 .ARM.attributes
                0x000002e9       0x39 examples/dfu/CMakeFiles/dfu_nrf52840_xxAA_s140_5.0.0-3.alpha.dir/__/__/mesh/serial/src/serial_handler_openmesh.c.obj
 .ARM.attributes
                0x00000322       0x39 examples/dfu/CMakeFiles/dfu_nrf52840_xxAA_s140_5.0.0-3.alpha.dir/__/__/mesh/serial/src/serial.c.obj
 .ARM.attributes
                0x0000035b       0x39 examples/dfu/CMakeFiles/dfu_nrf52840_xxAA_s140_5.0.0-3.alpha.dir/__/__/mesh/serial/src/serial_handler_prov.c.obj
 .ARM.attributes
                0x00000394       0x39 examples/dfu/CMakeFiles/dfu_nrf52840_xxAA_s140_5.0.0-3.alpha.dir/__/__/mesh/serial/src/serial_handler_dfu.c.obj
 .ARM.attributes
                0x000003cd       0x39 examples/dfu/CMakeFiles/dfu_nrf52840_xxAA_s140_5.0.0-3.alpha.dir/__/__/mesh/serial/src/serial_handler_mesh.c.obj
 .ARM.attributes
                0x00000406       0x39 examples/dfu/CMakeFiles/dfu_nrf52840_xxAA_s140_5.0.0-3.alpha.dir/__/__/mesh/serial/src/serial_handler_models.c.obj
 .ARM.attributes
                0x0000043f       0x39 examples/dfu/CMakeFiles/dfu_nrf52840_xxAA_s140_5.0.0-3.alpha.dir/__/__/mesh/serial/src/serial_handler_device.c.obj
 .ARM.attributes
                0x00000478       0x39 examples/dfu/CMakeFiles/dfu_nrf52840_xxAA_s140_5.0.0-3.alpha.dir/__/__/mesh/serial/src/nrf_mesh_serial.c.obj
 .ARM.attributes
                0x000004b1       0x39 examples/dfu/CMakeFiles/dfu_nrf52840_xxAA_s140_5.0.0-3.alpha.dir/__/__/mesh/serial/src/serial_handler_app.c.obj
 .ARM.attributes
                0x000004ea       0x39 examples/dfu/CMakeFiles/dfu_nrf52840_xxAA_s140_5.0.0-3.alpha.dir/__/__/mesh/prov/src/prov_provisioner.c.obj
 .ARM.attributes
                0x00000523       0x39 examples/dfu/CMakeFiles/dfu_nrf52840_xxAA_s140_5.0.0-3.alpha.dir/__/__/mesh/prov/src/prov_provisionee.c.obj
 .ARM.attributes
                0x0000055c       0x39 examples/dfu/CMakeFiles/dfu_nrf52840_xxAA_s140_5.0.0-3.alpha.dir/__/__/mesh/prov/src/nrf_mesh_prov.c.obj
 .ARM.attributes
                0x00000595       0x39 examples/dfu/CMakeFiles/dfu_nrf52840_xxAA_s140_5.0.0-3.alpha.dir/__/__/mesh/prov/src/provisioning.c.obj
 .ARM.attributes
                0x000005ce       0x39 examples/dfu/CMakeFiles/dfu_nrf52840_xxAA_s140_5.0.0-3.alpha.dir/__/__/mesh/prov/src/prov_beacon.c.obj
 .ARM.attributes
                0x00000607       0x39 examples/dfu/CMakeFiles/dfu_nrf52840_xxAA_s140_5.0.0-3.alpha.dir/__/__/mesh/prov/src/prov_utils.c.obj
 .ARM.attributes
                0x00000640       0x39 examples/dfu/CMakeFiles/dfu_nrf52840_xxAA_s140_5.0.0-3.alpha.dir/__/__/mesh/prov/src/prov_bearer_adv.c.obj
 .ARM.attributes
                0x00000679       0x39 examples/dfu/CMakeFiles/dfu_nrf52840_xxAA_s140_5.0.0-3.alpha.dir/__/__/mesh/dfu/src/nrf_mesh_dfu.c.obj
 .ARM.attributes
                0x000006b2       0x39 examples/dfu/CMakeFiles/dfu_nrf52840_xxAA_s140_5.0.0-3.alpha.dir/__/__/external/nRF5_SDK_14.0.0_3bcc1f7/components/toolchain/system_nrf52840.c.obj
 .ARM.attributes
                0x000006eb       0x20 examples/dfu/CMakeFiles/dfu_nrf52840_xxAA_s140_5.0.0-3.alpha.dir/__/__/external/nRF5_SDK_14.0.0_3bcc1f7/components/toolchain/gcc/gcc_startup_nrf52840.S.obj
 .ARM.attributes
                0x0000070b       0x39 mesh/core/libmesh_core_nrf52840_xxAA.a(internal_event.c.obj)
 .ARM.attributes
                0x00000744       0x39 mesh/core/libmesh_core_nrf52840_xxAA.a(nrf_mesh_configure.c.obj)
 .ARM.attributes
                0x0000077d       0x39 mesh/core/libmesh_core_nrf52840_xxAA.a(event.c.obj)
 .ARM.attributes
                0x000007b6       0x39 mesh/core/libmesh_core_nrf52840_xxAA.a(packet_buffer.c.obj)
 .ARM.attributes
                0x000007ef       0x39 mesh/core/libmesh_core_nrf52840_xxAA.a(fifo.c.obj)
 .ARM.attributes
                0x00000828       0x39 mesh/core/libmesh_core_nrf52840_xxAA.a(net_state.c.obj)
 .ARM.attributes
                0x00000861       0x39 mesh/core/libmesh_core_nrf52840_xxAA.a(mesh_flash.c.obj)
 .ARM.attributes
                0x0000089a       0x39 mesh/core/libmesh_core_nrf52840_xxAA.a(nrf_mesh_utils.c.obj)
 .ARM.attributes
                0x000008d3       0x39 mesh/core/libmesh_core_nrf52840_xxAA.a(nrf_mesh.c.obj)
 .ARM.attributes
                0x0000090c       0x39 mesh/core/libmesh_core_nrf52840_xxAA.a(hal.c.obj)
 .ARM.attributes
                0x00000945       0x39 mesh/core/libmesh_core_nrf52840_xxAA.a(timer_scheduler.c.obj)
 .ARM.attributes
                0x0000097e       0x39 mesh/core/libmesh_core_nrf52840_xxAA.a(timer.c.obj)
 .ARM.attributes
                0x000009b7       0x39 mesh/core/libmesh_core_nrf52840_xxAA.a(ticker.c.obj)
 .ARM.attributes
                0x000009f0       0x39 mesh/core/libmesh_core_nrf52840_xxAA.a(rand.c.obj)
 .ARM.attributes
                0x00000a29       0x39 mesh/core/libmesh_core_nrf52840_xxAA.a(timeslot.c.obj)
 .ARM.attributes
                0x00000a62       0x39 mesh/core/libmesh_core_nrf52840_xxAA.a(bearer_event.c.obj)
 .ARM.attributes
                0x00000a9b       0x39 mesh/core/libmesh_core_nrf52840_xxAA.a(enc.c.obj)
 .ARM.attributes
                0x00000ad4       0x39 mesh/core/libmesh_core_nrf52840_xxAA.a(network.c.obj)
 .ARM.attributes
                0x00000b0d       0x39 mesh/core/libmesh_core_nrf52840_xxAA.a(msqueue.c.obj)
 .ARM.attributes
                0x00000b46       0x39 mesh/core/libmesh_core_nrf52840_xxAA.a(nrf_mesh_keygen.c.obj)
 .ARM.attributes
                0x00000b7f       0x39 mesh/core/libmesh_core_nrf52840_xxAA.a(log.c.obj)
 .ARM.attributes
                0x00000bb8       0x39 mesh/core/libmesh_core_nrf52840_xxAA.a(flash_manager.c.obj)
 .ARM.attributes
                0x00000bf1       0x39 mesh/core/libmesh_core_nrf52840_xxAA.a(ccm_soft.c.obj)
 .ARM.attributes
                0x00000c2a       0x39 mesh/core/libmesh_core_nrf52840_xxAA.a(beacon.c.obj)
 .ARM.attributes
                0x00000c63       0x39 mesh/core/libmesh_core_nrf52840_xxAA.a(flash_manager_internal.c.obj)
 .ARM.attributes
                0x00000c9c       0x39 mesh/core/libmesh_core_nrf52840_xxAA.a(core_tx.c.obj)
 .ARM.attributes
                0x00000cd5       0x39 mesh/core/libmesh_core_nrf52840_xxAA.a(net_beacon.c.obj)
 .ARM.attributes
                0x00000d0e       0x39 mesh/core/libmesh_core_nrf52840_xxAA.a(advertiser.c.obj)
 .ARM.attributes
                0x00000d47       0x39 mesh/core/libmesh_core_nrf52840_xxAA.a(bearer_handler.c.obj)
 .ARM.attributes
                0x00000d80       0x39 mesh/core/libmesh_core_nrf52840_xxAA.a(broadcast.c.obj)
 .ARM.attributes
                0x00000db9       0x39 mesh/core/libmesh_core_nrf52840_xxAA.a(radio_config.c.obj)
 .ARM.attributes
                0x00000df2       0x39 mesh/core/libmesh_core_nrf52840_xxAA.a(scanner.c.obj)
 .ARM.attributes
                0x00000e2b       0x39 mesh/core/libmesh_core_nrf52840_xxAA.a(aes.c.obj)
 .ARM.attributes
                0x00000e64       0x39 mesh/core/libmesh_core_nrf52840_xxAA.a(msg_cache.c.obj)
 .ARM.attributes
                0x00000e9d       0x39 mesh/core/libmesh_core_nrf52840_xxAA.a(transport.c.obj)
 .ARM.attributes
                0x00000ed6       0x39 mesh/core/libmesh_core_nrf52840_xxAA.a(flash_manager_defrag.c.obj)
 .ARM.attributes
                0x00000f0f       0x39 mesh/core/libmesh_core_nrf52840_xxAA.a(nrf_flash.c.obj)
 .ARM.attributes
                0x00000f48       0x39 mesh/core/libmesh_core_nrf52840_xxAA.a(packet_mgr.c.obj)
 .ARM.attributes
                0x00000f81       0x39 mesh/core/libmesh_core_nrf52840_xxAA.a(queue.c.obj)
 .ARM.attributes
                0x00000fba       0x39 mesh/core/libmesh_core_nrf52840_xxAA.a(aes_cmac.c.obj)
 .ARM.attributes
                0x00000ff3       0x39 mesh/core/libmesh_core_nrf52840_xxAA.a(replay_cache.c.obj)
 .ARM.attributes
                0x0000102c       0x39 mesh/core/libmesh_core_nrf52840_xxAA.a(filter_engine.c.obj)
 .ARM.attributes
                0x00001065       0x39 external/rtt/librtt_nrf52840_xxAA.a(SEGGER_RTT.c.obj)
 .ARM.attributes
                0x0000109e       0x39 external/rtt/librtt_nrf52840_xxAA.a(SEGGER_RTT_printf.c.obj)
 .ARM.attributes
                0x000010d7       0x39 external/micro-ecc/libuECC_nrf52840_xxAA.a(uECC.c.obj)
 .ARM.attributes
                0x00001110       0x34 c:/a/gcc_arm/6/bin/../lib/gcc/arm-none-eabi/6.3.1/../../../../arm-none-eabi/lib/thumb/v7e-m/fpv4-sp/hard\libc_nano.a(lib_a-exit.o)
 .ARM.attributes
                0x00001144       0x34 c:/a/gcc_arm/6/bin/../lib/gcc/arm-none-eabi/6.3.1/../../../../arm-none-eabi/lib/thumb/v7e-m/fpv4-sp/hard\libc_nano.a(lib_a-impure.o)
 .ARM.attributes
                0x00001178       0x34 c:/a/gcc_arm/6/bin/../lib/gcc/arm-none-eabi/6.3.1/../../../../arm-none-eabi/lib/thumb/v7e-m/fpv4-sp/hard\libc_nano.a(lib_a-init.o)
 .ARM.attributes
                0x000011ac       0x34 c:/a/gcc_arm/6/bin/../lib/gcc/arm-none-eabi/6.3.1/../../../../arm-none-eabi/lib/thumb/v7e-m/fpv4-sp/hard\libc_nano.a(lib_a-malloc.o)
 .ARM.attributes
                0x000011e0       0x34 c:/a/gcc_arm/6/bin/../lib/gcc/arm-none-eabi/6.3.1/../../../../arm-none-eabi/lib/thumb/v7e-m/fpv4-sp/hard\libc_nano.a(lib_a-memcmp.o)
 .ARM.attributes
                0x00001214       0x34 c:/a/gcc_arm/6/bin/../lib/gcc/arm-none-eabi/6.3.1/../../../../arm-none-eabi/lib/thumb/v7e-m/fpv4-sp/hard\libc_nano.a(lib_a-memcpy-stub.o)
 .ARM.attributes
                0x00001248       0x34 c:/a/gcc_arm/6/bin/../lib/gcc/arm-none-eabi/6.3.1/../../../../arm-none-eabi/lib/thumb/v7e-m/fpv4-sp/hard\libc_nano.a(lib_a-memset.o)
 .ARM.attributes
                0x0000127c       0x34 c:/a/gcc_arm/6/bin/../lib/gcc/arm-none-eabi/6.3.1/../../../../arm-none-eabi/lib/thumb/v7e-m/fpv4-sp/hard\libc_nano.a(lib_a-nano-freer.o)
 .ARM.attributes
                0x000012b0       0x34 c:/a/gcc_arm/6/bin/../lib/gcc/arm-none-eabi/6.3.1/../../../../arm-none-eabi/lib/thumb/v7e-m/fpv4-sp/hard\libc_nano.a(lib_a-nano-mallocr.o)
 .ARM.attributes
                0x000012e4       0x34 c:/a/gcc_arm/6/bin/../lib/gcc/arm-none-eabi/6.3.1/../../../../arm-none-eabi/lib/thumb/v7e-m/fpv4-sp/hard\libc_nano.a(lib_a-sbrkr.o)
 .ARM.attributes
                0x00001318       0x34 c:/a/gcc_arm/6/bin/../lib/gcc/arm-none-eabi/6.3.1/../../../../arm-none-eabi/lib/thumb/v7e-m/fpv4-sp/hard\libc_nano.a(lib_a-strcpy.o)
 .ARM.attributes
                0x0000134c       0x1b c:/a/gcc_arm/6/bin/../lib/gcc/arm-none-eabi/6.3.1/../../../../arm-none-eabi/lib/thumb/v7e-m/fpv4-sp/hard\libc_nano.a(lib_a-strlen.o)
 .ARM.attributes
                0x00001367       0x34 c:/a/gcc_arm/6/bin/../lib/gcc/arm-none-eabi/6.3.1/../../../../arm-none-eabi/lib/thumb/v7e-m/fpv4-sp/hard\libc_nano.a(lib_a-strrchr.o)
 .ARM.attributes
                0x0000139b       0x34 c:/a/gcc_arm/6/bin/../lib/gcc/arm-none-eabi/6.3.1/../../../../arm-none-eabi/lib/thumb/v7e-m/fpv4-sp/hard\libc_nano.a(lib_a-mlock.o)
 .ARM.attributes
                0x000013cf       0x34 c:/a/gcc_arm/6/bin/../lib/gcc/arm-none-eabi/6.3.1/../../../../arm-none-eabi/lib/thumb/v7e-m/fpv4-sp/hard\libc_nano.a(lib_a-reent.o)
 .ARM.attributes
                0x00001403       0x34 c:/a/gcc_arm/6/bin/../lib/gcc/arm-none-eabi/6.3.1/../../../../arm-none-eabi/lib/thumb/v7e-m/fpv4-sp/hard\libc_nano.a(lib_a-strchr.o)
 .ARM.attributes
                0x00001437       0x34 c:/a/gcc_arm/6/bin/../lib/gcc/arm-none-eabi/6.3.1/thumb/v7e-m/fpv4-sp/hard/crtend.o
 .ARM.attributes
                0x0000146b       0x22 c:/a/gcc_arm/6/bin/../lib/gcc/arm-none-eabi/6.3.1/thumb/v7e-m/fpv4-sp/hard/crtn.o
 .ARM.attributes
                0x0000148d       0x34 c:/a/gcc_arm/6/bin/../lib/gcc/arm-none-eabi/6.3.1/../../../../arm-none-eabi/lib/thumb/v7e-m/fpv4-sp/hard\libnosys.a(sbrk.o)
 .ARM.attributes
                0x000014c1       0x34 c:/a/gcc_arm/6/bin/../lib/gcc/arm-none-eabi/6.3.1/../../../../arm-none-eabi/lib/thumb/v7e-m/fpv4-sp/hard\libnosys.a(_exit.o)

.comment        0x00000000       0x7f
 .comment       0x00000000       0x7f examples/dfu/CMakeFiles/dfu_nrf52840_xxAA_s140_5.0.0-3.alpha.dir/src/main.c.obj
                                 0x80 (size before relaxing)
 .comment       0x0000007f       0x80 examples/dfu/CMakeFiles/dfu_nrf52840_xxAA_s140_5.0.0-3.alpha.dir/__/nrf_mesh_sdk.c.obj
 .comment       0x0000007f       0x80 examples/dfu/CMakeFiles/dfu_nrf52840_xxAA_s140_5.0.0-3.alpha.dir/__/__/mesh/access/src/access_publish.c.obj
 .comment       0x0000007f       0x80 examples/dfu/CMakeFiles/dfu_nrf52840_xxAA_s140_5.0.0-3.alpha.dir/__/__/mesh/access/src/access.c.obj
 .comment       0x0000007f       0x80 examples/dfu/CMakeFiles/dfu_nrf52840_xxAA_s140_5.0.0-3.alpha.dir/__/__/mesh/access/src/access_reliable.c.obj
 .comment       0x0000007f       0x80 examples/dfu/CMakeFiles/dfu_nrf52840_xxAA_s140_5.0.0-3.alpha.dir/__/__/mesh/access/src/device_state_manager.c.obj
 .comment       0x0000007f       0x80 examples/dfu/CMakeFiles/dfu_nrf52840_xxAA_s140_5.0.0-3.alpha.dir/__/__/mesh/serial/src/serial_uart.c.obj
 .comment       0x0000007f       0x80 examples/dfu/CMakeFiles/dfu_nrf52840_xxAA_s140_5.0.0-3.alpha.dir/__/__/mesh/serial/src/serial_bearer.c.obj
 .comment       0x0000007f       0x80 examples/dfu/CMakeFiles/dfu_nrf52840_xxAA_s140_5.0.0-3.alpha.dir/__/__/mesh/serial/src/serial_handler_common.c.obj
 .comment       0x0000007f       0x80 examples/dfu/CMakeFiles/dfu_nrf52840_xxAA_s140_5.0.0-3.alpha.dir/__/__/mesh/serial/src/serial_handler_access.c.obj
 .comment       0x0000007f       0x80 examples/dfu/CMakeFiles/dfu_nrf52840_xxAA_s140_5.0.0-3.alpha.dir/__/__/mesh/serial/src/serial_handler_config.c.obj
 .comment       0x0000007f       0x80 examples/dfu/CMakeFiles/dfu_nrf52840_xxAA_s140_5.0.0-3.alpha.dir/__/__/mesh/serial/src/serial_handler_openmesh.c.obj
 .comment       0x0000007f       0x80 examples/dfu/CMakeFiles/dfu_nrf52840_xxAA_s140_5.0.0-3.alpha.dir/__/__/mesh/serial/src/serial.c.obj
 .comment       0x0000007f       0x80 examples/dfu/CMakeFiles/dfu_nrf52840_xxAA_s140_5.0.0-3.alpha.dir/__/__/mesh/serial/src/serial_handler_prov.c.obj
 .comment       0x0000007f       0x80 examples/dfu/CMakeFiles/dfu_nrf52840_xxAA_s140_5.0.0-3.alpha.dir/__/__/mesh/serial/src/serial_handler_dfu.c.obj
 .comment       0x0000007f       0x80 examples/dfu/CMakeFiles/dfu_nrf52840_xxAA_s140_5.0.0-3.alpha.dir/__/__/mesh/serial/src/serial_handler_mesh.c.obj
 .comment       0x0000007f       0x80 examples/dfu/CMakeFiles/dfu_nrf52840_xxAA_s140_5.0.0-3.alpha.dir/__/__/mesh/serial/src/serial_handler_models.c.obj
 .comment       0x0000007f       0x80 examples/dfu/CMakeFiles/dfu_nrf52840_xxAA_s140_5.0.0-3.alpha.dir/__/__/mesh/serial/src/serial_handler_device.c.obj
 .comment       0x0000007f       0x80 examples/dfu/CMakeFiles/dfu_nrf52840_xxAA_s140_5.0.0-3.alpha.dir/__/__/mesh/serial/src/nrf_mesh_serial.c.obj
 .comment       0x0000007f       0x80 examples/dfu/CMakeFiles/dfu_nrf52840_xxAA_s140_5.0.0-3.alpha.dir/__/__/mesh/serial/src/serial_handler_app.c.obj
 .comment       0x0000007f       0x80 examples/dfu/CMakeFiles/dfu_nrf52840_xxAA_s140_5.0.0-3.alpha.dir/__/__/mesh/prov/src/prov_provisioner.c.obj
 .comment       0x0000007f       0x80 examples/dfu/CMakeFiles/dfu_nrf52840_xxAA_s140_5.0.0-3.alpha.dir/__/__/mesh/prov/src/prov_provisionee.c.obj
 .comment       0x0000007f       0x80 examples/dfu/CMakeFiles/dfu_nrf52840_xxAA_s140_5.0.0-3.alpha.dir/__/__/mesh/prov/src/nrf_mesh_prov.c.obj
 .comment       0x0000007f       0x80 examples/dfu/CMakeFiles/dfu_nrf52840_xxAA_s140_5.0.0-3.alpha.dir/__/__/mesh/prov/src/provisioning.c.obj
 .comment       0x0000007f       0x80 examples/dfu/CMakeFiles/dfu_nrf52840_xxAA_s140_5.0.0-3.alpha.dir/__/__/mesh/prov/src/prov_beacon.c.obj
 .comment       0x0000007f       0x80 examples/dfu/CMakeFiles/dfu_nrf52840_xxAA_s140_5.0.0-3.alpha.dir/__/__/mesh/prov/src/prov_utils.c.obj
 .comment       0x0000007f       0x80 examples/dfu/CMakeFiles/dfu_nrf52840_xxAA_s140_5.0.0-3.alpha.dir/__/__/mesh/prov/src/prov_bearer_adv.c.obj
 .comment       0x0000007f       0x80 examples/dfu/CMakeFiles/dfu_nrf52840_xxAA_s140_5.0.0-3.alpha.dir/__/__/mesh/dfu/src/nrf_mesh_dfu.c.obj
 .comment       0x0000007f       0x80 examples/dfu/CMakeFiles/dfu_nrf52840_xxAA_s140_5.0.0-3.alpha.dir/__/__/external/nRF5_SDK_14.0.0_3bcc1f7/components/toolchain/system_nrf52840.c.obj
 .comment       0x0000007f       0x80 mesh/core/libmesh_core_nrf52840_xxAA.a(internal_event.c.obj)
 .comment       0x0000007f       0x80 mesh/core/libmesh_core_nrf52840_xxAA.a(nrf_mesh_configure.c.obj)
 .comment       0x0000007f       0x80 mesh/core/libmesh_core_nrf52840_xxAA.a(event.c.obj)
 .comment       0x0000007f       0x80 mesh/core/libmesh_core_nrf52840_xxAA.a(packet_buffer.c.obj)
 .comment       0x0000007f       0x80 mesh/core/libmesh_core_nrf52840_xxAA.a(fifo.c.obj)
 .comment       0x0000007f       0x80 mesh/core/libmesh_core_nrf52840_xxAA.a(net_state.c.obj)
 .comment       0x0000007f       0x80 mesh/core/libmesh_core_nrf52840_xxAA.a(mesh_flash.c.obj)
 .comment       0x0000007f       0x80 mesh/core/libmesh_core_nrf52840_xxAA.a(nrf_mesh_utils.c.obj)
 .comment       0x0000007f       0x80 mesh/core/libmesh_core_nrf52840_xxAA.a(nrf_mesh.c.obj)
 .comment       0x0000007f       0x80 mesh/core/libmesh_core_nrf52840_xxAA.a(hal.c.obj)
 .comment       0x0000007f       0x80 mesh/core/libmesh_core_nrf52840_xxAA.a(timer_scheduler.c.obj)
 .comment       0x0000007f       0x80 mesh/core/libmesh_core_nrf52840_xxAA.a(timer.c.obj)
 .comment       0x0000007f       0x80 mesh/core/libmesh_core_nrf52840_xxAA.a(ticker.c.obj)
 .comment       0x0000007f       0x80 mesh/core/libmesh_core_nrf52840_xxAA.a(rand.c.obj)
 .comment       0x0000007f       0x80 mesh/core/libmesh_core_nrf52840_xxAA.a(timeslot.c.obj)
 .comment       0x0000007f       0x80 mesh/core/libmesh_core_nrf52840_xxAA.a(bearer_event.c.obj)
 .comment       0x0000007f       0x80 mesh/core/libmesh_core_nrf52840_xxAA.a(enc.c.obj)
 .comment       0x0000007f       0x80 mesh/core/libmesh_core_nrf52840_xxAA.a(network.c.obj)
 .comment       0x0000007f       0x80 mesh/core/libmesh_core_nrf52840_xxAA.a(msqueue.c.obj)
 .comment       0x0000007f       0x80 mesh/core/libmesh_core_nrf52840_xxAA.a(nrf_mesh_keygen.c.obj)
 .comment       0x0000007f       0x80 mesh/core/libmesh_core_nrf52840_xxAA.a(log.c.obj)
 .comment       0x0000007f       0x80 mesh/core/libmesh_core_nrf52840_xxAA.a(flash_manager.c.obj)
 .comment       0x0000007f       0x80 mesh/core/libmesh_core_nrf52840_xxAA.a(ccm_soft.c.obj)
 .comment       0x0000007f       0x80 mesh/core/libmesh_core_nrf52840_xxAA.a(beacon.c.obj)
 .comment       0x0000007f       0x80 mesh/core/libmesh_core_nrf52840_xxAA.a(flash_manager_internal.c.obj)
 .comment       0x0000007f       0x80 mesh/core/libmesh_core_nrf52840_xxAA.a(core_tx.c.obj)
 .comment       0x0000007f       0x80 mesh/core/libmesh_core_nrf52840_xxAA.a(net_beacon.c.obj)
 .comment       0x0000007f       0x80 mesh/core/libmesh_core_nrf52840_xxAA.a(advertiser.c.obj)
 .comment       0x0000007f       0x80 mesh/core/libmesh_core_nrf52840_xxAA.a(bearer_handler.c.obj)
 .comment       0x0000007f       0x80 mesh/core/libmesh_core_nrf52840_xxAA.a(broadcast.c.obj)
 .comment       0x0000007f       0x80 mesh/core/libmesh_core_nrf52840_xxAA.a(radio_config.c.obj)
 .comment       0x0000007f       0x80 mesh/core/libmesh_core_nrf52840_xxAA.a(scanner.c.obj)
 .comment       0x0000007f       0x80 mesh/core/libmesh_core_nrf52840_xxAA.a(aes.c.obj)
 .comment       0x0000007f       0x80 mesh/core/libmesh_core_nrf52840_xxAA.a(msg_cache.c.obj)
 .comment       0x0000007f       0x80 mesh/core/libmesh_core_nrf52840_xxAA.a(transport.c.obj)
 .comment       0x0000007f       0x80 mesh/core/libmesh_core_nrf52840_xxAA.a(flash_manager_defrag.c.obj)
 .comment       0x0000007f       0x80 mesh/core/libmesh_core_nrf52840_xxAA.a(nrf_flash.c.obj)
 .comment       0x0000007f       0x80 mesh/core/libmesh_core_nrf52840_xxAA.a(packet_mgr.c.obj)
 .comment       0x0000007f       0x80 mesh/core/libmesh_core_nrf52840_xxAA.a(queue.c.obj)
 .comment       0x0000007f       0x80 mesh/core/libmesh_core_nrf52840_xxAA.a(aes_cmac.c.obj)
 .comment       0x0000007f       0x80 mesh/core/libmesh_core_nrf52840_xxAA.a(replay_cache.c.obj)
 .comment       0x0000007f       0x80 mesh/core/libmesh_core_nrf52840_xxAA.a(filter_engine.c.obj)
 .comment       0x0000007f       0x80 external/rtt/librtt_nrf52840_xxAA.a(SEGGER_RTT.c.obj)
 .comment       0x0000007f       0x80 external/rtt/librtt_nrf52840_xxAA.a(SEGGER_RTT_printf.c.obj)
 .comment       0x0000007f       0x80 external/micro-ecc/libuECC_nrf52840_xxAA.a(uECC.c.obj)

.debug_frame    0x00000000      0x2c4
 .debug_frame   0x00000000       0x28 c:/a/gcc_arm/6/bin/../lib/gcc/arm-none-eabi/6.3.1/../../../../arm-none-eabi/lib/thumb/v7e-m/fpv4-sp/hard\libc_nano.a(lib_a-exit.o)
 .debug_frame   0x00000028       0x2c c:/a/gcc_arm/6/bin/../lib/gcc/arm-none-eabi/6.3.1/../../../../arm-none-eabi/lib/thumb/v7e-m/fpv4-sp/hard\libc_nano.a(lib_a-init.o)
 .debug_frame   0x00000054       0x30 c:/a/gcc_arm/6/bin/../lib/gcc/arm-none-eabi/6.3.1/../../../../arm-none-eabi/lib/thumb/v7e-m/fpv4-sp/hard\libc_nano.a(lib_a-malloc.o)
 .debug_frame   0x00000084       0x28 c:/a/gcc_arm/6/bin/../lib/gcc/arm-none-eabi/6.3.1/../../../../arm-none-eabi/lib/thumb/v7e-m/fpv4-sp/hard\libc_nano.a(lib_a-memcmp.o)
 .debug_frame   0x000000ac       0x28 c:/a/gcc_arm/6/bin/../lib/gcc/arm-none-eabi/6.3.1/../../../../arm-none-eabi/lib/thumb/v7e-m/fpv4-sp/hard\libc_nano.a(lib_a-memcpy-stub.o)
 .debug_frame   0x000000d4       0x20 c:/a/gcc_arm/6/bin/../lib/gcc/arm-none-eabi/6.3.1/../../../../arm-none-eabi/lib/thumb/v7e-m/fpv4-sp/hard\libc_nano.a(lib_a-memset.o)
 .debug_frame   0x000000f4       0x38 c:/a/gcc_arm/6/bin/../lib/gcc/arm-none-eabi/6.3.1/../../../../arm-none-eabi/lib/thumb/v7e-m/fpv4-sp/hard\libc_nano.a(lib_a-nano-freer.o)
 .debug_frame   0x0000012c       0x2c c:/a/gcc_arm/6/bin/../lib/gcc/arm-none-eabi/6.3.1/../../../../arm-none-eabi/lib/thumb/v7e-m/fpv4-sp/hard\libc_nano.a(lib_a-nano-mallocr.o)
 .debug_frame   0x00000158       0x2c c:/a/gcc_arm/6/bin/../lib/gcc/arm-none-eabi/6.3.1/../../../../arm-none-eabi/lib/thumb/v7e-m/fpv4-sp/hard\libc_nano.a(lib_a-sbrkr.o)
 .debug_frame   0x00000184       0x20 c:/a/gcc_arm/6/bin/../lib/gcc/arm-none-eabi/6.3.1/../../../../arm-none-eabi/lib/thumb/v7e-m/fpv4-sp/hard\libc_nano.a(lib_a-strcpy.o)
 .debug_frame   0x000001a4       0x34 c:/a/gcc_arm/6/bin/../lib/gcc/arm-none-eabi/6.3.1/../../../../arm-none-eabi/lib/thumb/v7e-m/fpv4-sp/hard\libc_nano.a(lib_a-strrchr.o)
 .debug_frame   0x000001d8       0x30 c:/a/gcc_arm/6/bin/../lib/gcc/arm-none-eabi/6.3.1/../../../../arm-none-eabi/lib/thumb/v7e-m/fpv4-sp/hard\libc_nano.a(lib_a-mlock.o)
 .debug_frame   0x00000208       0x5c c:/a/gcc_arm/6/bin/../lib/gcc/arm-none-eabi/6.3.1/../../../../arm-none-eabi/lib/thumb/v7e-m/fpv4-sp/hard\libc_nano.a(lib_a-reent.o)
 .debug_frame   0x00000264       0x20 c:/a/gcc_arm/6/bin/../lib/gcc/arm-none-eabi/6.3.1/../../../../arm-none-eabi/lib/thumb/v7e-m/fpv4-sp/hard\libc_nano.a(lib_a-strchr.o)
 .debug_frame   0x00000284       0x20 c:/a/gcc_arm/6/bin/../lib/gcc/arm-none-eabi/6.3.1/../../../../arm-none-eabi/lib/thumb/v7e-m/fpv4-sp/hard\libnosys.a(sbrk.o)
 .debug_frame   0x000002a4       0x20 c:/a/gcc_arm/6/bin/../lib/gcc/arm-none-eabi/6.3.1/../../../../arm-none-eabi/lib/thumb/v7e-m/fpv4-sp/hard\libnosys.a(_exit.o)
