Archive member included to satisfy reference by file (symbol)

mesh/core/libmesh_core_nrf52832_xxAA.a(internal_event.c.obj)
                              examples/dfu/CMakeFiles/dfu_nrf52832_xxAA_s132_5.0.0.dir/__/__/mesh/serial/src/serial_handler_device.c.obj (internal_event_init)
mesh/core/libmesh_core_nrf52832_xxAA.a(nrf_mesh_configure.c.obj)
                              examples/dfu/CMakeFiles/dfu_nrf52832_xxAA_s132_5.0.0.dir/__/__/mesh/serial/src/serial_handler_config.c.obj (nrf_mesh_configure_device_uuid_set)
mesh/core/libmesh_core_nrf52832_xxAA.a(event.c.obj)
                              examples/dfu/CMakeFiles/dfu_nrf52832_xxAA_s132_5.0.0.dir/__/__/mesh/access/src/access.c.obj (event_handle)
mesh/core/libmesh_core_nrf52832_xxAA.a(packet_buffer.c.obj)
                              examples/dfu/CMakeFiles/dfu_nrf52832_xxAA_s132_5.0.0.dir/__/__/mesh/serial/src/serial_bearer.c.obj (packet_buffer_max_packet_len_get)
mesh/core/libmesh_core_nrf52832_xxAA.a(fifo.c.obj)
                              mesh/core/libmesh_core_nrf52832_xxAA.a(internal_event.c.obj) (fifo_init)
mesh/core/libmesh_core_nrf52832_xxAA.a(net_state.c.obj)
                              examples/dfu/CMakeFiles/dfu_nrf52832_xxAA_s132_5.0.0.dir/__/__/mesh/serial/src/serial_handler_mesh.c.obj (net_state_reset)
mesh/core/libmesh_core_nrf52832_xxAA.a(mesh_flash.c.obj)
                              examples/dfu/CMakeFiles/dfu_nrf52832_xxAA_s132_5.0.0.dir/__/__/mesh/dfu/src/nrf_mesh_dfu.c.obj (mesh_flash_user_callback_set)
mesh/core/libmesh_core_nrf52832_xxAA.a(nrf_mesh_utils.c.obj)
                              examples/dfu/CMakeFiles/dfu_nrf52832_xxAA_s132_5.0.0.dir/__/__/mesh/access/src/device_state_manager.c.obj (nrf_mesh_address_type_get)
mesh/core/libmesh_core_nrf52832_xxAA.a(nrf_mesh.c.obj)
                              examples/dfu/CMakeFiles/dfu_nrf52832_xxAA_s132_5.0.0.dir/__/nrf_mesh_sdk.c.obj (nrf_mesh_init)
mesh/core/libmesh_core_nrf52832_xxAA.a(hal.c.obj)
                              examples/dfu/CMakeFiles/dfu_nrf52832_xxAA_s132_5.0.0.dir/__/__/mesh/serial/src/serial_handler_device.c.obj (hal_device_reset)
mesh/core/libmesh_core_nrf52832_xxAA.a(timer_scheduler.c.obj)
                              mesh/core/libmesh_core_nrf52832_xxAA.a(nrf_mesh.c.obj) (timer_sch_init)
mesh/core/libmesh_core_nrf52832_xxAA.a(timer.c.obj)
                              mesh/core/libmesh_core_nrf52832_xxAA.a(timer_scheduler.c.obj) (timer_order_cb)
mesh/core/libmesh_core_nrf52832_xxAA.a(ticker.c.obj)
                              mesh/core/libmesh_core_nrf52832_xxAA.a(nrf_mesh.c.obj) (ticker_init)
mesh/core/libmesh_core_nrf52832_xxAA.a(rand.c.obj)
                              examples/dfu/CMakeFiles/dfu_nrf52832_xxAA_s132_5.0.0.dir/__/__/mesh/dfu/src/nrf_mesh_dfu.c.obj (rand_prng_seed)
mesh/core/libmesh_core_nrf52832_xxAA.a(timeslot.c.obj)
                              mesh/core/libmesh_core_nrf52832_xxAA.a(nrf_mesh.c.obj) (timeslot_sd_event_handler)
mesh/core/libmesh_core_nrf52832_xxAA.a(bearer_event.c.obj)
                              mesh/core/libmesh_core_nrf52832_xxAA.a(nrf_mesh.c.obj) (bearer_event_init)
mesh/core/libmesh_core_nrf52832_xxAA.a(enc.c.obj)
                              examples/dfu/CMakeFiles/dfu_nrf52832_xxAA_s132_5.0.0.dir/__/__/mesh/prov/src/prov_utils.c.obj (enc_aes_cmac)
mesh/core/libmesh_core_nrf52832_xxAA.a(network.c.obj)
                              mesh/core/libmesh_core_nrf52832_xxAA.a(nrf_mesh.c.obj) (network_init)
mesh/core/libmesh_core_nrf52832_xxAA.a(msqueue.c.obj)
                              mesh/core/libmesh_core_nrf52832_xxAA.a(mesh_flash.c.obj) (msq_init)
mesh/core/libmesh_core_nrf52832_xxAA.a(nrf_mesh_keygen.c.obj)
                              examples/dfu/CMakeFiles/dfu_nrf52832_xxAA_s132_5.0.0.dir/__/__/mesh/access/src/device_state_manager.c.obj (nrf_mesh_keygen_aid)
mesh/core/libmesh_core_nrf52832_xxAA.a(log.c.obj)
                              examples/dfu/CMakeFiles/dfu_nrf52832_xxAA_s132_5.0.0.dir/src/main.c.obj (log_callback_rtt)
mesh/core/libmesh_core_nrf52832_xxAA.a(flash_manager.c.obj)
                              mesh/core/libmesh_core_nrf52832_xxAA.a(nrf_mesh.c.obj) (flash_manager_init)
mesh/core/libmesh_core_nrf52832_xxAA.a(ccm_soft.c.obj)
                              mesh/core/libmesh_core_nrf52832_xxAA.a(enc.c.obj) (ccm_soft_encrypt)
mesh/core/libmesh_core_nrf52832_xxAA.a(beacon.c.obj)
                              mesh/core/libmesh_core_nrf52832_xxAA.a(nrf_mesh.c.obj) (beacon_init)
mesh/core/libmesh_core_nrf52832_xxAA.a(flash_manager_internal.c.obj)
                              mesh/core/libmesh_core_nrf52832_xxAA.a(flash_manager.c.obj) (entry_get)
mesh/core/libmesh_core_nrf52832_xxAA.a(core_tx.c.obj)
                              mesh/core/libmesh_core_nrf52832_xxAA.a(nrf_mesh.c.obj) (core_tx_init)
mesh/core/libmesh_core_nrf52832_xxAA.a(net_beacon.c.obj)
                              mesh/core/libmesh_core_nrf52832_xxAA.a(network.c.obj) (net_beacon_init)
mesh/core/libmesh_core_nrf52832_xxAA.a(advertiser.c.obj)
                              mesh/core/libmesh_core_nrf52832_xxAA.a(nrf_mesh.c.obj) (advertiser_init)
mesh/core/libmesh_core_nrf52832_xxAA.a(bearer_handler.c.obj)
                              mesh/core/libmesh_core_nrf52832_xxAA.a(nrf_mesh.c.obj) (bearer_handler_init)
mesh/core/libmesh_core_nrf52832_xxAA.a(broadcast.c.obj)
                              examples/dfu/CMakeFiles/dfu_nrf52832_xxAA_s132_5.0.0.dir/__/__/mesh/dfu/src/nrf_mesh_dfu.c.obj (broadcast_send)
mesh/core/libmesh_core_nrf52832_xxAA.a(radio_config.c.obj)
                              mesh/core/libmesh_core_nrf52832_xxAA.a(broadcast.c.obj) (radio_config_reset)
mesh/core/libmesh_core_nrf52832_xxAA.a(scanner.c.obj)
                              mesh/core/libmesh_core_nrf52832_xxAA.a(bearer_handler.c.obj) (scanner_radio_start)
mesh/core/libmesh_core_nrf52832_xxAA.a(aes.c.obj)
                              mesh/core/libmesh_core_nrf52832_xxAA.a(enc.c.obj) (aes_encrypt)
mesh/core/libmesh_core_nrf52832_xxAA.a(msg_cache.c.obj)
                              mesh/core/libmesh_core_nrf52832_xxAA.a(nrf_mesh.c.obj) (msg_cache_init)
mesh/core/libmesh_core_nrf52832_xxAA.a(transport.c.obj)
                              mesh/core/libmesh_core_nrf52832_xxAA.a(nrf_mesh.c.obj) (transport_init)
mesh/core/libmesh_core_nrf52832_xxAA.a(flash_manager_defrag.c.obj)
                              mesh/core/libmesh_core_nrf52832_xxAA.a(flash_manager.c.obj) (flash_manager_defrag_init)
mesh/core/libmesh_core_nrf52832_xxAA.a(nrf_flash.c.obj)
                              mesh/core/libmesh_core_nrf52832_xxAA.a(mesh_flash.c.obj) (nrf_flash_erase)
mesh/core/libmesh_core_nrf52832_xxAA.a(packet_mgr.c.obj)
                              mesh/core/libmesh_core_nrf52832_xxAA.a(nrf_mesh.c.obj) (packet_mgr_init)
mesh/core/libmesh_core_nrf52832_xxAA.a(queue.c.obj)
                              mesh/core/libmesh_core_nrf52832_xxAA.a(bearer_event.c.obj) (queue_init)
mesh/core/libmesh_core_nrf52832_xxAA.a(aes_cmac.c.obj)
                              mesh/core/libmesh_core_nrf52832_xxAA.a(enc.c.obj) (aes_cmac)
mesh/core/libmesh_core_nrf52832_xxAA.a(replay_cache.c.obj)
                              mesh/core/libmesh_core_nrf52832_xxAA.a(transport.c.obj) (replay_cache_init)
mesh/core/libmesh_core_nrf52832_xxAA.a(filter_engine.c.obj)
                              mesh/core/libmesh_core_nrf52832_xxAA.a(scanner.c.obj) (fen_filters_apply)
external/rtt/librtt_nrf52832_xxAA.a(SEGGER_RTT.c.obj)
                              mesh/core/libmesh_core_nrf52832_xxAA.a(log.c.obj) (SEGGER_RTT_Write)
external/rtt/librtt_nrf52832_xxAA.a(SEGGER_RTT_printf.c.obj)
                              mesh/core/libmesh_core_nrf52832_xxAA.a(log.c.obj) (SEGGER_RTT_vprintf)
external/micro-ecc/libuECC_nrf52832_xxAA.a(uECC.c.obj)
                              examples/dfu/CMakeFiles/dfu_nrf52832_xxAA_s132_5.0.0.dir/__/__/mesh/prov/src/prov_utils.c.obj (uECC_secp256r1)
c:/a/gcc_arm/6/bin/../lib/gcc/arm-none-eabi/6.3.1/../../../../arm-none-eabi/lib/thumb/v7e-m/fpv4-sp/hard\libc_nano.a(lib_a-exit.o)
                              c:/a/gcc_arm/6/bin/../lib/gcc/arm-none-eabi/6.3.1/../../../../arm-none-eabi/lib/thumb/v7e-m/fpv4-sp/hard/crt0.o (exit)
c:/a/gcc_arm/6/bin/../lib/gcc/arm-none-eabi/6.3.1/../../../../arm-none-eabi/lib/thumb/v7e-m/fpv4-sp/hard\libc_nano.a(lib_a-impure.o)
                              c:/a/gcc_arm/6/bin/../lib/gcc/arm-none-eabi/6.3.1/../../../../arm-none-eabi/lib/thumb/v7e-m/fpv4-sp/hard\libc_nano.a(lib_a-exit.o) (_global_impure_ptr)
c:/a/gcc_arm/6/bin/../lib/gcc/arm-none-eabi/6.3.1/../../../../arm-none-eabi/lib/thumb/v7e-m/fpv4-sp/hard\libc_nano.a(lib_a-init.o)
                              c:/a/gcc_arm/6/bin/../lib/gcc/arm-none-eabi/6.3.1/../../../../arm-none-eabi/lib/thumb/v7e-m/fpv4-sp/hard/crt0.o (__libc_init_array)
c:/a/gcc_arm/6/bin/../lib/gcc/arm-none-eabi/6.3.1/../../../../arm-none-eabi/lib/thumb/v7e-m/fpv4-sp/hard\libc_nano.a(lib_a-malloc.o)
                              mesh/core/libmesh_core_nrf52832_xxAA.a(transport.c.obj) (malloc)
c:/a/gcc_arm/6/bin/../lib/gcc/arm-none-eabi/6.3.1/../../../../arm-none-eabi/lib/thumb/v7e-m/fpv4-sp/hard\libc_nano.a(lib_a-memcmp.o)
                              examples/dfu/CMakeFiles/dfu_nrf52832_xxAA_s132_5.0.0.dir/__/__/mesh/access/src/device_state_manager.c.obj (memcmp)
c:/a/gcc_arm/6/bin/../lib/gcc/arm-none-eabi/6.3.1/../../../../arm-none-eabi/lib/thumb/v7e-m/fpv4-sp/hard\libc_nano.a(lib_a-memcpy-stub.o)
                              examples/dfu/CMakeFiles/dfu_nrf52832_xxAA_s132_5.0.0.dir/__/__/mesh/access/src/access.c.obj (memcpy)
c:/a/gcc_arm/6/bin/../lib/gcc/arm-none-eabi/6.3.1/../../../../arm-none-eabi/lib/thumb/v7e-m/fpv4-sp/hard\libc_nano.a(lib_a-memset.o)
                              c:/a/gcc_arm/6/bin/../lib/gcc/arm-none-eabi/6.3.1/../../../../arm-none-eabi/lib/thumb/v7e-m/fpv4-sp/hard/crt0.o (memset)
c:/a/gcc_arm/6/bin/../lib/gcc/arm-none-eabi/6.3.1/../../../../arm-none-eabi/lib/thumb/v7e-m/fpv4-sp/hard\libc_nano.a(lib_a-nano-freer.o)
                              c:/a/gcc_arm/6/bin/../lib/gcc/arm-none-eabi/6.3.1/../../../../arm-none-eabi/lib/thumb/v7e-m/fpv4-sp/hard\libc_nano.a(lib_a-malloc.o) (_free_r)
c:/a/gcc_arm/6/bin/../lib/gcc/arm-none-eabi/6.3.1/../../../../arm-none-eabi/lib/thumb/v7e-m/fpv4-sp/hard\libc_nano.a(lib_a-nano-mallocr.o)
                              c:/a/gcc_arm/6/bin/../lib/gcc/arm-none-eabi/6.3.1/../../../../arm-none-eabi/lib/thumb/v7e-m/fpv4-sp/hard\libc_nano.a(lib_a-malloc.o) (_malloc_r)
c:/a/gcc_arm/6/bin/../lib/gcc/arm-none-eabi/6.3.1/../../../../arm-none-eabi/lib/thumb/v7e-m/fpv4-sp/hard\libc_nano.a(lib_a-sbrkr.o)
                              c:/a/gcc_arm/6/bin/../lib/gcc/arm-none-eabi/6.3.1/../../../../arm-none-eabi/lib/thumb/v7e-m/fpv4-sp/hard\libc_nano.a(lib_a-nano-mallocr.o) (_sbrk_r)
c:/a/gcc_arm/6/bin/../lib/gcc/arm-none-eabi/6.3.1/../../../../arm-none-eabi/lib/thumb/v7e-m/fpv4-sp/hard\libc_nano.a(lib_a-strcpy.o)
                              external/rtt/librtt_nrf52832_xxAA.a(SEGGER_RTT.c.obj) (strcpy)
c:/a/gcc_arm/6/bin/../lib/gcc/arm-none-eabi/6.3.1/../../../../arm-none-eabi/lib/thumb/v7e-m/fpv4-sp/hard\libc_nano.a(lib_a-strlen.o)
                              examples/dfu/CMakeFiles/dfu_nrf52832_xxAA_s132_5.0.0.dir/__/__/mesh/prov/src/prov_beacon.c.obj (strlen)
c:/a/gcc_arm/6/bin/../lib/gcc/arm-none-eabi/6.3.1/../../../../arm-none-eabi/lib/thumb/v7e-m/fpv4-sp/hard\libc_nano.a(lib_a-strrchr.o)
                              examples/dfu/CMakeFiles/dfu_nrf52832_xxAA_s132_5.0.0.dir/src/main.c.obj (strrchr)
c:/a/gcc_arm/6/bin/../lib/gcc/arm-none-eabi/6.3.1/../../../../arm-none-eabi/lib/thumb/v7e-m/fpv4-sp/hard\libc_nano.a(lib_a-mlock.o)
                              c:/a/gcc_arm/6/bin/../lib/gcc/arm-none-eabi/6.3.1/../../../../arm-none-eabi/lib/thumb/v7e-m/fpv4-sp/hard\libc_nano.a(lib_a-nano-freer.o) (__malloc_lock)
c:/a/gcc_arm/6/bin/../lib/gcc/arm-none-eabi/6.3.1/../../../../arm-none-eabi/lib/thumb/v7e-m/fpv4-sp/hard\libc_nano.a(lib_a-reent.o)
                              c:/a/gcc_arm/6/bin/../lib/gcc/arm-none-eabi/6.3.1/../../../../arm-none-eabi/lib/thumb/v7e-m/fpv4-sp/hard\libc_nano.a(lib_a-sbrkr.o) (errno)
c:/a/gcc_arm/6/bin/../lib/gcc/arm-none-eabi/6.3.1/../../../../arm-none-eabi/lib/thumb/v7e-m/fpv4-sp/hard\libc_nano.a(lib_a-strchr.o)
                              c:/a/gcc_arm/6/bin/../lib/gcc/arm-none-eabi/6.3.1/../../../../arm-none-eabi/lib/thumb/v7e-m/fpv4-sp/hard\libc_nano.a(lib_a-strrchr.o) (strchr)
c:/a/gcc_arm/6/bin/../lib/gcc/arm-none-eabi/6.3.1/../../../../arm-none-eabi/lib/thumb/v7e-m/fpv4-sp/hard\libnosys.a(sbrk.o)
                              c:/a/gcc_arm/6/bin/../lib/gcc/arm-none-eabi/6.3.1/../../../../arm-none-eabi/lib/thumb/v7e-m/fpv4-sp/hard\libc_nano.a(lib_a-sbrkr.o) (_sbrk)
c:/a/gcc_arm/6/bin/../lib/gcc/arm-none-eabi/6.3.1/../../../../arm-none-eabi/lib/thumb/v7e-m/fpv4-sp/hard\libnosys.a(_exit.o)
                              c:/a/gcc_arm/6/bin/../lib/gcc/arm-none-eabi/6.3.1/../../../../arm-none-eabi/lib/thumb/v7e-m/fpv4-sp/hard\libc_nano.a(lib_a-exit.o) (_exit)

Allocating common symbols
Common symbol       size              file

nrf_nvic_state      0xc               examples/dfu/CMakeFiles/dfu_nrf52832_xxAA_s132_5.0.0.dir/__/nrf_mesh_sdk.c.obj
bank_addr           0x4               examples/dfu/CMakeFiles/dfu_nrf52832_xxAA_s132_5.0.0.dir/src/main.c.obj
rom_length          0x4               examples/dfu/CMakeFiles/dfu_nrf52832_xxAA_s132_5.0.0.dir/src/main.c.obj
m_cmd_handler       0x4               examples/dfu/CMakeFiles/dfu_nrf52832_xxAA_s132_5.0.0.dir/__/__/mesh/dfu/src/nrf_mesh_dfu.c.obj
errno               0x4               c:/a/gcc_arm/6/bin/../lib/gcc/arm-none-eabi/6.3.1/../../../../arm-none-eabi/lib/thumb/v7e-m/fpv4-sp/hard\libc_nano.a(lib_a-reent.o)
m_assertion_handler
                    0x4               mesh/core/libmesh_core_nrf52832_xxAA.a(nrf_mesh.c.obj)
_SEGGER_RTT         0x78              external/rtt/librtt_nrf52832_xxAA.a(SEGGER_RTT.c.obj)

Discarded input sections

 .text          0x00000000        0x0 c:/a/gcc_arm/6/bin/../lib/gcc/arm-none-eabi/6.3.1/thumb/v7e-m/fpv4-sp/hard/crti.o
 .data          0x00000000        0x0 c:/a/gcc_arm/6/bin/../lib/gcc/arm-none-eabi/6.3.1/thumb/v7e-m/fpv4-sp/hard/crti.o
 .bss           0x00000000        0x0 c:/a/gcc_arm/6/bin/../lib/gcc/arm-none-eabi/6.3.1/thumb/v7e-m/fpv4-sp/hard/crti.o
 .data          0x00000000        0x4 c:/a/gcc_arm/6/bin/../lib/gcc/arm-none-eabi/6.3.1/thumb/v7e-m/fpv4-sp/hard/crtbegin.o
 .data          0x00000000        0x0 c:/a/gcc_arm/6/bin/../lib/gcc/arm-none-eabi/6.3.1/../../../../arm-none-eabi/lib/thumb/v7e-m/fpv4-sp/hard/crt0.o
 .bss           0x00000000        0x0 c:/a/gcc_arm/6/bin/../lib/gcc/arm-none-eabi/6.3.1/../../../../arm-none-eabi/lib/thumb/v7e-m/fpv4-sp/hard/crt0.o
 .ARM.extab     0x00000000        0x0 c:/a/gcc_arm/6/bin/../lib/gcc/arm-none-eabi/6.3.1/../../../../arm-none-eabi/lib/thumb/v7e-m/fpv4-sp/hard/crt0.o
 .text          0x00000000        0x0 examples/dfu/CMakeFiles/dfu_nrf52832_xxAA_s132_5.0.0.dir/src/main.c.obj
 .data          0x00000000        0x0 examples/dfu/CMakeFiles/dfu_nrf52832_xxAA_s132_5.0.0.dir/src/main.c.obj
 .bss           0x00000000        0x0 examples/dfu/CMakeFiles/dfu_nrf52832_xxAA_s132_5.0.0.dir/src/main.c.obj
 .text          0x00000000        0x0 examples/dfu/CMakeFiles/dfu_nrf52832_xxAA_s132_5.0.0.dir/__/nrf_mesh_sdk.c.obj
 .data          0x00000000        0x0 examples/dfu/CMakeFiles/dfu_nrf52832_xxAA_s132_5.0.0.dir/__/nrf_mesh_sdk.c.obj
 .bss           0x00000000        0x0 examples/dfu/CMakeFiles/dfu_nrf52832_xxAA_s132_5.0.0.dir/__/nrf_mesh_sdk.c.obj
 .text.mesh_softdevice_setup
                0x00000000      0x1b8 examples/dfu/CMakeFiles/dfu_nrf52832_xxAA_s132_5.0.0.dir/__/nrf_mesh_sdk.c.obj
 .text          0x00000000        0x0 examples/dfu/CMakeFiles/dfu_nrf52832_xxAA_s132_5.0.0.dir/__/__/mesh/access/src/access_publish.c.obj
 .data          0x00000000        0x0 examples/dfu/CMakeFiles/dfu_nrf52832_xxAA_s132_5.0.0.dir/__/__/mesh/access/src/access_publish.c.obj
 .bss           0x00000000        0x0 examples/dfu/CMakeFiles/dfu_nrf52832_xxAA_s132_5.0.0.dir/__/__/mesh/access/src/access_publish.c.obj
 .text.publish_timer_tick
                0x00000000       0xd0 examples/dfu/CMakeFiles/dfu_nrf52832_xxAA_s132_5.0.0.dir/__/__/mesh/access/src/access_publish.c.obj
 .text.access_publish_init
                0x00000000       0x38 examples/dfu/CMakeFiles/dfu_nrf52832_xxAA_s132_5.0.0.dir/__/__/mesh/access/src/access_publish.c.obj
 .text          0x00000000        0x0 examples/dfu/CMakeFiles/dfu_nrf52832_xxAA_s132_5.0.0.dir/__/__/mesh/access/src/access.c.obj
 .data          0x00000000        0x0 examples/dfu/CMakeFiles/dfu_nrf52832_xxAA_s132_5.0.0.dir/__/__/mesh/access/src/access.c.obj
 .bss           0x00000000        0x0 examples/dfu/CMakeFiles/dfu_nrf52832_xxAA_s132_5.0.0.dir/__/__/mesh/access/src/access.c.obj
 .text.flash_invalidate_complete
                0x00000000       0x14 examples/dfu/CMakeFiles/dfu_nrf52832_xxAA_s132_5.0.0.dir/__/__/mesh/access/src/access.c.obj
 .text.handle_incoming
                0x00000000      0x1b8 examples/dfu/CMakeFiles/dfu_nrf52832_xxAA_s132_5.0.0.dir/__/__/mesh/access/src/access.c.obj
 .text.mesh_evt_cb
                0x00000000      0x15c examples/dfu/CMakeFiles/dfu_nrf52832_xxAA_s132_5.0.0.dir/__/__/mesh/access/src/access.c.obj
 .text.add_flash_manager
                0x00000000       0x58 examples/dfu/CMakeFiles/dfu_nrf52832_xxAA_s132_5.0.0.dir/__/__/mesh/access/src/access.c.obj
 .text.flash_write_complete
                0x00000000       0x58 examples/dfu/CMakeFiles/dfu_nrf52832_xxAA_s132_5.0.0.dir/__/__/mesh/access/src/access.c.obj
 .text.flash_remove_complete
                0x00000000       0xb0 examples/dfu/CMakeFiles/dfu_nrf52832_xxAA_s132_5.0.0.dir/__/__/mesh/access/src/access.c.obj
 .text.access_flash_config_load
                0x00000000      0x2d8 examples/dfu/CMakeFiles/dfu_nrf52832_xxAA_s132_5.0.0.dir/__/__/mesh/access/src/access.c.obj
 .text.access_init
                0x00000000       0xb4 examples/dfu/CMakeFiles/dfu_nrf52832_xxAA_s132_5.0.0.dir/__/__/mesh/access/src/access.c.obj
 .text.access_model_add
                0x00000000      0x1f4 examples/dfu/CMakeFiles/dfu_nrf52832_xxAA_s132_5.0.0.dir/__/__/mesh/access/src/access.c.obj
 .text.access_model_publish
                0x00000000      0x2d4 examples/dfu/CMakeFiles/dfu_nrf52832_xxAA_s132_5.0.0.dir/__/__/mesh/access/src/access.c.obj
 .text.access_model_reply
                0x00000000      0x2d0 examples/dfu/CMakeFiles/dfu_nrf52832_xxAA_s132_5.0.0.dir/__/__/mesh/access/src/access.c.obj
 .text.access_model_subscription_list_alloc
                0x00000000       0x60 examples/dfu/CMakeFiles/dfu_nrf52832_xxAA_s132_5.0.0.dir/__/__/mesh/access/src/access.c.obj
 .text.access_model_subscription_lists_share
                0x00000000       0x60 examples/dfu/CMakeFiles/dfu_nrf52832_xxAA_s132_5.0.0.dir/__/__/mesh/access/src/access.c.obj
 .text.access_default_ttl_set
                0x00000000       0x10 examples/dfu/CMakeFiles/dfu_nrf52832_xxAA_s132_5.0.0.dir/__/__/mesh/access/src/access.c.obj
 .text.access_default_ttl_get
                0x00000000        0xc examples/dfu/CMakeFiles/dfu_nrf52832_xxAA_s132_5.0.0.dir/__/__/mesh/access/src/access.c.obj
 .text.access_model_p_args_get
                0x00000000       0x2c examples/dfu/CMakeFiles/dfu_nrf52832_xxAA_s132_5.0.0.dir/__/__/mesh/access/src/access.c.obj
 .bss.m_evt_handler
                0x00000000        0x8 examples/dfu/CMakeFiles/dfu_nrf52832_xxAA_s132_5.0.0.dir/__/__/mesh/access/src/access.c.obj
 .data.flash_add_mem_available_struct.10375
                0x00000000       0x10 examples/dfu/CMakeFiles/dfu_nrf52832_xxAA_s132_5.0.0.dir/__/__/mesh/access/src/access.c.obj
 .data.m_default_ttl
                0x00000000        0x1 examples/dfu/CMakeFiles/dfu_nrf52832_xxAA_s132_5.0.0.dir/__/__/mesh/access/src/access.c.obj
 .rodata.access_model_publish.str1.4
                0x00000000       0x13 examples/dfu/CMakeFiles/dfu_nrf52832_xxAA_s132_5.0.0.dir/__/__/mesh/access/src/access.c.obj
 .rodata.mesh_evt_cb.str1.4
                0x00000000       0x2f examples/dfu/CMakeFiles/dfu_nrf52832_xxAA_s132_5.0.0.dir/__/__/mesh/access/src/access.c.obj
 .rodata.multiply_de_bruijn_bit_position.9124
                0x00000000       0x20 examples/dfu/CMakeFiles/dfu_nrf52832_xxAA_s132_5.0.0.dir/__/__/mesh/access/src/access.c.obj
 .text          0x00000000        0x0 examples/dfu/CMakeFiles/dfu_nrf52832_xxAA_s132_5.0.0.dir/__/__/mesh/access/src/access_reliable.c.obj
 .data          0x00000000        0x0 examples/dfu/CMakeFiles/dfu_nrf52832_xxAA_s132_5.0.0.dir/__/__/mesh/access/src/access_reliable.c.obj
 .bss           0x00000000        0x0 examples/dfu/CMakeFiles/dfu_nrf52832_xxAA_s132_5.0.0.dir/__/__/mesh/access/src/access_reliable.c.obj
 .text.remove_and_reschedule
                0x00000000      0x108 examples/dfu/CMakeFiles/dfu_nrf52832_xxAA_s132_5.0.0.dir/__/__/mesh/access/src/access_reliable.c.obj
 .text.reliable_timer_cb
                0x00000000      0x1dc examples/dfu/CMakeFiles/dfu_nrf52832_xxAA_s132_5.0.0.dir/__/__/mesh/access/src/access_reliable.c.obj
 .text.access_reliable_message_rx_cb
                0x00000000       0x8c examples/dfu/CMakeFiles/dfu_nrf52832_xxAA_s132_5.0.0.dir/__/__/mesh/access/src/access_reliable.c.obj
 .text.access_reliable_init
                0x00000000       0x1c examples/dfu/CMakeFiles/dfu_nrf52832_xxAA_s132_5.0.0.dir/__/__/mesh/access/src/access_reliable.c.obj
 .text.access_model_reliable_cancel
                0x00000000       0x50 examples/dfu/CMakeFiles/dfu_nrf52832_xxAA_s132_5.0.0.dir/__/__/mesh/access/src/access_reliable.c.obj
 .text.access_model_reliable_publish
                0x00000000      0x1d0 examples/dfu/CMakeFiles/dfu_nrf52832_xxAA_s132_5.0.0.dir/__/__/mesh/access/src/access_reliable.c.obj
 .text          0x00000000        0x0 examples/dfu/CMakeFiles/dfu_nrf52832_xxAA_s132_5.0.0.dir/__/__/mesh/access/src/device_state_manager.c.obj
 .data          0x00000000        0x0 examples/dfu/CMakeFiles/dfu_nrf52832_xxAA_s132_5.0.0.dir/__/__/mesh/access/src/device_state_manager.c.obj
 .bss           0x00000000        0x0 examples/dfu/CMakeFiles/dfu_nrf52832_xxAA_s132_5.0.0.dir/__/__/mesh/access/src/device_state_manager.c.obj
 .text.build_flash_area
                0x00000000       0x90 examples/dfu/CMakeFiles/dfu_nrf52832_xxAA_s132_5.0.0.dir/__/__/mesh/access/src/device_state_manager.c.obj
 .text.flash_invalidate_complete
                0x00000000       0x5c examples/dfu/CMakeFiles/dfu_nrf52832_xxAA_s132_5.0.0.dir/__/__/mesh/access/src/device_state_manager.c.obj
 .text.flash_write_complete
                0x00000000       0x5c examples/dfu/CMakeFiles/dfu_nrf52832_xxAA_s132_5.0.0.dir/__/__/mesh/access/src/device_state_manager.c.obj
 .text.flash_update_all
                0x00000000      0x144 examples/dfu/CMakeFiles/dfu_nrf52832_xxAA_s132_5.0.0.dir/__/__/mesh/access/src/device_state_manager.c.obj
 .text.flash_remove_complete
                0x00000000       0x90 examples/dfu/CMakeFiles/dfu_nrf52832_xxAA_s132_5.0.0.dir/__/__/mesh/access/src/device_state_manager.c.obj
 .text.dsm_init
                0x00000000       0xa8 examples/dfu/CMakeFiles/dfu_nrf52832_xxAA_s132_5.0.0.dir/__/__/mesh/access/src/device_state_manager.c.obj
 .text.dsm_flash_config_load
                0x00000000      0x190 examples/dfu/CMakeFiles/dfu_nrf52832_xxAA_s132_5.0.0.dir/__/__/mesh/access/src/device_state_manager.c.obj
 .text.dsm_has_unflashed_data
                0x00000000       0x58 examples/dfu/CMakeFiles/dfu_nrf52832_xxAA_s132_5.0.0.dir/__/__/mesh/access/src/device_state_manager.c.obj
 .text.dsm_flash_area_get
                0x00000000        0xc examples/dfu/CMakeFiles/dfu_nrf52832_xxAA_s132_5.0.0.dir/__/__/mesh/access/src/device_state_manager.c.obj
 .text.dsm_address_publish_add_handle
                0x00000000       0x54 examples/dfu/CMakeFiles/dfu_nrf52832_xxAA_s132_5.0.0.dir/__/__/mesh/access/src/device_state_manager.c.obj
 .text.dsm_address_subscription_add_handle
                0x00000000       0x54 examples/dfu/CMakeFiles/dfu_nrf52832_xxAA_s132_5.0.0.dir/__/__/mesh/access/src/device_state_manager.c.obj
 .text.dsm_address_subscription_count_get
                0x00000000       0x80 examples/dfu/CMakeFiles/dfu_nrf52832_xxAA_s132_5.0.0.dir/__/__/mesh/access/src/device_state_manager.c.obj
 .text.dsm_net_key_index_to_subnet_handle
                0x00000000       0x6c examples/dfu/CMakeFiles/dfu_nrf52832_xxAA_s132_5.0.0.dir/__/__/mesh/access/src/device_state_manager.c.obj
 .text.dsm_subnet_handle_to_netkey_index
                0x00000000       0x34 examples/dfu/CMakeFiles/dfu_nrf52832_xxAA_s132_5.0.0.dir/__/__/mesh/access/src/device_state_manager.c.obj
 .text.dsm_app_key_index_to_appkey_handle
                0x00000000       0xc8 examples/dfu/CMakeFiles/dfu_nrf52832_xxAA_s132_5.0.0.dir/__/__/mesh/access/src/device_state_manager.c.obj
 .text.dsm_appkey_handle_to_appkey_index
                0x00000000       0x34 examples/dfu/CMakeFiles/dfu_nrf52832_xxAA_s132_5.0.0.dir/__/__/mesh/access/src/device_state_manager.c.obj
 .text.dsm_devkey_handle_get
                0x00000000       0x3c examples/dfu/CMakeFiles/dfu_nrf52832_xxAA_s132_5.0.0.dir/__/__/mesh/access/src/device_state_manager.c.obj
 .text.dsm_beacon_secmat_get
                0x00000000       0x34 examples/dfu/CMakeFiles/dfu_nrf52832_xxAA_s132_5.0.0.dir/__/__/mesh/access/src/device_state_manager.c.obj
 .text.dsm_proxy_identity_get
                0x00000000        0x4 examples/dfu/CMakeFiles/dfu_nrf52832_xxAA_s132_5.0.0.dir/__/__/mesh/access/src/device_state_manager.c.obj
 .data.mem_listener.10653
                0x00000000       0x10 examples/dfu/CMakeFiles/dfu_nrf52832_xxAA_s132_5.0.0.dir/__/__/mesh/access/src/device_state_manager.c.obj
 .text          0x00000000        0x0 examples/dfu/CMakeFiles/dfu_nrf52832_xxAA_s132_5.0.0.dir/__/__/mesh/serial/src/serial_uart.c.obj
 .data          0x00000000        0x0 examples/dfu/CMakeFiles/dfu_nrf52832_xxAA_s132_5.0.0.dir/__/__/mesh/serial/src/serial_uart.c.obj
 .bss           0x00000000        0x0 examples/dfu/CMakeFiles/dfu_nrf52832_xxAA_s132_5.0.0.dir/__/__/mesh/serial/src/serial_uart.c.obj
 .text          0x00000000        0x0 examples/dfu/CMakeFiles/dfu_nrf52832_xxAA_s132_5.0.0.dir/__/__/mesh/serial/src/serial_bearer.c.obj
 .data          0x00000000        0x0 examples/dfu/CMakeFiles/dfu_nrf52832_xxAA_s132_5.0.0.dir/__/__/mesh/serial/src/serial_bearer.c.obj
 .bss           0x00000000        0x0 examples/dfu/CMakeFiles/dfu_nrf52832_xxAA_s132_5.0.0.dir/__/__/mesh/serial/src/serial_bearer.c.obj
 .text.serial_bearer_packet_buffer_get
                0x00000000       0x28 examples/dfu/CMakeFiles/dfu_nrf52832_xxAA_s132_5.0.0.dir/__/__/mesh/serial/src/serial_bearer.c.obj
 .text.serial_bearer_rx_pending
                0x00000000        0xc examples/dfu/CMakeFiles/dfu_nrf52832_xxAA_s132_5.0.0.dir/__/__/mesh/serial/src/serial_bearer.c.obj
 .text          0x00000000        0x0 examples/dfu/CMakeFiles/dfu_nrf52832_xxAA_s132_5.0.0.dir/__/__/mesh/serial/src/serial_handler_common.c.obj
 .data          0x00000000        0x0 examples/dfu/CMakeFiles/dfu_nrf52832_xxAA_s132_5.0.0.dir/__/__/mesh/serial/src/serial_handler_common.c.obj
 .bss           0x00000000        0x0 examples/dfu/CMakeFiles/dfu_nrf52832_xxAA_s132_5.0.0.dir/__/__/mesh/serial/src/serial_handler_common.c.obj
 .text          0x00000000        0x0 examples/dfu/CMakeFiles/dfu_nrf52832_xxAA_s132_5.0.0.dir/__/__/mesh/serial/src/serial_handler_access.c.obj
 .data          0x00000000        0x0 examples/dfu/CMakeFiles/dfu_nrf52832_xxAA_s132_5.0.0.dir/__/__/mesh/serial/src/serial_handler_access.c.obj
 .bss           0x00000000        0x0 examples/dfu/CMakeFiles/dfu_nrf52832_xxAA_s132_5.0.0.dir/__/__/mesh/serial/src/serial_handler_access.c.obj
 .text          0x00000000        0x0 examples/dfu/CMakeFiles/dfu_nrf52832_xxAA_s132_5.0.0.dir/__/__/mesh/serial/src/serial_handler_config.c.obj
 .data          0x00000000        0x0 examples/dfu/CMakeFiles/dfu_nrf52832_xxAA_s132_5.0.0.dir/__/__/mesh/serial/src/serial_handler_config.c.obj
 .bss           0x00000000        0x0 examples/dfu/CMakeFiles/dfu_nrf52832_xxAA_s132_5.0.0.dir/__/__/mesh/serial/src/serial_handler_config.c.obj
 .text          0x00000000        0x0 examples/dfu/CMakeFiles/dfu_nrf52832_xxAA_s132_5.0.0.dir/__/__/mesh/serial/src/serial_handler_openmesh.c.obj
 .data          0x00000000        0x0 examples/dfu/CMakeFiles/dfu_nrf52832_xxAA_s132_5.0.0.dir/__/__/mesh/serial/src/serial_handler_openmesh.c.obj
 .bss           0x00000000        0x0 examples/dfu/CMakeFiles/dfu_nrf52832_xxAA_s132_5.0.0.dir/__/__/mesh/serial/src/serial_handler_openmesh.c.obj
 .text          0x00000000        0x0 examples/dfu/CMakeFiles/dfu_nrf52832_xxAA_s132_5.0.0.dir/__/__/mesh/serial/src/serial.c.obj
 .data          0x00000000        0x0 examples/dfu/CMakeFiles/dfu_nrf52832_xxAA_s132_5.0.0.dir/__/__/mesh/serial/src/serial.c.obj
 .bss           0x00000000        0x0 examples/dfu/CMakeFiles/dfu_nrf52832_xxAA_s132_5.0.0.dir/__/__/mesh/serial/src/serial.c.obj
 .text          0x00000000        0x0 examples/dfu/CMakeFiles/dfu_nrf52832_xxAA_s132_5.0.0.dir/__/__/mesh/serial/src/serial_handler_prov.c.obj
 .data          0x00000000        0x0 examples/dfu/CMakeFiles/dfu_nrf52832_xxAA_s132_5.0.0.dir/__/__/mesh/serial/src/serial_handler_prov.c.obj
 .bss           0x00000000        0x0 examples/dfu/CMakeFiles/dfu_nrf52832_xxAA_s132_5.0.0.dir/__/__/mesh/serial/src/serial_handler_prov.c.obj
 .text.serial_handler_prov_context_get
                0x00000000       0x1c examples/dfu/CMakeFiles/dfu_nrf52832_xxAA_s132_5.0.0.dir/__/__/mesh/serial/src/serial_handler_prov.c.obj
 .text.serial_handler_prov_keys_get
                0x00000000       0x14 examples/dfu/CMakeFiles/dfu_nrf52832_xxAA_s132_5.0.0.dir/__/__/mesh/serial/src/serial_handler_prov.c.obj
 .text.serial_handler_prov_oob_caps_get
                0x00000000        0xc examples/dfu/CMakeFiles/dfu_nrf52832_xxAA_s132_5.0.0.dir/__/__/mesh/serial/src/serial_handler_prov.c.obj
 .text          0x00000000        0x0 examples/dfu/CMakeFiles/dfu_nrf52832_xxAA_s132_5.0.0.dir/__/__/mesh/serial/src/serial_handler_dfu.c.obj
 .data          0x00000000        0x0 examples/dfu/CMakeFiles/dfu_nrf52832_xxAA_s132_5.0.0.dir/__/__/mesh/serial/src/serial_handler_dfu.c.obj
 .bss           0x00000000        0x0 examples/dfu/CMakeFiles/dfu_nrf52832_xxAA_s132_5.0.0.dir/__/__/mesh/serial/src/serial_handler_dfu.c.obj
 .text          0x00000000        0x0 examples/dfu/CMakeFiles/dfu_nrf52832_xxAA_s132_5.0.0.dir/__/__/mesh/serial/src/serial_handler_mesh.c.obj
 .data          0x00000000        0x0 examples/dfu/CMakeFiles/dfu_nrf52832_xxAA_s132_5.0.0.dir/__/__/mesh/serial/src/serial_handler_mesh.c.obj
 .bss           0x00000000        0x0 examples/dfu/CMakeFiles/dfu_nrf52832_xxAA_s132_5.0.0.dir/__/__/mesh/serial/src/serial_handler_mesh.c.obj
 .text          0x00000000        0x0 examples/dfu/CMakeFiles/dfu_nrf52832_xxAA_s132_5.0.0.dir/__/__/mesh/serial/src/serial_handler_models.c.obj
 .data          0x00000000        0x0 examples/dfu/CMakeFiles/dfu_nrf52832_xxAA_s132_5.0.0.dir/__/__/mesh/serial/src/serial_handler_models.c.obj
 .bss           0x00000000        0x0 examples/dfu/CMakeFiles/dfu_nrf52832_xxAA_s132_5.0.0.dir/__/__/mesh/serial/src/serial_handler_models.c.obj
 .text.serial_handler_models_register
                0x00000000       0x38 examples/dfu/CMakeFiles/dfu_nrf52832_xxAA_s132_5.0.0.dir/__/__/mesh/serial/src/serial_handler_models.c.obj
 .text          0x00000000        0x0 examples/dfu/CMakeFiles/dfu_nrf52832_xxAA_s132_5.0.0.dir/__/__/mesh/serial/src/serial_handler_device.c.obj
 .data          0x00000000        0x0 examples/dfu/CMakeFiles/dfu_nrf52832_xxAA_s132_5.0.0.dir/__/__/mesh/serial/src/serial_handler_device.c.obj
 .bss           0x00000000        0x0 examples/dfu/CMakeFiles/dfu_nrf52832_xxAA_s132_5.0.0.dir/__/__/mesh/serial/src/serial_handler_device.c.obj
 .text          0x00000000        0x0 examples/dfu/CMakeFiles/dfu_nrf52832_xxAA_s132_5.0.0.dir/__/__/mesh/serial/src/nrf_mesh_serial.c.obj
 .data          0x00000000        0x0 examples/dfu/CMakeFiles/dfu_nrf52832_xxAA_s132_5.0.0.dir/__/__/mesh/serial/src/nrf_mesh_serial.c.obj
 .bss           0x00000000        0x0 examples/dfu/CMakeFiles/dfu_nrf52832_xxAA_s132_5.0.0.dir/__/__/mesh/serial/src/nrf_mesh_serial.c.obj
 .text.nrf_mesh_serial_state_get
                0x00000000        0x4 examples/dfu/CMakeFiles/dfu_nrf52832_xxAA_s132_5.0.0.dir/__/__/mesh/serial/src/nrf_mesh_serial.c.obj
 .text.nrf_mesh_serial_tx
                0x00000000       0x60 examples/dfu/CMakeFiles/dfu_nrf52832_xxAA_s132_5.0.0.dir/__/__/mesh/serial/src/nrf_mesh_serial.c.obj
 .text          0x00000000        0x0 examples/dfu/CMakeFiles/dfu_nrf52832_xxAA_s132_5.0.0.dir/__/__/mesh/serial/src/serial_handler_app.c.obj
 .data          0x00000000        0x0 examples/dfu/CMakeFiles/dfu_nrf52832_xxAA_s132_5.0.0.dir/__/__/mesh/serial/src/serial_handler_app.c.obj
 .bss           0x00000000        0x0 examples/dfu/CMakeFiles/dfu_nrf52832_xxAA_s132_5.0.0.dir/__/__/mesh/serial/src/serial_handler_app.c.obj
 .text          0x00000000        0x0 examples/dfu/CMakeFiles/dfu_nrf52832_xxAA_s132_5.0.0.dir/__/__/mesh/prov/src/prov_provisioner.c.obj
 .data          0x00000000        0x0 examples/dfu/CMakeFiles/dfu_nrf52832_xxAA_s132_5.0.0.dir/__/__/mesh/prov/src/prov_provisioner.c.obj
 .bss           0x00000000        0x0 examples/dfu/CMakeFiles/dfu_nrf52832_xxAA_s132_5.0.0.dir/__/__/mesh/prov/src/prov_provisioner.c.obj
 .text.prov_provisioner_oob_pubkey
                0x00000000       0x38 examples/dfu/CMakeFiles/dfu_nrf52832_xxAA_s132_5.0.0.dir/__/__/mesh/prov/src/prov_provisioner.c.obj
 .text          0x00000000        0x0 examples/dfu/CMakeFiles/dfu_nrf52832_xxAA_s132_5.0.0.dir/__/__/mesh/prov/src/prov_provisionee.c.obj
 .data          0x00000000        0x0 examples/dfu/CMakeFiles/dfu_nrf52832_xxAA_s132_5.0.0.dir/__/__/mesh/prov/src/prov_provisionee.c.obj
 .bss           0x00000000        0x0 examples/dfu/CMakeFiles/dfu_nrf52832_xxAA_s132_5.0.0.dir/__/__/mesh/prov/src/prov_provisionee.c.obj
 .text          0x00000000        0x0 examples/dfu/CMakeFiles/dfu_nrf52832_xxAA_s132_5.0.0.dir/__/__/mesh/prov/src/nrf_mesh_prov.c.obj
 .data          0x00000000        0x0 examples/dfu/CMakeFiles/dfu_nrf52832_xxAA_s132_5.0.0.dir/__/__/mesh/prov/src/nrf_mesh_prov.c.obj
 .bss           0x00000000        0x0 examples/dfu/CMakeFiles/dfu_nrf52832_xxAA_s132_5.0.0.dir/__/__/mesh/prov/src/nrf_mesh_prov.c.obj
 .text.nrf_mesh_prov_pubkey_provide
                0x00000000       0x10 examples/dfu/CMakeFiles/dfu_nrf52832_xxAA_s132_5.0.0.dir/__/__/mesh/prov/src/nrf_mesh_prov.c.obj
 .text          0x00000000        0x0 examples/dfu/CMakeFiles/dfu_nrf52832_xxAA_s132_5.0.0.dir/__/__/mesh/prov/src/provisioning.c.obj
 .data          0x00000000        0x0 examples/dfu/CMakeFiles/dfu_nrf52832_xxAA_s132_5.0.0.dir/__/__/mesh/prov/src/provisioning.c.obj
 .bss           0x00000000        0x0 examples/dfu/CMakeFiles/dfu_nrf52832_xxAA_s132_5.0.0.dir/__/__/mesh/prov/src/provisioning.c.obj
 .text.prov_listen_stop
                0x00000000        0x8 examples/dfu/CMakeFiles/dfu_nrf52832_xxAA_s132_5.0.0.dir/__/__/mesh/prov/src/provisioning.c.obj
 .text.prov_tx  0x00000000       0x50 examples/dfu/CMakeFiles/dfu_nrf52832_xxAA_s132_5.0.0.dir/__/__/mesh/prov/src/provisioning.c.obj
 .text          0x00000000        0x0 examples/dfu/CMakeFiles/dfu_nrf52832_xxAA_s132_5.0.0.dir/__/__/mesh/prov/src/prov_beacon.c.obj
 .data          0x00000000        0x0 examples/dfu/CMakeFiles/dfu_nrf52832_xxAA_s132_5.0.0.dir/__/__/mesh/prov/src/prov_beacon.c.obj
 .bss           0x00000000        0x0 examples/dfu/CMakeFiles/dfu_nrf52832_xxAA_s132_5.0.0.dir/__/__/mesh/prov/src/prov_beacon.c.obj
 .text.prov_beacon_unprov_report
                0x00000000        0xc examples/dfu/CMakeFiles/dfu_nrf52832_xxAA_s132_5.0.0.dir/__/__/mesh/prov/src/prov_beacon.c.obj
 .text          0x00000000        0x0 examples/dfu/CMakeFiles/dfu_nrf52832_xxAA_s132_5.0.0.dir/__/__/mesh/prov/src/prov_utils.c.obj
 .data          0x00000000        0x0 examples/dfu/CMakeFiles/dfu_nrf52832_xxAA_s132_5.0.0.dir/__/__/mesh/prov/src/prov_utils.c.obj
 .bss           0x00000000        0x0 examples/dfu/CMakeFiles/dfu_nrf52832_xxAA_s132_5.0.0.dir/__/__/mesh/prov/src/prov_utils.c.obj
 .text.prov_utils_opt_set
                0x00000000       0x24 examples/dfu/CMakeFiles/dfu_nrf52832_xxAA_s132_5.0.0.dir/__/__/mesh/prov/src/prov_utils.c.obj
 .text.prov_utils_opt_get
                0x00000000       0x1c examples/dfu/CMakeFiles/dfu_nrf52832_xxAA_s132_5.0.0.dir/__/__/mesh/prov/src/prov_utils.c.obj
 .text          0x00000000        0x0 examples/dfu/CMakeFiles/dfu_nrf52832_xxAA_s132_5.0.0.dir/__/__/mesh/prov/src/prov_bearer_adv.c.obj
 .data          0x00000000        0x0 examples/dfu/CMakeFiles/dfu_nrf52832_xxAA_s132_5.0.0.dir/__/__/mesh/prov/src/prov_bearer_adv.c.obj
 .bss           0x00000000        0x0 examples/dfu/CMakeFiles/dfu_nrf52832_xxAA_s132_5.0.0.dir/__/__/mesh/prov/src/prov_bearer_adv.c.obj
 .text.calculate_3GPP_CRC
                0x00000000       0x28 examples/dfu/CMakeFiles/dfu_nrf52832_xxAA_s132_5.0.0.dir/__/__/mesh/prov/src/prov_bearer_adv.c.obj
 .text          0x00000000        0x0 examples/dfu/CMakeFiles/dfu_nrf52832_xxAA_s132_5.0.0.dir/__/__/mesh/dfu/src/nrf_mesh_dfu.c.obj
 .data          0x00000000        0x0 examples/dfu/CMakeFiles/dfu_nrf52832_xxAA_s132_5.0.0.dir/__/__/mesh/dfu/src/nrf_mesh_dfu.c.obj
 .bss           0x00000000        0x0 examples/dfu/CMakeFiles/dfu_nrf52832_xxAA_s132_5.0.0.dir/__/__/mesh/dfu/src/nrf_mesh_dfu.c.obj
 .text          0x00000000        0x0 examples/dfu/CMakeFiles/dfu_nrf52832_xxAA_s132_5.0.0.dir/__/nrf_mesh_weak.c.obj
 .data          0x00000000        0x0 examples/dfu/CMakeFiles/dfu_nrf52832_xxAA_s132_5.0.0.dir/__/nrf_mesh_weak.c.obj
 .bss           0x00000000        0x0 examples/dfu/CMakeFiles/dfu_nrf52832_xxAA_s132_5.0.0.dir/__/nrf_mesh_weak.c.obj
 .text._weak_handler
                0x00000000        0x4 examples/dfu/CMakeFiles/dfu_nrf52832_xxAA_s132_5.0.0.dir/__/nrf_mesh_weak.c.obj
 .text._weak_handler_ptr
                0x00000000        0x4 examples/dfu/CMakeFiles/dfu_nrf52832_xxAA_s132_5.0.0.dir/__/nrf_mesh_weak.c.obj
 .comment       0x00000000       0x80 examples/dfu/CMakeFiles/dfu_nrf52832_xxAA_s132_5.0.0.dir/__/nrf_mesh_weak.c.obj
 .ARM.attributes
                0x00000000       0x39 examples/dfu/CMakeFiles/dfu_nrf52832_xxAA_s132_5.0.0.dir/__/nrf_mesh_weak.c.obj
 .text          0x00000000        0x0 examples/dfu/CMakeFiles/dfu_nrf52832_xxAA_s132_5.0.0.dir/__/__/external/nRF5_SDK_14.0.0_3bcc1f7/components/toolchain/system_nrf52.c.obj
 .data          0x00000000        0x0 examples/dfu/CMakeFiles/dfu_nrf52832_xxAA_s132_5.0.0.dir/__/__/external/nRF5_SDK_14.0.0_3bcc1f7/components/toolchain/system_nrf52.c.obj
 .bss           0x00000000        0x0 examples/dfu/CMakeFiles/dfu_nrf52832_xxAA_s132_5.0.0.dir/__/__/external/nRF5_SDK_14.0.0_3bcc1f7/components/toolchain/system_nrf52.c.obj
 .text.SystemCoreClockUpdate
                0x00000000       0x10 examples/dfu/CMakeFiles/dfu_nrf52832_xxAA_s132_5.0.0.dir/__/__/external/nRF5_SDK_14.0.0_3bcc1f7/components/toolchain/system_nrf52.c.obj
 .data          0x00000000        0x0 examples/dfu/CMakeFiles/dfu_nrf52832_xxAA_s132_5.0.0.dir/__/__/external/nRF5_SDK_14.0.0_3bcc1f7/components/toolchain/gcc/gcc_startup_nrf52.S.obj
 .bss           0x00000000        0x0 examples/dfu/CMakeFiles/dfu_nrf52832_xxAA_s132_5.0.0.dir/__/__/external/nRF5_SDK_14.0.0_3bcc1f7/components/toolchain/gcc/gcc_startup_nrf52.S.obj
 .text          0x00000000        0x0 mesh/core/libmesh_core_nrf52832_xxAA.a(internal_event.c.obj)
 .data          0x00000000        0x0 mesh/core/libmesh_core_nrf52832_xxAA.a(internal_event.c.obj)
 .bss           0x00000000        0x0 mesh/core/libmesh_core_nrf52832_xxAA.a(internal_event.c.obj)
 .text.internal_event_pop
                0x00000000       0x1c mesh/core/libmesh_core_nrf52832_xxAA.a(internal_event.c.obj)
 .text          0x00000000        0x0 mesh/core/libmesh_core_nrf52832_xxAA.a(nrf_mesh_configure.c.obj)
 .data          0x00000000        0x0 mesh/core/libmesh_core_nrf52832_xxAA.a(nrf_mesh_configure.c.obj)
 .bss           0x00000000        0x0 mesh/core/libmesh_core_nrf52832_xxAA.a(nrf_mesh_configure.c.obj)
 .text          0x00000000        0x0 mesh/core/libmesh_core_nrf52832_xxAA.a(event.c.obj)
 .data          0x00000000        0x0 mesh/core/libmesh_core_nrf52832_xxAA.a(event.c.obj)
 .bss           0x00000000        0x0 mesh/core/libmesh_core_nrf52832_xxAA.a(event.c.obj)
 .text.event_handler_remove
                0x00000000       0x6c mesh/core/libmesh_core_nrf52832_xxAA.a(event.c.obj)
 .text          0x00000000        0x0 mesh/core/libmesh_core_nrf52832_xxAA.a(packet_buffer.c.obj)
 .data          0x00000000        0x0 mesh/core/libmesh_core_nrf52832_xxAA.a(packet_buffer.c.obj)
 .bss           0x00000000        0x0 mesh/core/libmesh_core_nrf52832_xxAA.a(packet_buffer.c.obj)
 .text          0x00000000        0x0 mesh/core/libmesh_core_nrf52832_xxAA.a(fifo.c.obj)
 .data          0x00000000        0x0 mesh/core/libmesh_core_nrf52832_xxAA.a(fifo.c.obj)
 .bss           0x00000000        0x0 mesh/core/libmesh_core_nrf52832_xxAA.a(fifo.c.obj)
 .text.fifo_peek_at
                0x00000000       0x54 mesh/core/libmesh_core_nrf52832_xxAA.a(fifo.c.obj)
 .text.fifo_peek
                0x00000000       0x50 mesh/core/libmesh_core_nrf52832_xxAA.a(fifo.c.obj)
 .text.fifo_flush
                0x00000000        0x8 mesh/core/libmesh_core_nrf52832_xxAA.a(fifo.c.obj)
 .text.fifo_get_len
                0x00000000        0x8 mesh/core/libmesh_core_nrf52832_xxAA.a(fifo.c.obj)
 .text.fifo_is_full
                0x00000000       0x14 mesh/core/libmesh_core_nrf52832_xxAA.a(fifo.c.obj)
 .text.fifo_is_empty
                0x00000000       0x10 mesh/core/libmesh_core_nrf52832_xxAA.a(fifo.c.obj)
 .text          0x00000000        0x0 mesh/core/libmesh_core_nrf52832_xxAA.a(net_state.c.obj)
 .data          0x00000000        0x0 mesh/core/libmesh_core_nrf52832_xxAA.a(net_state.c.obj)
 .bss           0x00000000        0x0 mesh/core/libmesh_core_nrf52832_xxAA.a(net_state.c.obj)
 .text.net_state_flash_area_get
                0x00000000        0xc mesh/core/libmesh_core_nrf52832_xxAA.a(net_state.c.obj)
 .text.net_state_iv_update_start
                0x00000000       0x90 mesh/core/libmesh_core_nrf52832_xxAA.a(net_state.c.obj)
 .text.net_state_iv_update_test_mode_set
                0x00000000        0xc mesh/core/libmesh_core_nrf52832_xxAA.a(net_state.c.obj)
 .text          0x00000000        0x0 mesh/core/libmesh_core_nrf52832_xxAA.a(mesh_flash.c.obj)
 .data          0x00000000        0x0 mesh/core/libmesh_core_nrf52832_xxAA.a(mesh_flash.c.obj)
 .bss           0x00000000        0x0 mesh/core/libmesh_core_nrf52832_xxAA.a(mesh_flash.c.obj)
 .text.mesh_flash_op_available_slots
                0x00000000       0x2c mesh/core/libmesh_core_nrf52832_xxAA.a(mesh_flash.c.obj)
 .text          0x00000000        0x0 mesh/core/libmesh_core_nrf52832_xxAA.a(nrf_mesh_utils.c.obj)
 .data          0x00000000        0x0 mesh/core/libmesh_core_nrf52832_xxAA.a(nrf_mesh_utils.c.obj)
 .bss           0x00000000        0x0 mesh/core/libmesh_core_nrf52832_xxAA.a(nrf_mesh_utils.c.obj)
 .text.nrf_mesh_rand_get
                0x00000000       0x10 mesh/core/libmesh_core_nrf52832_xxAA.a(nrf_mesh_utils.c.obj)
 .text.nrf_mesh_gap_address_type_get
                0x00000000       0x40 mesh/core/libmesh_core_nrf52832_xxAA.a(nrf_mesh_utils.c.obj)
 .text          0x00000000        0x0 mesh/core/libmesh_core_nrf52832_xxAA.a(nrf_mesh.c.obj)
 .data          0x00000000        0x0 mesh/core/libmesh_core_nrf52832_xxAA.a(nrf_mesh.c.obj)
 .bss           0x00000000        0x0 mesh/core/libmesh_core_nrf52832_xxAA.a(nrf_mesh.c.obj)
 .text.nrf_mesh_evt_handler_remove
                0x00000000        0x4 mesh/core/libmesh_core_nrf52832_xxAA.a(nrf_mesh.c.obj)
 .text.nrf_mesh_rx_cb_set
                0x00000000        0xc mesh/core/libmesh_core_nrf52832_xxAA.a(nrf_mesh.c.obj)
 .text.nrf_mesh_rx_cb_clear
                0x00000000        0xc mesh/core/libmesh_core_nrf52832_xxAA.a(nrf_mesh.c.obj)
 .text          0x00000000        0x0 mesh/core/libmesh_core_nrf52832_xxAA.a(hal.c.obj)
 .data          0x00000000        0x0 mesh/core/libmesh_core_nrf52832_xxAA.a(hal.c.obj)
 .bss           0x00000000        0x0 mesh/core/libmesh_core_nrf52832_xxAA.a(hal.c.obj)
 .text          0x00000000        0x0 mesh/core/libmesh_core_nrf52832_xxAA.a(timer_scheduler.c.obj)
 .data          0x00000000        0x0 mesh/core/libmesh_core_nrf52832_xxAA.a(timer_scheduler.c.obj)
 .bss           0x00000000        0x0 mesh/core/libmesh_core_nrf52832_xxAA.a(timer_scheduler.c.obj)
 .text          0x00000000        0x0 mesh/core/libmesh_core_nrf52832_xxAA.a(timer.c.obj)
 .data          0x00000000        0x0 mesh/core/libmesh_core_nrf52832_xxAA.a(timer.c.obj)
 .bss           0x00000000        0x0 mesh/core/libmesh_core_nrf52832_xxAA.a(timer.c.obj)
 .text.timer_order_cb_ppi
                0x00000000       0xd8 mesh/core/libmesh_core_nrf52832_xxAA.a(timer.c.obj)
 .text.timer_order_ppi
                0x00000000       0x88 mesh/core/libmesh_core_nrf52832_xxAA.a(timer.c.obj)
 .text.timer_abort
                0x00000000       0x84 mesh/core/libmesh_core_nrf52832_xxAA.a(timer.c.obj)
 .text          0x00000000        0x0 mesh/core/libmesh_core_nrf52832_xxAA.a(ticker.c.obj)
 .data          0x00000000        0x0 mesh/core/libmesh_core_nrf52832_xxAA.a(ticker.c.obj)
 .bss           0x00000000        0x0 mesh/core/libmesh_core_nrf52832_xxAA.a(ticker.c.obj)
 .text.ticker_get
                0x00000000        0xc mesh/core/libmesh_core_nrf52832_xxAA.a(ticker.c.obj)
 .text          0x00000000        0x0 mesh/core/libmesh_core_nrf52832_xxAA.a(rand.c.obj)
 .data          0x00000000        0x0 mesh/core/libmesh_core_nrf52832_xxAA.a(rand.c.obj)
 .bss           0x00000000        0x0 mesh/core/libmesh_core_nrf52832_xxAA.a(rand.c.obj)
 .text          0x00000000        0x0 mesh/core/libmesh_core_nrf52832_xxAA.a(timeslot.c.obj)
 .data          0x00000000        0x0 mesh/core/libmesh_core_nrf52832_xxAA.a(timeslot.c.obj)
 .bss           0x00000000        0x0 mesh/core/libmesh_core_nrf52832_xxAA.a(timeslot.c.obj)
 .text.timeslot_restart
                0x00000000       0x30 mesh/core/libmesh_core_nrf52832_xxAA.a(timeslot.c.obj)
 .text.timeslot_end_time_get
                0x00000000       0x30 mesh/core/libmesh_core_nrf52832_xxAA.a(timeslot.c.obj)
 .text.timeslot_is_in_ts
                0x00000000        0xc mesh/core/libmesh_core_nrf52832_xxAA.a(timeslot.c.obj)
 .text          0x00000000        0x0 mesh/core/libmesh_core_nrf52832_xxAA.a(bearer_event.c.obj)
 .data          0x00000000        0x0 mesh/core/libmesh_core_nrf52832_xxAA.a(bearer_event.c.obj)
 .bss           0x00000000        0x0 mesh/core/libmesh_core_nrf52832_xxAA.a(bearer_event.c.obj)
 .text.bearer_event_timer_sch_post
                0x00000000       0x54 mesh/core/libmesh_core_nrf52832_xxAA.a(bearer_event.c.obj)
 .text          0x00000000        0x0 mesh/core/libmesh_core_nrf52832_xxAA.a(enc.c.obj)
 .data          0x00000000        0x0 mesh/core/libmesh_core_nrf52832_xxAA.a(enc.c.obj)
 .bss           0x00000000        0x0 mesh/core/libmesh_core_nrf52832_xxAA.a(enc.c.obj)
 .text.enc_key_generate
                0x00000000        0x8 mesh/core/libmesh_core_nrf52832_xxAA.a(enc.c.obj)
 .text          0x00000000        0x0 mesh/core/libmesh_core_nrf52832_xxAA.a(network.c.obj)
 .data          0x00000000        0x0 mesh/core/libmesh_core_nrf52832_xxAA.a(network.c.obj)
 .bss           0x00000000        0x0 mesh/core/libmesh_core_nrf52832_xxAA.a(network.c.obj)
 .text.network_opt_set
                0x00000000       0x58 mesh/core/libmesh_core_nrf52832_xxAA.a(network.c.obj)
 .text.network_opt_get
                0x00000000       0x4c mesh/core/libmesh_core_nrf52832_xxAA.a(network.c.obj)
 .text.network_packet_discard
                0x00000000       0x4c mesh/core/libmesh_core_nrf52832_xxAA.a(network.c.obj)
 .text          0x00000000        0x0 mesh/core/libmesh_core_nrf52832_xxAA.a(msqueue.c.obj)
 .data          0x00000000        0x0 mesh/core/libmesh_core_nrf52832_xxAA.a(msqueue.c.obj)
 .bss           0x00000000        0x0 mesh/core/libmesh_core_nrf52832_xxAA.a(msqueue.c.obj)
 .text.msq_reset
                0x00000000       0x34 mesh/core/libmesh_core_nrf52832_xxAA.a(msqueue.c.obj)
 .text          0x00000000        0x0 mesh/core/libmesh_core_nrf52832_xxAA.a(nrf_mesh_keygen.c.obj)
 .data          0x00000000        0x0 mesh/core/libmesh_core_nrf52832_xxAA.a(nrf_mesh_keygen.c.obj)
 .bss           0x00000000        0x0 mesh/core/libmesh_core_nrf52832_xxAA.a(nrf_mesh_keygen.c.obj)
 .text.nrf_mesh_keygen_identitykey
                0x00000000       0x4c mesh/core/libmesh_core_nrf52832_xxAA.a(nrf_mesh_keygen.c.obj)
 .text          0x00000000        0x0 mesh/core/libmesh_core_nrf52832_xxAA.a(log.c.obj)
 .data          0x00000000        0x0 mesh/core/libmesh_core_nrf52832_xxAA.a(log.c.obj)
 .bss           0x00000000        0x0 mesh/core/libmesh_core_nrf52832_xxAA.a(log.c.obj)
 .text.log_callback_logview
                0x00000000       0x38 mesh/core/libmesh_core_nrf52832_xxAA.a(log.c.obj)
 .text.log_set_callback
                0x00000000        0xc mesh/core/libmesh_core_nrf52832_xxAA.a(log.c.obj)
 .text.log_vprintf
                0x00000000       0x18 mesh/core/libmesh_core_nrf52832_xxAA.a(log.c.obj)
 .rodata.log_callback_logview.str1.4
                0x00000000       0x12 mesh/core/libmesh_core_nrf52832_xxAA.a(log.c.obj)
 .text          0x00000000        0x0 mesh/core/libmesh_core_nrf52832_xxAA.a(flash_manager.c.obj)
 .data          0x00000000        0x0 mesh/core/libmesh_core_nrf52832_xxAA.a(flash_manager.c.obj)
 .bss           0x00000000        0x0 mesh/core/libmesh_core_nrf52832_xxAA.a(flash_manager.c.obj)
 .text.flash_manager_entry_get
                0x00000000       0x54 mesh/core/libmesh_core_nrf52832_xxAA.a(flash_manager.c.obj)
 .text.flash_manager_entry_count_get
                0x00000000      0x110 mesh/core/libmesh_core_nrf52832_xxAA.a(flash_manager.c.obj)
 .text.flash_manager_entry_release
                0x00000000       0xb4 mesh/core/libmesh_core_nrf52832_xxAA.a(flash_manager.c.obj)
 .text          0x00000000        0x0 mesh/core/libmesh_core_nrf52832_xxAA.a(ccm_soft.c.obj)
 .data          0x00000000        0x0 mesh/core/libmesh_core_nrf52832_xxAA.a(ccm_soft.c.obj)
 .bss           0x00000000        0x0 mesh/core/libmesh_core_nrf52832_xxAA.a(ccm_soft.c.obj)
 .text          0x00000000        0x0 mesh/core/libmesh_core_nrf52832_xxAA.a(beacon.c.obj)
 .data          0x00000000        0x0 mesh/core/libmesh_core_nrf52832_xxAA.a(beacon.c.obj)
 .bss           0x00000000        0x0 mesh/core/libmesh_core_nrf52832_xxAA.a(beacon.c.obj)
 .text          0x00000000        0x0 mesh/core/libmesh_core_nrf52832_xxAA.a(flash_manager_internal.c.obj)
 .data          0x00000000        0x0 mesh/core/libmesh_core_nrf52832_xxAA.a(flash_manager_internal.c.obj)
 .bss           0x00000000        0x0 mesh/core/libmesh_core_nrf52832_xxAA.a(flash_manager_internal.c.obj)
 .text          0x00000000        0x0 mesh/core/libmesh_core_nrf52832_xxAA.a(core_tx.c.obj)
 .data          0x00000000        0x0 mesh/core/libmesh_core_nrf52832_xxAA.a(core_tx.c.obj)
 .bss           0x00000000        0x0 mesh/core/libmesh_core_nrf52832_xxAA.a(core_tx.c.obj)
 .text.core_tx_adv_count_set
                0x00000000       0x40 mesh/core/libmesh_core_nrf52832_xxAA.a(core_tx.c.obj)
 .text.core_tx_adv_count_get
                0x00000000       0x2c mesh/core/libmesh_core_nrf52832_xxAA.a(core_tx.c.obj)
 .text.core_tx_adv_interval_set
                0x00000000       0x34 mesh/core/libmesh_core_nrf52832_xxAA.a(core_tx.c.obj)
 .text.core_tx_adv_interval_get
                0x00000000       0x38 mesh/core/libmesh_core_nrf52832_xxAA.a(core_tx.c.obj)
 .text.core_tx_adv_address_set
                0x00000000       0x34 mesh/core/libmesh_core_nrf52832_xxAA.a(core_tx.c.obj)
 .text          0x00000000        0x0 mesh/core/libmesh_core_nrf52832_xxAA.a(net_beacon.c.obj)
 .data          0x00000000        0x0 mesh/core/libmesh_core_nrf52832_xxAA.a(net_beacon.c.obj)
 .bss           0x00000000        0x0 mesh/core/libmesh_core_nrf52832_xxAA.a(net_beacon.c.obj)
 .text.net_beacon_state_set
                0x00000000       0x3c mesh/core/libmesh_core_nrf52832_xxAA.a(net_beacon.c.obj)
 .text.net_beacon_state_get
                0x00000000        0xc mesh/core/libmesh_core_nrf52832_xxAA.a(net_beacon.c.obj)
 .text          0x00000000        0x0 mesh/core/libmesh_core_nrf52832_xxAA.a(advertiser.c.obj)
 .data          0x00000000        0x0 mesh/core/libmesh_core_nrf52832_xxAA.a(advertiser.c.obj)
 .bss           0x00000000        0x0 mesh/core/libmesh_core_nrf52832_xxAA.a(advertiser.c.obj)
 .text.advertiser_config_set
                0x00000000      0x12c mesh/core/libmesh_core_nrf52832_xxAA.a(advertiser.c.obj)
 .text.advertiser_address_set
                0x00000000       0x80 mesh/core/libmesh_core_nrf52832_xxAA.a(advertiser.c.obj)
 .text.advertiser_config_get
                0x00000000       0x30 mesh/core/libmesh_core_nrf52832_xxAA.a(advertiser.c.obj)
 .text          0x00000000        0x0 mesh/core/libmesh_core_nrf52832_xxAA.a(bearer_handler.c.obj)
 .data          0x00000000        0x0 mesh/core/libmesh_core_nrf52832_xxAA.a(bearer_handler.c.obj)
 .bss           0x00000000        0x0 mesh/core/libmesh_core_nrf52832_xxAA.a(bearer_handler.c.obj)
 .text.bearer_handler_action_fire
                0x00000000       0xb0 mesh/core/libmesh_core_nrf52832_xxAA.a(bearer_handler.c.obj)
 .text          0x00000000        0x0 mesh/core/libmesh_core_nrf52832_xxAA.a(broadcast.c.obj)
 .data          0x00000000        0x0 mesh/core/libmesh_core_nrf52832_xxAA.a(broadcast.c.obj)
 .bss           0x00000000        0x0 mesh/core/libmesh_core_nrf52832_xxAA.a(broadcast.c.obj)
 .text          0x00000000        0x0 mesh/core/libmesh_core_nrf52832_xxAA.a(radio_config.c.obj)
 .data          0x00000000        0x0 mesh/core/libmesh_core_nrf52832_xxAA.a(radio_config.c.obj)
 .bss           0x00000000        0x0 mesh/core/libmesh_core_nrf52832_xxAA.a(radio_config.c.obj)
 .text.radio_config_access_addr_get
                0x00000000       0x6c mesh/core/libmesh_core_nrf52832_xxAA.a(radio_config.c.obj)
 .text          0x00000000        0x0 mesh/core/libmesh_core_nrf52832_xxAA.a(scanner.c.obj)
 .data          0x00000000        0x0 mesh/core/libmesh_core_nrf52832_xxAA.a(scanner.c.obj)
 .bss           0x00000000        0x0 mesh/core/libmesh_core_nrf52832_xxAA.a(scanner.c.obj)
 .text.scanner_is_enabled
                0x00000000       0x14 mesh/core/libmesh_core_nrf52832_xxAA.a(scanner.c.obj)
 .text.scanner_stats_get
                0x00000000        0x8 mesh/core/libmesh_core_nrf52832_xxAA.a(scanner.c.obj)
 .text.scanner_config_radio_mode_set
                0x00000000       0x10 mesh/core/libmesh_core_nrf52832_xxAA.a(scanner.c.obj)
 .text.scanner_config_scan_time_set
                0x00000000       0x94 mesh/core/libmesh_core_nrf52832_xxAA.a(scanner.c.obj)
 .text.scanner_config_channels_set
                0x00000000       0x64 mesh/core/libmesh_core_nrf52832_xxAA.a(scanner.c.obj)
 .text.scanner_config_access_addresses_set
                0x00000000       0x44 mesh/core/libmesh_core_nrf52832_xxAA.a(scanner.c.obj)
 .text          0x00000000        0x0 mesh/core/libmesh_core_nrf52832_xxAA.a(aes.c.obj)
 .data          0x00000000        0x0 mesh/core/libmesh_core_nrf52832_xxAA.a(aes.c.obj)
 .bss           0x00000000        0x0 mesh/core/libmesh_core_nrf52832_xxAA.a(aes.c.obj)
 .text          0x00000000        0x0 mesh/core/libmesh_core_nrf52832_xxAA.a(msg_cache.c.obj)
 .data          0x00000000        0x0 mesh/core/libmesh_core_nrf52832_xxAA.a(msg_cache.c.obj)
 .bss           0x00000000        0x0 mesh/core/libmesh_core_nrf52832_xxAA.a(msg_cache.c.obj)
 .text.msg_cache_clear
                0x00000000       0x18 mesh/core/libmesh_core_nrf52832_xxAA.a(msg_cache.c.obj)
 .text          0x00000000        0x0 mesh/core/libmesh_core_nrf52832_xxAA.a(transport.c.obj)
 .data          0x00000000        0x0 mesh/core/libmesh_core_nrf52832_xxAA.a(transport.c.obj)
 .bss           0x00000000        0x0 mesh/core/libmesh_core_nrf52832_xxAA.a(transport.c.obj)
 .text.transport_sar_mem_funcs_reset
                0x00000000       0x30 mesh/core/libmesh_core_nrf52832_xxAA.a(transport.c.obj)
 .text.transport_sar_mem_funcs_set
                0x00000000       0x48 mesh/core/libmesh_core_nrf52832_xxAA.a(transport.c.obj)
 .text.transport_opt_set
                0x00000000       0xdc mesh/core/libmesh_core_nrf52832_xxAA.a(transport.c.obj)
 .text.transport_opt_get
                0x00000000       0x84 mesh/core/libmesh_core_nrf52832_xxAA.a(transport.c.obj)
 .text          0x00000000        0x0 mesh/core/libmesh_core_nrf52832_xxAA.a(flash_manager_defrag.c.obj)
 .data          0x00000000        0x0 mesh/core/libmesh_core_nrf52832_xxAA.a(flash_manager_defrag.c.obj)
 .bss           0x00000000        0x0 mesh/core/libmesh_core_nrf52832_xxAA.a(flash_manager_defrag.c.obj)
 .text.flash_manager_defragging
                0x00000000       0x50 mesh/core/libmesh_core_nrf52832_xxAA.a(flash_manager_defrag.c.obj)
 .text          0x00000000        0x0 mesh/core/libmesh_core_nrf52832_xxAA.a(nrf_flash.c.obj)
 .data          0x00000000        0x0 mesh/core/libmesh_core_nrf52832_xxAA.a(nrf_flash.c.obj)
 .bss           0x00000000        0x0 mesh/core/libmesh_core_nrf52832_xxAA.a(nrf_flash.c.obj)
 .text          0x00000000        0x0 mesh/core/libmesh_core_nrf52832_xxAA.a(packet_mgr.c.obj)
 .data          0x00000000        0x0 mesh/core/libmesh_core_nrf52832_xxAA.a(packet_mgr.c.obj)
 .bss           0x00000000        0x0 mesh/core/libmesh_core_nrf52832_xxAA.a(packet_mgr.c.obj)
 .text.packet_mgr_alloc
                0x00000000      0x1dc mesh/core/libmesh_core_nrf52832_xxAA.a(packet_mgr.c.obj)
 .text.packet_mgr_free
                0x00000000       0x70 mesh/core/libmesh_core_nrf52832_xxAA.a(packet_mgr.c.obj)
 .text.packet_mgr_get_free_space
                0x00000000       0x1c mesh/core/libmesh_core_nrf52832_xxAA.a(packet_mgr.c.obj)
 .text.packet_mgr_refcount_get
                0x00000000        0x8 mesh/core/libmesh_core_nrf52832_xxAA.a(packet_mgr.c.obj)
 .text.packet_mgr_size_get
                0x00000000        0x8 mesh/core/libmesh_core_nrf52832_xxAA.a(packet_mgr.c.obj)
 .text          0x00000000        0x0 mesh/core/libmesh_core_nrf52832_xxAA.a(queue.c.obj)
 .data          0x00000000        0x0 mesh/core/libmesh_core_nrf52832_xxAA.a(queue.c.obj)
 .bss           0x00000000        0x0 mesh/core/libmesh_core_nrf52832_xxAA.a(queue.c.obj)
 .text          0x00000000        0x0 mesh/core/libmesh_core_nrf52832_xxAA.a(aes_cmac.c.obj)
 .data          0x00000000        0x0 mesh/core/libmesh_core_nrf52832_xxAA.a(aes_cmac.c.obj)
 .bss           0x00000000        0x0 mesh/core/libmesh_core_nrf52832_xxAA.a(aes_cmac.c.obj)
 .text          0x00000000        0x0 mesh/core/libmesh_core_nrf52832_xxAA.a(replay_cache.c.obj)
 .data          0x00000000        0x0 mesh/core/libmesh_core_nrf52832_xxAA.a(replay_cache.c.obj)
 .bss           0x00000000        0x0 mesh/core/libmesh_core_nrf52832_xxAA.a(replay_cache.c.obj)
 .text.replay_cache_on_iv_update
                0x00000000       0x2c mesh/core/libmesh_core_nrf52832_xxAA.a(replay_cache.c.obj)
 .text.replay_cache_clear
                0x00000000       0x28 mesh/core/libmesh_core_nrf52832_xxAA.a(replay_cache.c.obj)
 .text          0x00000000        0x0 mesh/core/libmesh_core_nrf52832_xxAA.a(filter_engine.c.obj)
 .data          0x00000000        0x0 mesh/core/libmesh_core_nrf52832_xxAA.a(filter_engine.c.obj)
 .bss           0x00000000        0x0 mesh/core/libmesh_core_nrf52832_xxAA.a(filter_engine.c.obj)
 .text.fen_filter_start
                0x00000000       0x84 mesh/core/libmesh_core_nrf52832_xxAA.a(filter_engine.c.obj)
 .text.fen_filter_stop
                0x00000000       0x70 mesh/core/libmesh_core_nrf52832_xxAA.a(filter_engine.c.obj)
 .text.fen_accepted_amount_get
                0x00000000        0xc mesh/core/libmesh_core_nrf52832_xxAA.a(filter_engine.c.obj)
 .text          0x00000000        0x0 external/rtt/librtt_nrf52832_xxAA.a(SEGGER_RTT.c.obj)
 .data          0x00000000        0x0 external/rtt/librtt_nrf52832_xxAA.a(SEGGER_RTT.c.obj)
 .bss           0x00000000        0x0 external/rtt/librtt_nrf52832_xxAA.a(SEGGER_RTT.c.obj)
 .text.SEGGER_RTT_ReadNoLock
                0x00000000      0x100 external/rtt/librtt_nrf52832_xxAA.a(SEGGER_RTT.c.obj)
 .text.SEGGER_RTT_Read
                0x00000000      0x114 external/rtt/librtt_nrf52832_xxAA.a(SEGGER_RTT.c.obj)
 .text.SEGGER_RTT_WriteSkipNoLock
                0x00000000      0x184 external/rtt/librtt_nrf52832_xxAA.a(SEGGER_RTT.c.obj)
 .text.SEGGER_RTT_WriteNoLock
                0x00000000      0x188 external/rtt/librtt_nrf52832_xxAA.a(SEGGER_RTT.c.obj)
 .text.SEGGER_RTT_WriteString
                0x00000000      0x20c external/rtt/librtt_nrf52832_xxAA.a(SEGGER_RTT.c.obj)
 .text.SEGGER_RTT_GetKey
                0x00000000       0xec external/rtt/librtt_nrf52832_xxAA.a(SEGGER_RTT.c.obj)
 .text.SEGGER_RTT_WaitKey
                0x00000000      0x114 external/rtt/librtt_nrf52832_xxAA.a(SEGGER_RTT.c.obj)
 .text.SEGGER_RTT_HasKey
                0x00000000       0x6c external/rtt/librtt_nrf52832_xxAA.a(SEGGER_RTT.c.obj)
 .text.SEGGER_RTT_HasData
                0x00000000       0x18 external/rtt/librtt_nrf52832_xxAA.a(SEGGER_RTT.c.obj)
 .text.SEGGER_RTT_AllocDownBuffer
                0x00000000       0xbc external/rtt/librtt_nrf52832_xxAA.a(SEGGER_RTT.c.obj)
 .text.SEGGER_RTT_AllocUpBuffer
                0x00000000       0xd8 external/rtt/librtt_nrf52832_xxAA.a(SEGGER_RTT.c.obj)
 .text.SEGGER_RTT_ConfigUpBuffer
                0x00000000       0xd0 external/rtt/librtt_nrf52832_xxAA.a(SEGGER_RTT.c.obj)
 .text.SEGGER_RTT_ConfigDownBuffer
                0x00000000       0xb8 external/rtt/librtt_nrf52832_xxAA.a(SEGGER_RTT.c.obj)
 .text.SEGGER_RTT_SetNameUpBuffer
                0x00000000       0x90 external/rtt/librtt_nrf52832_xxAA.a(SEGGER_RTT.c.obj)
 .text.SEGGER_RTT_SetNameDownBuffer
                0x00000000       0x90 external/rtt/librtt_nrf52832_xxAA.a(SEGGER_RTT.c.obj)
 .text.SEGGER_RTT_Init
                0x00000000       0x60 external/rtt/librtt_nrf52832_xxAA.a(SEGGER_RTT.c.obj)
 .text.SEGGER_RTT_SetTerminal
                0x00000000      0x15c external/rtt/librtt_nrf52832_xxAA.a(SEGGER_RTT.c.obj)
 .text.SEGGER_RTT_TerminalOut
                0x00000000      0x40c external/rtt/librtt_nrf52832_xxAA.a(SEGGER_RTT.c.obj)
 .bss._ActiveTerminal
                0x00000000        0x1 external/rtt/librtt_nrf52832_xxAA.a(SEGGER_RTT.c.obj)
 .rodata._aTerminalId
                0x00000000       0x10 external/rtt/librtt_nrf52832_xxAA.a(SEGGER_RTT.c.obj)
 .text          0x00000000        0x0 external/rtt/librtt_nrf52832_xxAA.a(SEGGER_RTT_printf.c.obj)
 .data          0x00000000        0x0 external/rtt/librtt_nrf52832_xxAA.a(SEGGER_RTT_printf.c.obj)
 .bss           0x00000000        0x0 external/rtt/librtt_nrf52832_xxAA.a(SEGGER_RTT_printf.c.obj)
 .text          0x00000000        0x0 external/micro-ecc/libuECC_nrf52832_xxAA.a(uECC.c.obj)
 .data          0x00000000        0x0 external/micro-ecc/libuECC_nrf52832_xxAA.a(uECC.c.obj)
 .bss           0x00000000        0x0 external/micro-ecc/libuECC_nrf52832_xxAA.a(uECC.c.obj)
 .text.HMAC_finish
                0x00000000       0x70 external/micro-ecc/libuECC_nrf52832_xxAA.a(uECC.c.obj)
 .text.uECC_vli_mmod
                0x00000000      0x3c8 external/micro-ecc/libuECC_nrf52832_xxAA.a(uECC.c.obj)
 .text.uECC_vli_modSub.isra.2
                0x00000000       0x98 external/micro-ecc/libuECC_nrf52832_xxAA.a(uECC.c.obj)
 .text.bits2int
                0x00000000      0x14c external/micro-ecc/libuECC_nrf52832_xxAA.a(uECC.c.obj)
 .text.uECC_sign_with_k
                0x00000000      0x60c external/micro-ecc/libuECC_nrf52832_xxAA.a(uECC.c.obj)
 .text.uECC_set_rng
                0x00000000        0xc external/micro-ecc/libuECC_nrf52832_xxAA.a(uECC.c.obj)
 .text.uECC_get_rng
                0x00000000        0xc external/micro-ecc/libuECC_nrf52832_xxAA.a(uECC.c.obj)
 .text.uECC_curve_private_key_size
                0x00000000       0x10 external/micro-ecc/libuECC_nrf52832_xxAA.a(uECC.c.obj)
 .text.uECC_curve_public_key_size
                0x00000000        0x8 external/micro-ecc/libuECC_nrf52832_xxAA.a(uECC.c.obj)
 .text.uECC_compute_public_key
                0x00000000      0x2e4 external/micro-ecc/libuECC_nrf52832_xxAA.a(uECC.c.obj)
 .text.uECC_sign
                0x00000000       0x60 external/micro-ecc/libuECC_nrf52832_xxAA.a(uECC.c.obj)
 .text.uECC_sign_deterministic
                0x00000000      0x400 external/micro-ecc/libuECC_nrf52832_xxAA.a(uECC.c.obj)
 .text.uECC_verify
                0x00000000      0x95c external/micro-ecc/libuECC_nrf52832_xxAA.a(uECC.c.obj)
 .text          0x00000000        0x0 c:/a/gcc_arm/6/bin/../lib/gcc/arm-none-eabi/6.3.1/../../../../arm-none-eabi/lib/thumb/v7e-m/fpv4-sp/hard\libc_nano.a(lib_a-exit.o)
 .data          0x00000000        0x0 c:/a/gcc_arm/6/bin/../lib/gcc/arm-none-eabi/6.3.1/../../../../arm-none-eabi/lib/thumb/v7e-m/fpv4-sp/hard\libc_nano.a(lib_a-exit.o)
 .bss           0x00000000        0x0 c:/a/gcc_arm/6/bin/../lib/gcc/arm-none-eabi/6.3.1/../../../../arm-none-eabi/lib/thumb/v7e-m/fpv4-sp/hard\libc_nano.a(lib_a-exit.o)
 .text          0x00000000        0x0 c:/a/gcc_arm/6/bin/../lib/gcc/arm-none-eabi/6.3.1/../../../../arm-none-eabi/lib/thumb/v7e-m/fpv4-sp/hard\libc_nano.a(lib_a-impure.o)
 .data          0x00000000        0x0 c:/a/gcc_arm/6/bin/../lib/gcc/arm-none-eabi/6.3.1/../../../../arm-none-eabi/lib/thumb/v7e-m/fpv4-sp/hard\libc_nano.a(lib_a-impure.o)
 .bss           0x00000000        0x0 c:/a/gcc_arm/6/bin/../lib/gcc/arm-none-eabi/6.3.1/../../../../arm-none-eabi/lib/thumb/v7e-m/fpv4-sp/hard\libc_nano.a(lib_a-impure.o)
 .text          0x00000000        0x0 c:/a/gcc_arm/6/bin/../lib/gcc/arm-none-eabi/6.3.1/../../../../arm-none-eabi/lib/thumb/v7e-m/fpv4-sp/hard\libc_nano.a(lib_a-init.o)
 .data          0x00000000        0x0 c:/a/gcc_arm/6/bin/../lib/gcc/arm-none-eabi/6.3.1/../../../../arm-none-eabi/lib/thumb/v7e-m/fpv4-sp/hard\libc_nano.a(lib_a-init.o)
 .bss           0x00000000        0x0 c:/a/gcc_arm/6/bin/../lib/gcc/arm-none-eabi/6.3.1/../../../../arm-none-eabi/lib/thumb/v7e-m/fpv4-sp/hard\libc_nano.a(lib_a-init.o)
 .text          0x00000000        0x0 c:/a/gcc_arm/6/bin/../lib/gcc/arm-none-eabi/6.3.1/../../../../arm-none-eabi/lib/thumb/v7e-m/fpv4-sp/hard\libc_nano.a(lib_a-malloc.o)
 .data          0x00000000        0x0 c:/a/gcc_arm/6/bin/../lib/gcc/arm-none-eabi/6.3.1/../../../../arm-none-eabi/lib/thumb/v7e-m/fpv4-sp/hard\libc_nano.a(lib_a-malloc.o)
 .bss           0x00000000        0x0 c:/a/gcc_arm/6/bin/../lib/gcc/arm-none-eabi/6.3.1/../../../../arm-none-eabi/lib/thumb/v7e-m/fpv4-sp/hard\libc_nano.a(lib_a-malloc.o)
 .text          0x00000000        0x0 c:/a/gcc_arm/6/bin/../lib/gcc/arm-none-eabi/6.3.1/../../../../arm-none-eabi/lib/thumb/v7e-m/fpv4-sp/hard\libc_nano.a(lib_a-memcmp.o)
 .data          0x00000000        0x0 c:/a/gcc_arm/6/bin/../lib/gcc/arm-none-eabi/6.3.1/../../../../arm-none-eabi/lib/thumb/v7e-m/fpv4-sp/hard\libc_nano.a(lib_a-memcmp.o)
 .bss           0x00000000        0x0 c:/a/gcc_arm/6/bin/../lib/gcc/arm-none-eabi/6.3.1/../../../../arm-none-eabi/lib/thumb/v7e-m/fpv4-sp/hard\libc_nano.a(lib_a-memcmp.o)
 .text          0x00000000        0x0 c:/a/gcc_arm/6/bin/../lib/gcc/arm-none-eabi/6.3.1/../../../../arm-none-eabi/lib/thumb/v7e-m/fpv4-sp/hard\libc_nano.a(lib_a-memcpy-stub.o)
 .data          0x00000000        0x0 c:/a/gcc_arm/6/bin/../lib/gcc/arm-none-eabi/6.3.1/../../../../arm-none-eabi/lib/thumb/v7e-m/fpv4-sp/hard\libc_nano.a(lib_a-memcpy-stub.o)
 .bss           0x00000000        0x0 c:/a/gcc_arm/6/bin/../lib/gcc/arm-none-eabi/6.3.1/../../../../arm-none-eabi/lib/thumb/v7e-m/fpv4-sp/hard\libc_nano.a(lib_a-memcpy-stub.o)
 .text          0x00000000        0x0 c:/a/gcc_arm/6/bin/../lib/gcc/arm-none-eabi/6.3.1/../../../../arm-none-eabi/lib/thumb/v7e-m/fpv4-sp/hard\libc_nano.a(lib_a-memset.o)
 .data          0x00000000        0x0 c:/a/gcc_arm/6/bin/../lib/gcc/arm-none-eabi/6.3.1/../../../../arm-none-eabi/lib/thumb/v7e-m/fpv4-sp/hard\libc_nano.a(lib_a-memset.o)
 .bss           0x00000000        0x0 c:/a/gcc_arm/6/bin/../lib/gcc/arm-none-eabi/6.3.1/../../../../arm-none-eabi/lib/thumb/v7e-m/fpv4-sp/hard\libc_nano.a(lib_a-memset.o)
 .text          0x00000000        0x0 c:/a/gcc_arm/6/bin/../lib/gcc/arm-none-eabi/6.3.1/../../../../arm-none-eabi/lib/thumb/v7e-m/fpv4-sp/hard\libc_nano.a(lib_a-nano-freer.o)
 .data          0x00000000        0x0 c:/a/gcc_arm/6/bin/../lib/gcc/arm-none-eabi/6.3.1/../../../../arm-none-eabi/lib/thumb/v7e-m/fpv4-sp/hard\libc_nano.a(lib_a-nano-freer.o)
 .bss           0x00000000        0x0 c:/a/gcc_arm/6/bin/../lib/gcc/arm-none-eabi/6.3.1/../../../../arm-none-eabi/lib/thumb/v7e-m/fpv4-sp/hard\libc_nano.a(lib_a-nano-freer.o)
 .text          0x00000000        0x0 c:/a/gcc_arm/6/bin/../lib/gcc/arm-none-eabi/6.3.1/../../../../arm-none-eabi/lib/thumb/v7e-m/fpv4-sp/hard\libc_nano.a(lib_a-nano-mallocr.o)
 .data          0x00000000        0x0 c:/a/gcc_arm/6/bin/../lib/gcc/arm-none-eabi/6.3.1/../../../../arm-none-eabi/lib/thumb/v7e-m/fpv4-sp/hard\libc_nano.a(lib_a-nano-mallocr.o)
 .bss           0x00000000        0x0 c:/a/gcc_arm/6/bin/../lib/gcc/arm-none-eabi/6.3.1/../../../../arm-none-eabi/lib/thumb/v7e-m/fpv4-sp/hard\libc_nano.a(lib_a-nano-mallocr.o)
 .text          0x00000000        0x0 c:/a/gcc_arm/6/bin/../lib/gcc/arm-none-eabi/6.3.1/../../../../arm-none-eabi/lib/thumb/v7e-m/fpv4-sp/hard\libc_nano.a(lib_a-sbrkr.o)
 .data          0x00000000        0x0 c:/a/gcc_arm/6/bin/../lib/gcc/arm-none-eabi/6.3.1/../../../../arm-none-eabi/lib/thumb/v7e-m/fpv4-sp/hard\libc_nano.a(lib_a-sbrkr.o)
 .bss           0x00000000        0x0 c:/a/gcc_arm/6/bin/../lib/gcc/arm-none-eabi/6.3.1/../../../../arm-none-eabi/lib/thumb/v7e-m/fpv4-sp/hard\libc_nano.a(lib_a-sbrkr.o)
 .text          0x00000000        0x0 c:/a/gcc_arm/6/bin/../lib/gcc/arm-none-eabi/6.3.1/../../../../arm-none-eabi/lib/thumb/v7e-m/fpv4-sp/hard\libc_nano.a(lib_a-strcpy.o)
 .data          0x00000000        0x0 c:/a/gcc_arm/6/bin/../lib/gcc/arm-none-eabi/6.3.1/../../../../arm-none-eabi/lib/thumb/v7e-m/fpv4-sp/hard\libc_nano.a(lib_a-strcpy.o)
 .bss           0x00000000        0x0 c:/a/gcc_arm/6/bin/../lib/gcc/arm-none-eabi/6.3.1/../../../../arm-none-eabi/lib/thumb/v7e-m/fpv4-sp/hard\libc_nano.a(lib_a-strcpy.o)
 .data          0x00000000        0x0 c:/a/gcc_arm/6/bin/../lib/gcc/arm-none-eabi/6.3.1/../../../../arm-none-eabi/lib/thumb/v7e-m/fpv4-sp/hard\libc_nano.a(lib_a-strlen.o)
 .bss           0x00000000        0x0 c:/a/gcc_arm/6/bin/../lib/gcc/arm-none-eabi/6.3.1/../../../../arm-none-eabi/lib/thumb/v7e-m/fpv4-sp/hard\libc_nano.a(lib_a-strlen.o)
 .text          0x00000000        0x0 c:/a/gcc_arm/6/bin/../lib/gcc/arm-none-eabi/6.3.1/../../../../arm-none-eabi/lib/thumb/v7e-m/fpv4-sp/hard\libc_nano.a(lib_a-strrchr.o)
 .data          0x00000000        0x0 c:/a/gcc_arm/6/bin/../lib/gcc/arm-none-eabi/6.3.1/../../../../arm-none-eabi/lib/thumb/v7e-m/fpv4-sp/hard\libc_nano.a(lib_a-strrchr.o)
 .bss           0x00000000        0x0 c:/a/gcc_arm/6/bin/../lib/gcc/arm-none-eabi/6.3.1/../../../../arm-none-eabi/lib/thumb/v7e-m/fpv4-sp/hard\libc_nano.a(lib_a-strrchr.o)
 .text          0x00000000        0x0 c:/a/gcc_arm/6/bin/../lib/gcc/arm-none-eabi/6.3.1/../../../../arm-none-eabi/lib/thumb/v7e-m/fpv4-sp/hard\libc_nano.a(lib_a-mlock.o)
 .data          0x00000000        0x0 c:/a/gcc_arm/6/bin/../lib/gcc/arm-none-eabi/6.3.1/../../../../arm-none-eabi/lib/thumb/v7e-m/fpv4-sp/hard\libc_nano.a(lib_a-mlock.o)
 .bss           0x00000000        0x0 c:/a/gcc_arm/6/bin/../lib/gcc/arm-none-eabi/6.3.1/../../../../arm-none-eabi/lib/thumb/v7e-m/fpv4-sp/hard\libc_nano.a(lib_a-mlock.o)
 .text          0x00000000        0x0 c:/a/gcc_arm/6/bin/../lib/gcc/arm-none-eabi/6.3.1/../../../../arm-none-eabi/lib/thumb/v7e-m/fpv4-sp/hard\libc_nano.a(lib_a-reent.o)
 .data          0x00000000        0x0 c:/a/gcc_arm/6/bin/../lib/gcc/arm-none-eabi/6.3.1/../../../../arm-none-eabi/lib/thumb/v7e-m/fpv4-sp/hard\libc_nano.a(lib_a-reent.o)
 .bss           0x00000000        0x0 c:/a/gcc_arm/6/bin/../lib/gcc/arm-none-eabi/6.3.1/../../../../arm-none-eabi/lib/thumb/v7e-m/fpv4-sp/hard\libc_nano.a(lib_a-reent.o)
 .text.cleanup_glue
                0x00000000       0x1a c:/a/gcc_arm/6/bin/../lib/gcc/arm-none-eabi/6.3.1/../../../../arm-none-eabi/lib/thumb/v7e-m/fpv4-sp/hard\libc_nano.a(lib_a-reent.o)
 .text._reclaim_reent
                0x00000000       0xb8 c:/a/gcc_arm/6/bin/../lib/gcc/arm-none-eabi/6.3.1/../../../../arm-none-eabi/lib/thumb/v7e-m/fpv4-sp/hard\libc_nano.a(lib_a-reent.o)
 .text          0x00000000        0x0 c:/a/gcc_arm/6/bin/../lib/gcc/arm-none-eabi/6.3.1/../../../../arm-none-eabi/lib/thumb/v7e-m/fpv4-sp/hard\libc_nano.a(lib_a-strchr.o)
 .data          0x00000000        0x0 c:/a/gcc_arm/6/bin/../lib/gcc/arm-none-eabi/6.3.1/../../../../arm-none-eabi/lib/thumb/v7e-m/fpv4-sp/hard\libc_nano.a(lib_a-strchr.o)
 .bss           0x00000000        0x0 c:/a/gcc_arm/6/bin/../lib/gcc/arm-none-eabi/6.3.1/../../../../arm-none-eabi/lib/thumb/v7e-m/fpv4-sp/hard\libc_nano.a(lib_a-strchr.o)
 .text          0x00000000        0x0 c:/a/gcc_arm/6/bin/../lib/gcc/arm-none-eabi/6.3.1/thumb/v7e-m/fpv4-sp/hard/crtend.o
 .data          0x00000000        0x0 c:/a/gcc_arm/6/bin/../lib/gcc/arm-none-eabi/6.3.1/thumb/v7e-m/fpv4-sp/hard/crtend.o
 .bss           0x00000000        0x0 c:/a/gcc_arm/6/bin/../lib/gcc/arm-none-eabi/6.3.1/thumb/v7e-m/fpv4-sp/hard/crtend.o
 .text          0x00000000        0x0 c:/a/gcc_arm/6/bin/../lib/gcc/arm-none-eabi/6.3.1/thumb/v7e-m/fpv4-sp/hard/crtn.o
 .data          0x00000000        0x0 c:/a/gcc_arm/6/bin/../lib/gcc/arm-none-eabi/6.3.1/thumb/v7e-m/fpv4-sp/hard/crtn.o
 .bss           0x00000000        0x0 c:/a/gcc_arm/6/bin/../lib/gcc/arm-none-eabi/6.3.1/thumb/v7e-m/fpv4-sp/hard/crtn.o
 .text          0x00000000        0x0 c:/a/gcc_arm/6/bin/../lib/gcc/arm-none-eabi/6.3.1/../../../../arm-none-eabi/lib/thumb/v7e-m/fpv4-sp/hard\libnosys.a(sbrk.o)
 .data          0x00000000        0x0 c:/a/gcc_arm/6/bin/../lib/gcc/arm-none-eabi/6.3.1/../../../../arm-none-eabi/lib/thumb/v7e-m/fpv4-sp/hard\libnosys.a(sbrk.o)
 .bss           0x00000000        0x0 c:/a/gcc_arm/6/bin/../lib/gcc/arm-none-eabi/6.3.1/../../../../arm-none-eabi/lib/thumb/v7e-m/fpv4-sp/hard\libnosys.a(sbrk.o)
 .text          0x00000000        0x0 c:/a/gcc_arm/6/bin/../lib/gcc/arm-none-eabi/6.3.1/../../../../arm-none-eabi/lib/thumb/v7e-m/fpv4-sp/hard\libnosys.a(_exit.o)
 .data          0x00000000        0x0 c:/a/gcc_arm/6/bin/../lib/gcc/arm-none-eabi/6.3.1/../../../../arm-none-eabi/lib/thumb/v7e-m/fpv4-sp/hard\libnosys.a(_exit.o)
 .bss           0x00000000        0x0 c:/a/gcc_arm/6/bin/../lib/gcc/arm-none-eabi/6.3.1/../../../../arm-none-eabi/lib/thumb/v7e-m/fpv4-sp/hard\libnosys.a(_exit.o)

Memory Configuration

Name             Origin             Length             Attributes
FLASH            0x00023000         0x00055000         xr
RAM              0x200031b0         0x0000be50         xrw
*default*        0x00000000         0xffffffff

Linker script and memory map

LOAD c:/a/gcc_arm/6/bin/../lib/gcc/arm-none-eabi/6.3.1/thumb/v7e-m/fpv4-sp/hard/crti.o
LOAD c:/a/gcc_arm/6/bin/../lib/gcc/arm-none-eabi/6.3.1/thumb/v7e-m/fpv4-sp/hard/crtbegin.o
LOAD c:/a/gcc_arm/6/bin/../lib/gcc/arm-none-eabi/6.3.1/../../../../arm-none-eabi/lib/thumb/v7e-m/fpv4-sp/hard/crt0.o
LOAD examples/dfu/CMakeFiles/dfu_nrf52832_xxAA_s132_5.0.0.dir/src/main.c.obj
LOAD examples/dfu/CMakeFiles/dfu_nrf52832_xxAA_s132_5.0.0.dir/__/nrf_mesh_sdk.c.obj
LOAD examples/dfu/CMakeFiles/dfu_nrf52832_xxAA_s132_5.0.0.dir/__/__/mesh/access/src/access_publish.c.obj
LOAD examples/dfu/CMakeFiles/dfu_nrf52832_xxAA_s132_5.0.0.dir/__/__/mesh/access/src/access.c.obj
LOAD examples/dfu/CMakeFiles/dfu_nrf52832_xxAA_s132_5.0.0.dir/__/__/mesh/access/src/access_reliable.c.obj
LOAD examples/dfu/CMakeFiles/dfu_nrf52832_xxAA_s132_5.0.0.dir/__/__/mesh/access/src/device_state_manager.c.obj
LOAD examples/dfu/CMakeFiles/dfu_nrf52832_xxAA_s132_5.0.0.dir/__/__/mesh/serial/src/serial_uart.c.obj
LOAD examples/dfu/CMakeFiles/dfu_nrf52832_xxAA_s132_5.0.0.dir/__/__/mesh/serial/src/serial_bearer.c.obj
LOAD examples/dfu/CMakeFiles/dfu_nrf52832_xxAA_s132_5.0.0.dir/__/__/mesh/serial/src/serial_handler_common.c.obj
LOAD examples/dfu/CMakeFiles/dfu_nrf52832_xxAA_s132_5.0.0.dir/__/__/mesh/serial/src/serial_handler_access.c.obj
LOAD examples/dfu/CMakeFiles/dfu_nrf52832_xxAA_s132_5.0.0.dir/__/__/mesh/serial/src/serial_handler_config.c.obj
LOAD examples/dfu/CMakeFiles/dfu_nrf52832_xxAA_s132_5.0.0.dir/__/__/mesh/serial/src/serial_handler_openmesh.c.obj
LOAD examples/dfu/CMakeFiles/dfu_nrf52832_xxAA_s132_5.0.0.dir/__/__/mesh/serial/src/serial.c.obj
LOAD examples/dfu/CMakeFiles/dfu_nrf52832_xxAA_s132_5.0.0.dir/__/__/mesh/serial/src/serial_handler_prov.c.obj
LOAD examples/dfu/CMakeFiles/dfu_nrf52832_xxAA_s132_5.0.0.dir/__/__/mesh/serial/src/serial_handler_dfu.c.obj
LOAD examples/dfu/CMakeFiles/dfu_nrf52832_xxAA_s132_5.0.0.dir/__/__/mesh/serial/src/serial_handler_mesh.c.obj
LOAD examples/dfu/CMakeFiles/dfu_nrf52832_xxAA_s132_5.0.0.dir/__/__/mesh/serial/src/serial_handler_models.c.obj
LOAD examples/dfu/CMakeFiles/dfu_nrf52832_xxAA_s132_5.0.0.dir/__/__/mesh/serial/src/serial_handler_device.c.obj
LOAD examples/dfu/CMakeFiles/dfu_nrf52832_xxAA_s132_5.0.0.dir/__/__/mesh/serial/src/nrf_mesh_serial.c.obj
LOAD examples/dfu/CMakeFiles/dfu_nrf52832_xxAA_s132_5.0.0.dir/__/__/mesh/serial/src/serial_handler_app.c.obj
LOAD examples/dfu/CMakeFiles/dfu_nrf52832_xxAA_s132_5.0.0.dir/__/__/mesh/prov/src/prov_provisioner.c.obj
LOAD examples/dfu/CMakeFiles/dfu_nrf52832_xxAA_s132_5.0.0.dir/__/__/mesh/prov/src/prov_provisionee.c.obj
LOAD examples/dfu/CMakeFiles/dfu_nrf52832_xxAA_s132_5.0.0.dir/__/__/mesh/prov/src/nrf_mesh_prov.c.obj
LOAD examples/dfu/CMakeFiles/dfu_nrf52832_xxAA_s132_5.0.0.dir/__/__/mesh/prov/src/provisioning.c.obj
LOAD examples/dfu/CMakeFiles/dfu_nrf52832_xxAA_s132_5.0.0.dir/__/__/mesh/prov/src/prov_beacon.c.obj
LOAD examples/dfu/CMakeFiles/dfu_nrf52832_xxAA_s132_5.0.0.dir/__/__/mesh/prov/src/prov_utils.c.obj
LOAD examples/dfu/CMakeFiles/dfu_nrf52832_xxAA_s132_5.0.0.dir/__/__/mesh/prov/src/prov_bearer_adv.c.obj
LOAD examples/dfu/CMakeFiles/dfu_nrf52832_xxAA_s132_5.0.0.dir/__/__/mesh/dfu/src/nrf_mesh_dfu.c.obj
LOAD examples/dfu/CMakeFiles/dfu_nrf52832_xxAA_s132_5.0.0.dir/__/nrf_mesh_weak.c.obj
LOAD examples/dfu/CMakeFiles/dfu_nrf52832_xxAA_s132_5.0.0.dir/__/__/external/nRF5_SDK_14.0.0_3bcc1f7/components/toolchain/system_nrf52.c.obj
LOAD examples/dfu/CMakeFiles/dfu_nrf52832_xxAA_s132_5.0.0.dir/__/__/external/nRF5_SDK_14.0.0_3bcc1f7/components/toolchain/gcc/gcc_startup_nrf52.S.obj
LOAD mesh/core/libmesh_core_nrf52832_xxAA.a
LOAD external/rtt/librtt_nrf52832_xxAA.a
LOAD external/micro-ecc/libuECC_nrf52832_xxAA.a
START GROUP
LOAD c:/a/gcc_arm/6/bin/../lib/gcc/arm-none-eabi/6.3.1/thumb/v7e-m/fpv4-sp/hard\libgcc.a
LOAD c:/a/gcc_arm/6/bin/../lib/gcc/arm-none-eabi/6.3.1/../../../../arm-none-eabi/lib/thumb/v7e-m/fpv4-sp/hard\libc_nano.a
END GROUP
START GROUP
LOAD c:/a/gcc_arm/6/bin/../lib/gcc/arm-none-eabi/6.3.1/thumb/v7e-m/fpv4-sp/hard\libgcc.a
LOAD c:/a/gcc_arm/6/bin/../lib/gcc/arm-none-eabi/6.3.1/../../../../arm-none-eabi/lib/thumb/v7e-m/fpv4-sp/hard\libc_nano.a
END GROUP
LOAD c:/a/gcc_arm/6/bin/../lib/gcc/arm-none-eabi/6.3.1/thumb/v7e-m/fpv4-sp/hard/crtend.o
LOAD c:/a/gcc_arm/6/bin/../lib/gcc/arm-none-eabi/6.3.1/thumb/v7e-m/fpv4-sp/hard/crtn.o
START GROUP
LOAD c:/a/gcc_arm/6/bin/../lib/gcc/arm-none-eabi/6.3.1/thumb/v7e-m/fpv4-sp/hard\libgcc.a
LOAD c:/a/gcc_arm/6/bin/../lib/gcc/arm-none-eabi/6.3.1/../../../../arm-none-eabi/lib/thumb/v7e-m/fpv4-sp/hard\libc.a
LOAD c:/a/gcc_arm/6/bin/../lib/gcc/arm-none-eabi/6.3.1/../../../../arm-none-eabi/lib/thumb/v7e-m/fpv4-sp/hard\libnosys.a
END GROUP

.text           0x00023000    0x1b834
 *(.isr_vector)
 .isr_vector    0x00023000      0x200 examples/dfu/CMakeFiles/dfu_nrf52832_xxAA_s132_5.0.0.dir/__/__/external/nRF5_SDK_14.0.0_3bcc1f7/components/toolchain/gcc/gcc_startup_nrf52.S.obj
                0x00023000                __isr_vector
 *(.text*)
 .text          0x00023200       0x6c c:/a/gcc_arm/6/bin/../lib/gcc/arm-none-eabi/6.3.1/thumb/v7e-m/fpv4-sp/hard/crtbegin.o
 .text          0x0002326c       0x74 c:/a/gcc_arm/6/bin/../lib/gcc/arm-none-eabi/6.3.1/../../../../arm-none-eabi/lib/thumb/v7e-m/fpv4-sp/hard/crt0.o
                0x0002326c                _start
                0x0002326c                _mainCRTStartup
 .text.mesh_evt_handler
                0x000232e0       0xe0 examples/dfu/CMakeFiles/dfu_nrf52832_xxAA_s132_5.0.0.dir/src/main.c.obj
 .text.startup.main
                0x000233c0      0x3bc examples/dfu/CMakeFiles/dfu_nrf52832_xxAA_s132_5.0.0.dir/src/main.c.obj
                0x000233c0                main
 .text.sd_evt_get
                0x0002377c        0x4 examples/dfu/CMakeFiles/dfu_nrf52832_xxAA_s132_5.0.0.dir/__/nrf_mesh_sdk.c.obj
 .text.sd_softdevice_enable
                0x00023780        0x4 examples/dfu/CMakeFiles/dfu_nrf52832_xxAA_s132_5.0.0.dir/__/nrf_mesh_sdk.c.obj
 .text.sd_ble_enable
                0x00023784        0x4 examples/dfu/CMakeFiles/dfu_nrf52832_xxAA_s132_5.0.0.dir/__/nrf_mesh_sdk.c.obj
 .text.sd_ble_evt_get
                0x00023788        0x4 examples/dfu/CMakeFiles/dfu_nrf52832_xxAA_s132_5.0.0.dir/__/nrf_mesh_sdk.c.obj
 .text.mesh_assert_handler
                0x0002378c       0x80 examples/dfu/CMakeFiles/dfu_nrf52832_xxAA_s132_5.0.0.dir/__/nrf_mesh_sdk.c.obj
                0x0002378c                mesh_assert_handler
 .text.softdevice_assert_handler
                0x0002380c       0x94 examples/dfu/CMakeFiles/dfu_nrf52832_xxAA_s132_5.0.0.dir/__/nrf_mesh_sdk.c.obj
                0x0002380c                softdevice_assert_handler
 .text.app_error_handler
                0x000238a0       0x88 examples/dfu/CMakeFiles/dfu_nrf52832_xxAA_s132_5.0.0.dir/__/nrf_mesh_sdk.c.obj
                0x000238a0                app_error_handler
 .text.HardFault_Handler
                0x00023928       0x78 examples/dfu/CMakeFiles/dfu_nrf52832_xxAA_s132_5.0.0.dir/__/nrf_mesh_sdk.c.obj
                0x00023928                HardFault_Handler
 .text.SWI2_EGU2_IRQHandler
                0x000239a0       0x40 examples/dfu/CMakeFiles/dfu_nrf52832_xxAA_s132_5.0.0.dir/__/nrf_mesh_sdk.c.obj
                0x000239a0                SWI2_EGU2_IRQHandler
 .text.mesh_softdevice_enable
                0x000239e0      0x14c examples/dfu/CMakeFiles/dfu_nrf52832_xxAA_s132_5.0.0.dir/__/nrf_mesh_sdk.c.obj
                0x000239e0                mesh_softdevice_enable
 .text.mesh_core_setup
                0x00023b2c      0x1c8 examples/dfu/CMakeFiles/dfu_nrf52832_xxAA_s132_5.0.0.dir/__/nrf_mesh_sdk.c.obj
                0x00023b2c                mesh_core_setup
 .text.add_to_publication_list
                0x00023cf4       0x8c examples/dfu/CMakeFiles/dfu_nrf52832_xxAA_s132_5.0.0.dir/__/__/mesh/access/src/access_publish.c.obj
 .text.schedule_publication_timer
                0x00023d80      0x2f4 examples/dfu/CMakeFiles/dfu_nrf52832_xxAA_s132_5.0.0.dir/__/__/mesh/access/src/access_publish.c.obj
 .text.access_publish_period_set
                0x00024074       0xa4 examples/dfu/CMakeFiles/dfu_nrf52832_xxAA_s132_5.0.0.dir/__/__/mesh/access/src/access_publish.c.obj
                0x00024074                access_publish_period_set
 .text.access_publish_period_get
                0x00024118       0x38 examples/dfu/CMakeFiles/dfu_nrf52832_xxAA_s132_5.0.0.dir/__/__/mesh/access/src/access_publish.c.obj
                0x00024118                access_publish_period_get
 .text.flash_manager_mem_available
                0x00024150        0x4 examples/dfu/CMakeFiles/dfu_nrf52832_xxAA_s132_5.0.0.dir/__/__/mesh/access/src/access.c.obj
 .text.access_flash_config_clear
                0x00024154       0x28 examples/dfu/CMakeFiles/dfu_nrf52832_xxAA_s132_5.0.0.dir/__/__/mesh/access/src/access.c.obj
 .text.access_flash_config_store
                0x0002417c      0x138 examples/dfu/CMakeFiles/dfu_nrf52832_xxAA_s132_5.0.0.dir/__/__/mesh/access/src/access.c.obj
                0x0002417c                access_flash_config_store
 .text.access_clear
                0x000242b4       0x6c examples/dfu/CMakeFiles/dfu_nrf52832_xxAA_s132_5.0.0.dir/__/__/mesh/access/src/access.c.obj
                0x000242b4                access_clear
 .text.access_model_publish_address_set
                0x00024320       0x3c examples/dfu/CMakeFiles/dfu_nrf52832_xxAA_s132_5.0.0.dir/__/__/mesh/access/src/access.c.obj
                0x00024320                access_model_publish_address_set
 .text.access_model_publish_address_get
                0x0002435c       0x2c examples/dfu/CMakeFiles/dfu_nrf52832_xxAA_s132_5.0.0.dir/__/__/mesh/access/src/access.c.obj
                0x0002435c                access_model_publish_address_get
 .text.access_model_publish_period_set
                0x00024388       0x78 examples/dfu/CMakeFiles/dfu_nrf52832_xxAA_s132_5.0.0.dir/__/__/mesh/access/src/access.c.obj
                0x00024388                access_model_publish_period_set
 .text.access_model_publish_period_get
                0x00024400       0x40 examples/dfu/CMakeFiles/dfu_nrf52832_xxAA_s132_5.0.0.dir/__/__/mesh/access/src/access.c.obj
                0x00024400                access_model_publish_period_get
 .text.access_model_subscription_add
                0x00024440       0x60 examples/dfu/CMakeFiles/dfu_nrf52832_xxAA_s132_5.0.0.dir/__/__/mesh/access/src/access.c.obj
                0x00024440                access_model_subscription_add
 .text.access_model_subscription_remove
                0x000244a0       0x60 examples/dfu/CMakeFiles/dfu_nrf52832_xxAA_s132_5.0.0.dir/__/__/mesh/access/src/access.c.obj
                0x000244a0                access_model_subscription_remove
 .text.access_model_subscriptions_get
                0x00024500       0x7c examples/dfu/CMakeFiles/dfu_nrf52832_xxAA_s132_5.0.0.dir/__/__/mesh/access/src/access.c.obj
                0x00024500                access_model_subscriptions_get
 .text.access_model_application_bind
                0x0002457c       0x58 examples/dfu/CMakeFiles/dfu_nrf52832_xxAA_s132_5.0.0.dir/__/__/mesh/access/src/access.c.obj
                0x0002457c                access_model_application_bind
 .text.access_model_application_unbind
                0x000245d4       0x58 examples/dfu/CMakeFiles/dfu_nrf52832_xxAA_s132_5.0.0.dir/__/__/mesh/access/src/access.c.obj
                0x000245d4                access_model_application_unbind
 .text.access_model_applications_get
                0x0002462c       0xfc examples/dfu/CMakeFiles/dfu_nrf52832_xxAA_s132_5.0.0.dir/__/__/mesh/access/src/access.c.obj
                0x0002462c                access_model_applications_get
 .text.access_model_publish_application_set
                0x00024728       0x3c examples/dfu/CMakeFiles/dfu_nrf52832_xxAA_s132_5.0.0.dir/__/__/mesh/access/src/access.c.obj
                0x00024728                access_model_publish_application_set
 .text.access_model_publish_application_get
                0x00024764       0x2c examples/dfu/CMakeFiles/dfu_nrf52832_xxAA_s132_5.0.0.dir/__/__/mesh/access/src/access.c.obj
                0x00024764                access_model_publish_application_get
 .text.access_model_publish_ttl_set
                0x00024790       0x40 examples/dfu/CMakeFiles/dfu_nrf52832_xxAA_s132_5.0.0.dir/__/__/mesh/access/src/access.c.obj
                0x00024790                access_model_publish_ttl_set
 .text.access_model_publish_ttl_get
                0x000247d0       0x2c examples/dfu/CMakeFiles/dfu_nrf52832_xxAA_s132_5.0.0.dir/__/__/mesh/access/src/access.c.obj
                0x000247d0                access_model_publish_ttl_get
 .text.access_element_location_set
                0x000247fc       0x20 examples/dfu/CMakeFiles/dfu_nrf52832_xxAA_s132_5.0.0.dir/__/__/mesh/access/src/access.c.obj
                0x000247fc                access_element_location_set
 .text.access_element_location_get
                0x0002481c       0x18 examples/dfu/CMakeFiles/dfu_nrf52832_xxAA_s132_5.0.0.dir/__/__/mesh/access/src/access.c.obj
                0x0002481c                access_element_location_get
 .text.access_element_sig_model_count_get
                0x00024834       0x18 examples/dfu/CMakeFiles/dfu_nrf52832_xxAA_s132_5.0.0.dir/__/__/mesh/access/src/access.c.obj
                0x00024834                access_element_sig_model_count_get
 .text.access_element_vendor_model_count_get
                0x0002484c       0x18 examples/dfu/CMakeFiles/dfu_nrf52832_xxAA_s132_5.0.0.dir/__/__/mesh/access/src/access.c.obj
                0x0002484c                access_element_vendor_model_count_get
 .text.access_model_id_get
                0x00024864       0x40 examples/dfu/CMakeFiles/dfu_nrf52832_xxAA_s132_5.0.0.dir/__/__/mesh/access/src/access.c.obj
                0x00024864                access_model_id_get
 .text.access_handle_get
                0x000248a4       0x5c examples/dfu/CMakeFiles/dfu_nrf52832_xxAA_s132_5.0.0.dir/__/__/mesh/access/src/access.c.obj
                0x000248a4                access_handle_get
 .text.access_element_models_get
                0x00024900       0x60 examples/dfu/CMakeFiles/dfu_nrf52832_xxAA_s132_5.0.0.dir/__/__/mesh/access/src/access.c.obj
                0x00024900                access_element_models_get
 .text.access_reliable_cancel_all
                0x00024960       0x34 examples/dfu/CMakeFiles/dfu_nrf52832_xxAA_s132_5.0.0.dir/__/__/mesh/access/src/access_reliable.c.obj
                0x00024960                access_reliable_cancel_all
 .text.addr_nonvirtual_to_dsm_entry
                0x00024994       0x48 examples/dfu/CMakeFiles/dfu_nrf52832_xxAA_s132_5.0.0.dir/__/__/mesh/access/src/device_state_manager.c.obj
 .text.addr_nonvirtual_to_flash_entry
                0x000249dc       0x10 examples/dfu/CMakeFiles/dfu_nrf52832_xxAA_s132_5.0.0.dir/__/__/mesh/access/src/device_state_manager.c.obj
 .text.flash_mem_listener_callback
                0x000249ec       0x28 examples/dfu/CMakeFiles/dfu_nrf52832_xxAA_s132_5.0.0.dir/__/__/mesh/access/src/device_state_manager.c.obj
 .text.devkey_to_flash_entry
                0x00024a14       0x28 examples/dfu/CMakeFiles/dfu_nrf52832_xxAA_s132_5.0.0.dir/__/__/mesh/access/src/device_state_manager.c.obj
 .text.appkey_to_flash_entry
                0x00024a3c       0x28 examples/dfu/CMakeFiles/dfu_nrf52832_xxAA_s132_5.0.0.dir/__/__/mesh/access/src/device_state_manager.c.obj
 .text.subnet_to_flash_entry
                0x00024a64       0x24 examples/dfu/CMakeFiles/dfu_nrf52832_xxAA_s132_5.0.0.dir/__/__/mesh/access/src/device_state_manager.c.obj
 .text.addr_virtual_to_flash_entry
                0x00024a88       0x18 examples/dfu/CMakeFiles/dfu_nrf52832_xxAA_s132_5.0.0.dir/__/__/mesh/access/src/device_state_manager.c.obj
 .text.addr_unicast_to_dsm_entry
                0x00024aa0        0xc examples/dfu/CMakeFiles/dfu_nrf52832_xxAA_s132_5.0.0.dir/__/__/mesh/access/src/device_state_manager.c.obj
 .text.addr_unicast_to_flash_entry
                0x00024aac       0x10 examples/dfu/CMakeFiles/dfu_nrf52832_xxAA_s132_5.0.0.dir/__/__/mesh/access/src/device_state_manager.c.obj
 .text.subnet_set
                0x00024abc       0xac examples/dfu/CMakeFiles/dfu_nrf52832_xxAA_s132_5.0.0.dir/__/__/mesh/access/src/device_state_manager.c.obj
 .text.flash_save
                0x00024b68       0xa8 examples/dfu/CMakeFiles/dfu_nrf52832_xxAA_s132_5.0.0.dir/__/__/mesh/access/src/device_state_manager.c.obj
 .text.reset_flash_area
                0x00024c10       0x28 examples/dfu/CMakeFiles/dfu_nrf52832_xxAA_s132_5.0.0.dir/__/__/mesh/access/src/device_state_manager.c.obj
 .text.devkey_to_dsm_entry
                0x00024c38       0x70 examples/dfu/CMakeFiles/dfu_nrf52832_xxAA_s132_5.0.0.dir/__/__/mesh/access/src/device_state_manager.c.obj
 .text.addr_virtual_to_dsm_entry
                0x00024ca8       0x6c examples/dfu/CMakeFiles/dfu_nrf52832_xxAA_s132_5.0.0.dir/__/__/mesh/access/src/device_state_manager.c.obj
 .text.appkey_to_dsm_entry
                0x00024d14       0x94 examples/dfu/CMakeFiles/dfu_nrf52832_xxAA_s132_5.0.0.dir/__/__/mesh/access/src/device_state_manager.c.obj
 .text.subnet_to_dsm_entry
                0x00024da8       0xbc examples/dfu/CMakeFiles/dfu_nrf52832_xxAA_s132_5.0.0.dir/__/__/mesh/access/src/device_state_manager.c.obj
 .text.address_delete_if_unused
                0x00024e64      0x100 examples/dfu/CMakeFiles/dfu_nrf52832_xxAA_s132_5.0.0.dir/__/__/mesh/access/src/device_state_manager.c.obj
 .text.dsm_clear
                0x00024f64      0x10c examples/dfu/CMakeFiles/dfu_nrf52832_xxAA_s132_5.0.0.dir/__/__/mesh/access/src/device_state_manager.c.obj
                0x00024f64                dsm_clear
 .text.dsm_local_unicast_addresses_set
                0x00025070       0x78 examples/dfu/CMakeFiles/dfu_nrf52832_xxAA_s132_5.0.0.dir/__/__/mesh/access/src/device_state_manager.c.obj
                0x00025070                dsm_local_unicast_addresses_set
 .text.dsm_local_unicast_addresses_get
                0x000250e8       0x2c examples/dfu/CMakeFiles/dfu_nrf52832_xxAA_s132_5.0.0.dir/__/__/mesh/access/src/device_state_manager.c.obj
                0x000250e8                dsm_local_unicast_addresses_get
 .text.dsm_address_publish_add
                0x00025114      0x330 examples/dfu/CMakeFiles/dfu_nrf52832_xxAA_s132_5.0.0.dir/__/__/mesh/access/src/device_state_manager.c.obj
                0x00025114                dsm_address_publish_add
 .text.dsm_address_publish_virtual_add
                0x00025444      0x268 examples/dfu/CMakeFiles/dfu_nrf52832_xxAA_s132_5.0.0.dir/__/__/mesh/access/src/device_state_manager.c.obj
                0x00025444                dsm_address_publish_virtual_add
 .text.dsm_address_publish_remove
                0x000256ac       0xbc examples/dfu/CMakeFiles/dfu_nrf52832_xxAA_s132_5.0.0.dir/__/__/mesh/access/src/device_state_manager.c.obj
                0x000256ac                dsm_address_publish_remove
 .text.dsm_address_subscription_add
                0x00025768      0x31c examples/dfu/CMakeFiles/dfu_nrf52832_xxAA_s132_5.0.0.dir/__/__/mesh/access/src/device_state_manager.c.obj
                0x00025768                dsm_address_subscription_add
 .text.dsm_address_subscription_virtual_add
                0x00025a84      0x268 examples/dfu/CMakeFiles/dfu_nrf52832_xxAA_s132_5.0.0.dir/__/__/mesh/access/src/device_state_manager.c.obj
                0x00025a84                dsm_address_subscription_virtual_add
 .text.dsm_address_subscription_get
                0x00025cec       0x5c examples/dfu/CMakeFiles/dfu_nrf52832_xxAA_s132_5.0.0.dir/__/__/mesh/access/src/device_state_manager.c.obj
                0x00025cec                dsm_address_subscription_get
 .text.dsm_address_subscription_remove
                0x00025d48       0x94 examples/dfu/CMakeFiles/dfu_nrf52832_xxAA_s132_5.0.0.dir/__/__/mesh/access/src/device_state_manager.c.obj
                0x00025d48                dsm_address_subscription_remove
 .text.dsm_address_get
                0x00025ddc       0x7c examples/dfu/CMakeFiles/dfu_nrf52832_xxAA_s132_5.0.0.dir/__/__/mesh/access/src/device_state_manager.c.obj
                0x00025ddc                dsm_address_get
 .text.dsm_address_get_all
                0x00025e58      0x258 examples/dfu/CMakeFiles/dfu_nrf52832_xxAA_s132_5.0.0.dir/__/__/mesh/access/src/device_state_manager.c.obj
                0x00025e58                dsm_address_get_all
 .text.dsm_address_handle_get
                0x000260b0      0x3cc examples/dfu/CMakeFiles/dfu_nrf52832_xxAA_s132_5.0.0.dir/__/__/mesh/access/src/device_state_manager.c.obj
                0x000260b0                dsm_address_handle_get
 .text.dsm_subnet_handle_get
                0x0002647c       0x2c examples/dfu/CMakeFiles/dfu_nrf52832_xxAA_s132_5.0.0.dir/__/__/mesh/access/src/device_state_manager.c.obj
                0x0002647c                dsm_subnet_handle_get
 .text.dsm_appkey_handle_get
                0x000264a8       0x40 examples/dfu/CMakeFiles/dfu_nrf52832_xxAA_s132_5.0.0.dir/__/__/mesh/access/src/device_state_manager.c.obj
                0x000264a8                dsm_appkey_handle_get
 .text.dsm_subnet_add
                0x000264e8       0xfc examples/dfu/CMakeFiles/dfu_nrf52832_xxAA_s132_5.0.0.dir/__/__/mesh/access/src/device_state_manager.c.obj
                0x000264e8                dsm_subnet_add
 .text.dsm_subnet_update
                0x000265e4       0x90 examples/dfu/CMakeFiles/dfu_nrf52832_xxAA_s132_5.0.0.dir/__/__/mesh/access/src/device_state_manager.c.obj
                0x000265e4                dsm_subnet_update
 .text.dsm_subnet_delete
                0x00026674      0x160 examples/dfu/CMakeFiles/dfu_nrf52832_xxAA_s132_5.0.0.dir/__/__/mesh/access/src/device_state_manager.c.obj
                0x00026674                dsm_subnet_delete
 .text.dsm_subnet_get_all
                0x000267d4       0x90 examples/dfu/CMakeFiles/dfu_nrf52832_xxAA_s132_5.0.0.dir/__/__/mesh/access/src/device_state_manager.c.obj
                0x000267d4                dsm_subnet_get_all
 .text.dsm_devkey_add
                0x00026864       0xb0 examples/dfu/CMakeFiles/dfu_nrf52832_xxAA_s132_5.0.0.dir/__/__/mesh/access/src/device_state_manager.c.obj
                0x00026864                dsm_devkey_add
 .text.dsm_devkey_delete
                0x00026914       0x6c examples/dfu/CMakeFiles/dfu_nrf52832_xxAA_s132_5.0.0.dir/__/__/mesh/access/src/device_state_manager.c.obj
                0x00026914                dsm_devkey_delete
 .text.dsm_appkey_add
                0x00026980      0x1cc examples/dfu/CMakeFiles/dfu_nrf52832_xxAA_s132_5.0.0.dir/__/__/mesh/access/src/device_state_manager.c.obj
                0x00026980                dsm_appkey_add
 .text.dsm_appkey_update
                0x00026b4c       0xf0 examples/dfu/CMakeFiles/dfu_nrf52832_xxAA_s132_5.0.0.dir/__/__/mesh/access/src/device_state_manager.c.obj
                0x00026b4c                dsm_appkey_update
 .text.dsm_appkey_delete
                0x00026c3c       0x68 examples/dfu/CMakeFiles/dfu_nrf52832_xxAA_s132_5.0.0.dir/__/__/mesh/access/src/device_state_manager.c.obj
                0x00026c3c                dsm_appkey_delete
 .text.dsm_appkey_get_all
                0x00026ca4      0x154 examples/dfu/CMakeFiles/dfu_nrf52832_xxAA_s132_5.0.0.dir/__/__/mesh/access/src/device_state_manager.c.obj
                0x00026ca4                dsm_appkey_get_all
 .text.dsm_tx_secmat_get
                0x00026df8       0xfc examples/dfu/CMakeFiles/dfu_nrf52832_xxAA_s132_5.0.0.dir/__/__/mesh/access/src/device_state_manager.c.obj
                0x00026df8                dsm_tx_secmat_get
 .text.nrf_mesh_net_secmat_next_get
                0x00026ef4       0xfc examples/dfu/CMakeFiles/dfu_nrf52832_xxAA_s132_5.0.0.dir/__/__/mesh/access/src/device_state_manager.c.obj
                0x00026ef4                nrf_mesh_net_secmat_next_get
 .text.nrf_mesh_app_secmat_next_get
                0x00026ff0      0x220 examples/dfu/CMakeFiles/dfu_nrf52832_xxAA_s132_5.0.0.dir/__/__/mesh/access/src/device_state_manager.c.obj
                0x00026ff0                nrf_mesh_app_secmat_next_get
 .text.nrf_mesh_devkey_secmat_get
                0x00027210       0x3c examples/dfu/CMakeFiles/dfu_nrf52832_xxAA_s132_5.0.0.dir/__/__/mesh/access/src/device_state_manager.c.obj
                0x00027210                nrf_mesh_devkey_secmat_get
 .text.nrf_mesh_beacon_info_next_get
                0x0002724c      0x11c examples/dfu/CMakeFiles/dfu_nrf52832_xxAA_s132_5.0.0.dir/__/__/mesh/access/src/device_state_manager.c.obj
                0x0002724c                nrf_mesh_beacon_info_next_get
 .text.nrf_mesh_rx_address_get
                0x00027368      0x558 examples/dfu/CMakeFiles/dfu_nrf52832_xxAA_s132_5.0.0.dir/__/__/mesh/access/src/device_state_manager.c.obj
                0x00027368                nrf_mesh_rx_address_get
 .text.UARTE0_UART0_IRQHandler
                0x000278c0       0x74 examples/dfu/CMakeFiles/dfu_nrf52832_xxAA_s132_5.0.0.dir/__/__/mesh/serial/src/serial_uart.c.obj
                0x000278c0                UARTE0_UART0_IRQHandler
 .text.serial_uart_init
                0x00027934       0xac examples/dfu/CMakeFiles/dfu_nrf52832_xxAA_s132_5.0.0.dir/__/__/mesh/serial/src/serial_uart.c.obj
                0x00027934                serial_uart_init
 .text.serial_uart_process
                0x000279e0       0x74 examples/dfu/CMakeFiles/dfu_nrf52832_xxAA_s132_5.0.0.dir/__/__/mesh/serial/src/serial_uart.c.obj
                0x000279e0                serial_uart_process
 .text.serial_uart_receive_set
                0x00027a54        0xc examples/dfu/CMakeFiles/dfu_nrf52832_xxAA_s132_5.0.0.dir/__/__/mesh/serial/src/serial_uart.c.obj
                0x00027a54                serial_uart_receive_set
 .text.do_transmit
                0x00027a60       0x48 examples/dfu/CMakeFiles/dfu_nrf52832_xxAA_s132_5.0.0.dir/__/__/mesh/serial/src/serial_bearer.c.obj
 .text.char_tx  0x00027aa8       0x94 examples/dfu/CMakeFiles/dfu_nrf52832_xxAA_s132_5.0.0.dir/__/__/mesh/serial/src/serial_bearer.c.obj
 .text.serial_bearer_init
                0x00027b3c       0x80 examples/dfu/CMakeFiles/dfu_nrf52832_xxAA_s132_5.0.0.dir/__/__/mesh/serial/src/serial_bearer.c.obj
                0x00027b3c                serial_bearer_init
 .text.serial_bearer_blocking_buffer_get
                0x00027bbc       0x90 examples/dfu/CMakeFiles/dfu_nrf52832_xxAA_s132_5.0.0.dir/__/__/mesh/serial/src/serial_bearer.c.obj
                0x00027bbc                serial_bearer_blocking_buffer_get
 .text.serial_bearer_tx
                0x00027c4c       0x70 examples/dfu/CMakeFiles/dfu_nrf52832_xxAA_s132_5.0.0.dir/__/__/mesh/serial/src/serial_bearer.c.obj
                0x00027c4c                serial_bearer_tx
 .text.char_rx  0x00027cbc       0xd0 examples/dfu/CMakeFiles/dfu_nrf52832_xxAA_s132_5.0.0.dir/__/__/mesh/serial/src/serial_bearer.c.obj
 .text.serial_bearer_rx_get
                0x00027d8c       0x3c examples/dfu/CMakeFiles/dfu_nrf52832_xxAA_s132_5.0.0.dir/__/__/mesh/serial/src/serial_bearer.c.obj
                0x00027d8c                serial_bearer_rx_get
 .text.serial_handler_common_cmd_rsp_nodata_on_error
                0x00027dc8       0x38 examples/dfu/CMakeFiles/dfu_nrf52832_xxAA_s132_5.0.0.dir/__/__/mesh/serial/src/serial_handler_common.c.obj
                0x00027dc8                serial_handler_common_cmd_rsp_nodata_on_error
 .text.serial_handler_common_rx
                0x00027e00       0x60 examples/dfu/CMakeFiles/dfu_nrf52832_xxAA_s132_5.0.0.dir/__/__/mesh/serial/src/serial_handler_common.c.obj
                0x00027e00                serial_handler_common_rx
 .text.access_flash_store
                0x00027e60       0x18 examples/dfu/CMakeFiles/dfu_nrf52832_xxAA_s132_5.0.0.dir/__/__/mesh/serial/src/serial_handler_access.c.obj
 .text.elem_models_get
                0x00027e78       0x50 examples/dfu/CMakeFiles/dfu_nrf52832_xxAA_s132_5.0.0.dir/__/__/mesh/serial/src/serial_handler_access.c.obj
 .text.handle_get
                0x00027ec8       0x20 examples/dfu/CMakeFiles/dfu_nrf52832_xxAA_s132_5.0.0.dir/__/__/mesh/serial/src/serial_handler_access.c.obj
 .text.model_id_get
                0x00027ee8       0x20 examples/dfu/CMakeFiles/dfu_nrf52832_xxAA_s132_5.0.0.dir/__/__/mesh/serial/src/serial_handler_access.c.obj
 .text.elem_vendor_model_cnt_get
                0x00027f08       0x20 examples/dfu/CMakeFiles/dfu_nrf52832_xxAA_s132_5.0.0.dir/__/__/mesh/serial/src/serial_handler_access.c.obj
 .text.elem_sig_model_cnt_get
                0x00027f28       0x20 examples/dfu/CMakeFiles/dfu_nrf52832_xxAA_s132_5.0.0.dir/__/__/mesh/serial/src/serial_handler_access.c.obj
 .text.elem_loc_get
                0x00027f48       0x20 examples/dfu/CMakeFiles/dfu_nrf52832_xxAA_s132_5.0.0.dir/__/__/mesh/serial/src/serial_handler_access.c.obj
 .text.elem_loc_set
                0x00027f68       0x24 examples/dfu/CMakeFiles/dfu_nrf52832_xxAA_s132_5.0.0.dir/__/__/mesh/serial/src/serial_handler_access.c.obj
 .text.model_pub_ttl_get
                0x00027f8c       0x20 examples/dfu/CMakeFiles/dfu_nrf52832_xxAA_s132_5.0.0.dir/__/__/mesh/serial/src/serial_handler_access.c.obj
 .text.model_pub_ttl_set
                0x00027fac       0x24 examples/dfu/CMakeFiles/dfu_nrf52832_xxAA_s132_5.0.0.dir/__/__/mesh/serial/src/serial_handler_access.c.obj
 .text.model_pub_app_get
                0x00027fd0       0x20 examples/dfu/CMakeFiles/dfu_nrf52832_xxAA_s132_5.0.0.dir/__/__/mesh/serial/src/serial_handler_access.c.obj
 .text.model_pub_app_set
                0x00027ff0       0x24 examples/dfu/CMakeFiles/dfu_nrf52832_xxAA_s132_5.0.0.dir/__/__/mesh/serial/src/serial_handler_access.c.obj
 .text.model_app_get
                0x00028014       0x50 examples/dfu/CMakeFiles/dfu_nrf52832_xxAA_s132_5.0.0.dir/__/__/mesh/serial/src/serial_handler_access.c.obj
 .text.model_app_unbind
                0x00028064       0x24 examples/dfu/CMakeFiles/dfu_nrf52832_xxAA_s132_5.0.0.dir/__/__/mesh/serial/src/serial_handler_access.c.obj
 .text.model_app_bind
                0x00028088       0x24 examples/dfu/CMakeFiles/dfu_nrf52832_xxAA_s132_5.0.0.dir/__/__/mesh/serial/src/serial_handler_access.c.obj
 .text.model_subs_get
                0x000280ac       0x50 examples/dfu/CMakeFiles/dfu_nrf52832_xxAA_s132_5.0.0.dir/__/__/mesh/serial/src/serial_handler_access.c.obj
 .text.model_subs_remove
                0x000280fc       0x24 examples/dfu/CMakeFiles/dfu_nrf52832_xxAA_s132_5.0.0.dir/__/__/mesh/serial/src/serial_handler_access.c.obj
 .text.model_subs_add
                0x00028120       0x24 examples/dfu/CMakeFiles/dfu_nrf52832_xxAA_s132_5.0.0.dir/__/__/mesh/serial/src/serial_handler_access.c.obj
 .text.model_pub_period_get
                0x00028144       0x24 examples/dfu/CMakeFiles/dfu_nrf52832_xxAA_s132_5.0.0.dir/__/__/mesh/serial/src/serial_handler_access.c.obj
 .text.model_pub_period_set
                0x00028168       0x24 examples/dfu/CMakeFiles/dfu_nrf52832_xxAA_s132_5.0.0.dir/__/__/mesh/serial/src/serial_handler_access.c.obj
 .text.model_pub_addr_get
                0x0002818c       0x20 examples/dfu/CMakeFiles/dfu_nrf52832_xxAA_s132_5.0.0.dir/__/__/mesh/serial/src/serial_handler_access.c.obj
 .text.model_pub_addr_set
                0x000281ac       0x24 examples/dfu/CMakeFiles/dfu_nrf52832_xxAA_s132_5.0.0.dir/__/__/mesh/serial/src/serial_handler_access.c.obj
 .text.serial_handler_access_rx
                0x000281d0       0x30 examples/dfu/CMakeFiles/dfu_nrf52832_xxAA_s132_5.0.0.dir/__/__/mesh/serial/src/serial_handler_access.c.obj
                0x000281d0                serial_handler_access_rx
 .text.serial_handler_config_rx
                0x00028200       0xf8 examples/dfu/CMakeFiles/dfu_nrf52832_xxAA_s132_5.0.0.dir/__/__/mesh/serial/src/serial_handler_config.c.obj
                0x00028200                serial_handler_config_rx
 .text.serial_handler_openmesh_rx
                0x000282f8       0x38 examples/dfu/CMakeFiles/dfu_nrf52832_xxAA_s132_5.0.0.dir/__/__/mesh/serial/src/serial_handler_openmesh.c.obj
                0x000282f8                serial_handler_openmesh_rx
 .text.serial_process_cmd
                0x00028330      0x218 examples/dfu/CMakeFiles/dfu_nrf52832_xxAA_s132_5.0.0.dir/__/__/mesh/serial/src/serial.c.obj
 .text.serial_init
                0x00028548       0x1c examples/dfu/CMakeFiles/dfu_nrf52832_xxAA_s132_5.0.0.dir/__/__/mesh/serial/src/serial.c.obj
                0x00028548                serial_init
 .text.serial_start
                0x00028564      0x134 examples/dfu/CMakeFiles/dfu_nrf52832_xxAA_s132_5.0.0.dir/__/__/mesh/serial/src/serial.c.obj
                0x00028564                serial_start
 .text.serial_packet_buffer_get
                0x00028698       0x14 examples/dfu/CMakeFiles/dfu_nrf52832_xxAA_s132_5.0.0.dir/__/__/mesh/serial/src/serial.c.obj
                0x00028698                serial_packet_buffer_get
 .text.serial_tx
                0x000286ac       0x34 examples/dfu/CMakeFiles/dfu_nrf52832_xxAA_s132_5.0.0.dir/__/__/mesh/serial/src/serial.c.obj
                0x000286ac                serial_tx
 .text.serial_process
                0x000286e0       0x34 examples/dfu/CMakeFiles/dfu_nrf52832_xxAA_s132_5.0.0.dir/__/__/mesh/serial/src/serial.c.obj
                0x000286e0                serial_process
 .text.serial_translate_error
                0x00028714       0x70 examples/dfu/CMakeFiles/dfu_nrf52832_xxAA_s132_5.0.0.dir/__/__/mesh/serial/src/serial.c.obj
                0x00028714                serial_translate_error
 .text.serial_state_get
                0x00028784        0xc examples/dfu/CMakeFiles/dfu_nrf52832_xxAA_s132_5.0.0.dir/__/__/mesh/serial/src/serial.c.obj
                0x00028784                serial_state_get
 .text.serial_cmd_rsp_send
                0x00028790       0x8c examples/dfu/CMakeFiles/dfu_nrf52832_xxAA_s132_5.0.0.dir/__/__/mesh/serial/src/serial.c.obj
                0x00028790                serial_cmd_rsp_send
 .text.serial_handler_prov_evt_in
                0x0002881c      0x3a8 examples/dfu/CMakeFiles/dfu_nrf52832_xxAA_s132_5.0.0.dir/__/__/mesh/serial/src/serial_handler_prov.c.obj
 .text.serial_handler_prov_init
                0x00028bc4       0x98 examples/dfu/CMakeFiles/dfu_nrf52832_xxAA_s132_5.0.0.dir/__/__/mesh/serial/src/serial_handler_prov.c.obj
                0x00028bc4                serial_handler_prov_init
 .text.serial_handler_prov_pkt_in
                0x00028c5c      0x264 examples/dfu/CMakeFiles/dfu_nrf52832_xxAA_s132_5.0.0.dir/__/__/mesh/serial/src/serial_handler_prov.c.obj
                0x00028c5c                serial_handler_prov_pkt_in
 .text.serial_handler_mesh_evt_handle
                0x00028ec0      0x204 examples/dfu/CMakeFiles/dfu_nrf52832_xxAA_s132_5.0.0.dir/__/__/mesh/serial/src/serial_handler_dfu.c.obj
 .text.serial_handler_dfu_init
                0x000290c4       0x14 examples/dfu/CMakeFiles/dfu_nrf52832_xxAA_s132_5.0.0.dir/__/__/mesh/serial/src/serial_handler_dfu.c.obj
                0x000290c4                serial_handler_dfu_init
 .text.serial_handler_dfu_rx
                0x000290d8      0x178 examples/dfu/CMakeFiles/dfu_nrf52832_xxAA_s132_5.0.0.dir/__/__/mesh/serial/src/serial_handler_dfu.c.obj
                0x000290d8                serial_handler_dfu_rx
 .text.serial_handler_mesh_evt_handle
                0x00029250      0x168 examples/dfu/CMakeFiles/dfu_nrf52832_xxAA_s132_5.0.0.dir/__/__/mesh/serial/src/serial_handler_mesh.c.obj
 .text.handle_cmd_clear
                0x000293b8       0x20 examples/dfu/CMakeFiles/dfu_nrf52832_xxAA_s132_5.0.0.dir/__/__/mesh/serial/src/serial_handler_mesh.c.obj
 .text.handle_cmd_packet_send
                0x000293d8       0x90 examples/dfu/CMakeFiles/dfu_nrf52832_xxAA_s132_5.0.0.dir/__/__/mesh/serial/src/serial_handler_mesh.c.obj
 .text.handle_cmd_addr_virtual_count_max_get
                0x00029468       0x1c examples/dfu/CMakeFiles/dfu_nrf52832_xxAA_s132_5.0.0.dir/__/__/mesh/serial/src/serial_handler_mesh.c.obj
 .text.handle_cmd_addr_nonvirtual_count_max_get
                0x00029484       0x1c examples/dfu/CMakeFiles/dfu_nrf52832_xxAA_s132_5.0.0.dir/__/__/mesh/serial/src/serial_handler_mesh.c.obj
 .text.handle_cmd_addr_local_unicast_get
                0x000294a0       0x24 examples/dfu/CMakeFiles/dfu_nrf52832_xxAA_s132_5.0.0.dir/__/__/mesh/serial/src/serial_handler_mesh.c.obj
 .text.handle_cmd_devkey_count_max_get
                0x000294c4       0x1c examples/dfu/CMakeFiles/dfu_nrf52832_xxAA_s132_5.0.0.dir/__/__/mesh/serial/src/serial_handler_mesh.c.obj
 .text.handle_cmd_subnet_count_max_get
                0x000294e0       0x1c examples/dfu/CMakeFiles/dfu_nrf52832_xxAA_s132_5.0.0.dir/__/__/mesh/serial/src/serial_handler_mesh.c.obj
 .text.handle_cmd_addr_get_all
                0x000294fc       0x28 examples/dfu/CMakeFiles/dfu_nrf52832_xxAA_s132_5.0.0.dir/__/__/mesh/serial/src/serial_handler_mesh.c.obj
 .text.handle_cmd_addr_get
                0x00029524       0x64 examples/dfu/CMakeFiles/dfu_nrf52832_xxAA_s132_5.0.0.dir/__/__/mesh/serial/src/serial_handler_mesh.c.obj
 .text.handle_cmd_addr_publication_remove
                0x00029588       0x28 examples/dfu/CMakeFiles/dfu_nrf52832_xxAA_s132_5.0.0.dir/__/__/mesh/serial/src/serial_handler_mesh.c.obj
 .text.handle_cmd_addr_publication_add_virtual
                0x000295b0       0x28 examples/dfu/CMakeFiles/dfu_nrf52832_xxAA_s132_5.0.0.dir/__/__/mesh/serial/src/serial_handler_mesh.c.obj
 .text.handle_cmd_addr_publication_add
                0x000295d8       0x28 examples/dfu/CMakeFiles/dfu_nrf52832_xxAA_s132_5.0.0.dir/__/__/mesh/serial/src/serial_handler_mesh.c.obj
 .text.handle_cmd_addr_subscription_remove
                0x00029600       0x28 examples/dfu/CMakeFiles/dfu_nrf52832_xxAA_s132_5.0.0.dir/__/__/mesh/serial/src/serial_handler_mesh.c.obj
 .text.handle_cmd_addr_subscription_add_virtual
                0x00029628       0x28 examples/dfu/CMakeFiles/dfu_nrf52832_xxAA_s132_5.0.0.dir/__/__/mesh/serial/src/serial_handler_mesh.c.obj
 .text.handle_cmd_addr_subscription_add
                0x00029650       0x28 examples/dfu/CMakeFiles/dfu_nrf52832_xxAA_s132_5.0.0.dir/__/__/mesh/serial/src/serial_handler_mesh.c.obj
 .text.handle_cmd_addr_local_unicast_set
                0x00029678       0x24 examples/dfu/CMakeFiles/dfu_nrf52832_xxAA_s132_5.0.0.dir/__/__/mesh/serial/src/serial_handler_mesh.c.obj
 .text.handle_cmd_devkey_delete
                0x0002969c       0x28 examples/dfu/CMakeFiles/dfu_nrf52832_xxAA_s132_5.0.0.dir/__/__/mesh/serial/src/serial_handler_mesh.c.obj
 .text.handle_cmd_devkey_add
                0x000296c4       0x24 examples/dfu/CMakeFiles/dfu_nrf52832_xxAA_s132_5.0.0.dir/__/__/mesh/serial/src/serial_handler_mesh.c.obj
 .text.handle_cmd_appkey_get_all
                0x000296e8       0x40 examples/dfu/CMakeFiles/dfu_nrf52832_xxAA_s132_5.0.0.dir/__/__/mesh/serial/src/serial_handler_mesh.c.obj
 .text.handle_cmd_appkey_delete
                0x00029728       0x28 examples/dfu/CMakeFiles/dfu_nrf52832_xxAA_s132_5.0.0.dir/__/__/mesh/serial/src/serial_handler_mesh.c.obj
 .text.handle_cmd_appkey_update
                0x00029750       0x2c examples/dfu/CMakeFiles/dfu_nrf52832_xxAA_s132_5.0.0.dir/__/__/mesh/serial/src/serial_handler_mesh.c.obj
 .text.handle_cmd_appkey_add
                0x0002977c       0x2c examples/dfu/CMakeFiles/dfu_nrf52832_xxAA_s132_5.0.0.dir/__/__/mesh/serial/src/serial_handler_mesh.c.obj
 .text.handle_cmd_subnet_get_all
                0x000297a8       0x38 examples/dfu/CMakeFiles/dfu_nrf52832_xxAA_s132_5.0.0.dir/__/__/mesh/serial/src/serial_handler_mesh.c.obj
 .text.handle_cmd_subnet_delete
                0x000297e0       0x28 examples/dfu/CMakeFiles/dfu_nrf52832_xxAA_s132_5.0.0.dir/__/__/mesh/serial/src/serial_handler_mesh.c.obj
 .text.handle_cmd_subnet_update
                0x00029808       0x2c examples/dfu/CMakeFiles/dfu_nrf52832_xxAA_s132_5.0.0.dir/__/__/mesh/serial/src/serial_handler_mesh.c.obj
 .text.handle_cmd_subnet_add
                0x00029834       0x2c examples/dfu/CMakeFiles/dfu_nrf52832_xxAA_s132_5.0.0.dir/__/__/mesh/serial/src/serial_handler_mesh.c.obj
 .text.handle_cmd_disable
                0x00029860       0x18 examples/dfu/CMakeFiles/dfu_nrf52832_xxAA_s132_5.0.0.dir/__/__/mesh/serial/src/serial_handler_mesh.c.obj
 .text.handle_cmd_enable
                0x00029878       0x18 examples/dfu/CMakeFiles/dfu_nrf52832_xxAA_s132_5.0.0.dir/__/__/mesh/serial/src/serial_handler_mesh.c.obj
 .text.handle_cmd_appkey_count_max_get
                0x00029890       0x1c examples/dfu/CMakeFiles/dfu_nrf52832_xxAA_s132_5.0.0.dir/__/__/mesh/serial/src/serial_handler_mesh.c.obj
 .text.serial_handler_mesh_init
                0x000298ac       0x14 examples/dfu/CMakeFiles/dfu_nrf52832_xxAA_s132_5.0.0.dir/__/__/mesh/serial/src/serial_handler_mesh.c.obj
                0x000298ac                serial_handler_mesh_init
 .text.serial_handler_mesh_rx
                0x000298c0       0x8c examples/dfu/CMakeFiles/dfu_nrf52832_xxAA_s132_5.0.0.dir/__/__/mesh/serial/src/serial_handler_mesh.c.obj
                0x000298c0                serial_handler_mesh_rx
 .text.model_command
                0x0002994c       0x8c examples/dfu/CMakeFiles/dfu_nrf52832_xxAA_s132_5.0.0.dir/__/__/mesh/serial/src/serial_handler_models.c.obj
 .text.models_get
                0x000299d8       0x74 examples/dfu/CMakeFiles/dfu_nrf52832_xxAA_s132_5.0.0.dir/__/__/mesh/serial/src/serial_handler_models.c.obj
 .text.model_init
                0x00029a4c       0x64 examples/dfu/CMakeFiles/dfu_nrf52832_xxAA_s132_5.0.0.dir/__/__/mesh/serial/src/serial_handler_models.c.obj
 .text.serial_handler_models_rx
                0x00029ab0       0x30 examples/dfu/CMakeFiles/dfu_nrf52832_xxAA_s132_5.0.0.dir/__/__/mesh/serial/src/serial_handler_models.c.obj
                0x00029ab0                serial_handler_models_rx
 .text.handle_cmd_device_beacon_params_get
                0x00029ae0       0xb0 examples/dfu/CMakeFiles/dfu_nrf52832_xxAA_s132_5.0.0.dir/__/__/mesh/serial/src/serial_handler_device.c.obj
 .text.handle_cmd_device_fw_info_get
                0x00029b90        0xc examples/dfu/CMakeFiles/dfu_nrf52832_xxAA_s132_5.0.0.dir/__/__/mesh/serial/src/serial_handler_device.c.obj
 .text.handle_cmd_device_serial_version_get
                0x00029b9c       0x1c examples/dfu/CMakeFiles/dfu_nrf52832_xxAA_s132_5.0.0.dir/__/__/mesh/serial/src/serial_handler_device.c.obj
 .text.handle_cmd_device_beacon_params_set
                0x00029bb8       0x8c examples/dfu/CMakeFiles/dfu_nrf52832_xxAA_s132_5.0.0.dir/__/__/mesh/serial/src/serial_handler_device.c.obj
 .text.handle_cmd_device_beacon_stop
                0x00029c44       0x48 examples/dfu/CMakeFiles/dfu_nrf52832_xxAA_s132_5.0.0.dir/__/__/mesh/serial/src/serial_handler_device.c.obj
 .text.handle_cmd_device_beacon_start
                0x00029c8c       0x70 examples/dfu/CMakeFiles/dfu_nrf52832_xxAA_s132_5.0.0.dir/__/__/mesh/serial/src/serial_handler_device.c.obj
 .text.handle_cmd_device_radio_reset
                0x00029cfc       0x1c examples/dfu/CMakeFiles/dfu_nrf52832_xxAA_s132_5.0.0.dir/__/__/mesh/serial/src/serial_handler_device.c.obj
 .text.handle_cmd_device_internal_events_report
                0x00029d18       0x20 examples/dfu/CMakeFiles/dfu_nrf52832_xxAA_s132_5.0.0.dir/__/__/mesh/serial/src/serial_handler_device.c.obj
 .text.event_report_cb
                0x00029d38       0x5c examples/dfu/CMakeFiles/dfu_nrf52832_xxAA_s132_5.0.0.dir/__/__/mesh/serial/src/serial_handler_device.c.obj
 .text.handle_cmd_device_echo
                0x00029d94       0x40 examples/dfu/CMakeFiles/dfu_nrf52832_xxAA_s132_5.0.0.dir/__/__/mesh/serial/src/serial_handler_device.c.obj
 .text.serial_handler_device_init
                0x00029dd4       0x14 examples/dfu/CMakeFiles/dfu_nrf52832_xxAA_s132_5.0.0.dir/__/__/mesh/serial/src/serial_handler_device.c.obj
                0x00029dd4                serial_handler_device_init
 .text.serial_handler_device_rx
                0x00029de8       0x30 examples/dfu/CMakeFiles/dfu_nrf52832_xxAA_s132_5.0.0.dir/__/__/mesh/serial/src/serial_handler_device.c.obj
                0x00029de8                serial_handler_device_rx
 .text.nrf_mesh_serial_init
                0x00029e18       0x3c examples/dfu/CMakeFiles/dfu_nrf52832_xxAA_s132_5.0.0.dir/__/__/mesh/serial/src/nrf_mesh_serial.c.obj
                0x00029e18                nrf_mesh_serial_init
 .text.nrf_mesh_serial_enable
                0x00029e54        0x4 examples/dfu/CMakeFiles/dfu_nrf52832_xxAA_s132_5.0.0.dir/__/__/mesh/serial/src/nrf_mesh_serial.c.obj
                0x00029e54                nrf_mesh_serial_enable
 .text.serial_handler_app_cb_set
                0x00029e58        0xc examples/dfu/CMakeFiles/dfu_nrf52832_xxAA_s132_5.0.0.dir/__/__/mesh/serial/src/serial_handler_app.c.obj
                0x00029e58                serial_handler_app_cb_set
 .text.serial_handler_app_rx
                0x00029e64       0x30 examples/dfu/CMakeFiles/dfu_nrf52832_xxAA_s132_5.0.0.dir/__/__/mesh/serial/src/serial_handler_app.c.obj
                0x00029e64                serial_handler_app_rx
 .text.prov_provisioner_cb_link_closed
                0x00029e94       0x2c examples/dfu/CMakeFiles/dfu_nrf52832_xxAA_s132_5.0.0.dir/__/__/mesh/prov/src/prov_provisioner.c.obj
 .text.prov_provisioner_cb_link_established
                0x00029ec0       0x44 examples/dfu/CMakeFiles/dfu_nrf52832_xxAA_s132_5.0.0.dir/__/__/mesh/prov/src/prov_provisioner.c.obj
 .text.prov_provisioner_cb_ack_received
                0x00029f04       0x4c examples/dfu/CMakeFiles/dfu_nrf52832_xxAA_s132_5.0.0.dir/__/__/mesh/prov/src/prov_provisioner.c.obj
 .text.prov_provisioner_pkt_in
                0x00029f50      0x350 examples/dfu/CMakeFiles/dfu_nrf52832_xxAA_s132_5.0.0.dir/__/__/mesh/prov/src/prov_provisioner.c.obj
 .text.prov_provisioner_provision
                0x0002a2a0       0x4c examples/dfu/CMakeFiles/dfu_nrf52832_xxAA_s132_5.0.0.dir/__/__/mesh/prov/src/prov_provisioner.c.obj
                0x0002a2a0                prov_provisioner_provision
 .text.prov_provisioner_oob_use
                0x0002a2ec       0xb0 examples/dfu/CMakeFiles/dfu_nrf52832_xxAA_s132_5.0.0.dir/__/__/mesh/prov/src/prov_provisioner.c.obj
                0x0002a2ec                prov_provisioner_oob_use
 .text.prov_provisioner_auth_data
                0x0002a39c       0x64 examples/dfu/CMakeFiles/dfu_nrf52832_xxAA_s132_5.0.0.dir/__/__/mesh/prov/src/prov_provisioner.c.obj
                0x0002a39c                prov_provisioner_auth_data
 .text.prov_provisioner_shared_secret
                0x0002a400       0xcc examples/dfu/CMakeFiles/dfu_nrf52832_xxAA_s132_5.0.0.dir/__/__/mesh/prov/src/prov_provisioner.c.obj
                0x0002a400                prov_provisioner_shared_secret
 .text.prov_provisionee_cb_link_established
                0x0002a4cc       0x24 examples/dfu/CMakeFiles/dfu_nrf52832_xxAA_s132_5.0.0.dir/__/__/mesh/prov/src/prov_provisionee.c.obj
 .text.prov_provisionee_cb_link_closed
                0x0002a4f0       0x80 examples/dfu/CMakeFiles/dfu_nrf52832_xxAA_s132_5.0.0.dir/__/__/mesh/prov/src/prov_provisionee.c.obj
 .text.start_authentication
                0x0002a570      0x128 examples/dfu/CMakeFiles/dfu_nrf52832_xxAA_s132_5.0.0.dir/__/__/mesh/prov/src/prov_provisionee.c.obj
 .text.prov_provisionee_cb_ack_received
                0x0002a698      0x11c examples/dfu/CMakeFiles/dfu_nrf52832_xxAA_s132_5.0.0.dir/__/__/mesh/prov/src/prov_provisionee.c.obj
 .text.prov_provisionee_pkt_in
                0x0002a7b4      0x30c examples/dfu/CMakeFiles/dfu_nrf52832_xxAA_s132_5.0.0.dir/__/__/mesh/prov/src/prov_provisionee.c.obj
 .text.prov_provisionee_init
                0x0002aac0       0x40 examples/dfu/CMakeFiles/dfu_nrf52832_xxAA_s132_5.0.0.dir/__/__/mesh/prov/src/prov_provisionee.c.obj
                0x0002aac0                prov_provisionee_init
 .text.prov_provisionee_auth_data
                0x0002ab00       0x84 examples/dfu/CMakeFiles/dfu_nrf52832_xxAA_s132_5.0.0.dir/__/__/mesh/prov/src/prov_provisionee.c.obj
                0x0002ab00                prov_provisionee_auth_data
 .text.prov_provisionee_shared_secret
                0x0002ab84       0xb4 examples/dfu/CMakeFiles/dfu_nrf52832_xxAA_s132_5.0.0.dir/__/__/mesh/prov/src/prov_provisionee.c.obj
                0x0002ab84                prov_provisionee_shared_secret
 .text.nrf_mesh_prov_init
                0x0002ac38       0x24 examples/dfu/CMakeFiles/dfu_nrf52832_xxAA_s132_5.0.0.dir/__/__/mesh/prov/src/nrf_mesh_prov.c.obj
                0x0002ac38                nrf_mesh_prov_init
 .text.nrf_mesh_prov_generate_keys
                0x0002ac5c        0x4 examples/dfu/CMakeFiles/dfu_nrf52832_xxAA_s132_5.0.0.dir/__/__/mesh/prov/src/nrf_mesh_prov.c.obj
                0x0002ac5c                nrf_mesh_prov_generate_keys
 .text.nrf_mesh_prov_listen
                0x0002ac60       0x28 examples/dfu/CMakeFiles/dfu_nrf52832_xxAA_s132_5.0.0.dir/__/__/mesh/prov/src/nrf_mesh_prov.c.obj
                0x0002ac60                nrf_mesh_prov_listen
 .text.nrf_mesh_prov_provision
                0x0002ac88       0x50 examples/dfu/CMakeFiles/dfu_nrf52832_xxAA_s132_5.0.0.dir/__/__/mesh/prov/src/nrf_mesh_prov.c.obj
                0x0002ac88                nrf_mesh_prov_provision
 .text.nrf_mesh_prov_oob_use
                0x0002acd8       0x10 examples/dfu/CMakeFiles/dfu_nrf52832_xxAA_s132_5.0.0.dir/__/__/mesh/prov/src/nrf_mesh_prov.c.obj
                0x0002acd8                nrf_mesh_prov_oob_use
 .text.nrf_mesh_prov_auth_data_provide
                0x0002ace8       0x10 examples/dfu/CMakeFiles/dfu_nrf52832_xxAA_s132_5.0.0.dir/__/__/mesh/prov/src/nrf_mesh_prov.c.obj
                0x0002ace8                nrf_mesh_prov_auth_data_provide
 .text.nrf_mesh_prov_shared_secret_provide
                0x0002acf8       0x10 examples/dfu/CMakeFiles/dfu_nrf52832_xxAA_s132_5.0.0.dir/__/__/mesh/prov/src/nrf_mesh_prov.c.obj
                0x0002acf8                nrf_mesh_prov_shared_secret_provide
 .text.prov_packet_length_valid
                0x0002ad08       0x20 examples/dfu/CMakeFiles/dfu_nrf52832_xxAA_s132_5.0.0.dir/__/__/mesh/prov/src/provisioning.c.obj
                0x0002ad08                prov_packet_length_valid
 .text.prov_init
                0x0002ad28       0x34 examples/dfu/CMakeFiles/dfu_nrf52832_xxAA_s132_5.0.0.dir/__/__/mesh/prov/src/provisioning.c.obj
                0x0002ad28                prov_init
 .text.prov_listen_start
                0x0002ad5c       0x14 examples/dfu/CMakeFiles/dfu_nrf52832_xxAA_s132_5.0.0.dir/__/__/mesh/prov/src/provisioning.c.obj
                0x0002ad5c                prov_listen_start
 .text.prov_link_open
                0x0002ad70       0x14 examples/dfu/CMakeFiles/dfu_nrf52832_xxAA_s132_5.0.0.dir/__/__/mesh/prov/src/provisioning.c.obj
                0x0002ad70                prov_link_open
 .text.prov_link_close
                0x0002ad84        0x8 examples/dfu/CMakeFiles/dfu_nrf52832_xxAA_s132_5.0.0.dir/__/__/mesh/prov/src/provisioning.c.obj
                0x0002ad84                prov_link_close
 .text.prov_tx_invite
                0x0002ad8c       0x44 examples/dfu/CMakeFiles/dfu_nrf52832_xxAA_s132_5.0.0.dir/__/__/mesh/prov/src/provisioning.c.obj
                0x0002ad8c                prov_tx_invite
 .text.prov_tx_capabilities
                0x0002add0       0x4c examples/dfu/CMakeFiles/dfu_nrf52832_xxAA_s132_5.0.0.dir/__/__/mesh/prov/src/provisioning.c.obj
                0x0002add0                prov_tx_capabilities
 .text.prov_tx_start
                0x0002ae1c       0x4c examples/dfu/CMakeFiles/dfu_nrf52832_xxAA_s132_5.0.0.dir/__/__/mesh/prov/src/provisioning.c.obj
                0x0002ae1c                prov_tx_start
 .text.prov_tx_public_key
                0x0002ae68       0x40 examples/dfu/CMakeFiles/dfu_nrf52832_xxAA_s132_5.0.0.dir/__/__/mesh/prov/src/provisioning.c.obj
                0x0002ae68                prov_tx_public_key
 .text.prov_tx_input_complete
                0x0002aea8       0x34 examples/dfu/CMakeFiles/dfu_nrf52832_xxAA_s132_5.0.0.dir/__/__/mesh/prov/src/provisioning.c.obj
                0x0002aea8                prov_tx_input_complete
 .text.prov_tx_confirmation
                0x0002aedc       0x40 examples/dfu/CMakeFiles/dfu_nrf52832_xxAA_s132_5.0.0.dir/__/__/mesh/prov/src/provisioning.c.obj
                0x0002aedc                prov_tx_confirmation
 .text.prov_tx_random
                0x0002af1c       0x40 examples/dfu/CMakeFiles/dfu_nrf52832_xxAA_s132_5.0.0.dir/__/__/mesh/prov/src/provisioning.c.obj
                0x0002af1c                prov_tx_random
 .text.prov_tx_complete
                0x0002af5c       0x34 examples/dfu/CMakeFiles/dfu_nrf52832_xxAA_s132_5.0.0.dir/__/__/mesh/prov/src/provisioning.c.obj
                0x0002af5c                prov_tx_complete
 .text.prov_tx_failed
                0x0002af90       0x38 examples/dfu/CMakeFiles/dfu_nrf52832_xxAA_s132_5.0.0.dir/__/__/mesh/prov/src/provisioning.c.obj
                0x0002af90                prov_tx_failed
 .text.prov_tx_data
                0x0002afc8       0x48 examples/dfu/CMakeFiles/dfu_nrf52832_xxAA_s132_5.0.0.dir/__/__/mesh/prov/src/provisioning.c.obj
                0x0002afc8                prov_tx_data
 .text.prov_cb_link_opened
                0x0002b010        0x8 examples/dfu/CMakeFiles/dfu_nrf52832_xxAA_s132_5.0.0.dir/__/__/mesh/prov/src/provisioning.c.obj
                0x0002b010                prov_cb_link_opened
 .text.prov_cb_link_closed
                0x0002b018        0x8 examples/dfu/CMakeFiles/dfu_nrf52832_xxAA_s132_5.0.0.dir/__/__/mesh/prov/src/provisioning.c.obj
                0x0002b018                prov_cb_link_closed
 .text.prov_cb_pkt_in
                0x0002b020       0x88 examples/dfu/CMakeFiles/dfu_nrf52832_xxAA_s132_5.0.0.dir/__/__/mesh/prov/src/provisioning.c.obj
                0x0002b020                prov_cb_pkt_in
 .text.prov_cb_ack_in
                0x0002b0a8        0x8 examples/dfu/CMakeFiles/dfu_nrf52832_xxAA_s132_5.0.0.dir/__/__/mesh/prov/src/provisioning.c.obj
                0x0002b0a8                prov_cb_ack_in
 .text.prov_beacon_unprov_build
                0x0002b0b0       0x54 examples/dfu/CMakeFiles/dfu_nrf52832_xxAA_s132_5.0.0.dir/__/__/mesh/prov/src/prov_beacon.c.obj
                0x0002b0b0                prov_beacon_unprov_build
 .text.prov_beacon_unprov_packet_in
                0x0002b104       0xbc examples/dfu/CMakeFiles/dfu_nrf52832_xxAA_s132_5.0.0.dir/__/__/mesh/prov/src/prov_beacon.c.obj
                0x0002b104                prov_beacon_unprov_packet_in
 .text.prov_utils_use_ecdh_offloading
                0x0002b1c0        0xc examples/dfu/CMakeFiles/dfu_nrf52832_xxAA_s132_5.0.0.dir/__/__/mesh/prov/src/prov_utils.c.obj
                0x0002b1c0                prov_utils_use_ecdh_offloading
 .text.prov_utils_authentication_values_derive
                0x0002b1cc       0xac examples/dfu/CMakeFiles/dfu_nrf52832_xxAA_s132_5.0.0.dir/__/__/mesh/prov/src/prov_utils.c.obj
                0x0002b1cc                prov_utils_authentication_values_derive
 .text.prov_utils_keys_generate
                0x0002b278       0x20 examples/dfu/CMakeFiles/dfu_nrf52832_xxAA_s132_5.0.0.dir/__/__/mesh/prov/src/prov_utils.c.obj
                0x0002b278                prov_utils_keys_generate
 .text.prov_utils_derive_keys
                0x0002b298       0xb4 examples/dfu/CMakeFiles/dfu_nrf52832_xxAA_s132_5.0.0.dir/__/__/mesh/prov/src/prov_utils.c.obj
                0x0002b298                prov_utils_derive_keys
 .text.prov_utils_calculate_shared_secret
                0x0002b34c       0x38 examples/dfu/CMakeFiles/dfu_nrf52832_xxAA_s132_5.0.0.dir/__/__/mesh/prov/src/prov_utils.c.obj
                0x0002b34c                prov_utils_calculate_shared_secret
 .text.prov_utils_generate_oob_data
                0x0002b384      0x1c8 examples/dfu/CMakeFiles/dfu_nrf52832_xxAA_s132_5.0.0.dir/__/__/mesh/prov/src/prov_utils.c.obj
                0x0002b384                prov_utils_generate_oob_data
 .text.prov_utils_confirmation_check
                0x0002b54c       0x5c examples/dfu/CMakeFiles/dfu_nrf52832_xxAA_s132_5.0.0.dir/__/__/mesh/prov/src/prov_utils.c.obj
                0x0002b54c                prov_utils_confirmation_check
 .text.remove_active_bearer
                0x0002b5a8       0x70 examples/dfu/CMakeFiles/dfu_nrf52832_xxAA_s132_5.0.0.dir/__/__/mesh/prov/src/prov_bearer_adv.c.obj
 .text.prov_bearer_adv_listen_stop
                0x0002b618       0x3c examples/dfu/CMakeFiles/dfu_nrf52832_xxAA_s132_5.0.0.dir/__/__/mesh/prov/src/prov_bearer_adv.c.obj
 .text.link_timeout_cb
                0x0002b654        0x8 examples/dfu/CMakeFiles/dfu_nrf52832_xxAA_s132_5.0.0.dir/__/__/mesh/prov/src/prov_bearer_adv.c.obj
 .text.tx_complete_cb
                0x0002b65c       0x20 examples/dfu/CMakeFiles/dfu_nrf52832_xxAA_s132_5.0.0.dir/__/__/mesh/prov/src/prov_bearer_adv.c.obj
 .text.prov_bearer_adv_listen
                0x0002b67c      0x160 examples/dfu/CMakeFiles/dfu_nrf52832_xxAA_s132_5.0.0.dir/__/__/mesh/prov/src/prov_bearer_adv.c.obj
 .text.prov_buffer_tx
                0x0002b7dc      0x218 examples/dfu/CMakeFiles/dfu_nrf52832_xxAA_s132_5.0.0.dir/__/__/mesh/prov/src/prov_bearer_adv.c.obj
 .text.prov_bearer_adv_tx
                0x0002b9f4       0xd4 examples/dfu/CMakeFiles/dfu_nrf52832_xxAA_s132_5.0.0.dir/__/__/mesh/prov/src/prov_bearer_adv.c.obj
 .text.send_link_ack
                0x0002bac8       0x90 examples/dfu/CMakeFiles/dfu_nrf52832_xxAA_s132_5.0.0.dir/__/__/mesh/prov/src/prov_bearer_adv.c.obj
 .text.tx_retry_cb
                0x0002bb58      0x148 examples/dfu/CMakeFiles/dfu_nrf52832_xxAA_s132_5.0.0.dir/__/__/mesh/prov/src/prov_bearer_adv.c.obj
 .text.send_transaction_ack
                0x0002bca0       0x78 examples/dfu/CMakeFiles/dfu_nrf52832_xxAA_s132_5.0.0.dir/__/__/mesh/prov/src/prov_bearer_adv.c.obj
 .text.prov_buffer_rx
                0x0002bd18       0xa4 examples/dfu/CMakeFiles/dfu_nrf52832_xxAA_s132_5.0.0.dir/__/__/mesh/prov/src/prov_bearer_adv.c.obj
 .text.async_process
                0x0002bdbc       0xb4 examples/dfu/CMakeFiles/dfu_nrf52832_xxAA_s132_5.0.0.dir/__/__/mesh/prov/src/prov_bearer_adv.c.obj
 .text.prov_bearer_adv_link_open
                0x0002be70      0x1c4 examples/dfu/CMakeFiles/dfu_nrf52832_xxAA_s132_5.0.0.dir/__/__/mesh/prov/src/prov_bearer_adv.c.obj
 .text.prov_bearer_adv_link_close
                0x0002c034      0x154 examples/dfu/CMakeFiles/dfu_nrf52832_xxAA_s132_5.0.0.dir/__/__/mesh/prov/src/prov_bearer_adv.c.obj
 .text.prov_bearer_adv_interface_get
                0x0002c188       0x28 examples/dfu/CMakeFiles/dfu_nrf52832_xxAA_s132_5.0.0.dir/__/__/mesh/prov/src/prov_bearer_adv.c.obj
                0x0002c188                prov_bearer_adv_interface_get
 .text.prov_bearer_adv_packet_in
                0x0002c1b0      0x9d0 examples/dfu/CMakeFiles/dfu_nrf52832_xxAA_s132_5.0.0.dir/__/__/mesh/prov/src/prov_bearer_adv.c.obj
                0x0002c1b0                prov_bearer_adv_packet_in
 .text.tx_complete_cb
                0x0002cb80        0x4 examples/dfu/CMakeFiles/dfu_nrf52832_xxAA_s132_5.0.0.dir/__/__/mesh/dfu/src/nrf_mesh_dfu.c.obj
 .text.nrf_mesh_dfu_cmd_send.part.3
                0x0002cb84       0x5c examples/dfu/CMakeFiles/dfu_nrf52832_xxAA_s132_5.0.0.dir/__/__/mesh/dfu/src/nrf_mesh_dfu.c.obj
 .text.tx_timeout
                0x0002cbe0      0x1fc examples/dfu/CMakeFiles/dfu_nrf52832_xxAA_s132_5.0.0.dir/__/__/mesh/dfu/src/nrf_mesh_dfu.c.obj
 .text.abort_timeout
                0x0002cddc      0x148 examples/dfu/CMakeFiles/dfu_nrf52832_xxAA_s132_5.0.0.dir/__/__/mesh/dfu/src/nrf_mesh_dfu.c.obj
 .text.timer_timeout
                0x0002cf24       0xf4 examples/dfu/CMakeFiles/dfu_nrf52832_xxAA_s132_5.0.0.dir/__/__/mesh/dfu/src/nrf_mesh_dfu.c.obj
 .text.flash_op_complete
                0x0002d018      0x210 examples/dfu/CMakeFiles/dfu_nrf52832_xxAA_s132_5.0.0.dir/__/__/mesh/dfu/src/nrf_mesh_dfu.c.obj
 .text.dfu_evt_handler
                0x0002d228      0xa8c examples/dfu/CMakeFiles/dfu_nrf52832_xxAA_s132_5.0.0.dir/__/__/mesh/dfu/src/nrf_mesh_dfu.c.obj
 .text.nrf_mesh_dfu_jump_to_bootloader
                0x0002dcb4       0x40 examples/dfu/CMakeFiles/dfu_nrf52832_xxAA_s132_5.0.0.dir/__/__/mesh/dfu/src/nrf_mesh_dfu.c.obj
                0x0002dcb4                nrf_mesh_dfu_jump_to_bootloader
 .text.nrf_mesh_dfu_request
                0x0002dcf4       0xe0 examples/dfu/CMakeFiles/dfu_nrf52832_xxAA_s132_5.0.0.dir/__/__/mesh/dfu/src/nrf_mesh_dfu.c.obj
                0x0002dcf4                nrf_mesh_dfu_request
 .text.nrf_mesh_dfu_relay
                0x0002ddd4      0x10c examples/dfu/CMakeFiles/dfu_nrf52832_xxAA_s132_5.0.0.dir/__/__/mesh/dfu/src/nrf_mesh_dfu.c.obj
                0x0002ddd4                nrf_mesh_dfu_relay
 .text.nrf_mesh_dfu_abort
                0x0002dee0       0xc4 examples/dfu/CMakeFiles/dfu_nrf52832_xxAA_s132_5.0.0.dir/__/__/mesh/dfu/src/nrf_mesh_dfu.c.obj
                0x0002dee0                nrf_mesh_dfu_abort
 .text.nrf_mesh_dfu_bank_info_get
                0x0002dfa4       0xc0 examples/dfu/CMakeFiles/dfu_nrf52832_xxAA_s132_5.0.0.dir/__/__/mesh/dfu/src/nrf_mesh_dfu.c.obj
                0x0002dfa4                nrf_mesh_dfu_bank_info_get
 .text.nrf_mesh_dfu_bank_flash
                0x0002e064       0xb4 examples/dfu/CMakeFiles/dfu_nrf52832_xxAA_s132_5.0.0.dir/__/__/mesh/dfu/src/nrf_mesh_dfu.c.obj
                0x0002e064                nrf_mesh_dfu_bank_flash
 .text.nrf_mesh_dfu_state_get
                0x0002e118       0x4c examples/dfu/CMakeFiles/dfu_nrf52832_xxAA_s132_5.0.0.dir/__/__/mesh/dfu/src/nrf_mesh_dfu.c.obj
                0x0002e118                nrf_mesh_dfu_state_get
 .text.nrf_mesh_dfu_cmd_send
                0x0002e164       0xa8 examples/dfu/CMakeFiles/dfu_nrf52832_xxAA_s132_5.0.0.dir/__/__/mesh/dfu/src/nrf_mesh_dfu.c.obj
                0x0002e164                nrf_mesh_dfu_cmd_send
 .text.nrf_mesh_dfu_init
                0x0002e20c      0x228 examples/dfu/CMakeFiles/dfu_nrf52832_xxAA_s132_5.0.0.dir/__/__/mesh/dfu/src/nrf_mesh_dfu.c.obj
                0x0002e20c                nrf_mesh_dfu_init
 .text.nrf_mesh_dfu_rx
                0x0002e434      0x224 examples/dfu/CMakeFiles/dfu_nrf52832_xxAA_s132_5.0.0.dir/__/__/mesh/dfu/src/nrf_mesh_dfu.c.obj
                0x0002e434                nrf_mesh_dfu_rx
 .text.SystemInit
                0x0002e658      0x390 examples/dfu/CMakeFiles/dfu_nrf52832_xxAA_s132_5.0.0.dir/__/__/external/nRF5_SDK_14.0.0_3bcc1f7/components/toolchain/system_nrf52.c.obj
                0x0002e658                SystemInit
 .text          0x0002e9e8       0x3c examples/dfu/CMakeFiles/dfu_nrf52832_xxAA_s132_5.0.0.dir/__/__/external/nRF5_SDK_14.0.0_3bcc1f7/components/toolchain/gcc/gcc_startup_nrf52.S.obj
                0x0002e9e8                Reset_Handler
                0x0002ea10                NMI_Handler
                0x0002ea14                MemoryManagement_Handler
                0x0002ea16                BusFault_Handler
                0x0002ea18                UsageFault_Handler
                0x0002ea1a                SVC_Handler
                0x0002ea1c                DebugMon_Handler
                0x0002ea1e                PendSV_Handler
                0x0002ea20                SysTick_Handler
                0x0002ea22                POWER_CLOCK_IRQHandler
                0x0002ea22                RADIO_IRQHandler
                0x0002ea22                PDM_IRQHandler
                0x0002ea22                RTC0_IRQHandler
                0x0002ea22                TIMER3_IRQHandler
                0x0002ea22                FPU_IRQHandler
                0x0002ea22                SPIM0_SPIS0_TWIM0_TWIS0_SPI0_TWI0_IRQHandler
                0x0002ea22                GPIOTE_IRQHandler
                0x0002ea22                TEMP_IRQHandler
                0x0002ea22                I2S_IRQHandler
                0x0002ea22                SWI4_EGU4_IRQHandler
                0x0002ea22                TIMER0_IRQHandler
                0x0002ea22                PWM1_IRQHandler
                0x0002ea22                TIMER1_IRQHandler
                0x0002ea22                PWM2_IRQHandler
                0x0002ea22                ECB_IRQHandler
                0x0002ea22                SPIM1_SPIS1_TWIM1_TWIS1_SPI1_TWI1_IRQHandler
                0x0002ea22                Default_Handler
                0x0002ea22                SAADC_IRQHandler
                0x0002ea22                CCM_AAR_IRQHandler
                0x0002ea22                WDT_IRQHandler
                0x0002ea22                TIMER4_IRQHandler
                0x0002ea22                SWI5_EGU5_IRQHandler
                0x0002ea22                RNG_IRQHandler
                0x0002ea22                RTC2_IRQHandler
                0x0002ea22                PWM0_IRQHandler
                0x0002ea22                SWI3_EGU3_IRQHandler
                0x0002ea22                RTC1_IRQHandler
                0x0002ea22                SWI1_EGU1_IRQHandler
                0x0002ea22                SPIM2_SPIS2_SPI2_IRQHandler
                0x0002ea22                NFCT_IRQHandler
                0x0002ea22                SWI0_EGU0_IRQHandler
                0x0002ea22                MWU_IRQHandler
                0x0002ea22                TIMER2_IRQHandler
                0x0002ea22                COMP_LPCOMP_IRQHandler
 .text.internal_event_init
                0x0002ea24       0x48 mesh/core/libmesh_core_nrf52832_xxAA.a(internal_event.c.obj)
                0x0002ea24                internal_event_init
 .text.internal_event_push
                0x0002ea6c       0x28 mesh/core/libmesh_core_nrf52832_xxAA.a(internal_event.c.obj)
                0x0002ea6c                internal_event_push
 .text.nrf_mesh_configure_device_uuid_set
                0x0002ea94       0x10 mesh/core/libmesh_core_nrf52832_xxAA.a(nrf_mesh_configure.c.obj)
                0x0002ea94                nrf_mesh_configure_device_uuid_set
 .text.nrf_mesh_configure_device_uuid_reset
                0x0002eaa4       0x2c mesh/core/libmesh_core_nrf52832_xxAA.a(nrf_mesh_configure.c.obj)
                0x0002eaa4                nrf_mesh_configure_device_uuid_reset
 .text.nrf_mesh_configure_device_uuid_get
                0x0002ead0        0x8 mesh/core/libmesh_core_nrf52832_xxAA.a(nrf_mesh_configure.c.obj)
                0x0002ead0                nrf_mesh_configure_device_uuid_get
 .text.event_handle
                0x0002ead8       0x34 mesh/core/libmesh_core_nrf52832_xxAA.a(event.c.obj)
                0x0002ead8                event_handle
 .text.event_handler_add
                0x0002eb0c       0x90 mesh/core/libmesh_core_nrf52832_xxAA.a(event.c.obj)
                0x0002eb0c                event_handler_add
 .text.packet_buffer_max_packet_len_get
                0x0002eb9c       0x3c mesh/core/libmesh_core_nrf52832_xxAA.a(packet_buffer.c.obj)
                0x0002eb9c                packet_buffer_max_packet_len_get
 .text.packet_buffer_init
                0x0002ebd8       0xec mesh/core/libmesh_core_nrf52832_xxAA.a(packet_buffer.c.obj)
                0x0002ebd8                packet_buffer_init
 .text.packet_buffer_flush
                0x0002ecc4       0xd4 mesh/core/libmesh_core_nrf52832_xxAA.a(packet_buffer.c.obj)
                0x0002ecc4                packet_buffer_flush
 .text.packet_buffer_reserve
                0x0002ed98      0x150 mesh/core/libmesh_core_nrf52832_xxAA.a(packet_buffer.c.obj)
                0x0002ed98                packet_buffer_reserve
 .text.packet_buffer_commit
                0x0002eee8      0x144 mesh/core/libmesh_core_nrf52832_xxAA.a(packet_buffer.c.obj)
                0x0002eee8                packet_buffer_commit
 .text.packet_buffer_pop
                0x0002f02c       0xc8 mesh/core/libmesh_core_nrf52832_xxAA.a(packet_buffer.c.obj)
                0x0002f02c                packet_buffer_pop
 .text.packet_buffer_can_pop
                0x0002f0f4       0x84 mesh/core/libmesh_core_nrf52832_xxAA.a(packet_buffer.c.obj)
                0x0002f0f4                packet_buffer_can_pop
 .text.packet_buffer_packets_ready_to_pop
                0x0002f178       0xb4 mesh/core/libmesh_core_nrf52832_xxAA.a(packet_buffer.c.obj)
                0x0002f178                packet_buffer_packets_ready_to_pop
 .text.packet_buffer_free
                0x0002f22c       0xf0 mesh/core/libmesh_core_nrf52832_xxAA.a(packet_buffer.c.obj)
                0x0002f22c                packet_buffer_free
 .text.fifo_init
                0x0002f31c       0x5c mesh/core/libmesh_core_nrf52832_xxAA.a(fifo.c.obj)
                0x0002f31c                fifo_init
 .text.fifo_push
                0x0002f378       0x54 mesh/core/libmesh_core_nrf52832_xxAA.a(fifo.c.obj)
                0x0002f378                fifo_push
 .text.fifo_pop
                0x0002f3cc       0x58 mesh/core/libmesh_core_nrf52832_xxAA.a(fifo.c.obj)
                0x0002f3cc                fifo_pop
 .text.flash_mem_available
                0x0002f424       0x28 mesh/core/libmesh_core_nrf52832_xxAA.a(net_state.c.obj)
 .text.flash_store_iv_index
                0x0002f44c       0x38 mesh/core/libmesh_core_nrf52832_xxAA.a(net_state.c.obj)
 .text.init_flash_storage
                0x0002f484       0x44 mesh/core/libmesh_core_nrf52832_xxAA.a(net_state.c.obj)
 .text.net_state_reset
                0x0002f4c8       0x3c mesh/core/libmesh_core_nrf52832_xxAA.a(net_state.c.obj)
                0x0002f4c8                net_state_reset
 .text.flash_write_complete
                0x0002f504       0x7c mesh/core/libmesh_core_nrf52832_xxAA.a(net_state.c.obj)
 .text.seqnum_block_allocate
                0x0002f580       0x4c mesh/core/libmesh_core_nrf52832_xxAA.a(net_state.c.obj)
 .text.iv_update_trigger_if_pending
                0x0002f5cc      0x17c mesh/core/libmesh_core_nrf52832_xxAA.a(net_state.c.obj)
 .text.iv_update_timer_handler
                0x0002f748       0x80 mesh/core/libmesh_core_nrf52832_xxAA.a(net_state.c.obj)
 .text.net_state_recover_from_flash
                0x0002f7c8      0x10c mesh/core/libmesh_core_nrf52832_xxAA.a(net_state.c.obj)
                0x0002f7c8                net_state_recover_from_flash
 .text.net_state_init
                0x0002f8d4       0x80 mesh/core/libmesh_core_nrf52832_xxAA.a(net_state.c.obj)
                0x0002f8d4                net_state_init
 .text.net_state_seqnum_alloc
                0x0002f954       0xd4 mesh/core/libmesh_core_nrf52832_xxAA.a(net_state.c.obj)
                0x0002f954                net_state_seqnum_alloc
 .text.net_state_iv_index_lock
                0x0002fa28       0x50 mesh/core/libmesh_core_nrf52832_xxAA.a(net_state.c.obj)
                0x0002fa28                net_state_iv_index_lock
 .text.net_state_beacon_received
                0x0002fa78       0xec mesh/core/libmesh_core_nrf52832_xxAA.a(net_state.c.obj)
                0x0002fa78                net_state_beacon_received
 .text.net_state_beacon_iv_index_get
                0x0002fb64        0xc mesh/core/libmesh_core_nrf52832_xxAA.a(net_state.c.obj)
                0x0002fb64                net_state_beacon_iv_index_get
 .text.net_state_tx_iv_index_get
                0x0002fb70       0x14 mesh/core/libmesh_core_nrf52832_xxAA.a(net_state.c.obj)
                0x0002fb70                net_state_tx_iv_index_get
 .text.net_state_rx_iv_index_get
                0x0002fb84       0x18 mesh/core/libmesh_core_nrf52832_xxAA.a(net_state.c.obj)
                0x0002fb84                net_state_rx_iv_index_get
 .text.net_state_iv_update_get
                0x0002fb9c        0xc mesh/core/libmesh_core_nrf52832_xxAA.a(net_state.c.obj)
                0x0002fb9c                net_state_iv_update_get
 .text.send_end_events
                0x0002fba8       0x8c mesh/core/libmesh_core_nrf52832_xxAA.a(mesh_flash.c.obj)
 .text.flash_op_schedule
                0x0002fc34       0xac mesh/core/libmesh_core_nrf52832_xxAA.a(mesh_flash.c.obj)
 .text.flash_op_start
                0x0002fce0      0x1c4 mesh/core/libmesh_core_nrf52832_xxAA.a(mesh_flash.c.obj)
 .text.mesh_flash_init
                0x0002fea4       0x88 mesh/core/libmesh_core_nrf52832_xxAA.a(mesh_flash.c.obj)
                0x0002fea4                mesh_flash_init
 .text.mesh_flash_user_callback_set
                0x0002ff2c       0x2c mesh/core/libmesh_core_nrf52832_xxAA.a(mesh_flash.c.obj)
                0x0002ff2c                mesh_flash_user_callback_set
 .text.mesh_flash_op_push
                0x0002ff58      0x140 mesh/core/libmesh_core_nrf52832_xxAA.a(mesh_flash.c.obj)
                0x0002ff58                mesh_flash_op_push
 .text.mesh_flash_in_progress
                0x00030098       0x34 mesh/core/libmesh_core_nrf52832_xxAA.a(mesh_flash.c.obj)
                0x00030098                mesh_flash_in_progress
 .text.mesh_flash_set_suspended
                0x000300cc       0x90 mesh/core/libmesh_core_nrf52832_xxAA.a(mesh_flash.c.obj)
                0x000300cc                mesh_flash_set_suspended
 .text.nrf_mesh_address_type_get
                0x0003015c       0x10 mesh/core/libmesh_core_nrf52832_xxAA.a(nrf_mesh_utils.c.obj)
                0x0003015c                nrf_mesh_address_type_get
 .text.sd_softdevice_is_enabled
                0x0003016c        0x4 mesh/core/libmesh_core_nrf52832_xxAA.a(nrf_mesh.c.obj)
 .text.nrf_mesh_init
                0x00030170       0xb8 mesh/core/libmesh_core_nrf52832_xxAA.a(nrf_mesh.c.obj)
                0x00030170                nrf_mesh_init
 .text.nrf_mesh_enable
                0x00030228       0x50 mesh/core/libmesh_core_nrf52832_xxAA.a(nrf_mesh.c.obj)
                0x00030228                nrf_mesh_enable
 .text.nrf_mesh_disable
                0x00030278       0x2c mesh/core/libmesh_core_nrf52832_xxAA.a(nrf_mesh.c.obj)
                0x00030278                nrf_mesh_disable
 .text.nrf_mesh_packet_send
                0x000302a4        0x4 mesh/core/libmesh_core_nrf52832_xxAA.a(nrf_mesh.c.obj)
                0x000302a4                nrf_mesh_packet_send
 .text.nrf_mesh_process
                0x000302a8      0x21c mesh/core/libmesh_core_nrf52832_xxAA.a(nrf_mesh.c.obj)
                0x000302a8                nrf_mesh_process
 .text.nrf_mesh_on_ble_evt
                0x000304c4        0x4 mesh/core/libmesh_core_nrf52832_xxAA.a(nrf_mesh.c.obj)
                0x000304c4                nrf_mesh_on_ble_evt
 .text.nrf_mesh_on_sd_evt
                0x000304c8        0xc mesh/core/libmesh_core_nrf52832_xxAA.a(nrf_mesh.c.obj)
                0x000304c8                nrf_mesh_on_sd_evt
 .text.nrf_mesh_evt_handler_add
                0x000304d4        0x4 mesh/core/libmesh_core_nrf52832_xxAA.a(nrf_mesh.c.obj)
                0x000304d4                nrf_mesh_evt_handler_add
 .text.sd_power_reset_reason_clr
                0x000304d8        0x4 mesh/core/libmesh_core_nrf52832_xxAA.a(hal.c.obj)
 .text.sd_power_gpregret_set
                0x000304dc        0x4 mesh/core/libmesh_core_nrf52832_xxAA.a(hal.c.obj)
 .text.hal_device_reset
                0x000304e0       0x38 mesh/core/libmesh_core_nrf52832_xxAA.a(hal.c.obj)
                0x000304e0                hal_device_reset
 .text.hal_lfclk_ppm_get
                0x00030518       0x14 mesh/core/libmesh_core_nrf52832_xxAA.a(hal.c.obj)
                0x00030518                hal_lfclk_ppm_get
 .text.timer_cb
                0x0003052c        0xc mesh/core/libmesh_core_nrf52832_xxAA.a(timer_scheduler.c.obj)
 .text.add_evt.constprop.0
                0x00030538       0x78 mesh/core/libmesh_core_nrf52832_xxAA.a(timer_scheduler.c.obj)
 .text.flag_event_cb
                0x000305b0      0x2e4 mesh/core/libmesh_core_nrf52832_xxAA.a(timer_scheduler.c.obj)
 .text.timer_sch_init
                0x00030894       0x24 mesh/core/libmesh_core_nrf52832_xxAA.a(timer_scheduler.c.obj)
                0x00030894                timer_sch_init
 .text.timer_sch_schedule
                0x000308b8       0x84 mesh/core/libmesh_core_nrf52832_xxAA.a(timer_scheduler.c.obj)
                0x000308b8                timer_sch_schedule
 .text.timer_sch_abort
                0x0003093c       0x68 mesh/core/libmesh_core_nrf52832_xxAA.a(timer_scheduler.c.obj)
                0x0003093c                timer_sch_abort
 .text.timer_sch_reschedule
                0x000309a4       0xa4 mesh/core/libmesh_core_nrf52832_xxAA.a(timer_scheduler.c.obj)
                0x000309a4                timer_sch_reschedule
 .text.timer_event_handler
                0x00030a48       0xd8 mesh/core/libmesh_core_nrf52832_xxAA.a(timer.c.obj)
                0x00030a48                timer_event_handler
 .text.timer_order_cb
                0x00030b20       0x98 mesh/core/libmesh_core_nrf52832_xxAA.a(timer.c.obj)
                0x00030b20                timer_order_cb
 .text.timer_now
                0x00030bb8       0x58 mesh/core/libmesh_core_nrf52832_xxAA.a(timer.c.obj)
                0x00030bb8                timer_now
 .text.timer_on_ts_begin
                0x00030c10      0x110 mesh/core/libmesh_core_nrf52832_xxAA.a(timer.c.obj)
                0x00030c10                timer_on_ts_begin
 .text.timer_on_ts_end
                0x00030d20       0x78 mesh/core/libmesh_core_nrf52832_xxAA.a(timer.c.obj)
                0x00030d20                timer_on_ts_end
 .text.timer_cb
                0x00030d98       0x10 mesh/core/libmesh_core_nrf52832_xxAA.a(ticker.c.obj)
 .text.ticker_init
                0x00030da8       0x3c mesh/core/libmesh_core_nrf52832_xxAA.a(ticker.c.obj)
                0x00030da8                ticker_init
 .text.sd_rand_application_bytes_available_get
                0x00030de4        0x4 mesh/core/libmesh_core_nrf52832_xxAA.a(rand.c.obj)
 .text.sd_rand_application_vector_get
                0x00030de8        0x4 mesh/core/libmesh_core_nrf52832_xxAA.a(rand.c.obj)
 .text.rand_prng_seed
                0x00030dec       0x6c mesh/core/libmesh_core_nrf52832_xxAA.a(rand.c.obj)
                0x00030dec                rand_prng_seed
 .text.rand_prng_get
                0x00030e58       0x28 mesh/core/libmesh_core_nrf52832_xxAA.a(rand.c.obj)
                0x00030e58                rand_prng_get
 .text.rand_hw_rng_get
                0x00030e80       0x58 mesh/core/libmesh_core_nrf52832_xxAA.a(rand.c.obj)
                0x00030e80                rand_hw_rng_get
 .text.sd_radio_session_open
                0x00030ed8        0x4 mesh/core/libmesh_core_nrf52832_xxAA.a(timeslot.c.obj)
 .text.sd_radio_session_close
                0x00030edc        0x4 mesh/core/libmesh_core_nrf52832_xxAA.a(timeslot.c.obj)
 .text.sd_radio_request
                0x00030ee0        0x4 mesh/core/libmesh_core_nrf52832_xxAA.a(timeslot.c.obj)
 .text.end_timer_handler
                0x00030ee4       0x2c mesh/core/libmesh_core_nrf52832_xxAA.a(timeslot.c.obj)
 .text.radio_signal_callback
                0x00030f10      0x324 mesh/core/libmesh_core_nrf52832_xxAA.a(timeslot.c.obj)
 .text.timeslot_sd_event_handler
                0x00031234       0x50 mesh/core/libmesh_core_nrf52832_xxAA.a(timeslot.c.obj)
                0x00031234                timeslot_sd_event_handler
 .text.timeslot_init
                0x00031284       0x4c mesh/core/libmesh_core_nrf52832_xxAA.a(timeslot.c.obj)
                0x00031284                timeslot_init
 .text.timeslot_start
                0x000312d0       0x20 mesh/core/libmesh_core_nrf52832_xxAA.a(timeslot.c.obj)
                0x000312d0                timeslot_start
 .text.timeslot_stop
                0x000312f0       0x30 mesh/core/libmesh_core_nrf52832_xxAA.a(timeslot.c.obj)
                0x000312f0                timeslot_stop
 .text.timeslot_state_lock
                0x00031320       0x44 mesh/core/libmesh_core_nrf52832_xxAA.a(timeslot.c.obj)
                0x00031320                timeslot_state_lock
 .text.timeslot_end_is_pending
                0x00031364       0x24 mesh/core/libmesh_core_nrf52832_xxAA.a(timeslot.c.obj)
                0x00031364                timeslot_end_is_pending
 .text.timeslot_start_time_get
                0x00031388        0xc mesh/core/libmesh_core_nrf52832_xxAA.a(timeslot.c.obj)
                0x00031388                timeslot_start_time_get
 .text.timeslot_remaining_time_get
                0x00031394       0x40 mesh/core/libmesh_core_nrf52832_xxAA.a(timeslot.c.obj)
                0x00031394                timeslot_remaining_time_get
 .text.timeslot_is_in_cb
                0x000313d4        0xc mesh/core/libmesh_core_nrf52832_xxAA.a(timeslot.c.obj)
                0x000313d4                timeslot_is_in_cb
 .text.timeslot_trigger
                0x000313e0       0x24 mesh/core/libmesh_core_nrf52832_xxAA.a(timeslot.c.obj)
                0x000313e0                timeslot_trigger
 .text.QDEC_IRQHandler
                0x00031404       0xe0 mesh/core/libmesh_core_nrf52832_xxAA.a(bearer_event.c.obj)
                0x00031404                QDEC_IRQHandler
 .text.bearer_event_init
                0x000314e4       0x3c mesh/core/libmesh_core_nrf52832_xxAA.a(bearer_event.c.obj)
                0x000314e4                bearer_event_init
 .text.bearer_event_generic_post
                0x00031520       0x50 mesh/core/libmesh_core_nrf52832_xxAA.a(bearer_event.c.obj)
                0x00031520                bearer_event_generic_post
 .text.bearer_event_timer_post
                0x00031570       0x50 mesh/core/libmesh_core_nrf52832_xxAA.a(bearer_event.c.obj)
                0x00031570                bearer_event_timer_post
 .text.bearer_event_critical_section_begin
                0x000315c0       0x44 mesh/core/libmesh_core_nrf52832_xxAA.a(bearer_event.c.obj)
                0x000315c0                bearer_event_critical_section_begin
 .text.bearer_event_critical_section_end
                0x00031604       0x44 mesh/core/libmesh_core_nrf52832_xxAA.a(bearer_event.c.obj)
                0x00031604                bearer_event_critical_section_end
 .text.bearer_event_flag_add
                0x00031648       0x50 mesh/core/libmesh_core_nrf52832_xxAA.a(bearer_event.c.obj)
                0x00031648                bearer_event_flag_add
 .text.bearer_event_flag_set
                0x00031698       0x58 mesh/core/libmesh_core_nrf52832_xxAA.a(bearer_event.c.obj)
                0x00031698                bearer_event_flag_set
 .text.bearer_event_sequential_add
                0x000316f0       0x48 mesh/core/libmesh_core_nrf52832_xxAA.a(bearer_event.c.obj)
                0x000316f0                bearer_event_sequential_add
 .text.bearer_event_sequential_post
                0x00031738       0x6c mesh/core/libmesh_core_nrf52832_xxAA.a(bearer_event.c.obj)
                0x00031738                bearer_event_sequential_post
 .text.bearer_event_sequential_pending
                0x000317a4       0x20 mesh/core/libmesh_core_nrf52832_xxAA.a(bearer_event.c.obj)
                0x000317a4                bearer_event_sequential_pending
 .text.enc_aes_encrypt
                0x000317c4        0x4 mesh/core/libmesh_core_nrf52832_xxAA.a(enc.c.obj)
                0x000317c4                enc_aes_encrypt
 .text.enc_aes_cmac
                0x000317c8        0x4 mesh/core/libmesh_core_nrf52832_xxAA.a(enc.c.obj)
                0x000317c8                enc_aes_cmac
 .text.enc_aes_ccm_encrypt
                0x000317cc        0x4 mesh/core/libmesh_core_nrf52832_xxAA.a(enc.c.obj)
                0x000317cc                enc_aes_ccm_encrypt
 .text.enc_aes_ccm_decrypt
                0x000317d0        0x4 mesh/core/libmesh_core_nrf52832_xxAA.a(enc.c.obj)
                0x000317d0                enc_aes_ccm_decrypt
 .text.enc_nonce_generate
                0x000317d4       0xc4 mesh/core/libmesh_core_nrf52832_xxAA.a(enc.c.obj)
                0x000317d4                enc_nonce_generate
 .text.enc_s1   0x00031898       0x40 mesh/core/libmesh_core_nrf52832_xxAA.a(enc.c.obj)
                0x00031898                enc_s1
 .text.enc_k1   0x000318d8       0x50 mesh/core/libmesh_core_nrf52832_xxAA.a(enc.c.obj)
                0x000318d8                enc_k1
 .text.enc_k2   0x00031928       0xec mesh/core/libmesh_core_nrf52832_xxAA.a(enc.c.obj)
                0x00031928                enc_k2
 .text.enc_k3   0x00031a14       0x74 mesh/core/libmesh_core_nrf52832_xxAA.a(enc.c.obj)
                0x00031a14                enc_k3
 .text.enc_k4   0x00031a88       0x6c mesh/core/libmesh_core_nrf52832_xxAA.a(enc.c.obj)
                0x00031a88                enc_k4
 .text.network_init
                0x00031af4       0x28 mesh/core/libmesh_core_nrf52832_xxAA.a(network.c.obj)
                0x00031af4                network_init
 .text.network_packet_alloc
                0x00031b1c      0x1a4 mesh/core/libmesh_core_nrf52832_xxAA.a(network.c.obj)
                0x00031b1c                network_packet_alloc
 .text.network_packet_send
                0x00031cc0      0x1ec mesh/core/libmesh_core_nrf52832_xxAA.a(network.c.obj)
                0x00031cc0                network_packet_send
 .text.network_packet_in
                0x00031eac      0x6c8 mesh/core/libmesh_core_nrf52832_xxAA.a(network.c.obj)
                0x00031eac                network_packet_in
 .text.msq_init
                0x00032574       0x98 mesh/core/libmesh_core_nrf52832_xxAA.a(msqueue.c.obj)
                0x00032574                msq_init
 .text.msq_get  0x0003260c       0x68 mesh/core/libmesh_core_nrf52832_xxAA.a(msqueue.c.obj)
                0x0003260c                msq_get
 .text.msq_move
                0x00032674       0x60 mesh/core/libmesh_core_nrf52832_xxAA.a(msqueue.c.obj)
                0x00032674                msq_move
 .text.msq_available
                0x000326d4       0x58 mesh/core/libmesh_core_nrf52832_xxAA.a(msqueue.c.obj)
                0x000326d4                msq_available
 .text.nrf_mesh_keygen_aid
                0x0003272c       0x18 mesh/core/libmesh_core_nrf52832_xxAA.a(nrf_mesh_keygen.c.obj)
                0x0003272c                nrf_mesh_keygen_aid
 .text.nrf_mesh_keygen_network_secmat
                0x00032744       0x24 mesh/core/libmesh_core_nrf52832_xxAA.a(nrf_mesh_keygen.c.obj)
                0x00032744                nrf_mesh_keygen_network_secmat
 .text.nrf_mesh_keygen_beacon_secmat
                0x00032768       0x50 mesh/core/libmesh_core_nrf52832_xxAA.a(nrf_mesh_keygen.c.obj)
                0x00032768                nrf_mesh_keygen_beacon_secmat
 .text.nrf_mesh_keygen_virtual_address
                0x000327b8       0x50 mesh/core/libmesh_core_nrf52832_xxAA.a(nrf_mesh_keygen.c.obj)
                0x000327b8                nrf_mesh_keygen_virtual_address
 .text.log_callback_rtt
                0x00032808       0x2c mesh/core/libmesh_core_nrf52832_xxAA.a(log.c.obj)
                0x00032808                log_callback_rtt
 .text.log_init
                0x00032834       0x20 mesh/core/libmesh_core_nrf52832_xxAA.a(log.c.obj)
                0x00032834                log_init
 .text.log_printf
                0x00032854       0x20 mesh/core/libmesh_core_nrf52832_xxAA.a(log.c.obj)
                0x00032854                log_printf
 .text.process_action_queue
                0x00032874      0x834 mesh/core/libmesh_core_nrf52832_xxAA.a(flash_manager.c.obj)
 .text.flash_op_ended_callback
                0x000330a8       0x24 mesh/core/libmesh_core_nrf52832_xxAA.a(flash_manager.c.obj)
 .text.flash_manager_init
                0x000330cc       0x68 mesh/core/libmesh_core_nrf52832_xxAA.a(flash_manager.c.obj)
                0x000330cc                flash_manager_init
 .text.flash_manager_remove
                0x00033134       0x78 mesh/core/libmesh_core_nrf52832_xxAA.a(flash_manager.c.obj)
                0x00033134                flash_manager_remove
 .text.flash_manager_entry_next_get
                0x000331ac      0x15c mesh/core/libmesh_core_nrf52832_xxAA.a(flash_manager.c.obj)
                0x000331ac                flash_manager_entry_next_get
 .text.flash_manager_entry_alloc
                0x00033308       0x9c mesh/core/libmesh_core_nrf52832_xxAA.a(flash_manager.c.obj)
                0x00033308                flash_manager_entry_alloc
 .text.flash_manager_entry_commit
                0x000333a4       0x6c mesh/core/libmesh_core_nrf52832_xxAA.a(flash_manager.c.obj)
                0x000333a4                flash_manager_entry_commit
 .text.flash_manager_entry_invalidate
                0x00033410       0xb8 mesh/core/libmesh_core_nrf52832_xxAA.a(flash_manager.c.obj)
                0x00033410                flash_manager_entry_invalidate
 .text.flash_manager_add
                0x000334c8      0x474 mesh/core/libmesh_core_nrf52832_xxAA.a(flash_manager.c.obj)
                0x000334c8                flash_manager_add
 .text.flash_manager_mem_listener_register
                0x0003393c       0x50 mesh/core/libmesh_core_nrf52832_xxAA.a(flash_manager.c.obj)
                0x0003393c                flash_manager_mem_listener_register
 .text.flash_manager_is_stable
                0x0003398c       0x20 mesh/core/libmesh_core_nrf52832_xxAA.a(flash_manager.c.obj)
                0x0003398c                flash_manager_is_stable
 .text.flash_manager_on_defrag_end
                0x000339ac       0x64 mesh/core/libmesh_core_nrf52832_xxAA.a(flash_manager.c.obj)
                0x000339ac                flash_manager_on_defrag_end
 .text.flash_manager_recovery_page_get
                0x00033a10        0x4 mesh/core/libmesh_core_nrf52832_xxAA.a(flash_manager.c.obj)
                0x00033a10                flash_manager_recovery_page_get
 .text.ccm_soft_crypt.constprop.0
                0x00033a14      0x298 mesh/core/libmesh_core_nrf52832_xxAA.a(ccm_soft.c.obj)
 .text.ccm_soft_authenticate
                0x00033cac      0x324 mesh/core/libmesh_core_nrf52832_xxAA.a(ccm_soft.c.obj)
 .text.ccm_soft_encrypt
                0x00033fd0       0x78 mesh/core/libmesh_core_nrf52832_xxAA.a(ccm_soft.c.obj)
                0x00033fd0                ccm_soft_encrypt
 .text.ccm_soft_decrypt
                0x00034048      0x10c mesh/core/libmesh_core_nrf52832_xxAA.a(ccm_soft.c.obj)
                0x00034048                ccm_soft_decrypt
 .text.beacon_init
                0x00034154       0x48 mesh/core/libmesh_core_nrf52832_xxAA.a(beacon.c.obj)
                0x00034154                beacon_init
 .text.beacon_tx
                0x0003419c       0x6c mesh/core/libmesh_core_nrf52832_xxAA.a(beacon.c.obj)
                0x0003419c                beacon_tx
 .text.beacon_create
                0x00034208       0x50 mesh/core/libmesh_core_nrf52832_xxAA.a(beacon.c.obj)
                0x00034208                beacon_create
 .text.beacon_packet_in
                0x00034258      0x180 mesh/core/libmesh_core_nrf52832_xxAA.a(beacon.c.obj)
                0x00034258                beacon_packet_in
 .text.entry_get
                0x000343d8       0x8c mesh/core/libmesh_core_nrf52832_xxAA.a(flash_manager_internal.c.obj)
                0x000343d8                entry_get
 .text.adv_tx_complete_callback
                0x00034464       0x58 mesh/core/libmesh_core_nrf52832_xxAA.a(core_tx.c.obj)
 .text.core_tx_init
                0x000344bc       0x4c mesh/core/libmesh_core_nrf52832_xxAA.a(core_tx.c.obj)
                0x000344bc                core_tx_init
 .text.core_tx_complete_cb_set
                0x00034508        0xc mesh/core/libmesh_core_nrf52832_xxAA.a(core_tx.c.obj)
                0x00034508                core_tx_complete_cb_set
 .text.core_tx_packet_alloc
                0x00034514       0xa4 mesh/core/libmesh_core_nrf52832_xxAA.a(core_tx.c.obj)
                0x00034514                core_tx_packet_alloc
 .text.core_tx_packet_send
                0x000345b8       0x74 mesh/core/libmesh_core_nrf52832_xxAA.a(core_tx.c.obj)
                0x000345b8                core_tx_packet_send
 .text.core_tx_packet_discard
                0x0003462c       0x74 mesh/core/libmesh_core_nrf52832_xxAA.a(core_tx.c.obj)
                0x0003462c                core_tx_packet_discard
 .text.network_beacon_tx_cb
                0x000346a0      0x10c mesh/core/libmesh_core_nrf52832_xxAA.a(net_beacon.c.obj)
 .text.net_beacon_init
                0x000347ac       0x64 mesh/core/libmesh_core_nrf52832_xxAA.a(net_beacon.c.obj)
                0x000347ac                net_beacon_init
 .text.net_beacon_packet_in
                0x00034810       0xe0 mesh/core/libmesh_core_nrf52832_xxAA.a(net_beacon.c.obj)
                0x00034810                net_beacon_packet_in
 .text.tx_complete_event_callback
                0x000348f0       0x40 mesh/core/libmesh_core_nrf52832_xxAA.a(advertiser.c.obj)
 .text.broadcast_complete_cb
                0x00034930       0x70 mesh/core/libmesh_core_nrf52832_xxAA.a(advertiser.c.obj)
 .text.timeout_event
                0x000349a0      0x13c mesh/core/libmesh_core_nrf52832_xxAA.a(advertiser.c.obj)
 .text.advertiser_init
                0x00034adc        0xc mesh/core/libmesh_core_nrf52832_xxAA.a(advertiser.c.obj)
                0x00034adc                advertiser_init
 .text.advertiser_instance_init
                0x00034ae8      0x11c mesh/core/libmesh_core_nrf52832_xxAA.a(advertiser.c.obj)
                0x00034ae8                advertiser_instance_init
 .text.advertiser_enable
                0x00034c04       0x44 mesh/core/libmesh_core_nrf52832_xxAA.a(advertiser.c.obj)
                0x00034c04                advertiser_enable
 .text.advertiser_disable
                0x00034c48        0xc mesh/core/libmesh_core_nrf52832_xxAA.a(advertiser.c.obj)
                0x00034c48                advertiser_disable
 .text.advertiser_packet_alloc
                0x00034c54       0x9c mesh/core/libmesh_core_nrf52832_xxAA.a(advertiser.c.obj)
                0x00034c54                advertiser_packet_alloc
 .text.advertiser_packet_send
                0x00034cf0       0x98 mesh/core/libmesh_core_nrf52832_xxAA.a(advertiser.c.obj)
                0x00034cf0                advertiser_packet_send
 .text.advertiser_packet_discard
                0x00034d88       0x34 mesh/core/libmesh_core_nrf52832_xxAA.a(advertiser.c.obj)
                0x00034d88                advertiser_packet_discard
 .text.advertiser_channels_set
                0x00034dbc       0xac mesh/core/libmesh_core_nrf52832_xxAA.a(advertiser.c.obj)
                0x00034dbc                advertiser_channels_set
 .text.advertiser_interval_set
                0x00034e68       0x80 mesh/core/libmesh_core_nrf52832_xxAA.a(advertiser.c.obj)
                0x00034e68                advertiser_interval_set
 .text.advertiser_flush
                0x00034ee8       0x20 mesh/core/libmesh_core_nrf52832_xxAA.a(advertiser.c.obj)
                0x00034ee8                advertiser_flush
 .text.advertiser_address_default_get
                0x00034f08       0x68 mesh/core/libmesh_core_nrf52832_xxAA.a(advertiser.c.obj)
                0x00034f08                advertiser_address_default_get
 .text.action_switch.part.2
                0x00034f70       0xc0 mesh/core/libmesh_core_nrf52832_xxAA.a(bearer_handler.c.obj)
 .text.bearer_handler_init
                0x00035030       0x2c mesh/core/libmesh_core_nrf52832_xxAA.a(bearer_handler.c.obj)
                0x00035030                bearer_handler_init
 .text.bearer_handler_start
                0x0003505c       0x1c mesh/core/libmesh_core_nrf52832_xxAA.a(bearer_handler.c.obj)
                0x0003505c                bearer_handler_start
 .text.bearer_handler_stop
                0x00035078       0x20 mesh/core/libmesh_core_nrf52832_xxAA.a(bearer_handler.c.obj)
                0x00035078                bearer_handler_stop
 .text.bearer_handler_action_enqueue
                0x00035098       0xa0 mesh/core/libmesh_core_nrf52832_xxAA.a(bearer_handler.c.obj)
                0x00035098                bearer_handler_action_enqueue
 .text.bearer_handler_action_end
                0x00035138       0x84 mesh/core/libmesh_core_nrf52832_xxAA.a(bearer_handler.c.obj)
                0x00035138                bearer_handler_action_end
 .text.bearer_handler_radio_irq_handler
                0x000351bc       0x70 mesh/core/libmesh_core_nrf52832_xxAA.a(bearer_handler.c.obj)
                0x000351bc                bearer_handler_radio_irq_handler
 .text.bearer_handler_timer_irq_handler
                0x0003522c       0x3c mesh/core/libmesh_core_nrf52832_xxAA.a(bearer_handler.c.obj)
                0x0003522c                bearer_handler_timer_irq_handler
 .text.bearer_handler_on_ts_begin
                0x00035268       0x4c mesh/core/libmesh_core_nrf52832_xxAA.a(bearer_handler.c.obj)
                0x00035268                bearer_handler_on_ts_begin
 .text.bearer_handler_on_ts_end
                0x000352b4       0x48 mesh/core/libmesh_core_nrf52832_xxAA.a(bearer_handler.c.obj)
                0x000352b4                bearer_handler_on_ts_end
 .text.radio_irq_handler
                0x000352fc       0xb4 mesh/core/libmesh_core_nrf52832_xxAA.a(broadcast.c.obj)
 .text.broadcast_start
                0x000353b0       0x8c mesh/core/libmesh_core_nrf52832_xxAA.a(broadcast.c.obj)
 .text.broadcast_send
                0x0003543c       0x8c mesh/core/libmesh_core_nrf52832_xxAA.a(broadcast.c.obj)
                0x0003543c                broadcast_send
 .text.radio_config_reset
                0x000354c8       0x38 mesh/core/libmesh_core_nrf52832_xxAA.a(radio_config.c.obj)
                0x000354c8                radio_config_reset
 .text.radio_config_channel_set
                0x00035500       0x34 mesh/core/libmesh_core_nrf52832_xxAA.a(radio_config.c.obj)
                0x00035500                radio_config_channel_set
 .text.radio_config_config
                0x00035534       0x78 mesh/core/libmesh_core_nrf52832_xxAA.a(radio_config.c.obj)
                0x00035534                radio_config_config
 .text.radio_config_access_addr_set
                0x000355ac       0x68 mesh/core/libmesh_core_nrf52832_xxAA.a(radio_config.c.obj)
                0x000355ac                radio_config_access_addr_set
 .text.scan_window_end
                0x00035614       0x28 mesh/core/libmesh_core_nrf52832_xxAA.a(scanner.c.obj)
 .text.scan_window_start
                0x0003563c       0x38 mesh/core/libmesh_core_nrf52832_xxAA.a(scanner.c.obj)
 .text.radio_start
                0x00035674      0x19c mesh/core/libmesh_core_nrf52832_xxAA.a(scanner.c.obj)
 .text.scanner_radio_start
                0x00035810      0x14c mesh/core/libmesh_core_nrf52832_xxAA.a(scanner.c.obj)
                0x00035810                scanner_radio_start
 .text.scanner_radio_stop
                0x0003595c       0x34 mesh/core/libmesh_core_nrf52832_xxAA.a(scanner.c.obj)
                0x0003595c                scanner_radio_stop
 .text.scanner_radio_irq_handler
                0x00035990      0x200 mesh/core/libmesh_core_nrf52832_xxAA.a(scanner.c.obj)
                0x00035990                scanner_radio_irq_handler
 .text.scanner_enable
                0x00035b90       0x5c mesh/core/libmesh_core_nrf52832_xxAA.a(scanner.c.obj)
                0x00035b90                scanner_enable
 .text.scanner_disable
                0x00035bec       0x5c mesh/core/libmesh_core_nrf52832_xxAA.a(scanner.c.obj)
                0x00035bec                scanner_disable
 .text.scanner_rx
                0x00035c48       0x84 mesh/core/libmesh_core_nrf52832_xxAA.a(scanner.c.obj)
                0x00035c48                scanner_rx
 .text.scanner_packet_release
                0x00035ccc       0x4c mesh/core/libmesh_core_nrf52832_xxAA.a(scanner.c.obj)
                0x00035ccc                scanner_packet_release
 .text.scanner_config_reset
                0x00035d18       0xa8 mesh/core/libmesh_core_nrf52832_xxAA.a(scanner.c.obj)
                0x00035d18                scanner_config_reset
 .text.scanner_init
                0x00035dc0       0x48 mesh/core/libmesh_core_nrf52832_xxAA.a(scanner.c.obj)
                0x00035dc0                scanner_init
 .text.sd_ecb_block_encrypt
                0x00035e08        0x4 mesh/core/libmesh_core_nrf52832_xxAA.a(aes.c.obj)
 .text.aes_encrypt
                0x00035e0c       0x34 mesh/core/libmesh_core_nrf52832_xxAA.a(aes.c.obj)
                0x00035e0c                aes_encrypt
 .text.msg_cache_init
                0x00035e40       0x24 mesh/core/libmesh_core_nrf52832_xxAA.a(msg_cache.c.obj)
                0x00035e40                msg_cache_init
 .text.msg_cache_entry_exists
                0x00035e64       0x40 mesh/core/libmesh_core_nrf52832_xxAA.a(msg_cache.c.obj)
                0x00035e64                msg_cache_entry_exists
 .text.msg_cache_entry_add
                0x00035ea4       0x30 mesh/core/libmesh_core_nrf52832_xxAA.a(msg_cache.c.obj)
                0x00035ea4                msg_cache_entry_add
 .text.tx_complete
                0x00035ed4       0x34 mesh/core/libmesh_core_nrf52832_xxAA.a(transport.c.obj)
 .text.upper_trs_packet_encrypt
                0x00035f08       0xe0 mesh/core/libmesh_core_nrf52832_xxAA.a(transport.c.obj)
 .text.sar_ctx_alloc
                0x00035fe8       0xd0 mesh/core/libmesh_core_nrf52832_xxAA.a(transport.c.obj)
 .text.trs_packet_header_build
                0x000360b8       0xac mesh/core/libmesh_core_nrf52832_xxAA.a(transport.c.obj)
 .text.sar_ack_send
                0x00036164      0x144 mesh/core/libmesh_core_nrf52832_xxAA.a(transport.c.obj)
 .text.test_transport_decrypt
                0x000362a8       0x98 mesh/core/libmesh_core_nrf52832_xxAA.a(transport.c.obj)
 .text.upper_transport_access_packet_in
                0x00036340      0x34c mesh/core/libmesh_core_nrf52832_xxAA.a(transport.c.obj)
 .text.trs_sar_packet_out
                0x0003668c      0x19c mesh/core/libmesh_core_nrf52832_xxAA.a(transport.c.obj)
 .text.sar_ctx_cancel
                0x00036828      0x1d0 mesh/core/libmesh_core_nrf52832_xxAA.a(transport.c.obj)
 .text.abort_timeout
                0x000369f8        0x8 mesh/core/libmesh_core_nrf52832_xxAA.a(transport.c.obj)
 .text.retry_timeout
                0x00036a00       0xb0 mesh/core/libmesh_core_nrf52832_xxAA.a(transport.c.obj)
 .text.transport_sar_process
                0x00036ab0      0x2a8 mesh/core/libmesh_core_nrf52832_xxAA.a(transport.c.obj)
 .text.upper_transport_packet_in
                0x00036d58      0x2e0 mesh/core/libmesh_core_nrf52832_xxAA.a(transport.c.obj)
 .text.ack_timeout
                0x00037038      0x15c mesh/core/libmesh_core_nrf52832_xxAA.a(transport.c.obj)
 .text.transport_init
                0x00037194       0x98 mesh/core/libmesh_core_nrf52832_xxAA.a(transport.c.obj)
                0x00037194                transport_init
 .text.transport_packet_in
                0x0003722c      0x824 mesh/core/libmesh_core_nrf52832_xxAA.a(transport.c.obj)
                0x0003722c                transport_packet_in
 .text.transport_tx
                0x00037a50      0x32c mesh/core/libmesh_core_nrf52832_xxAA.a(transport.c.obj)
                0x00037a50                transport_tx
 .text.erase_source
                0x00037d7c       0x34 mesh/core/libmesh_core_nrf52832_xxAA.a(flash_manager_defrag.c.obj)
 .text.erase_recovery_area
                0x00037db0       0x34 mesh/core/libmesh_core_nrf52832_xxAA.a(flash_manager_defrag.c.obj)
 .text.write_back
                0x00037de4       0x44 mesh/core/libmesh_core_nrf52832_xxAA.a(flash_manager_defrag.c.obj)
 .text.write_defrag_start_pointer
                0x00037e28       0x38 mesh/core/libmesh_core_nrf52832_xxAA.a(flash_manager_defrag.c.obj)
 .text.copy_metadata
                0x00037e60       0x58 mesh/core/libmesh_core_nrf52832_xxAA.a(flash_manager_defrag.c.obj)
 .text.seal_storage_page
                0x00037eb8       0x70 mesh/core/libmesh_core_nrf52832_xxAA.a(flash_manager_defrag.c.obj)
 .text.post_process
                0x00037f28       0x64 mesh/core/libmesh_core_nrf52832_xxAA.a(flash_manager_defrag.c.obj)
 .text.check_for_invalid_entries
                0x00037f8c       0x40 mesh/core/libmesh_core_nrf52832_xxAA.a(flash_manager_defrag.c.obj)
 .text.execute_procedure_step
                0x00037fcc       0xc0 mesh/core/libmesh_core_nrf52832_xxAA.a(flash_manager_defrag.c.obj)
 .text.on_flash_op_end
                0x0003808c       0x4c mesh/core/libmesh_core_nrf52832_xxAA.a(flash_manager_defrag.c.obj)
 .text.invalidate_duplicate_entries
                0x000380d8      0x148 mesh/core/libmesh_core_nrf52832_xxAA.a(flash_manager_defrag.c.obj)
 .text.backup_entries
                0x00038220      0x1fc mesh/core/libmesh_core_nrf52832_xxAA.a(flash_manager_defrag.c.obj)
 .text.flash_manager_defrag_init
                0x0003841c       0x68 mesh/core/libmesh_core_nrf52832_xxAA.a(flash_manager_defrag.c.obj)
                0x0003841c                flash_manager_defrag_init
 .text.flash_manager_defrag_is_running
                0x00038484       0x10 mesh/core/libmesh_core_nrf52832_xxAA.a(flash_manager_defrag.c.obj)
                0x00038484                flash_manager_defrag_is_running
 .text.flash_manager_defrag
                0x00038494       0xe4 mesh/core/libmesh_core_nrf52832_xxAA.a(flash_manager_defrag.c.obj)
                0x00038494                flash_manager_defrag
 .text.flash_manager_defrag_recovery_page_get
                0x00038578        0xc mesh/core/libmesh_core_nrf52832_xxAA.a(flash_manager_defrag.c.obj)
                0x00038578                flash_manager_defrag_recovery_page_get
 .text.nrf_flash_erase
                0x00038584       0x5c mesh/core/libmesh_core_nrf52832_xxAA.a(nrf_flash.c.obj)
                0x00038584                nrf_flash_erase
 .text.nrf_flash_write
                0x000385e0       0x6c mesh/core/libmesh_core_nrf52832_xxAA.a(nrf_flash.c.obj)
                0x000385e0                nrf_flash_write
 .text.packet_mgr_init
                0x0003864c       0x4c mesh/core/libmesh_core_nrf52832_xxAA.a(packet_mgr.c.obj)
                0x0003864c                packet_mgr_init
 .text.queue_init
                0x00038698       0x28 mesh/core/libmesh_core_nrf52832_xxAA.a(queue.c.obj)
                0x00038698                queue_init
 .text.queue_push
                0x000386c0       0x50 mesh/core/libmesh_core_nrf52832_xxAA.a(queue.c.obj)
                0x000386c0                queue_push
 .text.queue_pop
                0x00038710       0x40 mesh/core/libmesh_core_nrf52832_xxAA.a(queue.c.obj)
                0x00038710                queue_pop
 .text.queue_peek
                0x00038750       0x20 mesh/core/libmesh_core_nrf52832_xxAA.a(queue.c.obj)
                0x00038750                queue_peek
 .text.aes_cmac_subkey_generate
                0x00038770      0x2b0 mesh/core/libmesh_core_nrf52832_xxAA.a(aes_cmac.c.obj)
                0x00038770                aes_cmac_subkey_generate
 .text.aes_cmac
                0x00038a20      0x49c mesh/core/libmesh_core_nrf52832_xxAA.a(aes_cmac.c.obj)
                0x00038a20                aes_cmac
 .text.replay_cache_init
                0x00038ebc       0x28 mesh/core/libmesh_core_nrf52832_xxAA.a(replay_cache.c.obj)
                0x00038ebc                replay_cache_init
 .text.replay_cache_add
                0x00038ee4       0x68 mesh/core/libmesh_core_nrf52832_xxAA.a(replay_cache.c.obj)
                0x00038ee4                replay_cache_add
 .text.replay_cache_has_room
                0x00038f4c       0x48 mesh/core/libmesh_core_nrf52832_xxAA.a(replay_cache.c.obj)
                0x00038f4c                replay_cache_has_room
 .text.replay_cache_has_elem
                0x00038f94       0x40 mesh/core/libmesh_core_nrf52832_xxAA.a(replay_cache.c.obj)
                0x00038f94                replay_cache_has_elem
 .text.fen_filters_apply
                0x00038fd4       0x38 mesh/core/libmesh_core_nrf52832_xxAA.a(filter_engine.c.obj)
                0x00038fd4                fen_filters_apply
 .text.SEGGER_RTT_Write
                0x0003900c      0x1e4 external/rtt/librtt_nrf52832_xxAA.a(SEGGER_RTT.c.obj)
                0x0003900c                SEGGER_RTT_Write
 .text._PrintUnsigned
                0x000391f0      0x194 external/rtt/librtt_nrf52832_xxAA.a(SEGGER_RTT_printf.c.obj)
 .text.SEGGER_RTT_vprintf
                0x00039384      0x464 external/rtt/librtt_nrf52832_xxAA.a(SEGGER_RTT_printf.c.obj)
                0x00039384                SEGGER_RTT_vprintf
 .text.SEGGER_RTT_printf
                0x000397e8       0x20 external/rtt/librtt_nrf52832_xxAA.a(SEGGER_RTT_printf.c.obj)
                0x000397e8                SEGGER_RTT_printf
 .text.default_RNG
                0x00039808        0xc external/micro-ecc/libuECC_nrf52832_xxAA.a(uECC.c.obj)
 .text.uECC_generate_random_int
                0x00039814      0x170 external/micro-ecc/libuECC_nrf52832_xxAA.a(uECC.c.obj)
 .text.apply_z  0x00039984      0x1a8 external/micro-ecc/libuECC_nrf52832_xxAA.a(uECC.c.obj)
 .text.uECC_vli_modAdd
                0x00039b2c       0xc8 external/micro-ecc/libuECC_nrf52832_xxAA.a(uECC.c.obj)
 .text.x_side_default
                0x00039bf4      0x254 external/micro-ecc/libuECC_nrf52832_xxAA.a(uECC.c.obj)
 .text.vli_mmod_fast_secp256r1
                0x00039e48      0x520 external/micro-ecc/libuECC_nrf52832_xxAA.a(uECC.c.obj)
 .text.XYcZ_add
                0x0003a368      0x6dc external/micro-ecc/libuECC_nrf52832_xxAA.a(uECC.c.obj)
 .text.XYcZ_addC
                0x0003aa44      0xa94 external/micro-ecc/libuECC_nrf52832_xxAA.a(uECC.c.obj)
 .text.uECC_vli_modInv.part.4
                0x0003b4d8      0x6e8 external/micro-ecc/libuECC_nrf52832_xxAA.a(uECC.c.obj)
 .text.EccPoint_mult.constprop.5
                0x0003bbc0      0x470 external/micro-ecc/libuECC_nrf52832_xxAA.a(uECC.c.obj)
 .text.double_jacobian_default
                0x0003c030      0x7ec external/micro-ecc/libuECC_nrf52832_xxAA.a(uECC.c.obj)
 .text.uECC_secp256r1
                0x0003c81c        0x8 external/micro-ecc/libuECC_nrf52832_xxAA.a(uECC.c.obj)
                0x0003c81c                uECC_secp256r1
 .text.uECC_make_key
                0x0003c824      0x23c external/micro-ecc/libuECC_nrf52832_xxAA.a(uECC.c.obj)
                0x0003c824                uECC_make_key
 .text.uECC_shared_secret
                0x0003ca60      0x788 external/micro-ecc/libuECC_nrf52832_xxAA.a(uECC.c.obj)
                0x0003ca60                uECC_shared_secret
 .text.uECC_valid_point
                0x0003d1e8      0x134 external/micro-ecc/libuECC_nrf52832_xxAA.a(uECC.c.obj)
                0x0003d1e8                uECC_valid_point
 .text.uECC_valid_public_key
                0x0003d31c       0xe8 external/micro-ecc/libuECC_nrf52832_xxAA.a(uECC.c.obj)
                0x0003d31c                uECC_valid_public_key
 .text.exit     0x0003d404       0x28 c:/a/gcc_arm/6/bin/../lib/gcc/arm-none-eabi/6.3.1/../../../../arm-none-eabi/lib/thumb/v7e-m/fpv4-sp/hard\libc_nano.a(lib_a-exit.o)
                0x0003d404                exit
 .text.__libc_init_array
                0x0003d42c       0x48 c:/a/gcc_arm/6/bin/../lib/gcc/arm-none-eabi/6.3.1/../../../../arm-none-eabi/lib/thumb/v7e-m/fpv4-sp/hard\libc_nano.a(lib_a-init.o)
                0x0003d42c                __libc_init_array
 .text.malloc   0x0003d474       0x10 c:/a/gcc_arm/6/bin/../lib/gcc/arm-none-eabi/6.3.1/../../../../arm-none-eabi/lib/thumb/v7e-m/fpv4-sp/hard\libc_nano.a(lib_a-malloc.o)
                0x0003d474                malloc
 .text.free     0x0003d484       0x10 c:/a/gcc_arm/6/bin/../lib/gcc/arm-none-eabi/6.3.1/../../../../arm-none-eabi/lib/thumb/v7e-m/fpv4-sp/hard\libc_nano.a(lib_a-malloc.o)
                0x0003d484                free
 .text.memcmp   0x0003d494       0x1e c:/a/gcc_arm/6/bin/../lib/gcc/arm-none-eabi/6.3.1/../../../../arm-none-eabi/lib/thumb/v7e-m/fpv4-sp/hard\libc_nano.a(lib_a-memcmp.o)
                0x0003d494                memcmp
 .text.memcpy   0x0003d4b2       0x16 c:/a/gcc_arm/6/bin/../lib/gcc/arm-none-eabi/6.3.1/../../../../arm-none-eabi/lib/thumb/v7e-m/fpv4-sp/hard\libc_nano.a(lib_a-memcpy-stub.o)
                0x0003d4b2                memcpy
 .text.memset   0x0003d4c8       0x10 c:/a/gcc_arm/6/bin/../lib/gcc/arm-none-eabi/6.3.1/../../../../arm-none-eabi/lib/thumb/v7e-m/fpv4-sp/hard\libc_nano.a(lib_a-memset.o)
                0x0003d4c8                memset
 .text._free_r  0x0003d4d8       0x9c c:/a/gcc_arm/6/bin/../lib/gcc/arm-none-eabi/6.3.1/../../../../arm-none-eabi/lib/thumb/v7e-m/fpv4-sp/hard\libc_nano.a(lib_a-nano-freer.o)
                0x0003d4d8                _free_r
 .text._malloc_r
                0x0003d574       0xbc c:/a/gcc_arm/6/bin/../lib/gcc/arm-none-eabi/6.3.1/../../../../arm-none-eabi/lib/thumb/v7e-m/fpv4-sp/hard\libc_nano.a(lib_a-nano-mallocr.o)
                0x0003d574                _malloc_r
 .text._sbrk_r  0x0003d630       0x20 c:/a/gcc_arm/6/bin/../lib/gcc/arm-none-eabi/6.3.1/../../../../arm-none-eabi/lib/thumb/v7e-m/fpv4-sp/hard\libc_nano.a(lib_a-sbrkr.o)
                0x0003d630                _sbrk_r
 .text.strcpy   0x0003d650       0x10 c:/a/gcc_arm/6/bin/../lib/gcc/arm-none-eabi/6.3.1/../../../../arm-none-eabi/lib/thumb/v7e-m/fpv4-sp/hard\libc_nano.a(lib_a-strcpy.o)
                0x0003d650                strcpy
 .text          0x0003d660       0x10 c:/a/gcc_arm/6/bin/../lib/gcc/arm-none-eabi/6.3.1/../../../../arm-none-eabi/lib/thumb/v7e-m/fpv4-sp/hard\libc_nano.a(lib_a-strlen.o)
                0x0003d660                strlen
 .text.strrchr  0x0003d670       0x26 c:/a/gcc_arm/6/bin/../lib/gcc/arm-none-eabi/6.3.1/../../../../arm-none-eabi/lib/thumb/v7e-m/fpv4-sp/hard\libc_nano.a(lib_a-strrchr.o)
                0x0003d670                strrchr
 .text.__malloc_lock
                0x0003d696        0x2 c:/a/gcc_arm/6/bin/../lib/gcc/arm-none-eabi/6.3.1/../../../../arm-none-eabi/lib/thumb/v7e-m/fpv4-sp/hard\libc_nano.a(lib_a-mlock.o)
                0x0003d696                __malloc_lock
 .text.__malloc_unlock
                0x0003d698        0x2 c:/a/gcc_arm/6/bin/../lib/gcc/arm-none-eabi/6.3.1/../../../../arm-none-eabi/lib/thumb/v7e-m/fpv4-sp/hard\libc_nano.a(lib_a-mlock.o)
                0x0003d698                __malloc_unlock
 .text.strchr   0x0003d69a       0x1c c:/a/gcc_arm/6/bin/../lib/gcc/arm-none-eabi/6.3.1/../../../../arm-none-eabi/lib/thumb/v7e-m/fpv4-sp/hard\libc_nano.a(lib_a-strchr.o)
                0x0003d69a                strchr
 *fill*         0x0003d6b6        0x2 
 .text._sbrk    0x0003d6b8       0x1c c:/a/gcc_arm/6/bin/../lib/gcc/arm-none-eabi/6.3.1/../../../../arm-none-eabi/lib/thumb/v7e-m/fpv4-sp/hard\libnosys.a(sbrk.o)
                0x0003d6b8                _sbrk
 .text._exit    0x0003d6d4        0x4 c:/a/gcc_arm/6/bin/../lib/gcc/arm-none-eabi/6.3.1/../../../../arm-none-eabi/lib/thumb/v7e-m/fpv4-sp/hard\libnosys.a(_exit.o)
                0x0003d6d4                _exit
 *(.init)
 .init          0x0003d6d8        0x4 c:/a/gcc_arm/6/bin/../lib/gcc/arm-none-eabi/6.3.1/thumb/v7e-m/fpv4-sp/hard/crti.o
                0x0003d6d8                _init
 .init          0x0003d6dc        0x8 c:/a/gcc_arm/6/bin/../lib/gcc/arm-none-eabi/6.3.1/thumb/v7e-m/fpv4-sp/hard/crtn.o
 *(.fini)
 .fini          0x0003d6e4        0x4 c:/a/gcc_arm/6/bin/../lib/gcc/arm-none-eabi/6.3.1/thumb/v7e-m/fpv4-sp/hard/crti.o
                0x0003d6e4                _fini
 .fini          0x0003d6e8        0x8 c:/a/gcc_arm/6/bin/../lib/gcc/arm-none-eabi/6.3.1/thumb/v7e-m/fpv4-sp/hard/crtn.o
 *crtbegin.o(.ctors)
 *crtbegin?.o(.ctors)
 *(EXCLUDE_FILE(*crtend.o *crtend?.o) .ctors)
 *(SORT(.ctors.*))
 *(.ctors)
 *crtbegin.o(.dtors)
 *crtbegin?.o(.dtors)
 *(EXCLUDE_FILE(*crtend.o *crtend?.o) .dtors)
 *(SORT(.dtors.*))
 *(.dtors)
 *(.rodata*)
 .rodata.main.str1.4
                0x0003d6f0       0xa2 examples/dfu/CMakeFiles/dfu_nrf52832_xxAA_s132_5.0.0.dir/src/main.c.obj
 *fill*         0x0003d792        0x2 
 .rodata.mesh_evt_handler.str1.4
                0x0003d794       0x1b examples/dfu/CMakeFiles/dfu_nrf52832_xxAA_s132_5.0.0.dir/src/main.c.obj
 *fill*         0x0003d7af        0x1 
 .rodata.HardFault_Handler.str1.4
                0x0003d7b0        0xe examples/dfu/CMakeFiles/dfu_nrf52832_xxAA_s132_5.0.0.dir/__/nrf_mesh_sdk.c.obj
 *fill*         0x0003d7be        0x2 
 .rodata.app_error_handler.str1.4
                0x0003d7c0       0x1d examples/dfu/CMakeFiles/dfu_nrf52832_xxAA_s132_5.0.0.dir/__/nrf_mesh_sdk.c.obj
 *fill*         0x0003d7dd        0x3 
 .rodata.mesh_assert_handler.str1.4
                0x0003d7e0       0x35 examples/dfu/CMakeFiles/dfu_nrf52832_xxAA_s132_5.0.0.dir/__/nrf_mesh_sdk.c.obj
 *fill*         0x0003d815        0x3 
 .rodata.mesh_core_setup.str1.4
                0x0003d818       0x4d examples/dfu/CMakeFiles/dfu_nrf52832_xxAA_s132_5.0.0.dir/__/nrf_mesh_sdk.c.obj
 *fill*         0x0003d865        0x3 
 .rodata.mesh_softdevice_enable.str1.4
                0x0003d868       0x65 examples/dfu/CMakeFiles/dfu_nrf52832_xxAA_s132_5.0.0.dir/__/nrf_mesh_sdk.c.obj
 *fill*         0x0003d8cd        0x3 
 .rodata.softdevice_assert_handler.str1.4
                0x0003d8d0       0x1d examples/dfu/CMakeFiles/dfu_nrf52832_xxAA_s132_5.0.0.dir/__/nrf_mesh_sdk.c.obj
 *fill*         0x0003d8ed        0x3 
 .rodata.m_flash_groups
                0x0003d8f0       0xc0 examples/dfu/CMakeFiles/dfu_nrf52832_xxAA_s132_5.0.0.dir/__/__/mesh/access/src/device_state_manager.c.obj
 .rodata.m_cmd_handlers
                0x0003d9b0       0xb0 examples/dfu/CMakeFiles/dfu_nrf52832_xxAA_s132_5.0.0.dir/__/__/mesh/serial/src/serial_handler_access.c.obj
 .rodata.serial_process_cmd.str1.4
                0x0003da60       0x6a examples/dfu/CMakeFiles/dfu_nrf52832_xxAA_s132_5.0.0.dir/__/__/mesh/serial/src/serial.c.obj
 *fill*         0x0003daca        0x2 
 .rodata.serial_start.str1.4
                0x0003dacc       0x11 examples/dfu/CMakeFiles/dfu_nrf52832_xxAA_s132_5.0.0.dir/__/__/mesh/serial/src/serial.c.obj
 *fill*         0x0003dadd        0x3 
 .rodata.serial_handler_prov_init.str1.4
                0x0003dae0       0x4e examples/dfu/CMakeFiles/dfu_nrf52832_xxAA_s132_5.0.0.dir/__/__/mesh/serial/src/serial_handler_prov.c.obj
 *fill*         0x0003db2e        0x2 
 .rodata.lengths.10940
                0x0003db30        0x7 examples/dfu/CMakeFiles/dfu_nrf52832_xxAA_s132_5.0.0.dir/__/__/mesh/serial/src/serial_handler_dfu.c.obj
 *fill*         0x0003db37        0x1 
 .rodata.m_handlers
                0x0003db38       0xe8 examples/dfu/CMakeFiles/dfu_nrf52832_xxAA_s132_5.0.0.dir/__/__/mesh/serial/src/serial_handler_mesh.c.obj
 .rodata.m_cmd_handlers
                0x0003dc20       0x18 examples/dfu/CMakeFiles/dfu_nrf52832_xxAA_s132_5.0.0.dir/__/__/mesh/serial/src/serial_handler_models.c.obj
 .rodata.m_cmd_handlers
                0x0003dc38       0x48 examples/dfu/CMakeFiles/dfu_nrf52832_xxAA_s132_5.0.0.dir/__/__/mesh/serial/src/serial_handler_device.c.obj
 .rodata.m_prov_callbacks
                0x0003dc80       0x10 examples/dfu/CMakeFiles/dfu_nrf52832_xxAA_s132_5.0.0.dir/__/__/mesh/prov/src/prov_provisioner.c.obj
 .rodata.m_prov_callbacks
                0x0003dc90       0x10 examples/dfu/CMakeFiles/dfu_nrf52832_xxAA_s132_5.0.0.dir/__/__/mesh/prov/src/prov_provisionee.c.obj
 .rodata.prov_provisionee_cb_ack_received.str1.4
                0x0003dca0       0x53 examples/dfu/CMakeFiles/dfu_nrf52832_xxAA_s132_5.0.0.dir/__/__/mesh/prov/src/prov_provisionee.c.obj
 *fill*         0x0003dcf3        0x1 
 .rodata.pdu_sizes.10819
                0x0003dcf4        0xa examples/dfu/CMakeFiles/dfu_nrf52832_xxAA_s132_5.0.0.dir/__/__/mesh/prov/src/provisioning.c.obj
 *fill*         0x0003dcfe        0x2 
 .rodata.prov_cb_pkt_in.str1.4
                0x0003dd00       0x34 examples/dfu/CMakeFiles/dfu_nrf52832_xxAA_s132_5.0.0.dir/__/__/mesh/prov/src/provisioning.c.obj
 .rodata.alphanumeric.10923
                0x0003dd34       0x25 examples/dfu/CMakeFiles/dfu_nrf52832_xxAA_s132_5.0.0.dir/__/__/mesh/prov/src/prov_utils.c.obj
 *fill*         0x0003dd59        0x3 
 .rodata.numeric_max.10917
                0x0003dd5c       0x24 examples/dfu/CMakeFiles/dfu_nrf52832_xxAA_s132_5.0.0.dir/__/__/mesh/prov/src/prov_utils.c.obj
 .rodata.prov_utils_authentication_values_derive.str1.4
                0x0003dd80        0x5 examples/dfu/CMakeFiles/dfu_nrf52832_xxAA_s132_5.0.0.dir/__/__/mesh/prov/src/prov_utils.c.obj
 *fill*         0x0003dd85        0x3 
 .rodata.prov_utils_derive_keys.str1.4
                0x0003dd88       0x15 examples/dfu/CMakeFiles/dfu_nrf52832_xxAA_s132_5.0.0.dir/__/__/mesh/prov/src/prov_utils.c.obj
 *fill*         0x0003dd9d        0x3 
 .rodata.crctable.10681
                0x0003dda0      0x100 examples/dfu/CMakeFiles/dfu_nrf52832_xxAA_s132_5.0.0.dir/__/__/mesh/prov/src/prov_bearer_adv.c.obj
 .rodata.interface.10910
                0x0003dea0       0x14 examples/dfu/CMakeFiles/dfu_nrf52832_xxAA_s132_5.0.0.dir/__/__/mesh/prov/src/prov_bearer_adv.c.obj
 .rodata.prov_bearer_adv_listen.str1.4
                0x0003deb4       0x50 examples/dfu/CMakeFiles/dfu_nrf52832_xxAA_s132_5.0.0.dir/__/__/mesh/prov/src/prov_bearer_adv.c.obj
 .rodata.prov_bearer_adv_packet_in.str1.4
                0x0003df04      0x283 examples/dfu/CMakeFiles/dfu_nrf52832_xxAA_s132_5.0.0.dir/__/__/mesh/prov/src/prov_bearer_adv.c.obj
 *fill*         0x0003e187        0x1 
 .rodata.tx_retry_cb.str1.4
                0x0003e188       0x14 examples/dfu/CMakeFiles/dfu_nrf52832_xxAA_s132_5.0.0.dir/__/__/mesh/prov/src/prov_bearer_adv.c.obj
 .rodata.abort_timeout.str1.4
                0x0003e19c       0x19 examples/dfu/CMakeFiles/dfu_nrf52832_xxAA_s132_5.0.0.dir/__/__/mesh/dfu/src/nrf_mesh_dfu.c.obj
 *fill*         0x0003e1b5        0x3 
 .rodata.dfu_evt_handler.str1.4
                0x0003e1b8      0x174 examples/dfu/CMakeFiles/dfu_nrf52832_xxAA_s132_5.0.0.dir/__/__/mesh/dfu/src/nrf_mesh_dfu.c.obj
 .rodata.flash_op_complete.str1.4
                0x0003e32c       0x3d examples/dfu/CMakeFiles/dfu_nrf52832_xxAA_s132_5.0.0.dir/__/__/mesh/dfu/src/nrf_mesh_dfu.c.obj
 *fill*         0x0003e369        0x3 
 .rodata.m_adv_channels
                0x0003e36c        0x3 examples/dfu/CMakeFiles/dfu_nrf52832_xxAA_s132_5.0.0.dir/__/__/mesh/dfu/src/nrf_mesh_dfu.c.obj
 *fill*         0x0003e36f        0x1 
 .rodata.nrf_mesh_dfu_cmd_send.part.3.str1.4
                0x0003e370       0x38 examples/dfu/CMakeFiles/dfu_nrf52832_xxAA_s132_5.0.0.dir/__/__/mesh/dfu/src/nrf_mesh_dfu.c.obj
 .rodata.timer_timeout.str1.4
                0x0003e3a8       0x13 examples/dfu/CMakeFiles/dfu_nrf52832_xxAA_s132_5.0.0.dir/__/__/mesh/dfu/src/nrf_mesh_dfu.c.obj
 *fill*         0x0003e3bb        0x1 
 .rodata.m_all_operations
                0x0003e3bc       0x10 mesh/core/libmesh_core_nrf52832_xxAA.a(mesh_flash.c.obj)
 .rodata.types_lookup.8947
                0x0003e3cc        0x4 mesh/core/libmesh_core_nrf52832_xxAA.a(nrf_mesh_utils.c.obj)
 .rodata.nrf_mesh_process.str1.4
                0x0003e3d0       0x73 mesh/core/libmesh_core_nrf52832_xxAA.a(nrf_mesh.c.obj)
 *fill*         0x0003e443        0x1 
 .rodata.CSWTCH.9
                0x0003e444       0x20 mesh/core/libmesh_core_nrf52832_xxAA.a(hal.c.obj)
 .rodata        0x0003e464       0x18 mesh/core/libmesh_core_nrf52832_xxAA.a(enc.c.obj)
 .rodata.network_packet_in.str1.4
                0x0003e47c       0x49 mesh/core/libmesh_core_nrf52832_xxAA.a(network.c.obj)
 *fill*         0x0003e4c5        0x3 
 .rodata.network_packet_send.str1.4
                0x0003e4c8       0x4a mesh/core/libmesh_core_nrf52832_xxAA.a(network.c.obj)
 *fill*         0x0003e512        0x2 
 .rodata        0x0003e514        0x7 mesh/core/libmesh_core_nrf52832_xxAA.a(nrf_mesh_keygen.c.obj)
 *fill*         0x0003e51b        0x1 
 .rodata.log_callback_rtt.str1.4
                0x0003e51c       0x15 mesh/core/libmesh_core_nrf52832_xxAA.a(log.c.obj)
 *fill*         0x0003e531        0x3 
 .rodata.str1.4
                0x0003e534       0x11 mesh/core/libmesh_core_nrf52832_xxAA.a(log.c.obj)
 *fill*         0x0003e545        0x3 
 .rodata.INVALID_HEADER
                0x0003e548        0x4 mesh/core/libmesh_core_nrf52832_xxAA.a(flash_manager.c.obj)
                0x0003e548                INVALID_HEADER
 .rodata.PADDING_HEADER
                0x0003e54c        0x4 mesh/core/libmesh_core_nrf52832_xxAA.a(flash_manager.c.obj)
                0x0003e54c                PADDING_HEADER
 .rodata.SEAL_HEADER
                0x0003e550        0x4 mesh/core/libmesh_core_nrf52832_xxAA.a(flash_manager.c.obj)
                0x0003e550                SEAL_HEADER
 .rodata.process_action_queue.str1.4
                0x0003e554       0x21 mesh/core/libmesh_core_nrf52832_xxAA.a(flash_manager.c.obj)
                                 0x52 (size before relaxing)
 *fill*         0x0003e575        0x3 
 .rodata.beacon_packet_in.str1.4
                0x0003e578       0x55 mesh/core/libmesh_core_nrf52832_xxAA.a(beacon.c.obj)
                                 0x60 (size before relaxing)
 *fill*         0x0003e5cd        0x3 
 .rodata.net_beacon_init.str1.4
                0x0003e5d0        0x5 mesh/core/libmesh_core_nrf52832_xxAA.a(net_beacon.c.obj)
 *fill*         0x0003e5d5        0x3 
 .rodata.radio_mode_to_us_per_byte.9323
                0x0003e5d8        0x6 mesh/core/libmesh_core_nrf52832_xxAA.a(broadcast.c.obj)
 *fill*         0x0003e5de        0x2 
 .rodata.channel_rf_offsets.8585
                0x0003e5e0       0x28 mesh/core/libmesh_core_nrf52832_xxAA.a(radio_config.c.obj)
 .rodata.sar_ack_send.str1.4
                0x0003e608       0x1d mesh/core/libmesh_core_nrf52832_xxAA.a(transport.c.obj)
                                 0x4e (size before relaxing)
 *fill*         0x0003e625        0x3 
 .rodata.sar_ctx_cancel.str1.4
                0x0003e628       0x18 mesh/core/libmesh_core_nrf52832_xxAA.a(transport.c.obj)
 .rodata.test_transport_decrypt.str1.4
                0x0003e640       0x13 mesh/core/libmesh_core_nrf52832_xxAA.a(transport.c.obj)
 *fill*         0x0003e653        0x1 
 .rodata.transport_packet_in.str1.4
                0x0003e654       0x24 mesh/core/libmesh_core_nrf52832_xxAA.a(transport.c.obj)
 .rodata.transport_tx.str1.4
                0x0003e678       0x2f mesh/core/libmesh_core_nrf52832_xxAA.a(transport.c.obj)
                                 0x38 (size before relaxing)
 *fill*         0x0003e6a7        0x1 
 .rodata.upper_transport_access_packet_in.str1.4
                0x0003e6a8       0x29 mesh/core/libmesh_core_nrf52832_xxAA.a(transport.c.obj)
 *fill*         0x0003e6d1        0x3 
 .rodata.upper_transport_packet_in.str1.4
                0x0003e6d4       0x2e mesh/core/libmesh_core_nrf52832_xxAA.a(transport.c.obj)
 *fill*         0x0003e702        0x2 
 .rodata.flash_manager_defrag.str1.4
                0x0003e704       0x28 mesh/core/libmesh_core_nrf52832_xxAA.a(flash_manager_defrag.c.obj)
                                 0x56 (size before relaxing)
 .rodata.m_procedure_steps
                0x0003e72c       0x28 mesh/core/libmesh_core_nrf52832_xxAA.a(flash_manager_defrag.c.obj)
 .rodata.SEGGER_RTT_ReadNoLock.str1.4
                0x0003e754       0x18 external/rtt/librtt_nrf52832_xxAA.a(SEGGER_RTT.c.obj)
                                 0x17 (size before relaxing)
 .rodata._aV2C.5497
                0x0003e76c       0x10 external/rtt/librtt_nrf52832_xxAA.a(SEGGER_RTT_printf.c.obj)
 .rodata.curve_secp256r1
                0x0003e77c       0xb0 external/micro-ecc/libuECC_nrf52832_xxAA.a(uECC.c.obj)
 .rodata._global_impure_ptr
                0x0003e82c        0x4 c:/a/gcc_arm/6/bin/../lib/gcc/arm-none-eabi/6.3.1/../../../../arm-none-eabi/lib/thumb/v7e-m/fpv4-sp/hard\libc_nano.a(lib_a-impure.o)
                0x0003e82c                _global_impure_ptr
 *(.eh_frame*)
 .eh_frame      0x0003e830        0x0 c:/a/gcc_arm/6/bin/../lib/gcc/arm-none-eabi/6.3.1/thumb/v7e-m/fpv4-sp/hard/crtbegin.o
 .eh_frame      0x0003e830        0x4 c:/a/gcc_arm/6/bin/../lib/gcc/arm-none-eabi/6.3.1/thumb/v7e-m/fpv4-sp/hard/crtend.o

.glue_7         0x0003e834        0x0
 .glue_7        0x0003e834        0x0 linker stubs

.glue_7t        0x0003e834        0x0
 .glue_7t       0x0003e834        0x0 linker stubs

.vfp11_veneer   0x0003e834        0x0
 .vfp11_veneer  0x0003e834        0x0 linker stubs

.v4_bx          0x0003e834        0x0
 .v4_bx         0x0003e834        0x0 linker stubs

.iplt           0x0003e834        0x0
 .iplt          0x0003e834        0x0 c:/a/gcc_arm/6/bin/../lib/gcc/arm-none-eabi/6.3.1/thumb/v7e-m/fpv4-sp/hard/crtbegin.o

.ARM.extab
 *(.ARM.extab* .gnu.linkonce.armextab.*)
                0x0003e834                __exidx_start = .

.ARM.exidx      0x0003e834        0x8
 *(.ARM.exidx* .gnu.linkonce.armexidx.*)
 .ARM.exidx     0x0003e834        0x8 c:/a/gcc_arm/6/bin/../lib/gcc/arm-none-eabi/6.3.1/../../../../arm-none-eabi/lib/thumb/v7e-m/fpv4-sp/hard/crt0.o
                0x0003e83c                __exidx_end = .
                0x0003e83c                __etext = .

.rel.dyn        0x0003e83c        0x0
 .rel.iplt      0x0003e83c        0x0 c:/a/gcc_arm/6/bin/../lib/gcc/arm-none-eabi/6.3.1/thumb/v7e-m/fpv4-sp/hard/crtbegin.o

.data           0x200031b0      0x108 load address 0x0003e83c
                0x200031b0                __data_start__ = .
 *(vtable)
 *(.data*)
 .data.rom_base
                0x200031b0        0x4 examples/dfu/CMakeFiles/dfu_nrf52832_xxAA_s132_5.0.0.dir/src/main.c.obj
                0x200031b0                rom_base
 .data.rom_end  0x200031b4        0x4 examples/dfu/CMakeFiles/dfu_nrf52832_xxAA_s132_5.0.0.dir/src/main.c.obj
                0x200031b4                rom_end
 .data.flash_clear_mem_available_struct.10464
                0x200031b8       0x10 examples/dfu/CMakeFiles/dfu_nrf52832_xxAA_s132_5.0.0.dir/__/__/mesh/access/src/access.c.obj
 .data.flash_store_mem_available_struct.10488
                0x200031c8       0x10 examples/dfu/CMakeFiles/dfu_nrf52832_xxAA_s132_5.0.0.dir/__/__/mesh/access/src/access.c.obj
 .data.mem_listener.10627
                0x200031d8       0x10 examples/dfu/CMakeFiles/dfu_nrf52832_xxAA_s132_5.0.0.dir/__/__/mesh/access/src/device_state_manager.c.obj
 .data.m_unprov_report
                0x200031e8        0x1 examples/dfu/CMakeFiles/dfu_nrf52832_xxAA_s132_5.0.0.dir/__/__/mesh/prov/src/prov_beacon.c.obj
 *fill*         0x200031e9        0x3 
 .data.m_async_process_flag
                0x200031ec        0x4 examples/dfu/CMakeFiles/dfu_nrf52832_xxAA_s132_5.0.0.dir/__/__/mesh/prov/src/prov_bearer_adv.c.obj
 .data.SystemCoreClock
                0x200031f0        0x4 examples/dfu/CMakeFiles/dfu_nrf52832_xxAA_s132_5.0.0.dir/__/__/external/nRF5_SDK_14.0.0_3bcc1f7/components/toolchain/system_nrf52.c.obj
                0x200031f0                SystemCoreClock
 .data.mem_listener.9847
                0x200031f4       0x10 mesh/core/libmesh_core_nrf52832_xxAA.a(net_state.c.obj)
 .data.mem_listener.9852
                0x20003204       0x10 mesh/core/libmesh_core_nrf52832_xxAA.a(net_state.c.obj)
 .data.mem_listener.9866
                0x20003214       0x10 mesh/core/libmesh_core_nrf52832_xxAA.a(net_state.c.obj)
 .data.mem_listener.9883
                0x20003224       0x10 mesh/core/libmesh_core_nrf52832_xxAA.a(net_state.c.obj)
 .data.g_log_debug_level
                0x20003234        0x4 mesh/core/libmesh_core_nrf52832_xxAA.a(log.c.obj)
                0x20003234                g_log_debug_level
 .data.g_log_debug_msk
                0x20003238        0x4 mesh/core/libmesh_core_nrf52832_xxAA.a(log.c.obj)
                0x20003238                g_log_debug_msk
 .data.g_log_hex_digits
                0x2000323c        0x4 mesh/core/libmesh_core_nrf52832_xxAA.a(log.c.obj)
                0x2000323c                g_log_hex_digits
 .data.m_log_callback
                0x20003240        0x4 mesh/core/libmesh_core_nrf52832_xxAA.a(log.c.obj)
                0x20003240                m_log_callback
 .data.g_rng_function
                0x20003244        0x4 external/micro-ecc/libuECC_nrf52832_xxAA.a(uECC.c.obj)
 .data._impure_ptr
                0x20003248        0x4 c:/a/gcc_arm/6/bin/../lib/gcc/arm-none-eabi/6.3.1/../../../../arm-none-eabi/lib/thumb/v7e-m/fpv4-sp/hard\libc_nano.a(lib_a-impure.o)
                0x20003248                _impure_ptr
 .data.impure_data
                0x2000324c       0x60 c:/a/gcc_arm/6/bin/../lib/gcc/arm-none-eabi/6.3.1/../../../../arm-none-eabi/lib/thumb/v7e-m/fpv4-sp/hard\libc_nano.a(lib_a-impure.o)
                0x200032ac                . = ALIGN (0x4)
                0x200032ac                PROVIDE (__preinit_array_start, .)
 *(.preinit_array)
                0x200032ac                PROVIDE (__preinit_array_end, .)
                0x200032ac                . = ALIGN (0x4)
                0x200032ac                PROVIDE (__init_array_start, .)
 *(SORT(.init_array.*))
 *(.init_array)
 .init_array    0x200032ac        0x4 c:/a/gcc_arm/6/bin/../lib/gcc/arm-none-eabi/6.3.1/thumb/v7e-m/fpv4-sp/hard/crtbegin.o
                0x200032b0                PROVIDE (__init_array_end, .)
                0x200032b0                . = ALIGN (0x4)
                [!provide]                PROVIDE (__fini_array_start, .)
 *(SORT(.fini_array.*))
 *(.fini_array)
 .fini_array    0x200032b0        0x4 c:/a/gcc_arm/6/bin/../lib/gcc/arm-none-eabi/6.3.1/thumb/v7e-m/fpv4-sp/hard/crtbegin.o
                [!provide]                PROVIDE (__fini_array_end, .)
 *(.jcr*)
 .jcr           0x200032b4        0x0 c:/a/gcc_arm/6/bin/../lib/gcc/arm-none-eabi/6.3.1/thumb/v7e-m/fpv4-sp/hard/crtbegin.o
 .jcr           0x200032b4        0x4 c:/a/gcc_arm/6/bin/../lib/gcc/arm-none-eabi/6.3.1/thumb/v7e-m/fpv4-sp/hard/crtend.o
                0x200032b8                . = ALIGN (0x4)
                0x200032b8                __data_end__ = .

.igot.plt       0x200032b8        0x0 load address 0x0003e944
 .igot.plt      0x200032b8        0x0 c:/a/gcc_arm/6/bin/../lib/gcc/arm-none-eabi/6.3.1/thumb/v7e-m/fpv4-sp/hard/crtbegin.o

.bss            0x200032b8     0x38cc load address 0x0003e948
                0x200032b8                . = ALIGN (0x4)
                0x200032b8                __bss_start__ = .
 *(.bss*)
 .bss           0x200032b8       0x1c c:/a/gcc_arm/6/bin/../lib/gcc/arm-none-eabi/6.3.1/thumb/v7e-m/fpv4-sp/hard/crtbegin.o
 .bss.m_evt_handler
                0x200032d4        0x8 examples/dfu/CMakeFiles/dfu_nrf52832_xxAA_s132_5.0.0.dir/src/main.c.obj
 .bss.m_ble_evt_buffer
                0x200032dc       0x4f examples/dfu/CMakeFiles/dfu_nrf52832_xxAA_s132_5.0.0.dir/__/nrf_mesh_sdk.c.obj
 *fill*         0x2000332b        0x1 
 .bss.m_publish_timer
                0x2000332c       0x18 examples/dfu/CMakeFiles/dfu_nrf52832_xxAA_s132_5.0.0.dir/__/__/mesh/access/src/access_publish.c.obj
 .bss.m_publish_timer_counter
                0x20003344        0x4 examples/dfu/CMakeFiles/dfu_nrf52832_xxAA_s132_5.0.0.dir/__/__/mesh/access/src/access_publish.c.obj
 .bss.m_publish_timer_running
                0x20003348        0x1 examples/dfu/CMakeFiles/dfu_nrf52832_xxAA_s132_5.0.0.dir/__/__/mesh/access/src/access_publish.c.obj
 .bss.m_timer_resolution
                0x20003349        0x1 examples/dfu/CMakeFiles/dfu_nrf52832_xxAA_s132_5.0.0.dir/__/__/mesh/access/src/access_publish.c.obj
 *fill*         0x2000334a        0x2 
 .bss.mp_publication_list
                0x2000334c        0x4 examples/dfu/CMakeFiles/dfu_nrf52832_xxAA_s132_5.0.0.dir/__/__/mesh/access/src/access_publish.c.obj
 .bss.m_element_pool
                0x20003350        0x6 examples/dfu/CMakeFiles/dfu_nrf52832_xxAA_s132_5.0.0.dir/__/__/mesh/access/src/access.c.obj
 *fill*         0x20003356        0x2 
 .bss.m_flash_manager
                0x20003358       0x24 examples/dfu/CMakeFiles/dfu_nrf52832_xxAA_s132_5.0.0.dir/__/__/mesh/access/src/access.c.obj
 .bss.m_flash_not_ready
                0x2000337c        0x1 examples/dfu/CMakeFiles/dfu_nrf52832_xxAA_s132_5.0.0.dir/__/__/mesh/access/src/access.c.obj
 .bss.m_metadata_stored
                0x2000337d        0x1 examples/dfu/CMakeFiles/dfu_nrf52832_xxAA_s132_5.0.0.dir/__/__/mesh/access/src/access.c.obj
 *fill*         0x2000337e        0x2 
 .bss.m_model_pool
                0x20003380       0x68 examples/dfu/CMakeFiles/dfu_nrf52832_xxAA_s132_5.0.0.dir/__/__/mesh/access/src/access.c.obj
 .bss.m_subscription_list_pool
                0x200033e8       0x10 examples/dfu/CMakeFiles/dfu_nrf52832_xxAA_s132_5.0.0.dir/__/__/mesh/access/src/access.c.obj
 .bss.m_reliable
                0x200033f8       0x6c examples/dfu/CMakeFiles/dfu_nrf52832_xxAA_s132_5.0.0.dir/__/__/mesh/access/src/access_reliable.c.obj
 .bss.m_addr_nonvirtual_allocated
                0x20003464        0x4 examples/dfu/CMakeFiles/dfu_nrf52832_xxAA_s132_5.0.0.dir/__/__/mesh/access/src/device_state_manager.c.obj
 .bss.m_addr_nonvirtual_needs_flashing
                0x20003468        0x4 examples/dfu/CMakeFiles/dfu_nrf52832_xxAA_s132_5.0.0.dir/__/__/mesh/access/src/device_state_manager.c.obj
 .bss.m_addr_unicast_allocated
                0x2000346c        0x4 examples/dfu/CMakeFiles/dfu_nrf52832_xxAA_s132_5.0.0.dir/__/__/mesh/access/src/device_state_manager.c.obj
 .bss.m_addr_unicast_needs_flashing
                0x20003470        0x4 examples/dfu/CMakeFiles/dfu_nrf52832_xxAA_s132_5.0.0.dir/__/__/mesh/access/src/device_state_manager.c.obj
 .bss.m_addr_virtual_allocated
                0x20003474        0x4 examples/dfu/CMakeFiles/dfu_nrf52832_xxAA_s132_5.0.0.dir/__/__/mesh/access/src/device_state_manager.c.obj
 .bss.m_addr_virtual_needs_flashing
                0x20003478        0x4 examples/dfu/CMakeFiles/dfu_nrf52832_xxAA_s132_5.0.0.dir/__/__/mesh/access/src/device_state_manager.c.obj
 .bss.m_addresses
                0x2000347c       0x40 examples/dfu/CMakeFiles/dfu_nrf52832_xxAA_s132_5.0.0.dir/__/__/mesh/access/src/device_state_manager.c.obj
 .bss.m_appkey_allocated
                0x200034bc        0x4 examples/dfu/CMakeFiles/dfu_nrf52832_xxAA_s132_5.0.0.dir/__/__/mesh/access/src/device_state_manager.c.obj
 .bss.m_appkey_needs_flashing
                0x200034c0        0x4 examples/dfu/CMakeFiles/dfu_nrf52832_xxAA_s132_5.0.0.dir/__/__/mesh/access/src/device_state_manager.c.obj
 .bss.m_appkeys
                0x200034c4       0xb0 examples/dfu/CMakeFiles/dfu_nrf52832_xxAA_s132_5.0.0.dir/__/__/mesh/access/src/device_state_manager.c.obj
 .bss.m_devkey_allocated
                0x20003574        0x4 examples/dfu/CMakeFiles/dfu_nrf52832_xxAA_s132_5.0.0.dir/__/__/mesh/access/src/device_state_manager.c.obj
 .bss.m_devkey_needs_flashing
                0x20003578        0x4 examples/dfu/CMakeFiles/dfu_nrf52832_xxAA_s132_5.0.0.dir/__/__/mesh/access/src/device_state_manager.c.obj
 .bss.m_devkeys
                0x2000357c       0x16 examples/dfu/CMakeFiles/dfu_nrf52832_xxAA_s132_5.0.0.dir/__/__/mesh/access/src/device_state_manager.c.obj
 .bss.m_flash_is_available
                0x20003592        0x1 examples/dfu/CMakeFiles/dfu_nrf52832_xxAA_s132_5.0.0.dir/__/__/mesh/access/src/device_state_manager.c.obj
 *fill*         0x20003593        0x1 
 .bss.m_flash_manager
                0x20003594       0x24 examples/dfu/CMakeFiles/dfu_nrf52832_xxAA_s132_5.0.0.dir/__/__/mesh/access/src/device_state_manager.c.obj
 .bss.m_flash_mem_listener_update_all
                0x200035b8       0x10 examples/dfu/CMakeFiles/dfu_nrf52832_xxAA_s132_5.0.0.dir/__/__/mesh/access/src/device_state_manager.c.obj
 .bss.m_has_primary_subnet
                0x200035c8        0x1 examples/dfu/CMakeFiles/dfu_nrf52832_xxAA_s132_5.0.0.dir/__/__/mesh/access/src/device_state_manager.c.obj
 *fill*         0x200035c9        0x3 
 .bss.m_local_unicast_addr
                0x200035cc        0x4 examples/dfu/CMakeFiles/dfu_nrf52832_xxAA_s132_5.0.0.dir/__/__/mesh/access/src/device_state_manager.c.obj
 .bss.m_subnet_allocated
                0x200035d0        0x4 examples/dfu/CMakeFiles/dfu_nrf52832_xxAA_s132_5.0.0.dir/__/__/mesh/access/src/device_state_manager.c.obj
 .bss.m_subnet_needs_flashing
                0x200035d4        0x4 examples/dfu/CMakeFiles/dfu_nrf52832_xxAA_s132_5.0.0.dir/__/__/mesh/access/src/device_state_manager.c.obj
 .bss.m_subnets
                0x200035d8      0x170 examples/dfu/CMakeFiles/dfu_nrf52832_xxAA_s132_5.0.0.dir/__/__/mesh/access/src/device_state_manager.c.obj
 .bss.m_virtual_addresses
                0x20003748       0xa0 examples/dfu/CMakeFiles/dfu_nrf52832_xxAA_s132_5.0.0.dir/__/__/mesh/access/src/device_state_manager.c.obj
 .bss.m_can_receive
                0x200037e8        0x1 examples/dfu/CMakeFiles/dfu_nrf52832_xxAA_s132_5.0.0.dir/__/__/mesh/serial/src/serial_uart.c.obj
 *fill*         0x200037e9        0x3 
 .bss.m_char_rx_cb
                0x200037ec        0x4 examples/dfu/CMakeFiles/dfu_nrf52832_xxAA_s132_5.0.0.dir/__/__/mesh/serial/src/serial_uart.c.obj
 .bss.m_char_tx_cb
                0x200037f0        0x4 examples/dfu/CMakeFiles/dfu_nrf52832_xxAA_s132_5.0.0.dir/__/__/mesh/serial/src/serial_uart.c.obj
 .bss.m_cur_tx_packet_index
                0x200037f4        0x2 examples/dfu/CMakeFiles/dfu_nrf52832_xxAA_s132_5.0.0.dir/__/__/mesh/serial/src/serial_bearer.c.obj
 *fill*         0x200037f6        0x2 
 .bss.m_event_flag
                0x200037f8        0x4 examples/dfu/CMakeFiles/dfu_nrf52832_xxAA_s132_5.0.0.dir/__/__/mesh/serial/src/serial_bearer.c.obj
 .bss.m_rx_buffer
                0x200037fc       0xd0 examples/dfu/CMakeFiles/dfu_nrf52832_xxAA_s132_5.0.0.dir/__/__/mesh/serial/src/serial_bearer.c.obj
 .bss.m_rx_packet_buf
                0x200038cc        0xc examples/dfu/CMakeFiles/dfu_nrf52832_xxAA_s132_5.0.0.dir/__/__/mesh/serial/src/serial_bearer.c.obj
 .bss.m_serial_state
                0x200038d8        0x1 examples/dfu/CMakeFiles/dfu_nrf52832_xxAA_s132_5.0.0.dir/__/__/mesh/serial/src/serial_bearer.c.obj
 *fill*         0x200038d9        0x1 
 .bss.m_stored_pac_len
                0x200038da        0x2 examples/dfu/CMakeFiles/dfu_nrf52832_xxAA_s132_5.0.0.dir/__/__/mesh/serial/src/serial_bearer.c.obj
 .bss.m_tx_buffer
                0x200038dc       0xd0 examples/dfu/CMakeFiles/dfu_nrf52832_xxAA_s132_5.0.0.dir/__/__/mesh/serial/src/serial_bearer.c.obj
 .bss.m_tx_packet_buf
                0x200039ac        0xc examples/dfu/CMakeFiles/dfu_nrf52832_xxAA_s132_5.0.0.dir/__/__/mesh/serial/src/serial_bearer.c.obj
 .bss.mp_current_rx_packet
                0x200039b8        0x4 examples/dfu/CMakeFiles/dfu_nrf52832_xxAA_s132_5.0.0.dir/__/__/mesh/serial/src/serial_bearer.c.obj
 .bss.mp_current_tx_packet
                0x200039bc        0x4 examples/dfu/CMakeFiles/dfu_nrf52832_xxAA_s132_5.0.0.dir/__/__/mesh/serial/src/serial_bearer.c.obj
 .bss.rx_index.10894
                0x200039c0        0x2 examples/dfu/CMakeFiles/dfu_nrf52832_xxAA_s132_5.0.0.dir/__/__/mesh/serial/src/serial_bearer.c.obj
 .bss.m_cmd_handler_scheduled
                0x200039c2        0x1 examples/dfu/CMakeFiles/dfu_nrf52832_xxAA_s132_5.0.0.dir/__/__/mesh/serial/src/serial.c.obj
 .bss.m_state   0x200039c3        0x1 examples/dfu/CMakeFiles/dfu_nrf52832_xxAA_s132_5.0.0.dir/__/__/mesh/serial/src/serial.c.obj
 .bss.m_mesh_evt_handler
                0x200039c4        0x8 examples/dfu/CMakeFiles/dfu_nrf52832_xxAA_s132_5.0.0.dir/__/__/mesh/serial/src/serial_handler_prov.c.obj
 .bss.m_private_key
                0x200039cc       0x20 examples/dfu/CMakeFiles/dfu_nrf52832_xxAA_s132_5.0.0.dir/__/__/mesh/serial/src/serial_handler_prov.c.obj
 .bss.m_prov_contexts
                0x200039ec      0x5f8 examples/dfu/CMakeFiles/dfu_nrf52832_xxAA_s132_5.0.0.dir/__/__/mesh/serial/src/serial_handler_prov.c.obj
 .bss.m_provisioning_caps
                0x20003fe4        0xb examples/dfu/CMakeFiles/dfu_nrf52832_xxAA_s132_5.0.0.dir/__/__/mesh/serial/src/serial_handler_prov.c.obj
 *fill*         0x20003fef        0x1 
 .bss.m_public_key
                0x20003ff0       0x40 examples/dfu/CMakeFiles/dfu_nrf52832_xxAA_s132_5.0.0.dir/__/__/mesh/serial/src/serial_handler_prov.c.obj
 .bss.m_scanning_running
                0x20004030        0x1 examples/dfu/CMakeFiles/dfu_nrf52832_xxAA_s132_5.0.0.dir/__/__/mesh/serial/src/serial_handler_prov.c.obj
 *fill*         0x20004031        0x3 
 .bss.m_evt_handler
                0x20004034        0x8 examples/dfu/CMakeFiles/dfu_nrf52832_xxAA_s132_5.0.0.dir/__/__/mesh/serial/src/serial_handler_dfu.c.obj
 .bss.m_evt_handler
                0x2000403c        0x8 examples/dfu/CMakeFiles/dfu_nrf52832_xxAA_s132_5.0.0.dir/__/__/mesh/serial/src/serial_handler_mesh.c.obj
 .bss.p_serial_evt.11126
                0x20004044        0x4 examples/dfu/CMakeFiles/dfu_nrf52832_xxAA_s132_5.0.0.dir/__/__/mesh/serial/src/serial_handler_mesh.c.obj
 .bss.m_models_list
                0x20004048       0x18 examples/dfu/CMakeFiles/dfu_nrf52832_xxAA_s132_5.0.0.dir/__/__/mesh/serial/src/serial_handler_models.c.obj
 .bss.m_beacons
                0x20004060      0x134 examples/dfu/CMakeFiles/dfu_nrf52832_xxAA_s132_5.0.0.dir/__/__/mesh/serial/src/serial_handler_device.c.obj
 .bss.m_app_rx_cb
                0x20004194        0x4 examples/dfu/CMakeFiles/dfu_nrf52832_xxAA_s132_5.0.0.dir/__/__/mesh/serial/src/serial_handler_app.c.obj
 .bss.m_offload_ecdh
                0x20004198        0x1 examples/dfu/CMakeFiles/dfu_nrf52832_xxAA_s132_5.0.0.dir/__/__/mesh/prov/src/prov_utils.c.obj
 *fill*         0x20004199        0x3 
 .bss.mp_bearer_head
                0x2000419c        0x4 examples/dfu/CMakeFiles/dfu_nrf52832_xxAA_s132_5.0.0.dir/__/__/mesh/prov/src/prov_bearer_adv.c.obj
 .bss.m_adv_packet
                0x200041a0       0x28 examples/dfu/CMakeFiles/dfu_nrf52832_xxAA_s132_5.0.0.dir/__/__/mesh/dfu/src/nrf_mesh_dfu.c.obj
 .bss.m_broadcast
                0x200041c8       0x34 examples/dfu/CMakeFiles/dfu_nrf52832_xxAA_s132_5.0.0.dir/__/__/mesh/dfu/src/nrf_mesh_dfu.c.obj
 .bss.m_prng    0x200041fc       0x10 examples/dfu/CMakeFiles/dfu_nrf52832_xxAA_s132_5.0.0.dir/__/__/mesh/dfu/src/nrf_mesh_dfu.c.obj
 .bss.m_timer_evt
                0x2000420c       0x18 examples/dfu/CMakeFiles/dfu_nrf52832_xxAA_s132_5.0.0.dir/__/__/mesh/dfu/src/nrf_mesh_dfu.c.obj
 .bss.m_transfer_state
                0x20004224       0x12 examples/dfu/CMakeFiles/dfu_nrf52832_xxAA_s132_5.0.0.dir/__/__/mesh/dfu/src/nrf_mesh_dfu.c.obj
 *fill*         0x20004236        0x2 
 .bss.m_tx_slots
                0x20004238      0x120 examples/dfu/CMakeFiles/dfu_nrf52832_xxAA_s132_5.0.0.dir/__/__/mesh/dfu/src/nrf_mesh_dfu.c.obj
 .bss.m_tx_timer_evt
                0x20004358       0x18 examples/dfu/CMakeFiles/dfu_nrf52832_xxAA_s132_5.0.0.dir/__/__/mesh/dfu/src/nrf_mesh_dfu.c.obj
 .bss.mp_curr_fwid
                0x20004370        0x4 examples/dfu/CMakeFiles/dfu_nrf52832_xxAA_s132_5.0.0.dir/__/__/mesh/dfu/src/nrf_mesh_dfu.c.obj
 .bss.m_internal_event_fifo
                0x20004374       0x14 mesh/core/libmesh_core_nrf52832_xxAA.a(internal_event.c.obj)
 .bss.m_internal_event_fifo_buffer
                0x20004388      0x100 mesh/core/libmesh_core_nrf52832_xxAA.a(internal_event.c.obj)
 .bss.m_internal_event_initialized
                0x20004488        0x1 mesh/core/libmesh_core_nrf52832_xxAA.a(internal_event.c.obj)
 *fill*         0x20004489        0x3 
 .bss.m_report_cb
                0x2000448c        0x4 mesh/core/libmesh_core_nrf52832_xxAA.a(internal_event.c.obj)
 .bss.m_uuid    0x20004490       0x10 mesh/core/libmesh_core_nrf52832_xxAA.a(nrf_mesh_configure.c.obj)
 .bss.mp_evt_handlers_head
                0x200044a0        0x4 mesh/core/libmesh_core_nrf52832_xxAA.a(event.c.obj)
 .bss.lock_count.9906
                0x200044a4        0x4 mesh/core/libmesh_core_nrf52832_xxAA.a(net_state.c.obj)
 .bss.m_flash_manager
                0x200044a8       0x24 mesh/core/libmesh_core_nrf52832_xxAA.a(net_state.c.obj)
 .bss.m_iv_update_timer
                0x200044cc       0x18 mesh/core/libmesh_core_nrf52832_xxAA.a(net_state.c.obj)
 .bss.m_net_state
                0x200044e4       0x14 mesh/core/libmesh_core_nrf52832_xxAA.a(net_state.c.obj)
 .bss.m_seqnum_allocation_in_progress
                0x200044f8        0x1 mesh/core/libmesh_core_nrf52832_xxAA.a(net_state.c.obj)
 .bss.m_test_mode
                0x200044f9        0x1 mesh/core/libmesh_core_nrf52832_xxAA.a(net_state.c.obj)
 *fill*         0x200044fa        0x2 
 .bss.m_event_flag
                0x200044fc        0x4 mesh/core/libmesh_core_nrf52832_xxAA.a(mesh_flash.c.obj)
 .bss.m_suspended
                0x20004500        0x1 mesh/core/libmesh_core_nrf52832_xxAA.a(mesh_flash.c.obj)
 *fill*         0x20004501        0x3 
 .bss.m_users   0x20004504      0x228 mesh/core/libmesh_core_nrf52832_xxAA.a(mesh_flash.c.obj)
 .bss.suspend_count.10003
                0x2000472c        0x4 mesh/core/libmesh_core_nrf52832_xxAA.a(mesh_flash.c.obj)
 .bss.m_is_enabled
                0x20004730        0x1 mesh/core/libmesh_core_nrf52832_xxAA.a(nrf_mesh.c.obj)
 .bss.m_is_initialized
                0x20004731        0x1 mesh/core/libmesh_core_nrf52832_xxAA.a(nrf_mesh.c.obj)
 *fill*         0x20004732        0x2 
 .bss.m_rx_cb   0x20004734        0x4 mesh/core/libmesh_core_nrf52832_xxAA.a(nrf_mesh.c.obj)
 .bss.m_event_flag
                0x20004738        0x4 mesh/core/libmesh_core_nrf52832_xxAA.a(timer_scheduler.c.obj)
 .bss.m_scheduler
                0x2000473c       0x10 mesh/core/libmesh_core_nrf52832_xxAA.a(timer_scheduler.c.obj)
 .bss.m_attributes
                0x2000474c        0x3 mesh/core/libmesh_core_nrf52832_xxAA.a(timer.c.obj)
 *fill*         0x2000474f        0x1 
 .bss.m_callbacks
                0x20004750        0xc mesh/core/libmesh_core_nrf52832_xxAA.a(timer.c.obj)
 .bss.m_is_in_ts
                0x2000475c        0x1 mesh/core/libmesh_core_nrf52832_xxAA.a(timer.c.obj)
 *fill*         0x2000475d        0x3 
 .bss.m_reference_time
                0x20004760        0x4 mesh/core/libmesh_core_nrf52832_xxAA.a(timer.c.obj)
 .bss.m_timeouts
                0x20004764        0xc mesh/core/libmesh_core_nrf52832_xxAA.a(timer.c.obj)
 .bss.m_timer_mut
                0x20004770        0x4 mesh/core/libmesh_core_nrf52832_xxAA.a(timer.c.obj)
 .bss.m_ts_end_time
                0x20004774        0x4 mesh/core/libmesh_core_nrf52832_xxAA.a(timer.c.obj)
 .bss.mp_ppi_tasks
                0x20004778        0xc mesh/core/libmesh_core_nrf52832_xxAA.a(timer.c.obj)
 .bss.m_current_time
                0x20004784        0x4 mesh/core/libmesh_core_nrf52832_xxAA.a(ticker.c.obj)
 .bss.m_timer   0x20004788       0x18 mesh/core/libmesh_core_nrf52832_xxAA.a(ticker.c.obj)
 .bss.m_current_timeslot
                0x200047a0       0x1c mesh/core/libmesh_core_nrf52832_xxAA.a(timeslot.c.obj)
 .bss.m_lfclk_ppm
                0x200047bc        0x4 mesh/core/libmesh_core_nrf52832_xxAA.a(timeslot.c.obj)
 .bss.m_radio_request_earliest
                0x200047c0       0x10 mesh/core/libmesh_core_nrf52832_xxAA.a(timeslot.c.obj)
 .bss.m_state_lock
                0x200047d0        0x1 mesh/core/libmesh_core_nrf52832_xxAA.a(timeslot.c.obj)
 .bss.m_timeslot_forced_command
                0x200047d1        0x1 mesh/core/libmesh_core_nrf52832_xxAA.a(timeslot.c.obj)
 *fill*         0x200047d2        0x6 
 .bss.s_last_rtc_value.9171
                0x200047d8        0x8 mesh/core/libmesh_core_nrf52832_xxAA.a(timeslot.c.obj)
 .bss.m_bearer_event_fifo
                0x200047e0       0x14 mesh/core/libmesh_core_nrf52832_xxAA.a(bearer_event.c.obj)
 .bss.m_bearer_event_fifo_buffer
                0x200047f4      0x100 mesh/core/libmesh_core_nrf52832_xxAA.a(bearer_event.c.obj)
 .bss.m_critical
                0x200048f4        0x4 mesh/core/libmesh_core_nrf52832_xxAA.a(bearer_event.c.obj)
 .bss.m_flag_count
                0x200048f8        0x4 mesh/core/libmesh_core_nrf52832_xxAA.a(bearer_event.c.obj)
 .bss.m_flag_event_callbacks
                0x200048fc       0x18 mesh/core/libmesh_core_nrf52832_xxAA.a(bearer_event.c.obj)
 .bss.m_flags   0x20004914        0x4 mesh/core/libmesh_core_nrf52832_xxAA.a(bearer_event.c.obj)
 .bss.m_sequential_event_queue
                0x20004918        0x8 mesh/core/libmesh_core_nrf52832_xxAA.a(bearer_event.c.obj)
 .bss.m_relay_check_cb
                0x20004920        0x4 mesh/core/libmesh_core_nrf52832_xxAA.a(network.c.obj)
 .bss.m_relay_enable
                0x20004924        0x1 mesh/core/libmesh_core_nrf52832_xxAA.a(network.c.obj)
 *fill*         0x20004925        0x3 
 .bss.m_action_queue
                0x20004928        0xc mesh/core/libmesh_core_nrf52832_xxAA.a(flash_manager.c.obj)
 .bss.m_action_queue_buffer
                0x20004934      0x104 mesh/core/libmesh_core_nrf52832_xxAA.a(flash_manager.c.obj)
 .bss.m_action_state
                0x20004a38        0x1 mesh/core/libmesh_core_nrf52832_xxAA.a(flash_manager.c.obj)
 *fill*         0x20004a39        0x3 
 .bss.m_memory_listener_queue
                0x20004a3c        0x8 mesh/core/libmesh_core_nrf52832_xxAA.a(flash_manager.c.obj)
 .bss.m_processing_flag
                0x20004a44        0x4 mesh/core/libmesh_core_nrf52832_xxAA.a(flash_manager.c.obj)
 .bss.m_state   0x20004a48        0x1 mesh/core/libmesh_core_nrf52832_xxAA.a(flash_manager.c.obj)
 *fill*         0x20004a49        0x1 
 .bss.m_token   0x20004a4a        0x2 mesh/core/libmesh_core_nrf52832_xxAA.a(flash_manager.c.obj)
 .bss.p_current.11023
                0x20004a4c        0x4 mesh/core/libmesh_core_nrf52832_xxAA.a(flash_manager.c.obj)
 .bss.result.11024
                0x20004a50        0x1 mesh/core/libmesh_core_nrf52832_xxAA.a(flash_manager.c.obj)
 *fill*         0x20004a51        0x3 
 .bss.m_adv_buffer
                0x20004a54       0x68 mesh/core/libmesh_core_nrf52832_xxAA.a(beacon.c.obj)
 .bss.m_advertiser
                0x20004abc       0x94 mesh/core/libmesh_core_nrf52832_xxAA.a(beacon.c.obj)
 .bss.m_adv_tx_count
                0x20004b50        0x8 mesh/core/libmesh_core_nrf52832_xxAA.a(core_tx.c.obj)
 .bss.m_advertisers
                0x20004b58      0x128 mesh/core/libmesh_core_nrf52832_xxAA.a(core_tx.c.obj)
 .bss.m_originator_adv_packet_buffer
                0x20004c80      0x100 mesh/core/libmesh_core_nrf52832_xxAA.a(core_tx.c.obj)
 .bss.m_relay_adv_packet_buffer
                0x20004d80       0x80 mesh/core/libmesh_core_nrf52832_xxAA.a(core_tx.c.obj)
 .bss.m_tx_complete_callback
                0x20004e00        0x4 mesh/core/libmesh_core_nrf52832_xxAA.a(core_tx.c.obj)
 .bss.m_beacon_salt
                0x20004e04       0x10 mesh/core/libmesh_core_nrf52832_xxAA.a(net_beacon.c.obj)
 .bss.m_enabled
                0x20004e14        0x1 mesh/core/libmesh_core_nrf52832_xxAA.a(net_beacon.c.obj)
 *fill*         0x20004e15        0x3 
 .bss.m_tx_event
                0x20004e18       0x18 mesh/core/libmesh_core_nrf52832_xxAA.a(net_beacon.c.obj)
 .bss.m_adv_prng
                0x20004e30       0x10 mesh/core/libmesh_core_nrf52832_xxAA.a(advertiser.c.obj)
 .bss.m_action_queue
                0x20004e40        0x8 mesh/core/libmesh_core_nrf52832_xxAA.a(bearer_handler.c.obj)
 .bss.m_end_time
                0x20004e48        0x4 mesh/core/libmesh_core_nrf52832_xxAA.a(bearer_handler.c.obj)
 .bss.m_scanner_is_active
                0x20004e4c        0x1 mesh/core/libmesh_core_nrf52832_xxAA.a(bearer_handler.c.obj)
 .bss.m_stopped
                0x20004e4d        0x1 mesh/core/libmesh_core_nrf52832_xxAA.a(bearer_handler.c.obj)
 *fill*         0x20004e4e        0x2 
 .bss.mp_action
                0x20004e50        0x4 mesh/core/libmesh_core_nrf52832_xxAA.a(bearer_handler.c.obj)
 .bss.m_next_channel_index
                0x20004e54        0x1 mesh/core/libmesh_core_nrf52832_xxAA.a(broadcast.c.obj)
 *fill*         0x20004e55        0x3 
 .bss.m_scanner
                0x20004e58      0x284 mesh/core/libmesh_core_nrf52832_xxAA.a(scanner.c.obj)
 .bss.m_msg_cache
                0x200050dc      0x100 mesh/core/libmesh_core_nrf52832_xxAA.a(msg_cache.c.obj)
 .bss.m_msg_cache_head
                0x200051dc        0x4 mesh/core/libmesh_core_nrf52832_xxAA.a(msg_cache.c.obj)
 .bss.m_sar_alloc
                0x200051e0        0x4 mesh/core/libmesh_core_nrf52832_xxAA.a(transport.c.obj)
 .bss.m_sar_process_flag
                0x200051e4        0x4 mesh/core/libmesh_core_nrf52832_xxAA.a(transport.c.obj)
 .bss.m_sar_release
                0x200051e8        0x4 mesh/core/libmesh_core_nrf52832_xxAA.a(transport.c.obj)
 .bss.m_sar_session_cache
                0x200051ec       0x40 mesh/core/libmesh_core_nrf52832_xxAA.a(transport.c.obj)
 .bss.m_sar_session_cache_head
                0x2000522c        0x4 mesh/core/libmesh_core_nrf52832_xxAA.a(transport.c.obj)
 .bss.m_trs_config
                0x20005230       0x18 mesh/core/libmesh_core_nrf52832_xxAA.a(transport.c.obj)
 .bss.m_trs_sar_sessions
                0x20005248      0x1b0 mesh/core/libmesh_core_nrf52832_xxAA.a(transport.c.obj)
 .bss.m_defrag  0x200053f8       0x1c mesh/core/libmesh_core_nrf52832_xxAA.a(flash_manager_defrag.c.obj)
 .bss.m_token   0x20005414        0x2 mesh/core/libmesh_core_nrf52832_xxAA.a(flash_manager_defrag.c.obj)
 *fill*         0x20005416        0x2 
 .bss.mp_recovery_area
                0x20005418        0x4 mesh/core/libmesh_core_nrf52832_xxAA.a(flash_manager_defrag.c.obj)
 .bss.p_null_ptr.10076
                0x2000541c        0x4 mesh/core/libmesh_core_nrf52832_xxAA.a(flash_manager_defrag.c.obj)
 .bss.m_pool    0x20005420     0x1000 mesh/core/libmesh_core_nrf52832_xxAA.a(packet_mgr.c.obj)
 .bss.mp_free_head
                0x20006420        0x4 mesh/core/libmesh_core_nrf52832_xxAA.a(packet_mgr.c.obj)
 .bss.m_128buf  0x20006424       0x10 mesh/core/libmesh_core_nrf52832_xxAA.a(aes_cmac.c.obj)
 .bss.m_subkey1
                0x20006434       0x10 mesh/core/libmesh_core_nrf52832_xxAA.a(aes_cmac.c.obj)
 .bss.m_subkey2
                0x20006444       0x10 mesh/core/libmesh_core_nrf52832_xxAA.a(aes_cmac.c.obj)
 .bss.m_cache_full
                0x20006454        0x1 mesh/core/libmesh_core_nrf52832_xxAA.a(replay_cache.c.obj)
 .bss.m_cache_index
                0x20006455        0x1 mesh/core/libmesh_core_nrf52832_xxAA.a(replay_cache.c.obj)
 *fill*         0x20006456        0x2 
 .bss.m_replay_cache
                0x20006458      0x200 mesh/core/libmesh_core_nrf52832_xxAA.a(replay_cache.c.obj)
 .bss.m_accepted_amount
                0x20006658        0x4 mesh/core/libmesh_core_nrf52832_xxAA.a(filter_engine.c.obj)
 .bss.m_filter_list_head
                0x2000665c        0x4 mesh/core/libmesh_core_nrf52832_xxAA.a(filter_engine.c.obj)
 .bss._acDownBuffer
                0x20006660       0x80 external/rtt/librtt_nrf52832_xxAA.a(SEGGER_RTT.c.obj)
 .bss._acUpBuffer
                0x200066e0      0x400 external/rtt/librtt_nrf52832_xxAA.a(SEGGER_RTT.c.obj)
 .bss.__malloc_free_list
                0x20006ae0        0x4 c:/a/gcc_arm/6/bin/../lib/gcc/arm-none-eabi/6.3.1/../../../../arm-none-eabi/lib/thumb/v7e-m/fpv4-sp/hard\libc_nano.a(lib_a-nano-mallocr.o)
                0x20006ae0                __malloc_free_list
 .bss.__malloc_sbrk_start
                0x20006ae4        0x4 c:/a/gcc_arm/6/bin/../lib/gcc/arm-none-eabi/6.3.1/../../../../arm-none-eabi/lib/thumb/v7e-m/fpv4-sp/hard\libc_nano.a(lib_a-nano-mallocr.o)
                0x20006ae4                __malloc_sbrk_start
 .bss.heap_end.5239
                0x20006ae8        0x4 c:/a/gcc_arm/6/bin/../lib/gcc/arm-none-eabi/6.3.1/../../../../arm-none-eabi/lib/thumb/v7e-m/fpv4-sp/hard\libnosys.a(sbrk.o)
 *(COMMON)
 COMMON         0x20006aec        0x8 examples/dfu/CMakeFiles/dfu_nrf52832_xxAA_s132_5.0.0.dir/src/main.c.obj
                0x20006aec                bank_addr
                0x20006af0                rom_length
 COMMON         0x20006af4        0xc examples/dfu/CMakeFiles/dfu_nrf52832_xxAA_s132_5.0.0.dir/__/nrf_mesh_sdk.c.obj
                0x20006af4                nrf_nvic_state
 COMMON         0x20006b00        0x4 examples/dfu/CMakeFiles/dfu_nrf52832_xxAA_s132_5.0.0.dir/__/__/mesh/dfu/src/nrf_mesh_dfu.c.obj
                0x20006b00                m_cmd_handler
 COMMON         0x20006b04        0x4 mesh/core/libmesh_core_nrf52832_xxAA.a(nrf_mesh.c.obj)
                0x20006b04                m_assertion_handler
 COMMON         0x20006b08       0x78 external/rtt/librtt_nrf52832_xxAA.a(SEGGER_RTT.c.obj)
                0x20006b08                _SEGGER_RTT
 COMMON         0x20006b80        0x4 c:/a/gcc_arm/6/bin/../lib/gcc/arm-none-eabi/6.3.1/../../../../arm-none-eabi/lib/thumb/v7e-m/fpv4-sp/hard\libc_nano.a(lib_a-reent.o)
                0x20006b80                errno
                0x20006b84                . = ALIGN (0x4)
                0x20006b84                __bss_end__ = .

.heap           0x20006b88     0x2000
                0x20006b88                __HeapBase = .
                0x20006b88                __end__ = .
                0x20006b88                PROVIDE (end, .)
 *(.heap*)
 .heap          0x20006b88     0x2000 examples/dfu/CMakeFiles/dfu_nrf52832_xxAA_s132_5.0.0.dir/__/__/external/nRF5_SDK_14.0.0_3bcc1f7/components/toolchain/gcc/gcc_startup_nrf52.S.obj
                0x20008b88                __HeapLimit = .

.stack_dummy    0x20006b88     0x2000
 *(.stack*)
 .stack         0x20006b88     0x2000 examples/dfu/CMakeFiles/dfu_nrf52832_xxAA_s132_5.0.0.dir/__/__/external/nRF5_SDK_14.0.0_3bcc1f7/components/toolchain/gcc/gcc_startup_nrf52.S.obj
                0x2000f000                __StackTop = (ORIGIN (RAM) + LENGTH (RAM))
                0x2000d000                __StackLimit = (__StackTop - SIZEOF (.stack_dummy))
                0x2000f000                PROVIDE (__stack, __StackTop)
                0x00000001                ASSERT ((__StackLimit >= __HeapLimit), region RAM overflowed with stack)
OUTPUT(examples\dfu\dfu_nrf52832_xxAA_s132_5.0.0.elf elf32-littlearm)

.ARM.attributes
                0x00000000       0x30
 .ARM.attributes
                0x00000000       0x22 c:/a/gcc_arm/6/bin/../lib/gcc/arm-none-eabi/6.3.1/thumb/v7e-m/fpv4-sp/hard/crti.o
 .ARM.attributes
                0x00000022       0x34 c:/a/gcc_arm/6/bin/../lib/gcc/arm-none-eabi/6.3.1/thumb/v7e-m/fpv4-sp/hard/crtbegin.o
 .ARM.attributes
                0x00000056       0x20 c:/a/gcc_arm/6/bin/../lib/gcc/arm-none-eabi/6.3.1/../../../../arm-none-eabi/lib/thumb/v7e-m/fpv4-sp/hard/crt0.o
 .ARM.attributes
                0x00000076       0x39 examples/dfu/CMakeFiles/dfu_nrf52832_xxAA_s132_5.0.0.dir/src/main.c.obj
 .ARM.attributes
                0x000000af       0x39 examples/dfu/CMakeFiles/dfu_nrf52832_xxAA_s132_5.0.0.dir/__/nrf_mesh_sdk.c.obj
 .ARM.attributes
                0x000000e8       0x39 examples/dfu/CMakeFiles/dfu_nrf52832_xxAA_s132_5.0.0.dir/__/__/mesh/access/src/access_publish.c.obj
 .ARM.attributes
                0x00000121       0x39 examples/dfu/CMakeFiles/dfu_nrf52832_xxAA_s132_5.0.0.dir/__/__/mesh/access/src/access.c.obj
 .ARM.attributes
                0x0000015a       0x39 examples/dfu/CMakeFiles/dfu_nrf52832_xxAA_s132_5.0.0.dir/__/__/mesh/access/src/access_reliable.c.obj
 .ARM.attributes
                0x00000193       0x39 examples/dfu/CMakeFiles/dfu_nrf52832_xxAA_s132_5.0.0.dir/__/__/mesh/access/src/device_state_manager.c.obj
 .ARM.attributes
                0x000001cc       0x39 examples/dfu/CMakeFiles/dfu_nrf52832_xxAA_s132_5.0.0.dir/__/__/mesh/serial/src/serial_uart.c.obj
 .ARM.attributes
                0x00000205       0x39 examples/dfu/CMakeFiles/dfu_nrf52832_xxAA_s132_5.0.0.dir/__/__/mesh/serial/src/serial_bearer.c.obj
 .ARM.attributes
                0x0000023e       0x39 examples/dfu/CMakeFiles/dfu_nrf52832_xxAA_s132_5.0.0.dir/__/__/mesh/serial/src/serial_handler_common.c.obj
 .ARM.attributes
                0x00000277       0x39 examples/dfu/CMakeFiles/dfu_nrf52832_xxAA_s132_5.0.0.dir/__/__/mesh/serial/src/serial_handler_access.c.obj
 .ARM.attributes
                0x000002b0       0x39 examples/dfu/CMakeFiles/dfu_nrf52832_xxAA_s132_5.0.0.dir/__/__/mesh/serial/src/serial_handler_config.c.obj
 .ARM.attributes
                0x000002e9       0x39 examples/dfu/CMakeFiles/dfu_nrf52832_xxAA_s132_5.0.0.dir/__/__/mesh/serial/src/serial_handler_openmesh.c.obj
 .ARM.attributes
                0x00000322       0x39 examples/dfu/CMakeFiles/dfu_nrf52832_xxAA_s132_5.0.0.dir/__/__/mesh/serial/src/serial.c.obj
 .ARM.attributes
                0x0000035b       0x39 examples/dfu/CMakeFiles/dfu_nrf52832_xxAA_s132_5.0.0.dir/__/__/mesh/serial/src/serial_handler_prov.c.obj
 .ARM.attributes
                0x00000394       0x39 examples/dfu/CMakeFiles/dfu_nrf52832_xxAA_s132_5.0.0.dir/__/__/mesh/serial/src/serial_handler_dfu.c.obj
 .ARM.attributes
                0x000003cd       0x39 examples/dfu/CMakeFiles/dfu_nrf52832_xxAA_s132_5.0.0.dir/__/__/mesh/serial/src/serial_handler_mesh.c.obj
 .ARM.attributes
                0x00000406       0x39 examples/dfu/CMakeFiles/dfu_nrf52832_xxAA_s132_5.0.0.dir/__/__/mesh/serial/src/serial_handler_models.c.obj
 .ARM.attributes
                0x0000043f       0x39 examples/dfu/CMakeFiles/dfu_nrf52832_xxAA_s132_5.0.0.dir/__/__/mesh/serial/src/serial_handler_device.c.obj
 .ARM.attributes
                0x00000478       0x39 examples/dfu/CMakeFiles/dfu_nrf52832_xxAA_s132_5.0.0.dir/__/__/mesh/serial/src/nrf_mesh_serial.c.obj
 .ARM.attributes
                0x000004b1       0x39 examples/dfu/CMakeFiles/dfu_nrf52832_xxAA_s132_5.0.0.dir/__/__/mesh/serial/src/serial_handler_app.c.obj
 .ARM.attributes
                0x000004ea       0x39 examples/dfu/CMakeFiles/dfu_nrf52832_xxAA_s132_5.0.0.dir/__/__/mesh/prov/src/prov_provisioner.c.obj
 .ARM.attributes
                0x00000523       0x39 examples/dfu/CMakeFiles/dfu_nrf52832_xxAA_s132_5.0.0.dir/__/__/mesh/prov/src/prov_provisionee.c.obj
 .ARM.attributes
                0x0000055c       0x39 examples/dfu/CMakeFiles/dfu_nrf52832_xxAA_s132_5.0.0.dir/__/__/mesh/prov/src/nrf_mesh_prov.c.obj
 .ARM.attributes
                0x00000595       0x39 examples/dfu/CMakeFiles/dfu_nrf52832_xxAA_s132_5.0.0.dir/__/__/mesh/prov/src/provisioning.c.obj
 .ARM.attributes
                0x000005ce       0x39 examples/dfu/CMakeFiles/dfu_nrf52832_xxAA_s132_5.0.0.dir/__/__/mesh/prov/src/prov_beacon.c.obj
 .ARM.attributes
                0x00000607       0x39 examples/dfu/CMakeFiles/dfu_nrf52832_xxAA_s132_5.0.0.dir/__/__/mesh/prov/src/prov_utils.c.obj
 .ARM.attributes
                0x00000640       0x39 examples/dfu/CMakeFiles/dfu_nrf52832_xxAA_s132_5.0.0.dir/__/__/mesh/prov/src/prov_bearer_adv.c.obj
 .ARM.attributes
                0x00000679       0x39 examples/dfu/CMakeFiles/dfu_nrf52832_xxAA_s132_5.0.0.dir/__/__/mesh/dfu/src/nrf_mesh_dfu.c.obj
 .ARM.attributes
                0x000006b2       0x39 examples/dfu/CMakeFiles/dfu_nrf52832_xxAA_s132_5.0.0.dir/__/__/external/nRF5_SDK_14.0.0_3bcc1f7/components/toolchain/system_nrf52.c.obj
 .ARM.attributes
                0x000006eb       0x20 examples/dfu/CMakeFiles/dfu_nrf52832_xxAA_s132_5.0.0.dir/__/__/external/nRF5_SDK_14.0.0_3bcc1f7/components/toolchain/gcc/gcc_startup_nrf52.S.obj
 .ARM.attributes
                0x0000070b       0x39 mesh/core/libmesh_core_nrf52832_xxAA.a(internal_event.c.obj)
 .ARM.attributes
                0x00000744       0x39 mesh/core/libmesh_core_nrf52832_xxAA.a(nrf_mesh_configure.c.obj)
 .ARM.attributes
                0x0000077d       0x39 mesh/core/libmesh_core_nrf52832_xxAA.a(event.c.obj)
 .ARM.attributes
                0x000007b6       0x39 mesh/core/libmesh_core_nrf52832_xxAA.a(packet_buffer.c.obj)
 .ARM.attributes
                0x000007ef       0x39 mesh/core/libmesh_core_nrf52832_xxAA.a(fifo.c.obj)
 .ARM.attributes
                0x00000828       0x39 mesh/core/libmesh_core_nrf52832_xxAA.a(net_state.c.obj)
 .ARM.attributes
                0x00000861       0x39 mesh/core/libmesh_core_nrf52832_xxAA.a(mesh_flash.c.obj)
 .ARM.attributes
                0x0000089a       0x39 mesh/core/libmesh_core_nrf52832_xxAA.a(nrf_mesh_utils.c.obj)
 .ARM.attributes
                0x000008d3       0x39 mesh/core/libmesh_core_nrf52832_xxAA.a(nrf_mesh.c.obj)
 .ARM.attributes
                0x0000090c       0x39 mesh/core/libmesh_core_nrf52832_xxAA.a(hal.c.obj)
 .ARM.attributes
                0x00000945       0x39 mesh/core/libmesh_core_nrf52832_xxAA.a(timer_scheduler.c.obj)
 .ARM.attributes
                0x0000097e       0x39 mesh/core/libmesh_core_nrf52832_xxAA.a(timer.c.obj)
 .ARM.attributes
                0x000009b7       0x39 mesh/core/libmesh_core_nrf52832_xxAA.a(ticker.c.obj)
 .ARM.attributes
                0x000009f0       0x39 mesh/core/libmesh_core_nrf52832_xxAA.a(rand.c.obj)
 .ARM.attributes
                0x00000a29       0x39 mesh/core/libmesh_core_nrf52832_xxAA.a(timeslot.c.obj)
 .ARM.attributes
                0x00000a62       0x39 mesh/core/libmesh_core_nrf52832_xxAA.a(bearer_event.c.obj)
 .ARM.attributes
                0x00000a9b       0x39 mesh/core/libmesh_core_nrf52832_xxAA.a(enc.c.obj)
 .ARM.attributes
                0x00000ad4       0x39 mesh/core/libmesh_core_nrf52832_xxAA.a(network.c.obj)
 .ARM.attributes
                0x00000b0d       0x39 mesh/core/libmesh_core_nrf52832_xxAA.a(msqueue.c.obj)
 .ARM.attributes
                0x00000b46       0x39 mesh/core/libmesh_core_nrf52832_xxAA.a(nrf_mesh_keygen.c.obj)
 .ARM.attributes
                0x00000b7f       0x39 mesh/core/libmesh_core_nrf52832_xxAA.a(log.c.obj)
 .ARM.attributes
                0x00000bb8       0x39 mesh/core/libmesh_core_nrf52832_xxAA.a(flash_manager.c.obj)
 .ARM.attributes
                0x00000bf1       0x39 mesh/core/libmesh_core_nrf52832_xxAA.a(ccm_soft.c.obj)
 .ARM.attributes
                0x00000c2a       0x39 mesh/core/libmesh_core_nrf52832_xxAA.a(beacon.c.obj)
 .ARM.attributes
                0x00000c63       0x39 mesh/core/libmesh_core_nrf52832_xxAA.a(flash_manager_internal.c.obj)
 .ARM.attributes
                0x00000c9c       0x39 mesh/core/libmesh_core_nrf52832_xxAA.a(core_tx.c.obj)
 .ARM.attributes
                0x00000cd5       0x39 mesh/core/libmesh_core_nrf52832_xxAA.a(net_beacon.c.obj)
 .ARM.attributes
                0x00000d0e       0x39 mesh/core/libmesh_core_nrf52832_xxAA.a(advertiser.c.obj)
 .ARM.attributes
                0x00000d47       0x39 mesh/core/libmesh_core_nrf52832_xxAA.a(bearer_handler.c.obj)
 .ARM.attributes
                0x00000d80       0x39 mesh/core/libmesh_core_nrf52832_xxAA.a(broadcast.c.obj)
 .ARM.attributes
                0x00000db9       0x39 mesh/core/libmesh_core_nrf52832_xxAA.a(radio_config.c.obj)
 .ARM.attributes
                0x00000df2       0x39 mesh/core/libmesh_core_nrf52832_xxAA.a(scanner.c.obj)
 .ARM.attributes
                0x00000e2b       0x39 mesh/core/libmesh_core_nrf52832_xxAA.a(aes.c.obj)
 .ARM.attributes
                0x00000e64       0x39 mesh/core/libmesh_core_nrf52832_xxAA.a(msg_cache.c.obj)
 .ARM.attributes
                0x00000e9d       0x39 mesh/core/libmesh_core_nrf52832_xxAA.a(transport.c.obj)
 .ARM.attributes
                0x00000ed6       0x39 mesh/core/libmesh_core_nrf52832_xxAA.a(flash_manager_defrag.c.obj)
 .ARM.attributes
                0x00000f0f       0x39 mesh/core/libmesh_core_nrf52832_xxAA.a(nrf_flash.c.obj)
 .ARM.attributes
                0x00000f48       0x39 mesh/core/libmesh_core_nrf52832_xxAA.a(packet_mgr.c.obj)
 .ARM.attributes
                0x00000f81       0x39 mesh/core/libmesh_core_nrf52832_xxAA.a(queue.c.obj)
 .ARM.attributes
                0x00000fba       0x39 mesh/core/libmesh_core_nrf52832_xxAA.a(aes_cmac.c.obj)
 .ARM.attributes
                0x00000ff3       0x39 mesh/core/libmesh_core_nrf52832_xxAA.a(replay_cache.c.obj)
 .ARM.attributes
                0x0000102c       0x39 mesh/core/libmesh_core_nrf52832_xxAA.a(filter_engine.c.obj)
 .ARM.attributes
                0x00001065       0x39 external/rtt/librtt_nrf52832_xxAA.a(SEGGER_RTT.c.obj)
 .ARM.attributes
                0x0000109e       0x39 external/rtt/librtt_nrf52832_xxAA.a(SEGGER_RTT_printf.c.obj)
 .ARM.attributes
                0x000010d7       0x39 external/micro-ecc/libuECC_nrf52832_xxAA.a(uECC.c.obj)
 .ARM.attributes
                0x00001110       0x34 c:/a/gcc_arm/6/bin/../lib/gcc/arm-none-eabi/6.3.1/../../../../arm-none-eabi/lib/thumb/v7e-m/fpv4-sp/hard\libc_nano.a(lib_a-exit.o)
 .ARM.attributes
                0x00001144       0x34 c:/a/gcc_arm/6/bin/../lib/gcc/arm-none-eabi/6.3.1/../../../../arm-none-eabi/lib/thumb/v7e-m/fpv4-sp/hard\libc_nano.a(lib_a-impure.o)
 .ARM.attributes
                0x00001178       0x34 c:/a/gcc_arm/6/bin/../lib/gcc/arm-none-eabi/6.3.1/../../../../arm-none-eabi/lib/thumb/v7e-m/fpv4-sp/hard\libc_nano.a(lib_a-init.o)
 .ARM.attributes
                0x000011ac       0x34 c:/a/gcc_arm/6/bin/../lib/gcc/arm-none-eabi/6.3.1/../../../../arm-none-eabi/lib/thumb/v7e-m/fpv4-sp/hard\libc_nano.a(lib_a-malloc.o)
 .ARM.attributes
                0x000011e0       0x34 c:/a/gcc_arm/6/bin/../lib/gcc/arm-none-eabi/6.3.1/../../../../arm-none-eabi/lib/thumb/v7e-m/fpv4-sp/hard\libc_nano.a(lib_a-memcmp.o)
 .ARM.attributes
                0x00001214       0x34 c:/a/gcc_arm/6/bin/../lib/gcc/arm-none-eabi/6.3.1/../../../../arm-none-eabi/lib/thumb/v7e-m/fpv4-sp/hard\libc_nano.a(lib_a-memcpy-stub.o)
 .ARM.attributes
                0x00001248       0x34 c:/a/gcc_arm/6/bin/../lib/gcc/arm-none-eabi/6.3.1/../../../../arm-none-eabi/lib/thumb/v7e-m/fpv4-sp/hard\libc_nano.a(lib_a-memset.o)
 .ARM.attributes
                0x0000127c       0x34 c:/a/gcc_arm/6/bin/../lib/gcc/arm-none-eabi/6.3.1/../../../../arm-none-eabi/lib/thumb/v7e-m/fpv4-sp/hard\libc_nano.a(lib_a-nano-freer.o)
 .ARM.attributes
                0x000012b0       0x34 c:/a/gcc_arm/6/bin/../lib/gcc/arm-none-eabi/6.3.1/../../../../arm-none-eabi/lib/thumb/v7e-m/fpv4-sp/hard\libc_nano.a(lib_a-nano-mallocr.o)
 .ARM.attributes
                0x000012e4       0x34 c:/a/gcc_arm/6/bin/../lib/gcc/arm-none-eabi/6.3.1/../../../../arm-none-eabi/lib/thumb/v7e-m/fpv4-sp/hard\libc_nano.a(lib_a-sbrkr.o)
 .ARM.attributes
                0x00001318       0x34 c:/a/gcc_arm/6/bin/../lib/gcc/arm-none-eabi/6.3.1/../../../../arm-none-eabi/lib/thumb/v7e-m/fpv4-sp/hard\libc_nano.a(lib_a-strcpy.o)
 .ARM.attributes
                0x0000134c       0x1b c:/a/gcc_arm/6/bin/../lib/gcc/arm-none-eabi/6.3.1/../../../../arm-none-eabi/lib/thumb/v7e-m/fpv4-sp/hard\libc_nano.a(lib_a-strlen.o)
 .ARM.attributes
                0x00001367       0x34 c:/a/gcc_arm/6/bin/../lib/gcc/arm-none-eabi/6.3.1/../../../../arm-none-eabi/lib/thumb/v7e-m/fpv4-sp/hard\libc_nano.a(lib_a-strrchr.o)
 .ARM.attributes
                0x0000139b       0x34 c:/a/gcc_arm/6/bin/../lib/gcc/arm-none-eabi/6.3.1/../../../../arm-none-eabi/lib/thumb/v7e-m/fpv4-sp/hard\libc_nano.a(lib_a-mlock.o)
 .ARM.attributes
                0x000013cf       0x34 c:/a/gcc_arm/6/bin/../lib/gcc/arm-none-eabi/6.3.1/../../../../arm-none-eabi/lib/thumb/v7e-m/fpv4-sp/hard\libc_nano.a(lib_a-reent.o)
 .ARM.attributes
                0x00001403       0x34 c:/a/gcc_arm/6/bin/../lib/gcc/arm-none-eabi/6.3.1/../../../../arm-none-eabi/lib/thumb/v7e-m/fpv4-sp/hard\libc_nano.a(lib_a-strchr.o)
 .ARM.attributes
                0x00001437       0x34 c:/a/gcc_arm/6/bin/../lib/gcc/arm-none-eabi/6.3.1/thumb/v7e-m/fpv4-sp/hard/crtend.o
 .ARM.attributes
                0x0000146b       0x22 c:/a/gcc_arm/6/bin/../lib/gcc/arm-none-eabi/6.3.1/thumb/v7e-m/fpv4-sp/hard/crtn.o
 .ARM.attributes
                0x0000148d       0x34 c:/a/gcc_arm/6/bin/../lib/gcc/arm-none-eabi/6.3.1/../../../../arm-none-eabi/lib/thumb/v7e-m/fpv4-sp/hard\libnosys.a(sbrk.o)
 .ARM.attributes
                0x000014c1       0x34 c:/a/gcc_arm/6/bin/../lib/gcc/arm-none-eabi/6.3.1/../../../../arm-none-eabi/lib/thumb/v7e-m/fpv4-sp/hard\libnosys.a(_exit.o)

.comment        0x00000000       0x7f
 .comment       0x00000000       0x7f examples/dfu/CMakeFiles/dfu_nrf52832_xxAA_s132_5.0.0.dir/src/main.c.obj
                                 0x80 (size before relaxing)
 .comment       0x0000007f       0x80 examples/dfu/CMakeFiles/dfu_nrf52832_xxAA_s132_5.0.0.dir/__/nrf_mesh_sdk.c.obj
 .comment       0x0000007f       0x80 examples/dfu/CMakeFiles/dfu_nrf52832_xxAA_s132_5.0.0.dir/__/__/mesh/access/src/access_publish.c.obj
 .comment       0x0000007f       0x80 examples/dfu/CMakeFiles/dfu_nrf52832_xxAA_s132_5.0.0.dir/__/__/mesh/access/src/access.c.obj
 .comment       0x0000007f       0x80 examples/dfu/CMakeFiles/dfu_nrf52832_xxAA_s132_5.0.0.dir/__/__/mesh/access/src/access_reliable.c.obj
 .comment       0x0000007f       0x80 examples/dfu/CMakeFiles/dfu_nrf52832_xxAA_s132_5.0.0.dir/__/__/mesh/access/src/device_state_manager.c.obj
 .comment       0x0000007f       0x80 examples/dfu/CMakeFiles/dfu_nrf52832_xxAA_s132_5.0.0.dir/__/__/mesh/serial/src/serial_uart.c.obj
 .comment       0x0000007f       0x80 examples/dfu/CMakeFiles/dfu_nrf52832_xxAA_s132_5.0.0.dir/__/__/mesh/serial/src/serial_bearer.c.obj
 .comment       0x0000007f       0x80 examples/dfu/CMakeFiles/dfu_nrf52832_xxAA_s132_5.0.0.dir/__/__/mesh/serial/src/serial_handler_common.c.obj
 .comment       0x0000007f       0x80 examples/dfu/CMakeFiles/dfu_nrf52832_xxAA_s132_5.0.0.dir/__/__/mesh/serial/src/serial_handler_access.c.obj
 .comment       0x0000007f       0x80 examples/dfu/CMakeFiles/dfu_nrf52832_xxAA_s132_5.0.0.dir/__/__/mesh/serial/src/serial_handler_config.c.obj
 .comment       0x0000007f       0x80 examples/dfu/CMakeFiles/dfu_nrf52832_xxAA_s132_5.0.0.dir/__/__/mesh/serial/src/serial_handler_openmesh.c.obj
 .comment       0x0000007f       0x80 examples/dfu/CMakeFiles/dfu_nrf52832_xxAA_s132_5.0.0.dir/__/__/mesh/serial/src/serial.c.obj
 .comment       0x0000007f       0x80 examples/dfu/CMakeFiles/dfu_nrf52832_xxAA_s132_5.0.0.dir/__/__/mesh/serial/src/serial_handler_prov.c.obj
 .comment       0x0000007f       0x80 examples/dfu/CMakeFiles/dfu_nrf52832_xxAA_s132_5.0.0.dir/__/__/mesh/serial/src/serial_handler_dfu.c.obj
 .comment       0x0000007f       0x80 examples/dfu/CMakeFiles/dfu_nrf52832_xxAA_s132_5.0.0.dir/__/__/mesh/serial/src/serial_handler_mesh.c.obj
 .comment       0x0000007f       0x80 examples/dfu/CMakeFiles/dfu_nrf52832_xxAA_s132_5.0.0.dir/__/__/mesh/serial/src/serial_handler_models.c.obj
 .comment       0x0000007f       0x80 examples/dfu/CMakeFiles/dfu_nrf52832_xxAA_s132_5.0.0.dir/__/__/mesh/serial/src/serial_handler_device.c.obj
 .comment       0x0000007f       0x80 examples/dfu/CMakeFiles/dfu_nrf52832_xxAA_s132_5.0.0.dir/__/__/mesh/serial/src/nrf_mesh_serial.c.obj
 .comment       0x0000007f       0x80 examples/dfu/CMakeFiles/dfu_nrf52832_xxAA_s132_5.0.0.dir/__/__/mesh/serial/src/serial_handler_app.c.obj
 .comment       0x0000007f       0x80 examples/dfu/CMakeFiles/dfu_nrf52832_xxAA_s132_5.0.0.dir/__/__/mesh/prov/src/prov_provisioner.c.obj
 .comment       0x0000007f       0x80 examples/dfu/CMakeFiles/dfu_nrf52832_xxAA_s132_5.0.0.dir/__/__/mesh/prov/src/prov_provisionee.c.obj
 .comment       0x0000007f       0x80 examples/dfu/CMakeFiles/dfu_nrf52832_xxAA_s132_5.0.0.dir/__/__/mesh/prov/src/nrf_mesh_prov.c.obj
 .comment       0x0000007f       0x80 examples/dfu/CMakeFiles/dfu_nrf52832_xxAA_s132_5.0.0.dir/__/__/mesh/prov/src/provisioning.c.obj
 .comment       0x0000007f       0x80 examples/dfu/CMakeFiles/dfu_nrf52832_xxAA_s132_5.0.0.dir/__/__/mesh/prov/src/prov_beacon.c.obj
 .comment       0x0000007f       0x80 examples/dfu/CMakeFiles/dfu_nrf52832_xxAA_s132_5.0.0.dir/__/__/mesh/prov/src/prov_utils.c.obj
 .comment       0x0000007f       0x80 examples/dfu/CMakeFiles/dfu_nrf52832_xxAA_s132_5.0.0.dir/__/__/mesh/prov/src/prov_bearer_adv.c.obj
 .comment       0x0000007f       0x80 examples/dfu/CMakeFiles/dfu_nrf52832_xxAA_s132_5.0.0.dir/__/__/mesh/dfu/src/nrf_mesh_dfu.c.obj
 .comment       0x0000007f       0x80 examples/dfu/CMakeFiles/dfu_nrf52832_xxAA_s132_5.0.0.dir/__/__/external/nRF5_SDK_14.0.0_3bcc1f7/components/toolchain/system_nrf52.c.obj
 .comment       0x0000007f       0x80 mesh/core/libmesh_core_nrf52832_xxAA.a(internal_event.c.obj)
 .comment       0x0000007f       0x80 mesh/core/libmesh_core_nrf52832_xxAA.a(nrf_mesh_configure.c.obj)
 .comment       0x0000007f       0x80 mesh/core/libmesh_core_nrf52832_xxAA.a(event.c.obj)
 .comment       0x0000007f       0x80 mesh/core/libmesh_core_nrf52832_xxAA.a(packet_buffer.c.obj)
 .comment       0x0000007f       0x80 mesh/core/libmesh_core_nrf52832_xxAA.a(fifo.c.obj)
 .comment       0x0000007f       0x80 mesh/core/libmesh_core_nrf52832_xxAA.a(net_state.c.obj)
 .comment       0x0000007f       0x80 mesh/core/libmesh_core_nrf52832_xxAA.a(mesh_flash.c.obj)
 .comment       0x0000007f       0x80 mesh/core/libmesh_core_nrf52832_xxAA.a(nrf_mesh_utils.c.obj)
 .comment       0x0000007f       0x80 mesh/core/libmesh_core_nrf52832_xxAA.a(nrf_mesh.c.obj)
 .comment       0x0000007f       0x80 mesh/core/libmesh_core_nrf52832_xxAA.a(hal.c.obj)
 .comment       0x0000007f       0x80 mesh/core/libmesh_core_nrf52832_xxAA.a(timer_scheduler.c.obj)
 .comment       0x0000007f       0x80 mesh/core/libmesh_core_nrf52832_xxAA.a(timer.c.obj)
 .comment       0x0000007f       0x80 mesh/core/libmesh_core_nrf52832_xxAA.a(ticker.c.obj)
 .comment       0x0000007f       0x80 mesh/core/libmesh_core_nrf52832_xxAA.a(rand.c.obj)
 .comment       0x0000007f       0x80 mesh/core/libmesh_core_nrf52832_xxAA.a(timeslot.c.obj)
 .comment       0x0000007f       0x80 mesh/core/libmesh_core_nrf52832_xxAA.a(bearer_event.c.obj)
 .comment       0x0000007f       0x80 mesh/core/libmesh_core_nrf52832_xxAA.a(enc.c.obj)
 .comment       0x0000007f       0x80 mesh/core/libmesh_core_nrf52832_xxAA.a(network.c.obj)
 .comment       0x0000007f       0x80 mesh/core/libmesh_core_nrf52832_xxAA.a(msqueue.c.obj)
 .comment       0x0000007f       0x80 mesh/core/libmesh_core_nrf52832_xxAA.a(nrf_mesh_keygen.c.obj)
 .comment       0x0000007f       0x80 mesh/core/libmesh_core_nrf52832_xxAA.a(log.c.obj)
 .comment       0x0000007f       0x80 mesh/core/libmesh_core_nrf52832_xxAA.a(flash_manager.c.obj)
 .comment       0x0000007f       0x80 mesh/core/libmesh_core_nrf52832_xxAA.a(ccm_soft.c.obj)
 .comment       0x0000007f       0x80 mesh/core/libmesh_core_nrf52832_xxAA.a(beacon.c.obj)
 .comment       0x0000007f       0x80 mesh/core/libmesh_core_nrf52832_xxAA.a(flash_manager_internal.c.obj)
 .comment       0x0000007f       0x80 mesh/core/libmesh_core_nrf52832_xxAA.a(core_tx.c.obj)
 .comment       0x0000007f       0x80 mesh/core/libmesh_core_nrf52832_xxAA.a(net_beacon.c.obj)
 .comment       0x0000007f       0x80 mesh/core/libmesh_core_nrf52832_xxAA.a(advertiser.c.obj)
 .comment       0x0000007f       0x80 mesh/core/libmesh_core_nrf52832_xxAA.a(bearer_handler.c.obj)
 .comment       0x0000007f       0x80 mesh/core/libmesh_core_nrf52832_xxAA.a(broadcast.c.obj)
 .comment       0x0000007f       0x80 mesh/core/libmesh_core_nrf52832_xxAA.a(radio_config.c.obj)
 .comment       0x0000007f       0x80 mesh/core/libmesh_core_nrf52832_xxAA.a(scanner.c.obj)
 .comment       0x0000007f       0x80 mesh/core/libmesh_core_nrf52832_xxAA.a(aes.c.obj)
 .comment       0x0000007f       0x80 mesh/core/libmesh_core_nrf52832_xxAA.a(msg_cache.c.obj)
 .comment       0x0000007f       0x80 mesh/core/libmesh_core_nrf52832_xxAA.a(transport.c.obj)
 .comment       0x0000007f       0x80 mesh/core/libmesh_core_nrf52832_xxAA.a(flash_manager_defrag.c.obj)
 .comment       0x0000007f       0x80 mesh/core/libmesh_core_nrf52832_xxAA.a(nrf_flash.c.obj)
 .comment       0x0000007f       0x80 mesh/core/libmesh_core_nrf52832_xxAA.a(packet_mgr.c.obj)
 .comment       0x0000007f       0x80 mesh/core/libmesh_core_nrf52832_xxAA.a(queue.c.obj)
 .comment       0x0000007f       0x80 mesh/core/libmesh_core_nrf52832_xxAA.a(aes_cmac.c.obj)
 .comment       0x0000007f       0x80 mesh/core/libmesh_core_nrf52832_xxAA.a(replay_cache.c.obj)
 .comment       0x0000007f       0x80 mesh/core/libmesh_core_nrf52832_xxAA.a(filter_engine.c.obj)
 .comment       0x0000007f       0x80 external/rtt/librtt_nrf52832_xxAA.a(SEGGER_RTT.c.obj)
 .comment       0x0000007f       0x80 external/rtt/librtt_nrf52832_xxAA.a(SEGGER_RTT_printf.c.obj)
 .comment       0x0000007f       0x80 external/micro-ecc/libuECC_nrf52832_xxAA.a(uECC.c.obj)

.debug_frame    0x00000000      0x2c4
 .debug_frame   0x00000000       0x28 c:/a/gcc_arm/6/bin/../lib/gcc/arm-none-eabi/6.3.1/../../../../arm-none-eabi/lib/thumb/v7e-m/fpv4-sp/hard\libc_nano.a(lib_a-exit.o)
 .debug_frame   0x00000028       0x2c c:/a/gcc_arm/6/bin/../lib/gcc/arm-none-eabi/6.3.1/../../../../arm-none-eabi/lib/thumb/v7e-m/fpv4-sp/hard\libc_nano.a(lib_a-init.o)
 .debug_frame   0x00000054       0x30 c:/a/gcc_arm/6/bin/../lib/gcc/arm-none-eabi/6.3.1/../../../../arm-none-eabi/lib/thumb/v7e-m/fpv4-sp/hard\libc_nano.a(lib_a-malloc.o)
 .debug_frame   0x00000084       0x28 c:/a/gcc_arm/6/bin/../lib/gcc/arm-none-eabi/6.3.1/../../../../arm-none-eabi/lib/thumb/v7e-m/fpv4-sp/hard\libc_nano.a(lib_a-memcmp.o)
 .debug_frame   0x000000ac       0x28 c:/a/gcc_arm/6/bin/../lib/gcc/arm-none-eabi/6.3.1/../../../../arm-none-eabi/lib/thumb/v7e-m/fpv4-sp/hard\libc_nano.a(lib_a-memcpy-stub.o)
 .debug_frame   0x000000d4       0x20 c:/a/gcc_arm/6/bin/../lib/gcc/arm-none-eabi/6.3.1/../../../../arm-none-eabi/lib/thumb/v7e-m/fpv4-sp/hard\libc_nano.a(lib_a-memset.o)
 .debug_frame   0x000000f4       0x38 c:/a/gcc_arm/6/bin/../lib/gcc/arm-none-eabi/6.3.1/../../../../arm-none-eabi/lib/thumb/v7e-m/fpv4-sp/hard\libc_nano.a(lib_a-nano-freer.o)
 .debug_frame   0x0000012c       0x2c c:/a/gcc_arm/6/bin/../lib/gcc/arm-none-eabi/6.3.1/../../../../arm-none-eabi/lib/thumb/v7e-m/fpv4-sp/hard\libc_nano.a(lib_a-nano-mallocr.o)
 .debug_frame   0x00000158       0x2c c:/a/gcc_arm/6/bin/../lib/gcc/arm-none-eabi/6.3.1/../../../../arm-none-eabi/lib/thumb/v7e-m/fpv4-sp/hard\libc_nano.a(lib_a-sbrkr.o)
 .debug_frame   0x00000184       0x20 c:/a/gcc_arm/6/bin/../lib/gcc/arm-none-eabi/6.3.1/../../../../arm-none-eabi/lib/thumb/v7e-m/fpv4-sp/hard\libc_nano.a(lib_a-strcpy.o)
 .debug_frame   0x000001a4       0x34 c:/a/gcc_arm/6/bin/../lib/gcc/arm-none-eabi/6.3.1/../../../../arm-none-eabi/lib/thumb/v7e-m/fpv4-sp/hard\libc_nano.a(lib_a-strrchr.o)
 .debug_frame   0x000001d8       0x30 c:/a/gcc_arm/6/bin/../lib/gcc/arm-none-eabi/6.3.1/../../../../arm-none-eabi/lib/thumb/v7e-m/fpv4-sp/hard\libc_nano.a(lib_a-mlock.o)
 .debug_frame   0x00000208       0x5c c:/a/gcc_arm/6/bin/../lib/gcc/arm-none-eabi/6.3.1/../../../../arm-none-eabi/lib/thumb/v7e-m/fpv4-sp/hard\libc_nano.a(lib_a-reent.o)
 .debug_frame   0x00000264       0x20 c:/a/gcc_arm/6/bin/../lib/gcc/arm-none-eabi/6.3.1/../../../../arm-none-eabi/lib/thumb/v7e-m/fpv4-sp/hard\libc_nano.a(lib_a-strchr.o)
 .debug_frame   0x00000284       0x20 c:/a/gcc_arm/6/bin/../lib/gcc/arm-none-eabi/6.3.1/../../../../arm-none-eabi/lib/thumb/v7e-m/fpv4-sp/hard\libnosys.a(sbrk.o)
 .debug_frame   0x000002a4       0x20 c:/a/gcc_arm/6/bin/../lib/gcc/arm-none-eabi/6.3.1/../../../../arm-none-eabi/lib/thumb/v7e-m/fpv4-sp/hard\libnosys.a(_exit.o)
