Archive member included to satisfy reference by file (symbol)

mesh/core/libmesh_core_nrf52840_xxAA.a(nrf_mesh_configure.c.obj)
                              examples/dfu/CMakeFiles/dfu_no_serial_nrf52840_xxAA_s140_5.0.0-3.alpha.dir/__/__/mesh/prov/src/prov_beacon.c.obj (nrf_mesh_configure_device_uuid_get)
mesh/core/libmesh_core_nrf52840_xxAA.a(event.c.obj)
                              examples/dfu/CMakeFiles/dfu_no_serial_nrf52840_xxAA_s140_5.0.0-3.alpha.dir/__/__/mesh/access/src/access.c.obj (event_handle)
mesh/core/libmesh_core_nrf52840_xxAA.a(net_state.c.obj)
                              examples/dfu/CMakeFiles/dfu_no_serial_nrf52840_xxAA_s140_5.0.0-3.alpha.dir/__/__/mesh/access/src/device_state_manager.c.obj (net_state_flash_area_get)
mesh/core/libmesh_core_nrf52840_xxAA.a(mesh_flash.c.obj)
                              examples/dfu/CMakeFiles/dfu_no_serial_nrf52840_xxAA_s140_5.0.0-3.alpha.dir/__/__/mesh/dfu/src/nrf_mesh_dfu.c.obj (mesh_flash_user_callback_set)
mesh/core/libmesh_core_nrf52840_xxAA.a(nrf_mesh_utils.c.obj)
                              examples/dfu/CMakeFiles/dfu_no_serial_nrf52840_xxAA_s140_5.0.0-3.alpha.dir/__/__/mesh/access/src/device_state_manager.c.obj (nrf_mesh_address_type_get)
mesh/core/libmesh_core_nrf52840_xxAA.a(nrf_mesh.c.obj)
                              examples/dfu/CMakeFiles/dfu_no_serial_nrf52840_xxAA_s140_5.0.0-3.alpha.dir/__/nrf_mesh_sdk.c.obj (nrf_mesh_init)
mesh/core/libmesh_core_nrf52840_xxAA.a(hal.c.obj)
                              examples/dfu/CMakeFiles/dfu_no_serial_nrf52840_xxAA_s140_5.0.0-3.alpha.dir/__/__/mesh/dfu/src/nrf_mesh_dfu.c.obj (hal_device_reset)
mesh/core/libmesh_core_nrf52840_xxAA.a(timer_scheduler.c.obj)
                              mesh/core/libmesh_core_nrf52840_xxAA.a(nrf_mesh.c.obj) (timer_sch_init)
mesh/core/libmesh_core_nrf52840_xxAA.a(timer.c.obj)
                              mesh/core/libmesh_core_nrf52840_xxAA.a(timer_scheduler.c.obj) (timer_order_cb)
mesh/core/libmesh_core_nrf52840_xxAA.a(ticker.c.obj)
                              mesh/core/libmesh_core_nrf52840_xxAA.a(nrf_mesh.c.obj) (ticker_init)
mesh/core/libmesh_core_nrf52840_xxAA.a(rand.c.obj)
                              examples/dfu/CMakeFiles/dfu_no_serial_nrf52840_xxAA_s140_5.0.0-3.alpha.dir/__/__/mesh/dfu/src/nrf_mesh_dfu.c.obj (rand_prng_seed)
mesh/core/libmesh_core_nrf52840_xxAA.a(timeslot.c.obj)
                              mesh/core/libmesh_core_nrf52840_xxAA.a(nrf_mesh.c.obj) (timeslot_sd_event_handler)
mesh/core/libmesh_core_nrf52840_xxAA.a(bearer_event.c.obj)
                              mesh/core/libmesh_core_nrf52840_xxAA.a(nrf_mesh.c.obj) (bearer_event_init)
mesh/core/libmesh_core_nrf52840_xxAA.a(enc.c.obj)
                              examples/dfu/CMakeFiles/dfu_no_serial_nrf52840_xxAA_s140_5.0.0-3.alpha.dir/__/__/mesh/prov/src/prov_utils.c.obj (enc_aes_cmac)
mesh/core/libmesh_core_nrf52840_xxAA.a(network.c.obj)
                              mesh/core/libmesh_core_nrf52840_xxAA.a(nrf_mesh.c.obj) (network_init)
mesh/core/libmesh_core_nrf52840_xxAA.a(msqueue.c.obj)
                              mesh/core/libmesh_core_nrf52840_xxAA.a(mesh_flash.c.obj) (msq_init)
mesh/core/libmesh_core_nrf52840_xxAA.a(nrf_mesh_keygen.c.obj)
                              examples/dfu/CMakeFiles/dfu_no_serial_nrf52840_xxAA_s140_5.0.0-3.alpha.dir/__/__/mesh/access/src/device_state_manager.c.obj (nrf_mesh_keygen_aid)
mesh/core/libmesh_core_nrf52840_xxAA.a(log.c.obj)
                              examples/dfu/CMakeFiles/dfu_no_serial_nrf52840_xxAA_s140_5.0.0-3.alpha.dir/src/main.c.obj (log_callback_rtt)
mesh/core/libmesh_core_nrf52840_xxAA.a(flash_manager.c.obj)
                              mesh/core/libmesh_core_nrf52840_xxAA.a(nrf_mesh.c.obj) (flash_manager_init)
mesh/core/libmesh_core_nrf52840_xxAA.a(ccm_soft.c.obj)
                              mesh/core/libmesh_core_nrf52840_xxAA.a(enc.c.obj) (ccm_soft_encrypt)
mesh/core/libmesh_core_nrf52840_xxAA.a(beacon.c.obj)
                              mesh/core/libmesh_core_nrf52840_xxAA.a(nrf_mesh.c.obj) (beacon_init)
mesh/core/libmesh_core_nrf52840_xxAA.a(flash_manager_internal.c.obj)
                              mesh/core/libmesh_core_nrf52840_xxAA.a(flash_manager.c.obj) (entry_get)
mesh/core/libmesh_core_nrf52840_xxAA.a(core_tx.c.obj)
                              mesh/core/libmesh_core_nrf52840_xxAA.a(nrf_mesh.c.obj) (core_tx_init)
mesh/core/libmesh_core_nrf52840_xxAA.a(net_beacon.c.obj)
                              mesh/core/libmesh_core_nrf52840_xxAA.a(network.c.obj) (net_beacon_init)
mesh/core/libmesh_core_nrf52840_xxAA.a(advertiser.c.obj)
                              mesh/core/libmesh_core_nrf52840_xxAA.a(nrf_mesh.c.obj) (advertiser_init)
mesh/core/libmesh_core_nrf52840_xxAA.a(bearer_handler.c.obj)
                              mesh/core/libmesh_core_nrf52840_xxAA.a(nrf_mesh.c.obj) (bearer_handler_init)
mesh/core/libmesh_core_nrf52840_xxAA.a(broadcast.c.obj)
                              examples/dfu/CMakeFiles/dfu_no_serial_nrf52840_xxAA_s140_5.0.0-3.alpha.dir/__/__/mesh/dfu/src/nrf_mesh_dfu.c.obj (broadcast_send)
mesh/core/libmesh_core_nrf52840_xxAA.a(radio_config.c.obj)
                              mesh/core/libmesh_core_nrf52840_xxAA.a(broadcast.c.obj) (radio_config_reset)
mesh/core/libmesh_core_nrf52840_xxAA.a(scanner.c.obj)
                              mesh/core/libmesh_core_nrf52840_xxAA.a(bearer_handler.c.obj) (scanner_radio_start)
mesh/core/libmesh_core_nrf52840_xxAA.a(internal_event.c.obj)
                              mesh/core/libmesh_core_nrf52840_xxAA.a(network.c.obj) (internal_event_push)
mesh/core/libmesh_core_nrf52840_xxAA.a(aes.c.obj)
                              mesh/core/libmesh_core_nrf52840_xxAA.a(enc.c.obj) (aes_encrypt)
mesh/core/libmesh_core_nrf52840_xxAA.a(msg_cache.c.obj)
                              mesh/core/libmesh_core_nrf52840_xxAA.a(nrf_mesh.c.obj) (msg_cache_init)
mesh/core/libmesh_core_nrf52840_xxAA.a(transport.c.obj)
                              mesh/core/libmesh_core_nrf52840_xxAA.a(nrf_mesh.c.obj) (transport_init)
mesh/core/libmesh_core_nrf52840_xxAA.a(packet_buffer.c.obj)
                              mesh/core/libmesh_core_nrf52840_xxAA.a(flash_manager.c.obj) (packet_buffer_init)
mesh/core/libmesh_core_nrf52840_xxAA.a(flash_manager_defrag.c.obj)
                              mesh/core/libmesh_core_nrf52840_xxAA.a(flash_manager.c.obj) (flash_manager_defrag_init)
mesh/core/libmesh_core_nrf52840_xxAA.a(fifo.c.obj)
                              mesh/core/libmesh_core_nrf52840_xxAA.a(bearer_event.c.obj) (fifo_init)
mesh/core/libmesh_core_nrf52840_xxAA.a(nrf_flash.c.obj)
                              mesh/core/libmesh_core_nrf52840_xxAA.a(mesh_flash.c.obj) (nrf_flash_erase)
mesh/core/libmesh_core_nrf52840_xxAA.a(packet_mgr.c.obj)
                              mesh/core/libmesh_core_nrf52840_xxAA.a(nrf_mesh.c.obj) (packet_mgr_init)
mesh/core/libmesh_core_nrf52840_xxAA.a(queue.c.obj)
                              mesh/core/libmesh_core_nrf52840_xxAA.a(bearer_event.c.obj) (queue_init)
mesh/core/libmesh_core_nrf52840_xxAA.a(aes_cmac.c.obj)
                              mesh/core/libmesh_core_nrf52840_xxAA.a(enc.c.obj) (aes_cmac)
mesh/core/libmesh_core_nrf52840_xxAA.a(replay_cache.c.obj)
                              mesh/core/libmesh_core_nrf52840_xxAA.a(transport.c.obj) (replay_cache_init)
mesh/core/libmesh_core_nrf52840_xxAA.a(filter_engine.c.obj)
                              mesh/core/libmesh_core_nrf52840_xxAA.a(scanner.c.obj) (fen_filters_apply)
external/rtt/librtt_nrf52840_xxAA.a(SEGGER_RTT.c.obj)
                              mesh/core/libmesh_core_nrf52840_xxAA.a(log.c.obj) (SEGGER_RTT_Write)
external/rtt/librtt_nrf52840_xxAA.a(SEGGER_RTT_printf.c.obj)
                              mesh/core/libmesh_core_nrf52840_xxAA.a(log.c.obj) (SEGGER_RTT_vprintf)
external/micro-ecc/libuECC_nrf52840_xxAA.a(uECC.c.obj)
                              examples/dfu/CMakeFiles/dfu_no_serial_nrf52840_xxAA_s140_5.0.0-3.alpha.dir/__/__/mesh/prov/src/prov_utils.c.obj (uECC_secp256r1)
c:/a/gcc_arm/6/bin/../lib/gcc/arm-none-eabi/6.3.1/../../../../arm-none-eabi/lib/thumb/v7e-m/fpv4-sp/hard\libc_nano.a(lib_a-exit.o)
                              c:/a/gcc_arm/6/bin/../lib/gcc/arm-none-eabi/6.3.1/../../../../arm-none-eabi/lib/thumb/v7e-m/fpv4-sp/hard/crt0.o (exit)
c:/a/gcc_arm/6/bin/../lib/gcc/arm-none-eabi/6.3.1/../../../../arm-none-eabi/lib/thumb/v7e-m/fpv4-sp/hard\libc_nano.a(lib_a-impure.o)
                              c:/a/gcc_arm/6/bin/../lib/gcc/arm-none-eabi/6.3.1/../../../../arm-none-eabi/lib/thumb/v7e-m/fpv4-sp/hard\libc_nano.a(lib_a-exit.o) (_global_impure_ptr)
c:/a/gcc_arm/6/bin/../lib/gcc/arm-none-eabi/6.3.1/../../../../arm-none-eabi/lib/thumb/v7e-m/fpv4-sp/hard\libc_nano.a(lib_a-init.o)
                              c:/a/gcc_arm/6/bin/../lib/gcc/arm-none-eabi/6.3.1/../../../../arm-none-eabi/lib/thumb/v7e-m/fpv4-sp/hard/crt0.o (__libc_init_array)
c:/a/gcc_arm/6/bin/../lib/gcc/arm-none-eabi/6.3.1/../../../../arm-none-eabi/lib/thumb/v7e-m/fpv4-sp/hard\libc_nano.a(lib_a-malloc.o)
                              mesh/core/libmesh_core_nrf52840_xxAA.a(transport.c.obj) (malloc)
c:/a/gcc_arm/6/bin/../lib/gcc/arm-none-eabi/6.3.1/../../../../arm-none-eabi/lib/thumb/v7e-m/fpv4-sp/hard\libc_nano.a(lib_a-memcmp.o)
                              examples/dfu/CMakeFiles/dfu_no_serial_nrf52840_xxAA_s140_5.0.0-3.alpha.dir/__/__/mesh/access/src/device_state_manager.c.obj (memcmp)
c:/a/gcc_arm/6/bin/../lib/gcc/arm-none-eabi/6.3.1/../../../../arm-none-eabi/lib/thumb/v7e-m/fpv4-sp/hard\libc_nano.a(lib_a-memcpy-stub.o)
                              examples/dfu/CMakeFiles/dfu_no_serial_nrf52840_xxAA_s140_5.0.0-3.alpha.dir/__/__/mesh/access/src/access.c.obj (memcpy)
c:/a/gcc_arm/6/bin/../lib/gcc/arm-none-eabi/6.3.1/../../../../arm-none-eabi/lib/thumb/v7e-m/fpv4-sp/hard\libc_nano.a(lib_a-memset.o)
                              c:/a/gcc_arm/6/bin/../lib/gcc/arm-none-eabi/6.3.1/../../../../arm-none-eabi/lib/thumb/v7e-m/fpv4-sp/hard/crt0.o (memset)
c:/a/gcc_arm/6/bin/../lib/gcc/arm-none-eabi/6.3.1/../../../../arm-none-eabi/lib/thumb/v7e-m/fpv4-sp/hard\libc_nano.a(lib_a-nano-freer.o)
                              c:/a/gcc_arm/6/bin/../lib/gcc/arm-none-eabi/6.3.1/../../../../arm-none-eabi/lib/thumb/v7e-m/fpv4-sp/hard\libc_nano.a(lib_a-malloc.o) (_free_r)
c:/a/gcc_arm/6/bin/../lib/gcc/arm-none-eabi/6.3.1/../../../../arm-none-eabi/lib/thumb/v7e-m/fpv4-sp/hard\libc_nano.a(lib_a-nano-mallocr.o)
                              c:/a/gcc_arm/6/bin/../lib/gcc/arm-none-eabi/6.3.1/../../../../arm-none-eabi/lib/thumb/v7e-m/fpv4-sp/hard\libc_nano.a(lib_a-malloc.o) (_malloc_r)
c:/a/gcc_arm/6/bin/../lib/gcc/arm-none-eabi/6.3.1/../../../../arm-none-eabi/lib/thumb/v7e-m/fpv4-sp/hard\libc_nano.a(lib_a-sbrkr.o)
                              c:/a/gcc_arm/6/bin/../lib/gcc/arm-none-eabi/6.3.1/../../../../arm-none-eabi/lib/thumb/v7e-m/fpv4-sp/hard\libc_nano.a(lib_a-nano-mallocr.o) (_sbrk_r)
c:/a/gcc_arm/6/bin/../lib/gcc/arm-none-eabi/6.3.1/../../../../arm-none-eabi/lib/thumb/v7e-m/fpv4-sp/hard\libc_nano.a(lib_a-strcpy.o)
                              external/rtt/librtt_nrf52840_xxAA.a(SEGGER_RTT.c.obj) (strcpy)
c:/a/gcc_arm/6/bin/../lib/gcc/arm-none-eabi/6.3.1/../../../../arm-none-eabi/lib/thumb/v7e-m/fpv4-sp/hard\libc_nano.a(lib_a-strlen.o)
                              examples/dfu/CMakeFiles/dfu_no_serial_nrf52840_xxAA_s140_5.0.0-3.alpha.dir/__/__/mesh/prov/src/prov_beacon.c.obj (strlen)
c:/a/gcc_arm/6/bin/../lib/gcc/arm-none-eabi/6.3.1/../../../../arm-none-eabi/lib/thumb/v7e-m/fpv4-sp/hard\libc_nano.a(lib_a-strrchr.o)
                              examples/dfu/CMakeFiles/dfu_no_serial_nrf52840_xxAA_s140_5.0.0-3.alpha.dir/src/main.c.obj (strrchr)
c:/a/gcc_arm/6/bin/../lib/gcc/arm-none-eabi/6.3.1/../../../../arm-none-eabi/lib/thumb/v7e-m/fpv4-sp/hard\libc_nano.a(lib_a-mlock.o)
                              c:/a/gcc_arm/6/bin/../lib/gcc/arm-none-eabi/6.3.1/../../../../arm-none-eabi/lib/thumb/v7e-m/fpv4-sp/hard\libc_nano.a(lib_a-nano-freer.o) (__malloc_lock)
c:/a/gcc_arm/6/bin/../lib/gcc/arm-none-eabi/6.3.1/../../../../arm-none-eabi/lib/thumb/v7e-m/fpv4-sp/hard\libc_nano.a(lib_a-reent.o)
                              c:/a/gcc_arm/6/bin/../lib/gcc/arm-none-eabi/6.3.1/../../../../arm-none-eabi/lib/thumb/v7e-m/fpv4-sp/hard\libc_nano.a(lib_a-sbrkr.o) (errno)
c:/a/gcc_arm/6/bin/../lib/gcc/arm-none-eabi/6.3.1/../../../../arm-none-eabi/lib/thumb/v7e-m/fpv4-sp/hard\libc_nano.a(lib_a-strchr.o)
                              c:/a/gcc_arm/6/bin/../lib/gcc/arm-none-eabi/6.3.1/../../../../arm-none-eabi/lib/thumb/v7e-m/fpv4-sp/hard\libc_nano.a(lib_a-strrchr.o) (strchr)
c:/a/gcc_arm/6/bin/../lib/gcc/arm-none-eabi/6.3.1/../../../../arm-none-eabi/lib/thumb/v7e-m/fpv4-sp/hard\libnosys.a(sbrk.o)
                              c:/a/gcc_arm/6/bin/../lib/gcc/arm-none-eabi/6.3.1/../../../../arm-none-eabi/lib/thumb/v7e-m/fpv4-sp/hard\libc_nano.a(lib_a-sbrkr.o) (_sbrk)
c:/a/gcc_arm/6/bin/../lib/gcc/arm-none-eabi/6.3.1/../../../../arm-none-eabi/lib/thumb/v7e-m/fpv4-sp/hard\libnosys.a(_exit.o)
                              c:/a/gcc_arm/6/bin/../lib/gcc/arm-none-eabi/6.3.1/../../../../arm-none-eabi/lib/thumb/v7e-m/fpv4-sp/hard\libc_nano.a(lib_a-exit.o) (_exit)

Allocating common symbols
Common symbol       size              file

nrf_nvic_state      0xc               examples/dfu/CMakeFiles/dfu_no_serial_nrf52840_xxAA_s140_5.0.0-3.alpha.dir/__/nrf_mesh_sdk.c.obj
bank_addr           0x4               examples/dfu/CMakeFiles/dfu_no_serial_nrf52840_xxAA_s140_5.0.0-3.alpha.dir/src/main.c.obj
rom_length          0x4               examples/dfu/CMakeFiles/dfu_no_serial_nrf52840_xxAA_s140_5.0.0-3.alpha.dir/src/main.c.obj
m_cmd_handler       0x4               examples/dfu/CMakeFiles/dfu_no_serial_nrf52840_xxAA_s140_5.0.0-3.alpha.dir/__/__/mesh/dfu/src/nrf_mesh_dfu.c.obj
errno               0x4               c:/a/gcc_arm/6/bin/../lib/gcc/arm-none-eabi/6.3.1/../../../../arm-none-eabi/lib/thumb/v7e-m/fpv4-sp/hard\libc_nano.a(lib_a-reent.o)
m_assertion_handler
                    0x4               mesh/core/libmesh_core_nrf52840_xxAA.a(nrf_mesh.c.obj)
_SEGGER_RTT         0x78              external/rtt/librtt_nrf52840_xxAA.a(SEGGER_RTT.c.obj)

Discarded input sections

 .text          0x00000000        0x0 c:/a/gcc_arm/6/bin/../lib/gcc/arm-none-eabi/6.3.1/thumb/v7e-m/fpv4-sp/hard/crti.o
 .data          0x00000000        0x0 c:/a/gcc_arm/6/bin/../lib/gcc/arm-none-eabi/6.3.1/thumb/v7e-m/fpv4-sp/hard/crti.o
 .bss           0x00000000        0x0 c:/a/gcc_arm/6/bin/../lib/gcc/arm-none-eabi/6.3.1/thumb/v7e-m/fpv4-sp/hard/crti.o
 .data          0x00000000        0x4 c:/a/gcc_arm/6/bin/../lib/gcc/arm-none-eabi/6.3.1/thumb/v7e-m/fpv4-sp/hard/crtbegin.o
 .data          0x00000000        0x0 c:/a/gcc_arm/6/bin/../lib/gcc/arm-none-eabi/6.3.1/../../../../arm-none-eabi/lib/thumb/v7e-m/fpv4-sp/hard/crt0.o
 .bss           0x00000000        0x0 c:/a/gcc_arm/6/bin/../lib/gcc/arm-none-eabi/6.3.1/../../../../arm-none-eabi/lib/thumb/v7e-m/fpv4-sp/hard/crt0.o
 .ARM.extab     0x00000000        0x0 c:/a/gcc_arm/6/bin/../lib/gcc/arm-none-eabi/6.3.1/../../../../arm-none-eabi/lib/thumb/v7e-m/fpv4-sp/hard/crt0.o
 .text          0x00000000        0x0 examples/dfu/CMakeFiles/dfu_no_serial_nrf52840_xxAA_s140_5.0.0-3.alpha.dir/src/main.c.obj
 .data          0x00000000        0x0 examples/dfu/CMakeFiles/dfu_no_serial_nrf52840_xxAA_s140_5.0.0-3.alpha.dir/src/main.c.obj
 .bss           0x00000000        0x0 examples/dfu/CMakeFiles/dfu_no_serial_nrf52840_xxAA_s140_5.0.0-3.alpha.dir/src/main.c.obj
 .text          0x00000000        0x0 examples/dfu/CMakeFiles/dfu_no_serial_nrf52840_xxAA_s140_5.0.0-3.alpha.dir/__/nrf_mesh_sdk.c.obj
 .data          0x00000000        0x0 examples/dfu/CMakeFiles/dfu_no_serial_nrf52840_xxAA_s140_5.0.0-3.alpha.dir/__/nrf_mesh_sdk.c.obj
 .bss           0x00000000        0x0 examples/dfu/CMakeFiles/dfu_no_serial_nrf52840_xxAA_s140_5.0.0-3.alpha.dir/__/nrf_mesh_sdk.c.obj
 .text.mesh_softdevice_setup
                0x00000000      0x1b4 examples/dfu/CMakeFiles/dfu_no_serial_nrf52840_xxAA_s140_5.0.0-3.alpha.dir/__/nrf_mesh_sdk.c.obj
 .text          0x00000000        0x0 examples/dfu/CMakeFiles/dfu_no_serial_nrf52840_xxAA_s140_5.0.0-3.alpha.dir/__/__/mesh/access/src/access_publish.c.obj
 .data          0x00000000        0x0 examples/dfu/CMakeFiles/dfu_no_serial_nrf52840_xxAA_s140_5.0.0-3.alpha.dir/__/__/mesh/access/src/access_publish.c.obj
 .bss           0x00000000        0x0 examples/dfu/CMakeFiles/dfu_no_serial_nrf52840_xxAA_s140_5.0.0-3.alpha.dir/__/__/mesh/access/src/access_publish.c.obj
 .text.add_to_publication_list
                0x00000000       0x8c examples/dfu/CMakeFiles/dfu_no_serial_nrf52840_xxAA_s140_5.0.0-3.alpha.dir/__/__/mesh/access/src/access_publish.c.obj
 .text.schedule_publication_timer
                0x00000000      0x2f4 examples/dfu/CMakeFiles/dfu_no_serial_nrf52840_xxAA_s140_5.0.0-3.alpha.dir/__/__/mesh/access/src/access_publish.c.obj
 .text.publish_timer_tick
                0x00000000       0xd0 examples/dfu/CMakeFiles/dfu_no_serial_nrf52840_xxAA_s140_5.0.0-3.alpha.dir/__/__/mesh/access/src/access_publish.c.obj
 .text.access_publish_init
                0x00000000       0x38 examples/dfu/CMakeFiles/dfu_no_serial_nrf52840_xxAA_s140_5.0.0-3.alpha.dir/__/__/mesh/access/src/access_publish.c.obj
 .text.access_publish_period_set
                0x00000000       0xa4 examples/dfu/CMakeFiles/dfu_no_serial_nrf52840_xxAA_s140_5.0.0-3.alpha.dir/__/__/mesh/access/src/access_publish.c.obj
 .text.access_publish_period_get
                0x00000000       0x38 examples/dfu/CMakeFiles/dfu_no_serial_nrf52840_xxAA_s140_5.0.0-3.alpha.dir/__/__/mesh/access/src/access_publish.c.obj
 .bss.m_publish_timer
                0x00000000       0x18 examples/dfu/CMakeFiles/dfu_no_serial_nrf52840_xxAA_s140_5.0.0-3.alpha.dir/__/__/mesh/access/src/access_publish.c.obj
 .bss.m_publish_timer_counter
                0x00000000        0x4 examples/dfu/CMakeFiles/dfu_no_serial_nrf52840_xxAA_s140_5.0.0-3.alpha.dir/__/__/mesh/access/src/access_publish.c.obj
 .bss.m_publish_timer_running
                0x00000000        0x1 examples/dfu/CMakeFiles/dfu_no_serial_nrf52840_xxAA_s140_5.0.0-3.alpha.dir/__/__/mesh/access/src/access_publish.c.obj
 .bss.m_timer_resolution
                0x00000000        0x1 examples/dfu/CMakeFiles/dfu_no_serial_nrf52840_xxAA_s140_5.0.0-3.alpha.dir/__/__/mesh/access/src/access_publish.c.obj
 .bss.mp_publication_list
                0x00000000        0x4 examples/dfu/CMakeFiles/dfu_no_serial_nrf52840_xxAA_s140_5.0.0-3.alpha.dir/__/__/mesh/access/src/access_publish.c.obj
 .comment       0x00000000       0x80 examples/dfu/CMakeFiles/dfu_no_serial_nrf52840_xxAA_s140_5.0.0-3.alpha.dir/__/__/mesh/access/src/access_publish.c.obj
 .ARM.attributes
                0x00000000       0x39 examples/dfu/CMakeFiles/dfu_no_serial_nrf52840_xxAA_s140_5.0.0-3.alpha.dir/__/__/mesh/access/src/access_publish.c.obj
 .text          0x00000000        0x0 examples/dfu/CMakeFiles/dfu_no_serial_nrf52840_xxAA_s140_5.0.0-3.alpha.dir/__/__/mesh/access/src/access.c.obj
 .data          0x00000000        0x0 examples/dfu/CMakeFiles/dfu_no_serial_nrf52840_xxAA_s140_5.0.0-3.alpha.dir/__/__/mesh/access/src/access.c.obj
 .bss           0x00000000        0x0 examples/dfu/CMakeFiles/dfu_no_serial_nrf52840_xxAA_s140_5.0.0-3.alpha.dir/__/__/mesh/access/src/access.c.obj
 .text.flash_invalidate_complete
                0x00000000       0x14 examples/dfu/CMakeFiles/dfu_no_serial_nrf52840_xxAA_s140_5.0.0-3.alpha.dir/__/__/mesh/access/src/access.c.obj
 .text.flash_manager_mem_available
                0x00000000        0x4 examples/dfu/CMakeFiles/dfu_no_serial_nrf52840_xxAA_s140_5.0.0-3.alpha.dir/__/__/mesh/access/src/access.c.obj
 .text.access_flash_config_clear
                0x00000000       0x28 examples/dfu/CMakeFiles/dfu_no_serial_nrf52840_xxAA_s140_5.0.0-3.alpha.dir/__/__/mesh/access/src/access.c.obj
 .text.access_flash_config_store
                0x00000000      0x138 examples/dfu/CMakeFiles/dfu_no_serial_nrf52840_xxAA_s140_5.0.0-3.alpha.dir/__/__/mesh/access/src/access.c.obj
 .text.handle_incoming
                0x00000000      0x1b8 examples/dfu/CMakeFiles/dfu_no_serial_nrf52840_xxAA_s140_5.0.0-3.alpha.dir/__/__/mesh/access/src/access.c.obj
 .text.mesh_evt_cb
                0x00000000      0x15c examples/dfu/CMakeFiles/dfu_no_serial_nrf52840_xxAA_s140_5.0.0-3.alpha.dir/__/__/mesh/access/src/access.c.obj
 .text.add_flash_manager
                0x00000000       0x58 examples/dfu/CMakeFiles/dfu_no_serial_nrf52840_xxAA_s140_5.0.0-3.alpha.dir/__/__/mesh/access/src/access.c.obj
 .text.flash_write_complete
                0x00000000       0x58 examples/dfu/CMakeFiles/dfu_no_serial_nrf52840_xxAA_s140_5.0.0-3.alpha.dir/__/__/mesh/access/src/access.c.obj
 .text.flash_remove_complete
                0x00000000       0xb0 examples/dfu/CMakeFiles/dfu_no_serial_nrf52840_xxAA_s140_5.0.0-3.alpha.dir/__/__/mesh/access/src/access.c.obj
 .text.access_flash_config_load
                0x00000000      0x2d8 examples/dfu/CMakeFiles/dfu_no_serial_nrf52840_xxAA_s140_5.0.0-3.alpha.dir/__/__/mesh/access/src/access.c.obj
 .text.access_clear
                0x00000000       0x6c examples/dfu/CMakeFiles/dfu_no_serial_nrf52840_xxAA_s140_5.0.0-3.alpha.dir/__/__/mesh/access/src/access.c.obj
 .text.access_init
                0x00000000       0xb4 examples/dfu/CMakeFiles/dfu_no_serial_nrf52840_xxAA_s140_5.0.0-3.alpha.dir/__/__/mesh/access/src/access.c.obj
 .text.access_model_add
                0x00000000      0x1f4 examples/dfu/CMakeFiles/dfu_no_serial_nrf52840_xxAA_s140_5.0.0-3.alpha.dir/__/__/mesh/access/src/access.c.obj
 .text.access_model_publish
                0x00000000      0x2d4 examples/dfu/CMakeFiles/dfu_no_serial_nrf52840_xxAA_s140_5.0.0-3.alpha.dir/__/__/mesh/access/src/access.c.obj
 .text.access_model_reply
                0x00000000      0x2d0 examples/dfu/CMakeFiles/dfu_no_serial_nrf52840_xxAA_s140_5.0.0-3.alpha.dir/__/__/mesh/access/src/access.c.obj
 .text.access_model_publish_address_set
                0x00000000       0x3c examples/dfu/CMakeFiles/dfu_no_serial_nrf52840_xxAA_s140_5.0.0-3.alpha.dir/__/__/mesh/access/src/access.c.obj
 .text.access_model_publish_address_get
                0x00000000       0x2c examples/dfu/CMakeFiles/dfu_no_serial_nrf52840_xxAA_s140_5.0.0-3.alpha.dir/__/__/mesh/access/src/access.c.obj
 .text.access_model_publish_period_set
                0x00000000       0x78 examples/dfu/CMakeFiles/dfu_no_serial_nrf52840_xxAA_s140_5.0.0-3.alpha.dir/__/__/mesh/access/src/access.c.obj
 .text.access_model_publish_period_get
                0x00000000       0x40 examples/dfu/CMakeFiles/dfu_no_serial_nrf52840_xxAA_s140_5.0.0-3.alpha.dir/__/__/mesh/access/src/access.c.obj
 .text.access_model_subscription_list_alloc
                0x00000000       0x60 examples/dfu/CMakeFiles/dfu_no_serial_nrf52840_xxAA_s140_5.0.0-3.alpha.dir/__/__/mesh/access/src/access.c.obj
 .text.access_model_subscription_lists_share
                0x00000000       0x60 examples/dfu/CMakeFiles/dfu_no_serial_nrf52840_xxAA_s140_5.0.0-3.alpha.dir/__/__/mesh/access/src/access.c.obj
 .text.access_model_subscription_add
                0x00000000       0x60 examples/dfu/CMakeFiles/dfu_no_serial_nrf52840_xxAA_s140_5.0.0-3.alpha.dir/__/__/mesh/access/src/access.c.obj
 .text.access_model_subscription_remove
                0x00000000       0x60 examples/dfu/CMakeFiles/dfu_no_serial_nrf52840_xxAA_s140_5.0.0-3.alpha.dir/__/__/mesh/access/src/access.c.obj
 .text.access_model_subscriptions_get
                0x00000000       0x7c examples/dfu/CMakeFiles/dfu_no_serial_nrf52840_xxAA_s140_5.0.0-3.alpha.dir/__/__/mesh/access/src/access.c.obj
 .text.access_model_application_bind
                0x00000000       0x58 examples/dfu/CMakeFiles/dfu_no_serial_nrf52840_xxAA_s140_5.0.0-3.alpha.dir/__/__/mesh/access/src/access.c.obj
 .text.access_model_application_unbind
                0x00000000       0x58 examples/dfu/CMakeFiles/dfu_no_serial_nrf52840_xxAA_s140_5.0.0-3.alpha.dir/__/__/mesh/access/src/access.c.obj
 .text.access_model_applications_get
                0x00000000       0xfc examples/dfu/CMakeFiles/dfu_no_serial_nrf52840_xxAA_s140_5.0.0-3.alpha.dir/__/__/mesh/access/src/access.c.obj
 .text.access_model_publish_application_set
                0x00000000       0x3c examples/dfu/CMakeFiles/dfu_no_serial_nrf52840_xxAA_s140_5.0.0-3.alpha.dir/__/__/mesh/access/src/access.c.obj
 .text.access_model_publish_application_get
                0x00000000       0x2c examples/dfu/CMakeFiles/dfu_no_serial_nrf52840_xxAA_s140_5.0.0-3.alpha.dir/__/__/mesh/access/src/access.c.obj
 .text.access_default_ttl_set
                0x00000000       0x10 examples/dfu/CMakeFiles/dfu_no_serial_nrf52840_xxAA_s140_5.0.0-3.alpha.dir/__/__/mesh/access/src/access.c.obj
 .text.access_default_ttl_get
                0x00000000        0xc examples/dfu/CMakeFiles/dfu_no_serial_nrf52840_xxAA_s140_5.0.0-3.alpha.dir/__/__/mesh/access/src/access.c.obj
 .text.access_model_publish_ttl_set
                0x00000000       0x40 examples/dfu/CMakeFiles/dfu_no_serial_nrf52840_xxAA_s140_5.0.0-3.alpha.dir/__/__/mesh/access/src/access.c.obj
 .text.access_model_publish_ttl_get
                0x00000000       0x2c examples/dfu/CMakeFiles/dfu_no_serial_nrf52840_xxAA_s140_5.0.0-3.alpha.dir/__/__/mesh/access/src/access.c.obj
 .text.access_element_location_set
                0x00000000       0x20 examples/dfu/CMakeFiles/dfu_no_serial_nrf52840_xxAA_s140_5.0.0-3.alpha.dir/__/__/mesh/access/src/access.c.obj
 .text.access_element_location_get
                0x00000000       0x18 examples/dfu/CMakeFiles/dfu_no_serial_nrf52840_xxAA_s140_5.0.0-3.alpha.dir/__/__/mesh/access/src/access.c.obj
 .text.access_element_sig_model_count_get
                0x00000000       0x18 examples/dfu/CMakeFiles/dfu_no_serial_nrf52840_xxAA_s140_5.0.0-3.alpha.dir/__/__/mesh/access/src/access.c.obj
 .text.access_element_vendor_model_count_get
                0x00000000       0x18 examples/dfu/CMakeFiles/dfu_no_serial_nrf52840_xxAA_s140_5.0.0-3.alpha.dir/__/__/mesh/access/src/access.c.obj
 .text.access_model_id_get
                0x00000000       0x40 examples/dfu/CMakeFiles/dfu_no_serial_nrf52840_xxAA_s140_5.0.0-3.alpha.dir/__/__/mesh/access/src/access.c.obj
 .text.access_handle_get
                0x00000000       0x5c examples/dfu/CMakeFiles/dfu_no_serial_nrf52840_xxAA_s140_5.0.0-3.alpha.dir/__/__/mesh/access/src/access.c.obj
 .text.access_element_models_get
                0x00000000       0x60 examples/dfu/CMakeFiles/dfu_no_serial_nrf52840_xxAA_s140_5.0.0-3.alpha.dir/__/__/mesh/access/src/access.c.obj
 .text.access_model_p_args_get
                0x00000000       0x2c examples/dfu/CMakeFiles/dfu_no_serial_nrf52840_xxAA_s140_5.0.0-3.alpha.dir/__/__/mesh/access/src/access.c.obj
 .bss.m_element_pool
                0x00000000        0x6 examples/dfu/CMakeFiles/dfu_no_serial_nrf52840_xxAA_s140_5.0.0-3.alpha.dir/__/__/mesh/access/src/access.c.obj
 .bss.m_evt_handler
                0x00000000        0x8 examples/dfu/CMakeFiles/dfu_no_serial_nrf52840_xxAA_s140_5.0.0-3.alpha.dir/__/__/mesh/access/src/access.c.obj
 .bss.m_flash_manager
                0x00000000       0x24 examples/dfu/CMakeFiles/dfu_no_serial_nrf52840_xxAA_s140_5.0.0-3.alpha.dir/__/__/mesh/access/src/access.c.obj
 .bss.m_flash_not_ready
                0x00000000        0x1 examples/dfu/CMakeFiles/dfu_no_serial_nrf52840_xxAA_s140_5.0.0-3.alpha.dir/__/__/mesh/access/src/access.c.obj
 .bss.m_metadata_stored
                0x00000000        0x1 examples/dfu/CMakeFiles/dfu_no_serial_nrf52840_xxAA_s140_5.0.0-3.alpha.dir/__/__/mesh/access/src/access.c.obj
 .bss.m_model_pool
                0x00000000       0x68 examples/dfu/CMakeFiles/dfu_no_serial_nrf52840_xxAA_s140_5.0.0-3.alpha.dir/__/__/mesh/access/src/access.c.obj
 .bss.m_subscription_list_pool
                0x00000000       0x10 examples/dfu/CMakeFiles/dfu_no_serial_nrf52840_xxAA_s140_5.0.0-3.alpha.dir/__/__/mesh/access/src/access.c.obj
 .data.flash_add_mem_available_struct.10546
                0x00000000       0x10 examples/dfu/CMakeFiles/dfu_no_serial_nrf52840_xxAA_s140_5.0.0-3.alpha.dir/__/__/mesh/access/src/access.c.obj
 .data.flash_clear_mem_available_struct.10635
                0x00000000       0x10 examples/dfu/CMakeFiles/dfu_no_serial_nrf52840_xxAA_s140_5.0.0-3.alpha.dir/__/__/mesh/access/src/access.c.obj
 .data.flash_store_mem_available_struct.10659
                0x00000000       0x10 examples/dfu/CMakeFiles/dfu_no_serial_nrf52840_xxAA_s140_5.0.0-3.alpha.dir/__/__/mesh/access/src/access.c.obj
 .data.m_default_ttl
                0x00000000        0x1 examples/dfu/CMakeFiles/dfu_no_serial_nrf52840_xxAA_s140_5.0.0-3.alpha.dir/__/__/mesh/access/src/access.c.obj
 .rodata.access_model_publish.str1.4
                0x00000000       0x13 examples/dfu/CMakeFiles/dfu_no_serial_nrf52840_xxAA_s140_5.0.0-3.alpha.dir/__/__/mesh/access/src/access.c.obj
 .rodata.mesh_evt_cb.str1.4
                0x00000000       0x2f examples/dfu/CMakeFiles/dfu_no_serial_nrf52840_xxAA_s140_5.0.0-3.alpha.dir/__/__/mesh/access/src/access.c.obj
 .rodata.multiply_de_bruijn_bit_position.9295
                0x00000000       0x20 examples/dfu/CMakeFiles/dfu_no_serial_nrf52840_xxAA_s140_5.0.0-3.alpha.dir/__/__/mesh/access/src/access.c.obj
 .comment       0x00000000       0x80 examples/dfu/CMakeFiles/dfu_no_serial_nrf52840_xxAA_s140_5.0.0-3.alpha.dir/__/__/mesh/access/src/access.c.obj
 .ARM.attributes
                0x00000000       0x39 examples/dfu/CMakeFiles/dfu_no_serial_nrf52840_xxAA_s140_5.0.0-3.alpha.dir/__/__/mesh/access/src/access.c.obj
 .text          0x00000000        0x0 examples/dfu/CMakeFiles/dfu_no_serial_nrf52840_xxAA_s140_5.0.0-3.alpha.dir/__/__/mesh/access/src/access_reliable.c.obj
 .data          0x00000000        0x0 examples/dfu/CMakeFiles/dfu_no_serial_nrf52840_xxAA_s140_5.0.0-3.alpha.dir/__/__/mesh/access/src/access_reliable.c.obj
 .bss           0x00000000        0x0 examples/dfu/CMakeFiles/dfu_no_serial_nrf52840_xxAA_s140_5.0.0-3.alpha.dir/__/__/mesh/access/src/access_reliable.c.obj
 .text.remove_and_reschedule
                0x00000000      0x108 examples/dfu/CMakeFiles/dfu_no_serial_nrf52840_xxAA_s140_5.0.0-3.alpha.dir/__/__/mesh/access/src/access_reliable.c.obj
 .text.reliable_timer_cb
                0x00000000      0x1dc examples/dfu/CMakeFiles/dfu_no_serial_nrf52840_xxAA_s140_5.0.0-3.alpha.dir/__/__/mesh/access/src/access_reliable.c.obj
 .text.access_reliable_message_rx_cb
                0x00000000       0x8c examples/dfu/CMakeFiles/dfu_no_serial_nrf52840_xxAA_s140_5.0.0-3.alpha.dir/__/__/mesh/access/src/access_reliable.c.obj
 .text.access_reliable_init
                0x00000000       0x1c examples/dfu/CMakeFiles/dfu_no_serial_nrf52840_xxAA_s140_5.0.0-3.alpha.dir/__/__/mesh/access/src/access_reliable.c.obj
 .text.access_reliable_cancel_all
                0x00000000       0x34 examples/dfu/CMakeFiles/dfu_no_serial_nrf52840_xxAA_s140_5.0.0-3.alpha.dir/__/__/mesh/access/src/access_reliable.c.obj
 .text.access_model_reliable_cancel
                0x00000000       0x50 examples/dfu/CMakeFiles/dfu_no_serial_nrf52840_xxAA_s140_5.0.0-3.alpha.dir/__/__/mesh/access/src/access_reliable.c.obj
 .text.access_model_reliable_publish
                0x00000000      0x1d0 examples/dfu/CMakeFiles/dfu_no_serial_nrf52840_xxAA_s140_5.0.0-3.alpha.dir/__/__/mesh/access/src/access_reliable.c.obj
 .bss.m_reliable
                0x00000000       0x6c examples/dfu/CMakeFiles/dfu_no_serial_nrf52840_xxAA_s140_5.0.0-3.alpha.dir/__/__/mesh/access/src/access_reliable.c.obj
 .comment       0x00000000       0x80 examples/dfu/CMakeFiles/dfu_no_serial_nrf52840_xxAA_s140_5.0.0-3.alpha.dir/__/__/mesh/access/src/access_reliable.c.obj
 .ARM.attributes
                0x00000000       0x39 examples/dfu/CMakeFiles/dfu_no_serial_nrf52840_xxAA_s140_5.0.0-3.alpha.dir/__/__/mesh/access/src/access_reliable.c.obj
 .text          0x00000000        0x0 examples/dfu/CMakeFiles/dfu_no_serial_nrf52840_xxAA_s140_5.0.0-3.alpha.dir/__/__/mesh/access/src/device_state_manager.c.obj
 .data          0x00000000        0x0 examples/dfu/CMakeFiles/dfu_no_serial_nrf52840_xxAA_s140_5.0.0-3.alpha.dir/__/__/mesh/access/src/device_state_manager.c.obj
 .bss           0x00000000        0x0 examples/dfu/CMakeFiles/dfu_no_serial_nrf52840_xxAA_s140_5.0.0-3.alpha.dir/__/__/mesh/access/src/device_state_manager.c.obj
 .text.addr_nonvirtual_to_dsm_entry
                0x00000000       0x48 examples/dfu/CMakeFiles/dfu_no_serial_nrf52840_xxAA_s140_5.0.0-3.alpha.dir/__/__/mesh/access/src/device_state_manager.c.obj
 .text.addr_nonvirtual_to_flash_entry
                0x00000000       0x10 examples/dfu/CMakeFiles/dfu_no_serial_nrf52840_xxAA_s140_5.0.0-3.alpha.dir/__/__/mesh/access/src/device_state_manager.c.obj
 .text.flash_mem_listener_callback
                0x00000000       0x28 examples/dfu/CMakeFiles/dfu_no_serial_nrf52840_xxAA_s140_5.0.0-3.alpha.dir/__/__/mesh/access/src/device_state_manager.c.obj
 .text.devkey_to_flash_entry
                0x00000000       0x28 examples/dfu/CMakeFiles/dfu_no_serial_nrf52840_xxAA_s140_5.0.0-3.alpha.dir/__/__/mesh/access/src/device_state_manager.c.obj
 .text.appkey_to_flash_entry
                0x00000000       0x28 examples/dfu/CMakeFiles/dfu_no_serial_nrf52840_xxAA_s140_5.0.0-3.alpha.dir/__/__/mesh/access/src/device_state_manager.c.obj
 .text.subnet_to_flash_entry
                0x00000000       0x24 examples/dfu/CMakeFiles/dfu_no_serial_nrf52840_xxAA_s140_5.0.0-3.alpha.dir/__/__/mesh/access/src/device_state_manager.c.obj
 .text.addr_virtual_to_flash_entry
                0x00000000       0x18 examples/dfu/CMakeFiles/dfu_no_serial_nrf52840_xxAA_s140_5.0.0-3.alpha.dir/__/__/mesh/access/src/device_state_manager.c.obj
 .text.addr_unicast_to_dsm_entry
                0x00000000        0xc examples/dfu/CMakeFiles/dfu_no_serial_nrf52840_xxAA_s140_5.0.0-3.alpha.dir/__/__/mesh/access/src/device_state_manager.c.obj
 .text.addr_unicast_to_flash_entry
                0x00000000       0x10 examples/dfu/CMakeFiles/dfu_no_serial_nrf52840_xxAA_s140_5.0.0-3.alpha.dir/__/__/mesh/access/src/device_state_manager.c.obj
 .text.subnet_set
                0x00000000       0xac examples/dfu/CMakeFiles/dfu_no_serial_nrf52840_xxAA_s140_5.0.0-3.alpha.dir/__/__/mesh/access/src/device_state_manager.c.obj
 .text.flash_save
                0x00000000       0xa8 examples/dfu/CMakeFiles/dfu_no_serial_nrf52840_xxAA_s140_5.0.0-3.alpha.dir/__/__/mesh/access/src/device_state_manager.c.obj
 .text.reset_flash_area
                0x00000000       0x28 examples/dfu/CMakeFiles/dfu_no_serial_nrf52840_xxAA_s140_5.0.0-3.alpha.dir/__/__/mesh/access/src/device_state_manager.c.obj
 .text.build_flash_area
                0x00000000       0x90 examples/dfu/CMakeFiles/dfu_no_serial_nrf52840_xxAA_s140_5.0.0-3.alpha.dir/__/__/mesh/access/src/device_state_manager.c.obj
 .text.flash_invalidate_complete
                0x00000000       0x5c examples/dfu/CMakeFiles/dfu_no_serial_nrf52840_xxAA_s140_5.0.0-3.alpha.dir/__/__/mesh/access/src/device_state_manager.c.obj
 .text.devkey_to_dsm_entry
                0x00000000       0x70 examples/dfu/CMakeFiles/dfu_no_serial_nrf52840_xxAA_s140_5.0.0-3.alpha.dir/__/__/mesh/access/src/device_state_manager.c.obj
 .text.addr_virtual_to_dsm_entry
                0x00000000       0x6c examples/dfu/CMakeFiles/dfu_no_serial_nrf52840_xxAA_s140_5.0.0-3.alpha.dir/__/__/mesh/access/src/device_state_manager.c.obj
 .text.flash_write_complete
                0x00000000       0x5c examples/dfu/CMakeFiles/dfu_no_serial_nrf52840_xxAA_s140_5.0.0-3.alpha.dir/__/__/mesh/access/src/device_state_manager.c.obj
 .text.appkey_to_dsm_entry
                0x00000000       0x94 examples/dfu/CMakeFiles/dfu_no_serial_nrf52840_xxAA_s140_5.0.0-3.alpha.dir/__/__/mesh/access/src/device_state_manager.c.obj
 .text.flash_update_all
                0x00000000      0x144 examples/dfu/CMakeFiles/dfu_no_serial_nrf52840_xxAA_s140_5.0.0-3.alpha.dir/__/__/mesh/access/src/device_state_manager.c.obj
 .text.flash_remove_complete
                0x00000000       0x90 examples/dfu/CMakeFiles/dfu_no_serial_nrf52840_xxAA_s140_5.0.0-3.alpha.dir/__/__/mesh/access/src/device_state_manager.c.obj
 .text.subnet_to_dsm_entry
                0x00000000       0xbc examples/dfu/CMakeFiles/dfu_no_serial_nrf52840_xxAA_s140_5.0.0-3.alpha.dir/__/__/mesh/access/src/device_state_manager.c.obj
 .text.address_delete_if_unused
                0x00000000      0x100 examples/dfu/CMakeFiles/dfu_no_serial_nrf52840_xxAA_s140_5.0.0-3.alpha.dir/__/__/mesh/access/src/device_state_manager.c.obj
 .text.dsm_init
                0x00000000       0xa8 examples/dfu/CMakeFiles/dfu_no_serial_nrf52840_xxAA_s140_5.0.0-3.alpha.dir/__/__/mesh/access/src/device_state_manager.c.obj
 .text.dsm_flash_config_load
                0x00000000      0x190 examples/dfu/CMakeFiles/dfu_no_serial_nrf52840_xxAA_s140_5.0.0-3.alpha.dir/__/__/mesh/access/src/device_state_manager.c.obj
 .text.dsm_has_unflashed_data
                0x00000000       0x58 examples/dfu/CMakeFiles/dfu_no_serial_nrf52840_xxAA_s140_5.0.0-3.alpha.dir/__/__/mesh/access/src/device_state_manager.c.obj
 .text.dsm_flash_area_get
                0x00000000        0xc examples/dfu/CMakeFiles/dfu_no_serial_nrf52840_xxAA_s140_5.0.0-3.alpha.dir/__/__/mesh/access/src/device_state_manager.c.obj
 .text.dsm_clear
                0x00000000      0x10c examples/dfu/CMakeFiles/dfu_no_serial_nrf52840_xxAA_s140_5.0.0-3.alpha.dir/__/__/mesh/access/src/device_state_manager.c.obj
 .text.dsm_local_unicast_addresses_set
                0x00000000       0x78 examples/dfu/CMakeFiles/dfu_no_serial_nrf52840_xxAA_s140_5.0.0-3.alpha.dir/__/__/mesh/access/src/device_state_manager.c.obj
 .text.dsm_local_unicast_addresses_get
                0x00000000       0x2c examples/dfu/CMakeFiles/dfu_no_serial_nrf52840_xxAA_s140_5.0.0-3.alpha.dir/__/__/mesh/access/src/device_state_manager.c.obj
 .text.dsm_address_publish_add
                0x00000000      0x330 examples/dfu/CMakeFiles/dfu_no_serial_nrf52840_xxAA_s140_5.0.0-3.alpha.dir/__/__/mesh/access/src/device_state_manager.c.obj
 .text.dsm_address_publish_add_handle
                0x00000000       0x54 examples/dfu/CMakeFiles/dfu_no_serial_nrf52840_xxAA_s140_5.0.0-3.alpha.dir/__/__/mesh/access/src/device_state_manager.c.obj
 .text.dsm_address_publish_virtual_add
                0x00000000      0x268 examples/dfu/CMakeFiles/dfu_no_serial_nrf52840_xxAA_s140_5.0.0-3.alpha.dir/__/__/mesh/access/src/device_state_manager.c.obj
 .text.dsm_address_publish_remove
                0x00000000       0xbc examples/dfu/CMakeFiles/dfu_no_serial_nrf52840_xxAA_s140_5.0.0-3.alpha.dir/__/__/mesh/access/src/device_state_manager.c.obj
 .text.dsm_address_subscription_add
                0x00000000      0x31c examples/dfu/CMakeFiles/dfu_no_serial_nrf52840_xxAA_s140_5.0.0-3.alpha.dir/__/__/mesh/access/src/device_state_manager.c.obj
 .text.dsm_address_subscription_virtual_add
                0x00000000      0x268 examples/dfu/CMakeFiles/dfu_no_serial_nrf52840_xxAA_s140_5.0.0-3.alpha.dir/__/__/mesh/access/src/device_state_manager.c.obj
 .text.dsm_address_subscription_add_handle
                0x00000000       0x54 examples/dfu/CMakeFiles/dfu_no_serial_nrf52840_xxAA_s140_5.0.0-3.alpha.dir/__/__/mesh/access/src/device_state_manager.c.obj
 .text.dsm_address_subscription_get
                0x00000000       0x5c examples/dfu/CMakeFiles/dfu_no_serial_nrf52840_xxAA_s140_5.0.0-3.alpha.dir/__/__/mesh/access/src/device_state_manager.c.obj
 .text.dsm_address_subscription_count_get
                0x00000000       0x80 examples/dfu/CMakeFiles/dfu_no_serial_nrf52840_xxAA_s140_5.0.0-3.alpha.dir/__/__/mesh/access/src/device_state_manager.c.obj
 .text.dsm_address_subscription_remove
                0x00000000       0x94 examples/dfu/CMakeFiles/dfu_no_serial_nrf52840_xxAA_s140_5.0.0-3.alpha.dir/__/__/mesh/access/src/device_state_manager.c.obj
 .text.dsm_address_get
                0x00000000       0x7c examples/dfu/CMakeFiles/dfu_no_serial_nrf52840_xxAA_s140_5.0.0-3.alpha.dir/__/__/mesh/access/src/device_state_manager.c.obj
 .text.dsm_address_get_all
                0x00000000      0x258 examples/dfu/CMakeFiles/dfu_no_serial_nrf52840_xxAA_s140_5.0.0-3.alpha.dir/__/__/mesh/access/src/device_state_manager.c.obj
 .text.dsm_address_handle_get
                0x00000000      0x3cc examples/dfu/CMakeFiles/dfu_no_serial_nrf52840_xxAA_s140_5.0.0-3.alpha.dir/__/__/mesh/access/src/device_state_manager.c.obj
 .text.dsm_net_key_index_to_subnet_handle
                0x00000000       0x6c examples/dfu/CMakeFiles/dfu_no_serial_nrf52840_xxAA_s140_5.0.0-3.alpha.dir/__/__/mesh/access/src/device_state_manager.c.obj
 .text.dsm_subnet_handle_get
                0x00000000       0x2c examples/dfu/CMakeFiles/dfu_no_serial_nrf52840_xxAA_s140_5.0.0-3.alpha.dir/__/__/mesh/access/src/device_state_manager.c.obj
 .text.dsm_subnet_handle_to_netkey_index
                0x00000000       0x34 examples/dfu/CMakeFiles/dfu_no_serial_nrf52840_xxAA_s140_5.0.0-3.alpha.dir/__/__/mesh/access/src/device_state_manager.c.obj
 .text.dsm_app_key_index_to_appkey_handle
                0x00000000       0xc8 examples/dfu/CMakeFiles/dfu_no_serial_nrf52840_xxAA_s140_5.0.0-3.alpha.dir/__/__/mesh/access/src/device_state_manager.c.obj
 .text.dsm_appkey_handle_get
                0x00000000       0x40 examples/dfu/CMakeFiles/dfu_no_serial_nrf52840_xxAA_s140_5.0.0-3.alpha.dir/__/__/mesh/access/src/device_state_manager.c.obj
 .text.dsm_appkey_handle_to_appkey_index
                0x00000000       0x34 examples/dfu/CMakeFiles/dfu_no_serial_nrf52840_xxAA_s140_5.0.0-3.alpha.dir/__/__/mesh/access/src/device_state_manager.c.obj
 .text.dsm_subnet_add
                0x00000000       0xfc examples/dfu/CMakeFiles/dfu_no_serial_nrf52840_xxAA_s140_5.0.0-3.alpha.dir/__/__/mesh/access/src/device_state_manager.c.obj
 .text.dsm_subnet_update
                0x00000000       0x90 examples/dfu/CMakeFiles/dfu_no_serial_nrf52840_xxAA_s140_5.0.0-3.alpha.dir/__/__/mesh/access/src/device_state_manager.c.obj
 .text.dsm_subnet_delete
                0x00000000      0x160 examples/dfu/CMakeFiles/dfu_no_serial_nrf52840_xxAA_s140_5.0.0-3.alpha.dir/__/__/mesh/access/src/device_state_manager.c.obj
 .text.dsm_subnet_get_all
                0x00000000       0x90 examples/dfu/CMakeFiles/dfu_no_serial_nrf52840_xxAA_s140_5.0.0-3.alpha.dir/__/__/mesh/access/src/device_state_manager.c.obj
 .text.dsm_devkey_add
                0x00000000       0xb0 examples/dfu/CMakeFiles/dfu_no_serial_nrf52840_xxAA_s140_5.0.0-3.alpha.dir/__/__/mesh/access/src/device_state_manager.c.obj
 .text.dsm_devkey_delete
                0x00000000       0x6c examples/dfu/CMakeFiles/dfu_no_serial_nrf52840_xxAA_s140_5.0.0-3.alpha.dir/__/__/mesh/access/src/device_state_manager.c.obj
 .text.dsm_devkey_handle_get
                0x00000000       0x3c examples/dfu/CMakeFiles/dfu_no_serial_nrf52840_xxAA_s140_5.0.0-3.alpha.dir/__/__/mesh/access/src/device_state_manager.c.obj
 .text.dsm_appkey_add
                0x00000000      0x1cc examples/dfu/CMakeFiles/dfu_no_serial_nrf52840_xxAA_s140_5.0.0-3.alpha.dir/__/__/mesh/access/src/device_state_manager.c.obj
 .text.dsm_appkey_update
                0x00000000       0xf0 examples/dfu/CMakeFiles/dfu_no_serial_nrf52840_xxAA_s140_5.0.0-3.alpha.dir/__/__/mesh/access/src/device_state_manager.c.obj
 .text.dsm_appkey_delete
                0x00000000       0x68 examples/dfu/CMakeFiles/dfu_no_serial_nrf52840_xxAA_s140_5.0.0-3.alpha.dir/__/__/mesh/access/src/device_state_manager.c.obj
 .text.dsm_appkey_get_all
                0x00000000      0x154 examples/dfu/CMakeFiles/dfu_no_serial_nrf52840_xxAA_s140_5.0.0-3.alpha.dir/__/__/mesh/access/src/device_state_manager.c.obj
 .text.dsm_tx_secmat_get
                0x00000000       0xfc examples/dfu/CMakeFiles/dfu_no_serial_nrf52840_xxAA_s140_5.0.0-3.alpha.dir/__/__/mesh/access/src/device_state_manager.c.obj
 .text.dsm_beacon_secmat_get
                0x00000000       0x34 examples/dfu/CMakeFiles/dfu_no_serial_nrf52840_xxAA_s140_5.0.0-3.alpha.dir/__/__/mesh/access/src/device_state_manager.c.obj
 .text.dsm_proxy_identity_get
                0x00000000        0x4 examples/dfu/CMakeFiles/dfu_no_serial_nrf52840_xxAA_s140_5.0.0-3.alpha.dir/__/__/mesh/access/src/device_state_manager.c.obj
 .bss.m_addr_nonvirtual_needs_flashing
                0x00000000        0x4 examples/dfu/CMakeFiles/dfu_no_serial_nrf52840_xxAA_s140_5.0.0-3.alpha.dir/__/__/mesh/access/src/device_state_manager.c.obj
 .bss.m_addr_unicast_needs_flashing
                0x00000000        0x4 examples/dfu/CMakeFiles/dfu_no_serial_nrf52840_xxAA_s140_5.0.0-3.alpha.dir/__/__/mesh/access/src/device_state_manager.c.obj
 .bss.m_addr_virtual_needs_flashing
                0x00000000        0x4 examples/dfu/CMakeFiles/dfu_no_serial_nrf52840_xxAA_s140_5.0.0-3.alpha.dir/__/__/mesh/access/src/device_state_manager.c.obj
 .bss.m_appkey_needs_flashing
                0x00000000        0x4 examples/dfu/CMakeFiles/dfu_no_serial_nrf52840_xxAA_s140_5.0.0-3.alpha.dir/__/__/mesh/access/src/device_state_manager.c.obj
 .bss.m_devkey_allocated
                0x00000000        0x4 examples/dfu/CMakeFiles/dfu_no_serial_nrf52840_xxAA_s140_5.0.0-3.alpha.dir/__/__/mesh/access/src/device_state_manager.c.obj
 .bss.m_devkey_needs_flashing
                0x00000000        0x4 examples/dfu/CMakeFiles/dfu_no_serial_nrf52840_xxAA_s140_5.0.0-3.alpha.dir/__/__/mesh/access/src/device_state_manager.c.obj
 .bss.m_flash_is_available
                0x00000000        0x1 examples/dfu/CMakeFiles/dfu_no_serial_nrf52840_xxAA_s140_5.0.0-3.alpha.dir/__/__/mesh/access/src/device_state_manager.c.obj
 .bss.m_flash_manager
                0x00000000       0x24 examples/dfu/CMakeFiles/dfu_no_serial_nrf52840_xxAA_s140_5.0.0-3.alpha.dir/__/__/mesh/access/src/device_state_manager.c.obj
 .bss.m_flash_mem_listener_update_all
                0x00000000       0x10 examples/dfu/CMakeFiles/dfu_no_serial_nrf52840_xxAA_s140_5.0.0-3.alpha.dir/__/__/mesh/access/src/device_state_manager.c.obj
 .bss.m_subnet_needs_flashing
                0x00000000        0x4 examples/dfu/CMakeFiles/dfu_no_serial_nrf52840_xxAA_s140_5.0.0-3.alpha.dir/__/__/mesh/access/src/device_state_manager.c.obj
 .data.mem_listener.10798
                0x00000000       0x10 examples/dfu/CMakeFiles/dfu_no_serial_nrf52840_xxAA_s140_5.0.0-3.alpha.dir/__/__/mesh/access/src/device_state_manager.c.obj
 .data.mem_listener.10824
                0x00000000       0x10 examples/dfu/CMakeFiles/dfu_no_serial_nrf52840_xxAA_s140_5.0.0-3.alpha.dir/__/__/mesh/access/src/device_state_manager.c.obj
 .rodata.m_flash_groups
                0x00000000       0xc0 examples/dfu/CMakeFiles/dfu_no_serial_nrf52840_xxAA_s140_5.0.0-3.alpha.dir/__/__/mesh/access/src/device_state_manager.c.obj
 .text          0x00000000        0x0 examples/dfu/CMakeFiles/dfu_no_serial_nrf52840_xxAA_s140_5.0.0-3.alpha.dir/__/__/mesh/prov/src/prov_provisioner.c.obj
 .data          0x00000000        0x0 examples/dfu/CMakeFiles/dfu_no_serial_nrf52840_xxAA_s140_5.0.0-3.alpha.dir/__/__/mesh/prov/src/prov_provisioner.c.obj
 .bss           0x00000000        0x0 examples/dfu/CMakeFiles/dfu_no_serial_nrf52840_xxAA_s140_5.0.0-3.alpha.dir/__/__/mesh/prov/src/prov_provisioner.c.obj
 .text.prov_provisioner_cb_link_closed
                0x00000000       0x2c examples/dfu/CMakeFiles/dfu_no_serial_nrf52840_xxAA_s140_5.0.0-3.alpha.dir/__/__/mesh/prov/src/prov_provisioner.c.obj
 .text.prov_provisioner_cb_link_established
                0x00000000       0x44 examples/dfu/CMakeFiles/dfu_no_serial_nrf52840_xxAA_s140_5.0.0-3.alpha.dir/__/__/mesh/prov/src/prov_provisioner.c.obj
 .text.prov_provisioner_cb_ack_received
                0x00000000       0x4c examples/dfu/CMakeFiles/dfu_no_serial_nrf52840_xxAA_s140_5.0.0-3.alpha.dir/__/__/mesh/prov/src/prov_provisioner.c.obj
 .text.prov_provisioner_pkt_in
                0x00000000      0x350 examples/dfu/CMakeFiles/dfu_no_serial_nrf52840_xxAA_s140_5.0.0-3.alpha.dir/__/__/mesh/prov/src/prov_provisioner.c.obj
 .text.prov_provisioner_provision
                0x00000000       0x4c examples/dfu/CMakeFiles/dfu_no_serial_nrf52840_xxAA_s140_5.0.0-3.alpha.dir/__/__/mesh/prov/src/prov_provisioner.c.obj
 .text.prov_provisioner_oob_use
                0x00000000       0xb0 examples/dfu/CMakeFiles/dfu_no_serial_nrf52840_xxAA_s140_5.0.0-3.alpha.dir/__/__/mesh/prov/src/prov_provisioner.c.obj
 .text.prov_provisioner_auth_data
                0x00000000       0x64 examples/dfu/CMakeFiles/dfu_no_serial_nrf52840_xxAA_s140_5.0.0-3.alpha.dir/__/__/mesh/prov/src/prov_provisioner.c.obj
 .text.prov_provisioner_shared_secret
                0x00000000       0xcc examples/dfu/CMakeFiles/dfu_no_serial_nrf52840_xxAA_s140_5.0.0-3.alpha.dir/__/__/mesh/prov/src/prov_provisioner.c.obj
 .text.prov_provisioner_oob_pubkey
                0x00000000       0x38 examples/dfu/CMakeFiles/dfu_no_serial_nrf52840_xxAA_s140_5.0.0-3.alpha.dir/__/__/mesh/prov/src/prov_provisioner.c.obj
 .rodata.m_prov_callbacks
                0x00000000       0x10 examples/dfu/CMakeFiles/dfu_no_serial_nrf52840_xxAA_s140_5.0.0-3.alpha.dir/__/__/mesh/prov/src/prov_provisioner.c.obj
 .comment       0x00000000       0x80 examples/dfu/CMakeFiles/dfu_no_serial_nrf52840_xxAA_s140_5.0.0-3.alpha.dir/__/__/mesh/prov/src/prov_provisioner.c.obj
 .ARM.attributes
                0x00000000       0x39 examples/dfu/CMakeFiles/dfu_no_serial_nrf52840_xxAA_s140_5.0.0-3.alpha.dir/__/__/mesh/prov/src/prov_provisioner.c.obj
 .text          0x00000000        0x0 examples/dfu/CMakeFiles/dfu_no_serial_nrf52840_xxAA_s140_5.0.0-3.alpha.dir/__/__/mesh/prov/src/prov_provisionee.c.obj
 .data          0x00000000        0x0 examples/dfu/CMakeFiles/dfu_no_serial_nrf52840_xxAA_s140_5.0.0-3.alpha.dir/__/__/mesh/prov/src/prov_provisionee.c.obj
 .bss           0x00000000        0x0 examples/dfu/CMakeFiles/dfu_no_serial_nrf52840_xxAA_s140_5.0.0-3.alpha.dir/__/__/mesh/prov/src/prov_provisionee.c.obj
 .text.prov_provisionee_cb_link_established
                0x00000000       0x24 examples/dfu/CMakeFiles/dfu_no_serial_nrf52840_xxAA_s140_5.0.0-3.alpha.dir/__/__/mesh/prov/src/prov_provisionee.c.obj
 .text.prov_provisionee_cb_link_closed
                0x00000000       0x80 examples/dfu/CMakeFiles/dfu_no_serial_nrf52840_xxAA_s140_5.0.0-3.alpha.dir/__/__/mesh/prov/src/prov_provisionee.c.obj
 .text.start_authentication
                0x00000000      0x128 examples/dfu/CMakeFiles/dfu_no_serial_nrf52840_xxAA_s140_5.0.0-3.alpha.dir/__/__/mesh/prov/src/prov_provisionee.c.obj
 .text.prov_provisionee_cb_ack_received
                0x00000000      0x11c examples/dfu/CMakeFiles/dfu_no_serial_nrf52840_xxAA_s140_5.0.0-3.alpha.dir/__/__/mesh/prov/src/prov_provisionee.c.obj
 .text.prov_provisionee_pkt_in
                0x00000000      0x30c examples/dfu/CMakeFiles/dfu_no_serial_nrf52840_xxAA_s140_5.0.0-3.alpha.dir/__/__/mesh/prov/src/prov_provisionee.c.obj
 .text.prov_provisionee_init
                0x00000000       0x40 examples/dfu/CMakeFiles/dfu_no_serial_nrf52840_xxAA_s140_5.0.0-3.alpha.dir/__/__/mesh/prov/src/prov_provisionee.c.obj
 .text.prov_provisionee_auth_data
                0x00000000       0x84 examples/dfu/CMakeFiles/dfu_no_serial_nrf52840_xxAA_s140_5.0.0-3.alpha.dir/__/__/mesh/prov/src/prov_provisionee.c.obj
 .text.prov_provisionee_shared_secret
                0x00000000       0xb4 examples/dfu/CMakeFiles/dfu_no_serial_nrf52840_xxAA_s140_5.0.0-3.alpha.dir/__/__/mesh/prov/src/prov_provisionee.c.obj
 .rodata.m_prov_callbacks
                0x00000000       0x10 examples/dfu/CMakeFiles/dfu_no_serial_nrf52840_xxAA_s140_5.0.0-3.alpha.dir/__/__/mesh/prov/src/prov_provisionee.c.obj
 .rodata.prov_provisionee_cb_ack_received.str1.4
                0x00000000       0x53 examples/dfu/CMakeFiles/dfu_no_serial_nrf52840_xxAA_s140_5.0.0-3.alpha.dir/__/__/mesh/prov/src/prov_provisionee.c.obj
 .comment       0x00000000       0x80 examples/dfu/CMakeFiles/dfu_no_serial_nrf52840_xxAA_s140_5.0.0-3.alpha.dir/__/__/mesh/prov/src/prov_provisionee.c.obj
 .ARM.attributes
                0x00000000       0x39 examples/dfu/CMakeFiles/dfu_no_serial_nrf52840_xxAA_s140_5.0.0-3.alpha.dir/__/__/mesh/prov/src/prov_provisionee.c.obj
 .text          0x00000000        0x0 examples/dfu/CMakeFiles/dfu_no_serial_nrf52840_xxAA_s140_5.0.0-3.alpha.dir/__/__/mesh/prov/src/nrf_mesh_prov.c.obj
 .data          0x00000000        0x0 examples/dfu/CMakeFiles/dfu_no_serial_nrf52840_xxAA_s140_5.0.0-3.alpha.dir/__/__/mesh/prov/src/nrf_mesh_prov.c.obj
 .bss           0x00000000        0x0 examples/dfu/CMakeFiles/dfu_no_serial_nrf52840_xxAA_s140_5.0.0-3.alpha.dir/__/__/mesh/prov/src/nrf_mesh_prov.c.obj
 .text.nrf_mesh_prov_init
                0x00000000       0x24 examples/dfu/CMakeFiles/dfu_no_serial_nrf52840_xxAA_s140_5.0.0-3.alpha.dir/__/__/mesh/prov/src/nrf_mesh_prov.c.obj
 .text.nrf_mesh_prov_generate_keys
                0x00000000        0x4 examples/dfu/CMakeFiles/dfu_no_serial_nrf52840_xxAA_s140_5.0.0-3.alpha.dir/__/__/mesh/prov/src/nrf_mesh_prov.c.obj
 .text.nrf_mesh_prov_listen
                0x00000000       0x28 examples/dfu/CMakeFiles/dfu_no_serial_nrf52840_xxAA_s140_5.0.0-3.alpha.dir/__/__/mesh/prov/src/nrf_mesh_prov.c.obj
 .text.nrf_mesh_prov_provision
                0x00000000       0x50 examples/dfu/CMakeFiles/dfu_no_serial_nrf52840_xxAA_s140_5.0.0-3.alpha.dir/__/__/mesh/prov/src/nrf_mesh_prov.c.obj
 .text.nrf_mesh_prov_oob_use
                0x00000000       0x10 examples/dfu/CMakeFiles/dfu_no_serial_nrf52840_xxAA_s140_5.0.0-3.alpha.dir/__/__/mesh/prov/src/nrf_mesh_prov.c.obj
 .text.nrf_mesh_prov_auth_data_provide
                0x00000000       0x10 examples/dfu/CMakeFiles/dfu_no_serial_nrf52840_xxAA_s140_5.0.0-3.alpha.dir/__/__/mesh/prov/src/nrf_mesh_prov.c.obj
 .text.nrf_mesh_prov_shared_secret_provide
                0x00000000       0x10 examples/dfu/CMakeFiles/dfu_no_serial_nrf52840_xxAA_s140_5.0.0-3.alpha.dir/__/__/mesh/prov/src/nrf_mesh_prov.c.obj
 .text.nrf_mesh_prov_pubkey_provide
                0x00000000       0x10 examples/dfu/CMakeFiles/dfu_no_serial_nrf52840_xxAA_s140_5.0.0-3.alpha.dir/__/__/mesh/prov/src/nrf_mesh_prov.c.obj
 .comment       0x00000000       0x80 examples/dfu/CMakeFiles/dfu_no_serial_nrf52840_xxAA_s140_5.0.0-3.alpha.dir/__/__/mesh/prov/src/nrf_mesh_prov.c.obj
 .ARM.attributes
                0x00000000       0x39 examples/dfu/CMakeFiles/dfu_no_serial_nrf52840_xxAA_s140_5.0.0-3.alpha.dir/__/__/mesh/prov/src/nrf_mesh_prov.c.obj
 .text          0x00000000        0x0 examples/dfu/CMakeFiles/dfu_no_serial_nrf52840_xxAA_s140_5.0.0-3.alpha.dir/__/__/mesh/prov/src/provisioning.c.obj
 .data          0x00000000        0x0 examples/dfu/CMakeFiles/dfu_no_serial_nrf52840_xxAA_s140_5.0.0-3.alpha.dir/__/__/mesh/prov/src/provisioning.c.obj
 .bss           0x00000000        0x0 examples/dfu/CMakeFiles/dfu_no_serial_nrf52840_xxAA_s140_5.0.0-3.alpha.dir/__/__/mesh/prov/src/provisioning.c.obj
 .text.prov_packet_length_valid
                0x00000000       0x20 examples/dfu/CMakeFiles/dfu_no_serial_nrf52840_xxAA_s140_5.0.0-3.alpha.dir/__/__/mesh/prov/src/provisioning.c.obj
 .text.prov_init
                0x00000000       0x34 examples/dfu/CMakeFiles/dfu_no_serial_nrf52840_xxAA_s140_5.0.0-3.alpha.dir/__/__/mesh/prov/src/provisioning.c.obj
 .text.prov_listen_start
                0x00000000       0x14 examples/dfu/CMakeFiles/dfu_no_serial_nrf52840_xxAA_s140_5.0.0-3.alpha.dir/__/__/mesh/prov/src/provisioning.c.obj
 .text.prov_listen_stop
                0x00000000        0x8 examples/dfu/CMakeFiles/dfu_no_serial_nrf52840_xxAA_s140_5.0.0-3.alpha.dir/__/__/mesh/prov/src/provisioning.c.obj
 .text.prov_link_open
                0x00000000       0x14 examples/dfu/CMakeFiles/dfu_no_serial_nrf52840_xxAA_s140_5.0.0-3.alpha.dir/__/__/mesh/prov/src/provisioning.c.obj
 .text.prov_link_close
                0x00000000        0x8 examples/dfu/CMakeFiles/dfu_no_serial_nrf52840_xxAA_s140_5.0.0-3.alpha.dir/__/__/mesh/prov/src/provisioning.c.obj
 .text.prov_tx_invite
                0x00000000       0x44 examples/dfu/CMakeFiles/dfu_no_serial_nrf52840_xxAA_s140_5.0.0-3.alpha.dir/__/__/mesh/prov/src/provisioning.c.obj
 .text.prov_tx_capabilities
                0x00000000       0x4c examples/dfu/CMakeFiles/dfu_no_serial_nrf52840_xxAA_s140_5.0.0-3.alpha.dir/__/__/mesh/prov/src/provisioning.c.obj
 .text.prov_tx_start
                0x00000000       0x4c examples/dfu/CMakeFiles/dfu_no_serial_nrf52840_xxAA_s140_5.0.0-3.alpha.dir/__/__/mesh/prov/src/provisioning.c.obj
 .text.prov_tx_public_key
                0x00000000       0x40 examples/dfu/CMakeFiles/dfu_no_serial_nrf52840_xxAA_s140_5.0.0-3.alpha.dir/__/__/mesh/prov/src/provisioning.c.obj
 .text.prov_tx_input_complete
                0x00000000       0x34 examples/dfu/CMakeFiles/dfu_no_serial_nrf52840_xxAA_s140_5.0.0-3.alpha.dir/__/__/mesh/prov/src/provisioning.c.obj
 .text.prov_tx_confirmation
                0x00000000       0x40 examples/dfu/CMakeFiles/dfu_no_serial_nrf52840_xxAA_s140_5.0.0-3.alpha.dir/__/__/mesh/prov/src/provisioning.c.obj
 .text.prov_tx_random
                0x00000000       0x40 examples/dfu/CMakeFiles/dfu_no_serial_nrf52840_xxAA_s140_5.0.0-3.alpha.dir/__/__/mesh/prov/src/provisioning.c.obj
 .text.prov_tx_complete
                0x00000000       0x34 examples/dfu/CMakeFiles/dfu_no_serial_nrf52840_xxAA_s140_5.0.0-3.alpha.dir/__/__/mesh/prov/src/provisioning.c.obj
 .text.prov_tx_failed
                0x00000000       0x38 examples/dfu/CMakeFiles/dfu_no_serial_nrf52840_xxAA_s140_5.0.0-3.alpha.dir/__/__/mesh/prov/src/provisioning.c.obj
 .text.prov_tx_data
                0x00000000       0x48 examples/dfu/CMakeFiles/dfu_no_serial_nrf52840_xxAA_s140_5.0.0-3.alpha.dir/__/__/mesh/prov/src/provisioning.c.obj
 .text.prov_tx  0x00000000       0x50 examples/dfu/CMakeFiles/dfu_no_serial_nrf52840_xxAA_s140_5.0.0-3.alpha.dir/__/__/mesh/prov/src/provisioning.c.obj
 .rodata.pdu_sizes.10990
                0x00000000        0xa examples/dfu/CMakeFiles/dfu_no_serial_nrf52840_xxAA_s140_5.0.0-3.alpha.dir/__/__/mesh/prov/src/provisioning.c.obj
 .text          0x00000000        0x0 examples/dfu/CMakeFiles/dfu_no_serial_nrf52840_xxAA_s140_5.0.0-3.alpha.dir/__/__/mesh/prov/src/prov_beacon.c.obj
 .data          0x00000000        0x0 examples/dfu/CMakeFiles/dfu_no_serial_nrf52840_xxAA_s140_5.0.0-3.alpha.dir/__/__/mesh/prov/src/prov_beacon.c.obj
 .bss           0x00000000        0x0 examples/dfu/CMakeFiles/dfu_no_serial_nrf52840_xxAA_s140_5.0.0-3.alpha.dir/__/__/mesh/prov/src/prov_beacon.c.obj
 .text.prov_beacon_unprov_build
                0x00000000       0x54 examples/dfu/CMakeFiles/dfu_no_serial_nrf52840_xxAA_s140_5.0.0-3.alpha.dir/__/__/mesh/prov/src/prov_beacon.c.obj
 .text.prov_beacon_unprov_report
                0x00000000        0xc examples/dfu/CMakeFiles/dfu_no_serial_nrf52840_xxAA_s140_5.0.0-3.alpha.dir/__/__/mesh/prov/src/prov_beacon.c.obj
 .text          0x00000000        0x0 examples/dfu/CMakeFiles/dfu_no_serial_nrf52840_xxAA_s140_5.0.0-3.alpha.dir/__/__/mesh/prov/src/prov_utils.c.obj
 .data          0x00000000        0x0 examples/dfu/CMakeFiles/dfu_no_serial_nrf52840_xxAA_s140_5.0.0-3.alpha.dir/__/__/mesh/prov/src/prov_utils.c.obj
 .bss           0x00000000        0x0 examples/dfu/CMakeFiles/dfu_no_serial_nrf52840_xxAA_s140_5.0.0-3.alpha.dir/__/__/mesh/prov/src/prov_utils.c.obj
 .text.prov_utils_opt_set
                0x00000000       0x24 examples/dfu/CMakeFiles/dfu_no_serial_nrf52840_xxAA_s140_5.0.0-3.alpha.dir/__/__/mesh/prov/src/prov_utils.c.obj
 .text.prov_utils_opt_get
                0x00000000       0x1c examples/dfu/CMakeFiles/dfu_no_serial_nrf52840_xxAA_s140_5.0.0-3.alpha.dir/__/__/mesh/prov/src/prov_utils.c.obj
 .text.prov_utils_use_ecdh_offloading
                0x00000000        0xc examples/dfu/CMakeFiles/dfu_no_serial_nrf52840_xxAA_s140_5.0.0-3.alpha.dir/__/__/mesh/prov/src/prov_utils.c.obj
 .text.prov_utils_authentication_values_derive
                0x00000000       0xac examples/dfu/CMakeFiles/dfu_no_serial_nrf52840_xxAA_s140_5.0.0-3.alpha.dir/__/__/mesh/prov/src/prov_utils.c.obj
 .text.prov_utils_keys_generate
                0x00000000       0x20 examples/dfu/CMakeFiles/dfu_no_serial_nrf52840_xxAA_s140_5.0.0-3.alpha.dir/__/__/mesh/prov/src/prov_utils.c.obj
 .text.prov_utils_derive_keys
                0x00000000       0xb4 examples/dfu/CMakeFiles/dfu_no_serial_nrf52840_xxAA_s140_5.0.0-3.alpha.dir/__/__/mesh/prov/src/prov_utils.c.obj
 .text.prov_utils_calculate_shared_secret
                0x00000000       0x38 examples/dfu/CMakeFiles/dfu_no_serial_nrf52840_xxAA_s140_5.0.0-3.alpha.dir/__/__/mesh/prov/src/prov_utils.c.obj
 .text.prov_utils_generate_oob_data
                0x00000000      0x1c8 examples/dfu/CMakeFiles/dfu_no_serial_nrf52840_xxAA_s140_5.0.0-3.alpha.dir/__/__/mesh/prov/src/prov_utils.c.obj
 .text.prov_utils_confirmation_check
                0x00000000       0x5c examples/dfu/CMakeFiles/dfu_no_serial_nrf52840_xxAA_s140_5.0.0-3.alpha.dir/__/__/mesh/prov/src/prov_utils.c.obj
 .bss.m_offload_ecdh
                0x00000000        0x1 examples/dfu/CMakeFiles/dfu_no_serial_nrf52840_xxAA_s140_5.0.0-3.alpha.dir/__/__/mesh/prov/src/prov_utils.c.obj
 .rodata.alphanumeric.11094
                0x00000000       0x25 examples/dfu/CMakeFiles/dfu_no_serial_nrf52840_xxAA_s140_5.0.0-3.alpha.dir/__/__/mesh/prov/src/prov_utils.c.obj
 .rodata.numeric_max.11088
                0x00000000       0x24 examples/dfu/CMakeFiles/dfu_no_serial_nrf52840_xxAA_s140_5.0.0-3.alpha.dir/__/__/mesh/prov/src/prov_utils.c.obj
 .rodata.prov_utils_authentication_values_derive.str1.4
                0x00000000        0x5 examples/dfu/CMakeFiles/dfu_no_serial_nrf52840_xxAA_s140_5.0.0-3.alpha.dir/__/__/mesh/prov/src/prov_utils.c.obj
 .rodata.prov_utils_derive_keys.str1.4
                0x00000000       0x15 examples/dfu/CMakeFiles/dfu_no_serial_nrf52840_xxAA_s140_5.0.0-3.alpha.dir/__/__/mesh/prov/src/prov_utils.c.obj
 .comment       0x00000000       0x80 examples/dfu/CMakeFiles/dfu_no_serial_nrf52840_xxAA_s140_5.0.0-3.alpha.dir/__/__/mesh/prov/src/prov_utils.c.obj
 .ARM.attributes
                0x00000000       0x39 examples/dfu/CMakeFiles/dfu_no_serial_nrf52840_xxAA_s140_5.0.0-3.alpha.dir/__/__/mesh/prov/src/prov_utils.c.obj
 .text          0x00000000        0x0 examples/dfu/CMakeFiles/dfu_no_serial_nrf52840_xxAA_s140_5.0.0-3.alpha.dir/__/__/mesh/prov/src/prov_bearer_adv.c.obj
 .data          0x00000000        0x0 examples/dfu/CMakeFiles/dfu_no_serial_nrf52840_xxAA_s140_5.0.0-3.alpha.dir/__/__/mesh/prov/src/prov_bearer_adv.c.obj
 .bss           0x00000000        0x0 examples/dfu/CMakeFiles/dfu_no_serial_nrf52840_xxAA_s140_5.0.0-3.alpha.dir/__/__/mesh/prov/src/prov_bearer_adv.c.obj
 .text.prov_bearer_adv_listen_stop
                0x00000000       0x3c examples/dfu/CMakeFiles/dfu_no_serial_nrf52840_xxAA_s140_5.0.0-3.alpha.dir/__/__/mesh/prov/src/prov_bearer_adv.c.obj
 .text.link_timeout_cb
                0x00000000        0x8 examples/dfu/CMakeFiles/dfu_no_serial_nrf52840_xxAA_s140_5.0.0-3.alpha.dir/__/__/mesh/prov/src/prov_bearer_adv.c.obj
 .text.tx_complete_cb
                0x00000000       0x20 examples/dfu/CMakeFiles/dfu_no_serial_nrf52840_xxAA_s140_5.0.0-3.alpha.dir/__/__/mesh/prov/src/prov_bearer_adv.c.obj
 .text.prov_bearer_adv_listen
                0x00000000      0x160 examples/dfu/CMakeFiles/dfu_no_serial_nrf52840_xxAA_s140_5.0.0-3.alpha.dir/__/__/mesh/prov/src/prov_bearer_adv.c.obj
 .text.prov_buffer_tx
                0x00000000      0x218 examples/dfu/CMakeFiles/dfu_no_serial_nrf52840_xxAA_s140_5.0.0-3.alpha.dir/__/__/mesh/prov/src/prov_bearer_adv.c.obj
 .text.prov_bearer_adv_tx
                0x00000000       0xd4 examples/dfu/CMakeFiles/dfu_no_serial_nrf52840_xxAA_s140_5.0.0-3.alpha.dir/__/__/mesh/prov/src/prov_bearer_adv.c.obj
 .text.tx_retry_cb
                0x00000000      0x148 examples/dfu/CMakeFiles/dfu_no_serial_nrf52840_xxAA_s140_5.0.0-3.alpha.dir/__/__/mesh/prov/src/prov_bearer_adv.c.obj
 .text.async_process
                0x00000000       0xb4 examples/dfu/CMakeFiles/dfu_no_serial_nrf52840_xxAA_s140_5.0.0-3.alpha.dir/__/__/mesh/prov/src/prov_bearer_adv.c.obj
 .text.prov_bearer_adv_link_open
                0x00000000      0x1c4 examples/dfu/CMakeFiles/dfu_no_serial_nrf52840_xxAA_s140_5.0.0-3.alpha.dir/__/__/mesh/prov/src/prov_bearer_adv.c.obj
 .text.calculate_3GPP_CRC
                0x00000000       0x28 examples/dfu/CMakeFiles/dfu_no_serial_nrf52840_xxAA_s140_5.0.0-3.alpha.dir/__/__/mesh/prov/src/prov_bearer_adv.c.obj
 .text.prov_bearer_adv_interface_get
                0x00000000       0x28 examples/dfu/CMakeFiles/dfu_no_serial_nrf52840_xxAA_s140_5.0.0-3.alpha.dir/__/__/mesh/prov/src/prov_bearer_adv.c.obj
 .data.m_async_process_flag
                0x00000000        0x4 examples/dfu/CMakeFiles/dfu_no_serial_nrf52840_xxAA_s140_5.0.0-3.alpha.dir/__/__/mesh/prov/src/prov_bearer_adv.c.obj
 .rodata.interface.11081
                0x00000000       0x14 examples/dfu/CMakeFiles/dfu_no_serial_nrf52840_xxAA_s140_5.0.0-3.alpha.dir/__/__/mesh/prov/src/prov_bearer_adv.c.obj
 .rodata.tx_retry_cb.str1.4
                0x00000000       0x14 examples/dfu/CMakeFiles/dfu_no_serial_nrf52840_xxAA_s140_5.0.0-3.alpha.dir/__/__/mesh/prov/src/prov_bearer_adv.c.obj
 .text          0x00000000        0x0 examples/dfu/CMakeFiles/dfu_no_serial_nrf52840_xxAA_s140_5.0.0-3.alpha.dir/__/__/mesh/dfu/src/nrf_mesh_dfu.c.obj
 .data          0x00000000        0x0 examples/dfu/CMakeFiles/dfu_no_serial_nrf52840_xxAA_s140_5.0.0-3.alpha.dir/__/__/mesh/dfu/src/nrf_mesh_dfu.c.obj
 .bss           0x00000000        0x0 examples/dfu/CMakeFiles/dfu_no_serial_nrf52840_xxAA_s140_5.0.0-3.alpha.dir/__/__/mesh/dfu/src/nrf_mesh_dfu.c.obj
 .text.nrf_mesh_dfu_jump_to_bootloader
                0x00000000       0x40 examples/dfu/CMakeFiles/dfu_no_serial_nrf52840_xxAA_s140_5.0.0-3.alpha.dir/__/__/mesh/dfu/src/nrf_mesh_dfu.c.obj
 .text.nrf_mesh_dfu_abort
                0x00000000       0xc4 examples/dfu/CMakeFiles/dfu_no_serial_nrf52840_xxAA_s140_5.0.0-3.alpha.dir/__/__/mesh/dfu/src/nrf_mesh_dfu.c.obj
 .text.nrf_mesh_dfu_bank_info_get
                0x00000000       0xc0 examples/dfu/CMakeFiles/dfu_no_serial_nrf52840_xxAA_s140_5.0.0-3.alpha.dir/__/__/mesh/dfu/src/nrf_mesh_dfu.c.obj
 .text.nrf_mesh_dfu_state_get
                0x00000000       0x4c examples/dfu/CMakeFiles/dfu_no_serial_nrf52840_xxAA_s140_5.0.0-3.alpha.dir/__/__/mesh/dfu/src/nrf_mesh_dfu.c.obj
 .text          0x00000000        0x0 examples/dfu/CMakeFiles/dfu_no_serial_nrf52840_xxAA_s140_5.0.0-3.alpha.dir/__/nrf_mesh_weak.c.obj
 .data          0x00000000        0x0 examples/dfu/CMakeFiles/dfu_no_serial_nrf52840_xxAA_s140_5.0.0-3.alpha.dir/__/nrf_mesh_weak.c.obj
 .bss           0x00000000        0x0 examples/dfu/CMakeFiles/dfu_no_serial_nrf52840_xxAA_s140_5.0.0-3.alpha.dir/__/nrf_mesh_weak.c.obj
 .text._weak_handler
                0x00000000        0x4 examples/dfu/CMakeFiles/dfu_no_serial_nrf52840_xxAA_s140_5.0.0-3.alpha.dir/__/nrf_mesh_weak.c.obj
 .text._weak_handler_ptr
                0x00000000        0x4 examples/dfu/CMakeFiles/dfu_no_serial_nrf52840_xxAA_s140_5.0.0-3.alpha.dir/__/nrf_mesh_weak.c.obj
 .comment       0x00000000       0x80 examples/dfu/CMakeFiles/dfu_no_serial_nrf52840_xxAA_s140_5.0.0-3.alpha.dir/__/nrf_mesh_weak.c.obj
 .ARM.attributes
                0x00000000       0x39 examples/dfu/CMakeFiles/dfu_no_serial_nrf52840_xxAA_s140_5.0.0-3.alpha.dir/__/nrf_mesh_weak.c.obj
 .text          0x00000000        0x0 examples/dfu/CMakeFiles/dfu_no_serial_nrf52840_xxAA_s140_5.0.0-3.alpha.dir/__/__/external/nRF5_SDK_14.0.0_3bcc1f7/components/toolchain/system_nrf52840.c.obj
 .data          0x00000000        0x0 examples/dfu/CMakeFiles/dfu_no_serial_nrf52840_xxAA_s140_5.0.0-3.alpha.dir/__/__/external/nRF5_SDK_14.0.0_3bcc1f7/components/toolchain/system_nrf52840.c.obj
 .bss           0x00000000        0x0 examples/dfu/CMakeFiles/dfu_no_serial_nrf52840_xxAA_s140_5.0.0-3.alpha.dir/__/__/external/nRF5_SDK_14.0.0_3bcc1f7/components/toolchain/system_nrf52840.c.obj
 .text.SystemCoreClockUpdate
                0x00000000       0x10 examples/dfu/CMakeFiles/dfu_no_serial_nrf52840_xxAA_s140_5.0.0-3.alpha.dir/__/__/external/nRF5_SDK_14.0.0_3bcc1f7/components/toolchain/system_nrf52840.c.obj
 .data          0x00000000        0x0 examples/dfu/CMakeFiles/dfu_no_serial_nrf52840_xxAA_s140_5.0.0-3.alpha.dir/__/__/external/nRF5_SDK_14.0.0_3bcc1f7/components/toolchain/gcc/gcc_startup_nrf52840.S.obj
 .bss           0x00000000        0x0 examples/dfu/CMakeFiles/dfu_no_serial_nrf52840_xxAA_s140_5.0.0-3.alpha.dir/__/__/external/nRF5_SDK_14.0.0_3bcc1f7/components/toolchain/gcc/gcc_startup_nrf52840.S.obj
 .text          0x00000000        0x0 mesh/core/libmesh_core_nrf52840_xxAA.a(nrf_mesh_configure.c.obj)
 .data          0x00000000        0x0 mesh/core/libmesh_core_nrf52840_xxAA.a(nrf_mesh_configure.c.obj)
 .bss           0x00000000        0x0 mesh/core/libmesh_core_nrf52840_xxAA.a(nrf_mesh_configure.c.obj)
 .text.nrf_mesh_configure_device_uuid_set
                0x00000000       0x10 mesh/core/libmesh_core_nrf52840_xxAA.a(nrf_mesh_configure.c.obj)
 .text          0x00000000        0x0 mesh/core/libmesh_core_nrf52840_xxAA.a(event.c.obj)
 .data          0x00000000        0x0 mesh/core/libmesh_core_nrf52840_xxAA.a(event.c.obj)
 .bss           0x00000000        0x0 mesh/core/libmesh_core_nrf52840_xxAA.a(event.c.obj)
 .text.event_handler_remove
                0x00000000       0x6c mesh/core/libmesh_core_nrf52840_xxAA.a(event.c.obj)
 .text          0x00000000        0x0 mesh/core/libmesh_core_nrf52840_xxAA.a(net_state.c.obj)
 .data          0x00000000        0x0 mesh/core/libmesh_core_nrf52840_xxAA.a(net_state.c.obj)
 .bss           0x00000000        0x0 mesh/core/libmesh_core_nrf52840_xxAA.a(net_state.c.obj)
 .text.net_state_reset
                0x00000000       0x3c mesh/core/libmesh_core_nrf52840_xxAA.a(net_state.c.obj)
 .text.net_state_flash_area_get
                0x00000000        0xc mesh/core/libmesh_core_nrf52840_xxAA.a(net_state.c.obj)
 .text.net_state_iv_update_start
                0x00000000       0x90 mesh/core/libmesh_core_nrf52840_xxAA.a(net_state.c.obj)
 .text.net_state_iv_update_test_mode_set
                0x00000000        0xc mesh/core/libmesh_core_nrf52840_xxAA.a(net_state.c.obj)
 .data.mem_listener.10054
                0x00000000       0x10 mesh/core/libmesh_core_nrf52840_xxAA.a(net_state.c.obj)
 .text          0x00000000        0x0 mesh/core/libmesh_core_nrf52840_xxAA.a(mesh_flash.c.obj)
 .data          0x00000000        0x0 mesh/core/libmesh_core_nrf52840_xxAA.a(mesh_flash.c.obj)
 .bss           0x00000000        0x0 mesh/core/libmesh_core_nrf52840_xxAA.a(mesh_flash.c.obj)
 .text.mesh_flash_op_available_slots
                0x00000000       0x2c mesh/core/libmesh_core_nrf52840_xxAA.a(mesh_flash.c.obj)
 .text          0x00000000        0x0 mesh/core/libmesh_core_nrf52840_xxAA.a(nrf_mesh_utils.c.obj)
 .data          0x00000000        0x0 mesh/core/libmesh_core_nrf52840_xxAA.a(nrf_mesh_utils.c.obj)
 .bss           0x00000000        0x0 mesh/core/libmesh_core_nrf52840_xxAA.a(nrf_mesh_utils.c.obj)
 .text.nrf_mesh_rand_get
                0x00000000       0x10 mesh/core/libmesh_core_nrf52840_xxAA.a(nrf_mesh_utils.c.obj)
 .text.nrf_mesh_gap_address_type_get
                0x00000000       0x40 mesh/core/libmesh_core_nrf52840_xxAA.a(nrf_mesh_utils.c.obj)
 .text          0x00000000        0x0 mesh/core/libmesh_core_nrf52840_xxAA.a(nrf_mesh.c.obj)
 .data          0x00000000        0x0 mesh/core/libmesh_core_nrf52840_xxAA.a(nrf_mesh.c.obj)
 .bss           0x00000000        0x0 mesh/core/libmesh_core_nrf52840_xxAA.a(nrf_mesh.c.obj)
 .text.nrf_mesh_disable
                0x00000000       0x2c mesh/core/libmesh_core_nrf52840_xxAA.a(nrf_mesh.c.obj)
 .text.nrf_mesh_packet_send
                0x00000000        0x4 mesh/core/libmesh_core_nrf52840_xxAA.a(nrf_mesh.c.obj)
 .text.nrf_mesh_evt_handler_remove
                0x00000000        0x4 mesh/core/libmesh_core_nrf52840_xxAA.a(nrf_mesh.c.obj)
 .text.nrf_mesh_rx_cb_set
                0x00000000        0xc mesh/core/libmesh_core_nrf52840_xxAA.a(nrf_mesh.c.obj)
 .text.nrf_mesh_rx_cb_clear
                0x00000000        0xc mesh/core/libmesh_core_nrf52840_xxAA.a(nrf_mesh.c.obj)
 .text          0x00000000        0x0 mesh/core/libmesh_core_nrf52840_xxAA.a(hal.c.obj)
 .data          0x00000000        0x0 mesh/core/libmesh_core_nrf52840_xxAA.a(hal.c.obj)
 .bss           0x00000000        0x0 mesh/core/libmesh_core_nrf52840_xxAA.a(hal.c.obj)
 .text.sd_power_reset_reason_clr
                0x00000000        0x4 mesh/core/libmesh_core_nrf52840_xxAA.a(hal.c.obj)
 .text.hal_device_reset
                0x00000000       0x2c mesh/core/libmesh_core_nrf52840_xxAA.a(hal.c.obj)
 .text          0x00000000        0x0 mesh/core/libmesh_core_nrf52840_xxAA.a(timer_scheduler.c.obj)
 .data          0x00000000        0x0 mesh/core/libmesh_core_nrf52840_xxAA.a(timer_scheduler.c.obj)
 .bss           0x00000000        0x0 mesh/core/libmesh_core_nrf52840_xxAA.a(timer_scheduler.c.obj)
 .text          0x00000000        0x0 mesh/core/libmesh_core_nrf52840_xxAA.a(timer.c.obj)
 .data          0x00000000        0x0 mesh/core/libmesh_core_nrf52840_xxAA.a(timer.c.obj)
 .bss           0x00000000        0x0 mesh/core/libmesh_core_nrf52840_xxAA.a(timer.c.obj)
 .text.timer_order_cb_ppi
                0x00000000       0xd8 mesh/core/libmesh_core_nrf52840_xxAA.a(timer.c.obj)
 .text.timer_order_ppi
                0x00000000       0x88 mesh/core/libmesh_core_nrf52840_xxAA.a(timer.c.obj)
 .text.timer_abort
                0x00000000       0x84 mesh/core/libmesh_core_nrf52840_xxAA.a(timer.c.obj)
 .text          0x00000000        0x0 mesh/core/libmesh_core_nrf52840_xxAA.a(ticker.c.obj)
 .data          0x00000000        0x0 mesh/core/libmesh_core_nrf52840_xxAA.a(ticker.c.obj)
 .bss           0x00000000        0x0 mesh/core/libmesh_core_nrf52840_xxAA.a(ticker.c.obj)
 .text.ticker_get
                0x00000000        0xc mesh/core/libmesh_core_nrf52840_xxAA.a(ticker.c.obj)
 .text          0x00000000        0x0 mesh/core/libmesh_core_nrf52840_xxAA.a(rand.c.obj)
 .data          0x00000000        0x0 mesh/core/libmesh_core_nrf52840_xxAA.a(rand.c.obj)
 .bss           0x00000000        0x0 mesh/core/libmesh_core_nrf52840_xxAA.a(rand.c.obj)
 .text          0x00000000        0x0 mesh/core/libmesh_core_nrf52840_xxAA.a(timeslot.c.obj)
 .data          0x00000000        0x0 mesh/core/libmesh_core_nrf52840_xxAA.a(timeslot.c.obj)
 .bss           0x00000000        0x0 mesh/core/libmesh_core_nrf52840_xxAA.a(timeslot.c.obj)
 .text.timeslot_restart
                0x00000000       0x30 mesh/core/libmesh_core_nrf52840_xxAA.a(timeslot.c.obj)
 .text.timeslot_end_time_get
                0x00000000       0x30 mesh/core/libmesh_core_nrf52840_xxAA.a(timeslot.c.obj)
 .text.timeslot_is_in_ts
                0x00000000        0xc mesh/core/libmesh_core_nrf52840_xxAA.a(timeslot.c.obj)
 .text          0x00000000        0x0 mesh/core/libmesh_core_nrf52840_xxAA.a(bearer_event.c.obj)
 .data          0x00000000        0x0 mesh/core/libmesh_core_nrf52840_xxAA.a(bearer_event.c.obj)
 .bss           0x00000000        0x0 mesh/core/libmesh_core_nrf52840_xxAA.a(bearer_event.c.obj)
 .text.bearer_event_generic_post
                0x00000000       0x50 mesh/core/libmesh_core_nrf52840_xxAA.a(bearer_event.c.obj)
 .text.bearer_event_timer_sch_post
                0x00000000       0x54 mesh/core/libmesh_core_nrf52840_xxAA.a(bearer_event.c.obj)
 .text          0x00000000        0x0 mesh/core/libmesh_core_nrf52840_xxAA.a(enc.c.obj)
 .data          0x00000000        0x0 mesh/core/libmesh_core_nrf52840_xxAA.a(enc.c.obj)
 .bss           0x00000000        0x0 mesh/core/libmesh_core_nrf52840_xxAA.a(enc.c.obj)
 .text.enc_key_generate
                0x00000000        0x8 mesh/core/libmesh_core_nrf52840_xxAA.a(enc.c.obj)
 .text.enc_k1   0x00000000       0x50 mesh/core/libmesh_core_nrf52840_xxAA.a(enc.c.obj)
 .text.enc_k2   0x00000000       0xec mesh/core/libmesh_core_nrf52840_xxAA.a(enc.c.obj)
 .text.enc_k3   0x00000000       0x74 mesh/core/libmesh_core_nrf52840_xxAA.a(enc.c.obj)
 .text.enc_k4   0x00000000       0x6c mesh/core/libmesh_core_nrf52840_xxAA.a(enc.c.obj)
 .rodata        0x00000000       0x18 mesh/core/libmesh_core_nrf52840_xxAA.a(enc.c.obj)
 .text          0x00000000        0x0 mesh/core/libmesh_core_nrf52840_xxAA.a(network.c.obj)
 .data          0x00000000        0x0 mesh/core/libmesh_core_nrf52840_xxAA.a(network.c.obj)
 .bss           0x00000000        0x0 mesh/core/libmesh_core_nrf52840_xxAA.a(network.c.obj)
 .text.network_opt_set
                0x00000000       0x58 mesh/core/libmesh_core_nrf52840_xxAA.a(network.c.obj)
 .text.network_opt_get
                0x00000000       0x4c mesh/core/libmesh_core_nrf52840_xxAA.a(network.c.obj)
 .text.network_packet_discard
                0x00000000       0x4c mesh/core/libmesh_core_nrf52840_xxAA.a(network.c.obj)
 .text          0x00000000        0x0 mesh/core/libmesh_core_nrf52840_xxAA.a(msqueue.c.obj)
 .data          0x00000000        0x0 mesh/core/libmesh_core_nrf52840_xxAA.a(msqueue.c.obj)
 .bss           0x00000000        0x0 mesh/core/libmesh_core_nrf52840_xxAA.a(msqueue.c.obj)
 .text.msq_reset
                0x00000000       0x34 mesh/core/libmesh_core_nrf52840_xxAA.a(msqueue.c.obj)
 .text          0x00000000        0x0 mesh/core/libmesh_core_nrf52840_xxAA.a(nrf_mesh_keygen.c.obj)
 .data          0x00000000        0x0 mesh/core/libmesh_core_nrf52840_xxAA.a(nrf_mesh_keygen.c.obj)
 .bss           0x00000000        0x0 mesh/core/libmesh_core_nrf52840_xxAA.a(nrf_mesh_keygen.c.obj)
 .text.nrf_mesh_keygen_aid
                0x00000000       0x18 mesh/core/libmesh_core_nrf52840_xxAA.a(nrf_mesh_keygen.c.obj)
 .text.nrf_mesh_keygen_network_secmat
                0x00000000       0x24 mesh/core/libmesh_core_nrf52840_xxAA.a(nrf_mesh_keygen.c.obj)
 .text.nrf_mesh_keygen_beacon_secmat
                0x00000000       0x50 mesh/core/libmesh_core_nrf52840_xxAA.a(nrf_mesh_keygen.c.obj)
 .text.nrf_mesh_keygen_identitykey
                0x00000000       0x4c mesh/core/libmesh_core_nrf52840_xxAA.a(nrf_mesh_keygen.c.obj)
 .text.nrf_mesh_keygen_virtual_address
                0x00000000       0x50 mesh/core/libmesh_core_nrf52840_xxAA.a(nrf_mesh_keygen.c.obj)
 .rodata        0x00000000        0x7 mesh/core/libmesh_core_nrf52840_xxAA.a(nrf_mesh_keygen.c.obj)
 .comment       0x00000000       0x80 mesh/core/libmesh_core_nrf52840_xxAA.a(nrf_mesh_keygen.c.obj)
 .ARM.attributes
                0x00000000       0x39 mesh/core/libmesh_core_nrf52840_xxAA.a(nrf_mesh_keygen.c.obj)
 .text          0x00000000        0x0 mesh/core/libmesh_core_nrf52840_xxAA.a(log.c.obj)
 .data          0x00000000        0x0 mesh/core/libmesh_core_nrf52840_xxAA.a(log.c.obj)
 .bss           0x00000000        0x0 mesh/core/libmesh_core_nrf52840_xxAA.a(log.c.obj)
 .text.log_callback_logview
                0x00000000       0x38 mesh/core/libmesh_core_nrf52840_xxAA.a(log.c.obj)
 .text.log_set_callback
                0x00000000        0xc mesh/core/libmesh_core_nrf52840_xxAA.a(log.c.obj)
 .text.log_vprintf
                0x00000000       0x18 mesh/core/libmesh_core_nrf52840_xxAA.a(log.c.obj)
 .rodata.log_callback_logview.str1.4
                0x00000000       0x12 mesh/core/libmesh_core_nrf52840_xxAA.a(log.c.obj)
 .text          0x00000000        0x0 mesh/core/libmesh_core_nrf52840_xxAA.a(flash_manager.c.obj)
 .data          0x00000000        0x0 mesh/core/libmesh_core_nrf52840_xxAA.a(flash_manager.c.obj)
 .bss           0x00000000        0x0 mesh/core/libmesh_core_nrf52840_xxAA.a(flash_manager.c.obj)
 .text.flash_manager_remove
                0x00000000       0x78 mesh/core/libmesh_core_nrf52840_xxAA.a(flash_manager.c.obj)
 .text.flash_manager_entry_get
                0x00000000       0x54 mesh/core/libmesh_core_nrf52840_xxAA.a(flash_manager.c.obj)
 .text.flash_manager_entry_count_get
                0x00000000      0x110 mesh/core/libmesh_core_nrf52840_xxAA.a(flash_manager.c.obj)
 .text.flash_manager_entry_release
                0x00000000       0xb4 mesh/core/libmesh_core_nrf52840_xxAA.a(flash_manager.c.obj)
 .text          0x00000000        0x0 mesh/core/libmesh_core_nrf52840_xxAA.a(ccm_soft.c.obj)
 .data          0x00000000        0x0 mesh/core/libmesh_core_nrf52840_xxAA.a(ccm_soft.c.obj)
 .bss           0x00000000        0x0 mesh/core/libmesh_core_nrf52840_xxAA.a(ccm_soft.c.obj)
 .text          0x00000000        0x0 mesh/core/libmesh_core_nrf52840_xxAA.a(beacon.c.obj)
 .data          0x00000000        0x0 mesh/core/libmesh_core_nrf52840_xxAA.a(beacon.c.obj)
 .bss           0x00000000        0x0 mesh/core/libmesh_core_nrf52840_xxAA.a(beacon.c.obj)
 .text.beacon_create
                0x00000000       0x50 mesh/core/libmesh_core_nrf52840_xxAA.a(beacon.c.obj)
 .text          0x00000000        0x0 mesh/core/libmesh_core_nrf52840_xxAA.a(flash_manager_internal.c.obj)
 .data          0x00000000        0x0 mesh/core/libmesh_core_nrf52840_xxAA.a(flash_manager_internal.c.obj)
 .bss           0x00000000        0x0 mesh/core/libmesh_core_nrf52840_xxAA.a(flash_manager_internal.c.obj)
 .text          0x00000000        0x0 mesh/core/libmesh_core_nrf52840_xxAA.a(core_tx.c.obj)
 .data          0x00000000        0x0 mesh/core/libmesh_core_nrf52840_xxAA.a(core_tx.c.obj)
 .bss           0x00000000        0x0 mesh/core/libmesh_core_nrf52840_xxAA.a(core_tx.c.obj)
 .text.core_tx_adv_count_set
                0x00000000       0x40 mesh/core/libmesh_core_nrf52840_xxAA.a(core_tx.c.obj)
 .text.core_tx_adv_count_get
                0x00000000       0x2c mesh/core/libmesh_core_nrf52840_xxAA.a(core_tx.c.obj)
 .text.core_tx_adv_interval_set
                0x00000000       0x34 mesh/core/libmesh_core_nrf52840_xxAA.a(core_tx.c.obj)
 .text.core_tx_adv_interval_get
                0x00000000       0x38 mesh/core/libmesh_core_nrf52840_xxAA.a(core_tx.c.obj)
 .text.core_tx_adv_address_set
                0x00000000       0x34 mesh/core/libmesh_core_nrf52840_xxAA.a(core_tx.c.obj)
 .text          0x00000000        0x0 mesh/core/libmesh_core_nrf52840_xxAA.a(net_beacon.c.obj)
 .data          0x00000000        0x0 mesh/core/libmesh_core_nrf52840_xxAA.a(net_beacon.c.obj)
 .bss           0x00000000        0x0 mesh/core/libmesh_core_nrf52840_xxAA.a(net_beacon.c.obj)
 .text.net_beacon_state_set
                0x00000000       0x3c mesh/core/libmesh_core_nrf52840_xxAA.a(net_beacon.c.obj)
 .text.net_beacon_state_get
                0x00000000        0xc mesh/core/libmesh_core_nrf52840_xxAA.a(net_beacon.c.obj)
 .text          0x00000000        0x0 mesh/core/libmesh_core_nrf52840_xxAA.a(advertiser.c.obj)
 .data          0x00000000        0x0 mesh/core/libmesh_core_nrf52840_xxAA.a(advertiser.c.obj)
 .bss           0x00000000        0x0 mesh/core/libmesh_core_nrf52840_xxAA.a(advertiser.c.obj)
 .text.advertiser_disable
                0x00000000        0xc mesh/core/libmesh_core_nrf52840_xxAA.a(advertiser.c.obj)
 .text.advertiser_channels_set
                0x00000000       0xac mesh/core/libmesh_core_nrf52840_xxAA.a(advertiser.c.obj)
 .text.advertiser_config_set
                0x00000000      0x12c mesh/core/libmesh_core_nrf52840_xxAA.a(advertiser.c.obj)
 .text.advertiser_address_set
                0x00000000       0x80 mesh/core/libmesh_core_nrf52840_xxAA.a(advertiser.c.obj)
 .text.advertiser_config_get
                0x00000000       0x30 mesh/core/libmesh_core_nrf52840_xxAA.a(advertiser.c.obj)
 .text          0x00000000        0x0 mesh/core/libmesh_core_nrf52840_xxAA.a(bearer_handler.c.obj)
 .data          0x00000000        0x0 mesh/core/libmesh_core_nrf52840_xxAA.a(bearer_handler.c.obj)
 .bss           0x00000000        0x0 mesh/core/libmesh_core_nrf52840_xxAA.a(bearer_handler.c.obj)
 .text.bearer_handler_stop
                0x00000000       0x20 mesh/core/libmesh_core_nrf52840_xxAA.a(bearer_handler.c.obj)
 .text.bearer_handler_action_fire
                0x00000000       0xb0 mesh/core/libmesh_core_nrf52840_xxAA.a(bearer_handler.c.obj)
 .text          0x00000000        0x0 mesh/core/libmesh_core_nrf52840_xxAA.a(broadcast.c.obj)
 .data          0x00000000        0x0 mesh/core/libmesh_core_nrf52840_xxAA.a(broadcast.c.obj)
 .bss           0x00000000        0x0 mesh/core/libmesh_core_nrf52840_xxAA.a(broadcast.c.obj)
 .text          0x00000000        0x0 mesh/core/libmesh_core_nrf52840_xxAA.a(radio_config.c.obj)
 .data          0x00000000        0x0 mesh/core/libmesh_core_nrf52840_xxAA.a(radio_config.c.obj)
 .bss           0x00000000        0x0 mesh/core/libmesh_core_nrf52840_xxAA.a(radio_config.c.obj)
 .text.radio_config_access_addr_get
                0x00000000       0x6c mesh/core/libmesh_core_nrf52840_xxAA.a(radio_config.c.obj)
 .text          0x00000000        0x0 mesh/core/libmesh_core_nrf52840_xxAA.a(scanner.c.obj)
 .data          0x00000000        0x0 mesh/core/libmesh_core_nrf52840_xxAA.a(scanner.c.obj)
 .bss           0x00000000        0x0 mesh/core/libmesh_core_nrf52840_xxAA.a(scanner.c.obj)
 .text.scanner_disable
                0x00000000       0x5c mesh/core/libmesh_core_nrf52840_xxAA.a(scanner.c.obj)
 .text.scanner_is_enabled
                0x00000000       0x14 mesh/core/libmesh_core_nrf52840_xxAA.a(scanner.c.obj)
 .text.scanner_stats_get
                0x00000000        0x8 mesh/core/libmesh_core_nrf52840_xxAA.a(scanner.c.obj)
 .text.scanner_config_radio_mode_set
                0x00000000       0x10 mesh/core/libmesh_core_nrf52840_xxAA.a(scanner.c.obj)
 .text.scanner_config_scan_time_set
                0x00000000       0x94 mesh/core/libmesh_core_nrf52840_xxAA.a(scanner.c.obj)
 .text.scanner_config_channels_set
                0x00000000       0x64 mesh/core/libmesh_core_nrf52840_xxAA.a(scanner.c.obj)
 .text.scanner_config_access_addresses_set
                0x00000000       0x44 mesh/core/libmesh_core_nrf52840_xxAA.a(scanner.c.obj)
 .text          0x00000000        0x0 mesh/core/libmesh_core_nrf52840_xxAA.a(internal_event.c.obj)
 .data          0x00000000        0x0 mesh/core/libmesh_core_nrf52840_xxAA.a(internal_event.c.obj)
 .bss           0x00000000        0x0 mesh/core/libmesh_core_nrf52840_xxAA.a(internal_event.c.obj)
 .text.internal_event_init
                0x00000000       0x48 mesh/core/libmesh_core_nrf52840_xxAA.a(internal_event.c.obj)
 .text.internal_event_pop
                0x00000000       0x1c mesh/core/libmesh_core_nrf52840_xxAA.a(internal_event.c.obj)
 .bss.m_internal_event_fifo_buffer
                0x00000000      0x100 mesh/core/libmesh_core_nrf52840_xxAA.a(internal_event.c.obj)
 .text          0x00000000        0x0 mesh/core/libmesh_core_nrf52840_xxAA.a(aes.c.obj)
 .data          0x00000000        0x0 mesh/core/libmesh_core_nrf52840_xxAA.a(aes.c.obj)
 .bss           0x00000000        0x0 mesh/core/libmesh_core_nrf52840_xxAA.a(aes.c.obj)
 .text          0x00000000        0x0 mesh/core/libmesh_core_nrf52840_xxAA.a(msg_cache.c.obj)
 .data          0x00000000        0x0 mesh/core/libmesh_core_nrf52840_xxAA.a(msg_cache.c.obj)
 .bss           0x00000000        0x0 mesh/core/libmesh_core_nrf52840_xxAA.a(msg_cache.c.obj)
 .text.msg_cache_clear
                0x00000000       0x18 mesh/core/libmesh_core_nrf52840_xxAA.a(msg_cache.c.obj)
 .text          0x00000000        0x0 mesh/core/libmesh_core_nrf52840_xxAA.a(transport.c.obj)
 .data          0x00000000        0x0 mesh/core/libmesh_core_nrf52840_xxAA.a(transport.c.obj)
 .bss           0x00000000        0x0 mesh/core/libmesh_core_nrf52840_xxAA.a(transport.c.obj)
 .text.transport_sar_mem_funcs_reset
                0x00000000       0x30 mesh/core/libmesh_core_nrf52840_xxAA.a(transport.c.obj)
 .text.transport_sar_mem_funcs_set
                0x00000000       0x48 mesh/core/libmesh_core_nrf52840_xxAA.a(transport.c.obj)
 .text.transport_tx
                0x00000000      0x32c mesh/core/libmesh_core_nrf52840_xxAA.a(transport.c.obj)
 .text.transport_opt_set
                0x00000000       0xdc mesh/core/libmesh_core_nrf52840_xxAA.a(transport.c.obj)
 .text.transport_opt_get
                0x00000000       0x84 mesh/core/libmesh_core_nrf52840_xxAA.a(transport.c.obj)
 .rodata.transport_tx.str1.4
                0x00000000       0x38 mesh/core/libmesh_core_nrf52840_xxAA.a(transport.c.obj)
 .text          0x00000000        0x0 mesh/core/libmesh_core_nrf52840_xxAA.a(packet_buffer.c.obj)
 .data          0x00000000        0x0 mesh/core/libmesh_core_nrf52840_xxAA.a(packet_buffer.c.obj)
 .bss           0x00000000        0x0 mesh/core/libmesh_core_nrf52840_xxAA.a(packet_buffer.c.obj)
 .text.packet_buffer_max_packet_len_get
                0x00000000       0x3c mesh/core/libmesh_core_nrf52840_xxAA.a(packet_buffer.c.obj)
 .text          0x00000000        0x0 mesh/core/libmesh_core_nrf52840_xxAA.a(flash_manager_defrag.c.obj)
 .data          0x00000000        0x0 mesh/core/libmesh_core_nrf52840_xxAA.a(flash_manager_defrag.c.obj)
 .bss           0x00000000        0x0 mesh/core/libmesh_core_nrf52840_xxAA.a(flash_manager_defrag.c.obj)
 .text.flash_manager_defragging
                0x00000000       0x50 mesh/core/libmesh_core_nrf52840_xxAA.a(flash_manager_defrag.c.obj)
 .text          0x00000000        0x0 mesh/core/libmesh_core_nrf52840_xxAA.a(fifo.c.obj)
 .data          0x00000000        0x0 mesh/core/libmesh_core_nrf52840_xxAA.a(fifo.c.obj)
 .bss           0x00000000        0x0 mesh/core/libmesh_core_nrf52840_xxAA.a(fifo.c.obj)
 .text.fifo_peek_at
                0x00000000       0x54 mesh/core/libmesh_core_nrf52840_xxAA.a(fifo.c.obj)
 .text.fifo_peek
                0x00000000       0x50 mesh/core/libmesh_core_nrf52840_xxAA.a(fifo.c.obj)
 .text.fifo_flush
                0x00000000        0x8 mesh/core/libmesh_core_nrf52840_xxAA.a(fifo.c.obj)
 .text.fifo_get_len
                0x00000000        0x8 mesh/core/libmesh_core_nrf52840_xxAA.a(fifo.c.obj)
 .text.fifo_is_full
                0x00000000       0x14 mesh/core/libmesh_core_nrf52840_xxAA.a(fifo.c.obj)
 .text.fifo_is_empty
                0x00000000       0x10 mesh/core/libmesh_core_nrf52840_xxAA.a(fifo.c.obj)
 .text          0x00000000        0x0 mesh/core/libmesh_core_nrf52840_xxAA.a(nrf_flash.c.obj)
 .data          0x00000000        0x0 mesh/core/libmesh_core_nrf52840_xxAA.a(nrf_flash.c.obj)
 .bss           0x00000000        0x0 mesh/core/libmesh_core_nrf52840_xxAA.a(nrf_flash.c.obj)
 .text          0x00000000        0x0 mesh/core/libmesh_core_nrf52840_xxAA.a(packet_mgr.c.obj)
 .data          0x00000000        0x0 mesh/core/libmesh_core_nrf52840_xxAA.a(packet_mgr.c.obj)
 .bss           0x00000000        0x0 mesh/core/libmesh_core_nrf52840_xxAA.a(packet_mgr.c.obj)
 .text.packet_mgr_alloc
                0x00000000      0x1dc mesh/core/libmesh_core_nrf52840_xxAA.a(packet_mgr.c.obj)
 .text.packet_mgr_free
                0x00000000       0x70 mesh/core/libmesh_core_nrf52840_xxAA.a(packet_mgr.c.obj)
 .text.packet_mgr_get_free_space
                0x00000000       0x1c mesh/core/libmesh_core_nrf52840_xxAA.a(packet_mgr.c.obj)
 .text.packet_mgr_refcount_get
                0x00000000        0x8 mesh/core/libmesh_core_nrf52840_xxAA.a(packet_mgr.c.obj)
 .text.packet_mgr_size_get
                0x00000000        0x8 mesh/core/libmesh_core_nrf52840_xxAA.a(packet_mgr.c.obj)
 .text          0x00000000        0x0 mesh/core/libmesh_core_nrf52840_xxAA.a(queue.c.obj)
 .data          0x00000000        0x0 mesh/core/libmesh_core_nrf52840_xxAA.a(queue.c.obj)
 .bss           0x00000000        0x0 mesh/core/libmesh_core_nrf52840_xxAA.a(queue.c.obj)
 .text          0x00000000        0x0 mesh/core/libmesh_core_nrf52840_xxAA.a(aes_cmac.c.obj)
 .data          0x00000000        0x0 mesh/core/libmesh_core_nrf52840_xxAA.a(aes_cmac.c.obj)
 .bss           0x00000000        0x0 mesh/core/libmesh_core_nrf52840_xxAA.a(aes_cmac.c.obj)
 .text          0x00000000        0x0 mesh/core/libmesh_core_nrf52840_xxAA.a(replay_cache.c.obj)
 .data          0x00000000        0x0 mesh/core/libmesh_core_nrf52840_xxAA.a(replay_cache.c.obj)
 .bss           0x00000000        0x0 mesh/core/libmesh_core_nrf52840_xxAA.a(replay_cache.c.obj)
 .text.replay_cache_on_iv_update
                0x00000000       0x2c mesh/core/libmesh_core_nrf52840_xxAA.a(replay_cache.c.obj)
 .text.replay_cache_clear
                0x00000000       0x28 mesh/core/libmesh_core_nrf52840_xxAA.a(replay_cache.c.obj)
 .text          0x00000000        0x0 mesh/core/libmesh_core_nrf52840_xxAA.a(filter_engine.c.obj)
 .data          0x00000000        0x0 mesh/core/libmesh_core_nrf52840_xxAA.a(filter_engine.c.obj)
 .bss           0x00000000        0x0 mesh/core/libmesh_core_nrf52840_xxAA.a(filter_engine.c.obj)
 .text.fen_filter_start
                0x00000000       0x84 mesh/core/libmesh_core_nrf52840_xxAA.a(filter_engine.c.obj)
 .text.fen_filter_stop
                0x00000000       0x70 mesh/core/libmesh_core_nrf52840_xxAA.a(filter_engine.c.obj)
 .text.fen_accepted_amount_get
                0x00000000        0xc mesh/core/libmesh_core_nrf52840_xxAA.a(filter_engine.c.obj)
 .text          0x00000000        0x0 external/rtt/librtt_nrf52840_xxAA.a(SEGGER_RTT.c.obj)
 .data          0x00000000        0x0 external/rtt/librtt_nrf52840_xxAA.a(SEGGER_RTT.c.obj)
 .bss           0x00000000        0x0 external/rtt/librtt_nrf52840_xxAA.a(SEGGER_RTT.c.obj)
 .text.SEGGER_RTT_ReadNoLock
                0x00000000      0x100 external/rtt/librtt_nrf52840_xxAA.a(SEGGER_RTT.c.obj)
 .text.SEGGER_RTT_Read
                0x00000000      0x114 external/rtt/librtt_nrf52840_xxAA.a(SEGGER_RTT.c.obj)
 .text.SEGGER_RTT_WriteSkipNoLock
                0x00000000      0x184 external/rtt/librtt_nrf52840_xxAA.a(SEGGER_RTT.c.obj)
 .text.SEGGER_RTT_WriteNoLock
                0x00000000      0x188 external/rtt/librtt_nrf52840_xxAA.a(SEGGER_RTT.c.obj)
 .text.SEGGER_RTT_WriteString
                0x00000000      0x20c external/rtt/librtt_nrf52840_xxAA.a(SEGGER_RTT.c.obj)
 .text.SEGGER_RTT_GetKey
                0x00000000       0xec external/rtt/librtt_nrf52840_xxAA.a(SEGGER_RTT.c.obj)
 .text.SEGGER_RTT_WaitKey
                0x00000000      0x114 external/rtt/librtt_nrf52840_xxAA.a(SEGGER_RTT.c.obj)
 .text.SEGGER_RTT_HasKey
                0x00000000       0x6c external/rtt/librtt_nrf52840_xxAA.a(SEGGER_RTT.c.obj)
 .text.SEGGER_RTT_HasData
                0x00000000       0x18 external/rtt/librtt_nrf52840_xxAA.a(SEGGER_RTT.c.obj)
 .text.SEGGER_RTT_AllocDownBuffer
                0x00000000       0xbc external/rtt/librtt_nrf52840_xxAA.a(SEGGER_RTT.c.obj)
 .text.SEGGER_RTT_AllocUpBuffer
                0x00000000       0xd8 external/rtt/librtt_nrf52840_xxAA.a(SEGGER_RTT.c.obj)
 .text.SEGGER_RTT_ConfigUpBuffer
                0x00000000       0xd0 external/rtt/librtt_nrf52840_xxAA.a(SEGGER_RTT.c.obj)
 .text.SEGGER_RTT_ConfigDownBuffer
                0x00000000       0xb8 external/rtt/librtt_nrf52840_xxAA.a(SEGGER_RTT.c.obj)
 .text.SEGGER_RTT_SetNameUpBuffer
                0x00000000       0x90 external/rtt/librtt_nrf52840_xxAA.a(SEGGER_RTT.c.obj)
 .text.SEGGER_RTT_SetNameDownBuffer
                0x00000000       0x90 external/rtt/librtt_nrf52840_xxAA.a(SEGGER_RTT.c.obj)
 .text.SEGGER_RTT_Init
                0x00000000       0x60 external/rtt/librtt_nrf52840_xxAA.a(SEGGER_RTT.c.obj)
 .text.SEGGER_RTT_SetTerminal
                0x00000000      0x15c external/rtt/librtt_nrf52840_xxAA.a(SEGGER_RTT.c.obj)
 .text.SEGGER_RTT_TerminalOut
                0x00000000      0x40c external/rtt/librtt_nrf52840_xxAA.a(SEGGER_RTT.c.obj)
 .bss._ActiveTerminal
                0x00000000        0x1 external/rtt/librtt_nrf52840_xxAA.a(SEGGER_RTT.c.obj)
 .rodata._aTerminalId
                0x00000000       0x10 external/rtt/librtt_nrf52840_xxAA.a(SEGGER_RTT.c.obj)
 .text          0x00000000        0x0 external/rtt/librtt_nrf52840_xxAA.a(SEGGER_RTT_printf.c.obj)
 .data          0x00000000        0x0 external/rtt/librtt_nrf52840_xxAA.a(SEGGER_RTT_printf.c.obj)
 .bss           0x00000000        0x0 external/rtt/librtt_nrf52840_xxAA.a(SEGGER_RTT_printf.c.obj)
 .text          0x00000000        0x0 external/micro-ecc/libuECC_nrf52840_xxAA.a(uECC.c.obj)
 .data          0x00000000        0x0 external/micro-ecc/libuECC_nrf52840_xxAA.a(uECC.c.obj)
 .bss           0x00000000        0x0 external/micro-ecc/libuECC_nrf52840_xxAA.a(uECC.c.obj)
 .text.HMAC_finish
                0x00000000       0x70 external/micro-ecc/libuECC_nrf52840_xxAA.a(uECC.c.obj)
 .text.default_RNG
                0x00000000        0xc external/micro-ecc/libuECC_nrf52840_xxAA.a(uECC.c.obj)
 .text.uECC_vli_mmod
                0x00000000      0x3c8 external/micro-ecc/libuECC_nrf52840_xxAA.a(uECC.c.obj)
 .text.uECC_generate_random_int
                0x00000000      0x170 external/micro-ecc/libuECC_nrf52840_xxAA.a(uECC.c.obj)
 .text.apply_z  0x00000000      0x1a8 external/micro-ecc/libuECC_nrf52840_xxAA.a(uECC.c.obj)
 .text.uECC_vli_modAdd
                0x00000000       0xc8 external/micro-ecc/libuECC_nrf52840_xxAA.a(uECC.c.obj)
 .text.uECC_vli_modSub.isra.2
                0x00000000       0x98 external/micro-ecc/libuECC_nrf52840_xxAA.a(uECC.c.obj)
 .text.x_side_default
                0x00000000      0x254 external/micro-ecc/libuECC_nrf52840_xxAA.a(uECC.c.obj)
 .text.vli_mmod_fast_secp256r1
                0x00000000      0x520 external/micro-ecc/libuECC_nrf52840_xxAA.a(uECC.c.obj)
 .text.bits2int
                0x00000000      0x14c external/micro-ecc/libuECC_nrf52840_xxAA.a(uECC.c.obj)
 .text.XYcZ_add
                0x00000000      0x6dc external/micro-ecc/libuECC_nrf52840_xxAA.a(uECC.c.obj)
 .text.XYcZ_addC
                0x00000000      0xa94 external/micro-ecc/libuECC_nrf52840_xxAA.a(uECC.c.obj)
 .text.uECC_vli_modInv.part.4
                0x00000000      0x6e8 external/micro-ecc/libuECC_nrf52840_xxAA.a(uECC.c.obj)
 .text.EccPoint_mult.constprop.5
                0x00000000      0x470 external/micro-ecc/libuECC_nrf52840_xxAA.a(uECC.c.obj)
 .text.double_jacobian_default
                0x00000000      0x7ec external/micro-ecc/libuECC_nrf52840_xxAA.a(uECC.c.obj)
 .text.uECC_sign_with_k
                0x00000000      0x60c external/micro-ecc/libuECC_nrf52840_xxAA.a(uECC.c.obj)
 .text.uECC_set_rng
                0x00000000        0xc external/micro-ecc/libuECC_nrf52840_xxAA.a(uECC.c.obj)
 .text.uECC_get_rng
                0x00000000        0xc external/micro-ecc/libuECC_nrf52840_xxAA.a(uECC.c.obj)
 .text.uECC_curve_private_key_size
                0x00000000       0x10 external/micro-ecc/libuECC_nrf52840_xxAA.a(uECC.c.obj)
 .text.uECC_curve_public_key_size
                0x00000000        0x8 external/micro-ecc/libuECC_nrf52840_xxAA.a(uECC.c.obj)
 .text.uECC_secp256r1
                0x00000000        0x8 external/micro-ecc/libuECC_nrf52840_xxAA.a(uECC.c.obj)
 .text.uECC_make_key
                0x00000000      0x23c external/micro-ecc/libuECC_nrf52840_xxAA.a(uECC.c.obj)
 .text.uECC_shared_secret
                0x00000000      0x788 external/micro-ecc/libuECC_nrf52840_xxAA.a(uECC.c.obj)
 .text.uECC_valid_point
                0x00000000      0x134 external/micro-ecc/libuECC_nrf52840_xxAA.a(uECC.c.obj)
 .text.uECC_valid_public_key
                0x00000000       0xe8 external/micro-ecc/libuECC_nrf52840_xxAA.a(uECC.c.obj)
 .text.uECC_compute_public_key
                0x00000000      0x2e4 external/micro-ecc/libuECC_nrf52840_xxAA.a(uECC.c.obj)
 .text.uECC_sign
                0x00000000       0x60 external/micro-ecc/libuECC_nrf52840_xxAA.a(uECC.c.obj)
 .text.uECC_sign_deterministic
                0x00000000      0x400 external/micro-ecc/libuECC_nrf52840_xxAA.a(uECC.c.obj)
 .text.uECC_verify
                0x00000000      0x95c external/micro-ecc/libuECC_nrf52840_xxAA.a(uECC.c.obj)
 .data.g_rng_function
                0x00000000        0x4 external/micro-ecc/libuECC_nrf52840_xxAA.a(uECC.c.obj)
 .rodata.curve_secp256r1
                0x00000000       0xb0 external/micro-ecc/libuECC_nrf52840_xxAA.a(uECC.c.obj)
 .comment       0x00000000       0x80 external/micro-ecc/libuECC_nrf52840_xxAA.a(uECC.c.obj)
 .ARM.attributes
                0x00000000       0x39 external/micro-ecc/libuECC_nrf52840_xxAA.a(uECC.c.obj)
 .text          0x00000000        0x0 c:/a/gcc_arm/6/bin/../lib/gcc/arm-none-eabi/6.3.1/../../../../arm-none-eabi/lib/thumb/v7e-m/fpv4-sp/hard\libc_nano.a(lib_a-exit.o)
 .data          0x00000000        0x0 c:/a/gcc_arm/6/bin/../lib/gcc/arm-none-eabi/6.3.1/../../../../arm-none-eabi/lib/thumb/v7e-m/fpv4-sp/hard\libc_nano.a(lib_a-exit.o)
 .bss           0x00000000        0x0 c:/a/gcc_arm/6/bin/../lib/gcc/arm-none-eabi/6.3.1/../../../../arm-none-eabi/lib/thumb/v7e-m/fpv4-sp/hard\libc_nano.a(lib_a-exit.o)
 .text          0x00000000        0x0 c:/a/gcc_arm/6/bin/../lib/gcc/arm-none-eabi/6.3.1/../../../../arm-none-eabi/lib/thumb/v7e-m/fpv4-sp/hard\libc_nano.a(lib_a-impure.o)
 .data          0x00000000        0x0 c:/a/gcc_arm/6/bin/../lib/gcc/arm-none-eabi/6.3.1/../../../../arm-none-eabi/lib/thumb/v7e-m/fpv4-sp/hard\libc_nano.a(lib_a-impure.o)
 .bss           0x00000000        0x0 c:/a/gcc_arm/6/bin/../lib/gcc/arm-none-eabi/6.3.1/../../../../arm-none-eabi/lib/thumb/v7e-m/fpv4-sp/hard\libc_nano.a(lib_a-impure.o)
 .text          0x00000000        0x0 c:/a/gcc_arm/6/bin/../lib/gcc/arm-none-eabi/6.3.1/../../../../arm-none-eabi/lib/thumb/v7e-m/fpv4-sp/hard\libc_nano.a(lib_a-init.o)
 .data          0x00000000        0x0 c:/a/gcc_arm/6/bin/../lib/gcc/arm-none-eabi/6.3.1/../../../../arm-none-eabi/lib/thumb/v7e-m/fpv4-sp/hard\libc_nano.a(lib_a-init.o)
 .bss           0x00000000        0x0 c:/a/gcc_arm/6/bin/../lib/gcc/arm-none-eabi/6.3.1/../../../../arm-none-eabi/lib/thumb/v7e-m/fpv4-sp/hard\libc_nano.a(lib_a-init.o)
 .text          0x00000000        0x0 c:/a/gcc_arm/6/bin/../lib/gcc/arm-none-eabi/6.3.1/../../../../arm-none-eabi/lib/thumb/v7e-m/fpv4-sp/hard\libc_nano.a(lib_a-malloc.o)
 .data          0x00000000        0x0 c:/a/gcc_arm/6/bin/../lib/gcc/arm-none-eabi/6.3.1/../../../../arm-none-eabi/lib/thumb/v7e-m/fpv4-sp/hard\libc_nano.a(lib_a-malloc.o)
 .bss           0x00000000        0x0 c:/a/gcc_arm/6/bin/../lib/gcc/arm-none-eabi/6.3.1/../../../../arm-none-eabi/lib/thumb/v7e-m/fpv4-sp/hard\libc_nano.a(lib_a-malloc.o)
 .text          0x00000000        0x0 c:/a/gcc_arm/6/bin/../lib/gcc/arm-none-eabi/6.3.1/../../../../arm-none-eabi/lib/thumb/v7e-m/fpv4-sp/hard\libc_nano.a(lib_a-memcmp.o)
 .data          0x00000000        0x0 c:/a/gcc_arm/6/bin/../lib/gcc/arm-none-eabi/6.3.1/../../../../arm-none-eabi/lib/thumb/v7e-m/fpv4-sp/hard\libc_nano.a(lib_a-memcmp.o)
 .bss           0x00000000        0x0 c:/a/gcc_arm/6/bin/../lib/gcc/arm-none-eabi/6.3.1/../../../../arm-none-eabi/lib/thumb/v7e-m/fpv4-sp/hard\libc_nano.a(lib_a-memcmp.o)
 .text          0x00000000        0x0 c:/a/gcc_arm/6/bin/../lib/gcc/arm-none-eabi/6.3.1/../../../../arm-none-eabi/lib/thumb/v7e-m/fpv4-sp/hard\libc_nano.a(lib_a-memcpy-stub.o)
 .data          0x00000000        0x0 c:/a/gcc_arm/6/bin/../lib/gcc/arm-none-eabi/6.3.1/../../../../arm-none-eabi/lib/thumb/v7e-m/fpv4-sp/hard\libc_nano.a(lib_a-memcpy-stub.o)
 .bss           0x00000000        0x0 c:/a/gcc_arm/6/bin/../lib/gcc/arm-none-eabi/6.3.1/../../../../arm-none-eabi/lib/thumb/v7e-m/fpv4-sp/hard\libc_nano.a(lib_a-memcpy-stub.o)
 .text          0x00000000        0x0 c:/a/gcc_arm/6/bin/../lib/gcc/arm-none-eabi/6.3.1/../../../../arm-none-eabi/lib/thumb/v7e-m/fpv4-sp/hard\libc_nano.a(lib_a-memset.o)
 .data          0x00000000        0x0 c:/a/gcc_arm/6/bin/../lib/gcc/arm-none-eabi/6.3.1/../../../../arm-none-eabi/lib/thumb/v7e-m/fpv4-sp/hard\libc_nano.a(lib_a-memset.o)
 .bss           0x00000000        0x0 c:/a/gcc_arm/6/bin/../lib/gcc/arm-none-eabi/6.3.1/../../../../arm-none-eabi/lib/thumb/v7e-m/fpv4-sp/hard\libc_nano.a(lib_a-memset.o)
 .text          0x00000000        0x0 c:/a/gcc_arm/6/bin/../lib/gcc/arm-none-eabi/6.3.1/../../../../arm-none-eabi/lib/thumb/v7e-m/fpv4-sp/hard\libc_nano.a(lib_a-nano-freer.o)
 .data          0x00000000        0x0 c:/a/gcc_arm/6/bin/../lib/gcc/arm-none-eabi/6.3.1/../../../../arm-none-eabi/lib/thumb/v7e-m/fpv4-sp/hard\libc_nano.a(lib_a-nano-freer.o)
 .bss           0x00000000        0x0 c:/a/gcc_arm/6/bin/../lib/gcc/arm-none-eabi/6.3.1/../../../../arm-none-eabi/lib/thumb/v7e-m/fpv4-sp/hard\libc_nano.a(lib_a-nano-freer.o)
 .text          0x00000000        0x0 c:/a/gcc_arm/6/bin/../lib/gcc/arm-none-eabi/6.3.1/../../../../arm-none-eabi/lib/thumb/v7e-m/fpv4-sp/hard\libc_nano.a(lib_a-nano-mallocr.o)
 .data          0x00000000        0x0 c:/a/gcc_arm/6/bin/../lib/gcc/arm-none-eabi/6.3.1/../../../../arm-none-eabi/lib/thumb/v7e-m/fpv4-sp/hard\libc_nano.a(lib_a-nano-mallocr.o)
 .bss           0x00000000        0x0 c:/a/gcc_arm/6/bin/../lib/gcc/arm-none-eabi/6.3.1/../../../../arm-none-eabi/lib/thumb/v7e-m/fpv4-sp/hard\libc_nano.a(lib_a-nano-mallocr.o)
 .text          0x00000000        0x0 c:/a/gcc_arm/6/bin/../lib/gcc/arm-none-eabi/6.3.1/../../../../arm-none-eabi/lib/thumb/v7e-m/fpv4-sp/hard\libc_nano.a(lib_a-sbrkr.o)
 .data          0x00000000        0x0 c:/a/gcc_arm/6/bin/../lib/gcc/arm-none-eabi/6.3.1/../../../../arm-none-eabi/lib/thumb/v7e-m/fpv4-sp/hard\libc_nano.a(lib_a-sbrkr.o)
 .bss           0x00000000        0x0 c:/a/gcc_arm/6/bin/../lib/gcc/arm-none-eabi/6.3.1/../../../../arm-none-eabi/lib/thumb/v7e-m/fpv4-sp/hard\libc_nano.a(lib_a-sbrkr.o)
 .text          0x00000000        0x0 c:/a/gcc_arm/6/bin/../lib/gcc/arm-none-eabi/6.3.1/../../../../arm-none-eabi/lib/thumb/v7e-m/fpv4-sp/hard\libc_nano.a(lib_a-strcpy.o)
 .data          0x00000000        0x0 c:/a/gcc_arm/6/bin/../lib/gcc/arm-none-eabi/6.3.1/../../../../arm-none-eabi/lib/thumb/v7e-m/fpv4-sp/hard\libc_nano.a(lib_a-strcpy.o)
 .bss           0x00000000        0x0 c:/a/gcc_arm/6/bin/../lib/gcc/arm-none-eabi/6.3.1/../../../../arm-none-eabi/lib/thumb/v7e-m/fpv4-sp/hard\libc_nano.a(lib_a-strcpy.o)
 .text          0x00000000       0x10 c:/a/gcc_arm/6/bin/../lib/gcc/arm-none-eabi/6.3.1/../../../../arm-none-eabi/lib/thumb/v7e-m/fpv4-sp/hard\libc_nano.a(lib_a-strlen.o)
 .data          0x00000000        0x0 c:/a/gcc_arm/6/bin/../lib/gcc/arm-none-eabi/6.3.1/../../../../arm-none-eabi/lib/thumb/v7e-m/fpv4-sp/hard\libc_nano.a(lib_a-strlen.o)
 .bss           0x00000000        0x0 c:/a/gcc_arm/6/bin/../lib/gcc/arm-none-eabi/6.3.1/../../../../arm-none-eabi/lib/thumb/v7e-m/fpv4-sp/hard\libc_nano.a(lib_a-strlen.o)
 .ARM.attributes
                0x00000000       0x1b c:/a/gcc_arm/6/bin/../lib/gcc/arm-none-eabi/6.3.1/../../../../arm-none-eabi/lib/thumb/v7e-m/fpv4-sp/hard\libc_nano.a(lib_a-strlen.o)
 .text          0x00000000        0x0 c:/a/gcc_arm/6/bin/../lib/gcc/arm-none-eabi/6.3.1/../../../../arm-none-eabi/lib/thumb/v7e-m/fpv4-sp/hard\libc_nano.a(lib_a-strrchr.o)
 .data          0x00000000        0x0 c:/a/gcc_arm/6/bin/../lib/gcc/arm-none-eabi/6.3.1/../../../../arm-none-eabi/lib/thumb/v7e-m/fpv4-sp/hard\libc_nano.a(lib_a-strrchr.o)
 .bss           0x00000000        0x0 c:/a/gcc_arm/6/bin/../lib/gcc/arm-none-eabi/6.3.1/../../../../arm-none-eabi/lib/thumb/v7e-m/fpv4-sp/hard\libc_nano.a(lib_a-strrchr.o)
 .text          0x00000000        0x0 c:/a/gcc_arm/6/bin/../lib/gcc/arm-none-eabi/6.3.1/../../../../arm-none-eabi/lib/thumb/v7e-m/fpv4-sp/hard\libc_nano.a(lib_a-mlock.o)
 .data          0x00000000        0x0 c:/a/gcc_arm/6/bin/../lib/gcc/arm-none-eabi/6.3.1/../../../../arm-none-eabi/lib/thumb/v7e-m/fpv4-sp/hard\libc_nano.a(lib_a-mlock.o)
 .bss           0x00000000        0x0 c:/a/gcc_arm/6/bin/../lib/gcc/arm-none-eabi/6.3.1/../../../../arm-none-eabi/lib/thumb/v7e-m/fpv4-sp/hard\libc_nano.a(lib_a-mlock.o)
 .text          0x00000000        0x0 c:/a/gcc_arm/6/bin/../lib/gcc/arm-none-eabi/6.3.1/../../../../arm-none-eabi/lib/thumb/v7e-m/fpv4-sp/hard\libc_nano.a(lib_a-reent.o)
 .data          0x00000000        0x0 c:/a/gcc_arm/6/bin/../lib/gcc/arm-none-eabi/6.3.1/../../../../arm-none-eabi/lib/thumb/v7e-m/fpv4-sp/hard\libc_nano.a(lib_a-reent.o)
 .bss           0x00000000        0x0 c:/a/gcc_arm/6/bin/../lib/gcc/arm-none-eabi/6.3.1/../../../../arm-none-eabi/lib/thumb/v7e-m/fpv4-sp/hard\libc_nano.a(lib_a-reent.o)
 .text.cleanup_glue
                0x00000000       0x1a c:/a/gcc_arm/6/bin/../lib/gcc/arm-none-eabi/6.3.1/../../../../arm-none-eabi/lib/thumb/v7e-m/fpv4-sp/hard\libc_nano.a(lib_a-reent.o)
 .text._reclaim_reent
                0x00000000       0xb8 c:/a/gcc_arm/6/bin/../lib/gcc/arm-none-eabi/6.3.1/../../../../arm-none-eabi/lib/thumb/v7e-m/fpv4-sp/hard\libc_nano.a(lib_a-reent.o)
 .text          0x00000000        0x0 c:/a/gcc_arm/6/bin/../lib/gcc/arm-none-eabi/6.3.1/../../../../arm-none-eabi/lib/thumb/v7e-m/fpv4-sp/hard\libc_nano.a(lib_a-strchr.o)
 .data          0x00000000        0x0 c:/a/gcc_arm/6/bin/../lib/gcc/arm-none-eabi/6.3.1/../../../../arm-none-eabi/lib/thumb/v7e-m/fpv4-sp/hard\libc_nano.a(lib_a-strchr.o)
 .bss           0x00000000        0x0 c:/a/gcc_arm/6/bin/../lib/gcc/arm-none-eabi/6.3.1/../../../../arm-none-eabi/lib/thumb/v7e-m/fpv4-sp/hard\libc_nano.a(lib_a-strchr.o)
 .text          0x00000000        0x0 c:/a/gcc_arm/6/bin/../lib/gcc/arm-none-eabi/6.3.1/thumb/v7e-m/fpv4-sp/hard/crtend.o
 .data          0x00000000        0x0 c:/a/gcc_arm/6/bin/../lib/gcc/arm-none-eabi/6.3.1/thumb/v7e-m/fpv4-sp/hard/crtend.o
 .bss           0x00000000        0x0 c:/a/gcc_arm/6/bin/../lib/gcc/arm-none-eabi/6.3.1/thumb/v7e-m/fpv4-sp/hard/crtend.o
 .text          0x00000000        0x0 c:/a/gcc_arm/6/bin/../lib/gcc/arm-none-eabi/6.3.1/thumb/v7e-m/fpv4-sp/hard/crtn.o
 .data          0x00000000        0x0 c:/a/gcc_arm/6/bin/../lib/gcc/arm-none-eabi/6.3.1/thumb/v7e-m/fpv4-sp/hard/crtn.o
 .bss           0x00000000        0x0 c:/a/gcc_arm/6/bin/../lib/gcc/arm-none-eabi/6.3.1/thumb/v7e-m/fpv4-sp/hard/crtn.o
 .text          0x00000000        0x0 c:/a/gcc_arm/6/bin/../lib/gcc/arm-none-eabi/6.3.1/../../../../arm-none-eabi/lib/thumb/v7e-m/fpv4-sp/hard\libnosys.a(sbrk.o)
 .data          0x00000000        0x0 c:/a/gcc_arm/6/bin/../lib/gcc/arm-none-eabi/6.3.1/../../../../arm-none-eabi/lib/thumb/v7e-m/fpv4-sp/hard\libnosys.a(sbrk.o)
 .bss           0x00000000        0x0 c:/a/gcc_arm/6/bin/../lib/gcc/arm-none-eabi/6.3.1/../../../../arm-none-eabi/lib/thumb/v7e-m/fpv4-sp/hard\libnosys.a(sbrk.o)
 .text          0x00000000        0x0 c:/a/gcc_arm/6/bin/../lib/gcc/arm-none-eabi/6.3.1/../../../../arm-none-eabi/lib/thumb/v7e-m/fpv4-sp/hard\libnosys.a(_exit.o)
 .data          0x00000000        0x0 c:/a/gcc_arm/6/bin/../lib/gcc/arm-none-eabi/6.3.1/../../../../arm-none-eabi/lib/thumb/v7e-m/fpv4-sp/hard\libnosys.a(_exit.o)
 .bss           0x00000000        0x0 c:/a/gcc_arm/6/bin/../lib/gcc/arm-none-eabi/6.3.1/../../../../arm-none-eabi/lib/thumb/v7e-m/fpv4-sp/hard\libnosys.a(_exit.o)

Memory Configuration

Name             Origin             Length             Attributes
FLASH            0x00024000         0x000dc000         xr
RAM              0x200031b8         0x0003ae4a         xrw
*default*        0x00000000         0xffffffff

Linker script and memory map

LOAD c:/a/gcc_arm/6/bin/../lib/gcc/arm-none-eabi/6.3.1/thumb/v7e-m/fpv4-sp/hard/crti.o
LOAD c:/a/gcc_arm/6/bin/../lib/gcc/arm-none-eabi/6.3.1/thumb/v7e-m/fpv4-sp/hard/crtbegin.o
LOAD c:/a/gcc_arm/6/bin/../lib/gcc/arm-none-eabi/6.3.1/../../../../arm-none-eabi/lib/thumb/v7e-m/fpv4-sp/hard/crt0.o
LOAD examples/dfu/CMakeFiles/dfu_no_serial_nrf52840_xxAA_s140_5.0.0-3.alpha.dir/src/main.c.obj
LOAD examples/dfu/CMakeFiles/dfu_no_serial_nrf52840_xxAA_s140_5.0.0-3.alpha.dir/__/nrf_mesh_sdk.c.obj
LOAD examples/dfu/CMakeFiles/dfu_no_serial_nrf52840_xxAA_s140_5.0.0-3.alpha.dir/__/__/mesh/access/src/access_publish.c.obj
LOAD examples/dfu/CMakeFiles/dfu_no_serial_nrf52840_xxAA_s140_5.0.0-3.alpha.dir/__/__/mesh/access/src/access.c.obj
LOAD examples/dfu/CMakeFiles/dfu_no_serial_nrf52840_xxAA_s140_5.0.0-3.alpha.dir/__/__/mesh/access/src/access_reliable.c.obj
LOAD examples/dfu/CMakeFiles/dfu_no_serial_nrf52840_xxAA_s140_5.0.0-3.alpha.dir/__/__/mesh/access/src/device_state_manager.c.obj
LOAD examples/dfu/CMakeFiles/dfu_no_serial_nrf52840_xxAA_s140_5.0.0-3.alpha.dir/__/__/mesh/prov/src/prov_provisioner.c.obj
LOAD examples/dfu/CMakeFiles/dfu_no_serial_nrf52840_xxAA_s140_5.0.0-3.alpha.dir/__/__/mesh/prov/src/prov_provisionee.c.obj
LOAD examples/dfu/CMakeFiles/dfu_no_serial_nrf52840_xxAA_s140_5.0.0-3.alpha.dir/__/__/mesh/prov/src/nrf_mesh_prov.c.obj
LOAD examples/dfu/CMakeFiles/dfu_no_serial_nrf52840_xxAA_s140_5.0.0-3.alpha.dir/__/__/mesh/prov/src/provisioning.c.obj
LOAD examples/dfu/CMakeFiles/dfu_no_serial_nrf52840_xxAA_s140_5.0.0-3.alpha.dir/__/__/mesh/prov/src/prov_beacon.c.obj
LOAD examples/dfu/CMakeFiles/dfu_no_serial_nrf52840_xxAA_s140_5.0.0-3.alpha.dir/__/__/mesh/prov/src/prov_utils.c.obj
LOAD examples/dfu/CMakeFiles/dfu_no_serial_nrf52840_xxAA_s140_5.0.0-3.alpha.dir/__/__/mesh/prov/src/prov_bearer_adv.c.obj
LOAD examples/dfu/CMakeFiles/dfu_no_serial_nrf52840_xxAA_s140_5.0.0-3.alpha.dir/__/__/mesh/dfu/src/nrf_mesh_dfu.c.obj
LOAD examples/dfu/CMakeFiles/dfu_no_serial_nrf52840_xxAA_s140_5.0.0-3.alpha.dir/__/nrf_mesh_weak.c.obj
LOAD examples/dfu/CMakeFiles/dfu_no_serial_nrf52840_xxAA_s140_5.0.0-3.alpha.dir/__/__/external/nRF5_SDK_14.0.0_3bcc1f7/components/toolchain/system_nrf52840.c.obj
LOAD examples/dfu/CMakeFiles/dfu_no_serial_nrf52840_xxAA_s140_5.0.0-3.alpha.dir/__/__/external/nRF5_SDK_14.0.0_3bcc1f7/components/toolchain/gcc/gcc_startup_nrf52840.S.obj
LOAD mesh/core/libmesh_core_nrf52840_xxAA.a
LOAD external/rtt/librtt_nrf52840_xxAA.a
LOAD external/micro-ecc/libuECC_nrf52840_xxAA.a
START GROUP
LOAD c:/a/gcc_arm/6/bin/../lib/gcc/arm-none-eabi/6.3.1/thumb/v7e-m/fpv4-sp/hard\libgcc.a
LOAD c:/a/gcc_arm/6/bin/../lib/gcc/arm-none-eabi/6.3.1/../../../../arm-none-eabi/lib/thumb/v7e-m/fpv4-sp/hard\libc_nano.a
END GROUP
START GROUP
LOAD c:/a/gcc_arm/6/bin/../lib/gcc/arm-none-eabi/6.3.1/thumb/v7e-m/fpv4-sp/hard\libgcc.a
LOAD c:/a/gcc_arm/6/bin/../lib/gcc/arm-none-eabi/6.3.1/../../../../arm-none-eabi/lib/thumb/v7e-m/fpv4-sp/hard\libc_nano.a
END GROUP
LOAD c:/a/gcc_arm/6/bin/../lib/gcc/arm-none-eabi/6.3.1/thumb/v7e-m/fpv4-sp/hard/crtend.o
LOAD c:/a/gcc_arm/6/bin/../lib/gcc/arm-none-eabi/6.3.1/thumb/v7e-m/fpv4-sp/hard/crtn.o
START GROUP
LOAD c:/a/gcc_arm/6/bin/../lib/gcc/arm-none-eabi/6.3.1/thumb/v7e-m/fpv4-sp/hard\libgcc.a
LOAD c:/a/gcc_arm/6/bin/../lib/gcc/arm-none-eabi/6.3.1/../../../../arm-none-eabi/lib/thumb/v7e-m/fpv4-sp/hard\libc.a
LOAD c:/a/gcc_arm/6/bin/../lib/gcc/arm-none-eabi/6.3.1/../../../../arm-none-eabi/lib/thumb/v7e-m/fpv4-sp/hard\libnosys.a
END GROUP

.text           0x00024000     0xf214
 *(.isr_vector)
 .isr_vector    0x00024000      0x200 examples/dfu/CMakeFiles/dfu_no_serial_nrf52840_xxAA_s140_5.0.0-3.alpha.dir/__/__/external/nRF5_SDK_14.0.0_3bcc1f7/components/toolchain/gcc/gcc_startup_nrf52840.S.obj
                0x00024000                __isr_vector
 *(.text*)
 .text          0x00024200       0x6c c:/a/gcc_arm/6/bin/../lib/gcc/arm-none-eabi/6.3.1/thumb/v7e-m/fpv4-sp/hard/crtbegin.o
 .text          0x0002426c       0x74 c:/a/gcc_arm/6/bin/../lib/gcc/arm-none-eabi/6.3.1/../../../../arm-none-eabi/lib/thumb/v7e-m/fpv4-sp/hard/crt0.o
                0x0002426c                _start
                0x0002426c                _mainCRTStartup
 .text.mesh_evt_handler
                0x000242e0       0xe0 examples/dfu/CMakeFiles/dfu_no_serial_nrf52840_xxAA_s140_5.0.0-3.alpha.dir/src/main.c.obj
 .text.startup.main
                0x000243c0      0x328 examples/dfu/CMakeFiles/dfu_no_serial_nrf52840_xxAA_s140_5.0.0-3.alpha.dir/src/main.c.obj
                0x000243c0                main
 .text.sd_evt_get
                0x000246e8        0x4 examples/dfu/CMakeFiles/dfu_no_serial_nrf52840_xxAA_s140_5.0.0-3.alpha.dir/__/nrf_mesh_sdk.c.obj
 .text.sd_softdevice_enable
                0x000246ec        0x4 examples/dfu/CMakeFiles/dfu_no_serial_nrf52840_xxAA_s140_5.0.0-3.alpha.dir/__/nrf_mesh_sdk.c.obj
 .text.sd_ble_enable
                0x000246f0        0x4 examples/dfu/CMakeFiles/dfu_no_serial_nrf52840_xxAA_s140_5.0.0-3.alpha.dir/__/nrf_mesh_sdk.c.obj
 .text.sd_ble_evt_get
                0x000246f4        0x4 examples/dfu/CMakeFiles/dfu_no_serial_nrf52840_xxAA_s140_5.0.0-3.alpha.dir/__/nrf_mesh_sdk.c.obj
 .text.mesh_assert_handler
                0x000246f8       0x80 examples/dfu/CMakeFiles/dfu_no_serial_nrf52840_xxAA_s140_5.0.0-3.alpha.dir/__/nrf_mesh_sdk.c.obj
                0x000246f8                mesh_assert_handler
 .text.softdevice_assert_handler
                0x00024778       0x94 examples/dfu/CMakeFiles/dfu_no_serial_nrf52840_xxAA_s140_5.0.0-3.alpha.dir/__/nrf_mesh_sdk.c.obj
                0x00024778                softdevice_assert_handler
 .text.app_error_handler
                0x0002480c       0x88 examples/dfu/CMakeFiles/dfu_no_serial_nrf52840_xxAA_s140_5.0.0-3.alpha.dir/__/nrf_mesh_sdk.c.obj
                0x0002480c                app_error_handler
 .text.HardFault_Handler
                0x00024894       0x78 examples/dfu/CMakeFiles/dfu_no_serial_nrf52840_xxAA_s140_5.0.0-3.alpha.dir/__/nrf_mesh_sdk.c.obj
                0x00024894                HardFault_Handler
 .text.SWI2_EGU2_IRQHandler
                0x0002490c       0x40 examples/dfu/CMakeFiles/dfu_no_serial_nrf52840_xxAA_s140_5.0.0-3.alpha.dir/__/nrf_mesh_sdk.c.obj
                0x0002490c                SWI2_EGU2_IRQHandler
 .text.mesh_softdevice_enable
                0x0002494c      0x14c examples/dfu/CMakeFiles/dfu_no_serial_nrf52840_xxAA_s140_5.0.0-3.alpha.dir/__/nrf_mesh_sdk.c.obj
                0x0002494c                mesh_softdevice_enable
 .text.mesh_core_setup
                0x00024a98      0x1c4 examples/dfu/CMakeFiles/dfu_no_serial_nrf52840_xxAA_s140_5.0.0-3.alpha.dir/__/nrf_mesh_sdk.c.obj
                0x00024a98                mesh_core_setup
 .text.nrf_mesh_net_secmat_next_get
                0x00024c5c       0xfc examples/dfu/CMakeFiles/dfu_no_serial_nrf52840_xxAA_s140_5.0.0-3.alpha.dir/__/__/mesh/access/src/device_state_manager.c.obj
                0x00024c5c                nrf_mesh_net_secmat_next_get
 .text.nrf_mesh_app_secmat_next_get
                0x00024d58      0x220 examples/dfu/CMakeFiles/dfu_no_serial_nrf52840_xxAA_s140_5.0.0-3.alpha.dir/__/__/mesh/access/src/device_state_manager.c.obj
                0x00024d58                nrf_mesh_app_secmat_next_get
 .text.nrf_mesh_devkey_secmat_get
                0x00024f78       0x3c examples/dfu/CMakeFiles/dfu_no_serial_nrf52840_xxAA_s140_5.0.0-3.alpha.dir/__/__/mesh/access/src/device_state_manager.c.obj
                0x00024f78                nrf_mesh_devkey_secmat_get
 .text.nrf_mesh_beacon_info_next_get
                0x00024fb4      0x11c examples/dfu/CMakeFiles/dfu_no_serial_nrf52840_xxAA_s140_5.0.0-3.alpha.dir/__/__/mesh/access/src/device_state_manager.c.obj
                0x00024fb4                nrf_mesh_beacon_info_next_get
 .text.nrf_mesh_rx_address_get
                0x000250d0      0x558 examples/dfu/CMakeFiles/dfu_no_serial_nrf52840_xxAA_s140_5.0.0-3.alpha.dir/__/__/mesh/access/src/device_state_manager.c.obj
                0x000250d0                nrf_mesh_rx_address_get
 .text.prov_cb_link_opened
                0x00025628        0x8 examples/dfu/CMakeFiles/dfu_no_serial_nrf52840_xxAA_s140_5.0.0-3.alpha.dir/__/__/mesh/prov/src/provisioning.c.obj
                0x00025628                prov_cb_link_opened
 .text.prov_cb_link_closed
                0x00025630        0x8 examples/dfu/CMakeFiles/dfu_no_serial_nrf52840_xxAA_s140_5.0.0-3.alpha.dir/__/__/mesh/prov/src/provisioning.c.obj
                0x00025630                prov_cb_link_closed
 .text.prov_cb_pkt_in
                0x00025638       0x88 examples/dfu/CMakeFiles/dfu_no_serial_nrf52840_xxAA_s140_5.0.0-3.alpha.dir/__/__/mesh/prov/src/provisioning.c.obj
                0x00025638                prov_cb_pkt_in
 .text.prov_cb_ack_in
                0x000256c0        0x8 examples/dfu/CMakeFiles/dfu_no_serial_nrf52840_xxAA_s140_5.0.0-3.alpha.dir/__/__/mesh/prov/src/provisioning.c.obj
                0x000256c0                prov_cb_ack_in
 .text.prov_beacon_unprov_packet_in
                0x000256c8       0xbc examples/dfu/CMakeFiles/dfu_no_serial_nrf52840_xxAA_s140_5.0.0-3.alpha.dir/__/__/mesh/prov/src/prov_beacon.c.obj
                0x000256c8                prov_beacon_unprov_packet_in
 .text.remove_active_bearer
                0x00025784       0x70 examples/dfu/CMakeFiles/dfu_no_serial_nrf52840_xxAA_s140_5.0.0-3.alpha.dir/__/__/mesh/prov/src/prov_bearer_adv.c.obj
 .text.send_link_ack
                0x000257f4       0x90 examples/dfu/CMakeFiles/dfu_no_serial_nrf52840_xxAA_s140_5.0.0-3.alpha.dir/__/__/mesh/prov/src/prov_bearer_adv.c.obj
 .text.send_transaction_ack
                0x00025884       0x78 examples/dfu/CMakeFiles/dfu_no_serial_nrf52840_xxAA_s140_5.0.0-3.alpha.dir/__/__/mesh/prov/src/prov_bearer_adv.c.obj
 .text.prov_buffer_rx
                0x000258fc       0xa4 examples/dfu/CMakeFiles/dfu_no_serial_nrf52840_xxAA_s140_5.0.0-3.alpha.dir/__/__/mesh/prov/src/prov_bearer_adv.c.obj
 .text.prov_bearer_adv_link_close
                0x000259a0      0x154 examples/dfu/CMakeFiles/dfu_no_serial_nrf52840_xxAA_s140_5.0.0-3.alpha.dir/__/__/mesh/prov/src/prov_bearer_adv.c.obj
 .text.prov_bearer_adv_packet_in
                0x00025af4      0x9d0 examples/dfu/CMakeFiles/dfu_no_serial_nrf52840_xxAA_s140_5.0.0-3.alpha.dir/__/__/mesh/prov/src/prov_bearer_adv.c.obj
                0x00025af4                prov_bearer_adv_packet_in
 .text.tx_complete_cb
                0x000264c4        0x4 examples/dfu/CMakeFiles/dfu_no_serial_nrf52840_xxAA_s140_5.0.0-3.alpha.dir/__/__/mesh/dfu/src/nrf_mesh_dfu.c.obj
 .text.nrf_mesh_dfu_cmd_send.part.3
                0x000264c8       0x5c examples/dfu/CMakeFiles/dfu_no_serial_nrf52840_xxAA_s140_5.0.0-3.alpha.dir/__/__/mesh/dfu/src/nrf_mesh_dfu.c.obj
 .text.tx_timeout
                0x00026524      0x1fc examples/dfu/CMakeFiles/dfu_no_serial_nrf52840_xxAA_s140_5.0.0-3.alpha.dir/__/__/mesh/dfu/src/nrf_mesh_dfu.c.obj
 .text.abort_timeout
                0x00026720      0x148 examples/dfu/CMakeFiles/dfu_no_serial_nrf52840_xxAA_s140_5.0.0-3.alpha.dir/__/__/mesh/dfu/src/nrf_mesh_dfu.c.obj
 .text.timer_timeout
                0x00026868       0xf4 examples/dfu/CMakeFiles/dfu_no_serial_nrf52840_xxAA_s140_5.0.0-3.alpha.dir/__/__/mesh/dfu/src/nrf_mesh_dfu.c.obj
 .text.flash_op_complete
                0x0002695c      0x210 examples/dfu/CMakeFiles/dfu_no_serial_nrf52840_xxAA_s140_5.0.0-3.alpha.dir/__/__/mesh/dfu/src/nrf_mesh_dfu.c.obj
 .text.dfu_evt_handler
                0x00026b6c      0xa8c examples/dfu/CMakeFiles/dfu_no_serial_nrf52840_xxAA_s140_5.0.0-3.alpha.dir/__/__/mesh/dfu/src/nrf_mesh_dfu.c.obj
 .text.nrf_mesh_dfu_request
                0x000275f8       0xe0 examples/dfu/CMakeFiles/dfu_no_serial_nrf52840_xxAA_s140_5.0.0-3.alpha.dir/__/__/mesh/dfu/src/nrf_mesh_dfu.c.obj
                0x000275f8                nrf_mesh_dfu_request
 .text.nrf_mesh_dfu_relay
                0x000276d8      0x10c examples/dfu/CMakeFiles/dfu_no_serial_nrf52840_xxAA_s140_5.0.0-3.alpha.dir/__/__/mesh/dfu/src/nrf_mesh_dfu.c.obj
                0x000276d8                nrf_mesh_dfu_relay
 .text.nrf_mesh_dfu_bank_flash
                0x000277e4       0xb4 examples/dfu/CMakeFiles/dfu_no_serial_nrf52840_xxAA_s140_5.0.0-3.alpha.dir/__/__/mesh/dfu/src/nrf_mesh_dfu.c.obj
                0x000277e4                nrf_mesh_dfu_bank_flash
 .text.nrf_mesh_dfu_cmd_send
                0x00027898       0xa8 examples/dfu/CMakeFiles/dfu_no_serial_nrf52840_xxAA_s140_5.0.0-3.alpha.dir/__/__/mesh/dfu/src/nrf_mesh_dfu.c.obj
                0x00027898                nrf_mesh_dfu_cmd_send
 .text.nrf_mesh_dfu_init
                0x00027940      0x228 examples/dfu/CMakeFiles/dfu_no_serial_nrf52840_xxAA_s140_5.0.0-3.alpha.dir/__/__/mesh/dfu/src/nrf_mesh_dfu.c.obj
                0x00027940                nrf_mesh_dfu_init
 .text.nrf_mesh_dfu_rx
                0x00027b68      0x224 examples/dfu/CMakeFiles/dfu_no_serial_nrf52840_xxAA_s140_5.0.0-3.alpha.dir/__/__/mesh/dfu/src/nrf_mesh_dfu.c.obj
                0x00027b68                nrf_mesh_dfu_rx
 .text.SystemInit
                0x00027d8c      0x1bc examples/dfu/CMakeFiles/dfu_no_serial_nrf52840_xxAA_s140_5.0.0-3.alpha.dir/__/__/external/nRF5_SDK_14.0.0_3bcc1f7/components/toolchain/system_nrf52840.c.obj
                0x00027d8c                SystemInit
 .text          0x00027f48       0x3c examples/dfu/CMakeFiles/dfu_no_serial_nrf52840_xxAA_s140_5.0.0-3.alpha.dir/__/__/external/nRF5_SDK_14.0.0_3bcc1f7/components/toolchain/gcc/gcc_startup_nrf52840.S.obj
                0x00027f48                Reset_Handler
                0x00027f70                NMI_Handler
                0x00027f74                MemoryManagement_Handler
                0x00027f76                BusFault_Handler
                0x00027f78                UsageFault_Handler
                0x00027f7a                SVC_Handler
                0x00027f7c                DebugMon_Handler
                0x00027f7e                PendSV_Handler
                0x00027f80                SysTick_Handler
                0x00027f82                POWER_CLOCK_IRQHandler
                0x00027f82                RADIO_IRQHandler
                0x00027f82                PDM_IRQHandler
                0x00027f82                TEMP_IRQHandler
                0x00027f82                RTC0_IRQHandler
                0x00027f82                PWM3_IRQHandler
                0x00027f82                FPU_IRQHandler
                0x00027f82                USBD_IRQHandler
                0x00027f82                SPIM0_SPIS0_TWIM0_TWIS0_SPI0_TWI0_IRQHandler
                0x00027f82                GPIOTE_IRQHandler
                0x00027f82                UARTE0_UART0_IRQHandler
                0x00027f82                TIMER3_IRQHandler
                0x00027f82                CRYPTOCELL_IRQHandler
                0x00027f82                I2S_IRQHandler
                0x00027f82                SWI4_EGU4_IRQHandler
                0x00027f82                PWM1_IRQHandler
                0x00027f82                TIMER2_IRQHandler
                0x00027f82                UARTE1_IRQHandler
                0x00027f82                TIMER1_IRQHandler
                0x00027f82                SPIM3_IRQHandler
                0x00027f82                PWM2_IRQHandler
                0x00027f82                ECB_IRQHandler
                0x00027f82                SPIM1_SPIS1_TWIM1_TWIS1_SPI1_TWI1_IRQHandler
                0x00027f82                Default_Handler
                0x00027f82                SAADC_IRQHandler
                0x00027f82                CCM_AAR_IRQHandler
                0x00027f82                WDT_IRQHandler
                0x00027f82                TIMER4_IRQHandler
                0x00027f82                SWI5_EGU5_IRQHandler
                0x00027f82                RNG_IRQHandler
                0x00027f82                RTC2_IRQHandler
                0x00027f82                PWM0_IRQHandler
                0x00027f82                SWI3_EGU3_IRQHandler
                0x00027f82                RTC1_IRQHandler
                0x00027f82                SWI1_EGU1_IRQHandler
                0x00027f82                SPIM2_SPIS2_SPI2_IRQHandler
                0x00027f82                NFCT_IRQHandler
                0x00027f82                SWI0_EGU0_IRQHandler
                0x00027f82                MWU_IRQHandler
                0x00027f82                TIMER0_IRQHandler
                0x00027f82                QSPI_IRQHandler
                0x00027f82                COMP_LPCOMP_IRQHandler
 .text.nrf_mesh_configure_device_uuid_reset
                0x00027f84       0x2c mesh/core/libmesh_core_nrf52840_xxAA.a(nrf_mesh_configure.c.obj)
                0x00027f84                nrf_mesh_configure_device_uuid_reset
 .text.nrf_mesh_configure_device_uuid_get
                0x00027fb0        0x8 mesh/core/libmesh_core_nrf52840_xxAA.a(nrf_mesh_configure.c.obj)
                0x00027fb0                nrf_mesh_configure_device_uuid_get
 .text.event_handle
                0x00027fb8       0x34 mesh/core/libmesh_core_nrf52840_xxAA.a(event.c.obj)
                0x00027fb8                event_handle
 .text.event_handler_add
                0x00027fec       0x90 mesh/core/libmesh_core_nrf52840_xxAA.a(event.c.obj)
                0x00027fec                event_handler_add
 .text.flash_mem_available
                0x0002807c       0x28 mesh/core/libmesh_core_nrf52840_xxAA.a(net_state.c.obj)
 .text.flash_store_iv_index
                0x000280a4       0x38 mesh/core/libmesh_core_nrf52840_xxAA.a(net_state.c.obj)
 .text.init_flash_storage
                0x000280dc       0x44 mesh/core/libmesh_core_nrf52840_xxAA.a(net_state.c.obj)
 .text.flash_write_complete
                0x00028120       0x7c mesh/core/libmesh_core_nrf52840_xxAA.a(net_state.c.obj)
 .text.seqnum_block_allocate
                0x0002819c       0x4c mesh/core/libmesh_core_nrf52840_xxAA.a(net_state.c.obj)
 .text.iv_update_trigger_if_pending
                0x000281e8      0x17c mesh/core/libmesh_core_nrf52840_xxAA.a(net_state.c.obj)
 .text.iv_update_timer_handler
                0x00028364       0x80 mesh/core/libmesh_core_nrf52840_xxAA.a(net_state.c.obj)
 .text.net_state_recover_from_flash
                0x000283e4      0x10c mesh/core/libmesh_core_nrf52840_xxAA.a(net_state.c.obj)
                0x000283e4                net_state_recover_from_flash
 .text.net_state_init
                0x000284f0       0x80 mesh/core/libmesh_core_nrf52840_xxAA.a(net_state.c.obj)
                0x000284f0                net_state_init
 .text.net_state_seqnum_alloc
                0x00028570       0xd4 mesh/core/libmesh_core_nrf52840_xxAA.a(net_state.c.obj)
                0x00028570                net_state_seqnum_alloc
 .text.net_state_iv_index_lock
                0x00028644       0x50 mesh/core/libmesh_core_nrf52840_xxAA.a(net_state.c.obj)
                0x00028644                net_state_iv_index_lock
 .text.net_state_beacon_received
                0x00028694       0xec mesh/core/libmesh_core_nrf52840_xxAA.a(net_state.c.obj)
                0x00028694                net_state_beacon_received
 .text.net_state_beacon_iv_index_get
                0x00028780        0xc mesh/core/libmesh_core_nrf52840_xxAA.a(net_state.c.obj)
                0x00028780                net_state_beacon_iv_index_get
 .text.net_state_tx_iv_index_get
                0x0002878c       0x14 mesh/core/libmesh_core_nrf52840_xxAA.a(net_state.c.obj)
                0x0002878c                net_state_tx_iv_index_get
 .text.net_state_rx_iv_index_get
                0x000287a0       0x18 mesh/core/libmesh_core_nrf52840_xxAA.a(net_state.c.obj)
                0x000287a0                net_state_rx_iv_index_get
 .text.net_state_iv_update_get
                0x000287b8        0xc mesh/core/libmesh_core_nrf52840_xxAA.a(net_state.c.obj)
                0x000287b8                net_state_iv_update_get
 .text.send_end_events
                0x000287c4       0x8c mesh/core/libmesh_core_nrf52840_xxAA.a(mesh_flash.c.obj)
 .text.flash_op_schedule
                0x00028850       0xac mesh/core/libmesh_core_nrf52840_xxAA.a(mesh_flash.c.obj)
 .text.flash_op_start
                0x000288fc      0x1c4 mesh/core/libmesh_core_nrf52840_xxAA.a(mesh_flash.c.obj)
 .text.mesh_flash_init
                0x00028ac0       0x88 mesh/core/libmesh_core_nrf52840_xxAA.a(mesh_flash.c.obj)
                0x00028ac0                mesh_flash_init
 .text.mesh_flash_user_callback_set
                0x00028b48       0x2c mesh/core/libmesh_core_nrf52840_xxAA.a(mesh_flash.c.obj)
                0x00028b48                mesh_flash_user_callback_set
 .text.mesh_flash_op_push
                0x00028b74      0x140 mesh/core/libmesh_core_nrf52840_xxAA.a(mesh_flash.c.obj)
                0x00028b74                mesh_flash_op_push
 .text.mesh_flash_in_progress
                0x00028cb4       0x34 mesh/core/libmesh_core_nrf52840_xxAA.a(mesh_flash.c.obj)
                0x00028cb4                mesh_flash_in_progress
 .text.mesh_flash_set_suspended
                0x00028ce8       0x90 mesh/core/libmesh_core_nrf52840_xxAA.a(mesh_flash.c.obj)
                0x00028ce8                mesh_flash_set_suspended
 .text.nrf_mesh_address_type_get
                0x00028d78       0x10 mesh/core/libmesh_core_nrf52840_xxAA.a(nrf_mesh_utils.c.obj)
                0x00028d78                nrf_mesh_address_type_get
 .text.sd_softdevice_is_enabled
                0x00028d88        0x4 mesh/core/libmesh_core_nrf52840_xxAA.a(nrf_mesh.c.obj)
 .text.nrf_mesh_init
                0x00028d8c       0xb8 mesh/core/libmesh_core_nrf52840_xxAA.a(nrf_mesh.c.obj)
                0x00028d8c                nrf_mesh_init
 .text.nrf_mesh_enable
                0x00028e44       0x50 mesh/core/libmesh_core_nrf52840_xxAA.a(nrf_mesh.c.obj)
                0x00028e44                nrf_mesh_enable
 .text.nrf_mesh_process
                0x00028e94      0x21c mesh/core/libmesh_core_nrf52840_xxAA.a(nrf_mesh.c.obj)
                0x00028e94                nrf_mesh_process
 .text.nrf_mesh_on_ble_evt
                0x000290b0        0x4 mesh/core/libmesh_core_nrf52840_xxAA.a(nrf_mesh.c.obj)
                0x000290b0                nrf_mesh_on_ble_evt
 .text.nrf_mesh_on_sd_evt
                0x000290b4        0xc mesh/core/libmesh_core_nrf52840_xxAA.a(nrf_mesh.c.obj)
                0x000290b4                nrf_mesh_on_sd_evt
 .text.nrf_mesh_evt_handler_add
                0x000290c0        0x4 mesh/core/libmesh_core_nrf52840_xxAA.a(nrf_mesh.c.obj)
                0x000290c0                nrf_mesh_evt_handler_add
 .text.hal_lfclk_ppm_get
                0x000290c4       0x14 mesh/core/libmesh_core_nrf52840_xxAA.a(hal.c.obj)
                0x000290c4                hal_lfclk_ppm_get
 .text.timer_cb
                0x000290d8        0xc mesh/core/libmesh_core_nrf52840_xxAA.a(timer_scheduler.c.obj)
 .text.add_evt.constprop.0
                0x000290e4       0x78 mesh/core/libmesh_core_nrf52840_xxAA.a(timer_scheduler.c.obj)
 .text.flag_event_cb
                0x0002915c      0x2e4 mesh/core/libmesh_core_nrf52840_xxAA.a(timer_scheduler.c.obj)
 .text.timer_sch_init
                0x00029440       0x24 mesh/core/libmesh_core_nrf52840_xxAA.a(timer_scheduler.c.obj)
                0x00029440                timer_sch_init
 .text.timer_sch_schedule
                0x00029464       0x84 mesh/core/libmesh_core_nrf52840_xxAA.a(timer_scheduler.c.obj)
                0x00029464                timer_sch_schedule
 .text.timer_sch_abort
                0x000294e8       0x68 mesh/core/libmesh_core_nrf52840_xxAA.a(timer_scheduler.c.obj)
                0x000294e8                timer_sch_abort
 .text.timer_sch_reschedule
                0x00029550       0xa4 mesh/core/libmesh_core_nrf52840_xxAA.a(timer_scheduler.c.obj)
                0x00029550                timer_sch_reschedule
 .text.timer_event_handler
                0x000295f4       0xd8 mesh/core/libmesh_core_nrf52840_xxAA.a(timer.c.obj)
                0x000295f4                timer_event_handler
 .text.timer_order_cb
                0x000296cc       0x98 mesh/core/libmesh_core_nrf52840_xxAA.a(timer.c.obj)
                0x000296cc                timer_order_cb
 .text.timer_now
                0x00029764       0x58 mesh/core/libmesh_core_nrf52840_xxAA.a(timer.c.obj)
                0x00029764                timer_now
 .text.timer_on_ts_begin
                0x000297bc      0x110 mesh/core/libmesh_core_nrf52840_xxAA.a(timer.c.obj)
                0x000297bc                timer_on_ts_begin
 .text.timer_on_ts_end
                0x000298cc       0x78 mesh/core/libmesh_core_nrf52840_xxAA.a(timer.c.obj)
                0x000298cc                timer_on_ts_end
 .text.timer_cb
                0x00029944       0x10 mesh/core/libmesh_core_nrf52840_xxAA.a(ticker.c.obj)
 .text.ticker_init
                0x00029954       0x3c mesh/core/libmesh_core_nrf52840_xxAA.a(ticker.c.obj)
                0x00029954                ticker_init
 .text.sd_rand_application_bytes_available_get
                0x00029990        0x4 mesh/core/libmesh_core_nrf52840_xxAA.a(rand.c.obj)
 .text.sd_rand_application_vector_get
                0x00029994        0x4 mesh/core/libmesh_core_nrf52840_xxAA.a(rand.c.obj)
 .text.rand_prng_seed
                0x00029998       0x6c mesh/core/libmesh_core_nrf52840_xxAA.a(rand.c.obj)
                0x00029998                rand_prng_seed
 .text.rand_prng_get
                0x00029a04       0x28 mesh/core/libmesh_core_nrf52840_xxAA.a(rand.c.obj)
                0x00029a04                rand_prng_get
 .text.rand_hw_rng_get
                0x00029a2c       0x58 mesh/core/libmesh_core_nrf52840_xxAA.a(rand.c.obj)
                0x00029a2c                rand_hw_rng_get
 .text.sd_radio_session_open
                0x00029a84        0x4 mesh/core/libmesh_core_nrf52840_xxAA.a(timeslot.c.obj)
 .text.sd_radio_session_close
                0x00029a88        0x4 mesh/core/libmesh_core_nrf52840_xxAA.a(timeslot.c.obj)
 .text.sd_radio_request
                0x00029a8c        0x4 mesh/core/libmesh_core_nrf52840_xxAA.a(timeslot.c.obj)
 .text.end_timer_handler
                0x00029a90       0x2c mesh/core/libmesh_core_nrf52840_xxAA.a(timeslot.c.obj)
 .text.radio_signal_callback
                0x00029abc      0x324 mesh/core/libmesh_core_nrf52840_xxAA.a(timeslot.c.obj)
 .text.timeslot_sd_event_handler
                0x00029de0       0x50 mesh/core/libmesh_core_nrf52840_xxAA.a(timeslot.c.obj)
                0x00029de0                timeslot_sd_event_handler
 .text.timeslot_init
                0x00029e30       0x4c mesh/core/libmesh_core_nrf52840_xxAA.a(timeslot.c.obj)
                0x00029e30                timeslot_init
 .text.timeslot_start
                0x00029e7c       0x20 mesh/core/libmesh_core_nrf52840_xxAA.a(timeslot.c.obj)
                0x00029e7c                timeslot_start
 .text.timeslot_stop
                0x00029e9c       0x30 mesh/core/libmesh_core_nrf52840_xxAA.a(timeslot.c.obj)
                0x00029e9c                timeslot_stop
 .text.timeslot_state_lock
                0x00029ecc       0x44 mesh/core/libmesh_core_nrf52840_xxAA.a(timeslot.c.obj)
                0x00029ecc                timeslot_state_lock
 .text.timeslot_end_is_pending
                0x00029f10       0x24 mesh/core/libmesh_core_nrf52840_xxAA.a(timeslot.c.obj)
                0x00029f10                timeslot_end_is_pending
 .text.timeslot_start_time_get
                0x00029f34        0xc mesh/core/libmesh_core_nrf52840_xxAA.a(timeslot.c.obj)
                0x00029f34                timeslot_start_time_get
 .text.timeslot_remaining_time_get
                0x00029f40       0x40 mesh/core/libmesh_core_nrf52840_xxAA.a(timeslot.c.obj)
                0x00029f40                timeslot_remaining_time_get
 .text.timeslot_is_in_cb
                0x00029f80        0xc mesh/core/libmesh_core_nrf52840_xxAA.a(timeslot.c.obj)
                0x00029f80                timeslot_is_in_cb
 .text.timeslot_trigger
                0x00029f8c       0x24 mesh/core/libmesh_core_nrf52840_xxAA.a(timeslot.c.obj)
                0x00029f8c                timeslot_trigger
 .text.QDEC_IRQHandler
                0x00029fb0       0xe0 mesh/core/libmesh_core_nrf52840_xxAA.a(bearer_event.c.obj)
                0x00029fb0                QDEC_IRQHandler
 .text.bearer_event_init
                0x0002a090       0x3c mesh/core/libmesh_core_nrf52840_xxAA.a(bearer_event.c.obj)
                0x0002a090                bearer_event_init
 .text.bearer_event_timer_post
                0x0002a0cc       0x50 mesh/core/libmesh_core_nrf52840_xxAA.a(bearer_event.c.obj)
                0x0002a0cc                bearer_event_timer_post
 .text.bearer_event_critical_section_begin
                0x0002a11c       0x44 mesh/core/libmesh_core_nrf52840_xxAA.a(bearer_event.c.obj)
                0x0002a11c                bearer_event_critical_section_begin
 .text.bearer_event_critical_section_end
                0x0002a160       0x44 mesh/core/libmesh_core_nrf52840_xxAA.a(bearer_event.c.obj)
                0x0002a160                bearer_event_critical_section_end
 .text.bearer_event_flag_add
                0x0002a1a4       0x50 mesh/core/libmesh_core_nrf52840_xxAA.a(bearer_event.c.obj)
                0x0002a1a4                bearer_event_flag_add
 .text.bearer_event_flag_set
                0x0002a1f4       0x58 mesh/core/libmesh_core_nrf52840_xxAA.a(bearer_event.c.obj)
                0x0002a1f4                bearer_event_flag_set
 .text.bearer_event_sequential_add
                0x0002a24c       0x48 mesh/core/libmesh_core_nrf52840_xxAA.a(bearer_event.c.obj)
                0x0002a24c                bearer_event_sequential_add
 .text.bearer_event_sequential_post
                0x0002a294       0x6c mesh/core/libmesh_core_nrf52840_xxAA.a(bearer_event.c.obj)
                0x0002a294                bearer_event_sequential_post
 .text.bearer_event_sequential_pending
                0x0002a300       0x20 mesh/core/libmesh_core_nrf52840_xxAA.a(bearer_event.c.obj)
                0x0002a300                bearer_event_sequential_pending
 .text.enc_aes_encrypt
                0x0002a320        0x4 mesh/core/libmesh_core_nrf52840_xxAA.a(enc.c.obj)
                0x0002a320                enc_aes_encrypt
 .text.enc_aes_cmac
                0x0002a324        0x4 mesh/core/libmesh_core_nrf52840_xxAA.a(enc.c.obj)
                0x0002a324                enc_aes_cmac
 .text.enc_aes_ccm_encrypt
                0x0002a328        0x4 mesh/core/libmesh_core_nrf52840_xxAA.a(enc.c.obj)
                0x0002a328                enc_aes_ccm_encrypt
 .text.enc_aes_ccm_decrypt
                0x0002a32c        0x4 mesh/core/libmesh_core_nrf52840_xxAA.a(enc.c.obj)
                0x0002a32c                enc_aes_ccm_decrypt
 .text.enc_nonce_generate
                0x0002a330       0xc4 mesh/core/libmesh_core_nrf52840_xxAA.a(enc.c.obj)
                0x0002a330                enc_nonce_generate
 .text.enc_s1   0x0002a3f4       0x40 mesh/core/libmesh_core_nrf52840_xxAA.a(enc.c.obj)
                0x0002a3f4                enc_s1
 .text.network_init
                0x0002a434       0x28 mesh/core/libmesh_core_nrf52840_xxAA.a(network.c.obj)
                0x0002a434                network_init
 .text.network_packet_alloc
                0x0002a45c      0x1a4 mesh/core/libmesh_core_nrf52840_xxAA.a(network.c.obj)
                0x0002a45c                network_packet_alloc
 .text.network_packet_send
                0x0002a600      0x1ec mesh/core/libmesh_core_nrf52840_xxAA.a(network.c.obj)
                0x0002a600                network_packet_send
 .text.network_packet_in
                0x0002a7ec      0x6c8 mesh/core/libmesh_core_nrf52840_xxAA.a(network.c.obj)
                0x0002a7ec                network_packet_in
 .text.msq_init
                0x0002aeb4       0x98 mesh/core/libmesh_core_nrf52840_xxAA.a(msqueue.c.obj)
                0x0002aeb4                msq_init
 .text.msq_get  0x0002af4c       0x68 mesh/core/libmesh_core_nrf52840_xxAA.a(msqueue.c.obj)
                0x0002af4c                msq_get
 .text.msq_move
                0x0002afb4       0x60 mesh/core/libmesh_core_nrf52840_xxAA.a(msqueue.c.obj)
                0x0002afb4                msq_move
 .text.msq_available
                0x0002b014       0x58 mesh/core/libmesh_core_nrf52840_xxAA.a(msqueue.c.obj)
                0x0002b014                msq_available
 .text.log_callback_rtt
                0x0002b06c       0x2c mesh/core/libmesh_core_nrf52840_xxAA.a(log.c.obj)
                0x0002b06c                log_callback_rtt
 .text.log_init
                0x0002b098       0x20 mesh/core/libmesh_core_nrf52840_xxAA.a(log.c.obj)
                0x0002b098                log_init
 .text.log_printf
                0x0002b0b8       0x20 mesh/core/libmesh_core_nrf52840_xxAA.a(log.c.obj)
                0x0002b0b8                log_printf
 .text.process_action_queue
                0x0002b0d8      0x834 mesh/core/libmesh_core_nrf52840_xxAA.a(flash_manager.c.obj)
 .text.flash_op_ended_callback
                0x0002b90c       0x24 mesh/core/libmesh_core_nrf52840_xxAA.a(flash_manager.c.obj)
 .text.flash_manager_init
                0x0002b930       0x68 mesh/core/libmesh_core_nrf52840_xxAA.a(flash_manager.c.obj)
                0x0002b930                flash_manager_init
 .text.flash_manager_entry_next_get
                0x0002b998      0x15c mesh/core/libmesh_core_nrf52840_xxAA.a(flash_manager.c.obj)
                0x0002b998                flash_manager_entry_next_get
 .text.flash_manager_entry_alloc
                0x0002baf4       0x9c mesh/core/libmesh_core_nrf52840_xxAA.a(flash_manager.c.obj)
                0x0002baf4                flash_manager_entry_alloc
 .text.flash_manager_entry_commit
                0x0002bb90       0x6c mesh/core/libmesh_core_nrf52840_xxAA.a(flash_manager.c.obj)
                0x0002bb90                flash_manager_entry_commit
 .text.flash_manager_entry_invalidate
                0x0002bbfc       0xb8 mesh/core/libmesh_core_nrf52840_xxAA.a(flash_manager.c.obj)
                0x0002bbfc                flash_manager_entry_invalidate
 .text.flash_manager_add
                0x0002bcb4      0x474 mesh/core/libmesh_core_nrf52840_xxAA.a(flash_manager.c.obj)
                0x0002bcb4                flash_manager_add
 .text.flash_manager_mem_listener_register
                0x0002c128       0x50 mesh/core/libmesh_core_nrf52840_xxAA.a(flash_manager.c.obj)
                0x0002c128                flash_manager_mem_listener_register
 .text.flash_manager_is_stable
                0x0002c178       0x20 mesh/core/libmesh_core_nrf52840_xxAA.a(flash_manager.c.obj)
                0x0002c178                flash_manager_is_stable
 .text.flash_manager_on_defrag_end
                0x0002c198       0x64 mesh/core/libmesh_core_nrf52840_xxAA.a(flash_manager.c.obj)
                0x0002c198                flash_manager_on_defrag_end
 .text.flash_manager_recovery_page_get
                0x0002c1fc        0x4 mesh/core/libmesh_core_nrf52840_xxAA.a(flash_manager.c.obj)
                0x0002c1fc                flash_manager_recovery_page_get
 .text.ccm_soft_crypt.constprop.0
                0x0002c200      0x298 mesh/core/libmesh_core_nrf52840_xxAA.a(ccm_soft.c.obj)
 .text.ccm_soft_authenticate
                0x0002c498      0x324 mesh/core/libmesh_core_nrf52840_xxAA.a(ccm_soft.c.obj)
 .text.ccm_soft_encrypt
                0x0002c7bc       0x78 mesh/core/libmesh_core_nrf52840_xxAA.a(ccm_soft.c.obj)
                0x0002c7bc                ccm_soft_encrypt
 .text.ccm_soft_decrypt
                0x0002c834      0x10c mesh/core/libmesh_core_nrf52840_xxAA.a(ccm_soft.c.obj)
                0x0002c834                ccm_soft_decrypt
 .text.beacon_init
                0x0002c940       0x48 mesh/core/libmesh_core_nrf52840_xxAA.a(beacon.c.obj)
                0x0002c940                beacon_init
 .text.beacon_tx
                0x0002c988       0x6c mesh/core/libmesh_core_nrf52840_xxAA.a(beacon.c.obj)
                0x0002c988                beacon_tx
 .text.beacon_packet_in
                0x0002c9f4      0x180 mesh/core/libmesh_core_nrf52840_xxAA.a(beacon.c.obj)
                0x0002c9f4                beacon_packet_in
 .text.entry_get
                0x0002cb74       0x8c mesh/core/libmesh_core_nrf52840_xxAA.a(flash_manager_internal.c.obj)
                0x0002cb74                entry_get
 .text.adv_tx_complete_callback
                0x0002cc00       0x58 mesh/core/libmesh_core_nrf52840_xxAA.a(core_tx.c.obj)
 .text.core_tx_init
                0x0002cc58       0x4c mesh/core/libmesh_core_nrf52840_xxAA.a(core_tx.c.obj)
                0x0002cc58                core_tx_init
 .text.core_tx_complete_cb_set
                0x0002cca4        0xc mesh/core/libmesh_core_nrf52840_xxAA.a(core_tx.c.obj)
                0x0002cca4                core_tx_complete_cb_set
 .text.core_tx_packet_alloc
                0x0002ccb0       0xa4 mesh/core/libmesh_core_nrf52840_xxAA.a(core_tx.c.obj)
                0x0002ccb0                core_tx_packet_alloc
 .text.core_tx_packet_send
                0x0002cd54       0x74 mesh/core/libmesh_core_nrf52840_xxAA.a(core_tx.c.obj)
                0x0002cd54                core_tx_packet_send
 .text.core_tx_packet_discard
                0x0002cdc8       0x74 mesh/core/libmesh_core_nrf52840_xxAA.a(core_tx.c.obj)
                0x0002cdc8                core_tx_packet_discard
 .text.network_beacon_tx_cb
                0x0002ce3c      0x10c mesh/core/libmesh_core_nrf52840_xxAA.a(net_beacon.c.obj)
 .text.net_beacon_init
                0x0002cf48       0x64 mesh/core/libmesh_core_nrf52840_xxAA.a(net_beacon.c.obj)
                0x0002cf48                net_beacon_init
 .text.net_beacon_packet_in
                0x0002cfac       0xe0 mesh/core/libmesh_core_nrf52840_xxAA.a(net_beacon.c.obj)
                0x0002cfac                net_beacon_packet_in
 .text.tx_complete_event_callback
                0x0002d08c       0x40 mesh/core/libmesh_core_nrf52840_xxAA.a(advertiser.c.obj)
 .text.broadcast_complete_cb
                0x0002d0cc       0x70 mesh/core/libmesh_core_nrf52840_xxAA.a(advertiser.c.obj)
 .text.timeout_event
                0x0002d13c      0x13c mesh/core/libmesh_core_nrf52840_xxAA.a(advertiser.c.obj)
 .text.advertiser_init
                0x0002d278        0xc mesh/core/libmesh_core_nrf52840_xxAA.a(advertiser.c.obj)
                0x0002d278                advertiser_init
 .text.advertiser_instance_init
                0x0002d284      0x11c mesh/core/libmesh_core_nrf52840_xxAA.a(advertiser.c.obj)
                0x0002d284                advertiser_instance_init
 .text.advertiser_enable
                0x0002d3a0       0x44 mesh/core/libmesh_core_nrf52840_xxAA.a(advertiser.c.obj)
                0x0002d3a0                advertiser_enable
 .text.advertiser_packet_alloc
                0x0002d3e4       0x9c mesh/core/libmesh_core_nrf52840_xxAA.a(advertiser.c.obj)
                0x0002d3e4                advertiser_packet_alloc
 .text.advertiser_packet_send
                0x0002d480       0x98 mesh/core/libmesh_core_nrf52840_xxAA.a(advertiser.c.obj)
                0x0002d480                advertiser_packet_send
 .text.advertiser_packet_discard
                0x0002d518       0x34 mesh/core/libmesh_core_nrf52840_xxAA.a(advertiser.c.obj)
                0x0002d518                advertiser_packet_discard
 .text.advertiser_interval_set
                0x0002d54c       0x80 mesh/core/libmesh_core_nrf52840_xxAA.a(advertiser.c.obj)
                0x0002d54c                advertiser_interval_set
 .text.advertiser_flush
                0x0002d5cc       0x20 mesh/core/libmesh_core_nrf52840_xxAA.a(advertiser.c.obj)
                0x0002d5cc                advertiser_flush
 .text.advertiser_address_default_get
                0x0002d5ec       0x68 mesh/core/libmesh_core_nrf52840_xxAA.a(advertiser.c.obj)
                0x0002d5ec                advertiser_address_default_get
 .text.action_switch.part.2
                0x0002d654       0xc0 mesh/core/libmesh_core_nrf52840_xxAA.a(bearer_handler.c.obj)
 .text.bearer_handler_init
                0x0002d714       0x2c mesh/core/libmesh_core_nrf52840_xxAA.a(bearer_handler.c.obj)
                0x0002d714                bearer_handler_init
 .text.bearer_handler_start
                0x0002d740       0x1c mesh/core/libmesh_core_nrf52840_xxAA.a(bearer_handler.c.obj)
                0x0002d740                bearer_handler_start
 .text.bearer_handler_action_enqueue
                0x0002d75c       0xa0 mesh/core/libmesh_core_nrf52840_xxAA.a(bearer_handler.c.obj)
                0x0002d75c                bearer_handler_action_enqueue
 .text.bearer_handler_action_end
                0x0002d7fc       0x84 mesh/core/libmesh_core_nrf52840_xxAA.a(bearer_handler.c.obj)
                0x0002d7fc                bearer_handler_action_end
 .text.bearer_handler_radio_irq_handler
                0x0002d880       0x70 mesh/core/libmesh_core_nrf52840_xxAA.a(bearer_handler.c.obj)
                0x0002d880                bearer_handler_radio_irq_handler
 .text.bearer_handler_timer_irq_handler
                0x0002d8f0       0x3c mesh/core/libmesh_core_nrf52840_xxAA.a(bearer_handler.c.obj)
                0x0002d8f0                bearer_handler_timer_irq_handler
 .text.bearer_handler_on_ts_begin
                0x0002d92c       0x4c mesh/core/libmesh_core_nrf52840_xxAA.a(bearer_handler.c.obj)
                0x0002d92c                bearer_handler_on_ts_begin
 .text.bearer_handler_on_ts_end
                0x0002d978       0x48 mesh/core/libmesh_core_nrf52840_xxAA.a(bearer_handler.c.obj)
                0x0002d978                bearer_handler_on_ts_end
 .text.radio_irq_handler
                0x0002d9c0       0xb4 mesh/core/libmesh_core_nrf52840_xxAA.a(broadcast.c.obj)
 .text.broadcast_start
                0x0002da74       0x8c mesh/core/libmesh_core_nrf52840_xxAA.a(broadcast.c.obj)
 .text.broadcast_send
                0x0002db00       0x8c mesh/core/libmesh_core_nrf52840_xxAA.a(broadcast.c.obj)
                0x0002db00                broadcast_send
 .text.radio_config_reset
                0x0002db8c       0x38 mesh/core/libmesh_core_nrf52840_xxAA.a(radio_config.c.obj)
                0x0002db8c                radio_config_reset
 .text.radio_config_channel_set
                0x0002dbc4       0x34 mesh/core/libmesh_core_nrf52840_xxAA.a(radio_config.c.obj)
                0x0002dbc4                radio_config_channel_set
 .text.radio_config_config
                0x0002dbf8       0x78 mesh/core/libmesh_core_nrf52840_xxAA.a(radio_config.c.obj)
                0x0002dbf8                radio_config_config
 .text.radio_config_access_addr_set
                0x0002dc70       0x68 mesh/core/libmesh_core_nrf52840_xxAA.a(radio_config.c.obj)
                0x0002dc70                radio_config_access_addr_set
 .text.scan_window_end
                0x0002dcd8       0x28 mesh/core/libmesh_core_nrf52840_xxAA.a(scanner.c.obj)
 .text.scan_window_start
                0x0002dd00       0x38 mesh/core/libmesh_core_nrf52840_xxAA.a(scanner.c.obj)
 .text.radio_start
                0x0002dd38      0x19c mesh/core/libmesh_core_nrf52840_xxAA.a(scanner.c.obj)
 .text.scanner_radio_start
                0x0002ded4      0x14c mesh/core/libmesh_core_nrf52840_xxAA.a(scanner.c.obj)
                0x0002ded4                scanner_radio_start
 .text.scanner_radio_stop
                0x0002e020       0x34 mesh/core/libmesh_core_nrf52840_xxAA.a(scanner.c.obj)
                0x0002e020                scanner_radio_stop
 .text.scanner_radio_irq_handler
                0x0002e054      0x200 mesh/core/libmesh_core_nrf52840_xxAA.a(scanner.c.obj)
                0x0002e054                scanner_radio_irq_handler
 .text.scanner_enable
                0x0002e254       0x5c mesh/core/libmesh_core_nrf52840_xxAA.a(scanner.c.obj)
                0x0002e254                scanner_enable
 .text.scanner_rx
                0x0002e2b0       0x84 mesh/core/libmesh_core_nrf52840_xxAA.a(scanner.c.obj)
                0x0002e2b0                scanner_rx
 .text.scanner_packet_release
                0x0002e334       0x4c mesh/core/libmesh_core_nrf52840_xxAA.a(scanner.c.obj)
                0x0002e334                scanner_packet_release
 .text.scanner_config_reset
                0x0002e380       0xa8 mesh/core/libmesh_core_nrf52840_xxAA.a(scanner.c.obj)
                0x0002e380                scanner_config_reset
 .text.scanner_init
                0x0002e428       0x48 mesh/core/libmesh_core_nrf52840_xxAA.a(scanner.c.obj)
                0x0002e428                scanner_init
 .text.internal_event_push
                0x0002e470       0x28 mesh/core/libmesh_core_nrf52840_xxAA.a(internal_event.c.obj)
                0x0002e470                internal_event_push
 .text.sd_ecb_block_encrypt
                0x0002e498        0x4 mesh/core/libmesh_core_nrf52840_xxAA.a(aes.c.obj)
 .text.aes_encrypt
                0x0002e49c       0x34 mesh/core/libmesh_core_nrf52840_xxAA.a(aes.c.obj)
                0x0002e49c                aes_encrypt
 .text.msg_cache_init
                0x0002e4d0       0x24 mesh/core/libmesh_core_nrf52840_xxAA.a(msg_cache.c.obj)
                0x0002e4d0                msg_cache_init
 .text.msg_cache_entry_exists
                0x0002e4f4       0x40 mesh/core/libmesh_core_nrf52840_xxAA.a(msg_cache.c.obj)
                0x0002e4f4                msg_cache_entry_exists
 .text.msg_cache_entry_add
                0x0002e534       0x30 mesh/core/libmesh_core_nrf52840_xxAA.a(msg_cache.c.obj)
                0x0002e534                msg_cache_entry_add
 .text.tx_complete
                0x0002e564       0x34 mesh/core/libmesh_core_nrf52840_xxAA.a(transport.c.obj)
 .text.upper_trs_packet_encrypt
                0x0002e598       0xe0 mesh/core/libmesh_core_nrf52840_xxAA.a(transport.c.obj)
 .text.sar_ctx_alloc
                0x0002e678       0xd0 mesh/core/libmesh_core_nrf52840_xxAA.a(transport.c.obj)
 .text.trs_packet_header_build
                0x0002e748       0xac mesh/core/libmesh_core_nrf52840_xxAA.a(transport.c.obj)
 .text.sar_ack_send
                0x0002e7f4      0x144 mesh/core/libmesh_core_nrf52840_xxAA.a(transport.c.obj)
 .text.test_transport_decrypt
                0x0002e938       0x98 mesh/core/libmesh_core_nrf52840_xxAA.a(transport.c.obj)
 .text.upper_transport_access_packet_in
                0x0002e9d0      0x34c mesh/core/libmesh_core_nrf52840_xxAA.a(transport.c.obj)
 .text.trs_sar_packet_out
                0x0002ed1c      0x19c mesh/core/libmesh_core_nrf52840_xxAA.a(transport.c.obj)
 .text.sar_ctx_cancel
                0x0002eeb8      0x1d0 mesh/core/libmesh_core_nrf52840_xxAA.a(transport.c.obj)
 .text.abort_timeout
                0x0002f088        0x8 mesh/core/libmesh_core_nrf52840_xxAA.a(transport.c.obj)
 .text.retry_timeout
                0x0002f090       0xb0 mesh/core/libmesh_core_nrf52840_xxAA.a(transport.c.obj)
 .text.transport_sar_process
                0x0002f140      0x2a8 mesh/core/libmesh_core_nrf52840_xxAA.a(transport.c.obj)
 .text.upper_transport_packet_in
                0x0002f3e8      0x2e0 mesh/core/libmesh_core_nrf52840_xxAA.a(transport.c.obj)
 .text.ack_timeout
                0x0002f6c8      0x15c mesh/core/libmesh_core_nrf52840_xxAA.a(transport.c.obj)
 .text.transport_init
                0x0002f824       0x98 mesh/core/libmesh_core_nrf52840_xxAA.a(transport.c.obj)
                0x0002f824                transport_init
 .text.transport_packet_in
                0x0002f8bc      0x824 mesh/core/libmesh_core_nrf52840_xxAA.a(transport.c.obj)
                0x0002f8bc                transport_packet_in
 .text.packet_buffer_init
                0x000300e0       0xec mesh/core/libmesh_core_nrf52840_xxAA.a(packet_buffer.c.obj)
                0x000300e0                packet_buffer_init
 .text.packet_buffer_flush
                0x000301cc       0xd4 mesh/core/libmesh_core_nrf52840_xxAA.a(packet_buffer.c.obj)
                0x000301cc                packet_buffer_flush
 .text.packet_buffer_reserve
                0x000302a0      0x150 mesh/core/libmesh_core_nrf52840_xxAA.a(packet_buffer.c.obj)
                0x000302a0                packet_buffer_reserve
 .text.packet_buffer_commit
                0x000303f0      0x144 mesh/core/libmesh_core_nrf52840_xxAA.a(packet_buffer.c.obj)
                0x000303f0                packet_buffer_commit
 .text.packet_buffer_pop
                0x00030534       0xc8 mesh/core/libmesh_core_nrf52840_xxAA.a(packet_buffer.c.obj)
                0x00030534                packet_buffer_pop
 .text.packet_buffer_can_pop
                0x000305fc       0x84 mesh/core/libmesh_core_nrf52840_xxAA.a(packet_buffer.c.obj)
                0x000305fc                packet_buffer_can_pop
 .text.packet_buffer_packets_ready_to_pop
                0x00030680       0xb4 mesh/core/libmesh_core_nrf52840_xxAA.a(packet_buffer.c.obj)
                0x00030680                packet_buffer_packets_ready_to_pop
 .text.packet_buffer_free
                0x00030734       0xf0 mesh/core/libmesh_core_nrf52840_xxAA.a(packet_buffer.c.obj)
                0x00030734                packet_buffer_free
 .text.erase_source
                0x00030824       0x34 mesh/core/libmesh_core_nrf52840_xxAA.a(flash_manager_defrag.c.obj)
 .text.erase_recovery_area
                0x00030858       0x34 mesh/core/libmesh_core_nrf52840_xxAA.a(flash_manager_defrag.c.obj)
 .text.write_back
                0x0003088c       0x44 mesh/core/libmesh_core_nrf52840_xxAA.a(flash_manager_defrag.c.obj)
 .text.write_defrag_start_pointer
                0x000308d0       0x38 mesh/core/libmesh_core_nrf52840_xxAA.a(flash_manager_defrag.c.obj)
 .text.copy_metadata
                0x00030908       0x58 mesh/core/libmesh_core_nrf52840_xxAA.a(flash_manager_defrag.c.obj)
 .text.seal_storage_page
                0x00030960       0x70 mesh/core/libmesh_core_nrf52840_xxAA.a(flash_manager_defrag.c.obj)
 .text.post_process
                0x000309d0       0x64 mesh/core/libmesh_core_nrf52840_xxAA.a(flash_manager_defrag.c.obj)
 .text.check_for_invalid_entries
                0x00030a34       0x40 mesh/core/libmesh_core_nrf52840_xxAA.a(flash_manager_defrag.c.obj)
 .text.execute_procedure_step
                0x00030a74       0xc0 mesh/core/libmesh_core_nrf52840_xxAA.a(flash_manager_defrag.c.obj)
 .text.on_flash_op_end
                0x00030b34       0x4c mesh/core/libmesh_core_nrf52840_xxAA.a(flash_manager_defrag.c.obj)
 .text.invalidate_duplicate_entries
                0x00030b80      0x148 mesh/core/libmesh_core_nrf52840_xxAA.a(flash_manager_defrag.c.obj)
 .text.backup_entries
                0x00030cc8      0x1fc mesh/core/libmesh_core_nrf52840_xxAA.a(flash_manager_defrag.c.obj)
 .text.flash_manager_defrag_init
                0x00030ec4       0x68 mesh/core/libmesh_core_nrf52840_xxAA.a(flash_manager_defrag.c.obj)
                0x00030ec4                flash_manager_defrag_init
 .text.flash_manager_defrag_is_running
                0x00030f2c       0x10 mesh/core/libmesh_core_nrf52840_xxAA.a(flash_manager_defrag.c.obj)
                0x00030f2c                flash_manager_defrag_is_running
 .text.flash_manager_defrag
                0x00030f3c       0xe4 mesh/core/libmesh_core_nrf52840_xxAA.a(flash_manager_defrag.c.obj)
                0x00030f3c                flash_manager_defrag
 .text.flash_manager_defrag_recovery_page_get
                0x00031020        0xc mesh/core/libmesh_core_nrf52840_xxAA.a(flash_manager_defrag.c.obj)
                0x00031020                flash_manager_defrag_recovery_page_get
 .text.fifo_init
                0x0003102c       0x5c mesh/core/libmesh_core_nrf52840_xxAA.a(fifo.c.obj)
                0x0003102c                fifo_init
 .text.fifo_push
                0x00031088       0x54 mesh/core/libmesh_core_nrf52840_xxAA.a(fifo.c.obj)
                0x00031088                fifo_push
 .text.fifo_pop
                0x000310dc       0x58 mesh/core/libmesh_core_nrf52840_xxAA.a(fifo.c.obj)
                0x000310dc                fifo_pop
 .text.nrf_flash_erase
                0x00031134       0x5c mesh/core/libmesh_core_nrf52840_xxAA.a(nrf_flash.c.obj)
                0x00031134                nrf_flash_erase
 .text.nrf_flash_write
                0x00031190       0x6c mesh/core/libmesh_core_nrf52840_xxAA.a(nrf_flash.c.obj)
                0x00031190                nrf_flash_write
 .text.packet_mgr_init
                0x000311fc       0x4c mesh/core/libmesh_core_nrf52840_xxAA.a(packet_mgr.c.obj)
                0x000311fc                packet_mgr_init
 .text.queue_init
                0x00031248       0x28 mesh/core/libmesh_core_nrf52840_xxAA.a(queue.c.obj)
                0x00031248                queue_init
 .text.queue_push
                0x00031270       0x50 mesh/core/libmesh_core_nrf52840_xxAA.a(queue.c.obj)
                0x00031270                queue_push
 .text.queue_pop
                0x000312c0       0x40 mesh/core/libmesh_core_nrf52840_xxAA.a(queue.c.obj)
                0x000312c0                queue_pop
 .text.queue_peek
                0x00031300       0x20 mesh/core/libmesh_core_nrf52840_xxAA.a(queue.c.obj)
                0x00031300                queue_peek
 .text.aes_cmac_subkey_generate
                0x00031320      0x2b0 mesh/core/libmesh_core_nrf52840_xxAA.a(aes_cmac.c.obj)
                0x00031320                aes_cmac_subkey_generate
 .text.aes_cmac
                0x000315d0      0x49c mesh/core/libmesh_core_nrf52840_xxAA.a(aes_cmac.c.obj)
                0x000315d0                aes_cmac
 .text.replay_cache_init
                0x00031a6c       0x28 mesh/core/libmesh_core_nrf52840_xxAA.a(replay_cache.c.obj)
                0x00031a6c                replay_cache_init
 .text.replay_cache_add
                0x00031a94       0x68 mesh/core/libmesh_core_nrf52840_xxAA.a(replay_cache.c.obj)
                0x00031a94                replay_cache_add
 .text.replay_cache_has_room
                0x00031afc       0x48 mesh/core/libmesh_core_nrf52840_xxAA.a(replay_cache.c.obj)
                0x00031afc                replay_cache_has_room
 .text.replay_cache_has_elem
                0x00031b44       0x40 mesh/core/libmesh_core_nrf52840_xxAA.a(replay_cache.c.obj)
                0x00031b44                replay_cache_has_elem
 .text.fen_filters_apply
                0x00031b84       0x38 mesh/core/libmesh_core_nrf52840_xxAA.a(filter_engine.c.obj)
                0x00031b84                fen_filters_apply
 .text.SEGGER_RTT_Write
                0x00031bbc      0x1e4 external/rtt/librtt_nrf52840_xxAA.a(SEGGER_RTT.c.obj)
                0x00031bbc                SEGGER_RTT_Write
 .text._PrintUnsigned
                0x00031da0      0x194 external/rtt/librtt_nrf52840_xxAA.a(SEGGER_RTT_printf.c.obj)
 .text.SEGGER_RTT_vprintf
                0x00031f34      0x464 external/rtt/librtt_nrf52840_xxAA.a(SEGGER_RTT_printf.c.obj)
                0x00031f34                SEGGER_RTT_vprintf
 .text.SEGGER_RTT_printf
                0x00032398       0x20 external/rtt/librtt_nrf52840_xxAA.a(SEGGER_RTT_printf.c.obj)
                0x00032398                SEGGER_RTT_printf
 .text.exit     0x000323b8       0x28 c:/a/gcc_arm/6/bin/../lib/gcc/arm-none-eabi/6.3.1/../../../../arm-none-eabi/lib/thumb/v7e-m/fpv4-sp/hard\libc_nano.a(lib_a-exit.o)
                0x000323b8                exit
 .text.__libc_init_array
                0x000323e0       0x48 c:/a/gcc_arm/6/bin/../lib/gcc/arm-none-eabi/6.3.1/../../../../arm-none-eabi/lib/thumb/v7e-m/fpv4-sp/hard\libc_nano.a(lib_a-init.o)
                0x000323e0                __libc_init_array
 .text.malloc   0x00032428       0x10 c:/a/gcc_arm/6/bin/../lib/gcc/arm-none-eabi/6.3.1/../../../../arm-none-eabi/lib/thumb/v7e-m/fpv4-sp/hard\libc_nano.a(lib_a-malloc.o)
                0x00032428                malloc
 .text.free     0x00032438       0x10 c:/a/gcc_arm/6/bin/../lib/gcc/arm-none-eabi/6.3.1/../../../../arm-none-eabi/lib/thumb/v7e-m/fpv4-sp/hard\libc_nano.a(lib_a-malloc.o)
                0x00032438                free
 .text.memcmp   0x00032448       0x1e c:/a/gcc_arm/6/bin/../lib/gcc/arm-none-eabi/6.3.1/../../../../arm-none-eabi/lib/thumb/v7e-m/fpv4-sp/hard\libc_nano.a(lib_a-memcmp.o)
                0x00032448                memcmp
 .text.memcpy   0x00032466       0x16 c:/a/gcc_arm/6/bin/../lib/gcc/arm-none-eabi/6.3.1/../../../../arm-none-eabi/lib/thumb/v7e-m/fpv4-sp/hard\libc_nano.a(lib_a-memcpy-stub.o)
                0x00032466                memcpy
 .text.memset   0x0003247c       0x10 c:/a/gcc_arm/6/bin/../lib/gcc/arm-none-eabi/6.3.1/../../../../arm-none-eabi/lib/thumb/v7e-m/fpv4-sp/hard\libc_nano.a(lib_a-memset.o)
                0x0003247c                memset
 .text._free_r  0x0003248c       0x9c c:/a/gcc_arm/6/bin/../lib/gcc/arm-none-eabi/6.3.1/../../../../arm-none-eabi/lib/thumb/v7e-m/fpv4-sp/hard\libc_nano.a(lib_a-nano-freer.o)
                0x0003248c                _free_r
 .text._malloc_r
                0x00032528       0xbc c:/a/gcc_arm/6/bin/../lib/gcc/arm-none-eabi/6.3.1/../../../../arm-none-eabi/lib/thumb/v7e-m/fpv4-sp/hard\libc_nano.a(lib_a-nano-mallocr.o)
                0x00032528                _malloc_r
 .text._sbrk_r  0x000325e4       0x20 c:/a/gcc_arm/6/bin/../lib/gcc/arm-none-eabi/6.3.1/../../../../arm-none-eabi/lib/thumb/v7e-m/fpv4-sp/hard\libc_nano.a(lib_a-sbrkr.o)
                0x000325e4                _sbrk_r
 .text.strcpy   0x00032604       0x10 c:/a/gcc_arm/6/bin/../lib/gcc/arm-none-eabi/6.3.1/../../../../arm-none-eabi/lib/thumb/v7e-m/fpv4-sp/hard\libc_nano.a(lib_a-strcpy.o)
                0x00032604                strcpy
 .text.strrchr  0x00032614       0x26 c:/a/gcc_arm/6/bin/../lib/gcc/arm-none-eabi/6.3.1/../../../../arm-none-eabi/lib/thumb/v7e-m/fpv4-sp/hard\libc_nano.a(lib_a-strrchr.o)
                0x00032614                strrchr
 .text.__malloc_lock
                0x0003263a        0x2 c:/a/gcc_arm/6/bin/../lib/gcc/arm-none-eabi/6.3.1/../../../../arm-none-eabi/lib/thumb/v7e-m/fpv4-sp/hard\libc_nano.a(lib_a-mlock.o)
                0x0003263a                __malloc_lock
 .text.__malloc_unlock
                0x0003263c        0x2 c:/a/gcc_arm/6/bin/../lib/gcc/arm-none-eabi/6.3.1/../../../../arm-none-eabi/lib/thumb/v7e-m/fpv4-sp/hard\libc_nano.a(lib_a-mlock.o)
                0x0003263c                __malloc_unlock
 .text.strchr   0x0003263e       0x1c c:/a/gcc_arm/6/bin/../lib/gcc/arm-none-eabi/6.3.1/../../../../arm-none-eabi/lib/thumb/v7e-m/fpv4-sp/hard\libc_nano.a(lib_a-strchr.o)
                0x0003263e                strchr
 *fill*         0x0003265a        0x2 
 .text._sbrk    0x0003265c       0x1c c:/a/gcc_arm/6/bin/../lib/gcc/arm-none-eabi/6.3.1/../../../../arm-none-eabi/lib/thumb/v7e-m/fpv4-sp/hard\libnosys.a(sbrk.o)
                0x0003265c                _sbrk
 .text._exit    0x00032678        0x4 c:/a/gcc_arm/6/bin/../lib/gcc/arm-none-eabi/6.3.1/../../../../arm-none-eabi/lib/thumb/v7e-m/fpv4-sp/hard\libnosys.a(_exit.o)
                0x00032678                _exit
 *(.init)
 .init          0x0003267c        0x4 c:/a/gcc_arm/6/bin/../lib/gcc/arm-none-eabi/6.3.1/thumb/v7e-m/fpv4-sp/hard/crti.o
                0x0003267c                _init
 .init          0x00032680        0x8 c:/a/gcc_arm/6/bin/../lib/gcc/arm-none-eabi/6.3.1/thumb/v7e-m/fpv4-sp/hard/crtn.o
 *(.fini)
 .fini          0x00032688        0x4 c:/a/gcc_arm/6/bin/../lib/gcc/arm-none-eabi/6.3.1/thumb/v7e-m/fpv4-sp/hard/crti.o
                0x00032688                _fini
 .fini          0x0003268c        0x8 c:/a/gcc_arm/6/bin/../lib/gcc/arm-none-eabi/6.3.1/thumb/v7e-m/fpv4-sp/hard/crtn.o
 *crtbegin.o(.ctors)
 *crtbegin?.o(.ctors)
 *(EXCLUDE_FILE(*crtend.o *crtend?.o) .ctors)
 *(SORT(.ctors.*))
 *(.ctors)
 *crtbegin.o(.dtors)
 *crtbegin?.o(.dtors)
 *(EXCLUDE_FILE(*crtend.o *crtend?.o) .dtors)
 *(SORT(.dtors.*))
 *(.dtors)
 *(.rodata*)
 .rodata.main.str1.4
                0x00032694       0x82 examples/dfu/CMakeFiles/dfu_no_serial_nrf52840_xxAA_s140_5.0.0-3.alpha.dir/src/main.c.obj
 *fill*         0x00032716        0x2 
 .rodata.mesh_evt_handler.str1.4
                0x00032718       0x1b examples/dfu/CMakeFiles/dfu_no_serial_nrf52840_xxAA_s140_5.0.0-3.alpha.dir/src/main.c.obj
 *fill*         0x00032733        0x1 
 .rodata.HardFault_Handler.str1.4
                0x00032734        0xe examples/dfu/CMakeFiles/dfu_no_serial_nrf52840_xxAA_s140_5.0.0-3.alpha.dir/__/nrf_mesh_sdk.c.obj
 *fill*         0x00032742        0x2 
 .rodata.app_error_handler.str1.4
                0x00032744       0x1d examples/dfu/CMakeFiles/dfu_no_serial_nrf52840_xxAA_s140_5.0.0-3.alpha.dir/__/nrf_mesh_sdk.c.obj
 *fill*         0x00032761        0x3 
 .rodata.mesh_assert_handler.str1.4
                0x00032764       0x35 examples/dfu/CMakeFiles/dfu_no_serial_nrf52840_xxAA_s140_5.0.0-3.alpha.dir/__/nrf_mesh_sdk.c.obj
 *fill*         0x00032799        0x3 
 .rodata.mesh_core_setup.str1.4
                0x0003279c       0x4d examples/dfu/CMakeFiles/dfu_no_serial_nrf52840_xxAA_s140_5.0.0-3.alpha.dir/__/nrf_mesh_sdk.c.obj
 *fill*         0x000327e9        0x3 
 .rodata.mesh_softdevice_enable.str1.4
                0x000327ec       0x65 examples/dfu/CMakeFiles/dfu_no_serial_nrf52840_xxAA_s140_5.0.0-3.alpha.dir/__/nrf_mesh_sdk.c.obj
 *fill*         0x00032851        0x3 
 .rodata.softdevice_assert_handler.str1.4
                0x00032854       0x1d examples/dfu/CMakeFiles/dfu_no_serial_nrf52840_xxAA_s140_5.0.0-3.alpha.dir/__/nrf_mesh_sdk.c.obj
 *fill*         0x00032871        0x3 
 .rodata.prov_cb_pkt_in.str1.4
                0x00032874       0x34 examples/dfu/CMakeFiles/dfu_no_serial_nrf52840_xxAA_s140_5.0.0-3.alpha.dir/__/__/mesh/prov/src/provisioning.c.obj
 .rodata.crctable.10852
                0x000328a8      0x100 examples/dfu/CMakeFiles/dfu_no_serial_nrf52840_xxAA_s140_5.0.0-3.alpha.dir/__/__/mesh/prov/src/prov_bearer_adv.c.obj
 .rodata.prov_bearer_adv_listen.str1.4
                0x000329a8       0x50 examples/dfu/CMakeFiles/dfu_no_serial_nrf52840_xxAA_s140_5.0.0-3.alpha.dir/__/__/mesh/prov/src/prov_bearer_adv.c.obj
 .rodata.prov_bearer_adv_packet_in.str1.4
                0x000329f8      0x283 examples/dfu/CMakeFiles/dfu_no_serial_nrf52840_xxAA_s140_5.0.0-3.alpha.dir/__/__/mesh/prov/src/prov_bearer_adv.c.obj
 *fill*         0x00032c7b        0x1 
 .rodata.abort_timeout.str1.4
                0x00032c7c       0x19 examples/dfu/CMakeFiles/dfu_no_serial_nrf52840_xxAA_s140_5.0.0-3.alpha.dir/__/__/mesh/dfu/src/nrf_mesh_dfu.c.obj
 *fill*         0x00032c95        0x3 
 .rodata.dfu_evt_handler.str1.4
                0x00032c98      0x174 examples/dfu/CMakeFiles/dfu_no_serial_nrf52840_xxAA_s140_5.0.0-3.alpha.dir/__/__/mesh/dfu/src/nrf_mesh_dfu.c.obj
 .rodata.flash_op_complete.str1.4
                0x00032e0c       0x3d examples/dfu/CMakeFiles/dfu_no_serial_nrf52840_xxAA_s140_5.0.0-3.alpha.dir/__/__/mesh/dfu/src/nrf_mesh_dfu.c.obj
 *fill*         0x00032e49        0x3 
 .rodata.m_adv_channels
                0x00032e4c        0x3 examples/dfu/CMakeFiles/dfu_no_serial_nrf52840_xxAA_s140_5.0.0-3.alpha.dir/__/__/mesh/dfu/src/nrf_mesh_dfu.c.obj
 *fill*         0x00032e4f        0x1 
 .rodata.nrf_mesh_dfu_cmd_send.part.3.str1.4
                0x00032e50       0x38 examples/dfu/CMakeFiles/dfu_no_serial_nrf52840_xxAA_s140_5.0.0-3.alpha.dir/__/__/mesh/dfu/src/nrf_mesh_dfu.c.obj
 .rodata.timer_timeout.str1.4
                0x00032e88       0x13 examples/dfu/CMakeFiles/dfu_no_serial_nrf52840_xxAA_s140_5.0.0-3.alpha.dir/__/__/mesh/dfu/src/nrf_mesh_dfu.c.obj
 *fill*         0x00032e9b        0x1 
 .rodata.m_all_operations
                0x00032e9c       0x10 mesh/core/libmesh_core_nrf52840_xxAA.a(mesh_flash.c.obj)
 .rodata.types_lookup.9118
                0x00032eac        0x4 mesh/core/libmesh_core_nrf52840_xxAA.a(nrf_mesh_utils.c.obj)
 .rodata.nrf_mesh_process.str1.4
                0x00032eb0       0x73 mesh/core/libmesh_core_nrf52840_xxAA.a(nrf_mesh.c.obj)
 *fill*         0x00032f23        0x1 
 .rodata.CSWTCH.8
                0x00032f24       0x20 mesh/core/libmesh_core_nrf52840_xxAA.a(hal.c.obj)
 .rodata.network_packet_in.str1.4
                0x00032f44       0x49 mesh/core/libmesh_core_nrf52840_xxAA.a(network.c.obj)
 *fill*         0x00032f8d        0x3 
 .rodata.network_packet_send.str1.4
                0x00032f90       0x4a mesh/core/libmesh_core_nrf52840_xxAA.a(network.c.obj)
 *fill*         0x00032fda        0x2 
 .rodata.log_callback_rtt.str1.4
                0x00032fdc       0x15 mesh/core/libmesh_core_nrf52840_xxAA.a(log.c.obj)
 *fill*         0x00032ff1        0x3 
 .rodata.str1.4
                0x00032ff4       0x11 mesh/core/libmesh_core_nrf52840_xxAA.a(log.c.obj)
 *fill*         0x00033005        0x3 
 .rodata.INVALID_HEADER
                0x00033008        0x4 mesh/core/libmesh_core_nrf52840_xxAA.a(flash_manager.c.obj)
                0x00033008                INVALID_HEADER
 .rodata.PADDING_HEADER
                0x0003300c        0x4 mesh/core/libmesh_core_nrf52840_xxAA.a(flash_manager.c.obj)
                0x0003300c                PADDING_HEADER
 .rodata.SEAL_HEADER
                0x00033010        0x4 mesh/core/libmesh_core_nrf52840_xxAA.a(flash_manager.c.obj)
                0x00033010                SEAL_HEADER
 .rodata.process_action_queue.str1.4
                0x00033014       0x21 mesh/core/libmesh_core_nrf52840_xxAA.a(flash_manager.c.obj)
                                 0x52 (size before relaxing)
 *fill*         0x00033035        0x3 
 .rodata.beacon_packet_in.str1.4
                0x00033038       0x55 mesh/core/libmesh_core_nrf52840_xxAA.a(beacon.c.obj)
                                 0x60 (size before relaxing)
 *fill*         0x0003308d        0x3 
 .rodata.net_beacon_init.str1.4
                0x00033090        0x5 mesh/core/libmesh_core_nrf52840_xxAA.a(net_beacon.c.obj)
 *fill*         0x00033095        0x3 
 .rodata.radio_mode_to_us_per_byte.9494
                0x00033098        0x6 mesh/core/libmesh_core_nrf52840_xxAA.a(broadcast.c.obj)
 *fill*         0x0003309e        0x2 
 .rodata.channel_rf_offsets.8756
                0x000330a0       0x28 mesh/core/libmesh_core_nrf52840_xxAA.a(radio_config.c.obj)
 .rodata.sar_ack_send.str1.4
                0x000330c8       0x1d mesh/core/libmesh_core_nrf52840_xxAA.a(transport.c.obj)
                                 0x4e (size before relaxing)
 *fill*         0x000330e5        0x3 
 .rodata.sar_ctx_cancel.str1.4
                0x000330e8       0x18 mesh/core/libmesh_core_nrf52840_xxAA.a(transport.c.obj)
 .rodata.test_transport_decrypt.str1.4
                0x00033100       0x13 mesh/core/libmesh_core_nrf52840_xxAA.a(transport.c.obj)
 *fill*         0x00033113        0x1 
 .rodata.transport_packet_in.str1.4
                0x00033114       0x24 mesh/core/libmesh_core_nrf52840_xxAA.a(transport.c.obj)
 .rodata.upper_transport_access_packet_in.str1.4
                0x00033138       0x29 mesh/core/libmesh_core_nrf52840_xxAA.a(transport.c.obj)
 *fill*         0x00033161        0x3 
 .rodata.upper_transport_packet_in.str1.4
                0x00033164       0x2e mesh/core/libmesh_core_nrf52840_xxAA.a(transport.c.obj)
 *fill*         0x00033192        0x2 
 .rodata.flash_manager_defrag.str1.4
                0x00033194       0x28 mesh/core/libmesh_core_nrf52840_xxAA.a(flash_manager_defrag.c.obj)
                                 0x56 (size before relaxing)
 .rodata.m_procedure_steps
                0x000331bc       0x28 mesh/core/libmesh_core_nrf52840_xxAA.a(flash_manager_defrag.c.obj)
 .rodata.SEGGER_RTT_ReadNoLock.str1.4
                0x000331e4       0x18 external/rtt/librtt_nrf52840_xxAA.a(SEGGER_RTT.c.obj)
                                 0x17 (size before relaxing)
 .rodata._aV2C.5497
                0x000331fc       0x10 external/rtt/librtt_nrf52840_xxAA.a(SEGGER_RTT_printf.c.obj)
 .rodata._global_impure_ptr
                0x0003320c        0x4 c:/a/gcc_arm/6/bin/../lib/gcc/arm-none-eabi/6.3.1/../../../../arm-none-eabi/lib/thumb/v7e-m/fpv4-sp/hard\libc_nano.a(lib_a-impure.o)
                0x0003320c                _global_impure_ptr
 *(.eh_frame*)
 .eh_frame      0x00033210        0x0 c:/a/gcc_arm/6/bin/../lib/gcc/arm-none-eabi/6.3.1/thumb/v7e-m/fpv4-sp/hard/crtbegin.o
 .eh_frame      0x00033210        0x4 c:/a/gcc_arm/6/bin/../lib/gcc/arm-none-eabi/6.3.1/thumb/v7e-m/fpv4-sp/hard/crtend.o

.glue_7         0x00033214        0x0
 .glue_7        0x00033214        0x0 linker stubs

.glue_7t        0x00033214        0x0
 .glue_7t       0x00033214        0x0 linker stubs

.vfp11_veneer   0x00033214        0x0
 .vfp11_veneer  0x00033214        0x0 linker stubs

.v4_bx          0x00033214        0x0
 .v4_bx         0x00033214        0x0 linker stubs

.iplt           0x00033214        0x0
 .iplt          0x00033214        0x0 c:/a/gcc_arm/6/bin/../lib/gcc/arm-none-eabi/6.3.1/thumb/v7e-m/fpv4-sp/hard/crtbegin.o

.ARM.extab
 *(.ARM.extab* .gnu.linkonce.armextab.*)
                0x00033214                __exidx_start = .

.ARM.exidx      0x00033214        0x8
 *(.ARM.exidx* .gnu.linkonce.armexidx.*)
 .ARM.exidx     0x00033214        0x8 c:/a/gcc_arm/6/bin/../lib/gcc/arm-none-eabi/6.3.1/../../../../arm-none-eabi/lib/thumb/v7e-m/fpv4-sp/hard/crt0.o
                0x0003321c                __exidx_end = .
                0x0003321c                __etext = .

.rel.dyn        0x0003321c        0x0
 .rel.iplt      0x0003321c        0x0 c:/a/gcc_arm/6/bin/../lib/gcc/arm-none-eabi/6.3.1/thumb/v7e-m/fpv4-sp/hard/crtbegin.o

.data           0x200031b8       0xc0 load address 0x0003321c
                0x200031b8                __data_start__ = .
 *(vtable)
 *(.data*)
 .data.rom_base
                0x200031b8        0x4 examples/dfu/CMakeFiles/dfu_no_serial_nrf52840_xxAA_s140_5.0.0-3.alpha.dir/src/main.c.obj
                0x200031b8                rom_base
 .data.rom_end  0x200031bc        0x4 examples/dfu/CMakeFiles/dfu_no_serial_nrf52840_xxAA_s140_5.0.0-3.alpha.dir/src/main.c.obj
                0x200031bc                rom_end
 .data.m_unprov_report
                0x200031c0        0x1 examples/dfu/CMakeFiles/dfu_no_serial_nrf52840_xxAA_s140_5.0.0-3.alpha.dir/__/__/mesh/prov/src/prov_beacon.c.obj
 *fill*         0x200031c1        0x3 
 .data.SystemCoreClock
                0x200031c4        0x4 examples/dfu/CMakeFiles/dfu_no_serial_nrf52840_xxAA_s140_5.0.0-3.alpha.dir/__/__/external/nRF5_SDK_14.0.0_3bcc1f7/components/toolchain/system_nrf52840.c.obj
                0x200031c4                SystemCoreClock
 .data.mem_listener.10018
                0x200031c8       0x10 mesh/core/libmesh_core_nrf52840_xxAA.a(net_state.c.obj)
 .data.mem_listener.10023
                0x200031d8       0x10 mesh/core/libmesh_core_nrf52840_xxAA.a(net_state.c.obj)
 .data.mem_listener.10037
                0x200031e8       0x10 mesh/core/libmesh_core_nrf52840_xxAA.a(net_state.c.obj)
 .data.g_log_debug_level
                0x200031f8        0x4 mesh/core/libmesh_core_nrf52840_xxAA.a(log.c.obj)
                0x200031f8                g_log_debug_level
 .data.g_log_debug_msk
                0x200031fc        0x4 mesh/core/libmesh_core_nrf52840_xxAA.a(log.c.obj)
                0x200031fc                g_log_debug_msk
 .data.g_log_hex_digits
                0x20003200        0x4 mesh/core/libmesh_core_nrf52840_xxAA.a(log.c.obj)
                0x20003200                g_log_hex_digits
 .data.m_log_callback
                0x20003204        0x4 mesh/core/libmesh_core_nrf52840_xxAA.a(log.c.obj)
                0x20003204                m_log_callback
 .data._impure_ptr
                0x20003208        0x4 c:/a/gcc_arm/6/bin/../lib/gcc/arm-none-eabi/6.3.1/../../../../arm-none-eabi/lib/thumb/v7e-m/fpv4-sp/hard\libc_nano.a(lib_a-impure.o)
                0x20003208                _impure_ptr
 .data.impure_data
                0x2000320c       0x60 c:/a/gcc_arm/6/bin/../lib/gcc/arm-none-eabi/6.3.1/../../../../arm-none-eabi/lib/thumb/v7e-m/fpv4-sp/hard\libc_nano.a(lib_a-impure.o)
                0x2000326c                . = ALIGN (0x4)
                0x2000326c                PROVIDE (__preinit_array_start, .)
 *(.preinit_array)
                0x2000326c                PROVIDE (__preinit_array_end, .)
                0x2000326c                . = ALIGN (0x4)
                0x2000326c                PROVIDE (__init_array_start, .)
 *(SORT(.init_array.*))
 *(.init_array)
 .init_array    0x2000326c        0x4 c:/a/gcc_arm/6/bin/../lib/gcc/arm-none-eabi/6.3.1/thumb/v7e-m/fpv4-sp/hard/crtbegin.o
                0x20003270                PROVIDE (__init_array_end, .)
                0x20003270                . = ALIGN (0x4)
                [!provide]                PROVIDE (__fini_array_start, .)
 *(SORT(.fini_array.*))
 *(.fini_array)
 .fini_array    0x20003270        0x4 c:/a/gcc_arm/6/bin/../lib/gcc/arm-none-eabi/6.3.1/thumb/v7e-m/fpv4-sp/hard/crtbegin.o
                [!provide]                PROVIDE (__fini_array_end, .)
 *(.jcr*)
 .jcr           0x20003274        0x0 c:/a/gcc_arm/6/bin/../lib/gcc/arm-none-eabi/6.3.1/thumb/v7e-m/fpv4-sp/hard/crtbegin.o
 .jcr           0x20003274        0x4 c:/a/gcc_arm/6/bin/../lib/gcc/arm-none-eabi/6.3.1/thumb/v7e-m/fpv4-sp/hard/crtend.o
                0x20003278                . = ALIGN (0x4)
                0x20003278                __data_end__ = .

.igot.plt       0x20003278        0x0 load address 0x000332dc
 .igot.plt      0x20003278        0x0 c:/a/gcc_arm/6/bin/../lib/gcc/arm-none-eabi/6.3.1/thumb/v7e-m/fpv4-sp/hard/crtbegin.o

.bss            0x20003278     0x2c90 load address 0x000332e0
                0x20003278                . = ALIGN (0x4)
                0x20003278                __bss_start__ = .
 *(.bss*)
 .bss           0x20003278       0x1c c:/a/gcc_arm/6/bin/../lib/gcc/arm-none-eabi/6.3.1/thumb/v7e-m/fpv4-sp/hard/crtbegin.o
 .bss.m_evt_handler
                0x20003294        0x8 examples/dfu/CMakeFiles/dfu_no_serial_nrf52840_xxAA_s140_5.0.0-3.alpha.dir/src/main.c.obj
 .bss.m_ble_evt_buffer
                0x2000329c       0x57 examples/dfu/CMakeFiles/dfu_no_serial_nrf52840_xxAA_s140_5.0.0-3.alpha.dir/__/nrf_mesh_sdk.c.obj
 *fill*         0x200032f3        0x1 
 .bss.m_addr_nonvirtual_allocated
                0x200032f4        0x4 examples/dfu/CMakeFiles/dfu_no_serial_nrf52840_xxAA_s140_5.0.0-3.alpha.dir/__/__/mesh/access/src/device_state_manager.c.obj
 .bss.m_addr_unicast_allocated
                0x200032f8        0x4 examples/dfu/CMakeFiles/dfu_no_serial_nrf52840_xxAA_s140_5.0.0-3.alpha.dir/__/__/mesh/access/src/device_state_manager.c.obj
 .bss.m_addr_virtual_allocated
                0x200032fc        0x4 examples/dfu/CMakeFiles/dfu_no_serial_nrf52840_xxAA_s140_5.0.0-3.alpha.dir/__/__/mesh/access/src/device_state_manager.c.obj
 .bss.m_addresses
                0x20003300       0x40 examples/dfu/CMakeFiles/dfu_no_serial_nrf52840_xxAA_s140_5.0.0-3.alpha.dir/__/__/mesh/access/src/device_state_manager.c.obj
 .bss.m_appkey_allocated
                0x20003340        0x4 examples/dfu/CMakeFiles/dfu_no_serial_nrf52840_xxAA_s140_5.0.0-3.alpha.dir/__/__/mesh/access/src/device_state_manager.c.obj
 .bss.m_appkeys
                0x20003344       0xb0 examples/dfu/CMakeFiles/dfu_no_serial_nrf52840_xxAA_s140_5.0.0-3.alpha.dir/__/__/mesh/access/src/device_state_manager.c.obj
 .bss.m_devkeys
                0x200033f4       0x16 examples/dfu/CMakeFiles/dfu_no_serial_nrf52840_xxAA_s140_5.0.0-3.alpha.dir/__/__/mesh/access/src/device_state_manager.c.obj
 .bss.m_has_primary_subnet
                0x2000340a        0x1 examples/dfu/CMakeFiles/dfu_no_serial_nrf52840_xxAA_s140_5.0.0-3.alpha.dir/__/__/mesh/access/src/device_state_manager.c.obj
 *fill*         0x2000340b        0x1 
 .bss.m_local_unicast_addr
                0x2000340c        0x4 examples/dfu/CMakeFiles/dfu_no_serial_nrf52840_xxAA_s140_5.0.0-3.alpha.dir/__/__/mesh/access/src/device_state_manager.c.obj
 .bss.m_subnet_allocated
                0x20003410        0x4 examples/dfu/CMakeFiles/dfu_no_serial_nrf52840_xxAA_s140_5.0.0-3.alpha.dir/__/__/mesh/access/src/device_state_manager.c.obj
 .bss.m_subnets
                0x20003414      0x170 examples/dfu/CMakeFiles/dfu_no_serial_nrf52840_xxAA_s140_5.0.0-3.alpha.dir/__/__/mesh/access/src/device_state_manager.c.obj
 .bss.m_virtual_addresses
                0x20003584       0xa0 examples/dfu/CMakeFiles/dfu_no_serial_nrf52840_xxAA_s140_5.0.0-3.alpha.dir/__/__/mesh/access/src/device_state_manager.c.obj
 .bss.mp_bearer_head
                0x20003624        0x4 examples/dfu/CMakeFiles/dfu_no_serial_nrf52840_xxAA_s140_5.0.0-3.alpha.dir/__/__/mesh/prov/src/prov_bearer_adv.c.obj
 .bss.m_adv_packet
                0x20003628       0x28 examples/dfu/CMakeFiles/dfu_no_serial_nrf52840_xxAA_s140_5.0.0-3.alpha.dir/__/__/mesh/dfu/src/nrf_mesh_dfu.c.obj
 .bss.m_broadcast
                0x20003650       0x34 examples/dfu/CMakeFiles/dfu_no_serial_nrf52840_xxAA_s140_5.0.0-3.alpha.dir/__/__/mesh/dfu/src/nrf_mesh_dfu.c.obj
 .bss.m_prng    0x20003684       0x10 examples/dfu/CMakeFiles/dfu_no_serial_nrf52840_xxAA_s140_5.0.0-3.alpha.dir/__/__/mesh/dfu/src/nrf_mesh_dfu.c.obj
 .bss.m_timer_evt
                0x20003694       0x18 examples/dfu/CMakeFiles/dfu_no_serial_nrf52840_xxAA_s140_5.0.0-3.alpha.dir/__/__/mesh/dfu/src/nrf_mesh_dfu.c.obj
 .bss.m_transfer_state
                0x200036ac       0x12 examples/dfu/CMakeFiles/dfu_no_serial_nrf52840_xxAA_s140_5.0.0-3.alpha.dir/__/__/mesh/dfu/src/nrf_mesh_dfu.c.obj
 *fill*         0x200036be        0x2 
 .bss.m_tx_slots
                0x200036c0      0x120 examples/dfu/CMakeFiles/dfu_no_serial_nrf52840_xxAA_s140_5.0.0-3.alpha.dir/__/__/mesh/dfu/src/nrf_mesh_dfu.c.obj
 .bss.m_tx_timer_evt
                0x200037e0       0x18 examples/dfu/CMakeFiles/dfu_no_serial_nrf52840_xxAA_s140_5.0.0-3.alpha.dir/__/__/mesh/dfu/src/nrf_mesh_dfu.c.obj
 .bss.mp_curr_fwid
                0x200037f8        0x4 examples/dfu/CMakeFiles/dfu_no_serial_nrf52840_xxAA_s140_5.0.0-3.alpha.dir/__/__/mesh/dfu/src/nrf_mesh_dfu.c.obj
 .bss.m_uuid    0x200037fc       0x10 mesh/core/libmesh_core_nrf52840_xxAA.a(nrf_mesh_configure.c.obj)
 .bss.mp_evt_handlers_head
                0x2000380c        0x4 mesh/core/libmesh_core_nrf52840_xxAA.a(event.c.obj)
 .bss.lock_count.10077
                0x20003810        0x4 mesh/core/libmesh_core_nrf52840_xxAA.a(net_state.c.obj)
 .bss.m_flash_manager
                0x20003814       0x24 mesh/core/libmesh_core_nrf52840_xxAA.a(net_state.c.obj)
 .bss.m_iv_update_timer
                0x20003838       0x18 mesh/core/libmesh_core_nrf52840_xxAA.a(net_state.c.obj)
 .bss.m_net_state
                0x20003850       0x14 mesh/core/libmesh_core_nrf52840_xxAA.a(net_state.c.obj)
 .bss.m_seqnum_allocation_in_progress
                0x20003864        0x1 mesh/core/libmesh_core_nrf52840_xxAA.a(net_state.c.obj)
 .bss.m_test_mode
                0x20003865        0x1 mesh/core/libmesh_core_nrf52840_xxAA.a(net_state.c.obj)
 *fill*         0x20003866        0x2 
 .bss.m_event_flag
                0x20003868        0x4 mesh/core/libmesh_core_nrf52840_xxAA.a(mesh_flash.c.obj)
 .bss.m_suspended
                0x2000386c        0x1 mesh/core/libmesh_core_nrf52840_xxAA.a(mesh_flash.c.obj)
 *fill*         0x2000386d        0x3 
 .bss.m_users   0x20003870      0x228 mesh/core/libmesh_core_nrf52840_xxAA.a(mesh_flash.c.obj)
 .bss.suspend_count.10174
                0x20003a98        0x4 mesh/core/libmesh_core_nrf52840_xxAA.a(mesh_flash.c.obj)
 .bss.m_is_enabled
                0x20003a9c        0x1 mesh/core/libmesh_core_nrf52840_xxAA.a(nrf_mesh.c.obj)
 .bss.m_is_initialized
                0x20003a9d        0x1 mesh/core/libmesh_core_nrf52840_xxAA.a(nrf_mesh.c.obj)
 *fill*         0x20003a9e        0x2 
 .bss.m_rx_cb   0x20003aa0        0x4 mesh/core/libmesh_core_nrf52840_xxAA.a(nrf_mesh.c.obj)
 .bss.m_event_flag
                0x20003aa4        0x4 mesh/core/libmesh_core_nrf52840_xxAA.a(timer_scheduler.c.obj)
 .bss.m_scheduler
                0x20003aa8       0x10 mesh/core/libmesh_core_nrf52840_xxAA.a(timer_scheduler.c.obj)
 .bss.m_attributes
                0x20003ab8        0x3 mesh/core/libmesh_core_nrf52840_xxAA.a(timer.c.obj)
 *fill*         0x20003abb        0x1 
 .bss.m_callbacks
                0x20003abc        0xc mesh/core/libmesh_core_nrf52840_xxAA.a(timer.c.obj)
 .bss.m_is_in_ts
                0x20003ac8        0x1 mesh/core/libmesh_core_nrf52840_xxAA.a(timer.c.obj)
 *fill*         0x20003ac9        0x3 
 .bss.m_reference_time
                0x20003acc        0x4 mesh/core/libmesh_core_nrf52840_xxAA.a(timer.c.obj)
 .bss.m_timeouts
                0x20003ad0        0xc mesh/core/libmesh_core_nrf52840_xxAA.a(timer.c.obj)
 .bss.m_timer_mut
                0x20003adc        0x4 mesh/core/libmesh_core_nrf52840_xxAA.a(timer.c.obj)
 .bss.m_ts_end_time
                0x20003ae0        0x4 mesh/core/libmesh_core_nrf52840_xxAA.a(timer.c.obj)
 .bss.mp_ppi_tasks
                0x20003ae4        0xc mesh/core/libmesh_core_nrf52840_xxAA.a(timer.c.obj)
 .bss.m_current_time
                0x20003af0        0x4 mesh/core/libmesh_core_nrf52840_xxAA.a(ticker.c.obj)
 .bss.m_timer   0x20003af4       0x18 mesh/core/libmesh_core_nrf52840_xxAA.a(ticker.c.obj)
 .bss.m_current_timeslot
                0x20003b0c       0x1c mesh/core/libmesh_core_nrf52840_xxAA.a(timeslot.c.obj)
 .bss.m_lfclk_ppm
                0x20003b28        0x4 mesh/core/libmesh_core_nrf52840_xxAA.a(timeslot.c.obj)
 .bss.m_radio_request_earliest
                0x20003b2c       0x10 mesh/core/libmesh_core_nrf52840_xxAA.a(timeslot.c.obj)
 .bss.m_state_lock
                0x20003b3c        0x1 mesh/core/libmesh_core_nrf52840_xxAA.a(timeslot.c.obj)
 .bss.m_timeslot_forced_command
                0x20003b3d        0x1 mesh/core/libmesh_core_nrf52840_xxAA.a(timeslot.c.obj)
 *fill*         0x20003b3e        0x2 
 .bss.s_last_rtc_value.9342
                0x20003b40        0x8 mesh/core/libmesh_core_nrf52840_xxAA.a(timeslot.c.obj)
 .bss.m_bearer_event_fifo
                0x20003b48       0x14 mesh/core/libmesh_core_nrf52840_xxAA.a(bearer_event.c.obj)
 .bss.m_bearer_event_fifo_buffer
                0x20003b5c      0x100 mesh/core/libmesh_core_nrf52840_xxAA.a(bearer_event.c.obj)
 .bss.m_critical
                0x20003c5c        0x4 mesh/core/libmesh_core_nrf52840_xxAA.a(bearer_event.c.obj)
 .bss.m_flag_count
                0x20003c60        0x4 mesh/core/libmesh_core_nrf52840_xxAA.a(bearer_event.c.obj)
 .bss.m_flag_event_callbacks
                0x20003c64       0x18 mesh/core/libmesh_core_nrf52840_xxAA.a(bearer_event.c.obj)
 .bss.m_flags   0x20003c7c        0x4 mesh/core/libmesh_core_nrf52840_xxAA.a(bearer_event.c.obj)
 .bss.m_sequential_event_queue
                0x20003c80        0x8 mesh/core/libmesh_core_nrf52840_xxAA.a(bearer_event.c.obj)
 .bss.m_relay_check_cb
                0x20003c88        0x4 mesh/core/libmesh_core_nrf52840_xxAA.a(network.c.obj)
 .bss.m_relay_enable
                0x20003c8c        0x1 mesh/core/libmesh_core_nrf52840_xxAA.a(network.c.obj)
 *fill*         0x20003c8d        0x3 
 .bss.m_action_queue
                0x20003c90        0xc mesh/core/libmesh_core_nrf52840_xxAA.a(flash_manager.c.obj)
 .bss.m_action_queue_buffer
                0x20003c9c      0x104 mesh/core/libmesh_core_nrf52840_xxAA.a(flash_manager.c.obj)
 .bss.m_action_state
                0x20003da0        0x1 mesh/core/libmesh_core_nrf52840_xxAA.a(flash_manager.c.obj)
 *fill*         0x20003da1        0x3 
 .bss.m_memory_listener_queue
                0x20003da4        0x8 mesh/core/libmesh_core_nrf52840_xxAA.a(flash_manager.c.obj)
 .bss.m_processing_flag
                0x20003dac        0x4 mesh/core/libmesh_core_nrf52840_xxAA.a(flash_manager.c.obj)
 .bss.m_state   0x20003db0        0x1 mesh/core/libmesh_core_nrf52840_xxAA.a(flash_manager.c.obj)
 *fill*         0x20003db1        0x1 
 .bss.m_token   0x20003db2        0x2 mesh/core/libmesh_core_nrf52840_xxAA.a(flash_manager.c.obj)
 .bss.p_current.11194
                0x20003db4        0x4 mesh/core/libmesh_core_nrf52840_xxAA.a(flash_manager.c.obj)
 .bss.result.11195
                0x20003db8        0x1 mesh/core/libmesh_core_nrf52840_xxAA.a(flash_manager.c.obj)
 *fill*         0x20003db9        0x3 
 .bss.m_adv_buffer
                0x20003dbc       0x68 mesh/core/libmesh_core_nrf52840_xxAA.a(beacon.c.obj)
 .bss.m_advertiser
                0x20003e24       0x94 mesh/core/libmesh_core_nrf52840_xxAA.a(beacon.c.obj)
 .bss.m_adv_tx_count
                0x20003eb8        0x8 mesh/core/libmesh_core_nrf52840_xxAA.a(core_tx.c.obj)
 .bss.m_advertisers
                0x20003ec0      0x128 mesh/core/libmesh_core_nrf52840_xxAA.a(core_tx.c.obj)
 .bss.m_originator_adv_packet_buffer
                0x20003fe8      0x100 mesh/core/libmesh_core_nrf52840_xxAA.a(core_tx.c.obj)
 .bss.m_relay_adv_packet_buffer
                0x200040e8       0x80 mesh/core/libmesh_core_nrf52840_xxAA.a(core_tx.c.obj)
 .bss.m_tx_complete_callback
                0x20004168        0x4 mesh/core/libmesh_core_nrf52840_xxAA.a(core_tx.c.obj)
 .bss.m_beacon_salt
                0x2000416c       0x10 mesh/core/libmesh_core_nrf52840_xxAA.a(net_beacon.c.obj)
 .bss.m_enabled
                0x2000417c        0x1 mesh/core/libmesh_core_nrf52840_xxAA.a(net_beacon.c.obj)
 *fill*         0x2000417d        0x3 
 .bss.m_tx_event
                0x20004180       0x18 mesh/core/libmesh_core_nrf52840_xxAA.a(net_beacon.c.obj)
 .bss.m_adv_prng
                0x20004198       0x10 mesh/core/libmesh_core_nrf52840_xxAA.a(advertiser.c.obj)
 .bss.m_action_queue
                0x200041a8        0x8 mesh/core/libmesh_core_nrf52840_xxAA.a(bearer_handler.c.obj)
 .bss.m_end_time
                0x200041b0        0x4 mesh/core/libmesh_core_nrf52840_xxAA.a(bearer_handler.c.obj)
 .bss.m_scanner_is_active
                0x200041b4        0x1 mesh/core/libmesh_core_nrf52840_xxAA.a(bearer_handler.c.obj)
 .bss.m_stopped
                0x200041b5        0x1 mesh/core/libmesh_core_nrf52840_xxAA.a(bearer_handler.c.obj)
 *fill*         0x200041b6        0x2 
 .bss.mp_action
                0x200041b8        0x4 mesh/core/libmesh_core_nrf52840_xxAA.a(bearer_handler.c.obj)
 .bss.m_next_channel_index
                0x200041bc        0x1 mesh/core/libmesh_core_nrf52840_xxAA.a(broadcast.c.obj)
 *fill*         0x200041bd        0x3 
 .bss.m_scanner
                0x200041c0      0x284 mesh/core/libmesh_core_nrf52840_xxAA.a(scanner.c.obj)
 .bss.m_internal_event_fifo
                0x20004444       0x14 mesh/core/libmesh_core_nrf52840_xxAA.a(internal_event.c.obj)
 .bss.m_internal_event_initialized
                0x20004458        0x1 mesh/core/libmesh_core_nrf52840_xxAA.a(internal_event.c.obj)
 *fill*         0x20004459        0x3 
 .bss.m_report_cb
                0x2000445c        0x4 mesh/core/libmesh_core_nrf52840_xxAA.a(internal_event.c.obj)
 .bss.m_msg_cache
                0x20004460      0x100 mesh/core/libmesh_core_nrf52840_xxAA.a(msg_cache.c.obj)
 .bss.m_msg_cache_head
                0x20004560        0x4 mesh/core/libmesh_core_nrf52840_xxAA.a(msg_cache.c.obj)
 .bss.m_sar_alloc
                0x20004564        0x4 mesh/core/libmesh_core_nrf52840_xxAA.a(transport.c.obj)
 .bss.m_sar_process_flag
                0x20004568        0x4 mesh/core/libmesh_core_nrf52840_xxAA.a(transport.c.obj)
 .bss.m_sar_release
                0x2000456c        0x4 mesh/core/libmesh_core_nrf52840_xxAA.a(transport.c.obj)
 .bss.m_sar_session_cache
                0x20004570       0x40 mesh/core/libmesh_core_nrf52840_xxAA.a(transport.c.obj)
 .bss.m_sar_session_cache_head
                0x200045b0        0x4 mesh/core/libmesh_core_nrf52840_xxAA.a(transport.c.obj)
 .bss.m_trs_config
                0x200045b4       0x18 mesh/core/libmesh_core_nrf52840_xxAA.a(transport.c.obj)
 .bss.m_trs_sar_sessions
                0x200045cc      0x1b0 mesh/core/libmesh_core_nrf52840_xxAA.a(transport.c.obj)
 .bss.m_defrag  0x2000477c       0x1c mesh/core/libmesh_core_nrf52840_xxAA.a(flash_manager_defrag.c.obj)
 .bss.m_token   0x20004798        0x2 mesh/core/libmesh_core_nrf52840_xxAA.a(flash_manager_defrag.c.obj)
 *fill*         0x2000479a        0x2 
 .bss.mp_recovery_area
                0x2000479c        0x4 mesh/core/libmesh_core_nrf52840_xxAA.a(flash_manager_defrag.c.obj)
 .bss.p_null_ptr.10247
                0x200047a0        0x4 mesh/core/libmesh_core_nrf52840_xxAA.a(flash_manager_defrag.c.obj)
 .bss.m_pool    0x200047a4     0x1000 mesh/core/libmesh_core_nrf52840_xxAA.a(packet_mgr.c.obj)
 .bss.mp_free_head
                0x200057a4        0x4 mesh/core/libmesh_core_nrf52840_xxAA.a(packet_mgr.c.obj)
 .bss.m_128buf  0x200057a8       0x10 mesh/core/libmesh_core_nrf52840_xxAA.a(aes_cmac.c.obj)
 .bss.m_subkey1
                0x200057b8       0x10 mesh/core/libmesh_core_nrf52840_xxAA.a(aes_cmac.c.obj)
 .bss.m_subkey2
                0x200057c8       0x10 mesh/core/libmesh_core_nrf52840_xxAA.a(aes_cmac.c.obj)
 .bss.m_cache_full
                0x200057d8        0x1 mesh/core/libmesh_core_nrf52840_xxAA.a(replay_cache.c.obj)
 .bss.m_cache_index
                0x200057d9        0x1 mesh/core/libmesh_core_nrf52840_xxAA.a(replay_cache.c.obj)
 *fill*         0x200057da        0x2 
 .bss.m_replay_cache
                0x200057dc      0x200 mesh/core/libmesh_core_nrf52840_xxAA.a(replay_cache.c.obj)
 .bss.m_accepted_amount
                0x200059dc        0x4 mesh/core/libmesh_core_nrf52840_xxAA.a(filter_engine.c.obj)
 .bss.m_filter_list_head
                0x200059e0        0x4 mesh/core/libmesh_core_nrf52840_xxAA.a(filter_engine.c.obj)
 .bss._acDownBuffer
                0x200059e4       0x80 external/rtt/librtt_nrf52840_xxAA.a(SEGGER_RTT.c.obj)
 .bss._acUpBuffer
                0x20005a64      0x400 external/rtt/librtt_nrf52840_xxAA.a(SEGGER_RTT.c.obj)
 .bss.__malloc_free_list
                0x20005e64        0x4 c:/a/gcc_arm/6/bin/../lib/gcc/arm-none-eabi/6.3.1/../../../../arm-none-eabi/lib/thumb/v7e-m/fpv4-sp/hard\libc_nano.a(lib_a-nano-mallocr.o)
                0x20005e64                __malloc_free_list
 .bss.__malloc_sbrk_start
                0x20005e68        0x4 c:/a/gcc_arm/6/bin/../lib/gcc/arm-none-eabi/6.3.1/../../../../arm-none-eabi/lib/thumb/v7e-m/fpv4-sp/hard\libc_nano.a(lib_a-nano-mallocr.o)
                0x20005e68                __malloc_sbrk_start
 .bss.heap_end.5239
                0x20005e6c        0x4 c:/a/gcc_arm/6/bin/../lib/gcc/arm-none-eabi/6.3.1/../../../../arm-none-eabi/lib/thumb/v7e-m/fpv4-sp/hard\libnosys.a(sbrk.o)
 *(COMMON)
 COMMON         0x20005e70        0x8 examples/dfu/CMakeFiles/dfu_no_serial_nrf52840_xxAA_s140_5.0.0-3.alpha.dir/src/main.c.obj
                0x20005e70                bank_addr
                0x20005e74                rom_length
 COMMON         0x20005e78        0xc examples/dfu/CMakeFiles/dfu_no_serial_nrf52840_xxAA_s140_5.0.0-3.alpha.dir/__/nrf_mesh_sdk.c.obj
                0x20005e78                nrf_nvic_state
 COMMON         0x20005e84        0x4 examples/dfu/CMakeFiles/dfu_no_serial_nrf52840_xxAA_s140_5.0.0-3.alpha.dir/__/__/mesh/dfu/src/nrf_mesh_dfu.c.obj
                0x20005e84                m_cmd_handler
 COMMON         0x20005e88        0x4 mesh/core/libmesh_core_nrf52840_xxAA.a(nrf_mesh.c.obj)
                0x20005e88                m_assertion_handler
 COMMON         0x20005e8c       0x78 external/rtt/librtt_nrf52840_xxAA.a(SEGGER_RTT.c.obj)
                0x20005e8c                _SEGGER_RTT
 COMMON         0x20005f04        0x4 c:/a/gcc_arm/6/bin/../lib/gcc/arm-none-eabi/6.3.1/../../../../arm-none-eabi/lib/thumb/v7e-m/fpv4-sp/hard\libc_nano.a(lib_a-reent.o)
                0x20005f04                errno
                0x20005f08                . = ALIGN (0x4)
                0x20005f08                __bss_end__ = .

.heap           0x20005f08     0x2000
                0x20005f08                __HeapBase = .
                0x20005f08                __end__ = .
                0x20005f08                PROVIDE (end, .)
 *(.heap*)
 .heap          0x20005f08     0x2000 examples/dfu/CMakeFiles/dfu_no_serial_nrf52840_xxAA_s140_5.0.0-3.alpha.dir/__/__/external/nRF5_SDK_14.0.0_3bcc1f7/components/toolchain/gcc/gcc_startup_nrf52840.S.obj
                0x20007f08                __HeapLimit = .

.stack_dummy    0x20005f08     0x2000
 *(.stack*)
 .stack         0x20005f08     0x2000 examples/dfu/CMakeFiles/dfu_no_serial_nrf52840_xxAA_s140_5.0.0-3.alpha.dir/__/__/external/nRF5_SDK_14.0.0_3bcc1f7/components/toolchain/gcc/gcc_startup_nrf52840.S.obj
                0x2003e002                __StackTop = (ORIGIN (RAM) + LENGTH (RAM))
                0x2003c002                __StackLimit = (__StackTop - SIZEOF (.stack_dummy))
                0x2003e002                PROVIDE (__stack, __StackTop)
                0x00000001                ASSERT ((__StackLimit >= __HeapLimit), region RAM overflowed with stack)
OUTPUT(examples\dfu\dfu_no_serial_nrf52840_xxAA_s140_5.0.0-3.alpha.elf elf32-littlearm)

.ARM.attributes
                0x00000000       0x30
 .ARM.attributes
                0x00000000       0x22 c:/a/gcc_arm/6/bin/../lib/gcc/arm-none-eabi/6.3.1/thumb/v7e-m/fpv4-sp/hard/crti.o
 .ARM.attributes
                0x00000022       0x34 c:/a/gcc_arm/6/bin/../lib/gcc/arm-none-eabi/6.3.1/thumb/v7e-m/fpv4-sp/hard/crtbegin.o
 .ARM.attributes
                0x00000056       0x20 c:/a/gcc_arm/6/bin/../lib/gcc/arm-none-eabi/6.3.1/../../../../arm-none-eabi/lib/thumb/v7e-m/fpv4-sp/hard/crt0.o
 .ARM.attributes
                0x00000076       0x39 examples/dfu/CMakeFiles/dfu_no_serial_nrf52840_xxAA_s140_5.0.0-3.alpha.dir/src/main.c.obj
 .ARM.attributes
                0x000000af       0x39 examples/dfu/CMakeFiles/dfu_no_serial_nrf52840_xxAA_s140_5.0.0-3.alpha.dir/__/nrf_mesh_sdk.c.obj
 .ARM.attributes
                0x000000e8       0x39 examples/dfu/CMakeFiles/dfu_no_serial_nrf52840_xxAA_s140_5.0.0-3.alpha.dir/__/__/mesh/access/src/device_state_manager.c.obj
 .ARM.attributes
                0x00000121       0x39 examples/dfu/CMakeFiles/dfu_no_serial_nrf52840_xxAA_s140_5.0.0-3.alpha.dir/__/__/mesh/prov/src/provisioning.c.obj
 .ARM.attributes
                0x0000015a       0x39 examples/dfu/CMakeFiles/dfu_no_serial_nrf52840_xxAA_s140_5.0.0-3.alpha.dir/__/__/mesh/prov/src/prov_beacon.c.obj
 .ARM.attributes
                0x00000193       0x39 examples/dfu/CMakeFiles/dfu_no_serial_nrf52840_xxAA_s140_5.0.0-3.alpha.dir/__/__/mesh/prov/src/prov_bearer_adv.c.obj
 .ARM.attributes
                0x000001cc       0x39 examples/dfu/CMakeFiles/dfu_no_serial_nrf52840_xxAA_s140_5.0.0-3.alpha.dir/__/__/mesh/dfu/src/nrf_mesh_dfu.c.obj
 .ARM.attributes
                0x00000205       0x39 examples/dfu/CMakeFiles/dfu_no_serial_nrf52840_xxAA_s140_5.0.0-3.alpha.dir/__/__/external/nRF5_SDK_14.0.0_3bcc1f7/components/toolchain/system_nrf52840.c.obj
 .ARM.attributes
                0x0000023e       0x20 examples/dfu/CMakeFiles/dfu_no_serial_nrf52840_xxAA_s140_5.0.0-3.alpha.dir/__/__/external/nRF5_SDK_14.0.0_3bcc1f7/components/toolchain/gcc/gcc_startup_nrf52840.S.obj
 .ARM.attributes
                0x0000025e       0x39 mesh/core/libmesh_core_nrf52840_xxAA.a(nrf_mesh_configure.c.obj)
 .ARM.attributes
                0x00000297       0x39 mesh/core/libmesh_core_nrf52840_xxAA.a(event.c.obj)
 .ARM.attributes
                0x000002d0       0x39 mesh/core/libmesh_core_nrf52840_xxAA.a(net_state.c.obj)
 .ARM.attributes
                0x00000309       0x39 mesh/core/libmesh_core_nrf52840_xxAA.a(mesh_flash.c.obj)
 .ARM.attributes
                0x00000342       0x39 mesh/core/libmesh_core_nrf52840_xxAA.a(nrf_mesh_utils.c.obj)
 .ARM.attributes
                0x0000037b       0x39 mesh/core/libmesh_core_nrf52840_xxAA.a(nrf_mesh.c.obj)
 .ARM.attributes
                0x000003b4       0x39 mesh/core/libmesh_core_nrf52840_xxAA.a(hal.c.obj)
 .ARM.attributes
                0x000003ed       0x39 mesh/core/libmesh_core_nrf52840_xxAA.a(timer_scheduler.c.obj)
 .ARM.attributes
                0x00000426       0x39 mesh/core/libmesh_core_nrf52840_xxAA.a(timer.c.obj)
 .ARM.attributes
                0x0000045f       0x39 mesh/core/libmesh_core_nrf52840_xxAA.a(ticker.c.obj)
 .ARM.attributes
                0x00000498       0x39 mesh/core/libmesh_core_nrf52840_xxAA.a(rand.c.obj)
 .ARM.attributes
                0x000004d1       0x39 mesh/core/libmesh_core_nrf52840_xxAA.a(timeslot.c.obj)
 .ARM.attributes
                0x0000050a       0x39 mesh/core/libmesh_core_nrf52840_xxAA.a(bearer_event.c.obj)
 .ARM.attributes
                0x00000543       0x39 mesh/core/libmesh_core_nrf52840_xxAA.a(enc.c.obj)
 .ARM.attributes
                0x0000057c       0x39 mesh/core/libmesh_core_nrf52840_xxAA.a(network.c.obj)
 .ARM.attributes
                0x000005b5       0x39 mesh/core/libmesh_core_nrf52840_xxAA.a(msqueue.c.obj)
 .ARM.attributes
                0x000005ee       0x39 mesh/core/libmesh_core_nrf52840_xxAA.a(log.c.obj)
 .ARM.attributes
                0x00000627       0x39 mesh/core/libmesh_core_nrf52840_xxAA.a(flash_manager.c.obj)
 .ARM.attributes
                0x00000660       0x39 mesh/core/libmesh_core_nrf52840_xxAA.a(ccm_soft.c.obj)
 .ARM.attributes
                0x00000699       0x39 mesh/core/libmesh_core_nrf52840_xxAA.a(beacon.c.obj)
 .ARM.attributes
                0x000006d2       0x39 mesh/core/libmesh_core_nrf52840_xxAA.a(flash_manager_internal.c.obj)
 .ARM.attributes
                0x0000070b       0x39 mesh/core/libmesh_core_nrf52840_xxAA.a(core_tx.c.obj)
 .ARM.attributes
                0x00000744       0x39 mesh/core/libmesh_core_nrf52840_xxAA.a(net_beacon.c.obj)
 .ARM.attributes
                0x0000077d       0x39 mesh/core/libmesh_core_nrf52840_xxAA.a(advertiser.c.obj)
 .ARM.attributes
                0x000007b6       0x39 mesh/core/libmesh_core_nrf52840_xxAA.a(bearer_handler.c.obj)
 .ARM.attributes
                0x000007ef       0x39 mesh/core/libmesh_core_nrf52840_xxAA.a(broadcast.c.obj)
 .ARM.attributes
                0x00000828       0x39 mesh/core/libmesh_core_nrf52840_xxAA.a(radio_config.c.obj)
 .ARM.attributes
                0x00000861       0x39 mesh/core/libmesh_core_nrf52840_xxAA.a(scanner.c.obj)
 .ARM.attributes
                0x0000089a       0x39 mesh/core/libmesh_core_nrf52840_xxAA.a(internal_event.c.obj)
 .ARM.attributes
                0x000008d3       0x39 mesh/core/libmesh_core_nrf52840_xxAA.a(aes.c.obj)
 .ARM.attributes
                0x0000090c       0x39 mesh/core/libmesh_core_nrf52840_xxAA.a(msg_cache.c.obj)
 .ARM.attributes
                0x00000945       0x39 mesh/core/libmesh_core_nrf52840_xxAA.a(transport.c.obj)
 .ARM.attributes
                0x0000097e       0x39 mesh/core/libmesh_core_nrf52840_xxAA.a(packet_buffer.c.obj)
 .ARM.attributes
                0x000009b7       0x39 mesh/core/libmesh_core_nrf52840_xxAA.a(flash_manager_defrag.c.obj)
 .ARM.attributes
                0x000009f0       0x39 mesh/core/libmesh_core_nrf52840_xxAA.a(fifo.c.obj)
 .ARM.attributes
                0x00000a29       0x39 mesh/core/libmesh_core_nrf52840_xxAA.a(nrf_flash.c.obj)
 .ARM.attributes
                0x00000a62       0x39 mesh/core/libmesh_core_nrf52840_xxAA.a(packet_mgr.c.obj)
 .ARM.attributes
                0x00000a9b       0x39 mesh/core/libmesh_core_nrf52840_xxAA.a(queue.c.obj)
 .ARM.attributes
                0x00000ad4       0x39 mesh/core/libmesh_core_nrf52840_xxAA.a(aes_cmac.c.obj)
 .ARM.attributes
                0x00000b0d       0x39 mesh/core/libmesh_core_nrf52840_xxAA.a(replay_cache.c.obj)
 .ARM.attributes
                0x00000b46       0x39 mesh/core/libmesh_core_nrf52840_xxAA.a(filter_engine.c.obj)
 .ARM.attributes
                0x00000b7f       0x39 external/rtt/librtt_nrf52840_xxAA.a(SEGGER_RTT.c.obj)
 .ARM.attributes
                0x00000bb8       0x39 external/rtt/librtt_nrf52840_xxAA.a(SEGGER_RTT_printf.c.obj)
 .ARM.attributes
                0x00000bf1       0x34 c:/a/gcc_arm/6/bin/../lib/gcc/arm-none-eabi/6.3.1/../../../../arm-none-eabi/lib/thumb/v7e-m/fpv4-sp/hard\libc_nano.a(lib_a-exit.o)
 .ARM.attributes
                0x00000c25       0x34 c:/a/gcc_arm/6/bin/../lib/gcc/arm-none-eabi/6.3.1/../../../../arm-none-eabi/lib/thumb/v7e-m/fpv4-sp/hard\libc_nano.a(lib_a-impure.o)
 .ARM.attributes
                0x00000c59       0x34 c:/a/gcc_arm/6/bin/../lib/gcc/arm-none-eabi/6.3.1/../../../../arm-none-eabi/lib/thumb/v7e-m/fpv4-sp/hard\libc_nano.a(lib_a-init.o)
 .ARM.attributes
                0x00000c8d       0x34 c:/a/gcc_arm/6/bin/../lib/gcc/arm-none-eabi/6.3.1/../../../../arm-none-eabi/lib/thumb/v7e-m/fpv4-sp/hard\libc_nano.a(lib_a-malloc.o)
 .ARM.attributes
                0x00000cc1       0x34 c:/a/gcc_arm/6/bin/../lib/gcc/arm-none-eabi/6.3.1/../../../../arm-none-eabi/lib/thumb/v7e-m/fpv4-sp/hard\libc_nano.a(lib_a-memcmp.o)
 .ARM.attributes
                0x00000cf5       0x34 c:/a/gcc_arm/6/bin/../lib/gcc/arm-none-eabi/6.3.1/../../../../arm-none-eabi/lib/thumb/v7e-m/fpv4-sp/hard\libc_nano.a(lib_a-memcpy-stub.o)
 .ARM.attributes
                0x00000d29       0x34 c:/a/gcc_arm/6/bin/../lib/gcc/arm-none-eabi/6.3.1/../../../../arm-none-eabi/lib/thumb/v7e-m/fpv4-sp/hard\libc_nano.a(lib_a-memset.o)
 .ARM.attributes
                0x00000d5d       0x34 c:/a/gcc_arm/6/bin/../lib/gcc/arm-none-eabi/6.3.1/../../../../arm-none-eabi/lib/thumb/v7e-m/fpv4-sp/hard\libc_nano.a(lib_a-nano-freer.o)
 .ARM.attributes
                0x00000d91       0x34 c:/a/gcc_arm/6/bin/../lib/gcc/arm-none-eabi/6.3.1/../../../../arm-none-eabi/lib/thumb/v7e-m/fpv4-sp/hard\libc_nano.a(lib_a-nano-mallocr.o)
 .ARM.attributes
                0x00000dc5       0x34 c:/a/gcc_arm/6/bin/../lib/gcc/arm-none-eabi/6.3.1/../../../../arm-none-eabi/lib/thumb/v7e-m/fpv4-sp/hard\libc_nano.a(lib_a-sbrkr.o)
 .ARM.attributes
                0x00000df9       0x34 c:/a/gcc_arm/6/bin/../lib/gcc/arm-none-eabi/6.3.1/../../../../arm-none-eabi/lib/thumb/v7e-m/fpv4-sp/hard\libc_nano.a(lib_a-strcpy.o)
 .ARM.attributes
                0x00000e2d       0x34 c:/a/gcc_arm/6/bin/../lib/gcc/arm-none-eabi/6.3.1/../../../../arm-none-eabi/lib/thumb/v7e-m/fpv4-sp/hard\libc_nano.a(lib_a-strrchr.o)
 .ARM.attributes
                0x00000e61       0x34 c:/a/gcc_arm/6/bin/../lib/gcc/arm-none-eabi/6.3.1/../../../../arm-none-eabi/lib/thumb/v7e-m/fpv4-sp/hard\libc_nano.a(lib_a-mlock.o)
 .ARM.attributes
                0x00000e95       0x34 c:/a/gcc_arm/6/bin/../lib/gcc/arm-none-eabi/6.3.1/../../../../arm-none-eabi/lib/thumb/v7e-m/fpv4-sp/hard\libc_nano.a(lib_a-reent.o)
 .ARM.attributes
                0x00000ec9       0x34 c:/a/gcc_arm/6/bin/../lib/gcc/arm-none-eabi/6.3.1/../../../../arm-none-eabi/lib/thumb/v7e-m/fpv4-sp/hard\libc_nano.a(lib_a-strchr.o)
 .ARM.attributes
                0x00000efd       0x34 c:/a/gcc_arm/6/bin/../lib/gcc/arm-none-eabi/6.3.1/thumb/v7e-m/fpv4-sp/hard/crtend.o
 .ARM.attributes
                0x00000f31       0x22 c:/a/gcc_arm/6/bin/../lib/gcc/arm-none-eabi/6.3.1/thumb/v7e-m/fpv4-sp/hard/crtn.o
 .ARM.attributes
                0x00000f53       0x34 c:/a/gcc_arm/6/bin/../lib/gcc/arm-none-eabi/6.3.1/../../../../arm-none-eabi/lib/thumb/v7e-m/fpv4-sp/hard\libnosys.a(sbrk.o)
 .ARM.attributes
                0x00000f87       0x34 c:/a/gcc_arm/6/bin/../lib/gcc/arm-none-eabi/6.3.1/../../../../arm-none-eabi/lib/thumb/v7e-m/fpv4-sp/hard\libnosys.a(_exit.o)

.comment        0x00000000       0x7f
 .comment       0x00000000       0x7f examples/dfu/CMakeFiles/dfu_no_serial_nrf52840_xxAA_s140_5.0.0-3.alpha.dir/src/main.c.obj
                                 0x80 (size before relaxing)
 .comment       0x0000007f       0x80 examples/dfu/CMakeFiles/dfu_no_serial_nrf52840_xxAA_s140_5.0.0-3.alpha.dir/__/nrf_mesh_sdk.c.obj
 .comment       0x0000007f       0x80 examples/dfu/CMakeFiles/dfu_no_serial_nrf52840_xxAA_s140_5.0.0-3.alpha.dir/__/__/mesh/access/src/device_state_manager.c.obj
 .comment       0x0000007f       0x80 examples/dfu/CMakeFiles/dfu_no_serial_nrf52840_xxAA_s140_5.0.0-3.alpha.dir/__/__/mesh/prov/src/provisioning.c.obj
 .comment       0x0000007f       0x80 examples/dfu/CMakeFiles/dfu_no_serial_nrf52840_xxAA_s140_5.0.0-3.alpha.dir/__/__/mesh/prov/src/prov_beacon.c.obj
 .comment       0x0000007f       0x80 examples/dfu/CMakeFiles/dfu_no_serial_nrf52840_xxAA_s140_5.0.0-3.alpha.dir/__/__/mesh/prov/src/prov_bearer_adv.c.obj
 .comment       0x0000007f       0x80 examples/dfu/CMakeFiles/dfu_no_serial_nrf52840_xxAA_s140_5.0.0-3.alpha.dir/__/__/mesh/dfu/src/nrf_mesh_dfu.c.obj
 .comment       0x0000007f       0x80 examples/dfu/CMakeFiles/dfu_no_serial_nrf52840_xxAA_s140_5.0.0-3.alpha.dir/__/__/external/nRF5_SDK_14.0.0_3bcc1f7/components/toolchain/system_nrf52840.c.obj
 .comment       0x0000007f       0x80 mesh/core/libmesh_core_nrf52840_xxAA.a(nrf_mesh_configure.c.obj)
 .comment       0x0000007f       0x80 mesh/core/libmesh_core_nrf52840_xxAA.a(event.c.obj)
 .comment       0x0000007f       0x80 mesh/core/libmesh_core_nrf52840_xxAA.a(net_state.c.obj)
 .comment       0x0000007f       0x80 mesh/core/libmesh_core_nrf52840_xxAA.a(mesh_flash.c.obj)
 .comment       0x0000007f       0x80 mesh/core/libmesh_core_nrf52840_xxAA.a(nrf_mesh_utils.c.obj)
 .comment       0x0000007f       0x80 mesh/core/libmesh_core_nrf52840_xxAA.a(nrf_mesh.c.obj)
 .comment       0x0000007f       0x80 mesh/core/libmesh_core_nrf52840_xxAA.a(hal.c.obj)
 .comment       0x0000007f       0x80 mesh/core/libmesh_core_nrf52840_xxAA.a(timer_scheduler.c.obj)
 .comment       0x0000007f       0x80 mesh/core/libmesh_core_nrf52840_xxAA.a(timer.c.obj)
 .comment       0x0000007f       0x80 mesh/core/libmesh_core_nrf52840_xxAA.a(ticker.c.obj)
 .comment       0x0000007f       0x80 mesh/core/libmesh_core_nrf52840_xxAA.a(rand.c.obj)
 .comment       0x0000007f       0x80 mesh/core/libmesh_core_nrf52840_xxAA.a(timeslot.c.obj)
 .comment       0x0000007f       0x80 mesh/core/libmesh_core_nrf52840_xxAA.a(bearer_event.c.obj)
 .comment       0x0000007f       0x80 mesh/core/libmesh_core_nrf52840_xxAA.a(enc.c.obj)
 .comment       0x0000007f       0x80 mesh/core/libmesh_core_nrf52840_xxAA.a(network.c.obj)
 .comment       0x0000007f       0x80 mesh/core/libmesh_core_nrf52840_xxAA.a(msqueue.c.obj)
 .comment       0x0000007f       0x80 mesh/core/libmesh_core_nrf52840_xxAA.a(log.c.obj)
 .comment       0x0000007f       0x80 mesh/core/libmesh_core_nrf52840_xxAA.a(flash_manager.c.obj)
 .comment       0x0000007f       0x80 mesh/core/libmesh_core_nrf52840_xxAA.a(ccm_soft.c.obj)
 .comment       0x0000007f       0x80 mesh/core/libmesh_core_nrf52840_xxAA.a(beacon.c.obj)
 .comment       0x0000007f       0x80 mesh/core/libmesh_core_nrf52840_xxAA.a(flash_manager_internal.c.obj)
 .comment       0x0000007f       0x80 mesh/core/libmesh_core_nrf52840_xxAA.a(core_tx.c.obj)
 .comment       0x0000007f       0x80 mesh/core/libmesh_core_nrf52840_xxAA.a(net_beacon.c.obj)
 .comment       0x0000007f       0x80 mesh/core/libmesh_core_nrf52840_xxAA.a(advertiser.c.obj)
 .comment       0x0000007f       0x80 mesh/core/libmesh_core_nrf52840_xxAA.a(bearer_handler.c.obj)
 .comment       0x0000007f       0x80 mesh/core/libmesh_core_nrf52840_xxAA.a(broadcast.c.obj)
 .comment       0x0000007f       0x80 mesh/core/libmesh_core_nrf52840_xxAA.a(radio_config.c.obj)
 .comment       0x0000007f       0x80 mesh/core/libmesh_core_nrf52840_xxAA.a(scanner.c.obj)
 .comment       0x0000007f       0x80 mesh/core/libmesh_core_nrf52840_xxAA.a(internal_event.c.obj)
 .comment       0x0000007f       0x80 mesh/core/libmesh_core_nrf52840_xxAA.a(aes.c.obj)
 .comment       0x0000007f       0x80 mesh/core/libmesh_core_nrf52840_xxAA.a(msg_cache.c.obj)
 .comment       0x0000007f       0x80 mesh/core/libmesh_core_nrf52840_xxAA.a(transport.c.obj)
 .comment       0x0000007f       0x80 mesh/core/libmesh_core_nrf52840_xxAA.a(packet_buffer.c.obj)
 .comment       0x0000007f       0x80 mesh/core/libmesh_core_nrf52840_xxAA.a(flash_manager_defrag.c.obj)
 .comment       0x0000007f       0x80 mesh/core/libmesh_core_nrf52840_xxAA.a(fifo.c.obj)
 .comment       0x0000007f       0x80 mesh/core/libmesh_core_nrf52840_xxAA.a(nrf_flash.c.obj)
 .comment       0x0000007f       0x80 mesh/core/libmesh_core_nrf52840_xxAA.a(packet_mgr.c.obj)
 .comment       0x0000007f       0x80 mesh/core/libmesh_core_nrf52840_xxAA.a(queue.c.obj)
 .comment       0x0000007f       0x80 mesh/core/libmesh_core_nrf52840_xxAA.a(aes_cmac.c.obj)
 .comment       0x0000007f       0x80 mesh/core/libmesh_core_nrf52840_xxAA.a(replay_cache.c.obj)
 .comment       0x0000007f       0x80 mesh/core/libmesh_core_nrf52840_xxAA.a(filter_engine.c.obj)
 .comment       0x0000007f       0x80 external/rtt/librtt_nrf52840_xxAA.a(SEGGER_RTT.c.obj)
 .comment       0x0000007f       0x80 external/rtt/librtt_nrf52840_xxAA.a(SEGGER_RTT_printf.c.obj)

.debug_frame    0x00000000      0x2c4
 .debug_frame   0x00000000       0x28 c:/a/gcc_arm/6/bin/../lib/gcc/arm-none-eabi/6.3.1/../../../../arm-none-eabi/lib/thumb/v7e-m/fpv4-sp/hard\libc_nano.a(lib_a-exit.o)
 .debug_frame   0x00000028       0x2c c:/a/gcc_arm/6/bin/../lib/gcc/arm-none-eabi/6.3.1/../../../../arm-none-eabi/lib/thumb/v7e-m/fpv4-sp/hard\libc_nano.a(lib_a-init.o)
 .debug_frame   0x00000054       0x30 c:/a/gcc_arm/6/bin/../lib/gcc/arm-none-eabi/6.3.1/../../../../arm-none-eabi/lib/thumb/v7e-m/fpv4-sp/hard\libc_nano.a(lib_a-malloc.o)
 .debug_frame   0x00000084       0x28 c:/a/gcc_arm/6/bin/../lib/gcc/arm-none-eabi/6.3.1/../../../../arm-none-eabi/lib/thumb/v7e-m/fpv4-sp/hard\libc_nano.a(lib_a-memcmp.o)
 .debug_frame   0x000000ac       0x28 c:/a/gcc_arm/6/bin/../lib/gcc/arm-none-eabi/6.3.1/../../../../arm-none-eabi/lib/thumb/v7e-m/fpv4-sp/hard\libc_nano.a(lib_a-memcpy-stub.o)
 .debug_frame   0x000000d4       0x20 c:/a/gcc_arm/6/bin/../lib/gcc/arm-none-eabi/6.3.1/../../../../arm-none-eabi/lib/thumb/v7e-m/fpv4-sp/hard\libc_nano.a(lib_a-memset.o)
 .debug_frame   0x000000f4       0x38 c:/a/gcc_arm/6/bin/../lib/gcc/arm-none-eabi/6.3.1/../../../../arm-none-eabi/lib/thumb/v7e-m/fpv4-sp/hard\libc_nano.a(lib_a-nano-freer.o)
 .debug_frame   0x0000012c       0x2c c:/a/gcc_arm/6/bin/../lib/gcc/arm-none-eabi/6.3.1/../../../../arm-none-eabi/lib/thumb/v7e-m/fpv4-sp/hard\libc_nano.a(lib_a-nano-mallocr.o)
 .debug_frame   0x00000158       0x2c c:/a/gcc_arm/6/bin/../lib/gcc/arm-none-eabi/6.3.1/../../../../arm-none-eabi/lib/thumb/v7e-m/fpv4-sp/hard\libc_nano.a(lib_a-sbrkr.o)
 .debug_frame   0x00000184       0x20 c:/a/gcc_arm/6/bin/../lib/gcc/arm-none-eabi/6.3.1/../../../../arm-none-eabi/lib/thumb/v7e-m/fpv4-sp/hard\libc_nano.a(lib_a-strcpy.o)
 .debug_frame   0x000001a4       0x34 c:/a/gcc_arm/6/bin/../lib/gcc/arm-none-eabi/6.3.1/../../../../arm-none-eabi/lib/thumb/v7e-m/fpv4-sp/hard\libc_nano.a(lib_a-strrchr.o)
 .debug_frame   0x000001d8       0x30 c:/a/gcc_arm/6/bin/../lib/gcc/arm-none-eabi/6.3.1/../../../../arm-none-eabi/lib/thumb/v7e-m/fpv4-sp/hard\libc_nano.a(lib_a-mlock.o)
 .debug_frame   0x00000208       0x5c c:/a/gcc_arm/6/bin/../lib/gcc/arm-none-eabi/6.3.1/../../../../arm-none-eabi/lib/thumb/v7e-m/fpv4-sp/hard\libc_nano.a(lib_a-reent.o)
 .debug_frame   0x00000264       0x20 c:/a/gcc_arm/6/bin/../lib/gcc/arm-none-eabi/6.3.1/../../../../arm-none-eabi/lib/thumb/v7e-m/fpv4-sp/hard\libc_nano.a(lib_a-strchr.o)
 .debug_frame   0x00000284       0x20 c:/a/gcc_arm/6/bin/../lib/gcc/arm-none-eabi/6.3.1/../../../../arm-none-eabi/lib/thumb/v7e-m/fpv4-sp/hard\libnosys.a(sbrk.o)
 .debug_frame   0x000002a4       0x20 c:/a/gcc_arm/6/bin/../lib/gcc/arm-none-eabi/6.3.1/../../../../arm-none-eabi/lib/thumb/v7e-m/fpv4-sp/hard\libnosys.a(_exit.o)
