Archive member included to satisfy reference by file (symbol)

mesh/core/libmesh_core_nrf52832_xxAA.a(nrf_mesh_configure.c.obj)
                              examples/light_switch/client/CMakeFiles/light_switch_client_nrf52832_xxAA_s132_5.0.0.dir/__/__/__/mesh/prov/src/prov_beacon.c.obj (nrf_mesh_configure_device_uuid_get)
mesh/core/libmesh_core_nrf52832_xxAA.a(event.c.obj)
                              examples/light_switch/client/CMakeFiles/light_switch_client_nrf52832_xxAA_s132_5.0.0.dir/__/__/__/mesh/access/src/access.c.obj (event_handle)
mesh/core/libmesh_core_nrf52832_xxAA.a(packet_mgr.c.obj)
                              examples/light_switch/client/CMakeFiles/light_switch_client_nrf52832_xxAA_s132_5.0.0.dir/__/__/__/models/config/src/config_client.c.obj (packet_mgr_alloc)
mesh/core/libmesh_core_nrf52832_xxAA.a(net_state.c.obj)
                              examples/light_switch/client/CMakeFiles/light_switch_client_nrf52832_xxAA_s132_5.0.0.dir/__/__/__/mesh/access/src/device_state_manager.c.obj (net_state_flash_area_get)
mesh/core/libmesh_core_nrf52832_xxAA.a(nrf_mesh_utils.c.obj)
                              examples/light_switch/client/CMakeFiles/light_switch_client_nrf52832_xxAA_s132_5.0.0.dir/__/__/__/mesh/access/src/device_state_manager.c.obj (nrf_mesh_address_type_get)
mesh/core/libmesh_core_nrf52832_xxAA.a(nrf_mesh.c.obj)
                              examples/light_switch/client/CMakeFiles/light_switch_client_nrf52832_xxAA_s132_5.0.0.dir/__/__/nrf_mesh_sdk.c.obj (nrf_mesh_init)
mesh/core/libmesh_core_nrf52832_xxAA.a(hal.c.obj)
                              mesh/core/libmesh_core_nrf52832_xxAA.a(nrf_mesh.c.obj) (hal_lfclk_ppm_get)
mesh/core/libmesh_core_nrf52832_xxAA.a(timer_scheduler.c.obj)
                              mesh/core/libmesh_core_nrf52832_xxAA.a(nrf_mesh.c.obj) (timer_sch_init)
mesh/core/libmesh_core_nrf52832_xxAA.a(timer.c.obj)
                              mesh/core/libmesh_core_nrf52832_xxAA.a(timer_scheduler.c.obj) (timer_order_cb)
mesh/core/libmesh_core_nrf52832_xxAA.a(ticker.c.obj)
                              mesh/core/libmesh_core_nrf52832_xxAA.a(nrf_mesh.c.obj) (ticker_init)
mesh/core/libmesh_core_nrf52832_xxAA.a(rand.c.obj)
                              examples/light_switch/client/CMakeFiles/light_switch_client_nrf52832_xxAA_s132_5.0.0.dir/__/__/__/mesh/prov/src/prov_utils.c.obj (rand_hw_rng_get)
mesh/core/libmesh_core_nrf52832_xxAA.a(timeslot.c.obj)
                              mesh/core/libmesh_core_nrf52832_xxAA.a(nrf_mesh.c.obj) (timeslot_sd_event_handler)
mesh/core/libmesh_core_nrf52832_xxAA.a(bearer_event.c.obj)
                              mesh/core/libmesh_core_nrf52832_xxAA.a(nrf_mesh.c.obj) (bearer_event_init)
mesh/core/libmesh_core_nrf52832_xxAA.a(enc.c.obj)
                              examples/light_switch/client/CMakeFiles/light_switch_client_nrf52832_xxAA_s132_5.0.0.dir/__/__/__/mesh/prov/src/prov_utils.c.obj (enc_aes_cmac)
mesh/core/libmesh_core_nrf52832_xxAA.a(network.c.obj)
                              mesh/core/libmesh_core_nrf52832_xxAA.a(nrf_mesh.c.obj) (network_init)
mesh/core/libmesh_core_nrf52832_xxAA.a(nrf_mesh_keygen.c.obj)
                              examples/light_switch/client/CMakeFiles/light_switch_client_nrf52832_xxAA_s132_5.0.0.dir/__/__/__/mesh/access/src/device_state_manager.c.obj (nrf_mesh_keygen_aid)
mesh/core/libmesh_core_nrf52832_xxAA.a(log.c.obj)
                              examples/light_switch/client/CMakeFiles/light_switch_client_nrf52832_xxAA_s132_5.0.0.dir/src/main.c.obj (log_callback_rtt)
mesh/core/libmesh_core_nrf52832_xxAA.a(flash_manager.c.obj)
                              mesh/core/libmesh_core_nrf52832_xxAA.a(nrf_mesh.c.obj) (flash_manager_init)
mesh/core/libmesh_core_nrf52832_xxAA.a(ccm_soft.c.obj)
                              mesh/core/libmesh_core_nrf52832_xxAA.a(enc.c.obj) (ccm_soft_encrypt)
mesh/core/libmesh_core_nrf52832_xxAA.a(beacon.c.obj)
                              mesh/core/libmesh_core_nrf52832_xxAA.a(nrf_mesh.c.obj) (beacon_init)
mesh/core/libmesh_core_nrf52832_xxAA.a(flash_manager_internal.c.obj)
                              mesh/core/libmesh_core_nrf52832_xxAA.a(flash_manager.c.obj) (entry_get)
mesh/core/libmesh_core_nrf52832_xxAA.a(core_tx.c.obj)
                              mesh/core/libmesh_core_nrf52832_xxAA.a(nrf_mesh.c.obj) (core_tx_init)
mesh/core/libmesh_core_nrf52832_xxAA.a(net_beacon.c.obj)
                              mesh/core/libmesh_core_nrf52832_xxAA.a(network.c.obj) (net_beacon_init)
mesh/core/libmesh_core_nrf52832_xxAA.a(advertiser.c.obj)
                              mesh/core/libmesh_core_nrf52832_xxAA.a(nrf_mesh.c.obj) (advertiser_init)
mesh/core/libmesh_core_nrf52832_xxAA.a(bearer_handler.c.obj)
                              mesh/core/libmesh_core_nrf52832_xxAA.a(nrf_mesh.c.obj) (bearer_handler_init)
mesh/core/libmesh_core_nrf52832_xxAA.a(broadcast.c.obj)
                              mesh/core/libmesh_core_nrf52832_xxAA.a(advertiser.c.obj) (broadcast_send)
mesh/core/libmesh_core_nrf52832_xxAA.a(radio_config.c.obj)
                              mesh/core/libmesh_core_nrf52832_xxAA.a(broadcast.c.obj) (radio_config_reset)
mesh/core/libmesh_core_nrf52832_xxAA.a(scanner.c.obj)
                              mesh/core/libmesh_core_nrf52832_xxAA.a(bearer_handler.c.obj) (scanner_radio_start)
mesh/core/libmesh_core_nrf52832_xxAA.a(internal_event.c.obj)
                              mesh/core/libmesh_core_nrf52832_xxAA.a(network.c.obj) (internal_event_push)
mesh/core/libmesh_core_nrf52832_xxAA.a(aes.c.obj)
                              mesh/core/libmesh_core_nrf52832_xxAA.a(enc.c.obj) (aes_encrypt)
mesh/core/libmesh_core_nrf52832_xxAA.a(msg_cache.c.obj)
                              mesh/core/libmesh_core_nrf52832_xxAA.a(nrf_mesh.c.obj) (msg_cache_init)
mesh/core/libmesh_core_nrf52832_xxAA.a(transport.c.obj)
                              mesh/core/libmesh_core_nrf52832_xxAA.a(nrf_mesh.c.obj) (transport_init)
mesh/core/libmesh_core_nrf52832_xxAA.a(packet_buffer.c.obj)
                              mesh/core/libmesh_core_nrf52832_xxAA.a(flash_manager.c.obj) (packet_buffer_init)
mesh/core/libmesh_core_nrf52832_xxAA.a(flash_manager_defrag.c.obj)
                              mesh/core/libmesh_core_nrf52832_xxAA.a(flash_manager.c.obj) (flash_manager_defrag_init)
mesh/core/libmesh_core_nrf52832_xxAA.a(fifo.c.obj)
                              mesh/core/libmesh_core_nrf52832_xxAA.a(bearer_event.c.obj) (fifo_init)
mesh/core/libmesh_core_nrf52832_xxAA.a(mesh_flash.c.obj)
                              mesh/core/libmesh_core_nrf52832_xxAA.a(flash_manager.c.obj) (mesh_flash_user_callback_set)
mesh/core/libmesh_core_nrf52832_xxAA.a(queue.c.obj)
                              mesh/core/libmesh_core_nrf52832_xxAA.a(bearer_event.c.obj) (queue_init)
mesh/core/libmesh_core_nrf52832_xxAA.a(aes_cmac.c.obj)
                              mesh/core/libmesh_core_nrf52832_xxAA.a(enc.c.obj) (aes_cmac)
mesh/core/libmesh_core_nrf52832_xxAA.a(msqueue.c.obj)
                              mesh/core/libmesh_core_nrf52832_xxAA.a(mesh_flash.c.obj) (msq_init)
mesh/core/libmesh_core_nrf52832_xxAA.a(replay_cache.c.obj)
                              mesh/core/libmesh_core_nrf52832_xxAA.a(transport.c.obj) (replay_cache_init)
mesh/core/libmesh_core_nrf52832_xxAA.a(filter_engine.c.obj)
                              mesh/core/libmesh_core_nrf52832_xxAA.a(scanner.c.obj) (fen_filters_apply)
mesh/core/libmesh_core_nrf52832_xxAA.a(nrf_flash.c.obj)
                              mesh/core/libmesh_core_nrf52832_xxAA.a(mesh_flash.c.obj) (nrf_flash_erase)
external/rtt/librtt_nrf52832_xxAA.a(SEGGER_RTT.c.obj)
                              mesh/core/libmesh_core_nrf52832_xxAA.a(log.c.obj) (SEGGER_RTT_Write)
external/rtt/librtt_nrf52832_xxAA.a(SEGGER_RTT_printf.c.obj)
                              mesh/core/libmesh_core_nrf52832_xxAA.a(log.c.obj) (SEGGER_RTT_vprintf)
external/micro-ecc/libuECC_nrf52832_xxAA.a(uECC.c.obj)
                              examples/light_switch/client/CMakeFiles/light_switch_client_nrf52832_xxAA_s132_5.0.0.dir/__/__/__/mesh/prov/src/prov_utils.c.obj (uECC_secp256r1)
c:/a/gcc_arm/6/bin/../lib/gcc/arm-none-eabi/6.3.1/../../../../arm-none-eabi/lib/thumb/v7e-m/fpv4-sp/hard\libc_nano.a(lib_a-exit.o)
                              c:/a/gcc_arm/6/bin/../lib/gcc/arm-none-eabi/6.3.1/../../../../arm-none-eabi/lib/thumb/v7e-m/fpv4-sp/hard/crt0.o (exit)
c:/a/gcc_arm/6/bin/../lib/gcc/arm-none-eabi/6.3.1/../../../../arm-none-eabi/lib/thumb/v7e-m/fpv4-sp/hard\libc_nano.a(lib_a-impure.o)
                              c:/a/gcc_arm/6/bin/../lib/gcc/arm-none-eabi/6.3.1/../../../../arm-none-eabi/lib/thumb/v7e-m/fpv4-sp/hard\libc_nano.a(lib_a-exit.o) (_global_impure_ptr)
c:/a/gcc_arm/6/bin/../lib/gcc/arm-none-eabi/6.3.1/../../../../arm-none-eabi/lib/thumb/v7e-m/fpv4-sp/hard\libc_nano.a(lib_a-init.o)
                              c:/a/gcc_arm/6/bin/../lib/gcc/arm-none-eabi/6.3.1/../../../../arm-none-eabi/lib/thumb/v7e-m/fpv4-sp/hard/crt0.o (__libc_init_array)
c:/a/gcc_arm/6/bin/../lib/gcc/arm-none-eabi/6.3.1/../../../../arm-none-eabi/lib/thumb/v7e-m/fpv4-sp/hard\libc_nano.a(lib_a-malloc.o)
                              mesh/core/libmesh_core_nrf52832_xxAA.a(transport.c.obj) (malloc)
c:/a/gcc_arm/6/bin/../lib/gcc/arm-none-eabi/6.3.1/../../../../arm-none-eabi/lib/thumb/v7e-m/fpv4-sp/hard\libc_nano.a(lib_a-memcmp.o)
                              examples/light_switch/client/CMakeFiles/light_switch_client_nrf52832_xxAA_s132_5.0.0.dir/__/__/__/mesh/access/src/device_state_manager.c.obj (memcmp)
c:/a/gcc_arm/6/bin/../lib/gcc/arm-none-eabi/6.3.1/../../../../arm-none-eabi/lib/thumb/v7e-m/fpv4-sp/hard\libc_nano.a(lib_a-memcpy-stub.o)
                              examples/light_switch/client/CMakeFiles/light_switch_client_nrf52832_xxAA_s132_5.0.0.dir/__/__/__/models/config/src/config_client.c.obj (memcpy)
c:/a/gcc_arm/6/bin/../lib/gcc/arm-none-eabi/6.3.1/../../../../arm-none-eabi/lib/thumb/v7e-m/fpv4-sp/hard\libc_nano.a(lib_a-memset.o)
                              c:/a/gcc_arm/6/bin/../lib/gcc/arm-none-eabi/6.3.1/../../../../arm-none-eabi/lib/thumb/v7e-m/fpv4-sp/hard/crt0.o (memset)
c:/a/gcc_arm/6/bin/../lib/gcc/arm-none-eabi/6.3.1/../../../../arm-none-eabi/lib/thumb/v7e-m/fpv4-sp/hard\libc_nano.a(lib_a-nano-freer.o)
                              c:/a/gcc_arm/6/bin/../lib/gcc/arm-none-eabi/6.3.1/../../../../arm-none-eabi/lib/thumb/v7e-m/fpv4-sp/hard\libc_nano.a(lib_a-malloc.o) (_free_r)
c:/a/gcc_arm/6/bin/../lib/gcc/arm-none-eabi/6.3.1/../../../../arm-none-eabi/lib/thumb/v7e-m/fpv4-sp/hard\libc_nano.a(lib_a-nano-mallocr.o)
                              c:/a/gcc_arm/6/bin/../lib/gcc/arm-none-eabi/6.3.1/../../../../arm-none-eabi/lib/thumb/v7e-m/fpv4-sp/hard\libc_nano.a(lib_a-malloc.o) (_malloc_r)
c:/a/gcc_arm/6/bin/../lib/gcc/arm-none-eabi/6.3.1/../../../../arm-none-eabi/lib/thumb/v7e-m/fpv4-sp/hard\libc_nano.a(lib_a-sbrkr.o)
                              c:/a/gcc_arm/6/bin/../lib/gcc/arm-none-eabi/6.3.1/../../../../arm-none-eabi/lib/thumb/v7e-m/fpv4-sp/hard\libc_nano.a(lib_a-nano-mallocr.o) (_sbrk_r)
c:/a/gcc_arm/6/bin/../lib/gcc/arm-none-eabi/6.3.1/../../../../arm-none-eabi/lib/thumb/v7e-m/fpv4-sp/hard\libc_nano.a(lib_a-strcpy.o)
                              external/rtt/librtt_nrf52832_xxAA.a(SEGGER_RTT.c.obj) (strcpy)
c:/a/gcc_arm/6/bin/../lib/gcc/arm-none-eabi/6.3.1/../../../../arm-none-eabi/lib/thumb/v7e-m/fpv4-sp/hard\libc_nano.a(lib_a-strlen.o)
                              examples/light_switch/client/CMakeFiles/light_switch_client_nrf52832_xxAA_s132_5.0.0.dir/__/__/__/mesh/prov/src/prov_beacon.c.obj (strlen)
c:/a/gcc_arm/6/bin/../lib/gcc/arm-none-eabi/6.3.1/../../../../arm-none-eabi/lib/thumb/v7e-m/fpv4-sp/hard\libc_nano.a(lib_a-strrchr.o)
                              examples/light_switch/client/CMakeFiles/light_switch_client_nrf52832_xxAA_s132_5.0.0.dir/src/main.c.obj (strrchr)
c:/a/gcc_arm/6/bin/../lib/gcc/arm-none-eabi/6.3.1/../../../../arm-none-eabi/lib/thumb/v7e-m/fpv4-sp/hard\libc_nano.a(lib_a-mlock.o)
                              c:/a/gcc_arm/6/bin/../lib/gcc/arm-none-eabi/6.3.1/../../../../arm-none-eabi/lib/thumb/v7e-m/fpv4-sp/hard\libc_nano.a(lib_a-nano-freer.o) (__malloc_lock)
c:/a/gcc_arm/6/bin/../lib/gcc/arm-none-eabi/6.3.1/../../../../arm-none-eabi/lib/thumb/v7e-m/fpv4-sp/hard\libc_nano.a(lib_a-reent.o)
                              c:/a/gcc_arm/6/bin/../lib/gcc/arm-none-eabi/6.3.1/../../../../arm-none-eabi/lib/thumb/v7e-m/fpv4-sp/hard\libc_nano.a(lib_a-sbrkr.o) (errno)
c:/a/gcc_arm/6/bin/../lib/gcc/arm-none-eabi/6.3.1/../../../../arm-none-eabi/lib/thumb/v7e-m/fpv4-sp/hard\libc_nano.a(lib_a-strchr.o)
                              c:/a/gcc_arm/6/bin/../lib/gcc/arm-none-eabi/6.3.1/../../../../arm-none-eabi/lib/thumb/v7e-m/fpv4-sp/hard\libc_nano.a(lib_a-strrchr.o) (strchr)
c:/a/gcc_arm/6/bin/../lib/gcc/arm-none-eabi/6.3.1/../../../../arm-none-eabi/lib/thumb/v7e-m/fpv4-sp/hard\libnosys.a(sbrk.o)
                              c:/a/gcc_arm/6/bin/../lib/gcc/arm-none-eabi/6.3.1/../../../../arm-none-eabi/lib/thumb/v7e-m/fpv4-sp/hard\libc_nano.a(lib_a-sbrkr.o) (_sbrk)
c:/a/gcc_arm/6/bin/../lib/gcc/arm-none-eabi/6.3.1/../../../../arm-none-eabi/lib/thumb/v7e-m/fpv4-sp/hard\libnosys.a(_exit.o)
                              c:/a/gcc_arm/6/bin/../lib/gcc/arm-none-eabi/6.3.1/../../../../arm-none-eabi/lib/thumb/v7e-m/fpv4-sp/hard\libc_nano.a(lib_a-exit.o) (_exit)

Allocating common symbols
Common symbol       size              file

nrf_nvic_state      0xc               examples/light_switch/client/CMakeFiles/light_switch_client_nrf52832_xxAA_s132_5.0.0.dir/__/__/nrf_mesh_sdk.c.obj
errno               0x4               c:/a/gcc_arm/6/bin/../lib/gcc/arm-none-eabi/6.3.1/../../../../arm-none-eabi/lib/thumb/v7e-m/fpv4-sp/hard\libc_nano.a(lib_a-reent.o)
m_assertion_handler
                    0x4               mesh/core/libmesh_core_nrf52832_xxAA.a(nrf_mesh.c.obj)
_SEGGER_RTT         0x78              external/rtt/librtt_nrf52832_xxAA.a(SEGGER_RTT.c.obj)

Discarded input sections

 .text          0x00000000        0x0 c:/a/gcc_arm/6/bin/../lib/gcc/arm-none-eabi/6.3.1/thumb/v7e-m/fpv4-sp/hard/crti.o
 .data          0x00000000        0x0 c:/a/gcc_arm/6/bin/../lib/gcc/arm-none-eabi/6.3.1/thumb/v7e-m/fpv4-sp/hard/crti.o
 .bss           0x00000000        0x0 c:/a/gcc_arm/6/bin/../lib/gcc/arm-none-eabi/6.3.1/thumb/v7e-m/fpv4-sp/hard/crti.o
 .data          0x00000000        0x4 c:/a/gcc_arm/6/bin/../lib/gcc/arm-none-eabi/6.3.1/thumb/v7e-m/fpv4-sp/hard/crtbegin.o
 .data          0x00000000        0x0 c:/a/gcc_arm/6/bin/../lib/gcc/arm-none-eabi/6.3.1/../../../../arm-none-eabi/lib/thumb/v7e-m/fpv4-sp/hard/crt0.o
 .bss           0x00000000        0x0 c:/a/gcc_arm/6/bin/../lib/gcc/arm-none-eabi/6.3.1/../../../../arm-none-eabi/lib/thumb/v7e-m/fpv4-sp/hard/crt0.o
 .ARM.extab     0x00000000        0x0 c:/a/gcc_arm/6/bin/../lib/gcc/arm-none-eabi/6.3.1/../../../../arm-none-eabi/lib/thumb/v7e-m/fpv4-sp/hard/crt0.o
 .text          0x00000000        0x0 examples/light_switch/client/CMakeFiles/light_switch_client_nrf52832_xxAA_s132_5.0.0.dir/src/main.c.obj
 .data          0x00000000        0x0 examples/light_switch/client/CMakeFiles/light_switch_client_nrf52832_xxAA_s132_5.0.0.dir/src/main.c.obj
 .bss           0x00000000        0x0 examples/light_switch/client/CMakeFiles/light_switch_client_nrf52832_xxAA_s132_5.0.0.dir/src/main.c.obj
 .text          0x00000000        0x0 examples/light_switch/client/CMakeFiles/light_switch_client_nrf52832_xxAA_s132_5.0.0.dir/src/provisioner.c.obj
 .data          0x00000000        0x0 examples/light_switch/client/CMakeFiles/light_switch_client_nrf52832_xxAA_s132_5.0.0.dir/src/provisioner.c.obj
 .bss           0x00000000        0x0 examples/light_switch/client/CMakeFiles/light_switch_client_nrf52832_xxAA_s132_5.0.0.dir/src/provisioner.c.obj
 .text          0x00000000        0x0 examples/light_switch/client/CMakeFiles/light_switch_client_nrf52832_xxAA_s132_5.0.0.dir/__/__/nrf_mesh_sdk.c.obj
 .data          0x00000000        0x0 examples/light_switch/client/CMakeFiles/light_switch_client_nrf52832_xxAA_s132_5.0.0.dir/__/__/nrf_mesh_sdk.c.obj
 .bss           0x00000000        0x0 examples/light_switch/client/CMakeFiles/light_switch_client_nrf52832_xxAA_s132_5.0.0.dir/__/__/nrf_mesh_sdk.c.obj
 .text.mesh_softdevice_setup
                0x00000000      0x1b8 examples/light_switch/client/CMakeFiles/light_switch_client_nrf52832_xxAA_s132_5.0.0.dir/__/__/nrf_mesh_sdk.c.obj
 .text          0x00000000        0x0 examples/light_switch/client/CMakeFiles/light_switch_client_nrf52832_xxAA_s132_5.0.0.dir/__/__/hal/src/simple_hal.c.obj
 .data          0x00000000        0x0 examples/light_switch/client/CMakeFiles/light_switch_client_nrf52832_xxAA_s132_5.0.0.dir/__/__/hal/src/simple_hal.c.obj
 .bss           0x00000000        0x0 examples/light_switch/client/CMakeFiles/light_switch_client_nrf52832_xxAA_s132_5.0.0.dir/__/__/hal/src/simple_hal.c.obj
 .text.hal_led_mask_set
                0x00000000       0x14 examples/light_switch/client/CMakeFiles/light_switch_client_nrf52832_xxAA_s132_5.0.0.dir/__/__/hal/src/simple_hal.c.obj
 .text          0x00000000        0x0 examples/light_switch/client/CMakeFiles/light_switch_client_nrf52832_xxAA_s132_5.0.0.dir/__/__/nrf_mesh_weak.c.obj
 .data          0x00000000        0x0 examples/light_switch/client/CMakeFiles/light_switch_client_nrf52832_xxAA_s132_5.0.0.dir/__/__/nrf_mesh_weak.c.obj
 .bss           0x00000000        0x0 examples/light_switch/client/CMakeFiles/light_switch_client_nrf52832_xxAA_s132_5.0.0.dir/__/__/nrf_mesh_weak.c.obj
 .text._weak_handler_ptr
                0x00000000        0x4 examples/light_switch/client/CMakeFiles/light_switch_client_nrf52832_xxAA_s132_5.0.0.dir/__/__/nrf_mesh_weak.c.obj
 .text          0x00000000        0x0 examples/light_switch/client/CMakeFiles/light_switch_client_nrf52832_xxAA_s132_5.0.0.dir/__/__/__/models/simple_on_off/src/simple_on_off_client.c.obj
 .data          0x00000000        0x0 examples/light_switch/client/CMakeFiles/light_switch_client_nrf52832_xxAA_s132_5.0.0.dir/__/__/__/models/simple_on_off/src/simple_on_off_client.c.obj
 .bss           0x00000000        0x0 examples/light_switch/client/CMakeFiles/light_switch_client_nrf52832_xxAA_s132_5.0.0.dir/__/__/__/models/simple_on_off/src/simple_on_off_client.c.obj
 .text.simple_on_off_client_get
                0x00000000       0x54 examples/light_switch/client/CMakeFiles/light_switch_client_nrf52832_xxAA_s132_5.0.0.dir/__/__/__/models/simple_on_off/src/simple_on_off_client.c.obj
 .text          0x00000000        0x0 examples/light_switch/client/CMakeFiles/light_switch_client_nrf52832_xxAA_s132_5.0.0.dir/__/__/__/models/config/src/config_client.c.obj
 .data          0x00000000        0x0 examples/light_switch/client/CMakeFiles/light_switch_client_nrf52832_xxAA_s132_5.0.0.dir/__/__/__/models/config/src/config_client.c.obj
 .bss           0x00000000        0x0 examples/light_switch/client/CMakeFiles/light_switch_client_nrf52832_xxAA_s132_5.0.0.dir/__/__/__/models/config/src/config_client.c.obj
 .text.config_client_appkey_delete
                0x00000000       0xe4 examples/light_switch/client/CMakeFiles/light_switch_client_nrf52832_xxAA_s132_5.0.0.dir/__/__/__/models/config/src/config_client.c.obj
 .text.config_client_appkey_get
                0x00000000       0xbc examples/light_switch/client/CMakeFiles/light_switch_client_nrf52832_xxAA_s132_5.0.0.dir/__/__/__/models/config/src/config_client.c.obj
 .text.config_client_appkey_update
                0x00000000       0xe8 examples/light_switch/client/CMakeFiles/light_switch_client_nrf52832_xxAA_s132_5.0.0.dir/__/__/__/models/config/src/config_client.c.obj
 .text.config_client_model_publication_get
                0x00000000       0xd8 examples/light_switch/client/CMakeFiles/light_switch_client_nrf52832_xxAA_s132_5.0.0.dir/__/__/__/models/config/src/config_client.c.obj
 .text.config_client_net_beacon_get
                0x00000000       0x78 examples/light_switch/client/CMakeFiles/light_switch_client_nrf52832_xxAA_s132_5.0.0.dir/__/__/__/models/config/src/config_client.c.obj
 .text.config_client_net_beacon_set
                0x00000000       0xb4 examples/light_switch/client/CMakeFiles/light_switch_client_nrf52832_xxAA_s132_5.0.0.dir/__/__/__/models/config/src/config_client.c.obj
 .text.config_client_default_ttl_get
                0x00000000       0x64 examples/light_switch/client/CMakeFiles/light_switch_client_nrf52832_xxAA_s132_5.0.0.dir/__/__/__/models/config/src/config_client.c.obj
 .text.config_client_default_ttl_set
                0x00000000       0xb0 examples/light_switch/client/CMakeFiles/light_switch_client_nrf52832_xxAA_s132_5.0.0.dir/__/__/__/models/config/src/config_client.c.obj
 .text.config_client_model_subscription_delete
                0x00000000      0x194 examples/light_switch/client/CMakeFiles/light_switch_client_nrf52832_xxAA_s132_5.0.0.dir/__/__/__/models/config/src/config_client.c.obj
 .text.config_client_model_subscription_delete_all
                0x00000000       0xd8 examples/light_switch/client/CMakeFiles/light_switch_client_nrf52832_xxAA_s132_5.0.0.dir/__/__/__/models/config/src/config_client.c.obj
 .text.config_client_model_subscription_get
                0x00000000       0xfc examples/light_switch/client/CMakeFiles/light_switch_client_nrf52832_xxAA_s132_5.0.0.dir/__/__/__/models/config/src/config_client.c.obj
 .text.config_client_model_subscription_overwrite
                0x00000000      0x194 examples/light_switch/client/CMakeFiles/light_switch_client_nrf52832_xxAA_s132_5.0.0.dir/__/__/__/models/config/src/config_client.c.obj
 .text.config_client_relay_get
                0x00000000       0x64 examples/light_switch/client/CMakeFiles/light_switch_client_nrf52832_xxAA_s132_5.0.0.dir/__/__/__/models/config/src/config_client.c.obj
 .text.config_client_relay_set
                0x00000000       0xe0 examples/light_switch/client/CMakeFiles/light_switch_client_nrf52832_xxAA_s132_5.0.0.dir/__/__/__/models/config/src/config_client.c.obj
 .text.config_client_model_app_get
                0x00000000       0xfc examples/light_switch/client/CMakeFiles/light_switch_client_nrf52832_xxAA_s132_5.0.0.dir/__/__/__/models/config/src/config_client.c.obj
 .text.config_client_model_app_unbind
                0x00000000       0xe4 examples/light_switch/client/CMakeFiles/light_switch_client_nrf52832_xxAA_s132_5.0.0.dir/__/__/__/models/config/src/config_client.c.obj
 .text.config_client_netkey_add
                0x00000000       0xd8 examples/light_switch/client/CMakeFiles/light_switch_client_nrf52832_xxAA_s132_5.0.0.dir/__/__/__/models/config/src/config_client.c.obj
 .text.config_client_netkey_delete
                0x00000000       0xb8 examples/light_switch/client/CMakeFiles/light_switch_client_nrf52832_xxAA_s132_5.0.0.dir/__/__/__/models/config/src/config_client.c.obj
 .text.config_client_netkey_get
                0x00000000       0x78 examples/light_switch/client/CMakeFiles/light_switch_client_nrf52832_xxAA_s132_5.0.0.dir/__/__/__/models/config/src/config_client.c.obj
 .text.config_client_netkey_update
                0x00000000       0xd8 examples/light_switch/client/CMakeFiles/light_switch_client_nrf52832_xxAA_s132_5.0.0.dir/__/__/__/models/config/src/config_client.c.obj
 .text.config_client_node_reset
                0x00000000       0x78 examples/light_switch/client/CMakeFiles/light_switch_client_nrf52832_xxAA_s132_5.0.0.dir/__/__/__/models/config/src/config_client.c.obj
 .text.config_client_friend_get
                0x00000000        0x4 examples/light_switch/client/CMakeFiles/light_switch_client_nrf52832_xxAA_s132_5.0.0.dir/__/__/__/models/config/src/config_client.c.obj
 .text.config_client_friend_set
                0x00000000        0x4 examples/light_switch/client/CMakeFiles/light_switch_client_nrf52832_xxAA_s132_5.0.0.dir/__/__/__/models/config/src/config_client.c.obj
 .text.config_client_gatt_proxy_get
                0x00000000        0x4 examples/light_switch/client/CMakeFiles/light_switch_client_nrf52832_xxAA_s132_5.0.0.dir/__/__/__/models/config/src/config_client.c.obj
 .text.config_client_gatt_proxy_set
                0x00000000        0x4 examples/light_switch/client/CMakeFiles/light_switch_client_nrf52832_xxAA_s132_5.0.0.dir/__/__/__/models/config/src/config_client.c.obj
 .text.config_client_node_identity_get
                0x00000000        0x4 examples/light_switch/client/CMakeFiles/light_switch_client_nrf52832_xxAA_s132_5.0.0.dir/__/__/__/models/config/src/config_client.c.obj
 .text.config_client_node_identity_set
                0x00000000        0x4 examples/light_switch/client/CMakeFiles/light_switch_client_nrf52832_xxAA_s132_5.0.0.dir/__/__/__/models/config/src/config_client.c.obj
 .text.config_client_heartbeat_publication_get
                0x00000000        0x4 examples/light_switch/client/CMakeFiles/light_switch_client_nrf52832_xxAA_s132_5.0.0.dir/__/__/__/models/config/src/config_client.c.obj
 .text.config_client_heartbeat_publication_set
                0x00000000        0x4 examples/light_switch/client/CMakeFiles/light_switch_client_nrf52832_xxAA_s132_5.0.0.dir/__/__/__/models/config/src/config_client.c.obj
 .text.config_client_heartbeat_subscription_get
                0x00000000        0x4 examples/light_switch/client/CMakeFiles/light_switch_client_nrf52832_xxAA_s132_5.0.0.dir/__/__/__/models/config/src/config_client.c.obj
 .text.config_client_heartbeat_subscription_set
                0x00000000        0x4 examples/light_switch/client/CMakeFiles/light_switch_client_nrf52832_xxAA_s132_5.0.0.dir/__/__/__/models/config/src/config_client.c.obj
 .text          0x00000000        0x0 examples/light_switch/client/CMakeFiles/light_switch_client_nrf52832_xxAA_s132_5.0.0.dir/__/__/__/models/health/src/health_client.c.obj
 .data          0x00000000        0x0 examples/light_switch/client/CMakeFiles/light_switch_client_nrf52832_xxAA_s132_5.0.0.dir/__/__/__/models/health/src/health_client.c.obj
 .bss           0x00000000        0x0 examples/light_switch/client/CMakeFiles/light_switch_client_nrf52832_xxAA_s132_5.0.0.dir/__/__/__/models/health/src/health_client.c.obj
 .text.reliable_status_cb
                0x00000000       0x38 examples/light_switch/client/CMakeFiles/light_switch_client_nrf52832_xxAA_s132_5.0.0.dir/__/__/__/models/health/src/health_client.c.obj
 .text.health_client_fault_get
                0x00000000       0x98 examples/light_switch/client/CMakeFiles/light_switch_client_nrf52832_xxAA_s132_5.0.0.dir/__/__/__/models/health/src/health_client.c.obj
 .text.health_client_fault_clear
                0x00000000       0xbc examples/light_switch/client/CMakeFiles/light_switch_client_nrf52832_xxAA_s132_5.0.0.dir/__/__/__/models/health/src/health_client.c.obj
 .text.health_client_fault_test
                0x00000000       0xc0 examples/light_switch/client/CMakeFiles/light_switch_client_nrf52832_xxAA_s132_5.0.0.dir/__/__/__/models/health/src/health_client.c.obj
 .text.health_client_period_get
                0x00000000       0x78 examples/light_switch/client/CMakeFiles/light_switch_client_nrf52832_xxAA_s132_5.0.0.dir/__/__/__/models/health/src/health_client.c.obj
 .text.health_client_period_set
                0x00000000       0xbc examples/light_switch/client/CMakeFiles/light_switch_client_nrf52832_xxAA_s132_5.0.0.dir/__/__/__/models/health/src/health_client.c.obj
 .text.health_client_attention_get
                0x00000000       0x78 examples/light_switch/client/CMakeFiles/light_switch_client_nrf52832_xxAA_s132_5.0.0.dir/__/__/__/models/health/src/health_client.c.obj
 .text.health_client_attention_set
                0x00000000       0xbc examples/light_switch/client/CMakeFiles/light_switch_client_nrf52832_xxAA_s132_5.0.0.dir/__/__/__/models/health/src/health_client.c.obj
 .text          0x00000000        0x0 examples/light_switch/client/CMakeFiles/light_switch_client_nrf52832_xxAA_s132_5.0.0.dir/__/__/__/mesh/access/src/access_publish.c.obj
 .data          0x00000000        0x0 examples/light_switch/client/CMakeFiles/light_switch_client_nrf52832_xxAA_s132_5.0.0.dir/__/__/__/mesh/access/src/access_publish.c.obj
 .bss           0x00000000        0x0 examples/light_switch/client/CMakeFiles/light_switch_client_nrf52832_xxAA_s132_5.0.0.dir/__/__/__/mesh/access/src/access_publish.c.obj
 .text.access_publish_period_set
                0x00000000       0xa4 examples/light_switch/client/CMakeFiles/light_switch_client_nrf52832_xxAA_s132_5.0.0.dir/__/__/__/mesh/access/src/access_publish.c.obj
 .text.access_publish_period_get
                0x00000000       0x38 examples/light_switch/client/CMakeFiles/light_switch_client_nrf52832_xxAA_s132_5.0.0.dir/__/__/__/mesh/access/src/access_publish.c.obj
 .text          0x00000000        0x0 examples/light_switch/client/CMakeFiles/light_switch_client_nrf52832_xxAA_s132_5.0.0.dir/__/__/__/mesh/access/src/access.c.obj
 .data          0x00000000        0x0 examples/light_switch/client/CMakeFiles/light_switch_client_nrf52832_xxAA_s132_5.0.0.dir/__/__/__/mesh/access/src/access.c.obj
 .bss           0x00000000        0x0 examples/light_switch/client/CMakeFiles/light_switch_client_nrf52832_xxAA_s132_5.0.0.dir/__/__/__/mesh/access/src/access.c.obj
 .text.access_clear
                0x00000000       0x88 examples/light_switch/client/CMakeFiles/light_switch_client_nrf52832_xxAA_s132_5.0.0.dir/__/__/__/mesh/access/src/access.c.obj
 .text.access_model_reply
                0x00000000      0x2d4 examples/light_switch/client/CMakeFiles/light_switch_client_nrf52832_xxAA_s132_5.0.0.dir/__/__/__/mesh/access/src/access.c.obj
 .text.access_model_publish_period_set
                0x00000000       0x78 examples/light_switch/client/CMakeFiles/light_switch_client_nrf52832_xxAA_s132_5.0.0.dir/__/__/__/mesh/access/src/access.c.obj
 .text.access_model_publish_period_get
                0x00000000       0x40 examples/light_switch/client/CMakeFiles/light_switch_client_nrf52832_xxAA_s132_5.0.0.dir/__/__/__/mesh/access/src/access.c.obj
 .text.access_model_subscription_lists_share
                0x00000000       0x5c examples/light_switch/client/CMakeFiles/light_switch_client_nrf52832_xxAA_s132_5.0.0.dir/__/__/__/mesh/access/src/access.c.obj
 .text.access_model_subscription_add
                0x00000000       0x60 examples/light_switch/client/CMakeFiles/light_switch_client_nrf52832_xxAA_s132_5.0.0.dir/__/__/__/mesh/access/src/access.c.obj
 .text.access_model_subscription_remove
                0x00000000       0x60 examples/light_switch/client/CMakeFiles/light_switch_client_nrf52832_xxAA_s132_5.0.0.dir/__/__/__/mesh/access/src/access.c.obj
 .text.access_model_subscriptions_get
                0x00000000      0x134 examples/light_switch/client/CMakeFiles/light_switch_client_nrf52832_xxAA_s132_5.0.0.dir/__/__/__/mesh/access/src/access.c.obj
 .text.access_model_application_unbind
                0x00000000       0x58 examples/light_switch/client/CMakeFiles/light_switch_client_nrf52832_xxAA_s132_5.0.0.dir/__/__/__/mesh/access/src/access.c.obj
 .text.access_model_applications_get
                0x00000000       0x50 examples/light_switch/client/CMakeFiles/light_switch_client_nrf52832_xxAA_s132_5.0.0.dir/__/__/__/mesh/access/src/access.c.obj
 .text.access_model_publish_application_get
                0x00000000       0x2c examples/light_switch/client/CMakeFiles/light_switch_client_nrf52832_xxAA_s132_5.0.0.dir/__/__/__/mesh/access/src/access.c.obj
 .text.access_default_ttl_set
                0x00000000       0x10 examples/light_switch/client/CMakeFiles/light_switch_client_nrf52832_xxAA_s132_5.0.0.dir/__/__/__/mesh/access/src/access.c.obj
 .text.access_default_ttl_get
                0x00000000        0xc examples/light_switch/client/CMakeFiles/light_switch_client_nrf52832_xxAA_s132_5.0.0.dir/__/__/__/mesh/access/src/access.c.obj
 .text.access_model_publish_ttl_set
                0x00000000       0x40 examples/light_switch/client/CMakeFiles/light_switch_client_nrf52832_xxAA_s132_5.0.0.dir/__/__/__/mesh/access/src/access.c.obj
 .text.access_element_location_set
                0x00000000       0x38 examples/light_switch/client/CMakeFiles/light_switch_client_nrf52832_xxAA_s132_5.0.0.dir/__/__/__/mesh/access/src/access.c.obj
 .text.access_element_location_get
                0x00000000       0x24 examples/light_switch/client/CMakeFiles/light_switch_client_nrf52832_xxAA_s132_5.0.0.dir/__/__/__/mesh/access/src/access.c.obj
 .text.access_element_sig_model_count_get
                0x00000000       0x24 examples/light_switch/client/CMakeFiles/light_switch_client_nrf52832_xxAA_s132_5.0.0.dir/__/__/__/mesh/access/src/access.c.obj
 .text.access_element_vendor_model_count_get
                0x00000000       0x24 examples/light_switch/client/CMakeFiles/light_switch_client_nrf52832_xxAA_s132_5.0.0.dir/__/__/__/mesh/access/src/access.c.obj
 .text.access_model_id_get
                0x00000000       0x40 examples/light_switch/client/CMakeFiles/light_switch_client_nrf52832_xxAA_s132_5.0.0.dir/__/__/__/mesh/access/src/access.c.obj
 .text.access_handle_get
                0x00000000       0xd4 examples/light_switch/client/CMakeFiles/light_switch_client_nrf52832_xxAA_s132_5.0.0.dir/__/__/__/mesh/access/src/access.c.obj
 .text.access_element_models_get
                0x00000000       0xfc examples/light_switch/client/CMakeFiles/light_switch_client_nrf52832_xxAA_s132_5.0.0.dir/__/__/__/mesh/access/src/access.c.obj
 .text          0x00000000        0x0 examples/light_switch/client/CMakeFiles/light_switch_client_nrf52832_xxAA_s132_5.0.0.dir/__/__/__/mesh/access/src/access_reliable.c.obj
 .data          0x00000000        0x0 examples/light_switch/client/CMakeFiles/light_switch_client_nrf52832_xxAA_s132_5.0.0.dir/__/__/__/mesh/access/src/access_reliable.c.obj
 .bss           0x00000000        0x0 examples/light_switch/client/CMakeFiles/light_switch_client_nrf52832_xxAA_s132_5.0.0.dir/__/__/__/mesh/access/src/access_reliable.c.obj
 .text.access_reliable_cancel_all
                0x00000000       0x34 examples/light_switch/client/CMakeFiles/light_switch_client_nrf52832_xxAA_s132_5.0.0.dir/__/__/__/mesh/access/src/access_reliable.c.obj
 .text.access_model_reliable_cancel
                0x00000000       0x98 examples/light_switch/client/CMakeFiles/light_switch_client_nrf52832_xxAA_s132_5.0.0.dir/__/__/__/mesh/access/src/access_reliable.c.obj
 .text          0x00000000        0x0 examples/light_switch/client/CMakeFiles/light_switch_client_nrf52832_xxAA_s132_5.0.0.dir/__/__/__/mesh/access/src/device_state_manager.c.obj
 .data          0x00000000        0x0 examples/light_switch/client/CMakeFiles/light_switch_client_nrf52832_xxAA_s132_5.0.0.dir/__/__/__/mesh/access/src/device_state_manager.c.obj
 .bss           0x00000000        0x0 examples/light_switch/client/CMakeFiles/light_switch_client_nrf52832_xxAA_s132_5.0.0.dir/__/__/__/mesh/access/src/device_state_manager.c.obj
 .text.dsm_has_unflashed_data
                0x00000000       0x58 examples/light_switch/client/CMakeFiles/light_switch_client_nrf52832_xxAA_s132_5.0.0.dir/__/__/__/mesh/access/src/device_state_manager.c.obj
 .text.dsm_clear
                0x00000000       0x88 examples/light_switch/client/CMakeFiles/light_switch_client_nrf52832_xxAA_s132_5.0.0.dir/__/__/__/mesh/access/src/device_state_manager.c.obj
 .text.dsm_address_publish_virtual_add
                0x00000000       0xd0 examples/light_switch/client/CMakeFiles/light_switch_client_nrf52832_xxAA_s132_5.0.0.dir/__/__/__/mesh/access/src/device_state_manager.c.obj
 .text.dsm_address_subscription_add
                0x00000000      0x14c examples/light_switch/client/CMakeFiles/light_switch_client_nrf52832_xxAA_s132_5.0.0.dir/__/__/__/mesh/access/src/device_state_manager.c.obj
 .text.dsm_address_subscription_virtual_add
                0x00000000       0xd0 examples/light_switch/client/CMakeFiles/light_switch_client_nrf52832_xxAA_s132_5.0.0.dir/__/__/__/mesh/access/src/device_state_manager.c.obj
 .text.dsm_address_subscription_count_get
                0x00000000       0x78 examples/light_switch/client/CMakeFiles/light_switch_client_nrf52832_xxAA_s132_5.0.0.dir/__/__/__/mesh/access/src/device_state_manager.c.obj
 .text.dsm_address_subscription_remove
                0x00000000       0x84 examples/light_switch/client/CMakeFiles/light_switch_client_nrf52832_xxAA_s132_5.0.0.dir/__/__/__/mesh/access/src/device_state_manager.c.obj
 .text.dsm_net_key_index_to_subnet_handle
                0x00000000       0x28 examples/light_switch/client/CMakeFiles/light_switch_client_nrf52832_xxAA_s132_5.0.0.dir/__/__/__/mesh/access/src/device_state_manager.c.obj
 .text.dsm_subnet_handle_get
                0x00000000       0x1c examples/light_switch/client/CMakeFiles/light_switch_client_nrf52832_xxAA_s132_5.0.0.dir/__/__/__/mesh/access/src/device_state_manager.c.obj
 .text.dsm_subnet_handle_to_netkey_index
                0x00000000       0x24 examples/light_switch/client/CMakeFiles/light_switch_client_nrf52832_xxAA_s132_5.0.0.dir/__/__/__/mesh/access/src/device_state_manager.c.obj
 .text.dsm_app_key_index_to_appkey_handle
                0x00000000       0x28 examples/light_switch/client/CMakeFiles/light_switch_client_nrf52832_xxAA_s132_5.0.0.dir/__/__/__/mesh/access/src/device_state_manager.c.obj
 .text.dsm_appkey_handle_to_appkey_index
                0x00000000       0x24 examples/light_switch/client/CMakeFiles/light_switch_client_nrf52832_xxAA_s132_5.0.0.dir/__/__/__/mesh/access/src/device_state_manager.c.obj
 .text.dsm_subnet_update
                0x00000000       0x84 examples/light_switch/client/CMakeFiles/light_switch_client_nrf52832_xxAA_s132_5.0.0.dir/__/__/__/mesh/access/src/device_state_manager.c.obj
 .text.dsm_subnet_delete
                0x00000000      0x1dc examples/light_switch/client/CMakeFiles/light_switch_client_nrf52832_xxAA_s132_5.0.0.dir/__/__/__/mesh/access/src/device_state_manager.c.obj
 .text.dsm_appkey_update
                0x00000000       0xcc examples/light_switch/client/CMakeFiles/light_switch_client_nrf52832_xxAA_s132_5.0.0.dir/__/__/__/mesh/access/src/device_state_manager.c.obj
 .text.dsm_appkey_delete
                0x00000000       0x60 examples/light_switch/client/CMakeFiles/light_switch_client_nrf52832_xxAA_s132_5.0.0.dir/__/__/__/mesh/access/src/device_state_manager.c.obj
 .text.dsm_beacon_secmat_get
                0x00000000       0x24 examples/light_switch/client/CMakeFiles/light_switch_client_nrf52832_xxAA_s132_5.0.0.dir/__/__/__/mesh/access/src/device_state_manager.c.obj
 .text.dsm_proxy_identity_get
                0x00000000        0x4 examples/light_switch/client/CMakeFiles/light_switch_client_nrf52832_xxAA_s132_5.0.0.dir/__/__/__/mesh/access/src/device_state_manager.c.obj
 .text          0x00000000        0x0 examples/light_switch/client/CMakeFiles/light_switch_client_nrf52832_xxAA_s132_5.0.0.dir/__/__/__/mesh/prov/src/prov_provisioner.c.obj
 .data          0x00000000        0x0 examples/light_switch/client/CMakeFiles/light_switch_client_nrf52832_xxAA_s132_5.0.0.dir/__/__/__/mesh/prov/src/prov_provisioner.c.obj
 .bss           0x00000000        0x0 examples/light_switch/client/CMakeFiles/light_switch_client_nrf52832_xxAA_s132_5.0.0.dir/__/__/__/mesh/prov/src/prov_provisioner.c.obj
 .text.prov_provisioner_shared_secret
                0x00000000       0xcc examples/light_switch/client/CMakeFiles/light_switch_client_nrf52832_xxAA_s132_5.0.0.dir/__/__/__/mesh/prov/src/prov_provisioner.c.obj
 .text.prov_provisioner_oob_pubkey
                0x00000000       0x38 examples/light_switch/client/CMakeFiles/light_switch_client_nrf52832_xxAA_s132_5.0.0.dir/__/__/__/mesh/prov/src/prov_provisioner.c.obj
 .text          0x00000000        0x0 examples/light_switch/client/CMakeFiles/light_switch_client_nrf52832_xxAA_s132_5.0.0.dir/__/__/__/mesh/prov/src/nrf_mesh_prov.c.obj
 .data          0x00000000        0x0 examples/light_switch/client/CMakeFiles/light_switch_client_nrf52832_xxAA_s132_5.0.0.dir/__/__/__/mesh/prov/src/nrf_mesh_prov.c.obj
 .bss           0x00000000        0x0 examples/light_switch/client/CMakeFiles/light_switch_client_nrf52832_xxAA_s132_5.0.0.dir/__/__/__/mesh/prov/src/nrf_mesh_prov.c.obj
 .text.nrf_mesh_prov_listen
                0x00000000       0x28 examples/light_switch/client/CMakeFiles/light_switch_client_nrf52832_xxAA_s132_5.0.0.dir/__/__/__/mesh/prov/src/nrf_mesh_prov.c.obj
 .text.nrf_mesh_prov_shared_secret_provide
                0x00000000       0x10 examples/light_switch/client/CMakeFiles/light_switch_client_nrf52832_xxAA_s132_5.0.0.dir/__/__/__/mesh/prov/src/nrf_mesh_prov.c.obj
 .text.nrf_mesh_prov_pubkey_provide
                0x00000000       0x10 examples/light_switch/client/CMakeFiles/light_switch_client_nrf52832_xxAA_s132_5.0.0.dir/__/__/__/mesh/prov/src/nrf_mesh_prov.c.obj
 .text          0x00000000        0x0 examples/light_switch/client/CMakeFiles/light_switch_client_nrf52832_xxAA_s132_5.0.0.dir/__/__/__/mesh/prov/src/provisioning.c.obj
 .data          0x00000000        0x0 examples/light_switch/client/CMakeFiles/light_switch_client_nrf52832_xxAA_s132_5.0.0.dir/__/__/__/mesh/prov/src/provisioning.c.obj
 .bss           0x00000000        0x0 examples/light_switch/client/CMakeFiles/light_switch_client_nrf52832_xxAA_s132_5.0.0.dir/__/__/__/mesh/prov/src/provisioning.c.obj
 .text.prov_listen_start
                0x00000000       0x14 examples/light_switch/client/CMakeFiles/light_switch_client_nrf52832_xxAA_s132_5.0.0.dir/__/__/__/mesh/prov/src/provisioning.c.obj
 .text.prov_listen_stop
                0x00000000        0x8 examples/light_switch/client/CMakeFiles/light_switch_client_nrf52832_xxAA_s132_5.0.0.dir/__/__/__/mesh/prov/src/provisioning.c.obj
 .text.prov_tx_capabilities
                0x00000000       0x4c examples/light_switch/client/CMakeFiles/light_switch_client_nrf52832_xxAA_s132_5.0.0.dir/__/__/__/mesh/prov/src/provisioning.c.obj
 .text.prov_tx_input_complete
                0x00000000       0x34 examples/light_switch/client/CMakeFiles/light_switch_client_nrf52832_xxAA_s132_5.0.0.dir/__/__/__/mesh/prov/src/provisioning.c.obj
 .text.prov_tx_complete
                0x00000000       0x34 examples/light_switch/client/CMakeFiles/light_switch_client_nrf52832_xxAA_s132_5.0.0.dir/__/__/__/mesh/prov/src/provisioning.c.obj
 .text.prov_tx_failed
                0x00000000       0x38 examples/light_switch/client/CMakeFiles/light_switch_client_nrf52832_xxAA_s132_5.0.0.dir/__/__/__/mesh/prov/src/provisioning.c.obj
 .text.prov_tx  0x00000000       0x50 examples/light_switch/client/CMakeFiles/light_switch_client_nrf52832_xxAA_s132_5.0.0.dir/__/__/__/mesh/prov/src/provisioning.c.obj
 .text          0x00000000        0x0 examples/light_switch/client/CMakeFiles/light_switch_client_nrf52832_xxAA_s132_5.0.0.dir/__/__/__/mesh/prov/src/prov_beacon.c.obj
 .data          0x00000000        0x0 examples/light_switch/client/CMakeFiles/light_switch_client_nrf52832_xxAA_s132_5.0.0.dir/__/__/__/mesh/prov/src/prov_beacon.c.obj
 .bss           0x00000000        0x0 examples/light_switch/client/CMakeFiles/light_switch_client_nrf52832_xxAA_s132_5.0.0.dir/__/__/__/mesh/prov/src/prov_beacon.c.obj
 .text.prov_beacon_unprov_report
                0x00000000        0xc examples/light_switch/client/CMakeFiles/light_switch_client_nrf52832_xxAA_s132_5.0.0.dir/__/__/__/mesh/prov/src/prov_beacon.c.obj
 .text          0x00000000        0x0 examples/light_switch/client/CMakeFiles/light_switch_client_nrf52832_xxAA_s132_5.0.0.dir/__/__/__/mesh/prov/src/prov_utils.c.obj
 .data          0x00000000        0x0 examples/light_switch/client/CMakeFiles/light_switch_client_nrf52832_xxAA_s132_5.0.0.dir/__/__/__/mesh/prov/src/prov_utils.c.obj
 .bss           0x00000000        0x0 examples/light_switch/client/CMakeFiles/light_switch_client_nrf52832_xxAA_s132_5.0.0.dir/__/__/__/mesh/prov/src/prov_utils.c.obj
 .text.prov_utils_opt_set
                0x00000000       0x24 examples/light_switch/client/CMakeFiles/light_switch_client_nrf52832_xxAA_s132_5.0.0.dir/__/__/__/mesh/prov/src/prov_utils.c.obj
 .text.prov_utils_opt_get
                0x00000000       0x1c examples/light_switch/client/CMakeFiles/light_switch_client_nrf52832_xxAA_s132_5.0.0.dir/__/__/__/mesh/prov/src/prov_utils.c.obj
 .text          0x00000000        0x0 examples/light_switch/client/CMakeFiles/light_switch_client_nrf52832_xxAA_s132_5.0.0.dir/__/__/__/mesh/prov/src/prov_bearer_adv.c.obj
 .data          0x00000000        0x0 examples/light_switch/client/CMakeFiles/light_switch_client_nrf52832_xxAA_s132_5.0.0.dir/__/__/__/mesh/prov/src/prov_bearer_adv.c.obj
 .bss           0x00000000        0x0 examples/light_switch/client/CMakeFiles/light_switch_client_nrf52832_xxAA_s132_5.0.0.dir/__/__/__/mesh/prov/src/prov_bearer_adv.c.obj
 .text.calculate_3GPP_CRC
                0x00000000       0x28 examples/light_switch/client/CMakeFiles/light_switch_client_nrf52832_xxAA_s132_5.0.0.dir/__/__/__/mesh/prov/src/prov_bearer_adv.c.obj
 .text          0x00000000        0x0 examples/light_switch/client/CMakeFiles/light_switch_client_nrf52832_xxAA_s132_5.0.0.dir/__/__/__/external/nRF5_SDK_14.0.0_3bcc1f7/components/toolchain/system_nrf52.c.obj
 .data          0x00000000        0x0 examples/light_switch/client/CMakeFiles/light_switch_client_nrf52832_xxAA_s132_5.0.0.dir/__/__/__/external/nRF5_SDK_14.0.0_3bcc1f7/components/toolchain/system_nrf52.c.obj
 .bss           0x00000000        0x0 examples/light_switch/client/CMakeFiles/light_switch_client_nrf52832_xxAA_s132_5.0.0.dir/__/__/__/external/nRF5_SDK_14.0.0_3bcc1f7/components/toolchain/system_nrf52.c.obj
 .text.SystemCoreClockUpdate
                0x00000000       0x10 examples/light_switch/client/CMakeFiles/light_switch_client_nrf52832_xxAA_s132_5.0.0.dir/__/__/__/external/nRF5_SDK_14.0.0_3bcc1f7/components/toolchain/system_nrf52.c.obj
 .data          0x00000000        0x0 examples/light_switch/client/CMakeFiles/light_switch_client_nrf52832_xxAA_s132_5.0.0.dir/__/__/__/external/nRF5_SDK_14.0.0_3bcc1f7/components/toolchain/gcc/gcc_startup_nrf52.S.obj
 .bss           0x00000000        0x0 examples/light_switch/client/CMakeFiles/light_switch_client_nrf52832_xxAA_s132_5.0.0.dir/__/__/__/external/nRF5_SDK_14.0.0_3bcc1f7/components/toolchain/gcc/gcc_startup_nrf52.S.obj
 .text          0x00000000        0x0 mesh/core/libmesh_core_nrf52832_xxAA.a(nrf_mesh_configure.c.obj)
 .data          0x00000000        0x0 mesh/core/libmesh_core_nrf52832_xxAA.a(nrf_mesh_configure.c.obj)
 .bss           0x00000000        0x0 mesh/core/libmesh_core_nrf52832_xxAA.a(nrf_mesh_configure.c.obj)
 .text.nrf_mesh_configure_device_uuid_set
                0x00000000       0x10 mesh/core/libmesh_core_nrf52832_xxAA.a(nrf_mesh_configure.c.obj)
 .text          0x00000000        0x0 mesh/core/libmesh_core_nrf52832_xxAA.a(event.c.obj)
 .data          0x00000000        0x0 mesh/core/libmesh_core_nrf52832_xxAA.a(event.c.obj)
 .bss           0x00000000        0x0 mesh/core/libmesh_core_nrf52832_xxAA.a(event.c.obj)
 .text.event_handler_remove
                0x00000000       0x6c mesh/core/libmesh_core_nrf52832_xxAA.a(event.c.obj)
 .text          0x00000000        0x0 mesh/core/libmesh_core_nrf52832_xxAA.a(packet_mgr.c.obj)
 .data          0x00000000        0x0 mesh/core/libmesh_core_nrf52832_xxAA.a(packet_mgr.c.obj)
 .bss           0x00000000        0x0 mesh/core/libmesh_core_nrf52832_xxAA.a(packet_mgr.c.obj)
 .text.packet_mgr_get_free_space
                0x00000000       0x1c mesh/core/libmesh_core_nrf52832_xxAA.a(packet_mgr.c.obj)
 .text.packet_mgr_refcount_get
                0x00000000        0x8 mesh/core/libmesh_core_nrf52832_xxAA.a(packet_mgr.c.obj)
 .text.packet_mgr_size_get
                0x00000000        0x8 mesh/core/libmesh_core_nrf52832_xxAA.a(packet_mgr.c.obj)
 .text          0x00000000        0x0 mesh/core/libmesh_core_nrf52832_xxAA.a(net_state.c.obj)
 .data          0x00000000        0x0 mesh/core/libmesh_core_nrf52832_xxAA.a(net_state.c.obj)
 .bss           0x00000000        0x0 mesh/core/libmesh_core_nrf52832_xxAA.a(net_state.c.obj)
 .text.net_state_reset
                0x00000000       0x3c mesh/core/libmesh_core_nrf52832_xxAA.a(net_state.c.obj)
 .text.net_state_iv_update_start
                0x00000000       0x90 mesh/core/libmesh_core_nrf52832_xxAA.a(net_state.c.obj)
 .text.net_state_iv_update_test_mode_set
                0x00000000        0xc mesh/core/libmesh_core_nrf52832_xxAA.a(net_state.c.obj)
 .data.mem_listener.9883
                0x00000000       0x10 mesh/core/libmesh_core_nrf52832_xxAA.a(net_state.c.obj)
 .text          0x00000000        0x0 mesh/core/libmesh_core_nrf52832_xxAA.a(nrf_mesh_utils.c.obj)
 .data          0x00000000        0x0 mesh/core/libmesh_core_nrf52832_xxAA.a(nrf_mesh_utils.c.obj)
 .bss           0x00000000        0x0 mesh/core/libmesh_core_nrf52832_xxAA.a(nrf_mesh_utils.c.obj)
 .text.nrf_mesh_rand_get
                0x00000000       0x10 mesh/core/libmesh_core_nrf52832_xxAA.a(nrf_mesh_utils.c.obj)
 .text.nrf_mesh_gap_address_type_get
                0x00000000       0x40 mesh/core/libmesh_core_nrf52832_xxAA.a(nrf_mesh_utils.c.obj)
 .text          0x00000000        0x0 mesh/core/libmesh_core_nrf52832_xxAA.a(nrf_mesh.c.obj)
 .data          0x00000000        0x0 mesh/core/libmesh_core_nrf52832_xxAA.a(nrf_mesh.c.obj)
 .bss           0x00000000        0x0 mesh/core/libmesh_core_nrf52832_xxAA.a(nrf_mesh.c.obj)
 .text.nrf_mesh_disable
                0x00000000       0x2c mesh/core/libmesh_core_nrf52832_xxAA.a(nrf_mesh.c.obj)
 .text.nrf_mesh_evt_handler_remove
                0x00000000        0x4 mesh/core/libmesh_core_nrf52832_xxAA.a(nrf_mesh.c.obj)
 .text.nrf_mesh_rx_cb_set
                0x00000000        0xc mesh/core/libmesh_core_nrf52832_xxAA.a(nrf_mesh.c.obj)
 .text.nrf_mesh_rx_cb_clear
                0x00000000        0xc mesh/core/libmesh_core_nrf52832_xxAA.a(nrf_mesh.c.obj)
 .text          0x00000000        0x0 mesh/core/libmesh_core_nrf52832_xxAA.a(hal.c.obj)
 .data          0x00000000        0x0 mesh/core/libmesh_core_nrf52832_xxAA.a(hal.c.obj)
 .bss           0x00000000        0x0 mesh/core/libmesh_core_nrf52832_xxAA.a(hal.c.obj)
 .text.sd_power_reset_reason_clr
                0x00000000        0x4 mesh/core/libmesh_core_nrf52832_xxAA.a(hal.c.obj)
 .text.sd_power_gpregret_set
                0x00000000        0x4 mesh/core/libmesh_core_nrf52832_xxAA.a(hal.c.obj)
 .text.hal_device_reset
                0x00000000       0x38 mesh/core/libmesh_core_nrf52832_xxAA.a(hal.c.obj)
 .text          0x00000000        0x0 mesh/core/libmesh_core_nrf52832_xxAA.a(timer_scheduler.c.obj)
 .data          0x00000000        0x0 mesh/core/libmesh_core_nrf52832_xxAA.a(timer_scheduler.c.obj)
 .bss           0x00000000        0x0 mesh/core/libmesh_core_nrf52832_xxAA.a(timer_scheduler.c.obj)
 .text          0x00000000        0x0 mesh/core/libmesh_core_nrf52832_xxAA.a(timer.c.obj)
 .data          0x00000000        0x0 mesh/core/libmesh_core_nrf52832_xxAA.a(timer.c.obj)
 .bss           0x00000000        0x0 mesh/core/libmesh_core_nrf52832_xxAA.a(timer.c.obj)
 .text.timer_order_cb_ppi
                0x00000000       0xd8 mesh/core/libmesh_core_nrf52832_xxAA.a(timer.c.obj)
 .text.timer_order_ppi
                0x00000000       0x88 mesh/core/libmesh_core_nrf52832_xxAA.a(timer.c.obj)
 .text.timer_abort
                0x00000000       0x84 mesh/core/libmesh_core_nrf52832_xxAA.a(timer.c.obj)
 .text          0x00000000        0x0 mesh/core/libmesh_core_nrf52832_xxAA.a(ticker.c.obj)
 .data          0x00000000        0x0 mesh/core/libmesh_core_nrf52832_xxAA.a(ticker.c.obj)
 .bss           0x00000000        0x0 mesh/core/libmesh_core_nrf52832_xxAA.a(ticker.c.obj)
 .text.ticker_get
                0x00000000        0xc mesh/core/libmesh_core_nrf52832_xxAA.a(ticker.c.obj)
 .text          0x00000000        0x0 mesh/core/libmesh_core_nrf52832_xxAA.a(rand.c.obj)
 .data          0x00000000        0x0 mesh/core/libmesh_core_nrf52832_xxAA.a(rand.c.obj)
 .bss           0x00000000        0x0 mesh/core/libmesh_core_nrf52832_xxAA.a(rand.c.obj)
 .text          0x00000000        0x0 mesh/core/libmesh_core_nrf52832_xxAA.a(timeslot.c.obj)
 .data          0x00000000        0x0 mesh/core/libmesh_core_nrf52832_xxAA.a(timeslot.c.obj)
 .bss           0x00000000        0x0 mesh/core/libmesh_core_nrf52832_xxAA.a(timeslot.c.obj)
 .text.timeslot_restart
                0x00000000       0x30 mesh/core/libmesh_core_nrf52832_xxAA.a(timeslot.c.obj)
 .text.timeslot_end_time_get
                0x00000000       0x30 mesh/core/libmesh_core_nrf52832_xxAA.a(timeslot.c.obj)
 .text.timeslot_is_in_ts
                0x00000000        0xc mesh/core/libmesh_core_nrf52832_xxAA.a(timeslot.c.obj)
 .text          0x00000000        0x0 mesh/core/libmesh_core_nrf52832_xxAA.a(bearer_event.c.obj)
 .data          0x00000000        0x0 mesh/core/libmesh_core_nrf52832_xxAA.a(bearer_event.c.obj)
 .bss           0x00000000        0x0 mesh/core/libmesh_core_nrf52832_xxAA.a(bearer_event.c.obj)
 .text.bearer_event_generic_post
                0x00000000       0x50 mesh/core/libmesh_core_nrf52832_xxAA.a(bearer_event.c.obj)
 .text.bearer_event_timer_sch_post
                0x00000000       0x54 mesh/core/libmesh_core_nrf52832_xxAA.a(bearer_event.c.obj)
 .text          0x00000000        0x0 mesh/core/libmesh_core_nrf52832_xxAA.a(enc.c.obj)
 .data          0x00000000        0x0 mesh/core/libmesh_core_nrf52832_xxAA.a(enc.c.obj)
 .bss           0x00000000        0x0 mesh/core/libmesh_core_nrf52832_xxAA.a(enc.c.obj)
 .text.enc_key_generate
                0x00000000        0x8 mesh/core/libmesh_core_nrf52832_xxAA.a(enc.c.obj)
 .text          0x00000000        0x0 mesh/core/libmesh_core_nrf52832_xxAA.a(network.c.obj)
 .data          0x00000000        0x0 mesh/core/libmesh_core_nrf52832_xxAA.a(network.c.obj)
 .bss           0x00000000        0x0 mesh/core/libmesh_core_nrf52832_xxAA.a(network.c.obj)
 .text.network_opt_set
                0x00000000       0x58 mesh/core/libmesh_core_nrf52832_xxAA.a(network.c.obj)
 .text.network_opt_get
                0x00000000       0x4c mesh/core/libmesh_core_nrf52832_xxAA.a(network.c.obj)
 .text.network_packet_discard
                0x00000000       0x4c mesh/core/libmesh_core_nrf52832_xxAA.a(network.c.obj)
 .text          0x00000000        0x0 mesh/core/libmesh_core_nrf52832_xxAA.a(nrf_mesh_keygen.c.obj)
 .data          0x00000000        0x0 mesh/core/libmesh_core_nrf52832_xxAA.a(nrf_mesh_keygen.c.obj)
 .bss           0x00000000        0x0 mesh/core/libmesh_core_nrf52832_xxAA.a(nrf_mesh_keygen.c.obj)
 .text.nrf_mesh_keygen_identitykey
                0x00000000       0x4c mesh/core/libmesh_core_nrf52832_xxAA.a(nrf_mesh_keygen.c.obj)
 .text          0x00000000        0x0 mesh/core/libmesh_core_nrf52832_xxAA.a(log.c.obj)
 .data          0x00000000        0x0 mesh/core/libmesh_core_nrf52832_xxAA.a(log.c.obj)
 .bss           0x00000000        0x0 mesh/core/libmesh_core_nrf52832_xxAA.a(log.c.obj)
 .text.log_callback_logview
                0x00000000       0x38 mesh/core/libmesh_core_nrf52832_xxAA.a(log.c.obj)
 .text.log_set_callback
                0x00000000        0xc mesh/core/libmesh_core_nrf52832_xxAA.a(log.c.obj)
 .text.log_vprintf
                0x00000000       0x18 mesh/core/libmesh_core_nrf52832_xxAA.a(log.c.obj)
 .rodata.log_callback_logview.str1.4
                0x00000000       0x12 mesh/core/libmesh_core_nrf52832_xxAA.a(log.c.obj)
 .text          0x00000000        0x0 mesh/core/libmesh_core_nrf52832_xxAA.a(flash_manager.c.obj)
 .data          0x00000000        0x0 mesh/core/libmesh_core_nrf52832_xxAA.a(flash_manager.c.obj)
 .bss           0x00000000        0x0 mesh/core/libmesh_core_nrf52832_xxAA.a(flash_manager.c.obj)
 .text.flash_manager_entry_count_get
                0x00000000      0x110 mesh/core/libmesh_core_nrf52832_xxAA.a(flash_manager.c.obj)
 .text.flash_manager_entry_release
                0x00000000       0xb4 mesh/core/libmesh_core_nrf52832_xxAA.a(flash_manager.c.obj)
 .text          0x00000000        0x0 mesh/core/libmesh_core_nrf52832_xxAA.a(ccm_soft.c.obj)
 .data          0x00000000        0x0 mesh/core/libmesh_core_nrf52832_xxAA.a(ccm_soft.c.obj)
 .bss           0x00000000        0x0 mesh/core/libmesh_core_nrf52832_xxAA.a(ccm_soft.c.obj)
 .text          0x00000000        0x0 mesh/core/libmesh_core_nrf52832_xxAA.a(beacon.c.obj)
 .data          0x00000000        0x0 mesh/core/libmesh_core_nrf52832_xxAA.a(beacon.c.obj)
 .bss           0x00000000        0x0 mesh/core/libmesh_core_nrf52832_xxAA.a(beacon.c.obj)
 .text          0x00000000        0x0 mesh/core/libmesh_core_nrf52832_xxAA.a(flash_manager_internal.c.obj)
 .data          0x00000000        0x0 mesh/core/libmesh_core_nrf52832_xxAA.a(flash_manager_internal.c.obj)
 .bss           0x00000000        0x0 mesh/core/libmesh_core_nrf52832_xxAA.a(flash_manager_internal.c.obj)
 .text          0x00000000        0x0 mesh/core/libmesh_core_nrf52832_xxAA.a(core_tx.c.obj)
 .data          0x00000000        0x0 mesh/core/libmesh_core_nrf52832_xxAA.a(core_tx.c.obj)
 .bss           0x00000000        0x0 mesh/core/libmesh_core_nrf52832_xxAA.a(core_tx.c.obj)
 .text.core_tx_adv_count_set
                0x00000000       0x40 mesh/core/libmesh_core_nrf52832_xxAA.a(core_tx.c.obj)
 .text.core_tx_adv_count_get
                0x00000000       0x2c mesh/core/libmesh_core_nrf52832_xxAA.a(core_tx.c.obj)
 .text.core_tx_adv_interval_set
                0x00000000       0x34 mesh/core/libmesh_core_nrf52832_xxAA.a(core_tx.c.obj)
 .text.core_tx_adv_interval_get
                0x00000000       0x38 mesh/core/libmesh_core_nrf52832_xxAA.a(core_tx.c.obj)
 .text.core_tx_adv_address_set
                0x00000000       0x34 mesh/core/libmesh_core_nrf52832_xxAA.a(core_tx.c.obj)
 .text          0x00000000        0x0 mesh/core/libmesh_core_nrf52832_xxAA.a(net_beacon.c.obj)
 .data          0x00000000        0x0 mesh/core/libmesh_core_nrf52832_xxAA.a(net_beacon.c.obj)
 .bss           0x00000000        0x0 mesh/core/libmesh_core_nrf52832_xxAA.a(net_beacon.c.obj)
 .text.net_beacon_state_set
                0x00000000       0x3c mesh/core/libmesh_core_nrf52832_xxAA.a(net_beacon.c.obj)
 .text.net_beacon_state_get
                0x00000000        0xc mesh/core/libmesh_core_nrf52832_xxAA.a(net_beacon.c.obj)
 .text          0x00000000        0x0 mesh/core/libmesh_core_nrf52832_xxAA.a(advertiser.c.obj)
 .data          0x00000000        0x0 mesh/core/libmesh_core_nrf52832_xxAA.a(advertiser.c.obj)
 .bss           0x00000000        0x0 mesh/core/libmesh_core_nrf52832_xxAA.a(advertiser.c.obj)
 .text.advertiser_disable
                0x00000000        0xc mesh/core/libmesh_core_nrf52832_xxAA.a(advertiser.c.obj)
 .text.advertiser_channels_set
                0x00000000       0xac mesh/core/libmesh_core_nrf52832_xxAA.a(advertiser.c.obj)
 .text.advertiser_config_set
                0x00000000      0x12c mesh/core/libmesh_core_nrf52832_xxAA.a(advertiser.c.obj)
 .text.advertiser_address_set
                0x00000000       0x80 mesh/core/libmesh_core_nrf52832_xxAA.a(advertiser.c.obj)
 .text.advertiser_config_get
                0x00000000       0x30 mesh/core/libmesh_core_nrf52832_xxAA.a(advertiser.c.obj)
 .text.advertiser_address_default_get
                0x00000000       0x68 mesh/core/libmesh_core_nrf52832_xxAA.a(advertiser.c.obj)
 .text          0x00000000        0x0 mesh/core/libmesh_core_nrf52832_xxAA.a(bearer_handler.c.obj)
 .data          0x00000000        0x0 mesh/core/libmesh_core_nrf52832_xxAA.a(bearer_handler.c.obj)
 .bss           0x00000000        0x0 mesh/core/libmesh_core_nrf52832_xxAA.a(bearer_handler.c.obj)
 .text.bearer_handler_stop
                0x00000000       0x20 mesh/core/libmesh_core_nrf52832_xxAA.a(bearer_handler.c.obj)
 .text.bearer_handler_action_fire
                0x00000000       0xb0 mesh/core/libmesh_core_nrf52832_xxAA.a(bearer_handler.c.obj)
 .text          0x00000000        0x0 mesh/core/libmesh_core_nrf52832_xxAA.a(broadcast.c.obj)
 .data          0x00000000        0x0 mesh/core/libmesh_core_nrf52832_xxAA.a(broadcast.c.obj)
 .bss           0x00000000        0x0 mesh/core/libmesh_core_nrf52832_xxAA.a(broadcast.c.obj)
 .text          0x00000000        0x0 mesh/core/libmesh_core_nrf52832_xxAA.a(radio_config.c.obj)
 .data          0x00000000        0x0 mesh/core/libmesh_core_nrf52832_xxAA.a(radio_config.c.obj)
 .bss           0x00000000        0x0 mesh/core/libmesh_core_nrf52832_xxAA.a(radio_config.c.obj)
 .text.radio_config_access_addr_get
                0x00000000       0x6c mesh/core/libmesh_core_nrf52832_xxAA.a(radio_config.c.obj)
 .text          0x00000000        0x0 mesh/core/libmesh_core_nrf52832_xxAA.a(scanner.c.obj)
 .data          0x00000000        0x0 mesh/core/libmesh_core_nrf52832_xxAA.a(scanner.c.obj)
 .bss           0x00000000        0x0 mesh/core/libmesh_core_nrf52832_xxAA.a(scanner.c.obj)
 .text.scanner_disable
                0x00000000       0x5c mesh/core/libmesh_core_nrf52832_xxAA.a(scanner.c.obj)
 .text.scanner_is_enabled
                0x00000000       0x14 mesh/core/libmesh_core_nrf52832_xxAA.a(scanner.c.obj)
 .text.scanner_stats_get
                0x00000000        0x8 mesh/core/libmesh_core_nrf52832_xxAA.a(scanner.c.obj)
 .text.scanner_config_radio_mode_set
                0x00000000       0x10 mesh/core/libmesh_core_nrf52832_xxAA.a(scanner.c.obj)
 .text.scanner_config_scan_time_set
                0x00000000       0x94 mesh/core/libmesh_core_nrf52832_xxAA.a(scanner.c.obj)
 .text.scanner_config_channels_set
                0x00000000       0x64 mesh/core/libmesh_core_nrf52832_xxAA.a(scanner.c.obj)
 .text.scanner_config_access_addresses_set
                0x00000000       0x44 mesh/core/libmesh_core_nrf52832_xxAA.a(scanner.c.obj)
 .text          0x00000000        0x0 mesh/core/libmesh_core_nrf52832_xxAA.a(internal_event.c.obj)
 .data          0x00000000        0x0 mesh/core/libmesh_core_nrf52832_xxAA.a(internal_event.c.obj)
 .bss           0x00000000        0x0 mesh/core/libmesh_core_nrf52832_xxAA.a(internal_event.c.obj)
 .text.internal_event_init
                0x00000000       0x48 mesh/core/libmesh_core_nrf52832_xxAA.a(internal_event.c.obj)
 .text.internal_event_pop
                0x00000000       0x1c mesh/core/libmesh_core_nrf52832_xxAA.a(internal_event.c.obj)
 .bss.m_internal_event_fifo_buffer
                0x00000000      0x100 mesh/core/libmesh_core_nrf52832_xxAA.a(internal_event.c.obj)
 .text          0x00000000        0x0 mesh/core/libmesh_core_nrf52832_xxAA.a(aes.c.obj)
 .data          0x00000000        0x0 mesh/core/libmesh_core_nrf52832_xxAA.a(aes.c.obj)
 .bss           0x00000000        0x0 mesh/core/libmesh_core_nrf52832_xxAA.a(aes.c.obj)
 .text          0x00000000        0x0 mesh/core/libmesh_core_nrf52832_xxAA.a(msg_cache.c.obj)
 .data          0x00000000        0x0 mesh/core/libmesh_core_nrf52832_xxAA.a(msg_cache.c.obj)
 .bss           0x00000000        0x0 mesh/core/libmesh_core_nrf52832_xxAA.a(msg_cache.c.obj)
 .text.msg_cache_clear
                0x00000000       0x18 mesh/core/libmesh_core_nrf52832_xxAA.a(msg_cache.c.obj)
 .text          0x00000000        0x0 mesh/core/libmesh_core_nrf52832_xxAA.a(transport.c.obj)
 .data          0x00000000        0x0 mesh/core/libmesh_core_nrf52832_xxAA.a(transport.c.obj)
 .bss           0x00000000        0x0 mesh/core/libmesh_core_nrf52832_xxAA.a(transport.c.obj)
 .text.transport_sar_mem_funcs_reset
                0x00000000       0x30 mesh/core/libmesh_core_nrf52832_xxAA.a(transport.c.obj)
 .text.transport_sar_mem_funcs_set
                0x00000000       0x48 mesh/core/libmesh_core_nrf52832_xxAA.a(transport.c.obj)
 .text.transport_opt_set
                0x00000000       0xdc mesh/core/libmesh_core_nrf52832_xxAA.a(transport.c.obj)
 .text.transport_opt_get
                0x00000000       0x84 mesh/core/libmesh_core_nrf52832_xxAA.a(transport.c.obj)
 .text          0x00000000        0x0 mesh/core/libmesh_core_nrf52832_xxAA.a(packet_buffer.c.obj)
 .data          0x00000000        0x0 mesh/core/libmesh_core_nrf52832_xxAA.a(packet_buffer.c.obj)
 .bss           0x00000000        0x0 mesh/core/libmesh_core_nrf52832_xxAA.a(packet_buffer.c.obj)
 .text.packet_buffer_max_packet_len_get
                0x00000000       0x3c mesh/core/libmesh_core_nrf52832_xxAA.a(packet_buffer.c.obj)
 .text          0x00000000        0x0 mesh/core/libmesh_core_nrf52832_xxAA.a(flash_manager_defrag.c.obj)
 .data          0x00000000        0x0 mesh/core/libmesh_core_nrf52832_xxAA.a(flash_manager_defrag.c.obj)
 .bss           0x00000000        0x0 mesh/core/libmesh_core_nrf52832_xxAA.a(flash_manager_defrag.c.obj)
 .text.flash_manager_defragging
                0x00000000       0x50 mesh/core/libmesh_core_nrf52832_xxAA.a(flash_manager_defrag.c.obj)
 .text          0x00000000        0x0 mesh/core/libmesh_core_nrf52832_xxAA.a(fifo.c.obj)
 .data          0x00000000        0x0 mesh/core/libmesh_core_nrf52832_xxAA.a(fifo.c.obj)
 .bss           0x00000000        0x0 mesh/core/libmesh_core_nrf52832_xxAA.a(fifo.c.obj)
 .text.fifo_peek_at
                0x00000000       0x54 mesh/core/libmesh_core_nrf52832_xxAA.a(fifo.c.obj)
 .text.fifo_peek
                0x00000000       0x50 mesh/core/libmesh_core_nrf52832_xxAA.a(fifo.c.obj)
 .text.fifo_flush
                0x00000000        0x8 mesh/core/libmesh_core_nrf52832_xxAA.a(fifo.c.obj)
 .text.fifo_get_len
                0x00000000        0x8 mesh/core/libmesh_core_nrf52832_xxAA.a(fifo.c.obj)
 .text.fifo_is_full
                0x00000000       0x14 mesh/core/libmesh_core_nrf52832_xxAA.a(fifo.c.obj)
 .text.fifo_is_empty
                0x00000000       0x10 mesh/core/libmesh_core_nrf52832_xxAA.a(fifo.c.obj)
 .text          0x00000000        0x0 mesh/core/libmesh_core_nrf52832_xxAA.a(mesh_flash.c.obj)
 .data          0x00000000        0x0 mesh/core/libmesh_core_nrf52832_xxAA.a(mesh_flash.c.obj)
 .bss           0x00000000        0x0 mesh/core/libmesh_core_nrf52832_xxAA.a(mesh_flash.c.obj)
 .text.mesh_flash_op_available_slots
                0x00000000       0x2c mesh/core/libmesh_core_nrf52832_xxAA.a(mesh_flash.c.obj)
 .text.mesh_flash_in_progress
                0x00000000       0x34 mesh/core/libmesh_core_nrf52832_xxAA.a(mesh_flash.c.obj)
 .text.mesh_flash_set_suspended
                0x00000000       0x90 mesh/core/libmesh_core_nrf52832_xxAA.a(mesh_flash.c.obj)
 .bss.suspend_count.10003
                0x00000000        0x4 mesh/core/libmesh_core_nrf52832_xxAA.a(mesh_flash.c.obj)
 .text          0x00000000        0x0 mesh/core/libmesh_core_nrf52832_xxAA.a(queue.c.obj)
 .data          0x00000000        0x0 mesh/core/libmesh_core_nrf52832_xxAA.a(queue.c.obj)
 .bss           0x00000000        0x0 mesh/core/libmesh_core_nrf52832_xxAA.a(queue.c.obj)
 .text          0x00000000        0x0 mesh/core/libmesh_core_nrf52832_xxAA.a(aes_cmac.c.obj)
 .data          0x00000000        0x0 mesh/core/libmesh_core_nrf52832_xxAA.a(aes_cmac.c.obj)
 .bss           0x00000000        0x0 mesh/core/libmesh_core_nrf52832_xxAA.a(aes_cmac.c.obj)
 .text          0x00000000        0x0 mesh/core/libmesh_core_nrf52832_xxAA.a(msqueue.c.obj)
 .data          0x00000000        0x0 mesh/core/libmesh_core_nrf52832_xxAA.a(msqueue.c.obj)
 .bss           0x00000000        0x0 mesh/core/libmesh_core_nrf52832_xxAA.a(msqueue.c.obj)
 .text.msq_reset
                0x00000000       0x34 mesh/core/libmesh_core_nrf52832_xxAA.a(msqueue.c.obj)
 .text          0x00000000        0x0 mesh/core/libmesh_core_nrf52832_xxAA.a(replay_cache.c.obj)
 .data          0x00000000        0x0 mesh/core/libmesh_core_nrf52832_xxAA.a(replay_cache.c.obj)
 .bss           0x00000000        0x0 mesh/core/libmesh_core_nrf52832_xxAA.a(replay_cache.c.obj)
 .text.replay_cache_on_iv_update
                0x00000000       0x2c mesh/core/libmesh_core_nrf52832_xxAA.a(replay_cache.c.obj)
 .text.replay_cache_clear
                0x00000000       0x28 mesh/core/libmesh_core_nrf52832_xxAA.a(replay_cache.c.obj)
 .text          0x00000000        0x0 mesh/core/libmesh_core_nrf52832_xxAA.a(filter_engine.c.obj)
 .data          0x00000000        0x0 mesh/core/libmesh_core_nrf52832_xxAA.a(filter_engine.c.obj)
 .bss           0x00000000        0x0 mesh/core/libmesh_core_nrf52832_xxAA.a(filter_engine.c.obj)
 .text.fen_filter_start
                0x00000000       0x84 mesh/core/libmesh_core_nrf52832_xxAA.a(filter_engine.c.obj)
 .text.fen_filter_stop
                0x00000000       0x70 mesh/core/libmesh_core_nrf52832_xxAA.a(filter_engine.c.obj)
 .text.fen_accepted_amount_get
                0x00000000        0xc mesh/core/libmesh_core_nrf52832_xxAA.a(filter_engine.c.obj)
 .text          0x00000000        0x0 mesh/core/libmesh_core_nrf52832_xxAA.a(nrf_flash.c.obj)
 .data          0x00000000        0x0 mesh/core/libmesh_core_nrf52832_xxAA.a(nrf_flash.c.obj)
 .bss           0x00000000        0x0 mesh/core/libmesh_core_nrf52832_xxAA.a(nrf_flash.c.obj)
 .text          0x00000000        0x0 external/rtt/librtt_nrf52832_xxAA.a(SEGGER_RTT.c.obj)
 .data          0x00000000        0x0 external/rtt/librtt_nrf52832_xxAA.a(SEGGER_RTT.c.obj)
 .bss           0x00000000        0x0 external/rtt/librtt_nrf52832_xxAA.a(SEGGER_RTT.c.obj)
 .text.SEGGER_RTT_ReadNoLock
                0x00000000      0x100 external/rtt/librtt_nrf52832_xxAA.a(SEGGER_RTT.c.obj)
 .text.SEGGER_RTT_Read
                0x00000000      0x114 external/rtt/librtt_nrf52832_xxAA.a(SEGGER_RTT.c.obj)
 .text.SEGGER_RTT_WriteSkipNoLock
                0x00000000      0x184 external/rtt/librtt_nrf52832_xxAA.a(SEGGER_RTT.c.obj)
 .text.SEGGER_RTT_WriteNoLock
                0x00000000      0x188 external/rtt/librtt_nrf52832_xxAA.a(SEGGER_RTT.c.obj)
 .text.SEGGER_RTT_WriteString
                0x00000000      0x20c external/rtt/librtt_nrf52832_xxAA.a(SEGGER_RTT.c.obj)
 .text.SEGGER_RTT_WaitKey
                0x00000000      0x114 external/rtt/librtt_nrf52832_xxAA.a(SEGGER_RTT.c.obj)
 .text.SEGGER_RTT_HasKey
                0x00000000       0x6c external/rtt/librtt_nrf52832_xxAA.a(SEGGER_RTT.c.obj)
 .text.SEGGER_RTT_HasData
                0x00000000       0x18 external/rtt/librtt_nrf52832_xxAA.a(SEGGER_RTT.c.obj)
 .text.SEGGER_RTT_AllocDownBuffer
                0x00000000       0xbc external/rtt/librtt_nrf52832_xxAA.a(SEGGER_RTT.c.obj)
 .text.SEGGER_RTT_AllocUpBuffer
                0x00000000       0xd8 external/rtt/librtt_nrf52832_xxAA.a(SEGGER_RTT.c.obj)
 .text.SEGGER_RTT_ConfigUpBuffer
                0x00000000       0xd0 external/rtt/librtt_nrf52832_xxAA.a(SEGGER_RTT.c.obj)
 .text.SEGGER_RTT_ConfigDownBuffer
                0x00000000       0xb8 external/rtt/librtt_nrf52832_xxAA.a(SEGGER_RTT.c.obj)
 .text.SEGGER_RTT_SetNameUpBuffer
                0x00000000       0x90 external/rtt/librtt_nrf52832_xxAA.a(SEGGER_RTT.c.obj)
 .text.SEGGER_RTT_SetNameDownBuffer
                0x00000000       0x90 external/rtt/librtt_nrf52832_xxAA.a(SEGGER_RTT.c.obj)
 .text.SEGGER_RTT_Init
                0x00000000       0x60 external/rtt/librtt_nrf52832_xxAA.a(SEGGER_RTT.c.obj)
 .text.SEGGER_RTT_SetTerminal
                0x00000000      0x15c external/rtt/librtt_nrf52832_xxAA.a(SEGGER_RTT.c.obj)
 .text.SEGGER_RTT_TerminalOut
                0x00000000      0x40c external/rtt/librtt_nrf52832_xxAA.a(SEGGER_RTT.c.obj)
 .bss._ActiveTerminal
                0x00000000        0x1 external/rtt/librtt_nrf52832_xxAA.a(SEGGER_RTT.c.obj)
 .rodata._aTerminalId
                0x00000000       0x10 external/rtt/librtt_nrf52832_xxAA.a(SEGGER_RTT.c.obj)
 .text          0x00000000        0x0 external/rtt/librtt_nrf52832_xxAA.a(SEGGER_RTT_printf.c.obj)
 .data          0x00000000        0x0 external/rtt/librtt_nrf52832_xxAA.a(SEGGER_RTT_printf.c.obj)
 .bss           0x00000000        0x0 external/rtt/librtt_nrf52832_xxAA.a(SEGGER_RTT_printf.c.obj)
 .text          0x00000000        0x0 external/micro-ecc/libuECC_nrf52832_xxAA.a(uECC.c.obj)
 .data          0x00000000        0x0 external/micro-ecc/libuECC_nrf52832_xxAA.a(uECC.c.obj)
 .bss           0x00000000        0x0 external/micro-ecc/libuECC_nrf52832_xxAA.a(uECC.c.obj)
 .text.HMAC_finish
                0x00000000       0x70 external/micro-ecc/libuECC_nrf52832_xxAA.a(uECC.c.obj)
 .text.uECC_vli_mmod
                0x00000000      0x3c8 external/micro-ecc/libuECC_nrf52832_xxAA.a(uECC.c.obj)
 .text.uECC_vli_modSub.isra.2
                0x00000000       0x98 external/micro-ecc/libuECC_nrf52832_xxAA.a(uECC.c.obj)
 .text.bits2int
                0x00000000      0x14c external/micro-ecc/libuECC_nrf52832_xxAA.a(uECC.c.obj)
 .text.uECC_sign_with_k
                0x00000000      0x60c external/micro-ecc/libuECC_nrf52832_xxAA.a(uECC.c.obj)
 .text.uECC_set_rng
                0x00000000        0xc external/micro-ecc/libuECC_nrf52832_xxAA.a(uECC.c.obj)
 .text.uECC_get_rng
                0x00000000        0xc external/micro-ecc/libuECC_nrf52832_xxAA.a(uECC.c.obj)
 .text.uECC_curve_private_key_size
                0x00000000       0x10 external/micro-ecc/libuECC_nrf52832_xxAA.a(uECC.c.obj)
 .text.uECC_curve_public_key_size
                0x00000000        0x8 external/micro-ecc/libuECC_nrf52832_xxAA.a(uECC.c.obj)
 .text.uECC_compute_public_key
                0x00000000      0x2e4 external/micro-ecc/libuECC_nrf52832_xxAA.a(uECC.c.obj)
 .text.uECC_sign
                0x00000000       0x60 external/micro-ecc/libuECC_nrf52832_xxAA.a(uECC.c.obj)
 .text.uECC_sign_deterministic
                0x00000000      0x400 external/micro-ecc/libuECC_nrf52832_xxAA.a(uECC.c.obj)
 .text.uECC_verify
                0x00000000      0x95c external/micro-ecc/libuECC_nrf52832_xxAA.a(uECC.c.obj)
 .text          0x00000000        0x0 c:/a/gcc_arm/6/bin/../lib/gcc/arm-none-eabi/6.3.1/../../../../arm-none-eabi/lib/thumb/v7e-m/fpv4-sp/hard\libc_nano.a(lib_a-exit.o)
 .data          0x00000000        0x0 c:/a/gcc_arm/6/bin/../lib/gcc/arm-none-eabi/6.3.1/../../../../arm-none-eabi/lib/thumb/v7e-m/fpv4-sp/hard\libc_nano.a(lib_a-exit.o)
 .bss           0x00000000        0x0 c:/a/gcc_arm/6/bin/../lib/gcc/arm-none-eabi/6.3.1/../../../../arm-none-eabi/lib/thumb/v7e-m/fpv4-sp/hard\libc_nano.a(lib_a-exit.o)
 .text          0x00000000        0x0 c:/a/gcc_arm/6/bin/../lib/gcc/arm-none-eabi/6.3.1/../../../../arm-none-eabi/lib/thumb/v7e-m/fpv4-sp/hard\libc_nano.a(lib_a-impure.o)
 .data          0x00000000        0x0 c:/a/gcc_arm/6/bin/../lib/gcc/arm-none-eabi/6.3.1/../../../../arm-none-eabi/lib/thumb/v7e-m/fpv4-sp/hard\libc_nano.a(lib_a-impure.o)
 .bss           0x00000000        0x0 c:/a/gcc_arm/6/bin/../lib/gcc/arm-none-eabi/6.3.1/../../../../arm-none-eabi/lib/thumb/v7e-m/fpv4-sp/hard\libc_nano.a(lib_a-impure.o)
 .text          0x00000000        0x0 c:/a/gcc_arm/6/bin/../lib/gcc/arm-none-eabi/6.3.1/../../../../arm-none-eabi/lib/thumb/v7e-m/fpv4-sp/hard\libc_nano.a(lib_a-init.o)
 .data          0x00000000        0x0 c:/a/gcc_arm/6/bin/../lib/gcc/arm-none-eabi/6.3.1/../../../../arm-none-eabi/lib/thumb/v7e-m/fpv4-sp/hard\libc_nano.a(lib_a-init.o)
 .bss           0x00000000        0x0 c:/a/gcc_arm/6/bin/../lib/gcc/arm-none-eabi/6.3.1/../../../../arm-none-eabi/lib/thumb/v7e-m/fpv4-sp/hard\libc_nano.a(lib_a-init.o)
 .text          0x00000000        0x0 c:/a/gcc_arm/6/bin/../lib/gcc/arm-none-eabi/6.3.1/../../../../arm-none-eabi/lib/thumb/v7e-m/fpv4-sp/hard\libc_nano.a(lib_a-malloc.o)
 .data          0x00000000        0x0 c:/a/gcc_arm/6/bin/../lib/gcc/arm-none-eabi/6.3.1/../../../../arm-none-eabi/lib/thumb/v7e-m/fpv4-sp/hard\libc_nano.a(lib_a-malloc.o)
 .bss           0x00000000        0x0 c:/a/gcc_arm/6/bin/../lib/gcc/arm-none-eabi/6.3.1/../../../../arm-none-eabi/lib/thumb/v7e-m/fpv4-sp/hard\libc_nano.a(lib_a-malloc.o)
 .text          0x00000000        0x0 c:/a/gcc_arm/6/bin/../lib/gcc/arm-none-eabi/6.3.1/../../../../arm-none-eabi/lib/thumb/v7e-m/fpv4-sp/hard\libc_nano.a(lib_a-memcmp.o)
 .data          0x00000000        0x0 c:/a/gcc_arm/6/bin/../lib/gcc/arm-none-eabi/6.3.1/../../../../arm-none-eabi/lib/thumb/v7e-m/fpv4-sp/hard\libc_nano.a(lib_a-memcmp.o)
 .bss           0x00000000        0x0 c:/a/gcc_arm/6/bin/../lib/gcc/arm-none-eabi/6.3.1/../../../../arm-none-eabi/lib/thumb/v7e-m/fpv4-sp/hard\libc_nano.a(lib_a-memcmp.o)
 .text          0x00000000        0x0 c:/a/gcc_arm/6/bin/../lib/gcc/arm-none-eabi/6.3.1/../../../../arm-none-eabi/lib/thumb/v7e-m/fpv4-sp/hard\libc_nano.a(lib_a-memcpy-stub.o)
 .data          0x00000000        0x0 c:/a/gcc_arm/6/bin/../lib/gcc/arm-none-eabi/6.3.1/../../../../arm-none-eabi/lib/thumb/v7e-m/fpv4-sp/hard\libc_nano.a(lib_a-memcpy-stub.o)
 .bss           0x00000000        0x0 c:/a/gcc_arm/6/bin/../lib/gcc/arm-none-eabi/6.3.1/../../../../arm-none-eabi/lib/thumb/v7e-m/fpv4-sp/hard\libc_nano.a(lib_a-memcpy-stub.o)
 .text          0x00000000        0x0 c:/a/gcc_arm/6/bin/../lib/gcc/arm-none-eabi/6.3.1/../../../../arm-none-eabi/lib/thumb/v7e-m/fpv4-sp/hard\libc_nano.a(lib_a-memset.o)
 .data          0x00000000        0x0 c:/a/gcc_arm/6/bin/../lib/gcc/arm-none-eabi/6.3.1/../../../../arm-none-eabi/lib/thumb/v7e-m/fpv4-sp/hard\libc_nano.a(lib_a-memset.o)
 .bss           0x00000000        0x0 c:/a/gcc_arm/6/bin/../lib/gcc/arm-none-eabi/6.3.1/../../../../arm-none-eabi/lib/thumb/v7e-m/fpv4-sp/hard\libc_nano.a(lib_a-memset.o)
 .text          0x00000000        0x0 c:/a/gcc_arm/6/bin/../lib/gcc/arm-none-eabi/6.3.1/../../../../arm-none-eabi/lib/thumb/v7e-m/fpv4-sp/hard\libc_nano.a(lib_a-nano-freer.o)
 .data          0x00000000        0x0 c:/a/gcc_arm/6/bin/../lib/gcc/arm-none-eabi/6.3.1/../../../../arm-none-eabi/lib/thumb/v7e-m/fpv4-sp/hard\libc_nano.a(lib_a-nano-freer.o)
 .bss           0x00000000        0x0 c:/a/gcc_arm/6/bin/../lib/gcc/arm-none-eabi/6.3.1/../../../../arm-none-eabi/lib/thumb/v7e-m/fpv4-sp/hard\libc_nano.a(lib_a-nano-freer.o)
 .text          0x00000000        0x0 c:/a/gcc_arm/6/bin/../lib/gcc/arm-none-eabi/6.3.1/../../../../arm-none-eabi/lib/thumb/v7e-m/fpv4-sp/hard\libc_nano.a(lib_a-nano-mallocr.o)
 .data          0x00000000        0x0 c:/a/gcc_arm/6/bin/../lib/gcc/arm-none-eabi/6.3.1/../../../../arm-none-eabi/lib/thumb/v7e-m/fpv4-sp/hard\libc_nano.a(lib_a-nano-mallocr.o)
 .bss           0x00000000        0x0 c:/a/gcc_arm/6/bin/../lib/gcc/arm-none-eabi/6.3.1/../../../../arm-none-eabi/lib/thumb/v7e-m/fpv4-sp/hard\libc_nano.a(lib_a-nano-mallocr.o)
 .text          0x00000000        0x0 c:/a/gcc_arm/6/bin/../lib/gcc/arm-none-eabi/6.3.1/../../../../arm-none-eabi/lib/thumb/v7e-m/fpv4-sp/hard\libc_nano.a(lib_a-sbrkr.o)
 .data          0x00000000        0x0 c:/a/gcc_arm/6/bin/../lib/gcc/arm-none-eabi/6.3.1/../../../../arm-none-eabi/lib/thumb/v7e-m/fpv4-sp/hard\libc_nano.a(lib_a-sbrkr.o)
 .bss           0x00000000        0x0 c:/a/gcc_arm/6/bin/../lib/gcc/arm-none-eabi/6.3.1/../../../../arm-none-eabi/lib/thumb/v7e-m/fpv4-sp/hard\libc_nano.a(lib_a-sbrkr.o)
 .text          0x00000000        0x0 c:/a/gcc_arm/6/bin/../lib/gcc/arm-none-eabi/6.3.1/../../../../arm-none-eabi/lib/thumb/v7e-m/fpv4-sp/hard\libc_nano.a(lib_a-strcpy.o)
 .data          0x00000000        0x0 c:/a/gcc_arm/6/bin/../lib/gcc/arm-none-eabi/6.3.1/../../../../arm-none-eabi/lib/thumb/v7e-m/fpv4-sp/hard\libc_nano.a(lib_a-strcpy.o)
 .bss           0x00000000        0x0 c:/a/gcc_arm/6/bin/../lib/gcc/arm-none-eabi/6.3.1/../../../../arm-none-eabi/lib/thumb/v7e-m/fpv4-sp/hard\libc_nano.a(lib_a-strcpy.o)
 .data          0x00000000        0x0 c:/a/gcc_arm/6/bin/../lib/gcc/arm-none-eabi/6.3.1/../../../../arm-none-eabi/lib/thumb/v7e-m/fpv4-sp/hard\libc_nano.a(lib_a-strlen.o)
 .bss           0x00000000        0x0 c:/a/gcc_arm/6/bin/../lib/gcc/arm-none-eabi/6.3.1/../../../../arm-none-eabi/lib/thumb/v7e-m/fpv4-sp/hard\libc_nano.a(lib_a-strlen.o)
 .text          0x00000000        0x0 c:/a/gcc_arm/6/bin/../lib/gcc/arm-none-eabi/6.3.1/../../../../arm-none-eabi/lib/thumb/v7e-m/fpv4-sp/hard\libc_nano.a(lib_a-strrchr.o)
 .data          0x00000000        0x0 c:/a/gcc_arm/6/bin/../lib/gcc/arm-none-eabi/6.3.1/../../../../arm-none-eabi/lib/thumb/v7e-m/fpv4-sp/hard\libc_nano.a(lib_a-strrchr.o)
 .bss           0x00000000        0x0 c:/a/gcc_arm/6/bin/../lib/gcc/arm-none-eabi/6.3.1/../../../../arm-none-eabi/lib/thumb/v7e-m/fpv4-sp/hard\libc_nano.a(lib_a-strrchr.o)
 .text          0x00000000        0x0 c:/a/gcc_arm/6/bin/../lib/gcc/arm-none-eabi/6.3.1/../../../../arm-none-eabi/lib/thumb/v7e-m/fpv4-sp/hard\libc_nano.a(lib_a-mlock.o)
 .data          0x00000000        0x0 c:/a/gcc_arm/6/bin/../lib/gcc/arm-none-eabi/6.3.1/../../../../arm-none-eabi/lib/thumb/v7e-m/fpv4-sp/hard\libc_nano.a(lib_a-mlock.o)
 .bss           0x00000000        0x0 c:/a/gcc_arm/6/bin/../lib/gcc/arm-none-eabi/6.3.1/../../../../arm-none-eabi/lib/thumb/v7e-m/fpv4-sp/hard\libc_nano.a(lib_a-mlock.o)
 .text          0x00000000        0x0 c:/a/gcc_arm/6/bin/../lib/gcc/arm-none-eabi/6.3.1/../../../../arm-none-eabi/lib/thumb/v7e-m/fpv4-sp/hard\libc_nano.a(lib_a-reent.o)
 .data          0x00000000        0x0 c:/a/gcc_arm/6/bin/../lib/gcc/arm-none-eabi/6.3.1/../../../../arm-none-eabi/lib/thumb/v7e-m/fpv4-sp/hard\libc_nano.a(lib_a-reent.o)
 .bss           0x00000000        0x0 c:/a/gcc_arm/6/bin/../lib/gcc/arm-none-eabi/6.3.1/../../../../arm-none-eabi/lib/thumb/v7e-m/fpv4-sp/hard\libc_nano.a(lib_a-reent.o)
 .text.cleanup_glue
                0x00000000       0x1a c:/a/gcc_arm/6/bin/../lib/gcc/arm-none-eabi/6.3.1/../../../../arm-none-eabi/lib/thumb/v7e-m/fpv4-sp/hard\libc_nano.a(lib_a-reent.o)
 .text._reclaim_reent
                0x00000000       0xb8 c:/a/gcc_arm/6/bin/../lib/gcc/arm-none-eabi/6.3.1/../../../../arm-none-eabi/lib/thumb/v7e-m/fpv4-sp/hard\libc_nano.a(lib_a-reent.o)
 .text          0x00000000        0x0 c:/a/gcc_arm/6/bin/../lib/gcc/arm-none-eabi/6.3.1/../../../../arm-none-eabi/lib/thumb/v7e-m/fpv4-sp/hard\libc_nano.a(lib_a-strchr.o)
 .data          0x00000000        0x0 c:/a/gcc_arm/6/bin/../lib/gcc/arm-none-eabi/6.3.1/../../../../arm-none-eabi/lib/thumb/v7e-m/fpv4-sp/hard\libc_nano.a(lib_a-strchr.o)
 .bss           0x00000000        0x0 c:/a/gcc_arm/6/bin/../lib/gcc/arm-none-eabi/6.3.1/../../../../arm-none-eabi/lib/thumb/v7e-m/fpv4-sp/hard\libc_nano.a(lib_a-strchr.o)
 .text          0x00000000        0x0 c:/a/gcc_arm/6/bin/../lib/gcc/arm-none-eabi/6.3.1/thumb/v7e-m/fpv4-sp/hard/crtend.o
 .data          0x00000000        0x0 c:/a/gcc_arm/6/bin/../lib/gcc/arm-none-eabi/6.3.1/thumb/v7e-m/fpv4-sp/hard/crtend.o
 .bss           0x00000000        0x0 c:/a/gcc_arm/6/bin/../lib/gcc/arm-none-eabi/6.3.1/thumb/v7e-m/fpv4-sp/hard/crtend.o
 .text          0x00000000        0x0 c:/a/gcc_arm/6/bin/../lib/gcc/arm-none-eabi/6.3.1/thumb/v7e-m/fpv4-sp/hard/crtn.o
 .data          0x00000000        0x0 c:/a/gcc_arm/6/bin/../lib/gcc/arm-none-eabi/6.3.1/thumb/v7e-m/fpv4-sp/hard/crtn.o
 .bss           0x00000000        0x0 c:/a/gcc_arm/6/bin/../lib/gcc/arm-none-eabi/6.3.1/thumb/v7e-m/fpv4-sp/hard/crtn.o
 .text          0x00000000        0x0 c:/a/gcc_arm/6/bin/../lib/gcc/arm-none-eabi/6.3.1/../../../../arm-none-eabi/lib/thumb/v7e-m/fpv4-sp/hard\libnosys.a(sbrk.o)
 .data          0x00000000        0x0 c:/a/gcc_arm/6/bin/../lib/gcc/arm-none-eabi/6.3.1/../../../../arm-none-eabi/lib/thumb/v7e-m/fpv4-sp/hard\libnosys.a(sbrk.o)
 .bss           0x00000000        0x0 c:/a/gcc_arm/6/bin/../lib/gcc/arm-none-eabi/6.3.1/../../../../arm-none-eabi/lib/thumb/v7e-m/fpv4-sp/hard\libnosys.a(sbrk.o)
 .text          0x00000000        0x0 c:/a/gcc_arm/6/bin/../lib/gcc/arm-none-eabi/6.3.1/../../../../arm-none-eabi/lib/thumb/v7e-m/fpv4-sp/hard\libnosys.a(_exit.o)
 .data          0x00000000        0x0 c:/a/gcc_arm/6/bin/../lib/gcc/arm-none-eabi/6.3.1/../../../../arm-none-eabi/lib/thumb/v7e-m/fpv4-sp/hard\libnosys.a(_exit.o)
 .bss           0x00000000        0x0 c:/a/gcc_arm/6/bin/../lib/gcc/arm-none-eabi/6.3.1/../../../../arm-none-eabi/lib/thumb/v7e-m/fpv4-sp/hard\libnosys.a(_exit.o)

Memory Configuration

Name             Origin             Length             Attributes
FLASH            0x00023000         0x0005d000         xr
RAM              0x200031b0         0x0000ce50         xrw
*default*        0x00000000         0xffffffff

Linker script and memory map

LOAD c:/a/gcc_arm/6/bin/../lib/gcc/arm-none-eabi/6.3.1/thumb/v7e-m/fpv4-sp/hard/crti.o
LOAD c:/a/gcc_arm/6/bin/../lib/gcc/arm-none-eabi/6.3.1/thumb/v7e-m/fpv4-sp/hard/crtbegin.o
LOAD c:/a/gcc_arm/6/bin/../lib/gcc/arm-none-eabi/6.3.1/../../../../arm-none-eabi/lib/thumb/v7e-m/fpv4-sp/hard/crt0.o
LOAD examples/light_switch/client/CMakeFiles/light_switch_client_nrf52832_xxAA_s132_5.0.0.dir/src/main.c.obj
LOAD examples/light_switch/client/CMakeFiles/light_switch_client_nrf52832_xxAA_s132_5.0.0.dir/src/provisioner.c.obj
LOAD examples/light_switch/client/CMakeFiles/light_switch_client_nrf52832_xxAA_s132_5.0.0.dir/__/__/nrf_mesh_sdk.c.obj
LOAD examples/light_switch/client/CMakeFiles/light_switch_client_nrf52832_xxAA_s132_5.0.0.dir/__/__/hal/src/simple_hal.c.obj
LOAD examples/light_switch/client/CMakeFiles/light_switch_client_nrf52832_xxAA_s132_5.0.0.dir/__/__/nrf_mesh_weak.c.obj
LOAD examples/light_switch/client/CMakeFiles/light_switch_client_nrf52832_xxAA_s132_5.0.0.dir/__/__/__/models/simple_on_off/src/simple_on_off_client.c.obj
LOAD examples/light_switch/client/CMakeFiles/light_switch_client_nrf52832_xxAA_s132_5.0.0.dir/__/__/__/models/config/src/config_client.c.obj
LOAD examples/light_switch/client/CMakeFiles/light_switch_client_nrf52832_xxAA_s132_5.0.0.dir/__/__/__/models/health/src/health_client.c.obj
LOAD examples/light_switch/client/CMakeFiles/light_switch_client_nrf52832_xxAA_s132_5.0.0.dir/__/__/__/mesh/access/src/access_publish.c.obj
LOAD examples/light_switch/client/CMakeFiles/light_switch_client_nrf52832_xxAA_s132_5.0.0.dir/__/__/__/mesh/access/src/access.c.obj
LOAD examples/light_switch/client/CMakeFiles/light_switch_client_nrf52832_xxAA_s132_5.0.0.dir/__/__/__/mesh/access/src/access_reliable.c.obj
LOAD examples/light_switch/client/CMakeFiles/light_switch_client_nrf52832_xxAA_s132_5.0.0.dir/__/__/__/mesh/access/src/device_state_manager.c.obj
LOAD examples/light_switch/client/CMakeFiles/light_switch_client_nrf52832_xxAA_s132_5.0.0.dir/__/__/__/mesh/prov/src/prov_provisioner.c.obj
LOAD examples/light_switch/client/CMakeFiles/light_switch_client_nrf52832_xxAA_s132_5.0.0.dir/__/__/__/mesh/prov/src/nrf_mesh_prov.c.obj
LOAD examples/light_switch/client/CMakeFiles/light_switch_client_nrf52832_xxAA_s132_5.0.0.dir/__/__/__/mesh/prov/src/provisioning.c.obj
LOAD examples/light_switch/client/CMakeFiles/light_switch_client_nrf52832_xxAA_s132_5.0.0.dir/__/__/__/mesh/prov/src/prov_beacon.c.obj
LOAD examples/light_switch/client/CMakeFiles/light_switch_client_nrf52832_xxAA_s132_5.0.0.dir/__/__/__/mesh/prov/src/prov_utils.c.obj
LOAD examples/light_switch/client/CMakeFiles/light_switch_client_nrf52832_xxAA_s132_5.0.0.dir/__/__/__/mesh/prov/src/prov_bearer_adv.c.obj
LOAD examples/light_switch/client/CMakeFiles/light_switch_client_nrf52832_xxAA_s132_5.0.0.dir/__/__/__/external/nRF5_SDK_14.0.0_3bcc1f7/components/toolchain/system_nrf52.c.obj
LOAD examples/light_switch/client/CMakeFiles/light_switch_client_nrf52832_xxAA_s132_5.0.0.dir/__/__/__/external/nRF5_SDK_14.0.0_3bcc1f7/components/toolchain/gcc/gcc_startup_nrf52.S.obj
LOAD mesh/core/libmesh_core_nrf52832_xxAA.a
LOAD external/rtt/librtt_nrf52832_xxAA.a
LOAD external/micro-ecc/libuECC_nrf52832_xxAA.a
START GROUP
LOAD c:/a/gcc_arm/6/bin/../lib/gcc/arm-none-eabi/6.3.1/thumb/v7e-m/fpv4-sp/hard\libgcc.a
LOAD c:/a/gcc_arm/6/bin/../lib/gcc/arm-none-eabi/6.3.1/../../../../arm-none-eabi/lib/thumb/v7e-m/fpv4-sp/hard\libc_nano.a
END GROUP
START GROUP
LOAD c:/a/gcc_arm/6/bin/../lib/gcc/arm-none-eabi/6.3.1/thumb/v7e-m/fpv4-sp/hard\libgcc.a
LOAD c:/a/gcc_arm/6/bin/../lib/gcc/arm-none-eabi/6.3.1/../../../../arm-none-eabi/lib/thumb/v7e-m/fpv4-sp/hard\libc_nano.a
END GROUP
LOAD c:/a/gcc_arm/6/bin/../lib/gcc/arm-none-eabi/6.3.1/thumb/v7e-m/fpv4-sp/hard/crtend.o
LOAD c:/a/gcc_arm/6/bin/../lib/gcc/arm-none-eabi/6.3.1/thumb/v7e-m/fpv4-sp/hard/crtn.o
START GROUP
LOAD c:/a/gcc_arm/6/bin/../lib/gcc/arm-none-eabi/6.3.1/thumb/v7e-m/fpv4-sp/hard\libgcc.a
LOAD c:/a/gcc_arm/6/bin/../lib/gcc/arm-none-eabi/6.3.1/../../../../arm-none-eabi/lib/thumb/v7e-m/fpv4-sp/hard\libc.a
LOAD c:/a/gcc_arm/6/bin/../lib/gcc/arm-none-eabi/6.3.1/../../../../arm-none-eabi/lib/thumb/v7e-m/fpv4-sp/hard\libnosys.a
END GROUP

.text           0x00023000    0x18788
 *(.isr_vector)
 .isr_vector    0x00023000      0x200 examples/light_switch/client/CMakeFiles/light_switch_client_nrf52832_xxAA_s132_5.0.0.dir/__/__/__/external/nRF5_SDK_14.0.0_3bcc1f7/components/toolchain/gcc/gcc_startup_nrf52.S.obj
                0x00023000                __isr_vector
 *(.text*)
 .text          0x00023200       0x6c c:/a/gcc_arm/6/bin/../lib/gcc/arm-none-eabi/6.3.1/thumb/v7e-m/fpv4-sp/hard/crtbegin.o
 .text          0x0002326c       0x74 c:/a/gcc_arm/6/bin/../lib/gcc/arm-none-eabi/6.3.1/../../../../arm-none-eabi/lib/thumb/v7e-m/fpv4-sp/hard/crt0.o
                0x0002326c                _start
                0x0002326c                _mainCRTStartup
 .text.client_status_cb
                0x000232e0       0xac examples/light_switch/client/CMakeFiles/light_switch_client_nrf52832_xxAA_s132_5.0.0.dir/src/main.c.obj
 .text.button_event_handler
                0x0002338c      0x218 examples/light_switch/client/CMakeFiles/light_switch_client_nrf52832_xxAA_s132_5.0.0.dir/src/main.c.obj
 .text.health_event_cb
                0x000235a4       0x88 examples/light_switch/client/CMakeFiles/light_switch_client_nrf52832_xxAA_s132_5.0.0.dir/src/main.c.obj
 .text.provisioner_config_successful_cb
                0x0002362c      0x148 examples/light_switch/client/CMakeFiles/light_switch_client_nrf52832_xxAA_s132_5.0.0.dir/src/main.c.obj
                0x0002362c                provisioner_config_successful_cb
 .text.provisioner_config_failed_cb
                0x00023774       0xcc examples/light_switch/client/CMakeFiles/light_switch_client_nrf52832_xxAA_s132_5.0.0.dir/src/main.c.obj
                0x00023774                provisioner_config_failed_cb
 .text.provisioner_prov_complete_cb
                0x00023840      0x130 examples/light_switch/client/CMakeFiles/light_switch_client_nrf52832_xxAA_s132_5.0.0.dir/src/main.c.obj
                0x00023840                provisioner_prov_complete_cb
 .text.startup.main
                0x00023970      0x688 examples/light_switch/client/CMakeFiles/light_switch_client_nrf52832_xxAA_s132_5.0.0.dir/src/main.c.obj
                0x00023970                main
 .text.do_config_step
                0x00023ff8      0x448 examples/light_switch/client/CMakeFiles/light_switch_client_nrf52832_xxAA_s132_5.0.0.dir/src/provisioner.c.obj
 .text.mesh_evt_handler
                0x00024440      0x378 examples/light_switch/client/CMakeFiles/light_switch_client_nrf52832_xxAA_s132_5.0.0.dir/src/provisioner.c.obj
 .text.provisioner_configure
                0x000247b8       0x20 examples/light_switch/client/CMakeFiles/light_switch_client_nrf52832_xxAA_s132_5.0.0.dir/src/provisioner.c.obj
                0x000247b8                provisioner_configure
 .text.provisioner_wait_for_unprov
                0x000247d8       0x14 examples/light_switch/client/CMakeFiles/light_switch_client_nrf52832_xxAA_s132_5.0.0.dir/src/provisioner.c.obj
                0x000247d8                provisioner_wait_for_unprov
 .text.config_client_event_cb
                0x000247ec      0x230 examples/light_switch/client/CMakeFiles/light_switch_client_nrf52832_xxAA_s132_5.0.0.dir/src/provisioner.c.obj
                0x000247ec                config_client_event_cb
 .text.provisioner_init
                0x00024a1c       0x48 examples/light_switch/client/CMakeFiles/light_switch_client_nrf52832_xxAA_s132_5.0.0.dir/src/provisioner.c.obj
                0x00024a1c                provisioner_init
 .text.sd_evt_get
                0x00024a64        0x4 examples/light_switch/client/CMakeFiles/light_switch_client_nrf52832_xxAA_s132_5.0.0.dir/__/__/nrf_mesh_sdk.c.obj
 .text.sd_softdevice_enable
                0x00024a68        0x4 examples/light_switch/client/CMakeFiles/light_switch_client_nrf52832_xxAA_s132_5.0.0.dir/__/__/nrf_mesh_sdk.c.obj
 .text.sd_ble_enable
                0x00024a6c        0x4 examples/light_switch/client/CMakeFiles/light_switch_client_nrf52832_xxAA_s132_5.0.0.dir/__/__/nrf_mesh_sdk.c.obj
 .text.sd_ble_evt_get
                0x00024a70        0x4 examples/light_switch/client/CMakeFiles/light_switch_client_nrf52832_xxAA_s132_5.0.0.dir/__/__/nrf_mesh_sdk.c.obj
 .text.mesh_assert_handler
                0x00024a74       0x80 examples/light_switch/client/CMakeFiles/light_switch_client_nrf52832_xxAA_s132_5.0.0.dir/__/__/nrf_mesh_sdk.c.obj
                0x00024a74                mesh_assert_handler
 .text.softdevice_assert_handler
                0x00024af4       0x94 examples/light_switch/client/CMakeFiles/light_switch_client_nrf52832_xxAA_s132_5.0.0.dir/__/__/nrf_mesh_sdk.c.obj
                0x00024af4                softdevice_assert_handler
 .text.app_error_handler
                0x00024b88       0x88 examples/light_switch/client/CMakeFiles/light_switch_client_nrf52832_xxAA_s132_5.0.0.dir/__/__/nrf_mesh_sdk.c.obj
                0x00024b88                app_error_handler
 .text.HardFault_Handler
                0x00024c10       0x78 examples/light_switch/client/CMakeFiles/light_switch_client_nrf52832_xxAA_s132_5.0.0.dir/__/__/nrf_mesh_sdk.c.obj
                0x00024c10                HardFault_Handler
 .text.SWI2_EGU2_IRQHandler
                0x00024c88       0x40 examples/light_switch/client/CMakeFiles/light_switch_client_nrf52832_xxAA_s132_5.0.0.dir/__/__/nrf_mesh_sdk.c.obj
                0x00024c88                SWI2_EGU2_IRQHandler
 .text.mesh_softdevice_enable
                0x00024cc8      0x14c examples/light_switch/client/CMakeFiles/light_switch_client_nrf52832_xxAA_s132_5.0.0.dir/__/__/nrf_mesh_sdk.c.obj
                0x00024cc8                mesh_softdevice_enable
 .text.mesh_core_setup
                0x00024e14      0x1c8 examples/light_switch/client/CMakeFiles/light_switch_client_nrf52832_xxAA_s132_5.0.0.dir/__/__/nrf_mesh_sdk.c.obj
                0x00024e14                mesh_core_setup
 .text.hal_led_pin_get
                0x00024fdc       0x18 examples/light_switch/client/CMakeFiles/light_switch_client_nrf52832_xxAA_s132_5.0.0.dir/__/__/hal/src/simple_hal.c.obj
                0x00024fdc                hal_led_pin_get
 .text.hal_led_pin_set
                0x00024ff4       0x18 examples/light_switch/client/CMakeFiles/light_switch_client_nrf52832_xxAA_s132_5.0.0.dir/__/__/hal/src/simple_hal.c.obj
                0x00024ff4                hal_led_pin_set
 .text.hal_led_blink_ms
                0x0002500c       0xb8 examples/light_switch/client/CMakeFiles/light_switch_client_nrf52832_xxAA_s132_5.0.0.dir/__/__/hal/src/simple_hal.c.obj
                0x0002500c                hal_led_blink_ms
 .text.hal_leds_init
                0x000250c4       0x3c examples/light_switch/client/CMakeFiles/light_switch_client_nrf52832_xxAA_s132_5.0.0.dir/__/__/hal/src/simple_hal.c.obj
                0x000250c4                hal_leds_init
 .text.hal_buttons_init
                0x00025100       0x54 examples/light_switch/client/CMakeFiles/light_switch_client_nrf52832_xxAA_s132_5.0.0.dir/__/__/hal/src/simple_hal.c.obj
                0x00025100                hal_buttons_init
 .text.GPIOTE_IRQHandler
                0x00025154      0x114 examples/light_switch/client/CMakeFiles/light_switch_client_nrf52832_xxAA_s132_5.0.0.dir/__/__/hal/src/simple_hal.c.obj
                0x00025154                GPIOTE_IRQHandler
 .text._weak_handler
                0x00025268        0x4 examples/light_switch/client/CMakeFiles/light_switch_client_nrf52832_xxAA_s132_5.0.0.dir/__/__/nrf_mesh_weak.c.obj
                0x00025268                nrf_mesh_dfu_init
                0x00025268                nrf_mesh_dfu_jump_to_bootloader
                0x00025268                nrf_mesh_dfu_rx
                0x00025268                nrf_mesh_dfu_bank_info_get
                0x00025268                nrf_mesh_dfu_request
                0x00025268                nrf_mesh_dfu_bank_flash
                0x00025268                _weak_handler
                0x00025268                prov_provisionee_auth_data
                0x00025268                nrf_mesh_dfu_relay
                0x00025268                prov_provisionee_shared_secret
                0x00025268                nrf_mesh_dfu_abort
                0x00025268                mesh_flash_op_execute
                0x00025268                prov_provisionee_init
                0x00025268                nrf_mesh_dfu_state_get
 .text.reliable_status_cb
                0x0002526c       0x58 examples/light_switch/client/CMakeFiles/light_switch_client_nrf52832_xxAA_s132_5.0.0.dir/__/__/__/models/simple_on_off/src/simple_on_off_client.c.obj
 .text.handle_status_cb
                0x000252c4       0x60 examples/light_switch/client/CMakeFiles/light_switch_client_nrf52832_xxAA_s132_5.0.0.dir/__/__/__/models/simple_on_off/src/simple_on_off_client.c.obj
 .text.simple_on_off_client_init
                0x00025324       0x40 examples/light_switch/client/CMakeFiles/light_switch_client_nrf52832_xxAA_s132_5.0.0.dir/__/__/__/models/simple_on_off/src/simple_on_off_client.c.obj
                0x00025324                simple_on_off_client_init
 .text.simple_on_off_client_set
                0x00025364       0x6c examples/light_switch/client/CMakeFiles/light_switch_client_nrf52832_xxAA_s132_5.0.0.dir/__/__/__/models/simple_on_off/src/simple_on_off_client.c.obj
                0x00025364                simple_on_off_client_set
 .text.simple_on_off_client_set_unreliable
                0x000253d0       0x54 examples/light_switch/client/CMakeFiles/light_switch_client_nrf52832_xxAA_s132_5.0.0.dir/__/__/__/models/simple_on_off/src/simple_on_off_client.c.obj
                0x000253d0                simple_on_off_client_set_unreliable
 .text.config_opcode_handler
                0x00025424       0xf4 examples/light_switch/client/CMakeFiles/light_switch_client_nrf52832_xxAA_s132_5.0.0.dir/__/__/__/models/config/src/config_client.c.obj
 .text.reliable_status_cb
                0x00025518       0x38 examples/light_switch/client/CMakeFiles/light_switch_client_nrf52832_xxAA_s132_5.0.0.dir/__/__/__/models/config/src/config_client.c.obj
 .text.config_client_init
                0x00025550       0x64 examples/light_switch/client/CMakeFiles/light_switch_client_nrf52832_xxAA_s132_5.0.0.dir/__/__/__/models/config/src/config_client.c.obj
                0x00025550                config_client_init
 .text.config_client_server_set
                0x000255b4       0xac examples/light_switch/client/CMakeFiles/light_switch_client_nrf52832_xxAA_s132_5.0.0.dir/__/__/__/models/config/src/config_client.c.obj
                0x000255b4                config_client_server_set
 .text.config_client_server_bind
                0x00025660       0x34 examples/light_switch/client/CMakeFiles/light_switch_client_nrf52832_xxAA_s132_5.0.0.dir/__/__/__/models/config/src/config_client.c.obj
                0x00025660                config_client_server_bind
 .text.config_client_composition_data_get
                0x00025694       0xc0 examples/light_switch/client/CMakeFiles/light_switch_client_nrf52832_xxAA_s132_5.0.0.dir/__/__/__/models/config/src/config_client.c.obj
                0x00025694                config_client_composition_data_get
 .text.config_client_appkey_add
                0x00025754       0xfc examples/light_switch/client/CMakeFiles/light_switch_client_nrf52832_xxAA_s132_5.0.0.dir/__/__/__/models/config/src/config_client.c.obj
                0x00025754                config_client_appkey_add
 .text.config_client_model_publication_set
                0x00025850      0x220 examples/light_switch/client/CMakeFiles/light_switch_client_nrf52832_xxAA_s132_5.0.0.dir/__/__/__/models/config/src/config_client.c.obj
                0x00025850                config_client_model_publication_set
 .text.config_client_model_subscription_add
                0x00025a70      0x194 examples/light_switch/client/CMakeFiles/light_switch_client_nrf52832_xxAA_s132_5.0.0.dir/__/__/__/models/config/src/config_client.c.obj
                0x00025a70                config_client_model_subscription_add
 .text.config_client_model_app_bind
                0x00025c04       0xe4 examples/light_switch/client/CMakeFiles/light_switch_client_nrf52832_xxAA_s132_5.0.0.dir/__/__/__/models/config/src/config_client.c.obj
                0x00025c04                config_client_model_app_bind
 .text.handle_fault_status
                0x00025ce8       0x4c examples/light_switch/client/CMakeFiles/light_switch_client_nrf52832_xxAA_s132_5.0.0.dir/__/__/__/models/health/src/health_client.c.obj
 .text.handle_period_status
                0x00025d34       0x2c examples/light_switch/client/CMakeFiles/light_switch_client_nrf52832_xxAA_s132_5.0.0.dir/__/__/__/models/health/src/health_client.c.obj
 .text.handle_attention_status
                0x00025d60       0x2c examples/light_switch/client/CMakeFiles/light_switch_client_nrf52832_xxAA_s132_5.0.0.dir/__/__/__/models/health/src/health_client.c.obj
 .text.health_client_init
                0x00025d8c       0x54 examples/light_switch/client/CMakeFiles/light_switch_client_nrf52832_xxAA_s132_5.0.0.dir/__/__/__/models/health/src/health_client.c.obj
                0x00025d8c                health_client_init
 .text.add_to_publication_list
                0x00025de0       0x8c examples/light_switch/client/CMakeFiles/light_switch_client_nrf52832_xxAA_s132_5.0.0.dir/__/__/__/mesh/access/src/access_publish.c.obj
 .text.schedule_publication_timer
                0x00025e6c      0x2f4 examples/light_switch/client/CMakeFiles/light_switch_client_nrf52832_xxAA_s132_5.0.0.dir/__/__/__/mesh/access/src/access_publish.c.obj
 .text.publish_timer_tick
                0x00026160       0xd0 examples/light_switch/client/CMakeFiles/light_switch_client_nrf52832_xxAA_s132_5.0.0.dir/__/__/__/mesh/access/src/access_publish.c.obj
 .text.access_publish_init
                0x00026230       0x38 examples/light_switch/client/CMakeFiles/light_switch_client_nrf52832_xxAA_s132_5.0.0.dir/__/__/__/mesh/access/src/access_publish.c.obj
                0x00026230                access_publish_init
 .text.flash_invalidate_complete
                0x00026268       0x14 examples/light_switch/client/CMakeFiles/light_switch_client_nrf52832_xxAA_s132_5.0.0.dir/__/__/__/mesh/access/src/access.c.obj
 .text.flash_manager_mem_available
                0x0002627c        0x4 examples/light_switch/client/CMakeFiles/light_switch_client_nrf52832_xxAA_s132_5.0.0.dir/__/__/__/mesh/access/src/access.c.obj
 .text.access_flash_config_clear
                0x00026280       0x28 examples/light_switch/client/CMakeFiles/light_switch_client_nrf52832_xxAA_s132_5.0.0.dir/__/__/__/mesh/access/src/access.c.obj
 .text.access_flash_config_store
                0x000262a8      0x154 examples/light_switch/client/CMakeFiles/light_switch_client_nrf52832_xxAA_s132_5.0.0.dir/__/__/__/mesh/access/src/access.c.obj
                0x000262a8                access_flash_config_store
 .text.handle_incoming
                0x000263fc      0x1b4 examples/light_switch/client/CMakeFiles/light_switch_client_nrf52832_xxAA_s132_5.0.0.dir/__/__/__/mesh/access/src/access.c.obj
 .text.mesh_evt_cb
                0x000265b0      0x15c examples/light_switch/client/CMakeFiles/light_switch_client_nrf52832_xxAA_s132_5.0.0.dir/__/__/__/mesh/access/src/access.c.obj
 .text.add_flash_manager
                0x0002670c       0x58 examples/light_switch/client/CMakeFiles/light_switch_client_nrf52832_xxAA_s132_5.0.0.dir/__/__/__/mesh/access/src/access.c.obj
 .text.flash_write_complete
                0x00026764       0x58 examples/light_switch/client/CMakeFiles/light_switch_client_nrf52832_xxAA_s132_5.0.0.dir/__/__/__/mesh/access/src/access.c.obj
 .text.flash_remove_complete
                0x000267bc      0x14c examples/light_switch/client/CMakeFiles/light_switch_client_nrf52832_xxAA_s132_5.0.0.dir/__/__/__/mesh/access/src/access.c.obj
 .text.access_flash_config_load
                0x00026908      0x338 examples/light_switch/client/CMakeFiles/light_switch_client_nrf52832_xxAA_s132_5.0.0.dir/__/__/__/mesh/access/src/access.c.obj
                0x00026908                access_flash_config_load
 .text.access_init
                0x00026c40       0xd0 examples/light_switch/client/CMakeFiles/light_switch_client_nrf52832_xxAA_s132_5.0.0.dir/__/__/__/mesh/access/src/access.c.obj
                0x00026c40                access_init
 .text.access_model_add
                0x00026d10      0x2d0 examples/light_switch/client/CMakeFiles/light_switch_client_nrf52832_xxAA_s132_5.0.0.dir/__/__/__/mesh/access/src/access.c.obj
                0x00026d10                access_model_add
 .text.access_model_publish
                0x00026fe0      0x2d8 examples/light_switch/client/CMakeFiles/light_switch_client_nrf52832_xxAA_s132_5.0.0.dir/__/__/__/mesh/access/src/access.c.obj
                0x00026fe0                access_model_publish
 .text.access_model_publish_address_set
                0x000272b8       0x3c examples/light_switch/client/CMakeFiles/light_switch_client_nrf52832_xxAA_s132_5.0.0.dir/__/__/__/mesh/access/src/access.c.obj
                0x000272b8                access_model_publish_address_set
 .text.access_model_publish_address_get
                0x000272f4       0x2c examples/light_switch/client/CMakeFiles/light_switch_client_nrf52832_xxAA_s132_5.0.0.dir/__/__/__/mesh/access/src/access.c.obj
                0x000272f4                access_model_publish_address_get
 .text.access_model_subscription_list_alloc
                0x00027320       0x84 examples/light_switch/client/CMakeFiles/light_switch_client_nrf52832_xxAA_s132_5.0.0.dir/__/__/__/mesh/access/src/access.c.obj
                0x00027320                access_model_subscription_list_alloc
 .text.access_model_application_bind
                0x000273a4       0x58 examples/light_switch/client/CMakeFiles/light_switch_client_nrf52832_xxAA_s132_5.0.0.dir/__/__/__/mesh/access/src/access.c.obj
                0x000273a4                access_model_application_bind
 .text.access_model_publish_application_set
                0x000273fc       0x3c examples/light_switch/client/CMakeFiles/light_switch_client_nrf52832_xxAA_s132_5.0.0.dir/__/__/__/mesh/access/src/access.c.obj
                0x000273fc                access_model_publish_application_set
 .text.access_model_publish_ttl_get
                0x00027438       0x2c examples/light_switch/client/CMakeFiles/light_switch_client_nrf52832_xxAA_s132_5.0.0.dir/__/__/__/mesh/access/src/access.c.obj
                0x00027438                access_model_publish_ttl_get
 .text.access_model_p_args_get
                0x00027464       0x2c examples/light_switch/client/CMakeFiles/light_switch_client_nrf52832_xxAA_s132_5.0.0.dir/__/__/__/mesh/access/src/access.c.obj
                0x00027464                access_model_p_args_get
 .text.remove_and_reschedule
                0x00027490      0x150 examples/light_switch/client/CMakeFiles/light_switch_client_nrf52832_xxAA_s132_5.0.0.dir/__/__/__/mesh/access/src/access_reliable.c.obj
 .text.reliable_timer_cb
                0x000275e0      0x154 examples/light_switch/client/CMakeFiles/light_switch_client_nrf52832_xxAA_s132_5.0.0.dir/__/__/__/mesh/access/src/access_reliable.c.obj
 .text.access_reliable_message_rx_cb
                0x00027734       0xe0 examples/light_switch/client/CMakeFiles/light_switch_client_nrf52832_xxAA_s132_5.0.0.dir/__/__/__/mesh/access/src/access_reliable.c.obj
                0x00027734                access_reliable_message_rx_cb
 .text.access_reliable_init
                0x00027814       0x20 examples/light_switch/client/CMakeFiles/light_switch_client_nrf52832_xxAA_s132_5.0.0.dir/__/__/__/mesh/access/src/access_reliable.c.obj
                0x00027814                access_reliable_init
 .text.access_model_reliable_publish
                0x00027834      0x274 examples/light_switch/client/CMakeFiles/light_switch_client_nrf52832_xxAA_s132_5.0.0.dir/__/__/__/mesh/access/src/access_reliable.c.obj
                0x00027834                access_model_reliable_publish
 .text.addr_nonvirtual_to_dsm_entry
                0x00027aa8       0x48 examples/light_switch/client/CMakeFiles/light_switch_client_nrf52832_xxAA_s132_5.0.0.dir/__/__/__/mesh/access/src/device_state_manager.c.obj
 .text.addr_nonvirtual_to_flash_entry
                0x00027af0       0x10 examples/light_switch/client/CMakeFiles/light_switch_client_nrf52832_xxAA_s132_5.0.0.dir/__/__/__/mesh/access/src/device_state_manager.c.obj
 .text.flash_mem_listener_callback
                0x00027b00       0x28 examples/light_switch/client/CMakeFiles/light_switch_client_nrf52832_xxAA_s132_5.0.0.dir/__/__/__/mesh/access/src/device_state_manager.c.obj
 .text.devkey_to_flash_entry
                0x00027b28       0x28 examples/light_switch/client/CMakeFiles/light_switch_client_nrf52832_xxAA_s132_5.0.0.dir/__/__/__/mesh/access/src/device_state_manager.c.obj
 .text.appkey_to_flash_entry
                0x00027b50       0x28 examples/light_switch/client/CMakeFiles/light_switch_client_nrf52832_xxAA_s132_5.0.0.dir/__/__/__/mesh/access/src/device_state_manager.c.obj
 .text.subnet_to_flash_entry
                0x00027b78       0x24 examples/light_switch/client/CMakeFiles/light_switch_client_nrf52832_xxAA_s132_5.0.0.dir/__/__/__/mesh/access/src/device_state_manager.c.obj
 .text.addr_virtual_to_flash_entry
                0x00027b9c       0x18 examples/light_switch/client/CMakeFiles/light_switch_client_nrf52832_xxAA_s132_5.0.0.dir/__/__/__/mesh/access/src/device_state_manager.c.obj
 .text.addr_unicast_to_dsm_entry
                0x00027bb4        0xc examples/light_switch/client/CMakeFiles/light_switch_client_nrf52832_xxAA_s132_5.0.0.dir/__/__/__/mesh/access/src/device_state_manager.c.obj
 .text.addr_unicast_to_flash_entry
                0x00027bc0       0x10 examples/light_switch/client/CMakeFiles/light_switch_client_nrf52832_xxAA_s132_5.0.0.dir/__/__/__/mesh/access/src/device_state_manager.c.obj
 .text.subnet_set
                0x00027bd0       0xac examples/light_switch/client/CMakeFiles/light_switch_client_nrf52832_xxAA_s132_5.0.0.dir/__/__/__/mesh/access/src/device_state_manager.c.obj
 .text.flash_save
                0x00027c7c       0xa8 examples/light_switch/client/CMakeFiles/light_switch_client_nrf52832_xxAA_s132_5.0.0.dir/__/__/__/mesh/access/src/device_state_manager.c.obj
 .text.reset_flash_area
                0x00027d24       0x28 examples/light_switch/client/CMakeFiles/light_switch_client_nrf52832_xxAA_s132_5.0.0.dir/__/__/__/mesh/access/src/device_state_manager.c.obj
 .text.build_flash_area
                0x00027d4c       0x90 examples/light_switch/client/CMakeFiles/light_switch_client_nrf52832_xxAA_s132_5.0.0.dir/__/__/__/mesh/access/src/device_state_manager.c.obj
 .text.flash_write_complete
                0x00027ddc       0x5c examples/light_switch/client/CMakeFiles/light_switch_client_nrf52832_xxAA_s132_5.0.0.dir/__/__/__/mesh/access/src/device_state_manager.c.obj
 .text.devkey_to_dsm_entry
                0x00027e38       0x70 examples/light_switch/client/CMakeFiles/light_switch_client_nrf52832_xxAA_s132_5.0.0.dir/__/__/__/mesh/access/src/device_state_manager.c.obj
 .text.addr_virtual_to_dsm_entry
                0x00027ea8       0x6c examples/light_switch/client/CMakeFiles/light_switch_client_nrf52832_xxAA_s132_5.0.0.dir/__/__/__/mesh/access/src/device_state_manager.c.obj
 .text.flash_invalidate_complete
                0x00027f14       0x5c examples/light_switch/client/CMakeFiles/light_switch_client_nrf52832_xxAA_s132_5.0.0.dir/__/__/__/mesh/access/src/device_state_manager.c.obj
 .text.appkey_to_dsm_entry
                0x00027f70       0x94 examples/light_switch/client/CMakeFiles/light_switch_client_nrf52832_xxAA_s132_5.0.0.dir/__/__/__/mesh/access/src/device_state_manager.c.obj
 .text.flash_update_all
                0x00028004      0x144 examples/light_switch/client/CMakeFiles/light_switch_client_nrf52832_xxAA_s132_5.0.0.dir/__/__/__/mesh/access/src/device_state_manager.c.obj
 .text.flash_remove_complete
                0x00028148       0x90 examples/light_switch/client/CMakeFiles/light_switch_client_nrf52832_xxAA_s132_5.0.0.dir/__/__/__/mesh/access/src/device_state_manager.c.obj
 .text.subnet_to_dsm_entry
                0x000281d8       0xbc examples/light_switch/client/CMakeFiles/light_switch_client_nrf52832_xxAA_s132_5.0.0.dir/__/__/__/mesh/access/src/device_state_manager.c.obj
 .text.address_delete_if_unused
                0x00028294       0xe0 examples/light_switch/client/CMakeFiles/light_switch_client_nrf52832_xxAA_s132_5.0.0.dir/__/__/__/mesh/access/src/device_state_manager.c.obj
 .text.dsm_init
                0x00028374       0xa8 examples/light_switch/client/CMakeFiles/light_switch_client_nrf52832_xxAA_s132_5.0.0.dir/__/__/__/mesh/access/src/device_state_manager.c.obj
                0x00028374                dsm_init
 .text.dsm_flash_config_load
                0x0002841c      0x190 examples/light_switch/client/CMakeFiles/light_switch_client_nrf52832_xxAA_s132_5.0.0.dir/__/__/__/mesh/access/src/device_state_manager.c.obj
                0x0002841c                dsm_flash_config_load
 .text.dsm_flash_area_get
                0x000285ac        0xc examples/light_switch/client/CMakeFiles/light_switch_client_nrf52832_xxAA_s132_5.0.0.dir/__/__/__/mesh/access/src/device_state_manager.c.obj
                0x000285ac                dsm_flash_area_get
 .text.dsm_local_unicast_addresses_set
                0x000285b8       0x78 examples/light_switch/client/CMakeFiles/light_switch_client_nrf52832_xxAA_s132_5.0.0.dir/__/__/__/mesh/access/src/device_state_manager.c.obj
                0x000285b8                dsm_local_unicast_addresses_set
 .text.dsm_local_unicast_addresses_get
                0x00028630       0x2c examples/light_switch/client/CMakeFiles/light_switch_client_nrf52832_xxAA_s132_5.0.0.dir/__/__/__/mesh/access/src/device_state_manager.c.obj
                0x00028630                dsm_local_unicast_addresses_get
 .text.dsm_address_publish_add
                0x0002865c      0x16c examples/light_switch/client/CMakeFiles/light_switch_client_nrf52832_xxAA_s132_5.0.0.dir/__/__/__/mesh/access/src/device_state_manager.c.obj
                0x0002865c                dsm_address_publish_add
 .text.dsm_address_publish_add_handle
                0x000287c8       0x4c examples/light_switch/client/CMakeFiles/light_switch_client_nrf52832_xxAA_s132_5.0.0.dir/__/__/__/mesh/access/src/device_state_manager.c.obj
                0x000287c8                dsm_address_publish_add_handle
 .text.dsm_address_publish_remove
                0x00028814       0xac examples/light_switch/client/CMakeFiles/light_switch_client_nrf52832_xxAA_s132_5.0.0.dir/__/__/__/mesh/access/src/device_state_manager.c.obj
                0x00028814                dsm_address_publish_remove
 .text.dsm_address_subscription_add_handle
                0x000288c0       0x4c examples/light_switch/client/CMakeFiles/light_switch_client_nrf52832_xxAA_s132_5.0.0.dir/__/__/__/mesh/access/src/device_state_manager.c.obj
                0x000288c0                dsm_address_subscription_add_handle
 .text.dsm_address_subscription_get
                0x0002890c       0x50 examples/light_switch/client/CMakeFiles/light_switch_client_nrf52832_xxAA_s132_5.0.0.dir/__/__/__/mesh/access/src/device_state_manager.c.obj
                0x0002890c                dsm_address_subscription_get
 .text.dsm_address_get
                0x0002895c       0x68 examples/light_switch/client/CMakeFiles/light_switch_client_nrf52832_xxAA_s132_5.0.0.dir/__/__/__/mesh/access/src/device_state_manager.c.obj
                0x0002895c                dsm_address_get
 .text.dsm_address_get_all
                0x000289c4       0x98 examples/light_switch/client/CMakeFiles/light_switch_client_nrf52832_xxAA_s132_5.0.0.dir/__/__/__/mesh/access/src/device_state_manager.c.obj
                0x000289c4                dsm_address_get_all
 .text.dsm_address_handle_get
                0x00028a5c       0xe4 examples/light_switch/client/CMakeFiles/light_switch_client_nrf52832_xxAA_s132_5.0.0.dir/__/__/__/mesh/access/src/device_state_manager.c.obj
                0x00028a5c                dsm_address_handle_get
 .text.dsm_appkey_handle_get
                0x00028b40       0x3c examples/light_switch/client/CMakeFiles/light_switch_client_nrf52832_xxAA_s132_5.0.0.dir/__/__/__/mesh/access/src/device_state_manager.c.obj
                0x00028b40                dsm_appkey_handle_get
 .text.dsm_subnet_add
                0x00028b7c       0x94 examples/light_switch/client/CMakeFiles/light_switch_client_nrf52832_xxAA_s132_5.0.0.dir/__/__/__/mesh/access/src/device_state_manager.c.obj
                0x00028b7c                dsm_subnet_add
 .text.dsm_subnet_get_all
                0x00028c10       0x44 examples/light_switch/client/CMakeFiles/light_switch_client_nrf52832_xxAA_s132_5.0.0.dir/__/__/__/mesh/access/src/device_state_manager.c.obj
                0x00028c10                dsm_subnet_get_all
 .text.dsm_devkey_add
                0x00028c54      0x10c examples/light_switch/client/CMakeFiles/light_switch_client_nrf52832_xxAA_s132_5.0.0.dir/__/__/__/mesh/access/src/device_state_manager.c.obj
                0x00028c54                dsm_devkey_add
 .text.dsm_devkey_delete
                0x00028d60       0x80 examples/light_switch/client/CMakeFiles/light_switch_client_nrf52832_xxAA_s132_5.0.0.dir/__/__/__/mesh/access/src/device_state_manager.c.obj
                0x00028d60                dsm_devkey_delete
 .text.dsm_devkey_handle_get
                0x00028de0       0x6c examples/light_switch/client/CMakeFiles/light_switch_client_nrf52832_xxAA_s132_5.0.0.dir/__/__/__/mesh/access/src/device_state_manager.c.obj
                0x00028de0                dsm_devkey_handle_get
 .text.dsm_appkey_add
                0x00028e4c       0xa8 examples/light_switch/client/CMakeFiles/light_switch_client_nrf52832_xxAA_s132_5.0.0.dir/__/__/__/mesh/access/src/device_state_manager.c.obj
                0x00028e4c                dsm_appkey_add
 .text.dsm_appkey_get_all
                0x00028ef4       0x54 examples/light_switch/client/CMakeFiles/light_switch_client_nrf52832_xxAA_s132_5.0.0.dir/__/__/__/mesh/access/src/device_state_manager.c.obj
                0x00028ef4                dsm_appkey_get_all
 .text.dsm_tx_secmat_get
                0x00028f48      0x104 examples/light_switch/client/CMakeFiles/light_switch_client_nrf52832_xxAA_s132_5.0.0.dir/__/__/__/mesh/access/src/device_state_manager.c.obj
                0x00028f48                dsm_tx_secmat_get
 .text.nrf_mesh_net_secmat_next_get
                0x0002904c       0x54 examples/light_switch/client/CMakeFiles/light_switch_client_nrf52832_xxAA_s132_5.0.0.dir/__/__/__/mesh/access/src/device_state_manager.c.obj
                0x0002904c                nrf_mesh_net_secmat_next_get
 .text.nrf_mesh_app_secmat_next_get
                0x000290a0       0x80 examples/light_switch/client/CMakeFiles/light_switch_client_nrf52832_xxAA_s132_5.0.0.dir/__/__/__/mesh/access/src/device_state_manager.c.obj
                0x000290a0                nrf_mesh_app_secmat_next_get
 .text.nrf_mesh_devkey_secmat_get
                0x00029120       0x58 examples/light_switch/client/CMakeFiles/light_switch_client_nrf52832_xxAA_s132_5.0.0.dir/__/__/__/mesh/access/src/device_state_manager.c.obj
                0x00029120                nrf_mesh_devkey_secmat_get
 .text.nrf_mesh_beacon_info_next_get
                0x00029178       0x7c examples/light_switch/client/CMakeFiles/light_switch_client_nrf52832_xxAA_s132_5.0.0.dir/__/__/__/mesh/access/src/device_state_manager.c.obj
                0x00029178                nrf_mesh_beacon_info_next_get
 .text.nrf_mesh_rx_address_get
                0x000291f4      0x11c examples/light_switch/client/CMakeFiles/light_switch_client_nrf52832_xxAA_s132_5.0.0.dir/__/__/__/mesh/access/src/device_state_manager.c.obj
                0x000291f4                nrf_mesh_rx_address_get
 .text.prov_provisioner_cb_link_closed
                0x00029310       0x2c examples/light_switch/client/CMakeFiles/light_switch_client_nrf52832_xxAA_s132_5.0.0.dir/__/__/__/mesh/prov/src/prov_provisioner.c.obj
 .text.prov_provisioner_cb_link_established
                0x0002933c       0x44 examples/light_switch/client/CMakeFiles/light_switch_client_nrf52832_xxAA_s132_5.0.0.dir/__/__/__/mesh/prov/src/prov_provisioner.c.obj
 .text.prov_provisioner_cb_ack_received
                0x00029380       0x4c examples/light_switch/client/CMakeFiles/light_switch_client_nrf52832_xxAA_s132_5.0.0.dir/__/__/__/mesh/prov/src/prov_provisioner.c.obj
 .text.prov_provisioner_pkt_in
                0x000293cc      0x350 examples/light_switch/client/CMakeFiles/light_switch_client_nrf52832_xxAA_s132_5.0.0.dir/__/__/__/mesh/prov/src/prov_provisioner.c.obj
 .text.prov_provisioner_provision
                0x0002971c       0x4c examples/light_switch/client/CMakeFiles/light_switch_client_nrf52832_xxAA_s132_5.0.0.dir/__/__/__/mesh/prov/src/prov_provisioner.c.obj
                0x0002971c                prov_provisioner_provision
 .text.prov_provisioner_oob_use
                0x00029768       0xb0 examples/light_switch/client/CMakeFiles/light_switch_client_nrf52832_xxAA_s132_5.0.0.dir/__/__/__/mesh/prov/src/prov_provisioner.c.obj
                0x00029768                prov_provisioner_oob_use
 .text.prov_provisioner_auth_data
                0x00029818       0x64 examples/light_switch/client/CMakeFiles/light_switch_client_nrf52832_xxAA_s132_5.0.0.dir/__/__/__/mesh/prov/src/prov_provisioner.c.obj
                0x00029818                prov_provisioner_auth_data
 .text.nrf_mesh_prov_init
                0x0002987c       0x24 examples/light_switch/client/CMakeFiles/light_switch_client_nrf52832_xxAA_s132_5.0.0.dir/__/__/__/mesh/prov/src/nrf_mesh_prov.c.obj
                0x0002987c                nrf_mesh_prov_init
 .text.nrf_mesh_prov_generate_keys
                0x000298a0        0x4 examples/light_switch/client/CMakeFiles/light_switch_client_nrf52832_xxAA_s132_5.0.0.dir/__/__/__/mesh/prov/src/nrf_mesh_prov.c.obj
                0x000298a0                nrf_mesh_prov_generate_keys
 .text.nrf_mesh_prov_provision
                0x000298a4       0x50 examples/light_switch/client/CMakeFiles/light_switch_client_nrf52832_xxAA_s132_5.0.0.dir/__/__/__/mesh/prov/src/nrf_mesh_prov.c.obj
                0x000298a4                nrf_mesh_prov_provision
 .text.nrf_mesh_prov_oob_use
                0x000298f4       0x10 examples/light_switch/client/CMakeFiles/light_switch_client_nrf52832_xxAA_s132_5.0.0.dir/__/__/__/mesh/prov/src/nrf_mesh_prov.c.obj
                0x000298f4                nrf_mesh_prov_oob_use
 .text.nrf_mesh_prov_auth_data_provide
                0x00029904       0x10 examples/light_switch/client/CMakeFiles/light_switch_client_nrf52832_xxAA_s132_5.0.0.dir/__/__/__/mesh/prov/src/nrf_mesh_prov.c.obj
                0x00029904                nrf_mesh_prov_auth_data_provide
 .text.prov_packet_length_valid
                0x00029914       0x20 examples/light_switch/client/CMakeFiles/light_switch_client_nrf52832_xxAA_s132_5.0.0.dir/__/__/__/mesh/prov/src/provisioning.c.obj
                0x00029914                prov_packet_length_valid
 .text.prov_init
                0x00029934       0x34 examples/light_switch/client/CMakeFiles/light_switch_client_nrf52832_xxAA_s132_5.0.0.dir/__/__/__/mesh/prov/src/provisioning.c.obj
                0x00029934                prov_init
 .text.prov_link_open
                0x00029968       0x14 examples/light_switch/client/CMakeFiles/light_switch_client_nrf52832_xxAA_s132_5.0.0.dir/__/__/__/mesh/prov/src/provisioning.c.obj
                0x00029968                prov_link_open
 .text.prov_link_close
                0x0002997c        0x8 examples/light_switch/client/CMakeFiles/light_switch_client_nrf52832_xxAA_s132_5.0.0.dir/__/__/__/mesh/prov/src/provisioning.c.obj
                0x0002997c                prov_link_close
 .text.prov_tx_invite
                0x00029984       0x44 examples/light_switch/client/CMakeFiles/light_switch_client_nrf52832_xxAA_s132_5.0.0.dir/__/__/__/mesh/prov/src/provisioning.c.obj
                0x00029984                prov_tx_invite
 .text.prov_tx_start
                0x000299c8       0x4c examples/light_switch/client/CMakeFiles/light_switch_client_nrf52832_xxAA_s132_5.0.0.dir/__/__/__/mesh/prov/src/provisioning.c.obj
                0x000299c8                prov_tx_start
 .text.prov_tx_public_key
                0x00029a14       0x40 examples/light_switch/client/CMakeFiles/light_switch_client_nrf52832_xxAA_s132_5.0.0.dir/__/__/__/mesh/prov/src/provisioning.c.obj
                0x00029a14                prov_tx_public_key
 .text.prov_tx_confirmation
                0x00029a54       0x40 examples/light_switch/client/CMakeFiles/light_switch_client_nrf52832_xxAA_s132_5.0.0.dir/__/__/__/mesh/prov/src/provisioning.c.obj
                0x00029a54                prov_tx_confirmation
 .text.prov_tx_random
                0x00029a94       0x40 examples/light_switch/client/CMakeFiles/light_switch_client_nrf52832_xxAA_s132_5.0.0.dir/__/__/__/mesh/prov/src/provisioning.c.obj
                0x00029a94                prov_tx_random
 .text.prov_tx_data
                0x00029ad4       0x48 examples/light_switch/client/CMakeFiles/light_switch_client_nrf52832_xxAA_s132_5.0.0.dir/__/__/__/mesh/prov/src/provisioning.c.obj
                0x00029ad4                prov_tx_data
 .text.prov_cb_link_opened
                0x00029b1c        0x8 examples/light_switch/client/CMakeFiles/light_switch_client_nrf52832_xxAA_s132_5.0.0.dir/__/__/__/mesh/prov/src/provisioning.c.obj
                0x00029b1c                prov_cb_link_opened
 .text.prov_cb_link_closed
                0x00029b24        0x8 examples/light_switch/client/CMakeFiles/light_switch_client_nrf52832_xxAA_s132_5.0.0.dir/__/__/__/mesh/prov/src/provisioning.c.obj
                0x00029b24                prov_cb_link_closed
 .text.prov_cb_pkt_in
                0x00029b2c       0x88 examples/light_switch/client/CMakeFiles/light_switch_client_nrf52832_xxAA_s132_5.0.0.dir/__/__/__/mesh/prov/src/provisioning.c.obj
                0x00029b2c                prov_cb_pkt_in
 .text.prov_cb_ack_in
                0x00029bb4        0x8 examples/light_switch/client/CMakeFiles/light_switch_client_nrf52832_xxAA_s132_5.0.0.dir/__/__/__/mesh/prov/src/provisioning.c.obj
                0x00029bb4                prov_cb_ack_in
 .text.prov_beacon_unprov_build
                0x00029bbc       0x54 examples/light_switch/client/CMakeFiles/light_switch_client_nrf52832_xxAA_s132_5.0.0.dir/__/__/__/mesh/prov/src/prov_beacon.c.obj
                0x00029bbc                prov_beacon_unprov_build
 .text.prov_beacon_unprov_packet_in
                0x00029c10       0xbc examples/light_switch/client/CMakeFiles/light_switch_client_nrf52832_xxAA_s132_5.0.0.dir/__/__/__/mesh/prov/src/prov_beacon.c.obj
                0x00029c10                prov_beacon_unprov_packet_in
 .text.prov_utils_use_ecdh_offloading
                0x00029ccc        0xc examples/light_switch/client/CMakeFiles/light_switch_client_nrf52832_xxAA_s132_5.0.0.dir/__/__/__/mesh/prov/src/prov_utils.c.obj
                0x00029ccc                prov_utils_use_ecdh_offloading
 .text.prov_utils_authentication_values_derive
                0x00029cd8       0xac examples/light_switch/client/CMakeFiles/light_switch_client_nrf52832_xxAA_s132_5.0.0.dir/__/__/__/mesh/prov/src/prov_utils.c.obj
                0x00029cd8                prov_utils_authentication_values_derive
 .text.prov_utils_keys_generate
                0x00029d84       0x20 examples/light_switch/client/CMakeFiles/light_switch_client_nrf52832_xxAA_s132_5.0.0.dir/__/__/__/mesh/prov/src/prov_utils.c.obj
                0x00029d84                prov_utils_keys_generate
 .text.prov_utils_derive_keys
                0x00029da4       0xb4 examples/light_switch/client/CMakeFiles/light_switch_client_nrf52832_xxAA_s132_5.0.0.dir/__/__/__/mesh/prov/src/prov_utils.c.obj
                0x00029da4                prov_utils_derive_keys
 .text.prov_utils_calculate_shared_secret
                0x00029e58       0x38 examples/light_switch/client/CMakeFiles/light_switch_client_nrf52832_xxAA_s132_5.0.0.dir/__/__/__/mesh/prov/src/prov_utils.c.obj
                0x00029e58                prov_utils_calculate_shared_secret
 .text.prov_utils_generate_oob_data
                0x00029e90      0x1c8 examples/light_switch/client/CMakeFiles/light_switch_client_nrf52832_xxAA_s132_5.0.0.dir/__/__/__/mesh/prov/src/prov_utils.c.obj
                0x00029e90                prov_utils_generate_oob_data
 .text.prov_utils_confirmation_check
                0x0002a058       0x5c examples/light_switch/client/CMakeFiles/light_switch_client_nrf52832_xxAA_s132_5.0.0.dir/__/__/__/mesh/prov/src/prov_utils.c.obj
                0x0002a058                prov_utils_confirmation_check
 .text.remove_active_bearer
                0x0002a0b4       0x70 examples/light_switch/client/CMakeFiles/light_switch_client_nrf52832_xxAA_s132_5.0.0.dir/__/__/__/mesh/prov/src/prov_bearer_adv.c.obj
 .text.prov_bearer_adv_listen_stop
                0x0002a124       0x3c examples/light_switch/client/CMakeFiles/light_switch_client_nrf52832_xxAA_s132_5.0.0.dir/__/__/__/mesh/prov/src/prov_bearer_adv.c.obj
 .text.link_timeout_cb
                0x0002a160        0x8 examples/light_switch/client/CMakeFiles/light_switch_client_nrf52832_xxAA_s132_5.0.0.dir/__/__/__/mesh/prov/src/prov_bearer_adv.c.obj
 .text.tx_complete_cb
                0x0002a168       0x20 examples/light_switch/client/CMakeFiles/light_switch_client_nrf52832_xxAA_s132_5.0.0.dir/__/__/__/mesh/prov/src/prov_bearer_adv.c.obj
 .text.prov_bearer_adv_listen
                0x0002a188      0x160 examples/light_switch/client/CMakeFiles/light_switch_client_nrf52832_xxAA_s132_5.0.0.dir/__/__/__/mesh/prov/src/prov_bearer_adv.c.obj
 .text.prov_buffer_tx
                0x0002a2e8      0x218 examples/light_switch/client/CMakeFiles/light_switch_client_nrf52832_xxAA_s132_5.0.0.dir/__/__/__/mesh/prov/src/prov_bearer_adv.c.obj
 .text.prov_bearer_adv_tx
                0x0002a500       0xd4 examples/light_switch/client/CMakeFiles/light_switch_client_nrf52832_xxAA_s132_5.0.0.dir/__/__/__/mesh/prov/src/prov_bearer_adv.c.obj
 .text.send_link_ack
                0x0002a5d4       0x90 examples/light_switch/client/CMakeFiles/light_switch_client_nrf52832_xxAA_s132_5.0.0.dir/__/__/__/mesh/prov/src/prov_bearer_adv.c.obj
 .text.tx_retry_cb
                0x0002a664      0x148 examples/light_switch/client/CMakeFiles/light_switch_client_nrf52832_xxAA_s132_5.0.0.dir/__/__/__/mesh/prov/src/prov_bearer_adv.c.obj
 .text.send_transaction_ack
                0x0002a7ac       0x78 examples/light_switch/client/CMakeFiles/light_switch_client_nrf52832_xxAA_s132_5.0.0.dir/__/__/__/mesh/prov/src/prov_bearer_adv.c.obj
 .text.prov_buffer_rx
                0x0002a824       0xa4 examples/light_switch/client/CMakeFiles/light_switch_client_nrf52832_xxAA_s132_5.0.0.dir/__/__/__/mesh/prov/src/prov_bearer_adv.c.obj
 .text.async_process
                0x0002a8c8       0xb4 examples/light_switch/client/CMakeFiles/light_switch_client_nrf52832_xxAA_s132_5.0.0.dir/__/__/__/mesh/prov/src/prov_bearer_adv.c.obj
 .text.prov_bearer_adv_link_open
                0x0002a97c      0x1c4 examples/light_switch/client/CMakeFiles/light_switch_client_nrf52832_xxAA_s132_5.0.0.dir/__/__/__/mesh/prov/src/prov_bearer_adv.c.obj
 .text.prov_bearer_adv_link_close
                0x0002ab40      0x154 examples/light_switch/client/CMakeFiles/light_switch_client_nrf52832_xxAA_s132_5.0.0.dir/__/__/__/mesh/prov/src/prov_bearer_adv.c.obj
 .text.prov_bearer_adv_interface_get
                0x0002ac94       0x28 examples/light_switch/client/CMakeFiles/light_switch_client_nrf52832_xxAA_s132_5.0.0.dir/__/__/__/mesh/prov/src/prov_bearer_adv.c.obj
                0x0002ac94                prov_bearer_adv_interface_get
 .text.prov_bearer_adv_packet_in
                0x0002acbc      0x9d0 examples/light_switch/client/CMakeFiles/light_switch_client_nrf52832_xxAA_s132_5.0.0.dir/__/__/__/mesh/prov/src/prov_bearer_adv.c.obj
                0x0002acbc                prov_bearer_adv_packet_in
 .text.SystemInit
                0x0002b68c      0x390 examples/light_switch/client/CMakeFiles/light_switch_client_nrf52832_xxAA_s132_5.0.0.dir/__/__/__/external/nRF5_SDK_14.0.0_3bcc1f7/components/toolchain/system_nrf52.c.obj
                0x0002b68c                SystemInit
 .text          0x0002ba1c       0x3c examples/light_switch/client/CMakeFiles/light_switch_client_nrf52832_xxAA_s132_5.0.0.dir/__/__/__/external/nRF5_SDK_14.0.0_3bcc1f7/components/toolchain/gcc/gcc_startup_nrf52.S.obj
                0x0002ba1c                Reset_Handler
                0x0002ba44                NMI_Handler
                0x0002ba48                MemoryManagement_Handler
                0x0002ba4a                BusFault_Handler
                0x0002ba4c                UsageFault_Handler
                0x0002ba4e                SVC_Handler
                0x0002ba50                DebugMon_Handler
                0x0002ba52                PendSV_Handler
                0x0002ba54                SysTick_Handler
                0x0002ba56                RADIO_IRQHandler
                0x0002ba56                PDM_IRQHandler
                0x0002ba56                TEMP_IRQHandler
                0x0002ba56                TIMER3_IRQHandler
                0x0002ba56                FPU_IRQHandler
                0x0002ba56                RTC0_IRQHandler
                0x0002ba56                PWM1_IRQHandler
                0x0002ba56                UARTE0_UART0_IRQHandler
                0x0002ba56                POWER_CLOCK_IRQHandler
                0x0002ba56                I2S_IRQHandler
                0x0002ba56                SWI4_EGU4_IRQHandler
                0x0002ba56                TIMER0_IRQHandler
                0x0002ba56                SPIM0_SPIS0_TWIM0_TWIS0_SPI0_TWI0_IRQHandler
                0x0002ba56                TIMER1_IRQHandler
                0x0002ba56                PWM2_IRQHandler
                0x0002ba56                ECB_IRQHandler
                0x0002ba56                SPIM1_SPIS1_TWIM1_TWIS1_SPI1_TWI1_IRQHandler
                0x0002ba56                Default_Handler
                0x0002ba56                SAADC_IRQHandler
                0x0002ba56                CCM_AAR_IRQHandler
                0x0002ba56                WDT_IRQHandler
                0x0002ba56                TIMER4_IRQHandler
                0x0002ba56                SWI5_EGU5_IRQHandler
                0x0002ba56                RNG_IRQHandler
                0x0002ba56                RTC2_IRQHandler
                0x0002ba56                PWM0_IRQHandler
                0x0002ba56                SWI3_EGU3_IRQHandler
                0x0002ba56                RTC1_IRQHandler
                0x0002ba56                SWI1_EGU1_IRQHandler
                0x0002ba56                SPIM2_SPIS2_SPI2_IRQHandler
                0x0002ba56                NFCT_IRQHandler
                0x0002ba56                SWI0_EGU0_IRQHandler
                0x0002ba56                MWU_IRQHandler
                0x0002ba56                TIMER2_IRQHandler
                0x0002ba56                COMP_LPCOMP_IRQHandler
 .text.nrf_mesh_configure_device_uuid_reset
                0x0002ba58       0x2c mesh/core/libmesh_core_nrf52832_xxAA.a(nrf_mesh_configure.c.obj)
                0x0002ba58                nrf_mesh_configure_device_uuid_reset
 .text.nrf_mesh_configure_device_uuid_get
                0x0002ba84        0x8 mesh/core/libmesh_core_nrf52832_xxAA.a(nrf_mesh_configure.c.obj)
                0x0002ba84                nrf_mesh_configure_device_uuid_get
 .text.event_handle
                0x0002ba8c       0x34 mesh/core/libmesh_core_nrf52832_xxAA.a(event.c.obj)
                0x0002ba8c                event_handle
 .text.event_handler_add
                0x0002bac0       0x90 mesh/core/libmesh_core_nrf52832_xxAA.a(event.c.obj)
                0x0002bac0                event_handler_add
 .text.packet_mgr_init
                0x0002bb50       0x4c mesh/core/libmesh_core_nrf52832_xxAA.a(packet_mgr.c.obj)
                0x0002bb50                packet_mgr_init
 .text.packet_mgr_alloc
                0x0002bb9c      0x1dc mesh/core/libmesh_core_nrf52832_xxAA.a(packet_mgr.c.obj)
                0x0002bb9c                packet_mgr_alloc
 .text.packet_mgr_free
                0x0002bd78       0x70 mesh/core/libmesh_core_nrf52832_xxAA.a(packet_mgr.c.obj)
                0x0002bd78                packet_mgr_free
 .text.flash_mem_available
                0x0002bde8       0x28 mesh/core/libmesh_core_nrf52832_xxAA.a(net_state.c.obj)
 .text.flash_store_iv_index
                0x0002be10       0x38 mesh/core/libmesh_core_nrf52832_xxAA.a(net_state.c.obj)
 .text.init_flash_storage
                0x0002be48       0x44 mesh/core/libmesh_core_nrf52832_xxAA.a(net_state.c.obj)
 .text.flash_write_complete
                0x0002be8c       0x7c mesh/core/libmesh_core_nrf52832_xxAA.a(net_state.c.obj)
 .text.seqnum_block_allocate
                0x0002bf08       0x4c mesh/core/libmesh_core_nrf52832_xxAA.a(net_state.c.obj)
 .text.iv_update_trigger_if_pending
                0x0002bf54      0x17c mesh/core/libmesh_core_nrf52832_xxAA.a(net_state.c.obj)
 .text.iv_update_timer_handler
                0x0002c0d0       0x80 mesh/core/libmesh_core_nrf52832_xxAA.a(net_state.c.obj)
 .text.net_state_recover_from_flash
                0x0002c150      0x10c mesh/core/libmesh_core_nrf52832_xxAA.a(net_state.c.obj)
                0x0002c150                net_state_recover_from_flash
 .text.net_state_flash_area_get
                0x0002c25c        0xc mesh/core/libmesh_core_nrf52832_xxAA.a(net_state.c.obj)
                0x0002c25c                net_state_flash_area_get
 .text.net_state_init
                0x0002c268       0x80 mesh/core/libmesh_core_nrf52832_xxAA.a(net_state.c.obj)
                0x0002c268                net_state_init
 .text.net_state_seqnum_alloc
                0x0002c2e8       0xd4 mesh/core/libmesh_core_nrf52832_xxAA.a(net_state.c.obj)
                0x0002c2e8                net_state_seqnum_alloc
 .text.net_state_iv_index_lock
                0x0002c3bc       0x50 mesh/core/libmesh_core_nrf52832_xxAA.a(net_state.c.obj)
                0x0002c3bc                net_state_iv_index_lock
 .text.net_state_beacon_received
                0x0002c40c       0xec mesh/core/libmesh_core_nrf52832_xxAA.a(net_state.c.obj)
                0x0002c40c                net_state_beacon_received
 .text.net_state_beacon_iv_index_get
                0x0002c4f8        0xc mesh/core/libmesh_core_nrf52832_xxAA.a(net_state.c.obj)
                0x0002c4f8                net_state_beacon_iv_index_get
 .text.net_state_tx_iv_index_get
                0x0002c504       0x14 mesh/core/libmesh_core_nrf52832_xxAA.a(net_state.c.obj)
                0x0002c504                net_state_tx_iv_index_get
 .text.net_state_rx_iv_index_get
                0x0002c518       0x18 mesh/core/libmesh_core_nrf52832_xxAA.a(net_state.c.obj)
                0x0002c518                net_state_rx_iv_index_get
 .text.net_state_iv_update_get
                0x0002c530        0xc mesh/core/libmesh_core_nrf52832_xxAA.a(net_state.c.obj)
                0x0002c530                net_state_iv_update_get
 .text.nrf_mesh_address_type_get
                0x0002c53c       0x10 mesh/core/libmesh_core_nrf52832_xxAA.a(nrf_mesh_utils.c.obj)
                0x0002c53c                nrf_mesh_address_type_get
 .text.sd_softdevice_is_enabled
                0x0002c54c        0x4 mesh/core/libmesh_core_nrf52832_xxAA.a(nrf_mesh.c.obj)
 .text.nrf_mesh_init
                0x0002c550       0xb8 mesh/core/libmesh_core_nrf52832_xxAA.a(nrf_mesh.c.obj)
                0x0002c550                nrf_mesh_init
 .text.nrf_mesh_enable
                0x0002c608       0x50 mesh/core/libmesh_core_nrf52832_xxAA.a(nrf_mesh.c.obj)
                0x0002c608                nrf_mesh_enable
 .text.nrf_mesh_packet_send
                0x0002c658        0x4 mesh/core/libmesh_core_nrf52832_xxAA.a(nrf_mesh.c.obj)
                0x0002c658                nrf_mesh_packet_send
 .text.nrf_mesh_process
                0x0002c65c      0x21c mesh/core/libmesh_core_nrf52832_xxAA.a(nrf_mesh.c.obj)
                0x0002c65c                nrf_mesh_process
 .text.nrf_mesh_on_ble_evt
                0x0002c878        0x4 mesh/core/libmesh_core_nrf52832_xxAA.a(nrf_mesh.c.obj)
                0x0002c878                nrf_mesh_on_ble_evt
 .text.nrf_mesh_on_sd_evt
                0x0002c87c        0xc mesh/core/libmesh_core_nrf52832_xxAA.a(nrf_mesh.c.obj)
                0x0002c87c                nrf_mesh_on_sd_evt
 .text.nrf_mesh_evt_handler_add
                0x0002c888        0x4 mesh/core/libmesh_core_nrf52832_xxAA.a(nrf_mesh.c.obj)
                0x0002c888                nrf_mesh_evt_handler_add
 .text.hal_lfclk_ppm_get
                0x0002c88c       0x14 mesh/core/libmesh_core_nrf52832_xxAA.a(hal.c.obj)
                0x0002c88c                hal_lfclk_ppm_get
 .text.timer_cb
                0x0002c8a0        0xc mesh/core/libmesh_core_nrf52832_xxAA.a(timer_scheduler.c.obj)
 .text.add_evt.constprop.0
                0x0002c8ac       0x78 mesh/core/libmesh_core_nrf52832_xxAA.a(timer_scheduler.c.obj)
 .text.flag_event_cb
                0x0002c924      0x2e4 mesh/core/libmesh_core_nrf52832_xxAA.a(timer_scheduler.c.obj)
 .text.timer_sch_init
                0x0002cc08       0x24 mesh/core/libmesh_core_nrf52832_xxAA.a(timer_scheduler.c.obj)
                0x0002cc08                timer_sch_init
 .text.timer_sch_schedule
                0x0002cc2c       0x84 mesh/core/libmesh_core_nrf52832_xxAA.a(timer_scheduler.c.obj)
                0x0002cc2c                timer_sch_schedule
 .text.timer_sch_abort
                0x0002ccb0       0x68 mesh/core/libmesh_core_nrf52832_xxAA.a(timer_scheduler.c.obj)
                0x0002ccb0                timer_sch_abort
 .text.timer_sch_reschedule
                0x0002cd18       0xa4 mesh/core/libmesh_core_nrf52832_xxAA.a(timer_scheduler.c.obj)
                0x0002cd18                timer_sch_reschedule
 .text.timer_event_handler
                0x0002cdbc       0xd8 mesh/core/libmesh_core_nrf52832_xxAA.a(timer.c.obj)
                0x0002cdbc                timer_event_handler
 .text.timer_order_cb
                0x0002ce94       0x98 mesh/core/libmesh_core_nrf52832_xxAA.a(timer.c.obj)
                0x0002ce94                timer_order_cb
 .text.timer_now
                0x0002cf2c       0x58 mesh/core/libmesh_core_nrf52832_xxAA.a(timer.c.obj)
                0x0002cf2c                timer_now
 .text.timer_on_ts_begin
                0x0002cf84      0x110 mesh/core/libmesh_core_nrf52832_xxAA.a(timer.c.obj)
                0x0002cf84                timer_on_ts_begin
 .text.timer_on_ts_end
                0x0002d094       0x78 mesh/core/libmesh_core_nrf52832_xxAA.a(timer.c.obj)
                0x0002d094                timer_on_ts_end
 .text.timer_cb
                0x0002d10c       0x10 mesh/core/libmesh_core_nrf52832_xxAA.a(ticker.c.obj)
 .text.ticker_init
                0x0002d11c       0x3c mesh/core/libmesh_core_nrf52832_xxAA.a(ticker.c.obj)
                0x0002d11c                ticker_init
 .text.sd_rand_application_bytes_available_get
                0x0002d158        0x4 mesh/core/libmesh_core_nrf52832_xxAA.a(rand.c.obj)
 .text.sd_rand_application_vector_get
                0x0002d15c        0x4 mesh/core/libmesh_core_nrf52832_xxAA.a(rand.c.obj)
 .text.rand_prng_seed
                0x0002d160       0x6c mesh/core/libmesh_core_nrf52832_xxAA.a(rand.c.obj)
                0x0002d160                rand_prng_seed
 .text.rand_prng_get
                0x0002d1cc       0x28 mesh/core/libmesh_core_nrf52832_xxAA.a(rand.c.obj)
                0x0002d1cc                rand_prng_get
 .text.rand_hw_rng_get
                0x0002d1f4       0x58 mesh/core/libmesh_core_nrf52832_xxAA.a(rand.c.obj)
                0x0002d1f4                rand_hw_rng_get
 .text.sd_radio_session_open
                0x0002d24c        0x4 mesh/core/libmesh_core_nrf52832_xxAA.a(timeslot.c.obj)
 .text.sd_radio_session_close
                0x0002d250        0x4 mesh/core/libmesh_core_nrf52832_xxAA.a(timeslot.c.obj)
 .text.sd_radio_request
                0x0002d254        0x4 mesh/core/libmesh_core_nrf52832_xxAA.a(timeslot.c.obj)
 .text.end_timer_handler
                0x0002d258       0x2c mesh/core/libmesh_core_nrf52832_xxAA.a(timeslot.c.obj)
 .text.radio_signal_callback
                0x0002d284      0x324 mesh/core/libmesh_core_nrf52832_xxAA.a(timeslot.c.obj)
 .text.timeslot_sd_event_handler
                0x0002d5a8       0x50 mesh/core/libmesh_core_nrf52832_xxAA.a(timeslot.c.obj)
                0x0002d5a8                timeslot_sd_event_handler
 .text.timeslot_init
                0x0002d5f8       0x4c mesh/core/libmesh_core_nrf52832_xxAA.a(timeslot.c.obj)
                0x0002d5f8                timeslot_init
 .text.timeslot_start
                0x0002d644       0x20 mesh/core/libmesh_core_nrf52832_xxAA.a(timeslot.c.obj)
                0x0002d644                timeslot_start
 .text.timeslot_stop
                0x0002d664       0x30 mesh/core/libmesh_core_nrf52832_xxAA.a(timeslot.c.obj)
                0x0002d664                timeslot_stop
 .text.timeslot_state_lock
                0x0002d694       0x44 mesh/core/libmesh_core_nrf52832_xxAA.a(timeslot.c.obj)
                0x0002d694                timeslot_state_lock
 .text.timeslot_end_is_pending
                0x0002d6d8       0x24 mesh/core/libmesh_core_nrf52832_xxAA.a(timeslot.c.obj)
                0x0002d6d8                timeslot_end_is_pending
 .text.timeslot_start_time_get
                0x0002d6fc        0xc mesh/core/libmesh_core_nrf52832_xxAA.a(timeslot.c.obj)
                0x0002d6fc                timeslot_start_time_get
 .text.timeslot_remaining_time_get
                0x0002d708       0x40 mesh/core/libmesh_core_nrf52832_xxAA.a(timeslot.c.obj)
                0x0002d708                timeslot_remaining_time_get
 .text.timeslot_is_in_cb
                0x0002d748        0xc mesh/core/libmesh_core_nrf52832_xxAA.a(timeslot.c.obj)
                0x0002d748                timeslot_is_in_cb
 .text.timeslot_trigger
                0x0002d754       0x24 mesh/core/libmesh_core_nrf52832_xxAA.a(timeslot.c.obj)
                0x0002d754                timeslot_trigger
 .text.QDEC_IRQHandler
                0x0002d778       0xe0 mesh/core/libmesh_core_nrf52832_xxAA.a(bearer_event.c.obj)
                0x0002d778                QDEC_IRQHandler
 .text.bearer_event_init
                0x0002d858       0x3c mesh/core/libmesh_core_nrf52832_xxAA.a(bearer_event.c.obj)
                0x0002d858                bearer_event_init
 .text.bearer_event_timer_post
                0x0002d894       0x50 mesh/core/libmesh_core_nrf52832_xxAA.a(bearer_event.c.obj)
                0x0002d894                bearer_event_timer_post
 .text.bearer_event_critical_section_begin
                0x0002d8e4       0x44 mesh/core/libmesh_core_nrf52832_xxAA.a(bearer_event.c.obj)
                0x0002d8e4                bearer_event_critical_section_begin
 .text.bearer_event_critical_section_end
                0x0002d928       0x44 mesh/core/libmesh_core_nrf52832_xxAA.a(bearer_event.c.obj)
                0x0002d928                bearer_event_critical_section_end
 .text.bearer_event_flag_add
                0x0002d96c       0x50 mesh/core/libmesh_core_nrf52832_xxAA.a(bearer_event.c.obj)
                0x0002d96c                bearer_event_flag_add
 .text.bearer_event_flag_set
                0x0002d9bc       0x58 mesh/core/libmesh_core_nrf52832_xxAA.a(bearer_event.c.obj)
                0x0002d9bc                bearer_event_flag_set
 .text.bearer_event_sequential_add
                0x0002da14       0x48 mesh/core/libmesh_core_nrf52832_xxAA.a(bearer_event.c.obj)
                0x0002da14                bearer_event_sequential_add
 .text.bearer_event_sequential_post
                0x0002da5c       0x6c mesh/core/libmesh_core_nrf52832_xxAA.a(bearer_event.c.obj)
                0x0002da5c                bearer_event_sequential_post
 .text.bearer_event_sequential_pending
                0x0002dac8       0x20 mesh/core/libmesh_core_nrf52832_xxAA.a(bearer_event.c.obj)
                0x0002dac8                bearer_event_sequential_pending
 .text.enc_aes_encrypt
                0x0002dae8        0x4 mesh/core/libmesh_core_nrf52832_xxAA.a(enc.c.obj)
                0x0002dae8                enc_aes_encrypt
 .text.enc_aes_cmac
                0x0002daec        0x4 mesh/core/libmesh_core_nrf52832_xxAA.a(enc.c.obj)
                0x0002daec                enc_aes_cmac
 .text.enc_aes_ccm_encrypt
                0x0002daf0        0x4 mesh/core/libmesh_core_nrf52832_xxAA.a(enc.c.obj)
                0x0002daf0                enc_aes_ccm_encrypt
 .text.enc_aes_ccm_decrypt
                0x0002daf4        0x4 mesh/core/libmesh_core_nrf52832_xxAA.a(enc.c.obj)
                0x0002daf4                enc_aes_ccm_decrypt
 .text.enc_nonce_generate
                0x0002daf8       0xc4 mesh/core/libmesh_core_nrf52832_xxAA.a(enc.c.obj)
                0x0002daf8                enc_nonce_generate
 .text.enc_s1   0x0002dbbc       0x40 mesh/core/libmesh_core_nrf52832_xxAA.a(enc.c.obj)
                0x0002dbbc                enc_s1
 .text.enc_k1   0x0002dbfc       0x50 mesh/core/libmesh_core_nrf52832_xxAA.a(enc.c.obj)
                0x0002dbfc                enc_k1
 .text.enc_k2   0x0002dc4c       0xec mesh/core/libmesh_core_nrf52832_xxAA.a(enc.c.obj)
                0x0002dc4c                enc_k2
 .text.enc_k3   0x0002dd38       0x74 mesh/core/libmesh_core_nrf52832_xxAA.a(enc.c.obj)
                0x0002dd38                enc_k3
 .text.enc_k4   0x0002ddac       0x6c mesh/core/libmesh_core_nrf52832_xxAA.a(enc.c.obj)
                0x0002ddac                enc_k4
 .text.network_init
                0x0002de18       0x28 mesh/core/libmesh_core_nrf52832_xxAA.a(network.c.obj)
                0x0002de18                network_init
 .text.network_packet_alloc
                0x0002de40      0x1a4 mesh/core/libmesh_core_nrf52832_xxAA.a(network.c.obj)
                0x0002de40                network_packet_alloc
 .text.network_packet_send
                0x0002dfe4      0x1ec mesh/core/libmesh_core_nrf52832_xxAA.a(network.c.obj)
                0x0002dfe4                network_packet_send
 .text.network_packet_in
                0x0002e1d0      0x6c8 mesh/core/libmesh_core_nrf52832_xxAA.a(network.c.obj)
                0x0002e1d0                network_packet_in
 .text.nrf_mesh_keygen_aid
                0x0002e898       0x18 mesh/core/libmesh_core_nrf52832_xxAA.a(nrf_mesh_keygen.c.obj)
                0x0002e898                nrf_mesh_keygen_aid
 .text.nrf_mesh_keygen_network_secmat
                0x0002e8b0       0x24 mesh/core/libmesh_core_nrf52832_xxAA.a(nrf_mesh_keygen.c.obj)
                0x0002e8b0                nrf_mesh_keygen_network_secmat
 .text.nrf_mesh_keygen_beacon_secmat
                0x0002e8d4       0x50 mesh/core/libmesh_core_nrf52832_xxAA.a(nrf_mesh_keygen.c.obj)
                0x0002e8d4                nrf_mesh_keygen_beacon_secmat
 .text.nrf_mesh_keygen_virtual_address
                0x0002e924       0x50 mesh/core/libmesh_core_nrf52832_xxAA.a(nrf_mesh_keygen.c.obj)
                0x0002e924                nrf_mesh_keygen_virtual_address
 .text.log_callback_rtt
                0x0002e974       0x2c mesh/core/libmesh_core_nrf52832_xxAA.a(log.c.obj)
                0x0002e974                log_callback_rtt
 .text.log_init
                0x0002e9a0       0x20 mesh/core/libmesh_core_nrf52832_xxAA.a(log.c.obj)
                0x0002e9a0                log_init
 .text.log_printf
                0x0002e9c0       0x20 mesh/core/libmesh_core_nrf52832_xxAA.a(log.c.obj)
                0x0002e9c0                log_printf
 .text.process_action_queue
                0x0002e9e0      0x834 mesh/core/libmesh_core_nrf52832_xxAA.a(flash_manager.c.obj)
 .text.flash_op_ended_callback
                0x0002f214       0x24 mesh/core/libmesh_core_nrf52832_xxAA.a(flash_manager.c.obj)
 .text.flash_manager_init
                0x0002f238       0x68 mesh/core/libmesh_core_nrf52832_xxAA.a(flash_manager.c.obj)
                0x0002f238                flash_manager_init
 .text.flash_manager_remove
                0x0002f2a0       0x78 mesh/core/libmesh_core_nrf52832_xxAA.a(flash_manager.c.obj)
                0x0002f2a0                flash_manager_remove
 .text.flash_manager_entry_get
                0x0002f318       0x54 mesh/core/libmesh_core_nrf52832_xxAA.a(flash_manager.c.obj)
                0x0002f318                flash_manager_entry_get
 .text.flash_manager_entry_next_get
                0x0002f36c      0x15c mesh/core/libmesh_core_nrf52832_xxAA.a(flash_manager.c.obj)
                0x0002f36c                flash_manager_entry_next_get
 .text.flash_manager_entry_alloc
                0x0002f4c8       0x9c mesh/core/libmesh_core_nrf52832_xxAA.a(flash_manager.c.obj)
                0x0002f4c8                flash_manager_entry_alloc
 .text.flash_manager_entry_commit
                0x0002f564       0x6c mesh/core/libmesh_core_nrf52832_xxAA.a(flash_manager.c.obj)
                0x0002f564                flash_manager_entry_commit
 .text.flash_manager_entry_invalidate
                0x0002f5d0       0xb8 mesh/core/libmesh_core_nrf52832_xxAA.a(flash_manager.c.obj)
                0x0002f5d0                flash_manager_entry_invalidate
 .text.flash_manager_add
                0x0002f688      0x474 mesh/core/libmesh_core_nrf52832_xxAA.a(flash_manager.c.obj)
                0x0002f688                flash_manager_add
 .text.flash_manager_mem_listener_register
                0x0002fafc       0x50 mesh/core/libmesh_core_nrf52832_xxAA.a(flash_manager.c.obj)
                0x0002fafc                flash_manager_mem_listener_register
 .text.flash_manager_is_stable
                0x0002fb4c       0x20 mesh/core/libmesh_core_nrf52832_xxAA.a(flash_manager.c.obj)
                0x0002fb4c                flash_manager_is_stable
 .text.flash_manager_on_defrag_end
                0x0002fb6c       0x64 mesh/core/libmesh_core_nrf52832_xxAA.a(flash_manager.c.obj)
                0x0002fb6c                flash_manager_on_defrag_end
 .text.flash_manager_recovery_page_get
                0x0002fbd0        0x4 mesh/core/libmesh_core_nrf52832_xxAA.a(flash_manager.c.obj)
                0x0002fbd0                flash_manager_recovery_page_get
 .text.ccm_soft_crypt.constprop.0
                0x0002fbd4      0x298 mesh/core/libmesh_core_nrf52832_xxAA.a(ccm_soft.c.obj)
 .text.ccm_soft_authenticate
                0x0002fe6c      0x324 mesh/core/libmesh_core_nrf52832_xxAA.a(ccm_soft.c.obj)
 .text.ccm_soft_encrypt
                0x00030190       0x78 mesh/core/libmesh_core_nrf52832_xxAA.a(ccm_soft.c.obj)
                0x00030190                ccm_soft_encrypt
 .text.ccm_soft_decrypt
                0x00030208      0x10c mesh/core/libmesh_core_nrf52832_xxAA.a(ccm_soft.c.obj)
                0x00030208                ccm_soft_decrypt
 .text.beacon_init
                0x00030314       0x48 mesh/core/libmesh_core_nrf52832_xxAA.a(beacon.c.obj)
                0x00030314                beacon_init
 .text.beacon_tx
                0x0003035c       0x6c mesh/core/libmesh_core_nrf52832_xxAA.a(beacon.c.obj)
                0x0003035c                beacon_tx
 .text.beacon_create
                0x000303c8       0x50 mesh/core/libmesh_core_nrf52832_xxAA.a(beacon.c.obj)
                0x000303c8                beacon_create
 .text.beacon_packet_in
                0x00030418      0x180 mesh/core/libmesh_core_nrf52832_xxAA.a(beacon.c.obj)
                0x00030418                beacon_packet_in
 .text.entry_get
                0x00030598       0x8c mesh/core/libmesh_core_nrf52832_xxAA.a(flash_manager_internal.c.obj)
                0x00030598                entry_get
 .text.adv_tx_complete_callback
                0x00030624       0x58 mesh/core/libmesh_core_nrf52832_xxAA.a(core_tx.c.obj)
 .text.core_tx_init
                0x0003067c       0x4c mesh/core/libmesh_core_nrf52832_xxAA.a(core_tx.c.obj)
                0x0003067c                core_tx_init
 .text.core_tx_complete_cb_set
                0x000306c8        0xc mesh/core/libmesh_core_nrf52832_xxAA.a(core_tx.c.obj)
                0x000306c8                core_tx_complete_cb_set
 .text.core_tx_packet_alloc
                0x000306d4       0xa4 mesh/core/libmesh_core_nrf52832_xxAA.a(core_tx.c.obj)
                0x000306d4                core_tx_packet_alloc
 .text.core_tx_packet_send
                0x00030778       0x74 mesh/core/libmesh_core_nrf52832_xxAA.a(core_tx.c.obj)
                0x00030778                core_tx_packet_send
 .text.core_tx_packet_discard
                0x000307ec       0x74 mesh/core/libmesh_core_nrf52832_xxAA.a(core_tx.c.obj)
                0x000307ec                core_tx_packet_discard
 .text.network_beacon_tx_cb
                0x00030860      0x10c mesh/core/libmesh_core_nrf52832_xxAA.a(net_beacon.c.obj)
 .text.net_beacon_init
                0x0003096c       0x64 mesh/core/libmesh_core_nrf52832_xxAA.a(net_beacon.c.obj)
                0x0003096c                net_beacon_init
 .text.net_beacon_packet_in
                0x000309d0       0xe0 mesh/core/libmesh_core_nrf52832_xxAA.a(net_beacon.c.obj)
                0x000309d0                net_beacon_packet_in
 .text.tx_complete_event_callback
                0x00030ab0       0x40 mesh/core/libmesh_core_nrf52832_xxAA.a(advertiser.c.obj)
 .text.broadcast_complete_cb
                0x00030af0       0x70 mesh/core/libmesh_core_nrf52832_xxAA.a(advertiser.c.obj)
 .text.timeout_event
                0x00030b60      0x13c mesh/core/libmesh_core_nrf52832_xxAA.a(advertiser.c.obj)
 .text.advertiser_init
                0x00030c9c        0xc mesh/core/libmesh_core_nrf52832_xxAA.a(advertiser.c.obj)
                0x00030c9c                advertiser_init
 .text.advertiser_instance_init
                0x00030ca8      0x11c mesh/core/libmesh_core_nrf52832_xxAA.a(advertiser.c.obj)
                0x00030ca8                advertiser_instance_init
 .text.advertiser_enable
                0x00030dc4       0x44 mesh/core/libmesh_core_nrf52832_xxAA.a(advertiser.c.obj)
                0x00030dc4                advertiser_enable
 .text.advertiser_packet_alloc
                0x00030e08       0x9c mesh/core/libmesh_core_nrf52832_xxAA.a(advertiser.c.obj)
                0x00030e08                advertiser_packet_alloc
 .text.advertiser_packet_send
                0x00030ea4       0x98 mesh/core/libmesh_core_nrf52832_xxAA.a(advertiser.c.obj)
                0x00030ea4                advertiser_packet_send
 .text.advertiser_packet_discard
                0x00030f3c       0x34 mesh/core/libmesh_core_nrf52832_xxAA.a(advertiser.c.obj)
                0x00030f3c                advertiser_packet_discard
 .text.advertiser_interval_set
                0x00030f70       0x80 mesh/core/libmesh_core_nrf52832_xxAA.a(advertiser.c.obj)
                0x00030f70                advertiser_interval_set
 .text.advertiser_flush
                0x00030ff0       0x20 mesh/core/libmesh_core_nrf52832_xxAA.a(advertiser.c.obj)
                0x00030ff0                advertiser_flush
 .text.action_switch.part.2
                0x00031010       0xc0 mesh/core/libmesh_core_nrf52832_xxAA.a(bearer_handler.c.obj)
 .text.bearer_handler_init
                0x000310d0       0x2c mesh/core/libmesh_core_nrf52832_xxAA.a(bearer_handler.c.obj)
                0x000310d0                bearer_handler_init
 .text.bearer_handler_start
                0x000310fc       0x1c mesh/core/libmesh_core_nrf52832_xxAA.a(bearer_handler.c.obj)
                0x000310fc                bearer_handler_start
 .text.bearer_handler_action_enqueue
                0x00031118       0xa0 mesh/core/libmesh_core_nrf52832_xxAA.a(bearer_handler.c.obj)
                0x00031118                bearer_handler_action_enqueue
 .text.bearer_handler_action_end
                0x000311b8       0x84 mesh/core/libmesh_core_nrf52832_xxAA.a(bearer_handler.c.obj)
                0x000311b8                bearer_handler_action_end
 .text.bearer_handler_radio_irq_handler
                0x0003123c       0x70 mesh/core/libmesh_core_nrf52832_xxAA.a(bearer_handler.c.obj)
                0x0003123c                bearer_handler_radio_irq_handler
 .text.bearer_handler_timer_irq_handler
                0x000312ac       0x3c mesh/core/libmesh_core_nrf52832_xxAA.a(bearer_handler.c.obj)
                0x000312ac                bearer_handler_timer_irq_handler
 .text.bearer_handler_on_ts_begin
                0x000312e8       0x4c mesh/core/libmesh_core_nrf52832_xxAA.a(bearer_handler.c.obj)
                0x000312e8                bearer_handler_on_ts_begin
 .text.bearer_handler_on_ts_end
                0x00031334       0x48 mesh/core/libmesh_core_nrf52832_xxAA.a(bearer_handler.c.obj)
                0x00031334                bearer_handler_on_ts_end
 .text.radio_irq_handler
                0x0003137c       0xb4 mesh/core/libmesh_core_nrf52832_xxAA.a(broadcast.c.obj)
 .text.broadcast_start
                0x00031430       0x8c mesh/core/libmesh_core_nrf52832_xxAA.a(broadcast.c.obj)
 .text.broadcast_send
                0x000314bc       0x8c mesh/core/libmesh_core_nrf52832_xxAA.a(broadcast.c.obj)
                0x000314bc                broadcast_send
 .text.radio_config_reset
                0x00031548       0x38 mesh/core/libmesh_core_nrf52832_xxAA.a(radio_config.c.obj)
                0x00031548                radio_config_reset
 .text.radio_config_channel_set
                0x00031580       0x34 mesh/core/libmesh_core_nrf52832_xxAA.a(radio_config.c.obj)
                0x00031580                radio_config_channel_set
 .text.radio_config_config
                0x000315b4       0x78 mesh/core/libmesh_core_nrf52832_xxAA.a(radio_config.c.obj)
                0x000315b4                radio_config_config
 .text.radio_config_access_addr_set
                0x0003162c       0x68 mesh/core/libmesh_core_nrf52832_xxAA.a(radio_config.c.obj)
                0x0003162c                radio_config_access_addr_set
 .text.scan_window_end
                0x00031694       0x28 mesh/core/libmesh_core_nrf52832_xxAA.a(scanner.c.obj)
 .text.scan_window_start
                0x000316bc       0x38 mesh/core/libmesh_core_nrf52832_xxAA.a(scanner.c.obj)
 .text.radio_start
                0x000316f4      0x19c mesh/core/libmesh_core_nrf52832_xxAA.a(scanner.c.obj)
 .text.scanner_radio_start
                0x00031890      0x14c mesh/core/libmesh_core_nrf52832_xxAA.a(scanner.c.obj)
                0x00031890                scanner_radio_start
 .text.scanner_radio_stop
                0x000319dc       0x34 mesh/core/libmesh_core_nrf52832_xxAA.a(scanner.c.obj)
                0x000319dc                scanner_radio_stop
 .text.scanner_radio_irq_handler
                0x00031a10      0x200 mesh/core/libmesh_core_nrf52832_xxAA.a(scanner.c.obj)
                0x00031a10                scanner_radio_irq_handler
 .text.scanner_enable
                0x00031c10       0x5c mesh/core/libmesh_core_nrf52832_xxAA.a(scanner.c.obj)
                0x00031c10                scanner_enable
 .text.scanner_rx
                0x00031c6c       0x84 mesh/core/libmesh_core_nrf52832_xxAA.a(scanner.c.obj)
                0x00031c6c                scanner_rx
 .text.scanner_packet_release
                0x00031cf0       0x4c mesh/core/libmesh_core_nrf52832_xxAA.a(scanner.c.obj)
                0x00031cf0                scanner_packet_release
 .text.scanner_config_reset
                0x00031d3c       0xa8 mesh/core/libmesh_core_nrf52832_xxAA.a(scanner.c.obj)
                0x00031d3c                scanner_config_reset
 .text.scanner_init
                0x00031de4       0x48 mesh/core/libmesh_core_nrf52832_xxAA.a(scanner.c.obj)
                0x00031de4                scanner_init
 .text.internal_event_push
                0x00031e2c       0x28 mesh/core/libmesh_core_nrf52832_xxAA.a(internal_event.c.obj)
                0x00031e2c                internal_event_push
 .text.sd_ecb_block_encrypt
                0x00031e54        0x4 mesh/core/libmesh_core_nrf52832_xxAA.a(aes.c.obj)
 .text.aes_encrypt
                0x00031e58       0x34 mesh/core/libmesh_core_nrf52832_xxAA.a(aes.c.obj)
                0x00031e58                aes_encrypt
 .text.msg_cache_init
                0x00031e8c       0x24 mesh/core/libmesh_core_nrf52832_xxAA.a(msg_cache.c.obj)
                0x00031e8c                msg_cache_init
 .text.msg_cache_entry_exists
                0x00031eb0       0x40 mesh/core/libmesh_core_nrf52832_xxAA.a(msg_cache.c.obj)
                0x00031eb0                msg_cache_entry_exists
 .text.msg_cache_entry_add
                0x00031ef0       0x30 mesh/core/libmesh_core_nrf52832_xxAA.a(msg_cache.c.obj)
                0x00031ef0                msg_cache_entry_add
 .text.tx_complete
                0x00031f20       0x34 mesh/core/libmesh_core_nrf52832_xxAA.a(transport.c.obj)
 .text.upper_trs_packet_encrypt
                0x00031f54       0xe0 mesh/core/libmesh_core_nrf52832_xxAA.a(transport.c.obj)
 .text.sar_ctx_alloc
                0x00032034       0xd0 mesh/core/libmesh_core_nrf52832_xxAA.a(transport.c.obj)
 .text.trs_packet_header_build
                0x00032104       0xac mesh/core/libmesh_core_nrf52832_xxAA.a(transport.c.obj)
 .text.sar_ack_send
                0x000321b0      0x144 mesh/core/libmesh_core_nrf52832_xxAA.a(transport.c.obj)
 .text.test_transport_decrypt
                0x000322f4       0x98 mesh/core/libmesh_core_nrf52832_xxAA.a(transport.c.obj)
 .text.upper_transport_access_packet_in
                0x0003238c      0x34c mesh/core/libmesh_core_nrf52832_xxAA.a(transport.c.obj)
 .text.trs_sar_packet_out
                0x000326d8      0x19c mesh/core/libmesh_core_nrf52832_xxAA.a(transport.c.obj)
 .text.sar_ctx_cancel
                0x00032874      0x1d0 mesh/core/libmesh_core_nrf52832_xxAA.a(transport.c.obj)
 .text.abort_timeout
                0x00032a44        0x8 mesh/core/libmesh_core_nrf52832_xxAA.a(transport.c.obj)
 .text.retry_timeout
                0x00032a4c       0xb0 mesh/core/libmesh_core_nrf52832_xxAA.a(transport.c.obj)
 .text.transport_sar_process
                0x00032afc      0x2a8 mesh/core/libmesh_core_nrf52832_xxAA.a(transport.c.obj)
 .text.upper_transport_packet_in
                0x00032da4      0x2e0 mesh/core/libmesh_core_nrf52832_xxAA.a(transport.c.obj)
 .text.ack_timeout
                0x00033084      0x15c mesh/core/libmesh_core_nrf52832_xxAA.a(transport.c.obj)
 .text.transport_init
                0x000331e0       0x98 mesh/core/libmesh_core_nrf52832_xxAA.a(transport.c.obj)
                0x000331e0                transport_init
 .text.transport_packet_in
                0x00033278      0x824 mesh/core/libmesh_core_nrf52832_xxAA.a(transport.c.obj)
                0x00033278                transport_packet_in
 .text.transport_tx
                0x00033a9c      0x32c mesh/core/libmesh_core_nrf52832_xxAA.a(transport.c.obj)
                0x00033a9c                transport_tx
 .text.packet_buffer_init
                0x00033dc8       0xec mesh/core/libmesh_core_nrf52832_xxAA.a(packet_buffer.c.obj)
                0x00033dc8                packet_buffer_init
 .text.packet_buffer_flush
                0x00033eb4       0xd4 mesh/core/libmesh_core_nrf52832_xxAA.a(packet_buffer.c.obj)
                0x00033eb4                packet_buffer_flush
 .text.packet_buffer_reserve
                0x00033f88      0x150 mesh/core/libmesh_core_nrf52832_xxAA.a(packet_buffer.c.obj)
                0x00033f88                packet_buffer_reserve
 .text.packet_buffer_commit
                0x000340d8      0x144 mesh/core/libmesh_core_nrf52832_xxAA.a(packet_buffer.c.obj)
                0x000340d8                packet_buffer_commit
 .text.packet_buffer_pop
                0x0003421c       0xc8 mesh/core/libmesh_core_nrf52832_xxAA.a(packet_buffer.c.obj)
                0x0003421c                packet_buffer_pop
 .text.packet_buffer_can_pop
                0x000342e4       0x84 mesh/core/libmesh_core_nrf52832_xxAA.a(packet_buffer.c.obj)
                0x000342e4                packet_buffer_can_pop
 .text.packet_buffer_packets_ready_to_pop
                0x00034368       0xb4 mesh/core/libmesh_core_nrf52832_xxAA.a(packet_buffer.c.obj)
                0x00034368                packet_buffer_packets_ready_to_pop
 .text.packet_buffer_free
                0x0003441c       0xf0 mesh/core/libmesh_core_nrf52832_xxAA.a(packet_buffer.c.obj)
                0x0003441c                packet_buffer_free
 .text.erase_source
                0x0003450c       0x34 mesh/core/libmesh_core_nrf52832_xxAA.a(flash_manager_defrag.c.obj)
 .text.erase_recovery_area
                0x00034540       0x34 mesh/core/libmesh_core_nrf52832_xxAA.a(flash_manager_defrag.c.obj)
 .text.write_back
                0x00034574       0x44 mesh/core/libmesh_core_nrf52832_xxAA.a(flash_manager_defrag.c.obj)
 .text.write_defrag_start_pointer
                0x000345b8       0x38 mesh/core/libmesh_core_nrf52832_xxAA.a(flash_manager_defrag.c.obj)
 .text.copy_metadata
                0x000345f0       0x58 mesh/core/libmesh_core_nrf52832_xxAA.a(flash_manager_defrag.c.obj)
 .text.seal_storage_page
                0x00034648       0x70 mesh/core/libmesh_core_nrf52832_xxAA.a(flash_manager_defrag.c.obj)
 .text.post_process
                0x000346b8       0x64 mesh/core/libmesh_core_nrf52832_xxAA.a(flash_manager_defrag.c.obj)
 .text.check_for_invalid_entries
                0x0003471c       0x40 mesh/core/libmesh_core_nrf52832_xxAA.a(flash_manager_defrag.c.obj)
 .text.execute_procedure_step
                0x0003475c       0xc0 mesh/core/libmesh_core_nrf52832_xxAA.a(flash_manager_defrag.c.obj)
 .text.on_flash_op_end
                0x0003481c       0x4c mesh/core/libmesh_core_nrf52832_xxAA.a(flash_manager_defrag.c.obj)
 .text.invalidate_duplicate_entries
                0x00034868      0x148 mesh/core/libmesh_core_nrf52832_xxAA.a(flash_manager_defrag.c.obj)
 .text.backup_entries
                0x000349b0      0x1fc mesh/core/libmesh_core_nrf52832_xxAA.a(flash_manager_defrag.c.obj)
 .text.flash_manager_defrag_init
                0x00034bac       0x68 mesh/core/libmesh_core_nrf52832_xxAA.a(flash_manager_defrag.c.obj)
                0x00034bac                flash_manager_defrag_init
 .text.flash_manager_defrag_is_running
                0x00034c14       0x10 mesh/core/libmesh_core_nrf52832_xxAA.a(flash_manager_defrag.c.obj)
                0x00034c14                flash_manager_defrag_is_running
 .text.flash_manager_defrag
                0x00034c24       0xe4 mesh/core/libmesh_core_nrf52832_xxAA.a(flash_manager_defrag.c.obj)
                0x00034c24                flash_manager_defrag
 .text.flash_manager_defrag_recovery_page_get
                0x00034d08        0xc mesh/core/libmesh_core_nrf52832_xxAA.a(flash_manager_defrag.c.obj)
                0x00034d08                flash_manager_defrag_recovery_page_get
 .text.fifo_init
                0x00034d14       0x5c mesh/core/libmesh_core_nrf52832_xxAA.a(fifo.c.obj)
                0x00034d14                fifo_init
 .text.fifo_push
                0x00034d70       0x54 mesh/core/libmesh_core_nrf52832_xxAA.a(fifo.c.obj)
                0x00034d70                fifo_push
 .text.fifo_pop
                0x00034dc4       0x58 mesh/core/libmesh_core_nrf52832_xxAA.a(fifo.c.obj)
                0x00034dc4                fifo_pop
 .text.send_end_events
                0x00034e1c       0x8c mesh/core/libmesh_core_nrf52832_xxAA.a(mesh_flash.c.obj)
 .text.flash_op_schedule
                0x00034ea8       0xac mesh/core/libmesh_core_nrf52832_xxAA.a(mesh_flash.c.obj)
 .text.flash_op_start
                0x00034f54      0x1c4 mesh/core/libmesh_core_nrf52832_xxAA.a(mesh_flash.c.obj)
 .text.mesh_flash_init
                0x00035118       0x88 mesh/core/libmesh_core_nrf52832_xxAA.a(mesh_flash.c.obj)
                0x00035118                mesh_flash_init
 .text.mesh_flash_user_callback_set
                0x000351a0       0x2c mesh/core/libmesh_core_nrf52832_xxAA.a(mesh_flash.c.obj)
                0x000351a0                mesh_flash_user_callback_set
 .text.mesh_flash_op_push
                0x000351cc      0x140 mesh/core/libmesh_core_nrf52832_xxAA.a(mesh_flash.c.obj)
                0x000351cc                mesh_flash_op_push
 .text.queue_init
                0x0003530c       0x28 mesh/core/libmesh_core_nrf52832_xxAA.a(queue.c.obj)
                0x0003530c                queue_init
 .text.queue_push
                0x00035334       0x50 mesh/core/libmesh_core_nrf52832_xxAA.a(queue.c.obj)
                0x00035334                queue_push
 .text.queue_pop
                0x00035384       0x40 mesh/core/libmesh_core_nrf52832_xxAA.a(queue.c.obj)
                0x00035384                queue_pop
 .text.queue_peek
                0x000353c4       0x20 mesh/core/libmesh_core_nrf52832_xxAA.a(queue.c.obj)
                0x000353c4                queue_peek
 .text.aes_cmac_subkey_generate
                0x000353e4      0x2b0 mesh/core/libmesh_core_nrf52832_xxAA.a(aes_cmac.c.obj)
                0x000353e4                aes_cmac_subkey_generate
 .text.aes_cmac
                0x00035694      0x49c mesh/core/libmesh_core_nrf52832_xxAA.a(aes_cmac.c.obj)
                0x00035694                aes_cmac
 .text.msq_init
                0x00035b30       0x98 mesh/core/libmesh_core_nrf52832_xxAA.a(msqueue.c.obj)
                0x00035b30                msq_init
 .text.msq_get  0x00035bc8       0x68 mesh/core/libmesh_core_nrf52832_xxAA.a(msqueue.c.obj)
                0x00035bc8                msq_get
 .text.msq_move
                0x00035c30       0x60 mesh/core/libmesh_core_nrf52832_xxAA.a(msqueue.c.obj)
                0x00035c30                msq_move
 .text.msq_available
                0x00035c90       0x58 mesh/core/libmesh_core_nrf52832_xxAA.a(msqueue.c.obj)
                0x00035c90                msq_available
 .text.replay_cache_init
                0x00035ce8       0x28 mesh/core/libmesh_core_nrf52832_xxAA.a(replay_cache.c.obj)
                0x00035ce8                replay_cache_init
 .text.replay_cache_add
                0x00035d10       0x68 mesh/core/libmesh_core_nrf52832_xxAA.a(replay_cache.c.obj)
                0x00035d10                replay_cache_add
 .text.replay_cache_has_room
                0x00035d78       0x48 mesh/core/libmesh_core_nrf52832_xxAA.a(replay_cache.c.obj)
                0x00035d78                replay_cache_has_room
 .text.replay_cache_has_elem
                0x00035dc0       0x40 mesh/core/libmesh_core_nrf52832_xxAA.a(replay_cache.c.obj)
                0x00035dc0                replay_cache_has_elem
 .text.fen_filters_apply
                0x00035e00       0x38 mesh/core/libmesh_core_nrf52832_xxAA.a(filter_engine.c.obj)
                0x00035e00                fen_filters_apply
 .text.nrf_flash_erase
                0x00035e38       0x5c mesh/core/libmesh_core_nrf52832_xxAA.a(nrf_flash.c.obj)
                0x00035e38                nrf_flash_erase
 .text.nrf_flash_write
                0x00035e94       0x6c mesh/core/libmesh_core_nrf52832_xxAA.a(nrf_flash.c.obj)
                0x00035e94                nrf_flash_write
 .text.SEGGER_RTT_Write
                0x00035f00      0x1e4 external/rtt/librtt_nrf52832_xxAA.a(SEGGER_RTT.c.obj)
                0x00035f00                SEGGER_RTT_Write
 .text.SEGGER_RTT_GetKey
                0x000360e4       0xec external/rtt/librtt_nrf52832_xxAA.a(SEGGER_RTT.c.obj)
                0x000360e4                SEGGER_RTT_GetKey
 .text._PrintUnsigned
                0x000361d0      0x194 external/rtt/librtt_nrf52832_xxAA.a(SEGGER_RTT_printf.c.obj)
 .text.SEGGER_RTT_vprintf
                0x00036364      0x464 external/rtt/librtt_nrf52832_xxAA.a(SEGGER_RTT_printf.c.obj)
                0x00036364                SEGGER_RTT_vprintf
 .text.SEGGER_RTT_printf
                0x000367c8       0x20 external/rtt/librtt_nrf52832_xxAA.a(SEGGER_RTT_printf.c.obj)
                0x000367c8                SEGGER_RTT_printf
 .text.default_RNG
                0x000367e8        0xc external/micro-ecc/libuECC_nrf52832_xxAA.a(uECC.c.obj)
 .text.uECC_generate_random_int
                0x000367f4      0x170 external/micro-ecc/libuECC_nrf52832_xxAA.a(uECC.c.obj)
 .text.apply_z  0x00036964      0x1a8 external/micro-ecc/libuECC_nrf52832_xxAA.a(uECC.c.obj)
 .text.uECC_vli_modAdd
                0x00036b0c       0xc8 external/micro-ecc/libuECC_nrf52832_xxAA.a(uECC.c.obj)
 .text.x_side_default
                0x00036bd4      0x254 external/micro-ecc/libuECC_nrf52832_xxAA.a(uECC.c.obj)
 .text.vli_mmod_fast_secp256r1
                0x00036e28      0x520 external/micro-ecc/libuECC_nrf52832_xxAA.a(uECC.c.obj)
 .text.XYcZ_add
                0x00037348      0x6dc external/micro-ecc/libuECC_nrf52832_xxAA.a(uECC.c.obj)
 .text.XYcZ_addC
                0x00037a24      0xa94 external/micro-ecc/libuECC_nrf52832_xxAA.a(uECC.c.obj)
 .text.uECC_vli_modInv.part.4
                0x000384b8      0x6e8 external/micro-ecc/libuECC_nrf52832_xxAA.a(uECC.c.obj)
 .text.EccPoint_mult.constprop.5
                0x00038ba0      0x470 external/micro-ecc/libuECC_nrf52832_xxAA.a(uECC.c.obj)
 .text.double_jacobian_default
                0x00039010      0x7ec external/micro-ecc/libuECC_nrf52832_xxAA.a(uECC.c.obj)
 .text.uECC_secp256r1
                0x000397fc        0x8 external/micro-ecc/libuECC_nrf52832_xxAA.a(uECC.c.obj)
                0x000397fc                uECC_secp256r1
 .text.uECC_make_key
                0x00039804      0x23c external/micro-ecc/libuECC_nrf52832_xxAA.a(uECC.c.obj)
                0x00039804                uECC_make_key
 .text.uECC_shared_secret
                0x00039a40      0x788 external/micro-ecc/libuECC_nrf52832_xxAA.a(uECC.c.obj)
                0x00039a40                uECC_shared_secret
 .text.uECC_valid_point
                0x0003a1c8      0x134 external/micro-ecc/libuECC_nrf52832_xxAA.a(uECC.c.obj)
                0x0003a1c8                uECC_valid_point
 .text.uECC_valid_public_key
                0x0003a2fc       0xe8 external/micro-ecc/libuECC_nrf52832_xxAA.a(uECC.c.obj)
                0x0003a2fc                uECC_valid_public_key
 .text.exit     0x0003a3e4       0x28 c:/a/gcc_arm/6/bin/../lib/gcc/arm-none-eabi/6.3.1/../../../../arm-none-eabi/lib/thumb/v7e-m/fpv4-sp/hard\libc_nano.a(lib_a-exit.o)
                0x0003a3e4                exit
 .text.__libc_init_array
                0x0003a40c       0x48 c:/a/gcc_arm/6/bin/../lib/gcc/arm-none-eabi/6.3.1/../../../../arm-none-eabi/lib/thumb/v7e-m/fpv4-sp/hard\libc_nano.a(lib_a-init.o)
                0x0003a40c                __libc_init_array
 .text.malloc   0x0003a454       0x10 c:/a/gcc_arm/6/bin/../lib/gcc/arm-none-eabi/6.3.1/../../../../arm-none-eabi/lib/thumb/v7e-m/fpv4-sp/hard\libc_nano.a(lib_a-malloc.o)
                0x0003a454                malloc
 .text.free     0x0003a464       0x10 c:/a/gcc_arm/6/bin/../lib/gcc/arm-none-eabi/6.3.1/../../../../arm-none-eabi/lib/thumb/v7e-m/fpv4-sp/hard\libc_nano.a(lib_a-malloc.o)
                0x0003a464                free
 .text.memcmp   0x0003a474       0x1e c:/a/gcc_arm/6/bin/../lib/gcc/arm-none-eabi/6.3.1/../../../../arm-none-eabi/lib/thumb/v7e-m/fpv4-sp/hard\libc_nano.a(lib_a-memcmp.o)
                0x0003a474                memcmp
 .text.memcpy   0x0003a492       0x16 c:/a/gcc_arm/6/bin/../lib/gcc/arm-none-eabi/6.3.1/../../../../arm-none-eabi/lib/thumb/v7e-m/fpv4-sp/hard\libc_nano.a(lib_a-memcpy-stub.o)
                0x0003a492                memcpy
 .text.memset   0x0003a4a8       0x10 c:/a/gcc_arm/6/bin/../lib/gcc/arm-none-eabi/6.3.1/../../../../arm-none-eabi/lib/thumb/v7e-m/fpv4-sp/hard\libc_nano.a(lib_a-memset.o)
                0x0003a4a8                memset
 .text._free_r  0x0003a4b8       0x9c c:/a/gcc_arm/6/bin/../lib/gcc/arm-none-eabi/6.3.1/../../../../arm-none-eabi/lib/thumb/v7e-m/fpv4-sp/hard\libc_nano.a(lib_a-nano-freer.o)
                0x0003a4b8                _free_r
 .text._malloc_r
                0x0003a554       0xbc c:/a/gcc_arm/6/bin/../lib/gcc/arm-none-eabi/6.3.1/../../../../arm-none-eabi/lib/thumb/v7e-m/fpv4-sp/hard\libc_nano.a(lib_a-nano-mallocr.o)
                0x0003a554                _malloc_r
 .text._sbrk_r  0x0003a610       0x20 c:/a/gcc_arm/6/bin/../lib/gcc/arm-none-eabi/6.3.1/../../../../arm-none-eabi/lib/thumb/v7e-m/fpv4-sp/hard\libc_nano.a(lib_a-sbrkr.o)
                0x0003a610                _sbrk_r
 .text.strcpy   0x0003a630       0x10 c:/a/gcc_arm/6/bin/../lib/gcc/arm-none-eabi/6.3.1/../../../../arm-none-eabi/lib/thumb/v7e-m/fpv4-sp/hard\libc_nano.a(lib_a-strcpy.o)
                0x0003a630                strcpy
 .text          0x0003a640       0x10 c:/a/gcc_arm/6/bin/../lib/gcc/arm-none-eabi/6.3.1/../../../../arm-none-eabi/lib/thumb/v7e-m/fpv4-sp/hard\libc_nano.a(lib_a-strlen.o)
                0x0003a640                strlen
 .text.strrchr  0x0003a650       0x26 c:/a/gcc_arm/6/bin/../lib/gcc/arm-none-eabi/6.3.1/../../../../arm-none-eabi/lib/thumb/v7e-m/fpv4-sp/hard\libc_nano.a(lib_a-strrchr.o)
                0x0003a650                strrchr
 .text.__malloc_lock
                0x0003a676        0x2 c:/a/gcc_arm/6/bin/../lib/gcc/arm-none-eabi/6.3.1/../../../../arm-none-eabi/lib/thumb/v7e-m/fpv4-sp/hard\libc_nano.a(lib_a-mlock.o)
                0x0003a676                __malloc_lock
 .text.__malloc_unlock
                0x0003a678        0x2 c:/a/gcc_arm/6/bin/../lib/gcc/arm-none-eabi/6.3.1/../../../../arm-none-eabi/lib/thumb/v7e-m/fpv4-sp/hard\libc_nano.a(lib_a-mlock.o)
                0x0003a678                __malloc_unlock
 .text.strchr   0x0003a67a       0x1c c:/a/gcc_arm/6/bin/../lib/gcc/arm-none-eabi/6.3.1/../../../../arm-none-eabi/lib/thumb/v7e-m/fpv4-sp/hard\libc_nano.a(lib_a-strchr.o)
                0x0003a67a                strchr
 *fill*         0x0003a696        0x2 
 .text._sbrk    0x0003a698       0x1c c:/a/gcc_arm/6/bin/../lib/gcc/arm-none-eabi/6.3.1/../../../../arm-none-eabi/lib/thumb/v7e-m/fpv4-sp/hard\libnosys.a(sbrk.o)
                0x0003a698                _sbrk
 .text._exit    0x0003a6b4        0x4 c:/a/gcc_arm/6/bin/../lib/gcc/arm-none-eabi/6.3.1/../../../../arm-none-eabi/lib/thumb/v7e-m/fpv4-sp/hard\libnosys.a(_exit.o)
                0x0003a6b4                _exit
 *(.init)
 .init          0x0003a6b8        0x4 c:/a/gcc_arm/6/bin/../lib/gcc/arm-none-eabi/6.3.1/thumb/v7e-m/fpv4-sp/hard/crti.o
                0x0003a6b8                _init
 .init          0x0003a6bc        0x8 c:/a/gcc_arm/6/bin/../lib/gcc/arm-none-eabi/6.3.1/thumb/v7e-m/fpv4-sp/hard/crtn.o
 *(.fini)
 .fini          0x0003a6c4        0x4 c:/a/gcc_arm/6/bin/../lib/gcc/arm-none-eabi/6.3.1/thumb/v7e-m/fpv4-sp/hard/crti.o
                0x0003a6c4                _fini
 .fini          0x0003a6c8        0x8 c:/a/gcc_arm/6/bin/../lib/gcc/arm-none-eabi/6.3.1/thumb/v7e-m/fpv4-sp/hard/crtn.o
 *crtbegin.o(.ctors)
 *crtbegin?.o(.ctors)
 *(EXCLUDE_FILE(*crtend.o *crtend?.o) .ctors)
 *(SORT(.ctors.*))
 *(.ctors)
 *crtbegin.o(.dtors)
 *crtbegin?.o(.dtors)
 *(EXCLUDE_FILE(*crtend.o *crtend?.o) .dtors)
 *(SORT(.dtors.*))
 *(.dtors)
 *(.rodata*)
 .rodata        0x0003a6d0        0x4 examples/light_switch/client/CMakeFiles/light_switch_client_nrf52832_xxAA_s132_5.0.0.dir/src/main.c.obj
 .rodata.button_event_handler.str1.4
                0x0003a6d4       0x96 examples/light_switch/client/CMakeFiles/light_switch_client_nrf52832_xxAA_s132_5.0.0.dir/src/main.c.obj
 *fill*         0x0003a76a        0x2 
 .rodata.health_event_cb.str1.4
                0x0003a76c       0x35 examples/light_switch/client/CMakeFiles/light_switch_client_nrf52832_xxAA_s132_5.0.0.dir/src/main.c.obj
 *fill*         0x0003a7a1        0x3 
 .rodata.m_appkey
                0x0003a7a4       0x10 examples/light_switch/client/CMakeFiles/light_switch_client_nrf52832_xxAA_s132_5.0.0.dir/src/main.c.obj
 .rodata.m_netkey
                0x0003a7b4       0x10 examples/light_switch/client/CMakeFiles/light_switch_client_nrf52832_xxAA_s132_5.0.0.dir/src/main.c.obj
 .rodata.main.str1.4
                0x0003a7c4       0x54 examples/light_switch/client/CMakeFiles/light_switch_client_nrf52832_xxAA_s132_5.0.0.dir/src/main.c.obj
 .rodata.provisioner_config_failed_cb.str1.4
                0x0003a818       0x23 examples/light_switch/client/CMakeFiles/light_switch_client_nrf52832_xxAA_s132_5.0.0.dir/src/main.c.obj
 *fill*         0x0003a83b        0x1 
 .rodata.provisioner_config_successful_cb.str1.4
                0x0003a83c       0x41 examples/light_switch/client/CMakeFiles/light_switch_client_nrf52832_xxAA_s132_5.0.0.dir/src/main.c.obj
 *fill*         0x0003a87d        0x3 
 .rodata.provisioner_prov_complete_cb.str1.4
                0x0003a880       0x2f examples/light_switch/client/CMakeFiles/light_switch_client_nrf52832_xxAA_s132_5.0.0.dir/src/main.c.obj
 *fill*         0x0003a8af        0x1 
 .rodata        0x0003a8b0       0x20 examples/light_switch/client/CMakeFiles/light_switch_client_nrf52832_xxAA_s132_5.0.0.dir/src/provisioner.c.obj
 .rodata.config_client_event_cb.str1.4
                0x0003a8d0       0x1c examples/light_switch/client/CMakeFiles/light_switch_client_nrf52832_xxAA_s132_5.0.0.dir/src/provisioner.c.obj
 .rodata.do_config_step.str1.4
                0x0003a8ec      0x145 examples/light_switch/client/CMakeFiles/light_switch_client_nrf52832_xxAA_s132_5.0.0.dir/src/provisioner.c.obj
 *fill*         0x0003aa31        0x3 
 .rodata.mesh_evt_handler.str1.4
                0x0003aa34       0xf5 examples/light_switch/client/CMakeFiles/light_switch_client_nrf52832_xxAA_s132_5.0.0.dir/src/provisioner.c.obj
 *fill*         0x0003ab29        0x3 
 .rodata.HardFault_Handler.str1.4
                0x0003ab2c        0xe examples/light_switch/client/CMakeFiles/light_switch_client_nrf52832_xxAA_s132_5.0.0.dir/__/__/nrf_mesh_sdk.c.obj
 *fill*         0x0003ab3a        0x2 
 .rodata.app_error_handler.str1.4
                0x0003ab3c       0x1d examples/light_switch/client/CMakeFiles/light_switch_client_nrf52832_xxAA_s132_5.0.0.dir/__/__/nrf_mesh_sdk.c.obj
 *fill*         0x0003ab59        0x3 
 .rodata.mesh_assert_handler.str1.4
                0x0003ab5c       0x35 examples/light_switch/client/CMakeFiles/light_switch_client_nrf52832_xxAA_s132_5.0.0.dir/__/__/nrf_mesh_sdk.c.obj
 *fill*         0x0003ab91        0x3 
 .rodata.mesh_core_setup.str1.4
                0x0003ab94       0x4d examples/light_switch/client/CMakeFiles/light_switch_client_nrf52832_xxAA_s132_5.0.0.dir/__/__/nrf_mesh_sdk.c.obj
 *fill*         0x0003abe1        0x3 
 .rodata.mesh_softdevice_enable.str1.4
                0x0003abe4       0x65 examples/light_switch/client/CMakeFiles/light_switch_client_nrf52832_xxAA_s132_5.0.0.dir/__/__/nrf_mesh_sdk.c.obj
 *fill*         0x0003ac49        0x3 
 .rodata.softdevice_assert_handler.str1.4
                0x0003ac4c       0x1d examples/light_switch/client/CMakeFiles/light_switch_client_nrf52832_xxAA_s132_5.0.0.dir/__/__/nrf_mesh_sdk.c.obj
 *fill*         0x0003ac69        0x3 
 .rodata.m_opcode_handlers
                0x0003ac6c        0x8 examples/light_switch/client/CMakeFiles/light_switch_client_nrf52832_xxAA_s132_5.0.0.dir/__/__/__/models/simple_on_off/src/simple_on_off_client.c.obj
 .rodata.m_config_message_lut
                0x0003ac74       0x48 examples/light_switch/client/CMakeFiles/light_switch_client_nrf52832_xxAA_s132_5.0.0.dir/__/__/__/models/config/src/config_client.c.obj
 .rodata.m_opcode_handlers
                0x0003acbc       0x60 examples/light_switch/client/CMakeFiles/light_switch_client_nrf52832_xxAA_s132_5.0.0.dir/__/__/__/models/config/src/config_client.c.obj
 .rodata.m_opcode_handlers
                0x0003ad1c       0x20 examples/light_switch/client/CMakeFiles/light_switch_client_nrf52832_xxAA_s132_5.0.0.dir/__/__/__/models/health/src/health_client.c.obj
 .rodata.access_model_publish.str1.4
                0x0003ad3c       0x13 examples/light_switch/client/CMakeFiles/light_switch_client_nrf52832_xxAA_s132_5.0.0.dir/__/__/__/mesh/access/src/access.c.obj
 *fill*         0x0003ad4f        0x1 
 .rodata.mesh_evt_cb.str1.4
                0x0003ad50       0x2f examples/light_switch/client/CMakeFiles/light_switch_client_nrf52832_xxAA_s132_5.0.0.dir/__/__/__/mesh/access/src/access.c.obj
 *fill*         0x0003ad7f        0x1 
 .rodata.multiply_de_bruijn_bit_position.9124
                0x0003ad80       0x20 examples/light_switch/client/CMakeFiles/light_switch_client_nrf52832_xxAA_s132_5.0.0.dir/__/__/__/mesh/access/src/access.c.obj
 .rodata.m_flash_groups
                0x0003ada0       0xc0 examples/light_switch/client/CMakeFiles/light_switch_client_nrf52832_xxAA_s132_5.0.0.dir/__/__/__/mesh/access/src/device_state_manager.c.obj
 .rodata.m_prov_callbacks
                0x0003ae60       0x10 examples/light_switch/client/CMakeFiles/light_switch_client_nrf52832_xxAA_s132_5.0.0.dir/__/__/__/mesh/prov/src/prov_provisioner.c.obj
 .rodata.pdu_sizes.10819
                0x0003ae70        0xa examples/light_switch/client/CMakeFiles/light_switch_client_nrf52832_xxAA_s132_5.0.0.dir/__/__/__/mesh/prov/src/provisioning.c.obj
 *fill*         0x0003ae7a        0x2 
 .rodata.prov_cb_pkt_in.str1.4
                0x0003ae7c       0x34 examples/light_switch/client/CMakeFiles/light_switch_client_nrf52832_xxAA_s132_5.0.0.dir/__/__/__/mesh/prov/src/provisioning.c.obj
 .rodata.alphanumeric.10923
                0x0003aeb0       0x25 examples/light_switch/client/CMakeFiles/light_switch_client_nrf52832_xxAA_s132_5.0.0.dir/__/__/__/mesh/prov/src/prov_utils.c.obj
 *fill*         0x0003aed5        0x3 
 .rodata.numeric_max.10917
                0x0003aed8       0x24 examples/light_switch/client/CMakeFiles/light_switch_client_nrf52832_xxAA_s132_5.0.0.dir/__/__/__/mesh/prov/src/prov_utils.c.obj
 .rodata.prov_utils_authentication_values_derive.str1.4
                0x0003aefc        0x5 examples/light_switch/client/CMakeFiles/light_switch_client_nrf52832_xxAA_s132_5.0.0.dir/__/__/__/mesh/prov/src/prov_utils.c.obj
 *fill*         0x0003af01        0x3 
 .rodata.prov_utils_derive_keys.str1.4
                0x0003af04       0x15 examples/light_switch/client/CMakeFiles/light_switch_client_nrf52832_xxAA_s132_5.0.0.dir/__/__/__/mesh/prov/src/prov_utils.c.obj
 *fill*         0x0003af19        0x3 
 .rodata.crctable.10681
                0x0003af1c      0x100 examples/light_switch/client/CMakeFiles/light_switch_client_nrf52832_xxAA_s132_5.0.0.dir/__/__/__/mesh/prov/src/prov_bearer_adv.c.obj
 .rodata.interface.10910
                0x0003b01c       0x14 examples/light_switch/client/CMakeFiles/light_switch_client_nrf52832_xxAA_s132_5.0.0.dir/__/__/__/mesh/prov/src/prov_bearer_adv.c.obj
 .rodata.prov_bearer_adv_listen.str1.4
                0x0003b030       0x50 examples/light_switch/client/CMakeFiles/light_switch_client_nrf52832_xxAA_s132_5.0.0.dir/__/__/__/mesh/prov/src/prov_bearer_adv.c.obj
 .rodata.prov_bearer_adv_packet_in.str1.4
                0x0003b080      0x283 examples/light_switch/client/CMakeFiles/light_switch_client_nrf52832_xxAA_s132_5.0.0.dir/__/__/__/mesh/prov/src/prov_bearer_adv.c.obj
 *fill*         0x0003b303        0x1 
 .rodata.tx_retry_cb.str1.4
                0x0003b304       0x14 examples/light_switch/client/CMakeFiles/light_switch_client_nrf52832_xxAA_s132_5.0.0.dir/__/__/__/mesh/prov/src/prov_bearer_adv.c.obj
 .rodata.types_lookup.8947
                0x0003b318        0x4 mesh/core/libmesh_core_nrf52832_xxAA.a(nrf_mesh_utils.c.obj)
 .rodata.nrf_mesh_process.str1.4
                0x0003b31c       0x73 mesh/core/libmesh_core_nrf52832_xxAA.a(nrf_mesh.c.obj)
 *fill*         0x0003b38f        0x1 
 .rodata.CSWTCH.9
                0x0003b390       0x20 mesh/core/libmesh_core_nrf52832_xxAA.a(hal.c.obj)
 .rodata        0x0003b3b0       0x18 mesh/core/libmesh_core_nrf52832_xxAA.a(enc.c.obj)
 .rodata.network_packet_in.str1.4
                0x0003b3c8       0x41 mesh/core/libmesh_core_nrf52832_xxAA.a(network.c.obj)
                                 0x49 (size before relaxing)
 *fill*         0x0003b409        0x3 
 .rodata.network_packet_send.str1.4
                0x0003b40c       0x4a mesh/core/libmesh_core_nrf52832_xxAA.a(network.c.obj)
 *fill*         0x0003b456        0x2 
 .rodata        0x0003b458        0x7 mesh/core/libmesh_core_nrf52832_xxAA.a(nrf_mesh_keygen.c.obj)
 *fill*         0x0003b45f        0x1 
 .rodata.log_callback_rtt.str1.4
                0x0003b460       0x15 mesh/core/libmesh_core_nrf52832_xxAA.a(log.c.obj)
 *fill*         0x0003b475        0x3 
 .rodata.str1.4
                0x0003b478       0x11 mesh/core/libmesh_core_nrf52832_xxAA.a(log.c.obj)
 *fill*         0x0003b489        0x3 
 .rodata.INVALID_HEADER
                0x0003b48c        0x4 mesh/core/libmesh_core_nrf52832_xxAA.a(flash_manager.c.obj)
                0x0003b48c                INVALID_HEADER
 .rodata.PADDING_HEADER
                0x0003b490        0x4 mesh/core/libmesh_core_nrf52832_xxAA.a(flash_manager.c.obj)
                0x0003b490                PADDING_HEADER
 .rodata.SEAL_HEADER
                0x0003b494        0x4 mesh/core/libmesh_core_nrf52832_xxAA.a(flash_manager.c.obj)
                0x0003b494                SEAL_HEADER
 .rodata.process_action_queue.str1.4
                0x0003b498       0x21 mesh/core/libmesh_core_nrf52832_xxAA.a(flash_manager.c.obj)
                                 0x52 (size before relaxing)
 *fill*         0x0003b4b9        0x3 
 .rodata.beacon_packet_in.str1.4
                0x0003b4bc       0x55 mesh/core/libmesh_core_nrf52832_xxAA.a(beacon.c.obj)
                                 0x60 (size before relaxing)
 *fill*         0x0003b511        0x3 
 .rodata.net_beacon_init.str1.4
                0x0003b514        0x5 mesh/core/libmesh_core_nrf52832_xxAA.a(net_beacon.c.obj)
 *fill*         0x0003b519        0x3 
 .rodata.radio_mode_to_us_per_byte.9323
                0x0003b51c        0x6 mesh/core/libmesh_core_nrf52832_xxAA.a(broadcast.c.obj)
 *fill*         0x0003b522        0x2 
 .rodata.channel_rf_offsets.8585
                0x0003b524       0x28 mesh/core/libmesh_core_nrf52832_xxAA.a(radio_config.c.obj)
 .rodata.sar_ack_send.str1.4
                0x0003b54c       0x1d mesh/core/libmesh_core_nrf52832_xxAA.a(transport.c.obj)
                                 0x4e (size before relaxing)
 *fill*         0x0003b569        0x3 
 .rodata.sar_ctx_cancel.str1.4
                0x0003b56c       0x18 mesh/core/libmesh_core_nrf52832_xxAA.a(transport.c.obj)
 .rodata.test_transport_decrypt.str1.4
                0x0003b584       0x13 mesh/core/libmesh_core_nrf52832_xxAA.a(transport.c.obj)
 *fill*         0x0003b597        0x1 
 .rodata.transport_packet_in.str1.4
                0x0003b598       0x24 mesh/core/libmesh_core_nrf52832_xxAA.a(transport.c.obj)
 .rodata.transport_tx.str1.4
                0x0003b5bc       0x2f mesh/core/libmesh_core_nrf52832_xxAA.a(transport.c.obj)
                                 0x38 (size before relaxing)
 *fill*         0x0003b5eb        0x1 
 .rodata.upper_transport_access_packet_in.str1.4
                0x0003b5ec       0x29 mesh/core/libmesh_core_nrf52832_xxAA.a(transport.c.obj)
 *fill*         0x0003b615        0x3 
 .rodata.upper_transport_packet_in.str1.4
                0x0003b618       0x2e mesh/core/libmesh_core_nrf52832_xxAA.a(transport.c.obj)
 *fill*         0x0003b646        0x2 
 .rodata.flash_manager_defrag.str1.4
                0x0003b648       0x28 mesh/core/libmesh_core_nrf52832_xxAA.a(flash_manager_defrag.c.obj)
                                 0x56 (size before relaxing)
 .rodata.m_procedure_steps
                0x0003b670       0x28 mesh/core/libmesh_core_nrf52832_xxAA.a(flash_manager_defrag.c.obj)
 .rodata.m_all_operations
                0x0003b698       0x10 mesh/core/libmesh_core_nrf52832_xxAA.a(mesh_flash.c.obj)
 .rodata.SEGGER_RTT_ReadNoLock.str1.4
                0x0003b6a8       0x18 external/rtt/librtt_nrf52832_xxAA.a(SEGGER_RTT.c.obj)
                                 0x17 (size before relaxing)
 .rodata._aV2C.5497
                0x0003b6c0       0x10 external/rtt/librtt_nrf52832_xxAA.a(SEGGER_RTT_printf.c.obj)
 .rodata.curve_secp256r1
                0x0003b6d0       0xb0 external/micro-ecc/libuECC_nrf52832_xxAA.a(uECC.c.obj)
 .rodata._global_impure_ptr
                0x0003b780        0x4 c:/a/gcc_arm/6/bin/../lib/gcc/arm-none-eabi/6.3.1/../../../../arm-none-eabi/lib/thumb/v7e-m/fpv4-sp/hard\libc_nano.a(lib_a-impure.o)
                0x0003b780                _global_impure_ptr
 *(.eh_frame*)
 .eh_frame      0x0003b784        0x0 c:/a/gcc_arm/6/bin/../lib/gcc/arm-none-eabi/6.3.1/thumb/v7e-m/fpv4-sp/hard/crtbegin.o
 .eh_frame      0x0003b784        0x4 c:/a/gcc_arm/6/bin/../lib/gcc/arm-none-eabi/6.3.1/thumb/v7e-m/fpv4-sp/hard/crtend.o

.glue_7         0x0003b788        0x0
 .glue_7        0x0003b788        0x0 linker stubs

.glue_7t        0x0003b788        0x0
 .glue_7t       0x0003b788        0x0 linker stubs

.vfp11_veneer   0x0003b788        0x0
 .vfp11_veneer  0x0003b788        0x0 linker stubs

.v4_bx          0x0003b788        0x0
 .v4_bx         0x0003b788        0x0 linker stubs

.iplt           0x0003b788        0x0
 .iplt          0x0003b788        0x0 c:/a/gcc_arm/6/bin/../lib/gcc/arm-none-eabi/6.3.1/thumb/v7e-m/fpv4-sp/hard/crtbegin.o

.ARM.extab
 *(.ARM.extab* .gnu.linkonce.armextab.*)
                0x0003b788                __exidx_start = .

.ARM.exidx      0x0003b788        0x8
 *(.ARM.exidx* .gnu.linkonce.armexidx.*)
 .ARM.exidx     0x0003b788        0x8 c:/a/gcc_arm/6/bin/../lib/gcc/arm-none-eabi/6.3.1/../../../../arm-none-eabi/lib/thumb/v7e-m/fpv4-sp/hard/crt0.o
                0x0003b790                __exidx_end = .
                0x0003b790                __etext = .

.rel.dyn        0x0003b790        0x0
 .rel.iplt      0x0003b790        0x0 c:/a/gcc_arm/6/bin/../lib/gcc/arm-none-eabi/6.3.1/thumb/v7e-m/fpv4-sp/hard/crtbegin.o

.data           0x200031b0      0x114 load address 0x0003b790
                0x200031b0                __data_start__ = .
 *(vtable)
 *(.data*)
 .data.flash_add_mem_available_struct.10375
                0x200031b0       0x10 examples/light_switch/client/CMakeFiles/light_switch_client_nrf52832_xxAA_s132_5.0.0.dir/__/__/__/mesh/access/src/access.c.obj
 .data.flash_clear_mem_available_struct.10464
                0x200031c0       0x10 examples/light_switch/client/CMakeFiles/light_switch_client_nrf52832_xxAA_s132_5.0.0.dir/__/__/__/mesh/access/src/access.c.obj
 .data.flash_store_mem_available_struct.10488
                0x200031d0       0x10 examples/light_switch/client/CMakeFiles/light_switch_client_nrf52832_xxAA_s132_5.0.0.dir/__/__/__/mesh/access/src/access.c.obj
 .data.m_default_ttl
                0x200031e0        0x1 examples/light_switch/client/CMakeFiles/light_switch_client_nrf52832_xxAA_s132_5.0.0.dir/__/__/__/mesh/access/src/access.c.obj
 *fill*         0x200031e1        0x3 
 .data.mem_listener.10627
                0x200031e4       0x10 examples/light_switch/client/CMakeFiles/light_switch_client_nrf52832_xxAA_s132_5.0.0.dir/__/__/__/mesh/access/src/device_state_manager.c.obj
 .data.mem_listener.10653
                0x200031f4       0x10 examples/light_switch/client/CMakeFiles/light_switch_client_nrf52832_xxAA_s132_5.0.0.dir/__/__/__/mesh/access/src/device_state_manager.c.obj
 .data.m_unprov_report
                0x20003204        0x1 examples/light_switch/client/CMakeFiles/light_switch_client_nrf52832_xxAA_s132_5.0.0.dir/__/__/__/mesh/prov/src/prov_beacon.c.obj
 *fill*         0x20003205        0x3 
 .data.m_async_process_flag
                0x20003208        0x4 examples/light_switch/client/CMakeFiles/light_switch_client_nrf52832_xxAA_s132_5.0.0.dir/__/__/__/mesh/prov/src/prov_bearer_adv.c.obj
 .data.SystemCoreClock
                0x2000320c        0x4 examples/light_switch/client/CMakeFiles/light_switch_client_nrf52832_xxAA_s132_5.0.0.dir/__/__/__/external/nRF5_SDK_14.0.0_3bcc1f7/components/toolchain/system_nrf52.c.obj
                0x2000320c                SystemCoreClock
 .data.mem_listener.9847
                0x20003210       0x10 mesh/core/libmesh_core_nrf52832_xxAA.a(net_state.c.obj)
 .data.mem_listener.9852
                0x20003220       0x10 mesh/core/libmesh_core_nrf52832_xxAA.a(net_state.c.obj)
 .data.mem_listener.9866
                0x20003230       0x10 mesh/core/libmesh_core_nrf52832_xxAA.a(net_state.c.obj)
 .data.g_log_debug_level
                0x20003240        0x4 mesh/core/libmesh_core_nrf52832_xxAA.a(log.c.obj)
                0x20003240                g_log_debug_level
 .data.g_log_debug_msk
                0x20003244        0x4 mesh/core/libmesh_core_nrf52832_xxAA.a(log.c.obj)
                0x20003244                g_log_debug_msk
 .data.g_log_hex_digits
                0x20003248        0x4 mesh/core/libmesh_core_nrf52832_xxAA.a(log.c.obj)
                0x20003248                g_log_hex_digits
 .data.m_log_callback
                0x2000324c        0x4 mesh/core/libmesh_core_nrf52832_xxAA.a(log.c.obj)
                0x2000324c                m_log_callback
 .data.g_rng_function
                0x20003250        0x4 external/micro-ecc/libuECC_nrf52832_xxAA.a(uECC.c.obj)
 .data._impure_ptr
                0x20003254        0x4 c:/a/gcc_arm/6/bin/../lib/gcc/arm-none-eabi/6.3.1/../../../../arm-none-eabi/lib/thumb/v7e-m/fpv4-sp/hard\libc_nano.a(lib_a-impure.o)
                0x20003254                _impure_ptr
 .data.impure_data
                0x20003258       0x60 c:/a/gcc_arm/6/bin/../lib/gcc/arm-none-eabi/6.3.1/../../../../arm-none-eabi/lib/thumb/v7e-m/fpv4-sp/hard\libc_nano.a(lib_a-impure.o)
                0x200032b8                . = ALIGN (0x4)
                0x200032b8                PROVIDE (__preinit_array_start, .)
 *(.preinit_array)
                0x200032b8                PROVIDE (__preinit_array_end, .)
                0x200032b8                . = ALIGN (0x4)
                0x200032b8                PROVIDE (__init_array_start, .)
 *(SORT(.init_array.*))
 *(.init_array)
 .init_array    0x200032b8        0x4 c:/a/gcc_arm/6/bin/../lib/gcc/arm-none-eabi/6.3.1/thumb/v7e-m/fpv4-sp/hard/crtbegin.o
                0x200032bc                PROVIDE (__init_array_end, .)
                0x200032bc                . = ALIGN (0x4)
                [!provide]                PROVIDE (__fini_array_start, .)
 *(SORT(.fini_array.*))
 *(.fini_array)
 .fini_array    0x200032bc        0x4 c:/a/gcc_arm/6/bin/../lib/gcc/arm-none-eabi/6.3.1/thumb/v7e-m/fpv4-sp/hard/crtbegin.o
                [!provide]                PROVIDE (__fini_array_end, .)
 *(.jcr*)
 .jcr           0x200032c0        0x0 c:/a/gcc_arm/6/bin/../lib/gcc/arm-none-eabi/6.3.1/thumb/v7e-m/fpv4-sp/hard/crtbegin.o
 .jcr           0x200032c0        0x4 c:/a/gcc_arm/6/bin/../lib/gcc/arm-none-eabi/6.3.1/thumb/v7e-m/fpv4-sp/hard/crtend.o
                0x200032c4                . = ALIGN (0x4)
                0x200032c4                __data_end__ = .

.igot.plt       0x200032c4        0x0 load address 0x0003b8a4
 .igot.plt      0x200032c4        0x0 c:/a/gcc_arm/6/bin/../lib/gcc/arm-none-eabi/6.3.1/thumb/v7e-m/fpv4-sp/hard/crtbegin.o

.bss            0x200032c8     0x2f78 load address 0x0003b8a8
                0x200032c8                . = ALIGN (0x4)
                0x200032c8                __bss_start__ = .
 *(.bss*)
 .bss           0x200032c8       0x1c c:/a/gcc_arm/6/bin/../lib/gcc/arm-none-eabi/6.3.1/thumb/v7e-m/fpv4-sp/hard/crtbegin.o
 .bss.m_appkey_handle
                0x200032e4        0x2 examples/light_switch/client/CMakeFiles/light_switch_client_nrf52832_xxAA_s132_5.0.0.dir/src/main.c.obj
 *fill*         0x200032e6        0x2 
 .bss.m_clients
                0x200032e8       0x30 examples/light_switch/client/CMakeFiles/light_switch_client_nrf52832_xxAA_s132_5.0.0.dir/src/main.c.obj
 .bss.m_configured_devices
                0x20003318        0x2 examples/light_switch/client/CMakeFiles/light_switch_client_nrf52832_xxAA_s132_5.0.0.dir/src/main.c.obj
 *fill*         0x2000331a        0x2 
 .bss.m_devkey_handles
                0x2000331c        0x6 examples/light_switch/client/CMakeFiles/light_switch_client_nrf52832_xxAA_s132_5.0.0.dir/src/main.c.obj
 .bss.m_group_handle
                0x20003322        0x2 examples/light_switch/client/CMakeFiles/light_switch_client_nrf52832_xxAA_s132_5.0.0.dir/src/main.c.obj
 .bss.m_health_client
                0x20003324       0x10 examples/light_switch/client/CMakeFiles/light_switch_client_nrf52832_xxAA_s132_5.0.0.dir/src/main.c.obj
 .bss.m_netkey_handle
                0x20003334        0x2 examples/light_switch/client/CMakeFiles/light_switch_client_nrf52832_xxAA_s132_5.0.0.dir/src/main.c.obj
 .bss.m_provisioned_devices
                0x20003336        0x2 examples/light_switch/client/CMakeFiles/light_switch_client_nrf52832_xxAA_s132_5.0.0.dir/src/main.c.obj
 .bss.m_server_handles
                0x20003338        0x6 examples/light_switch/client/CMakeFiles/light_switch_client_nrf52832_xxAA_s132_5.0.0.dir/src/main.c.obj
 *fill*         0x2000333e        0x2 
 .bss.m_evt_handler
                0x20003340        0x8 examples/light_switch/client/CMakeFiles/light_switch_client_nrf52832_xxAA_s132_5.0.0.dir/src/provisioner.c.obj
 .bss.m_private_key
                0x20003348       0x20 examples/light_switch/client/CMakeFiles/light_switch_client_nrf52832_xxAA_s132_5.0.0.dir/src/provisioner.c.obj
 .bss.m_prov_ctx
                0x20003368      0x2fc examples/light_switch/client/CMakeFiles/light_switch_client_nrf52832_xxAA_s132_5.0.0.dir/src/provisioner.c.obj
 .bss.m_prov_state
                0x20003664        0x1 examples/light_switch/client/CMakeFiles/light_switch_client_nrf52832_xxAA_s132_5.0.0.dir/src/provisioner.c.obj
 *fill*         0x20003665        0x3 
 .bss.m_public_key
                0x20003668       0x40 examples/light_switch/client/CMakeFiles/light_switch_client_nrf52832_xxAA_s132_5.0.0.dir/src/provisioner.c.obj
 .bss.m_target_address
                0x200036a8        0x2 examples/light_switch/client/CMakeFiles/light_switch_client_nrf52832_xxAA_s132_5.0.0.dir/src/provisioner.c.obj
 *fill*         0x200036aa        0x2 
 .bss.m_ble_evt_buffer
                0x200036ac       0x4f examples/light_switch/client/CMakeFiles/light_switch_client_nrf52832_xxAA_s132_5.0.0.dir/__/__/nrf_mesh_sdk.c.obj
 *fill*         0x200036fb        0x1 
 .bss.m_button_handler_cb
                0x200036fc        0x4 examples/light_switch/client/CMakeFiles/light_switch_client_nrf52832_xxAA_s132_5.0.0.dir/__/__/hal/src/simple_hal.c.obj
 .bss.m_last_button_press
                0x20003700        0x4 examples/light_switch/client/CMakeFiles/light_switch_client_nrf52832_xxAA_s132_5.0.0.dir/__/__/hal/src/simple_hal.c.obj
 .bss.m_tid     0x20003704        0x1 examples/light_switch/client/CMakeFiles/light_switch_client_nrf52832_xxAA_s132_5.0.0.dir/__/__/__/models/simple_on_off/src/simple_on_off_client.c.obj
 *fill*         0x20003705        0x3 
 .bss.m_client  0x20003708        0x8 examples/light_switch/client/CMakeFiles/light_switch_client_nrf52832_xxAA_s132_5.0.0.dir/__/__/__/models/config/src/config_client.c.obj
 .bss.mp_packet_buffer
                0x20003710        0x4 examples/light_switch/client/CMakeFiles/light_switch_client_nrf52832_xxAA_s132_5.0.0.dir/__/__/__/models/config/src/config_client.c.obj
 .bss.m_publish_timer
                0x20003714       0x18 examples/light_switch/client/CMakeFiles/light_switch_client_nrf52832_xxAA_s132_5.0.0.dir/__/__/__/mesh/access/src/access_publish.c.obj
 .bss.m_publish_timer_counter
                0x2000372c        0x4 examples/light_switch/client/CMakeFiles/light_switch_client_nrf52832_xxAA_s132_5.0.0.dir/__/__/__/mesh/access/src/access_publish.c.obj
 .bss.m_publish_timer_running
                0x20003730        0x1 examples/light_switch/client/CMakeFiles/light_switch_client_nrf52832_xxAA_s132_5.0.0.dir/__/__/__/mesh/access/src/access_publish.c.obj
 .bss.m_timer_resolution
                0x20003731        0x1 examples/light_switch/client/CMakeFiles/light_switch_client_nrf52832_xxAA_s132_5.0.0.dir/__/__/__/mesh/access/src/access_publish.c.obj
 *fill*         0x20003732        0x2 
 .bss.mp_publication_list
                0x20003734        0x4 examples/light_switch/client/CMakeFiles/light_switch_client_nrf52832_xxAA_s132_5.0.0.dir/__/__/__/mesh/access/src/access_publish.c.obj
 .bss.m_element_pool
                0x20003738       0x18 examples/light_switch/client/CMakeFiles/light_switch_client_nrf52832_xxAA_s132_5.0.0.dir/__/__/__/mesh/access/src/access.c.obj
 .bss.m_evt_handler
                0x20003750        0x8 examples/light_switch/client/CMakeFiles/light_switch_client_nrf52832_xxAA_s132_5.0.0.dir/__/__/__/mesh/access/src/access.c.obj
 .bss.m_flash_manager
                0x20003758       0x24 examples/light_switch/client/CMakeFiles/light_switch_client_nrf52832_xxAA_s132_5.0.0.dir/__/__/__/mesh/access/src/access.c.obj
 .bss.m_flash_not_ready
                0x2000377c        0x1 examples/light_switch/client/CMakeFiles/light_switch_client_nrf52832_xxAA_s132_5.0.0.dir/__/__/__/mesh/access/src/access.c.obj
 .bss.m_metadata_stored
                0x2000377d        0x1 examples/light_switch/client/CMakeFiles/light_switch_client_nrf52832_xxAA_s132_5.0.0.dir/__/__/__/mesh/access/src/access.c.obj
 *fill*         0x2000377e        0x2 
 .bss.m_model_pool
                0x20003780      0x138 examples/light_switch/client/CMakeFiles/light_switch_client_nrf52832_xxAA_s132_5.0.0.dir/__/__/__/mesh/access/src/access.c.obj
 .bss.m_subscription_list_pool
                0x200038b8       0x30 examples/light_switch/client/CMakeFiles/light_switch_client_nrf52832_xxAA_s132_5.0.0.dir/__/__/__/mesh/access/src/access.c.obj
 .bss.m_reliable
                0x200038e8      0x10c examples/light_switch/client/CMakeFiles/light_switch_client_nrf52832_xxAA_s132_5.0.0.dir/__/__/__/mesh/access/src/access_reliable.c.obj
 .bss.m_addr_nonvirtual_allocated
                0x200039f4        0x4 examples/light_switch/client/CMakeFiles/light_switch_client_nrf52832_xxAA_s132_5.0.0.dir/__/__/__/mesh/access/src/device_state_manager.c.obj
 .bss.m_addr_nonvirtual_needs_flashing
                0x200039f8        0x4 examples/light_switch/client/CMakeFiles/light_switch_client_nrf52832_xxAA_s132_5.0.0.dir/__/__/__/mesh/access/src/device_state_manager.c.obj
 .bss.m_addr_unicast_allocated
                0x200039fc        0x4 examples/light_switch/client/CMakeFiles/light_switch_client_nrf52832_xxAA_s132_5.0.0.dir/__/__/__/mesh/access/src/device_state_manager.c.obj
 .bss.m_addr_unicast_needs_flashing
                0x20003a00        0x4 examples/light_switch/client/CMakeFiles/light_switch_client_nrf52832_xxAA_s132_5.0.0.dir/__/__/__/mesh/access/src/device_state_manager.c.obj
 .bss.m_addr_virtual_allocated
                0x20003a04        0x4 examples/light_switch/client/CMakeFiles/light_switch_client_nrf52832_xxAA_s132_5.0.0.dir/__/__/__/mesh/access/src/device_state_manager.c.obj
 .bss.m_addr_virtual_needs_flashing
                0x20003a08        0x4 examples/light_switch/client/CMakeFiles/light_switch_client_nrf52832_xxAA_s132_5.0.0.dir/__/__/__/mesh/access/src/device_state_manager.c.obj
 .bss.m_addresses
                0x20003a0c       0x10 examples/light_switch/client/CMakeFiles/light_switch_client_nrf52832_xxAA_s132_5.0.0.dir/__/__/__/mesh/access/src/device_state_manager.c.obj
 .bss.m_appkey_allocated
                0x20003a1c        0x4 examples/light_switch/client/CMakeFiles/light_switch_client_nrf52832_xxAA_s132_5.0.0.dir/__/__/__/mesh/access/src/device_state_manager.c.obj
 .bss.m_appkey_needs_flashing
                0x20003a20        0x4 examples/light_switch/client/CMakeFiles/light_switch_client_nrf52832_xxAA_s132_5.0.0.dir/__/__/__/mesh/access/src/device_state_manager.c.obj
 .bss.m_appkeys
                0x20003a24       0x16 examples/light_switch/client/CMakeFiles/light_switch_client_nrf52832_xxAA_s132_5.0.0.dir/__/__/__/mesh/access/src/device_state_manager.c.obj
 *fill*         0x20003a3a        0x2 
 .bss.m_devkey_allocated
                0x20003a3c        0x4 examples/light_switch/client/CMakeFiles/light_switch_client_nrf52832_xxAA_s132_5.0.0.dir/__/__/__/mesh/access/src/device_state_manager.c.obj
 .bss.m_devkey_needs_flashing
                0x20003a40        0x4 examples/light_switch/client/CMakeFiles/light_switch_client_nrf52832_xxAA_s132_5.0.0.dir/__/__/__/mesh/access/src/device_state_manager.c.obj
 .bss.m_devkeys
                0x20003a44       0x42 examples/light_switch/client/CMakeFiles/light_switch_client_nrf52832_xxAA_s132_5.0.0.dir/__/__/__/mesh/access/src/device_state_manager.c.obj
 .bss.m_flash_is_available
                0x20003a86        0x1 examples/light_switch/client/CMakeFiles/light_switch_client_nrf52832_xxAA_s132_5.0.0.dir/__/__/__/mesh/access/src/device_state_manager.c.obj
 *fill*         0x20003a87        0x1 
 .bss.m_flash_manager
                0x20003a88       0x24 examples/light_switch/client/CMakeFiles/light_switch_client_nrf52832_xxAA_s132_5.0.0.dir/__/__/__/mesh/access/src/device_state_manager.c.obj
 .bss.m_flash_mem_listener_update_all
                0x20003aac       0x10 examples/light_switch/client/CMakeFiles/light_switch_client_nrf52832_xxAA_s132_5.0.0.dir/__/__/__/mesh/access/src/device_state_manager.c.obj
 .bss.m_has_primary_subnet
                0x20003abc        0x1 examples/light_switch/client/CMakeFiles/light_switch_client_nrf52832_xxAA_s132_5.0.0.dir/__/__/__/mesh/access/src/device_state_manager.c.obj
 *fill*         0x20003abd        0x3 
 .bss.m_local_unicast_addr
                0x20003ac0        0x4 examples/light_switch/client/CMakeFiles/light_switch_client_nrf52832_xxAA_s132_5.0.0.dir/__/__/__/mesh/access/src/device_state_manager.c.obj
 .bss.m_subnet_allocated
                0x20003ac4        0x4 examples/light_switch/client/CMakeFiles/light_switch_client_nrf52832_xxAA_s132_5.0.0.dir/__/__/__/mesh/access/src/device_state_manager.c.obj
 .bss.m_subnet_needs_flashing
                0x20003ac8        0x4 examples/light_switch/client/CMakeFiles/light_switch_client_nrf52832_xxAA_s132_5.0.0.dir/__/__/__/mesh/access/src/device_state_manager.c.obj
 .bss.m_subnets
                0x20003acc       0x5c examples/light_switch/client/CMakeFiles/light_switch_client_nrf52832_xxAA_s132_5.0.0.dir/__/__/__/mesh/access/src/device_state_manager.c.obj
 .bss.m_virtual_addresses
                0x20003b28       0x14 examples/light_switch/client/CMakeFiles/light_switch_client_nrf52832_xxAA_s132_5.0.0.dir/__/__/__/mesh/access/src/device_state_manager.c.obj
 .bss.m_offload_ecdh
                0x20003b3c        0x1 examples/light_switch/client/CMakeFiles/light_switch_client_nrf52832_xxAA_s132_5.0.0.dir/__/__/__/mesh/prov/src/prov_utils.c.obj
 *fill*         0x20003b3d        0x3 
 .bss.mp_bearer_head
                0x20003b40        0x4 examples/light_switch/client/CMakeFiles/light_switch_client_nrf52832_xxAA_s132_5.0.0.dir/__/__/__/mesh/prov/src/prov_bearer_adv.c.obj
 .bss.m_uuid    0x20003b44       0x10 mesh/core/libmesh_core_nrf52832_xxAA.a(nrf_mesh_configure.c.obj)
 .bss.mp_evt_handlers_head
                0x20003b54        0x4 mesh/core/libmesh_core_nrf52832_xxAA.a(event.c.obj)
 .bss.m_pool    0x20003b58     0x1000 mesh/core/libmesh_core_nrf52832_xxAA.a(packet_mgr.c.obj)
 .bss.mp_free_head
                0x20004b58        0x4 mesh/core/libmesh_core_nrf52832_xxAA.a(packet_mgr.c.obj)
 .bss.lock_count.9906
                0x20004b5c        0x4 mesh/core/libmesh_core_nrf52832_xxAA.a(net_state.c.obj)
 .bss.m_flash_manager
                0x20004b60       0x24 mesh/core/libmesh_core_nrf52832_xxAA.a(net_state.c.obj)
 .bss.m_iv_update_timer
                0x20004b84       0x18 mesh/core/libmesh_core_nrf52832_xxAA.a(net_state.c.obj)
 .bss.m_net_state
                0x20004b9c       0x14 mesh/core/libmesh_core_nrf52832_xxAA.a(net_state.c.obj)
 .bss.m_seqnum_allocation_in_progress
                0x20004bb0        0x1 mesh/core/libmesh_core_nrf52832_xxAA.a(net_state.c.obj)
 .bss.m_test_mode
                0x20004bb1        0x1 mesh/core/libmesh_core_nrf52832_xxAA.a(net_state.c.obj)
 .bss.m_is_enabled
                0x20004bb2        0x1 mesh/core/libmesh_core_nrf52832_xxAA.a(nrf_mesh.c.obj)
 .bss.m_is_initialized
                0x20004bb3        0x1 mesh/core/libmesh_core_nrf52832_xxAA.a(nrf_mesh.c.obj)
 .bss.m_rx_cb   0x20004bb4        0x4 mesh/core/libmesh_core_nrf52832_xxAA.a(nrf_mesh.c.obj)
 .bss.m_event_flag
                0x20004bb8        0x4 mesh/core/libmesh_core_nrf52832_xxAA.a(timer_scheduler.c.obj)
 .bss.m_scheduler
                0x20004bbc       0x10 mesh/core/libmesh_core_nrf52832_xxAA.a(timer_scheduler.c.obj)
 .bss.m_attributes
                0x20004bcc        0x3 mesh/core/libmesh_core_nrf52832_xxAA.a(timer.c.obj)
 *fill*         0x20004bcf        0x1 
 .bss.m_callbacks
                0x20004bd0        0xc mesh/core/libmesh_core_nrf52832_xxAA.a(timer.c.obj)
 .bss.m_is_in_ts
                0x20004bdc        0x1 mesh/core/libmesh_core_nrf52832_xxAA.a(timer.c.obj)
 *fill*         0x20004bdd        0x3 
 .bss.m_reference_time
                0x20004be0        0x4 mesh/core/libmesh_core_nrf52832_xxAA.a(timer.c.obj)
 .bss.m_timeouts
                0x20004be4        0xc mesh/core/libmesh_core_nrf52832_xxAA.a(timer.c.obj)
 .bss.m_timer_mut
                0x20004bf0        0x4 mesh/core/libmesh_core_nrf52832_xxAA.a(timer.c.obj)
 .bss.m_ts_end_time
                0x20004bf4        0x4 mesh/core/libmesh_core_nrf52832_xxAA.a(timer.c.obj)
 .bss.mp_ppi_tasks
                0x20004bf8        0xc mesh/core/libmesh_core_nrf52832_xxAA.a(timer.c.obj)
 .bss.m_current_time
                0x20004c04        0x4 mesh/core/libmesh_core_nrf52832_xxAA.a(ticker.c.obj)
 .bss.m_timer   0x20004c08       0x18 mesh/core/libmesh_core_nrf52832_xxAA.a(ticker.c.obj)
 .bss.m_current_timeslot
                0x20004c20       0x1c mesh/core/libmesh_core_nrf52832_xxAA.a(timeslot.c.obj)
 .bss.m_lfclk_ppm
                0x20004c3c        0x4 mesh/core/libmesh_core_nrf52832_xxAA.a(timeslot.c.obj)
 .bss.m_radio_request_earliest
                0x20004c40       0x10 mesh/core/libmesh_core_nrf52832_xxAA.a(timeslot.c.obj)
 .bss.m_state_lock
                0x20004c50        0x1 mesh/core/libmesh_core_nrf52832_xxAA.a(timeslot.c.obj)
 .bss.m_timeslot_forced_command
                0x20004c51        0x1 mesh/core/libmesh_core_nrf52832_xxAA.a(timeslot.c.obj)
 *fill*         0x20004c52        0x6 
 .bss.s_last_rtc_value.9171
                0x20004c58        0x8 mesh/core/libmesh_core_nrf52832_xxAA.a(timeslot.c.obj)
 .bss.m_bearer_event_fifo
                0x20004c60       0x14 mesh/core/libmesh_core_nrf52832_xxAA.a(bearer_event.c.obj)
 .bss.m_bearer_event_fifo_buffer
                0x20004c74      0x100 mesh/core/libmesh_core_nrf52832_xxAA.a(bearer_event.c.obj)
 .bss.m_critical
                0x20004d74        0x4 mesh/core/libmesh_core_nrf52832_xxAA.a(bearer_event.c.obj)
 .bss.m_flag_count
                0x20004d78        0x4 mesh/core/libmesh_core_nrf52832_xxAA.a(bearer_event.c.obj)
 .bss.m_flag_event_callbacks
                0x20004d7c       0x18 mesh/core/libmesh_core_nrf52832_xxAA.a(bearer_event.c.obj)
 .bss.m_flags   0x20004d94        0x4 mesh/core/libmesh_core_nrf52832_xxAA.a(bearer_event.c.obj)
 .bss.m_sequential_event_queue
                0x20004d98        0x8 mesh/core/libmesh_core_nrf52832_xxAA.a(bearer_event.c.obj)
 .bss.m_relay_check_cb
                0x20004da0        0x4 mesh/core/libmesh_core_nrf52832_xxAA.a(network.c.obj)
 .bss.m_relay_enable
                0x20004da4        0x1 mesh/core/libmesh_core_nrf52832_xxAA.a(network.c.obj)
 *fill*         0x20004da5        0x3 
 .bss.m_action_queue
                0x20004da8        0xc mesh/core/libmesh_core_nrf52832_xxAA.a(flash_manager.c.obj)
 .bss.m_action_queue_buffer
                0x20004db4      0x104 mesh/core/libmesh_core_nrf52832_xxAA.a(flash_manager.c.obj)
 .bss.m_action_state
                0x20004eb8        0x1 mesh/core/libmesh_core_nrf52832_xxAA.a(flash_manager.c.obj)
 *fill*         0x20004eb9        0x3 
 .bss.m_memory_listener_queue
                0x20004ebc        0x8 mesh/core/libmesh_core_nrf52832_xxAA.a(flash_manager.c.obj)
 .bss.m_processing_flag
                0x20004ec4        0x4 mesh/core/libmesh_core_nrf52832_xxAA.a(flash_manager.c.obj)
 .bss.m_state   0x20004ec8        0x1 mesh/core/libmesh_core_nrf52832_xxAA.a(flash_manager.c.obj)
 *fill*         0x20004ec9        0x1 
 .bss.m_token   0x20004eca        0x2 mesh/core/libmesh_core_nrf52832_xxAA.a(flash_manager.c.obj)
 .bss.p_current.11023
                0x20004ecc        0x4 mesh/core/libmesh_core_nrf52832_xxAA.a(flash_manager.c.obj)
 .bss.result.11024
                0x20004ed0        0x1 mesh/core/libmesh_core_nrf52832_xxAA.a(flash_manager.c.obj)
 *fill*         0x20004ed1        0x3 
 .bss.m_adv_buffer
                0x20004ed4       0x68 mesh/core/libmesh_core_nrf52832_xxAA.a(beacon.c.obj)
 .bss.m_advertiser
                0x20004f3c       0x94 mesh/core/libmesh_core_nrf52832_xxAA.a(beacon.c.obj)
 .bss.m_adv_tx_count
                0x20004fd0        0x8 mesh/core/libmesh_core_nrf52832_xxAA.a(core_tx.c.obj)
 .bss.m_advertisers
                0x20004fd8      0x128 mesh/core/libmesh_core_nrf52832_xxAA.a(core_tx.c.obj)
 .bss.m_originator_adv_packet_buffer
                0x20005100      0x100 mesh/core/libmesh_core_nrf52832_xxAA.a(core_tx.c.obj)
 .bss.m_relay_adv_packet_buffer
                0x20005200       0x80 mesh/core/libmesh_core_nrf52832_xxAA.a(core_tx.c.obj)
 .bss.m_tx_complete_callback
                0x20005280        0x4 mesh/core/libmesh_core_nrf52832_xxAA.a(core_tx.c.obj)
 .bss.m_beacon_salt
                0x20005284       0x10 mesh/core/libmesh_core_nrf52832_xxAA.a(net_beacon.c.obj)
 .bss.m_enabled
                0x20005294        0x1 mesh/core/libmesh_core_nrf52832_xxAA.a(net_beacon.c.obj)
 *fill*         0x20005295        0x3 
 .bss.m_tx_event
                0x20005298       0x18 mesh/core/libmesh_core_nrf52832_xxAA.a(net_beacon.c.obj)
 .bss.m_adv_prng
                0x200052b0       0x10 mesh/core/libmesh_core_nrf52832_xxAA.a(advertiser.c.obj)
 .bss.m_action_queue
                0x200052c0        0x8 mesh/core/libmesh_core_nrf52832_xxAA.a(bearer_handler.c.obj)
 .bss.m_end_time
                0x200052c8        0x4 mesh/core/libmesh_core_nrf52832_xxAA.a(bearer_handler.c.obj)
 .bss.m_scanner_is_active
                0x200052cc        0x1 mesh/core/libmesh_core_nrf52832_xxAA.a(bearer_handler.c.obj)
 .bss.m_stopped
                0x200052cd        0x1 mesh/core/libmesh_core_nrf52832_xxAA.a(bearer_handler.c.obj)
 *fill*         0x200052ce        0x2 
 .bss.mp_action
                0x200052d0        0x4 mesh/core/libmesh_core_nrf52832_xxAA.a(bearer_handler.c.obj)
 .bss.m_next_channel_index
                0x200052d4        0x1 mesh/core/libmesh_core_nrf52832_xxAA.a(broadcast.c.obj)
 *fill*         0x200052d5        0x3 
 .bss.m_scanner
                0x200052d8      0x284 mesh/core/libmesh_core_nrf52832_xxAA.a(scanner.c.obj)
 .bss.m_internal_event_fifo
                0x2000555c       0x14 mesh/core/libmesh_core_nrf52832_xxAA.a(internal_event.c.obj)
 .bss.m_internal_event_initialized
                0x20005570        0x1 mesh/core/libmesh_core_nrf52832_xxAA.a(internal_event.c.obj)
 *fill*         0x20005571        0x3 
 .bss.m_report_cb
                0x20005574        0x4 mesh/core/libmesh_core_nrf52832_xxAA.a(internal_event.c.obj)
 .bss.m_msg_cache
                0x20005578      0x100 mesh/core/libmesh_core_nrf52832_xxAA.a(msg_cache.c.obj)
 .bss.m_msg_cache_head
                0x20005678        0x4 mesh/core/libmesh_core_nrf52832_xxAA.a(msg_cache.c.obj)
 .bss.m_sar_alloc
                0x2000567c        0x4 mesh/core/libmesh_core_nrf52832_xxAA.a(transport.c.obj)
 .bss.m_sar_process_flag
                0x20005680        0x4 mesh/core/libmesh_core_nrf52832_xxAA.a(transport.c.obj)
 .bss.m_sar_release
                0x20005684        0x4 mesh/core/libmesh_core_nrf52832_xxAA.a(transport.c.obj)
 .bss.m_sar_session_cache
                0x20005688       0x40 mesh/core/libmesh_core_nrf52832_xxAA.a(transport.c.obj)
 .bss.m_sar_session_cache_head
                0x200056c8        0x4 mesh/core/libmesh_core_nrf52832_xxAA.a(transport.c.obj)
 .bss.m_trs_config
                0x200056cc       0x18 mesh/core/libmesh_core_nrf52832_xxAA.a(transport.c.obj)
 .bss.m_trs_sar_sessions
                0x200056e4      0x1b0 mesh/core/libmesh_core_nrf52832_xxAA.a(transport.c.obj)
 .bss.m_defrag  0x20005894       0x1c mesh/core/libmesh_core_nrf52832_xxAA.a(flash_manager_defrag.c.obj)
 .bss.m_token   0x200058b0        0x2 mesh/core/libmesh_core_nrf52832_xxAA.a(flash_manager_defrag.c.obj)
 *fill*         0x200058b2        0x2 
 .bss.mp_recovery_area
                0x200058b4        0x4 mesh/core/libmesh_core_nrf52832_xxAA.a(flash_manager_defrag.c.obj)
 .bss.p_null_ptr.10076
                0x200058b8        0x4 mesh/core/libmesh_core_nrf52832_xxAA.a(flash_manager_defrag.c.obj)
 .bss.m_event_flag
                0x200058bc        0x4 mesh/core/libmesh_core_nrf52832_xxAA.a(mesh_flash.c.obj)
 .bss.m_suspended
                0x200058c0        0x1 mesh/core/libmesh_core_nrf52832_xxAA.a(mesh_flash.c.obj)
 *fill*         0x200058c1        0x3 
 .bss.m_users   0x200058c4      0x228 mesh/core/libmesh_core_nrf52832_xxAA.a(mesh_flash.c.obj)
 .bss.m_128buf  0x20005aec       0x10 mesh/core/libmesh_core_nrf52832_xxAA.a(aes_cmac.c.obj)
 .bss.m_subkey1
                0x20005afc       0x10 mesh/core/libmesh_core_nrf52832_xxAA.a(aes_cmac.c.obj)
 .bss.m_subkey2
                0x20005b0c       0x10 mesh/core/libmesh_core_nrf52832_xxAA.a(aes_cmac.c.obj)
 .bss.m_cache_full
                0x20005b1c        0x1 mesh/core/libmesh_core_nrf52832_xxAA.a(replay_cache.c.obj)
 .bss.m_cache_index
                0x20005b1d        0x1 mesh/core/libmesh_core_nrf52832_xxAA.a(replay_cache.c.obj)
 *fill*         0x20005b1e        0x2 
 .bss.m_replay_cache
                0x20005b20      0x200 mesh/core/libmesh_core_nrf52832_xxAA.a(replay_cache.c.obj)
 .bss.m_accepted_amount
                0x20005d20        0x4 mesh/core/libmesh_core_nrf52832_xxAA.a(filter_engine.c.obj)
 .bss.m_filter_list_head
                0x20005d24        0x4 mesh/core/libmesh_core_nrf52832_xxAA.a(filter_engine.c.obj)
 .bss._acDownBuffer
                0x20005d28       0x80 external/rtt/librtt_nrf52832_xxAA.a(SEGGER_RTT.c.obj)
 .bss._acUpBuffer
                0x20005da8      0x400 external/rtt/librtt_nrf52832_xxAA.a(SEGGER_RTT.c.obj)
 .bss.__malloc_free_list
                0x200061a8        0x4 c:/a/gcc_arm/6/bin/../lib/gcc/arm-none-eabi/6.3.1/../../../../arm-none-eabi/lib/thumb/v7e-m/fpv4-sp/hard\libc_nano.a(lib_a-nano-mallocr.o)
                0x200061a8                __malloc_free_list
 .bss.__malloc_sbrk_start
                0x200061ac        0x4 c:/a/gcc_arm/6/bin/../lib/gcc/arm-none-eabi/6.3.1/../../../../arm-none-eabi/lib/thumb/v7e-m/fpv4-sp/hard\libc_nano.a(lib_a-nano-mallocr.o)
                0x200061ac                __malloc_sbrk_start
 .bss.heap_end.5239
                0x200061b0        0x4 c:/a/gcc_arm/6/bin/../lib/gcc/arm-none-eabi/6.3.1/../../../../arm-none-eabi/lib/thumb/v7e-m/fpv4-sp/hard\libnosys.a(sbrk.o)
 *(COMMON)
 COMMON         0x200061b4        0xc examples/light_switch/client/CMakeFiles/light_switch_client_nrf52832_xxAA_s132_5.0.0.dir/__/__/nrf_mesh_sdk.c.obj
                0x200061b4                nrf_nvic_state
 COMMON         0x200061c0        0x4 mesh/core/libmesh_core_nrf52832_xxAA.a(nrf_mesh.c.obj)
                0x200061c0                m_assertion_handler
 COMMON         0x200061c4       0x78 external/rtt/librtt_nrf52832_xxAA.a(SEGGER_RTT.c.obj)
                0x200061c4                _SEGGER_RTT
 COMMON         0x2000623c        0x4 c:/a/gcc_arm/6/bin/../lib/gcc/arm-none-eabi/6.3.1/../../../../arm-none-eabi/lib/thumb/v7e-m/fpv4-sp/hard\libc_nano.a(lib_a-reent.o)
                0x2000623c                errno
                0x20006240                . = ALIGN (0x4)
                0x20006240                __bss_end__ = .

.heap           0x20006240     0x2000
                0x20006240                __HeapBase = .
                0x20006240                __end__ = .
                0x20006240                PROVIDE (end, .)
 *(.heap*)
 .heap          0x20006240     0x2000 examples/light_switch/client/CMakeFiles/light_switch_client_nrf52832_xxAA_s132_5.0.0.dir/__/__/__/external/nRF5_SDK_14.0.0_3bcc1f7/components/toolchain/gcc/gcc_startup_nrf52.S.obj
                0x20008240                __HeapLimit = .

.stack_dummy    0x20006240     0x2000
 *(.stack*)
 .stack         0x20006240     0x2000 examples/light_switch/client/CMakeFiles/light_switch_client_nrf52832_xxAA_s132_5.0.0.dir/__/__/__/external/nRF5_SDK_14.0.0_3bcc1f7/components/toolchain/gcc/gcc_startup_nrf52.S.obj
                0x20010000                __StackTop = (ORIGIN (RAM) + LENGTH (RAM))
                0x2000e000                __StackLimit = (__StackTop - SIZEOF (.stack_dummy))
                0x20010000                PROVIDE (__stack, __StackTop)
                0x00000001                ASSERT ((__StackLimit >= __HeapLimit), region RAM overflowed with stack)
OUTPUT(examples\light_switch\client\light_switch_client_nrf52832_xxAA_s132_5.0.0.elf elf32-littlearm)

.ARM.attributes
                0x00000000       0x30
 .ARM.attributes
                0x00000000       0x22 c:/a/gcc_arm/6/bin/../lib/gcc/arm-none-eabi/6.3.1/thumb/v7e-m/fpv4-sp/hard/crti.o
 .ARM.attributes
                0x00000022       0x34 c:/a/gcc_arm/6/bin/../lib/gcc/arm-none-eabi/6.3.1/thumb/v7e-m/fpv4-sp/hard/crtbegin.o
 .ARM.attributes
                0x00000056       0x20 c:/a/gcc_arm/6/bin/../lib/gcc/arm-none-eabi/6.3.1/../../../../arm-none-eabi/lib/thumb/v7e-m/fpv4-sp/hard/crt0.o
 .ARM.attributes
                0x00000076       0x39 examples/light_switch/client/CMakeFiles/light_switch_client_nrf52832_xxAA_s132_5.0.0.dir/src/main.c.obj
 .ARM.attributes
                0x000000af       0x39 examples/light_switch/client/CMakeFiles/light_switch_client_nrf52832_xxAA_s132_5.0.0.dir/src/provisioner.c.obj
 .ARM.attributes
                0x000000e8       0x39 examples/light_switch/client/CMakeFiles/light_switch_client_nrf52832_xxAA_s132_5.0.0.dir/__/__/nrf_mesh_sdk.c.obj
 .ARM.attributes
                0x00000121       0x39 examples/light_switch/client/CMakeFiles/light_switch_client_nrf52832_xxAA_s132_5.0.0.dir/__/__/hal/src/simple_hal.c.obj
 .ARM.attributes
                0x0000015a       0x39 examples/light_switch/client/CMakeFiles/light_switch_client_nrf52832_xxAA_s132_5.0.0.dir/__/__/nrf_mesh_weak.c.obj
 .ARM.attributes
                0x00000193       0x39 examples/light_switch/client/CMakeFiles/light_switch_client_nrf52832_xxAA_s132_5.0.0.dir/__/__/__/models/simple_on_off/src/simple_on_off_client.c.obj
 .ARM.attributes
                0x000001cc       0x39 examples/light_switch/client/CMakeFiles/light_switch_client_nrf52832_xxAA_s132_5.0.0.dir/__/__/__/models/config/src/config_client.c.obj
 .ARM.attributes
                0x00000205       0x39 examples/light_switch/client/CMakeFiles/light_switch_client_nrf52832_xxAA_s132_5.0.0.dir/__/__/__/models/health/src/health_client.c.obj
 .ARM.attributes
                0x0000023e       0x39 examples/light_switch/client/CMakeFiles/light_switch_client_nrf52832_xxAA_s132_5.0.0.dir/__/__/__/mesh/access/src/access_publish.c.obj
 .ARM.attributes
                0x00000277       0x39 examples/light_switch/client/CMakeFiles/light_switch_client_nrf52832_xxAA_s132_5.0.0.dir/__/__/__/mesh/access/src/access.c.obj
 .ARM.attributes
                0x000002b0       0x39 examples/light_switch/client/CMakeFiles/light_switch_client_nrf52832_xxAA_s132_5.0.0.dir/__/__/__/mesh/access/src/access_reliable.c.obj
 .ARM.attributes
                0x000002e9       0x39 examples/light_switch/client/CMakeFiles/light_switch_client_nrf52832_xxAA_s132_5.0.0.dir/__/__/__/mesh/access/src/device_state_manager.c.obj
 .ARM.attributes
                0x00000322       0x39 examples/light_switch/client/CMakeFiles/light_switch_client_nrf52832_xxAA_s132_5.0.0.dir/__/__/__/mesh/prov/src/prov_provisioner.c.obj
 .ARM.attributes
                0x0000035b       0x39 examples/light_switch/client/CMakeFiles/light_switch_client_nrf52832_xxAA_s132_5.0.0.dir/__/__/__/mesh/prov/src/nrf_mesh_prov.c.obj
 .ARM.attributes
                0x00000394       0x39 examples/light_switch/client/CMakeFiles/light_switch_client_nrf52832_xxAA_s132_5.0.0.dir/__/__/__/mesh/prov/src/provisioning.c.obj
 .ARM.attributes
                0x000003cd       0x39 examples/light_switch/client/CMakeFiles/light_switch_client_nrf52832_xxAA_s132_5.0.0.dir/__/__/__/mesh/prov/src/prov_beacon.c.obj
 .ARM.attributes
                0x00000406       0x39 examples/light_switch/client/CMakeFiles/light_switch_client_nrf52832_xxAA_s132_5.0.0.dir/__/__/__/mesh/prov/src/prov_utils.c.obj
 .ARM.attributes
                0x0000043f       0x39 examples/light_switch/client/CMakeFiles/light_switch_client_nrf52832_xxAA_s132_5.0.0.dir/__/__/__/mesh/prov/src/prov_bearer_adv.c.obj
 .ARM.attributes
                0x00000478       0x39 examples/light_switch/client/CMakeFiles/light_switch_client_nrf52832_xxAA_s132_5.0.0.dir/__/__/__/external/nRF5_SDK_14.0.0_3bcc1f7/components/toolchain/system_nrf52.c.obj
 .ARM.attributes
                0x000004b1       0x20 examples/light_switch/client/CMakeFiles/light_switch_client_nrf52832_xxAA_s132_5.0.0.dir/__/__/__/external/nRF5_SDK_14.0.0_3bcc1f7/components/toolchain/gcc/gcc_startup_nrf52.S.obj
 .ARM.attributes
                0x000004d1       0x39 mesh/core/libmesh_core_nrf52832_xxAA.a(nrf_mesh_configure.c.obj)
 .ARM.attributes
                0x0000050a       0x39 mesh/core/libmesh_core_nrf52832_xxAA.a(event.c.obj)
 .ARM.attributes
                0x00000543       0x39 mesh/core/libmesh_core_nrf52832_xxAA.a(packet_mgr.c.obj)
 .ARM.attributes
                0x0000057c       0x39 mesh/core/libmesh_core_nrf52832_xxAA.a(net_state.c.obj)
 .ARM.attributes
                0x000005b5       0x39 mesh/core/libmesh_core_nrf52832_xxAA.a(nrf_mesh_utils.c.obj)
 .ARM.attributes
                0x000005ee       0x39 mesh/core/libmesh_core_nrf52832_xxAA.a(nrf_mesh.c.obj)
 .ARM.attributes
                0x00000627       0x39 mesh/core/libmesh_core_nrf52832_xxAA.a(hal.c.obj)
 .ARM.attributes
                0x00000660       0x39 mesh/core/libmesh_core_nrf52832_xxAA.a(timer_scheduler.c.obj)
 .ARM.attributes
                0x00000699       0x39 mesh/core/libmesh_core_nrf52832_xxAA.a(timer.c.obj)
 .ARM.attributes
                0x000006d2       0x39 mesh/core/libmesh_core_nrf52832_xxAA.a(ticker.c.obj)
 .ARM.attributes
                0x0000070b       0x39 mesh/core/libmesh_core_nrf52832_xxAA.a(rand.c.obj)
 .ARM.attributes
                0x00000744       0x39 mesh/core/libmesh_core_nrf52832_xxAA.a(timeslot.c.obj)
 .ARM.attributes
                0x0000077d       0x39 mesh/core/libmesh_core_nrf52832_xxAA.a(bearer_event.c.obj)
 .ARM.attributes
                0x000007b6       0x39 mesh/core/libmesh_core_nrf52832_xxAA.a(enc.c.obj)
 .ARM.attributes
                0x000007ef       0x39 mesh/core/libmesh_core_nrf52832_xxAA.a(network.c.obj)
 .ARM.attributes
                0x00000828       0x39 mesh/core/libmesh_core_nrf52832_xxAA.a(nrf_mesh_keygen.c.obj)
 .ARM.attributes
                0x00000861       0x39 mesh/core/libmesh_core_nrf52832_xxAA.a(log.c.obj)
 .ARM.attributes
                0x0000089a       0x39 mesh/core/libmesh_core_nrf52832_xxAA.a(flash_manager.c.obj)
 .ARM.attributes
                0x000008d3       0x39 mesh/core/libmesh_core_nrf52832_xxAA.a(ccm_soft.c.obj)
 .ARM.attributes
                0x0000090c       0x39 mesh/core/libmesh_core_nrf52832_xxAA.a(beacon.c.obj)
 .ARM.attributes
                0x00000945       0x39 mesh/core/libmesh_core_nrf52832_xxAA.a(flash_manager_internal.c.obj)
 .ARM.attributes
                0x0000097e       0x39 mesh/core/libmesh_core_nrf52832_xxAA.a(core_tx.c.obj)
 .ARM.attributes
                0x000009b7       0x39 mesh/core/libmesh_core_nrf52832_xxAA.a(net_beacon.c.obj)
 .ARM.attributes
                0x000009f0       0x39 mesh/core/libmesh_core_nrf52832_xxAA.a(advertiser.c.obj)
 .ARM.attributes
                0x00000a29       0x39 mesh/core/libmesh_core_nrf52832_xxAA.a(bearer_handler.c.obj)
 .ARM.attributes
                0x00000a62       0x39 mesh/core/libmesh_core_nrf52832_xxAA.a(broadcast.c.obj)
 .ARM.attributes
                0x00000a9b       0x39 mesh/core/libmesh_core_nrf52832_xxAA.a(radio_config.c.obj)
 .ARM.attributes
                0x00000ad4       0x39 mesh/core/libmesh_core_nrf52832_xxAA.a(scanner.c.obj)
 .ARM.attributes
                0x00000b0d       0x39 mesh/core/libmesh_core_nrf52832_xxAA.a(internal_event.c.obj)
 .ARM.attributes
                0x00000b46       0x39 mesh/core/libmesh_core_nrf52832_xxAA.a(aes.c.obj)
 .ARM.attributes
                0x00000b7f       0x39 mesh/core/libmesh_core_nrf52832_xxAA.a(msg_cache.c.obj)
 .ARM.attributes
                0x00000bb8       0x39 mesh/core/libmesh_core_nrf52832_xxAA.a(transport.c.obj)
 .ARM.attributes
                0x00000bf1       0x39 mesh/core/libmesh_core_nrf52832_xxAA.a(packet_buffer.c.obj)
 .ARM.attributes
                0x00000c2a       0x39 mesh/core/libmesh_core_nrf52832_xxAA.a(flash_manager_defrag.c.obj)
 .ARM.attributes
                0x00000c63       0x39 mesh/core/libmesh_core_nrf52832_xxAA.a(fifo.c.obj)
 .ARM.attributes
                0x00000c9c       0x39 mesh/core/libmesh_core_nrf52832_xxAA.a(mesh_flash.c.obj)
 .ARM.attributes
                0x00000cd5       0x39 mesh/core/libmesh_core_nrf52832_xxAA.a(queue.c.obj)
 .ARM.attributes
                0x00000d0e       0x39 mesh/core/libmesh_core_nrf52832_xxAA.a(aes_cmac.c.obj)
 .ARM.attributes
                0x00000d47       0x39 mesh/core/libmesh_core_nrf52832_xxAA.a(msqueue.c.obj)
 .ARM.attributes
                0x00000d80       0x39 mesh/core/libmesh_core_nrf52832_xxAA.a(replay_cache.c.obj)
 .ARM.attributes
                0x00000db9       0x39 mesh/core/libmesh_core_nrf52832_xxAA.a(filter_engine.c.obj)
 .ARM.attributes
                0x00000df2       0x39 mesh/core/libmesh_core_nrf52832_xxAA.a(nrf_flash.c.obj)
 .ARM.attributes
                0x00000e2b       0x39 external/rtt/librtt_nrf52832_xxAA.a(SEGGER_RTT.c.obj)
 .ARM.attributes
                0x00000e64       0x39 external/rtt/librtt_nrf52832_xxAA.a(SEGGER_RTT_printf.c.obj)
 .ARM.attributes
                0x00000e9d       0x39 external/micro-ecc/libuECC_nrf52832_xxAA.a(uECC.c.obj)
 .ARM.attributes
                0x00000ed6       0x34 c:/a/gcc_arm/6/bin/../lib/gcc/arm-none-eabi/6.3.1/../../../../arm-none-eabi/lib/thumb/v7e-m/fpv4-sp/hard\libc_nano.a(lib_a-exit.o)
 .ARM.attributes
                0x00000f0a       0x34 c:/a/gcc_arm/6/bin/../lib/gcc/arm-none-eabi/6.3.1/../../../../arm-none-eabi/lib/thumb/v7e-m/fpv4-sp/hard\libc_nano.a(lib_a-impure.o)
 .ARM.attributes
                0x00000f3e       0x34 c:/a/gcc_arm/6/bin/../lib/gcc/arm-none-eabi/6.3.1/../../../../arm-none-eabi/lib/thumb/v7e-m/fpv4-sp/hard\libc_nano.a(lib_a-init.o)
 .ARM.attributes
                0x00000f72       0x34 c:/a/gcc_arm/6/bin/../lib/gcc/arm-none-eabi/6.3.1/../../../../arm-none-eabi/lib/thumb/v7e-m/fpv4-sp/hard\libc_nano.a(lib_a-malloc.o)
 .ARM.attributes
                0x00000fa6       0x34 c:/a/gcc_arm/6/bin/../lib/gcc/arm-none-eabi/6.3.1/../../../../arm-none-eabi/lib/thumb/v7e-m/fpv4-sp/hard\libc_nano.a(lib_a-memcmp.o)
 .ARM.attributes
                0x00000fda       0x34 c:/a/gcc_arm/6/bin/../lib/gcc/arm-none-eabi/6.3.1/../../../../arm-none-eabi/lib/thumb/v7e-m/fpv4-sp/hard\libc_nano.a(lib_a-memcpy-stub.o)
 .ARM.attributes
                0x0000100e       0x34 c:/a/gcc_arm/6/bin/../lib/gcc/arm-none-eabi/6.3.1/../../../../arm-none-eabi/lib/thumb/v7e-m/fpv4-sp/hard\libc_nano.a(lib_a-memset.o)
 .ARM.attributes
                0x00001042       0x34 c:/a/gcc_arm/6/bin/../lib/gcc/arm-none-eabi/6.3.1/../../../../arm-none-eabi/lib/thumb/v7e-m/fpv4-sp/hard\libc_nano.a(lib_a-nano-freer.o)
 .ARM.attributes
                0x00001076       0x34 c:/a/gcc_arm/6/bin/../lib/gcc/arm-none-eabi/6.3.1/../../../../arm-none-eabi/lib/thumb/v7e-m/fpv4-sp/hard\libc_nano.a(lib_a-nano-mallocr.o)
 .ARM.attributes
                0x000010aa       0x34 c:/a/gcc_arm/6/bin/../lib/gcc/arm-none-eabi/6.3.1/../../../../arm-none-eabi/lib/thumb/v7e-m/fpv4-sp/hard\libc_nano.a(lib_a-sbrkr.o)
 .ARM.attributes
                0x000010de       0x34 c:/a/gcc_arm/6/bin/../lib/gcc/arm-none-eabi/6.3.1/../../../../arm-none-eabi/lib/thumb/v7e-m/fpv4-sp/hard\libc_nano.a(lib_a-strcpy.o)
 .ARM.attributes
                0x00001112       0x1b c:/a/gcc_arm/6/bin/../lib/gcc/arm-none-eabi/6.3.1/../../../../arm-none-eabi/lib/thumb/v7e-m/fpv4-sp/hard\libc_nano.a(lib_a-strlen.o)
 .ARM.attributes
                0x0000112d       0x34 c:/a/gcc_arm/6/bin/../lib/gcc/arm-none-eabi/6.3.1/../../../../arm-none-eabi/lib/thumb/v7e-m/fpv4-sp/hard\libc_nano.a(lib_a-strrchr.o)
 .ARM.attributes
                0x00001161       0x34 c:/a/gcc_arm/6/bin/../lib/gcc/arm-none-eabi/6.3.1/../../../../arm-none-eabi/lib/thumb/v7e-m/fpv4-sp/hard\libc_nano.a(lib_a-mlock.o)
 .ARM.attributes
                0x00001195       0x34 c:/a/gcc_arm/6/bin/../lib/gcc/arm-none-eabi/6.3.1/../../../../arm-none-eabi/lib/thumb/v7e-m/fpv4-sp/hard\libc_nano.a(lib_a-reent.o)
 .ARM.attributes
                0x000011c9       0x34 c:/a/gcc_arm/6/bin/../lib/gcc/arm-none-eabi/6.3.1/../../../../arm-none-eabi/lib/thumb/v7e-m/fpv4-sp/hard\libc_nano.a(lib_a-strchr.o)
 .ARM.attributes
                0x000011fd       0x34 c:/a/gcc_arm/6/bin/../lib/gcc/arm-none-eabi/6.3.1/thumb/v7e-m/fpv4-sp/hard/crtend.o
 .ARM.attributes
                0x00001231       0x22 c:/a/gcc_arm/6/bin/../lib/gcc/arm-none-eabi/6.3.1/thumb/v7e-m/fpv4-sp/hard/crtn.o
 .ARM.attributes
                0x00001253       0x34 c:/a/gcc_arm/6/bin/../lib/gcc/arm-none-eabi/6.3.1/../../../../arm-none-eabi/lib/thumb/v7e-m/fpv4-sp/hard\libnosys.a(sbrk.o)
 .ARM.attributes
                0x00001287       0x34 c:/a/gcc_arm/6/bin/../lib/gcc/arm-none-eabi/6.3.1/../../../../arm-none-eabi/lib/thumb/v7e-m/fpv4-sp/hard\libnosys.a(_exit.o)

.comment        0x00000000       0x7f
 .comment       0x00000000       0x7f examples/light_switch/client/CMakeFiles/light_switch_client_nrf52832_xxAA_s132_5.0.0.dir/src/main.c.obj
                                 0x80 (size before relaxing)
 .comment       0x0000007f       0x80 examples/light_switch/client/CMakeFiles/light_switch_client_nrf52832_xxAA_s132_5.0.0.dir/src/provisioner.c.obj
 .comment       0x0000007f       0x80 examples/light_switch/client/CMakeFiles/light_switch_client_nrf52832_xxAA_s132_5.0.0.dir/__/__/nrf_mesh_sdk.c.obj
 .comment       0x0000007f       0x80 examples/light_switch/client/CMakeFiles/light_switch_client_nrf52832_xxAA_s132_5.0.0.dir/__/__/hal/src/simple_hal.c.obj
 .comment       0x0000007f       0x80 examples/light_switch/client/CMakeFiles/light_switch_client_nrf52832_xxAA_s132_5.0.0.dir/__/__/nrf_mesh_weak.c.obj
 .comment       0x0000007f       0x80 examples/light_switch/client/CMakeFiles/light_switch_client_nrf52832_xxAA_s132_5.0.0.dir/__/__/__/models/simple_on_off/src/simple_on_off_client.c.obj
 .comment       0x0000007f       0x80 examples/light_switch/client/CMakeFiles/light_switch_client_nrf52832_xxAA_s132_5.0.0.dir/__/__/__/models/config/src/config_client.c.obj
 .comment       0x0000007f       0x80 examples/light_switch/client/CMakeFiles/light_switch_client_nrf52832_xxAA_s132_5.0.0.dir/__/__/__/models/health/src/health_client.c.obj
 .comment       0x0000007f       0x80 examples/light_switch/client/CMakeFiles/light_switch_client_nrf52832_xxAA_s132_5.0.0.dir/__/__/__/mesh/access/src/access_publish.c.obj
 .comment       0x0000007f       0x80 examples/light_switch/client/CMakeFiles/light_switch_client_nrf52832_xxAA_s132_5.0.0.dir/__/__/__/mesh/access/src/access.c.obj
 .comment       0x0000007f       0x80 examples/light_switch/client/CMakeFiles/light_switch_client_nrf52832_xxAA_s132_5.0.0.dir/__/__/__/mesh/access/src/access_reliable.c.obj
 .comment       0x0000007f       0x80 examples/light_switch/client/CMakeFiles/light_switch_client_nrf52832_xxAA_s132_5.0.0.dir/__/__/__/mesh/access/src/device_state_manager.c.obj
 .comment       0x0000007f       0x80 examples/light_switch/client/CMakeFiles/light_switch_client_nrf52832_xxAA_s132_5.0.0.dir/__/__/__/mesh/prov/src/prov_provisioner.c.obj
 .comment       0x0000007f       0x80 examples/light_switch/client/CMakeFiles/light_switch_client_nrf52832_xxAA_s132_5.0.0.dir/__/__/__/mesh/prov/src/nrf_mesh_prov.c.obj
 .comment       0x0000007f       0x80 examples/light_switch/client/CMakeFiles/light_switch_client_nrf52832_xxAA_s132_5.0.0.dir/__/__/__/mesh/prov/src/provisioning.c.obj
 .comment       0x0000007f       0x80 examples/light_switch/client/CMakeFiles/light_switch_client_nrf52832_xxAA_s132_5.0.0.dir/__/__/__/mesh/prov/src/prov_beacon.c.obj
 .comment       0x0000007f       0x80 examples/light_switch/client/CMakeFiles/light_switch_client_nrf52832_xxAA_s132_5.0.0.dir/__/__/__/mesh/prov/src/prov_utils.c.obj
 .comment       0x0000007f       0x80 examples/light_switch/client/CMakeFiles/light_switch_client_nrf52832_xxAA_s132_5.0.0.dir/__/__/__/mesh/prov/src/prov_bearer_adv.c.obj
 .comment       0x0000007f       0x80 examples/light_switch/client/CMakeFiles/light_switch_client_nrf52832_xxAA_s132_5.0.0.dir/__/__/__/external/nRF5_SDK_14.0.0_3bcc1f7/components/toolchain/system_nrf52.c.obj
 .comment       0x0000007f       0x80 mesh/core/libmesh_core_nrf52832_xxAA.a(nrf_mesh_configure.c.obj)
 .comment       0x0000007f       0x80 mesh/core/libmesh_core_nrf52832_xxAA.a(event.c.obj)
 .comment       0x0000007f       0x80 mesh/core/libmesh_core_nrf52832_xxAA.a(packet_mgr.c.obj)
 .comment       0x0000007f       0x80 mesh/core/libmesh_core_nrf52832_xxAA.a(net_state.c.obj)
 .comment       0x0000007f       0x80 mesh/core/libmesh_core_nrf52832_xxAA.a(nrf_mesh_utils.c.obj)
 .comment       0x0000007f       0x80 mesh/core/libmesh_core_nrf52832_xxAA.a(nrf_mesh.c.obj)
 .comment       0x0000007f       0x80 mesh/core/libmesh_core_nrf52832_xxAA.a(hal.c.obj)
 .comment       0x0000007f       0x80 mesh/core/libmesh_core_nrf52832_xxAA.a(timer_scheduler.c.obj)
 .comment       0x0000007f       0x80 mesh/core/libmesh_core_nrf52832_xxAA.a(timer.c.obj)
 .comment       0x0000007f       0x80 mesh/core/libmesh_core_nrf52832_xxAA.a(ticker.c.obj)
 .comment       0x0000007f       0x80 mesh/core/libmesh_core_nrf52832_xxAA.a(rand.c.obj)
 .comment       0x0000007f       0x80 mesh/core/libmesh_core_nrf52832_xxAA.a(timeslot.c.obj)
 .comment       0x0000007f       0x80 mesh/core/libmesh_core_nrf52832_xxAA.a(bearer_event.c.obj)
 .comment       0x0000007f       0x80 mesh/core/libmesh_core_nrf52832_xxAA.a(enc.c.obj)
 .comment       0x0000007f       0x80 mesh/core/libmesh_core_nrf52832_xxAA.a(network.c.obj)
 .comment       0x0000007f       0x80 mesh/core/libmesh_core_nrf52832_xxAA.a(nrf_mesh_keygen.c.obj)
 .comment       0x0000007f       0x80 mesh/core/libmesh_core_nrf52832_xxAA.a(log.c.obj)
 .comment       0x0000007f       0x80 mesh/core/libmesh_core_nrf52832_xxAA.a(flash_manager.c.obj)
 .comment       0x0000007f       0x80 mesh/core/libmesh_core_nrf52832_xxAA.a(ccm_soft.c.obj)
 .comment       0x0000007f       0x80 mesh/core/libmesh_core_nrf52832_xxAA.a(beacon.c.obj)
 .comment       0x0000007f       0x80 mesh/core/libmesh_core_nrf52832_xxAA.a(flash_manager_internal.c.obj)
 .comment       0x0000007f       0x80 mesh/core/libmesh_core_nrf52832_xxAA.a(core_tx.c.obj)
 .comment       0x0000007f       0x80 mesh/core/libmesh_core_nrf52832_xxAA.a(net_beacon.c.obj)
 .comment       0x0000007f       0x80 mesh/core/libmesh_core_nrf52832_xxAA.a(advertiser.c.obj)
 .comment       0x0000007f       0x80 mesh/core/libmesh_core_nrf52832_xxAA.a(bearer_handler.c.obj)
 .comment       0x0000007f       0x80 mesh/core/libmesh_core_nrf52832_xxAA.a(broadcast.c.obj)
 .comment       0x0000007f       0x80 mesh/core/libmesh_core_nrf52832_xxAA.a(radio_config.c.obj)
 .comment       0x0000007f       0x80 mesh/core/libmesh_core_nrf52832_xxAA.a(scanner.c.obj)
 .comment       0x0000007f       0x80 mesh/core/libmesh_core_nrf52832_xxAA.a(internal_event.c.obj)
 .comment       0x0000007f       0x80 mesh/core/libmesh_core_nrf52832_xxAA.a(aes.c.obj)
 .comment       0x0000007f       0x80 mesh/core/libmesh_core_nrf52832_xxAA.a(msg_cache.c.obj)
 .comment       0x0000007f       0x80 mesh/core/libmesh_core_nrf52832_xxAA.a(transport.c.obj)
 .comment       0x0000007f       0x80 mesh/core/libmesh_core_nrf52832_xxAA.a(packet_buffer.c.obj)
 .comment       0x0000007f       0x80 mesh/core/libmesh_core_nrf52832_xxAA.a(flash_manager_defrag.c.obj)
 .comment       0x0000007f       0x80 mesh/core/libmesh_core_nrf52832_xxAA.a(fifo.c.obj)
 .comment       0x0000007f       0x80 mesh/core/libmesh_core_nrf52832_xxAA.a(mesh_flash.c.obj)
 .comment       0x0000007f       0x80 mesh/core/libmesh_core_nrf52832_xxAA.a(queue.c.obj)
 .comment       0x0000007f       0x80 mesh/core/libmesh_core_nrf52832_xxAA.a(aes_cmac.c.obj)
 .comment       0x0000007f       0x80 mesh/core/libmesh_core_nrf52832_xxAA.a(msqueue.c.obj)
 .comment       0x0000007f       0x80 mesh/core/libmesh_core_nrf52832_xxAA.a(replay_cache.c.obj)
 .comment       0x0000007f       0x80 mesh/core/libmesh_core_nrf52832_xxAA.a(filter_engine.c.obj)
 .comment       0x0000007f       0x80 mesh/core/libmesh_core_nrf52832_xxAA.a(nrf_flash.c.obj)
 .comment       0x0000007f       0x80 external/rtt/librtt_nrf52832_xxAA.a(SEGGER_RTT.c.obj)
 .comment       0x0000007f       0x80 external/rtt/librtt_nrf52832_xxAA.a(SEGGER_RTT_printf.c.obj)
 .comment       0x0000007f       0x80 external/micro-ecc/libuECC_nrf52832_xxAA.a(uECC.c.obj)

.debug_frame    0x00000000      0x2c4
 .debug_frame   0x00000000       0x28 c:/a/gcc_arm/6/bin/../lib/gcc/arm-none-eabi/6.3.1/../../../../arm-none-eabi/lib/thumb/v7e-m/fpv4-sp/hard\libc_nano.a(lib_a-exit.o)
 .debug_frame   0x00000028       0x2c c:/a/gcc_arm/6/bin/../lib/gcc/arm-none-eabi/6.3.1/../../../../arm-none-eabi/lib/thumb/v7e-m/fpv4-sp/hard\libc_nano.a(lib_a-init.o)
 .debug_frame   0x00000054       0x30 c:/a/gcc_arm/6/bin/../lib/gcc/arm-none-eabi/6.3.1/../../../../arm-none-eabi/lib/thumb/v7e-m/fpv4-sp/hard\libc_nano.a(lib_a-malloc.o)
 .debug_frame   0x00000084       0x28 c:/a/gcc_arm/6/bin/../lib/gcc/arm-none-eabi/6.3.1/../../../../arm-none-eabi/lib/thumb/v7e-m/fpv4-sp/hard\libc_nano.a(lib_a-memcmp.o)
 .debug_frame   0x000000ac       0x28 c:/a/gcc_arm/6/bin/../lib/gcc/arm-none-eabi/6.3.1/../../../../arm-none-eabi/lib/thumb/v7e-m/fpv4-sp/hard\libc_nano.a(lib_a-memcpy-stub.o)
 .debug_frame   0x000000d4       0x20 c:/a/gcc_arm/6/bin/../lib/gcc/arm-none-eabi/6.3.1/../../../../arm-none-eabi/lib/thumb/v7e-m/fpv4-sp/hard\libc_nano.a(lib_a-memset.o)
 .debug_frame   0x000000f4       0x38 c:/a/gcc_arm/6/bin/../lib/gcc/arm-none-eabi/6.3.1/../../../../arm-none-eabi/lib/thumb/v7e-m/fpv4-sp/hard\libc_nano.a(lib_a-nano-freer.o)
 .debug_frame   0x0000012c       0x2c c:/a/gcc_arm/6/bin/../lib/gcc/arm-none-eabi/6.3.1/../../../../arm-none-eabi/lib/thumb/v7e-m/fpv4-sp/hard\libc_nano.a(lib_a-nano-mallocr.o)
 .debug_frame   0x00000158       0x2c c:/a/gcc_arm/6/bin/../lib/gcc/arm-none-eabi/6.3.1/../../../../arm-none-eabi/lib/thumb/v7e-m/fpv4-sp/hard\libc_nano.a(lib_a-sbrkr.o)
 .debug_frame   0x00000184       0x20 c:/a/gcc_arm/6/bin/../lib/gcc/arm-none-eabi/6.3.1/../../../../arm-none-eabi/lib/thumb/v7e-m/fpv4-sp/hard\libc_nano.a(lib_a-strcpy.o)
 .debug_frame   0x000001a4       0x34 c:/a/gcc_arm/6/bin/../lib/gcc/arm-none-eabi/6.3.1/../../../../arm-none-eabi/lib/thumb/v7e-m/fpv4-sp/hard\libc_nano.a(lib_a-strrchr.o)
 .debug_frame   0x000001d8       0x30 c:/a/gcc_arm/6/bin/../lib/gcc/arm-none-eabi/6.3.1/../../../../arm-none-eabi/lib/thumb/v7e-m/fpv4-sp/hard\libc_nano.a(lib_a-mlock.o)
 .debug_frame   0x00000208       0x5c c:/a/gcc_arm/6/bin/../lib/gcc/arm-none-eabi/6.3.1/../../../../arm-none-eabi/lib/thumb/v7e-m/fpv4-sp/hard\libc_nano.a(lib_a-reent.o)
 .debug_frame   0x00000264       0x20 c:/a/gcc_arm/6/bin/../lib/gcc/arm-none-eabi/6.3.1/../../../../arm-none-eabi/lib/thumb/v7e-m/fpv4-sp/hard\libc_nano.a(lib_a-strchr.o)
 .debug_frame   0x00000284       0x20 c:/a/gcc_arm/6/bin/../lib/gcc/arm-none-eabi/6.3.1/../../../../arm-none-eabi/lib/thumb/v7e-m/fpv4-sp/hard\libnosys.a(sbrk.o)
 .debug_frame   0x000002a4       0x20 c:/a/gcc_arm/6/bin/../lib/gcc/arm-none-eabi/6.3.1/../../../../arm-none-eabi/lib/thumb/v7e-m/fpv4-sp/hard\libnosys.a(_exit.o)
