Archive member included to satisfy reference by file (symbol)

mesh/core/libmesh_core_nrf52840_xxAA.a(nrf_mesh_configure.c.obj)
                              examples/light_switch/server/CMakeFiles/light_switch_server_nrf52840_xxAA_s140_5.0.0-3.alpha.dir/__/__/__/mesh/prov/src/prov_beacon.c.obj (nrf_mesh_configure_device_uuid_get)
mesh/core/libmesh_core_nrf52840_xxAA.a(event.c.obj)
                              examples/light_switch/server/CMakeFiles/light_switch_server_nrf52840_xxAA_s140_5.0.0-3.alpha.dir/__/__/__/mesh/access/src/access.c.obj (event_handle)
mesh/core/libmesh_core_nrf52840_xxAA.a(net_state.c.obj)
                              examples/light_switch/server/CMakeFiles/light_switch_server_nrf52840_xxAA_s140_5.0.0-3.alpha.dir/__/__/__/mesh/access/src/nrf_mesh_node_config.c.obj (net_state_reset)
mesh/core/libmesh_core_nrf52840_xxAA.a(nrf_mesh_utils.c.obj)
                              examples/light_switch/server/CMakeFiles/light_switch_server_nrf52840_xxAA_s140_5.0.0-3.alpha.dir/__/__/__/models/config/src/config_server.c.obj (nrf_mesh_address_type_get)
mesh/core/libmesh_core_nrf52840_xxAA.a(nrf_mesh.c.obj)
                              examples/light_switch/server/CMakeFiles/light_switch_server_nrf52840_xxAA_s140_5.0.0-3.alpha.dir/__/__/nrf_mesh_sdk.c.obj (nrf_mesh_init)
mesh/core/libmesh_core_nrf52840_xxAA.a(hal.c.obj)
                              mesh/core/libmesh_core_nrf52840_xxAA.a(nrf_mesh.c.obj) (hal_lfclk_ppm_get)
mesh/core/libmesh_core_nrf52840_xxAA.a(timer_scheduler.c.obj)
                              mesh/core/libmesh_core_nrf52840_xxAA.a(nrf_mesh.c.obj) (timer_sch_init)
mesh/core/libmesh_core_nrf52840_xxAA.a(timer.c.obj)
                              mesh/core/libmesh_core_nrf52840_xxAA.a(timer_scheduler.c.obj) (timer_order_cb)
mesh/core/libmesh_core_nrf52840_xxAA.a(ticker.c.obj)
                              mesh/core/libmesh_core_nrf52840_xxAA.a(nrf_mesh.c.obj) (ticker_init)
mesh/core/libmesh_core_nrf52840_xxAA.a(rand.c.obj)
                              examples/light_switch/server/CMakeFiles/light_switch_server_nrf52840_xxAA_s140_5.0.0-3.alpha.dir/__/__/__/mesh/prov/src/prov_utils.c.obj (rand_hw_rng_get)
mesh/core/libmesh_core_nrf52840_xxAA.a(nrf_mesh_opt.c.obj)
                              examples/light_switch/server/CMakeFiles/light_switch_server_nrf52840_xxAA_s140_5.0.0-3.alpha.dir/__/__/__/models/config/src/config_server.c.obj (nrf_mesh_opt_set)
mesh/core/libmesh_core_nrf52840_xxAA.a(timeslot.c.obj)
                              mesh/core/libmesh_core_nrf52840_xxAA.a(nrf_mesh.c.obj) (timeslot_sd_event_handler)
mesh/core/libmesh_core_nrf52840_xxAA.a(bearer_event.c.obj)
                              mesh/core/libmesh_core_nrf52840_xxAA.a(nrf_mesh.c.obj) (bearer_event_init)
mesh/core/libmesh_core_nrf52840_xxAA.a(enc.c.obj)
                              examples/light_switch/server/CMakeFiles/light_switch_server_nrf52840_xxAA_s140_5.0.0-3.alpha.dir/__/__/__/mesh/prov/src/prov_utils.c.obj (enc_aes_cmac)
mesh/core/libmesh_core_nrf52840_xxAA.a(network.c.obj)
                              mesh/core/libmesh_core_nrf52840_xxAA.a(nrf_mesh.c.obj) (network_init)
mesh/core/libmesh_core_nrf52840_xxAA.a(nrf_mesh_keygen.c.obj)
                              examples/light_switch/server/CMakeFiles/light_switch_server_nrf52840_xxAA_s140_5.0.0-3.alpha.dir/__/__/__/mesh/access/src/device_state_manager.c.obj (nrf_mesh_keygen_aid)
mesh/core/libmesh_core_nrf52840_xxAA.a(log.c.obj)
                              examples/light_switch/server/CMakeFiles/light_switch_server_nrf52840_xxAA_s140_5.0.0-3.alpha.dir/src/main.c.obj (log_callback_rtt)
mesh/core/libmesh_core_nrf52840_xxAA.a(flash_manager.c.obj)
                              mesh/core/libmesh_core_nrf52840_xxAA.a(nrf_mesh.c.obj) (flash_manager_init)
mesh/core/libmesh_core_nrf52840_xxAA.a(ccm_soft.c.obj)
                              mesh/core/libmesh_core_nrf52840_xxAA.a(enc.c.obj) (ccm_soft_encrypt)
mesh/core/libmesh_core_nrf52840_xxAA.a(beacon.c.obj)
                              mesh/core/libmesh_core_nrf52840_xxAA.a(nrf_mesh.c.obj) (beacon_init)
mesh/core/libmesh_core_nrf52840_xxAA.a(flash_manager_internal.c.obj)
                              mesh/core/libmesh_core_nrf52840_xxAA.a(flash_manager.c.obj) (entry_get)
mesh/core/libmesh_core_nrf52840_xxAA.a(core_tx.c.obj)
                              mesh/core/libmesh_core_nrf52840_xxAA.a(nrf_mesh.c.obj) (core_tx_init)
mesh/core/libmesh_core_nrf52840_xxAA.a(net_beacon.c.obj)
                              mesh/core/libmesh_core_nrf52840_xxAA.a(network.c.obj) (net_beacon_init)
mesh/core/libmesh_core_nrf52840_xxAA.a(advertiser.c.obj)
                              mesh/core/libmesh_core_nrf52840_xxAA.a(nrf_mesh.c.obj) (advertiser_init)
mesh/core/libmesh_core_nrf52840_xxAA.a(bearer_handler.c.obj)
                              mesh/core/libmesh_core_nrf52840_xxAA.a(nrf_mesh.c.obj) (bearer_handler_init)
mesh/core/libmesh_core_nrf52840_xxAA.a(broadcast.c.obj)
                              mesh/core/libmesh_core_nrf52840_xxAA.a(advertiser.c.obj) (broadcast_send)
mesh/core/libmesh_core_nrf52840_xxAA.a(radio_config.c.obj)
                              mesh/core/libmesh_core_nrf52840_xxAA.a(broadcast.c.obj) (radio_config_reset)
mesh/core/libmesh_core_nrf52840_xxAA.a(scanner.c.obj)
                              mesh/core/libmesh_core_nrf52840_xxAA.a(bearer_handler.c.obj) (scanner_radio_start)
mesh/core/libmesh_core_nrf52840_xxAA.a(internal_event.c.obj)
                              mesh/core/libmesh_core_nrf52840_xxAA.a(network.c.obj) (internal_event_push)
mesh/core/libmesh_core_nrf52840_xxAA.a(aes.c.obj)
                              mesh/core/libmesh_core_nrf52840_xxAA.a(enc.c.obj) (aes_encrypt)
mesh/core/libmesh_core_nrf52840_xxAA.a(msg_cache.c.obj)
                              mesh/core/libmesh_core_nrf52840_xxAA.a(nrf_mesh.c.obj) (msg_cache_init)
mesh/core/libmesh_core_nrf52840_xxAA.a(transport.c.obj)
                              mesh/core/libmesh_core_nrf52840_xxAA.a(nrf_mesh.c.obj) (transport_init)
mesh/core/libmesh_core_nrf52840_xxAA.a(packet_buffer.c.obj)
                              mesh/core/libmesh_core_nrf52840_xxAA.a(flash_manager.c.obj) (packet_buffer_init)
mesh/core/libmesh_core_nrf52840_xxAA.a(flash_manager_defrag.c.obj)
                              mesh/core/libmesh_core_nrf52840_xxAA.a(flash_manager.c.obj) (flash_manager_defrag_init)
mesh/core/libmesh_core_nrf52840_xxAA.a(fifo.c.obj)
                              mesh/core/libmesh_core_nrf52840_xxAA.a(bearer_event.c.obj) (fifo_init)
mesh/core/libmesh_core_nrf52840_xxAA.a(packet_mgr.c.obj)
                              mesh/core/libmesh_core_nrf52840_xxAA.a(nrf_mesh.c.obj) (packet_mgr_init)
mesh/core/libmesh_core_nrf52840_xxAA.a(mesh_flash.c.obj)
                              mesh/core/libmesh_core_nrf52840_xxAA.a(flash_manager.c.obj) (mesh_flash_user_callback_set)
mesh/core/libmesh_core_nrf52840_xxAA.a(queue.c.obj)
                              mesh/core/libmesh_core_nrf52840_xxAA.a(bearer_event.c.obj) (queue_init)
mesh/core/libmesh_core_nrf52840_xxAA.a(aes_cmac.c.obj)
                              mesh/core/libmesh_core_nrf52840_xxAA.a(enc.c.obj) (aes_cmac)
mesh/core/libmesh_core_nrf52840_xxAA.a(msqueue.c.obj)
                              mesh/core/libmesh_core_nrf52840_xxAA.a(mesh_flash.c.obj) (msq_init)
mesh/core/libmesh_core_nrf52840_xxAA.a(replay_cache.c.obj)
                              mesh/core/libmesh_core_nrf52840_xxAA.a(transport.c.obj) (replay_cache_init)
mesh/core/libmesh_core_nrf52840_xxAA.a(filter_engine.c.obj)
                              mesh/core/libmesh_core_nrf52840_xxAA.a(scanner.c.obj) (fen_filters_apply)
mesh/core/libmesh_core_nrf52840_xxAA.a(nrf_flash.c.obj)
                              mesh/core/libmesh_core_nrf52840_xxAA.a(mesh_flash.c.obj) (nrf_flash_erase)
external/rtt/librtt_nrf52840_xxAA.a(SEGGER_RTT.c.obj)
                              mesh/core/libmesh_core_nrf52840_xxAA.a(log.c.obj) (SEGGER_RTT_Write)
external/rtt/librtt_nrf52840_xxAA.a(SEGGER_RTT_printf.c.obj)
                              mesh/core/libmesh_core_nrf52840_xxAA.a(log.c.obj) (SEGGER_RTT_vprintf)
external/micro-ecc/libuECC_nrf52840_xxAA.a(uECC.c.obj)
                              examples/light_switch/server/CMakeFiles/light_switch_server_nrf52840_xxAA_s140_5.0.0-3.alpha.dir/__/__/__/mesh/prov/src/prov_utils.c.obj (uECC_secp256r1)
c:/a/gcc_arm/6/bin/../lib/gcc/arm-none-eabi/6.3.1/../../../../arm-none-eabi/lib/thumb/v7e-m/fpv4-sp/hard\libc_nano.a(lib_a-exit.o)
                              c:/a/gcc_arm/6/bin/../lib/gcc/arm-none-eabi/6.3.1/../../../../arm-none-eabi/lib/thumb/v7e-m/fpv4-sp/hard/crt0.o (exit)
c:/a/gcc_arm/6/bin/../lib/gcc/arm-none-eabi/6.3.1/../../../../arm-none-eabi/lib/thumb/v7e-m/fpv4-sp/hard\libc_nano.a(lib_a-impure.o)
                              c:/a/gcc_arm/6/bin/../lib/gcc/arm-none-eabi/6.3.1/../../../../arm-none-eabi/lib/thumb/v7e-m/fpv4-sp/hard\libc_nano.a(lib_a-exit.o) (_global_impure_ptr)
c:/a/gcc_arm/6/bin/../lib/gcc/arm-none-eabi/6.3.1/../../../../arm-none-eabi/lib/thumb/v7e-m/fpv4-sp/hard\libc_nano.a(lib_a-init.o)
                              c:/a/gcc_arm/6/bin/../lib/gcc/arm-none-eabi/6.3.1/../../../../arm-none-eabi/lib/thumb/v7e-m/fpv4-sp/hard/crt0.o (__libc_init_array)
c:/a/gcc_arm/6/bin/../lib/gcc/arm-none-eabi/6.3.1/../../../../arm-none-eabi/lib/thumb/v7e-m/fpv4-sp/hard\libc_nano.a(lib_a-malloc.o)
                              mesh/core/libmesh_core_nrf52840_xxAA.a(transport.c.obj) (malloc)
c:/a/gcc_arm/6/bin/../lib/gcc/arm-none-eabi/6.3.1/../../../../arm-none-eabi/lib/thumb/v7e-m/fpv4-sp/hard\libc_nano.a(lib_a-memcmp.o)
                              examples/light_switch/server/CMakeFiles/light_switch_server_nrf52840_xxAA_s140_5.0.0-3.alpha.dir/__/__/__/mesh/access/src/device_state_manager.c.obj (memcmp)
c:/a/gcc_arm/6/bin/../lib/gcc/arm-none-eabi/6.3.1/../../../../arm-none-eabi/lib/thumb/v7e-m/fpv4-sp/hard\libc_nano.a(lib_a-memcpy-stub.o)
                              examples/light_switch/server/CMakeFiles/light_switch_server_nrf52840_xxAA_s140_5.0.0-3.alpha.dir/__/__/__/models/config/src/composition_data.c.obj (memcpy)
c:/a/gcc_arm/6/bin/../lib/gcc/arm-none-eabi/6.3.1/../../../../arm-none-eabi/lib/thumb/v7e-m/fpv4-sp/hard\libc_nano.a(lib_a-memset.o)
                              c:/a/gcc_arm/6/bin/../lib/gcc/arm-none-eabi/6.3.1/../../../../arm-none-eabi/lib/thumb/v7e-m/fpv4-sp/hard/crt0.o (memset)
c:/a/gcc_arm/6/bin/../lib/gcc/arm-none-eabi/6.3.1/../../../../arm-none-eabi/lib/thumb/v7e-m/fpv4-sp/hard\libc_nano.a(lib_a-nano-freer.o)
                              c:/a/gcc_arm/6/bin/../lib/gcc/arm-none-eabi/6.3.1/../../../../arm-none-eabi/lib/thumb/v7e-m/fpv4-sp/hard\libc_nano.a(lib_a-malloc.o) (_free_r)
c:/a/gcc_arm/6/bin/../lib/gcc/arm-none-eabi/6.3.1/../../../../arm-none-eabi/lib/thumb/v7e-m/fpv4-sp/hard\libc_nano.a(lib_a-nano-mallocr.o)
                              c:/a/gcc_arm/6/bin/../lib/gcc/arm-none-eabi/6.3.1/../../../../arm-none-eabi/lib/thumb/v7e-m/fpv4-sp/hard\libc_nano.a(lib_a-malloc.o) (_malloc_r)
c:/a/gcc_arm/6/bin/../lib/gcc/arm-none-eabi/6.3.1/../../../../arm-none-eabi/lib/thumb/v7e-m/fpv4-sp/hard\libc_nano.a(lib_a-sbrkr.o)
                              c:/a/gcc_arm/6/bin/../lib/gcc/arm-none-eabi/6.3.1/../../../../arm-none-eabi/lib/thumb/v7e-m/fpv4-sp/hard\libc_nano.a(lib_a-nano-mallocr.o) (_sbrk_r)
c:/a/gcc_arm/6/bin/../lib/gcc/arm-none-eabi/6.3.1/../../../../arm-none-eabi/lib/thumb/v7e-m/fpv4-sp/hard\libc_nano.a(lib_a-strcpy.o)
                              external/rtt/librtt_nrf52840_xxAA.a(SEGGER_RTT.c.obj) (strcpy)
c:/a/gcc_arm/6/bin/../lib/gcc/arm-none-eabi/6.3.1/../../../../arm-none-eabi/lib/thumb/v7e-m/fpv4-sp/hard\libc_nano.a(lib_a-strlen.o)
                              examples/light_switch/server/CMakeFiles/light_switch_server_nrf52840_xxAA_s140_5.0.0-3.alpha.dir/__/__/__/mesh/prov/src/prov_beacon.c.obj (strlen)
c:/a/gcc_arm/6/bin/../lib/gcc/arm-none-eabi/6.3.1/../../../../arm-none-eabi/lib/thumb/v7e-m/fpv4-sp/hard\libc_nano.a(lib_a-strrchr.o)
                              examples/light_switch/server/CMakeFiles/light_switch_server_nrf52840_xxAA_s140_5.0.0-3.alpha.dir/src/main.c.obj (strrchr)
c:/a/gcc_arm/6/bin/../lib/gcc/arm-none-eabi/6.3.1/../../../../arm-none-eabi/lib/thumb/v7e-m/fpv4-sp/hard\libc_nano.a(lib_a-mlock.o)
                              c:/a/gcc_arm/6/bin/../lib/gcc/arm-none-eabi/6.3.1/../../../../arm-none-eabi/lib/thumb/v7e-m/fpv4-sp/hard\libc_nano.a(lib_a-nano-freer.o) (__malloc_lock)
c:/a/gcc_arm/6/bin/../lib/gcc/arm-none-eabi/6.3.1/../../../../arm-none-eabi/lib/thumb/v7e-m/fpv4-sp/hard\libc_nano.a(lib_a-reent.o)
                              c:/a/gcc_arm/6/bin/../lib/gcc/arm-none-eabi/6.3.1/../../../../arm-none-eabi/lib/thumb/v7e-m/fpv4-sp/hard\libc_nano.a(lib_a-sbrkr.o) (errno)
c:/a/gcc_arm/6/bin/../lib/gcc/arm-none-eabi/6.3.1/../../../../arm-none-eabi/lib/thumb/v7e-m/fpv4-sp/hard\libc_nano.a(lib_a-strchr.o)
                              c:/a/gcc_arm/6/bin/../lib/gcc/arm-none-eabi/6.3.1/../../../../arm-none-eabi/lib/thumb/v7e-m/fpv4-sp/hard\libc_nano.a(lib_a-strrchr.o) (strchr)
c:/a/gcc_arm/6/bin/../lib/gcc/arm-none-eabi/6.3.1/../../../../arm-none-eabi/lib/thumb/v7e-m/fpv4-sp/hard\libnosys.a(sbrk.o)
                              c:/a/gcc_arm/6/bin/../lib/gcc/arm-none-eabi/6.3.1/../../../../arm-none-eabi/lib/thumb/v7e-m/fpv4-sp/hard\libc_nano.a(lib_a-sbrkr.o) (_sbrk)
c:/a/gcc_arm/6/bin/../lib/gcc/arm-none-eabi/6.3.1/../../../../arm-none-eabi/lib/thumb/v7e-m/fpv4-sp/hard\libnosys.a(_exit.o)
                              c:/a/gcc_arm/6/bin/../lib/gcc/arm-none-eabi/6.3.1/../../../../arm-none-eabi/lib/thumb/v7e-m/fpv4-sp/hard\libc_nano.a(lib_a-exit.o) (_exit)

Allocating common symbols
Common symbol       size              file

nrf_nvic_state      0xc               examples/light_switch/server/CMakeFiles/light_switch_server_nrf52840_xxAA_s140_5.0.0-3.alpha.dir/__/__/nrf_mesh_sdk.c.obj
errno               0x4               c:/a/gcc_arm/6/bin/../lib/gcc/arm-none-eabi/6.3.1/../../../../arm-none-eabi/lib/thumb/v7e-m/fpv4-sp/hard\libc_nano.a(lib_a-reent.o)
m_assertion_handler
                    0x4               mesh/core/libmesh_core_nrf52840_xxAA.a(nrf_mesh.c.obj)
_SEGGER_RTT         0x78              external/rtt/librtt_nrf52840_xxAA.a(SEGGER_RTT.c.obj)

Discarded input sections

 .text          0x00000000        0x0 c:/a/gcc_arm/6/bin/../lib/gcc/arm-none-eabi/6.3.1/thumb/v7e-m/fpv4-sp/hard/crti.o
 .data          0x00000000        0x0 c:/a/gcc_arm/6/bin/../lib/gcc/arm-none-eabi/6.3.1/thumb/v7e-m/fpv4-sp/hard/crti.o
 .bss           0x00000000        0x0 c:/a/gcc_arm/6/bin/../lib/gcc/arm-none-eabi/6.3.1/thumb/v7e-m/fpv4-sp/hard/crti.o
 .data          0x00000000        0x4 c:/a/gcc_arm/6/bin/../lib/gcc/arm-none-eabi/6.3.1/thumb/v7e-m/fpv4-sp/hard/crtbegin.o
 .data          0x00000000        0x0 c:/a/gcc_arm/6/bin/../lib/gcc/arm-none-eabi/6.3.1/../../../../arm-none-eabi/lib/thumb/v7e-m/fpv4-sp/hard/crt0.o
 .bss           0x00000000        0x0 c:/a/gcc_arm/6/bin/../lib/gcc/arm-none-eabi/6.3.1/../../../../arm-none-eabi/lib/thumb/v7e-m/fpv4-sp/hard/crt0.o
 .ARM.extab     0x00000000        0x0 c:/a/gcc_arm/6/bin/../lib/gcc/arm-none-eabi/6.3.1/../../../../arm-none-eabi/lib/thumb/v7e-m/fpv4-sp/hard/crt0.o
 .text          0x00000000        0x0 examples/light_switch/server/CMakeFiles/light_switch_server_nrf52840_xxAA_s140_5.0.0-3.alpha.dir/src/main.c.obj
 .data          0x00000000        0x0 examples/light_switch/server/CMakeFiles/light_switch_server_nrf52840_xxAA_s140_5.0.0-3.alpha.dir/src/main.c.obj
 .bss           0x00000000        0x0 examples/light_switch/server/CMakeFiles/light_switch_server_nrf52840_xxAA_s140_5.0.0-3.alpha.dir/src/main.c.obj
 .text          0x00000000        0x0 examples/light_switch/server/CMakeFiles/light_switch_server_nrf52840_xxAA_s140_5.0.0-3.alpha.dir/__/__/nrf_mesh_sdk.c.obj
 .data          0x00000000        0x0 examples/light_switch/server/CMakeFiles/light_switch_server_nrf52840_xxAA_s140_5.0.0-3.alpha.dir/__/__/nrf_mesh_sdk.c.obj
 .bss           0x00000000        0x0 examples/light_switch/server/CMakeFiles/light_switch_server_nrf52840_xxAA_s140_5.0.0-3.alpha.dir/__/__/nrf_mesh_sdk.c.obj
 .text.sd_softdevice_enable
                0x00000000        0x4 examples/light_switch/server/CMakeFiles/light_switch_server_nrf52840_xxAA_s140_5.0.0-3.alpha.dir/__/__/nrf_mesh_sdk.c.obj
 .text.sd_ble_enable
                0x00000000        0x4 examples/light_switch/server/CMakeFiles/light_switch_server_nrf52840_xxAA_s140_5.0.0-3.alpha.dir/__/__/nrf_mesh_sdk.c.obj
 .text.mesh_assert_handler
                0x00000000       0x80 examples/light_switch/server/CMakeFiles/light_switch_server_nrf52840_xxAA_s140_5.0.0-3.alpha.dir/__/__/nrf_mesh_sdk.c.obj
 .text.softdevice_assert_handler
                0x00000000       0x94 examples/light_switch/server/CMakeFiles/light_switch_server_nrf52840_xxAA_s140_5.0.0-3.alpha.dir/__/__/nrf_mesh_sdk.c.obj
 .text.mesh_softdevice_enable
                0x00000000      0x14c examples/light_switch/server/CMakeFiles/light_switch_server_nrf52840_xxAA_s140_5.0.0-3.alpha.dir/__/__/nrf_mesh_sdk.c.obj
 .text.mesh_softdevice_setup
                0x00000000      0x1b4 examples/light_switch/server/CMakeFiles/light_switch_server_nrf52840_xxAA_s140_5.0.0-3.alpha.dir/__/__/nrf_mesh_sdk.c.obj
 .text.mesh_core_setup
                0x00000000      0x1c4 examples/light_switch/server/CMakeFiles/light_switch_server_nrf52840_xxAA_s140_5.0.0-3.alpha.dir/__/__/nrf_mesh_sdk.c.obj
 .rodata.mesh_core_setup.str1.4
                0x00000000       0x4d examples/light_switch/server/CMakeFiles/light_switch_server_nrf52840_xxAA_s140_5.0.0-3.alpha.dir/__/__/nrf_mesh_sdk.c.obj
 .rodata.mesh_softdevice_enable.str1.4
                0x00000000       0x65 examples/light_switch/server/CMakeFiles/light_switch_server_nrf52840_xxAA_s140_5.0.0-3.alpha.dir/__/__/nrf_mesh_sdk.c.obj
 .rodata.softdevice_assert_handler.str1.4
                0x00000000       0x1d examples/light_switch/server/CMakeFiles/light_switch_server_nrf52840_xxAA_s140_5.0.0-3.alpha.dir/__/__/nrf_mesh_sdk.c.obj
 .text          0x00000000        0x0 examples/light_switch/server/CMakeFiles/light_switch_server_nrf52840_xxAA_s140_5.0.0-3.alpha.dir/__/__/hal/src/simple_hal.c.obj
 .data          0x00000000        0x0 examples/light_switch/server/CMakeFiles/light_switch_server_nrf52840_xxAA_s140_5.0.0-3.alpha.dir/__/__/hal/src/simple_hal.c.obj
 .bss           0x00000000        0x0 examples/light_switch/server/CMakeFiles/light_switch_server_nrf52840_xxAA_s140_5.0.0-3.alpha.dir/__/__/hal/src/simple_hal.c.obj
 .text.hal_buttons_init
                0x00000000       0x54 examples/light_switch/server/CMakeFiles/light_switch_server_nrf52840_xxAA_s140_5.0.0-3.alpha.dir/__/__/hal/src/simple_hal.c.obj
 .text          0x00000000        0x0 examples/light_switch/server/CMakeFiles/light_switch_server_nrf52840_xxAA_s140_5.0.0-3.alpha.dir/__/__/nrf_mesh_weak.c.obj
 .data          0x00000000        0x0 examples/light_switch/server/CMakeFiles/light_switch_server_nrf52840_xxAA_s140_5.0.0-3.alpha.dir/__/__/nrf_mesh_weak.c.obj
 .bss           0x00000000        0x0 examples/light_switch/server/CMakeFiles/light_switch_server_nrf52840_xxAA_s140_5.0.0-3.alpha.dir/__/__/nrf_mesh_weak.c.obj
 .text._weak_handler_ptr
                0x00000000        0x4 examples/light_switch/server/CMakeFiles/light_switch_server_nrf52840_xxAA_s140_5.0.0-3.alpha.dir/__/__/nrf_mesh_weak.c.obj
 .text          0x00000000        0x0 examples/light_switch/server/CMakeFiles/light_switch_server_nrf52840_xxAA_s140_5.0.0-3.alpha.dir/__/__/__/models/simple_on_off/src/simple_on_off_server.c.obj
 .data          0x00000000        0x0 examples/light_switch/server/CMakeFiles/light_switch_server_nrf52840_xxAA_s140_5.0.0-3.alpha.dir/__/__/__/models/simple_on_off/src/simple_on_off_server.c.obj
 .bss           0x00000000        0x0 examples/light_switch/server/CMakeFiles/light_switch_server_nrf52840_xxAA_s140_5.0.0-3.alpha.dir/__/__/__/models/simple_on_off/src/simple_on_off_server.c.obj
 .text          0x00000000        0x0 examples/light_switch/server/CMakeFiles/light_switch_server_nrf52840_xxAA_s140_5.0.0-3.alpha.dir/__/__/__/models/config/src/composition_data.c.obj
 .data          0x00000000        0x0 examples/light_switch/server/CMakeFiles/light_switch_server_nrf52840_xxAA_s140_5.0.0-3.alpha.dir/__/__/__/models/config/src/composition_data.c.obj
 .bss           0x00000000        0x0 examples/light_switch/server/CMakeFiles/light_switch_server_nrf52840_xxAA_s140_5.0.0-3.alpha.dir/__/__/__/models/config/src/composition_data.c.obj
 .text          0x00000000        0x0 examples/light_switch/server/CMakeFiles/light_switch_server_nrf52840_xxAA_s140_5.0.0-3.alpha.dir/__/__/__/models/config/src/config_server.c.obj
 .data          0x00000000        0x0 examples/light_switch/server/CMakeFiles/light_switch_server_nrf52840_xxAA_s140_5.0.0-3.alpha.dir/__/__/__/models/config/src/config_server.c.obj
 .bss           0x00000000        0x0 examples/light_switch/server/CMakeFiles/light_switch_server_nrf52840_xxAA_s140_5.0.0-3.alpha.dir/__/__/__/models/config/src/config_server.c.obj
 .text          0x00000000        0x0 examples/light_switch/server/CMakeFiles/light_switch_server_nrf52840_xxAA_s140_5.0.0-3.alpha.dir/__/__/__/models/config/src/packed_index_list.c.obj
 .data          0x00000000        0x0 examples/light_switch/server/CMakeFiles/light_switch_server_nrf52840_xxAA_s140_5.0.0-3.alpha.dir/__/__/__/models/config/src/packed_index_list.c.obj
 .bss           0x00000000        0x0 examples/light_switch/server/CMakeFiles/light_switch_server_nrf52840_xxAA_s140_5.0.0-3.alpha.dir/__/__/__/models/config/src/packed_index_list.c.obj
 .text          0x00000000        0x0 examples/light_switch/server/CMakeFiles/light_switch_server_nrf52840_xxAA_s140_5.0.0-3.alpha.dir/__/__/__/models/health/src/health_server.c.obj
 .data          0x00000000        0x0 examples/light_switch/server/CMakeFiles/light_switch_server_nrf52840_xxAA_s140_5.0.0-3.alpha.dir/__/__/__/models/health/src/health_server.c.obj
 .bss           0x00000000        0x0 examples/light_switch/server/CMakeFiles/light_switch_server_nrf52840_xxAA_s140_5.0.0-3.alpha.dir/__/__/__/models/health/src/health_server.c.obj
 .text.health_server_fault_register
                0x00000000      0x254 examples/light_switch/server/CMakeFiles/light_switch_server_nrf52840_xxAA_s140_5.0.0-3.alpha.dir/__/__/__/models/health/src/health_server.c.obj
 .text.health_server_fault_clear
                0x00000000      0x304 examples/light_switch/server/CMakeFiles/light_switch_server_nrf52840_xxAA_s140_5.0.0-3.alpha.dir/__/__/__/models/health/src/health_server.c.obj
 .text.health_server_fault_is_set
                0x00000000       0x1c examples/light_switch/server/CMakeFiles/light_switch_server_nrf52840_xxAA_s140_5.0.0-3.alpha.dir/__/__/__/models/health/src/health_server.c.obj
 .text.health_server_fault_count_get
                0x00000000      0x154 examples/light_switch/server/CMakeFiles/light_switch_server_nrf52840_xxAA_s140_5.0.0-3.alpha.dir/__/__/__/models/health/src/health_server.c.obj
 .text.health_server_attention_get
                0x00000000        0x8 examples/light_switch/server/CMakeFiles/light_switch_server_nrf52840_xxAA_s140_5.0.0-3.alpha.dir/__/__/__/models/health/src/health_server.c.obj
 .text.health_server_attention_set
                0x00000000       0xac examples/light_switch/server/CMakeFiles/light_switch_server_nrf52840_xxAA_s140_5.0.0-3.alpha.dir/__/__/__/models/health/src/health_server.c.obj
 .text          0x00000000        0x0 examples/light_switch/server/CMakeFiles/light_switch_server_nrf52840_xxAA_s140_5.0.0-3.alpha.dir/__/__/__/mesh/access/src/access_publish.c.obj
 .data          0x00000000        0x0 examples/light_switch/server/CMakeFiles/light_switch_server_nrf52840_xxAA_s140_5.0.0-3.alpha.dir/__/__/__/mesh/access/src/access_publish.c.obj
 .bss           0x00000000        0x0 examples/light_switch/server/CMakeFiles/light_switch_server_nrf52840_xxAA_s140_5.0.0-3.alpha.dir/__/__/__/mesh/access/src/access_publish.c.obj
 .text          0x00000000        0x0 examples/light_switch/server/CMakeFiles/light_switch_server_nrf52840_xxAA_s140_5.0.0-3.alpha.dir/__/__/__/mesh/access/src/access.c.obj
 .data          0x00000000        0x0 examples/light_switch/server/CMakeFiles/light_switch_server_nrf52840_xxAA_s140_5.0.0-3.alpha.dir/__/__/__/mesh/access/src/access.c.obj
 .bss           0x00000000        0x0 examples/light_switch/server/CMakeFiles/light_switch_server_nrf52840_xxAA_s140_5.0.0-3.alpha.dir/__/__/__/mesh/access/src/access.c.obj
 .text.access_clear
                0x00000000       0x70 examples/light_switch/server/CMakeFiles/light_switch_server_nrf52840_xxAA_s140_5.0.0-3.alpha.dir/__/__/__/mesh/access/src/access.c.obj
 .text.access_model_subscription_lists_share
                0x00000000       0x58 examples/light_switch/server/CMakeFiles/light_switch_server_nrf52840_xxAA_s140_5.0.0-3.alpha.dir/__/__/__/mesh/access/src/access.c.obj
 .text.access_element_location_set
                0x00000000       0x20 examples/light_switch/server/CMakeFiles/light_switch_server_nrf52840_xxAA_s140_5.0.0-3.alpha.dir/__/__/__/mesh/access/src/access.c.obj
 .text          0x00000000        0x0 examples/light_switch/server/CMakeFiles/light_switch_server_nrf52840_xxAA_s140_5.0.0-3.alpha.dir/__/__/__/mesh/access/src/access_reliable.c.obj
 .data          0x00000000        0x0 examples/light_switch/server/CMakeFiles/light_switch_server_nrf52840_xxAA_s140_5.0.0-3.alpha.dir/__/__/__/mesh/access/src/access_reliable.c.obj
 .bss           0x00000000        0x0 examples/light_switch/server/CMakeFiles/light_switch_server_nrf52840_xxAA_s140_5.0.0-3.alpha.dir/__/__/__/mesh/access/src/access_reliable.c.obj
 .text.access_reliable_cancel_all
                0x00000000       0x34 examples/light_switch/server/CMakeFiles/light_switch_server_nrf52840_xxAA_s140_5.0.0-3.alpha.dir/__/__/__/mesh/access/src/access_reliable.c.obj
 .text.access_model_reliable_cancel
                0x00000000       0x60 examples/light_switch/server/CMakeFiles/light_switch_server_nrf52840_xxAA_s140_5.0.0-3.alpha.dir/__/__/__/mesh/access/src/access_reliable.c.obj
 .text.access_model_reliable_publish
                0x00000000      0x208 examples/light_switch/server/CMakeFiles/light_switch_server_nrf52840_xxAA_s140_5.0.0-3.alpha.dir/__/__/__/mesh/access/src/access_reliable.c.obj
 .text          0x00000000        0x0 examples/light_switch/server/CMakeFiles/light_switch_server_nrf52840_xxAA_s140_5.0.0-3.alpha.dir/__/__/__/mesh/access/src/device_state_manager.c.obj
 .data          0x00000000        0x0 examples/light_switch/server/CMakeFiles/light_switch_server_nrf52840_xxAA_s140_5.0.0-3.alpha.dir/__/__/__/mesh/access/src/device_state_manager.c.obj
 .bss           0x00000000        0x0 examples/light_switch/server/CMakeFiles/light_switch_server_nrf52840_xxAA_s140_5.0.0-3.alpha.dir/__/__/__/mesh/access/src/device_state_manager.c.obj
 .text.dsm_has_unflashed_data
                0x00000000       0x58 examples/light_switch/server/CMakeFiles/light_switch_server_nrf52840_xxAA_s140_5.0.0-3.alpha.dir/__/__/__/mesh/access/src/device_state_manager.c.obj
 .text.dsm_clear
                0x00000000       0x84 examples/light_switch/server/CMakeFiles/light_switch_server_nrf52840_xxAA_s140_5.0.0-3.alpha.dir/__/__/__/mesh/access/src/device_state_manager.c.obj
 .text.dsm_address_publish_remove
                0x00000000       0xac examples/light_switch/server/CMakeFiles/light_switch_server_nrf52840_xxAA_s140_5.0.0-3.alpha.dir/__/__/__/mesh/access/src/device_state_manager.c.obj
 .text.dsm_address_subscription_count_get
                0x00000000       0x78 examples/light_switch/server/CMakeFiles/light_switch_server_nrf52840_xxAA_s140_5.0.0-3.alpha.dir/__/__/__/mesh/access/src/device_state_manager.c.obj
 .text.dsm_address_get_all
                0x00000000       0x80 examples/light_switch/server/CMakeFiles/light_switch_server_nrf52840_xxAA_s140_5.0.0-3.alpha.dir/__/__/__/mesh/access/src/device_state_manager.c.obj
 .text.dsm_subnet_handle_get
                0x00000000       0x1c examples/light_switch/server/CMakeFiles/light_switch_server_nrf52840_xxAA_s140_5.0.0-3.alpha.dir/__/__/__/mesh/access/src/device_state_manager.c.obj
 .text.dsm_subnet_handle_to_netkey_index
                0x00000000       0x24 examples/light_switch/server/CMakeFiles/light_switch_server_nrf52840_xxAA_s140_5.0.0-3.alpha.dir/__/__/__/mesh/access/src/device_state_manager.c.obj
 .text.dsm_devkey_delete
                0x00000000       0x6c examples/light_switch/server/CMakeFiles/light_switch_server_nrf52840_xxAA_s140_5.0.0-3.alpha.dir/__/__/__/mesh/access/src/device_state_manager.c.obj
 .text.dsm_devkey_handle_get
                0x00000000       0x3c examples/light_switch/server/CMakeFiles/light_switch_server_nrf52840_xxAA_s140_5.0.0-3.alpha.dir/__/__/__/mesh/access/src/device_state_manager.c.obj
 .text.dsm_beacon_secmat_get
                0x00000000       0x24 examples/light_switch/server/CMakeFiles/light_switch_server_nrf52840_xxAA_s140_5.0.0-3.alpha.dir/__/__/__/mesh/access/src/device_state_manager.c.obj
 .text.dsm_proxy_identity_get
                0x00000000        0x4 examples/light_switch/server/CMakeFiles/light_switch_server_nrf52840_xxAA_s140_5.0.0-3.alpha.dir/__/__/__/mesh/access/src/device_state_manager.c.obj
 .text          0x00000000        0x0 examples/light_switch/server/CMakeFiles/light_switch_server_nrf52840_xxAA_s140_5.0.0-3.alpha.dir/__/__/__/mesh/prov/src/prov_provisionee.c.obj
 .data          0x00000000        0x0 examples/light_switch/server/CMakeFiles/light_switch_server_nrf52840_xxAA_s140_5.0.0-3.alpha.dir/__/__/__/mesh/prov/src/prov_provisionee.c.obj
 .bss           0x00000000        0x0 examples/light_switch/server/CMakeFiles/light_switch_server_nrf52840_xxAA_s140_5.0.0-3.alpha.dir/__/__/__/mesh/prov/src/prov_provisionee.c.obj
 .text.prov_provisionee_shared_secret
                0x00000000       0xb4 examples/light_switch/server/CMakeFiles/light_switch_server_nrf52840_xxAA_s140_5.0.0-3.alpha.dir/__/__/__/mesh/prov/src/prov_provisionee.c.obj
 .text          0x00000000        0x0 examples/light_switch/server/CMakeFiles/light_switch_server_nrf52840_xxAA_s140_5.0.0-3.alpha.dir/__/__/__/mesh/prov/src/nrf_mesh_prov.c.obj
 .data          0x00000000        0x0 examples/light_switch/server/CMakeFiles/light_switch_server_nrf52840_xxAA_s140_5.0.0-3.alpha.dir/__/__/__/mesh/prov/src/nrf_mesh_prov.c.obj
 .bss           0x00000000        0x0 examples/light_switch/server/CMakeFiles/light_switch_server_nrf52840_xxAA_s140_5.0.0-3.alpha.dir/__/__/__/mesh/prov/src/nrf_mesh_prov.c.obj
 .text.nrf_mesh_prov_provision
                0x00000000       0x50 examples/light_switch/server/CMakeFiles/light_switch_server_nrf52840_xxAA_s140_5.0.0-3.alpha.dir/__/__/__/mesh/prov/src/nrf_mesh_prov.c.obj
 .text.nrf_mesh_prov_oob_use
                0x00000000       0x10 examples/light_switch/server/CMakeFiles/light_switch_server_nrf52840_xxAA_s140_5.0.0-3.alpha.dir/__/__/__/mesh/prov/src/nrf_mesh_prov.c.obj
 .text.nrf_mesh_prov_shared_secret_provide
                0x00000000       0x10 examples/light_switch/server/CMakeFiles/light_switch_server_nrf52840_xxAA_s140_5.0.0-3.alpha.dir/__/__/__/mesh/prov/src/nrf_mesh_prov.c.obj
 .text.nrf_mesh_prov_pubkey_provide
                0x00000000       0x10 examples/light_switch/server/CMakeFiles/light_switch_server_nrf52840_xxAA_s140_5.0.0-3.alpha.dir/__/__/__/mesh/prov/src/nrf_mesh_prov.c.obj
 .text          0x00000000        0x0 examples/light_switch/server/CMakeFiles/light_switch_server_nrf52840_xxAA_s140_5.0.0-3.alpha.dir/__/__/__/mesh/prov/src/provisioning.c.obj
 .data          0x00000000        0x0 examples/light_switch/server/CMakeFiles/light_switch_server_nrf52840_xxAA_s140_5.0.0-3.alpha.dir/__/__/__/mesh/prov/src/provisioning.c.obj
 .bss           0x00000000        0x0 examples/light_switch/server/CMakeFiles/light_switch_server_nrf52840_xxAA_s140_5.0.0-3.alpha.dir/__/__/__/mesh/prov/src/provisioning.c.obj
 .text.prov_listen_stop
                0x00000000        0x8 examples/light_switch/server/CMakeFiles/light_switch_server_nrf52840_xxAA_s140_5.0.0-3.alpha.dir/__/__/__/mesh/prov/src/provisioning.c.obj
 .text.prov_link_open
                0x00000000       0x14 examples/light_switch/server/CMakeFiles/light_switch_server_nrf52840_xxAA_s140_5.0.0-3.alpha.dir/__/__/__/mesh/prov/src/provisioning.c.obj
 .text.prov_tx_invite
                0x00000000       0x44 examples/light_switch/server/CMakeFiles/light_switch_server_nrf52840_xxAA_s140_5.0.0-3.alpha.dir/__/__/__/mesh/prov/src/provisioning.c.obj
 .text.prov_tx_start
                0x00000000       0x4c examples/light_switch/server/CMakeFiles/light_switch_server_nrf52840_xxAA_s140_5.0.0-3.alpha.dir/__/__/__/mesh/prov/src/provisioning.c.obj
 .text.prov_tx_data
                0x00000000       0x48 examples/light_switch/server/CMakeFiles/light_switch_server_nrf52840_xxAA_s140_5.0.0-3.alpha.dir/__/__/__/mesh/prov/src/provisioning.c.obj
 .text.prov_tx  0x00000000       0x50 examples/light_switch/server/CMakeFiles/light_switch_server_nrf52840_xxAA_s140_5.0.0-3.alpha.dir/__/__/__/mesh/prov/src/provisioning.c.obj
 .text          0x00000000        0x0 examples/light_switch/server/CMakeFiles/light_switch_server_nrf52840_xxAA_s140_5.0.0-3.alpha.dir/__/__/__/mesh/prov/src/prov_beacon.c.obj
 .data          0x00000000        0x0 examples/light_switch/server/CMakeFiles/light_switch_server_nrf52840_xxAA_s140_5.0.0-3.alpha.dir/__/__/__/mesh/prov/src/prov_beacon.c.obj
 .bss           0x00000000        0x0 examples/light_switch/server/CMakeFiles/light_switch_server_nrf52840_xxAA_s140_5.0.0-3.alpha.dir/__/__/__/mesh/prov/src/prov_beacon.c.obj
 .text.prov_beacon_unprov_report
                0x00000000        0xc examples/light_switch/server/CMakeFiles/light_switch_server_nrf52840_xxAA_s140_5.0.0-3.alpha.dir/__/__/__/mesh/prov/src/prov_beacon.c.obj
 .text          0x00000000        0x0 examples/light_switch/server/CMakeFiles/light_switch_server_nrf52840_xxAA_s140_5.0.0-3.alpha.dir/__/__/__/mesh/prov/src/prov_utils.c.obj
 .data          0x00000000        0x0 examples/light_switch/server/CMakeFiles/light_switch_server_nrf52840_xxAA_s140_5.0.0-3.alpha.dir/__/__/__/mesh/prov/src/prov_utils.c.obj
 .bss           0x00000000        0x0 examples/light_switch/server/CMakeFiles/light_switch_server_nrf52840_xxAA_s140_5.0.0-3.alpha.dir/__/__/__/mesh/prov/src/prov_utils.c.obj
 .text          0x00000000        0x0 examples/light_switch/server/CMakeFiles/light_switch_server_nrf52840_xxAA_s140_5.0.0-3.alpha.dir/__/__/__/mesh/prov/src/prov_bearer_adv.c.obj
 .data          0x00000000        0x0 examples/light_switch/server/CMakeFiles/light_switch_server_nrf52840_xxAA_s140_5.0.0-3.alpha.dir/__/__/__/mesh/prov/src/prov_bearer_adv.c.obj
 .bss           0x00000000        0x0 examples/light_switch/server/CMakeFiles/light_switch_server_nrf52840_xxAA_s140_5.0.0-3.alpha.dir/__/__/__/mesh/prov/src/prov_bearer_adv.c.obj
 .text.calculate_3GPP_CRC
                0x00000000       0x28 examples/light_switch/server/CMakeFiles/light_switch_server_nrf52840_xxAA_s140_5.0.0-3.alpha.dir/__/__/__/mesh/prov/src/prov_bearer_adv.c.obj
 .text          0x00000000        0x0 examples/light_switch/server/CMakeFiles/light_switch_server_nrf52840_xxAA_s140_5.0.0-3.alpha.dir/__/__/__/mesh/access/src/nrf_mesh_node_config.c.obj
 .data          0x00000000        0x0 examples/light_switch/server/CMakeFiles/light_switch_server_nrf52840_xxAA_s140_5.0.0-3.alpha.dir/__/__/__/mesh/access/src/nrf_mesh_node_config.c.obj
 .bss           0x00000000        0x0 examples/light_switch/server/CMakeFiles/light_switch_server_nrf52840_xxAA_s140_5.0.0-3.alpha.dir/__/__/__/mesh/access/src/nrf_mesh_node_config.c.obj
 .text.softdevice_setup
                0x00000000       0x58 examples/light_switch/server/CMakeFiles/light_switch_server_nrf52840_xxAA_s140_5.0.0-3.alpha.dir/__/__/__/mesh/access/src/nrf_mesh_node_config.c.obj
 .text.nrf_mesh_node_config_clear
                0x00000000       0x1c examples/light_switch/server/CMakeFiles/light_switch_server_nrf52840_xxAA_s140_5.0.0-3.alpha.dir/__/__/__/mesh/access/src/nrf_mesh_node_config.c.obj
 .text          0x00000000        0x0 examples/light_switch/server/CMakeFiles/light_switch_server_nrf52840_xxAA_s140_5.0.0-3.alpha.dir/__/__/__/external/nRF5_SDK_14.0.0_3bcc1f7/components/toolchain/system_nrf52840.c.obj
 .data          0x00000000        0x0 examples/light_switch/server/CMakeFiles/light_switch_server_nrf52840_xxAA_s140_5.0.0-3.alpha.dir/__/__/__/external/nRF5_SDK_14.0.0_3bcc1f7/components/toolchain/system_nrf52840.c.obj
 .bss           0x00000000        0x0 examples/light_switch/server/CMakeFiles/light_switch_server_nrf52840_xxAA_s140_5.0.0-3.alpha.dir/__/__/__/external/nRF5_SDK_14.0.0_3bcc1f7/components/toolchain/system_nrf52840.c.obj
 .text.SystemCoreClockUpdate
                0x00000000       0x10 examples/light_switch/server/CMakeFiles/light_switch_server_nrf52840_xxAA_s140_5.0.0-3.alpha.dir/__/__/__/external/nRF5_SDK_14.0.0_3bcc1f7/components/toolchain/system_nrf52840.c.obj
 .data          0x00000000        0x0 examples/light_switch/server/CMakeFiles/light_switch_server_nrf52840_xxAA_s140_5.0.0-3.alpha.dir/__/__/__/external/nRF5_SDK_14.0.0_3bcc1f7/components/toolchain/gcc/gcc_startup_nrf52840.S.obj
 .bss           0x00000000        0x0 examples/light_switch/server/CMakeFiles/light_switch_server_nrf52840_xxAA_s140_5.0.0-3.alpha.dir/__/__/__/external/nRF5_SDK_14.0.0_3bcc1f7/components/toolchain/gcc/gcc_startup_nrf52840.S.obj
 .text          0x00000000        0x0 mesh/core/libmesh_core_nrf52840_xxAA.a(nrf_mesh_configure.c.obj)
 .data          0x00000000        0x0 mesh/core/libmesh_core_nrf52840_xxAA.a(nrf_mesh_configure.c.obj)
 .bss           0x00000000        0x0 mesh/core/libmesh_core_nrf52840_xxAA.a(nrf_mesh_configure.c.obj)
 .text.nrf_mesh_configure_device_uuid_set
                0x00000000       0x10 mesh/core/libmesh_core_nrf52840_xxAA.a(nrf_mesh_configure.c.obj)
 .text          0x00000000        0x0 mesh/core/libmesh_core_nrf52840_xxAA.a(event.c.obj)
 .data          0x00000000        0x0 mesh/core/libmesh_core_nrf52840_xxAA.a(event.c.obj)
 .bss           0x00000000        0x0 mesh/core/libmesh_core_nrf52840_xxAA.a(event.c.obj)
 .text          0x00000000        0x0 mesh/core/libmesh_core_nrf52840_xxAA.a(net_state.c.obj)
 .data          0x00000000        0x0 mesh/core/libmesh_core_nrf52840_xxAA.a(net_state.c.obj)
 .bss           0x00000000        0x0 mesh/core/libmesh_core_nrf52840_xxAA.a(net_state.c.obj)
 .text.net_state_reset
                0x00000000       0x3c mesh/core/libmesh_core_nrf52840_xxAA.a(net_state.c.obj)
 .text.net_state_iv_update_start
                0x00000000       0x90 mesh/core/libmesh_core_nrf52840_xxAA.a(net_state.c.obj)
 .text.net_state_iv_update_test_mode_set
                0x00000000        0xc mesh/core/libmesh_core_nrf52840_xxAA.a(net_state.c.obj)
 .data.mem_listener.10054
                0x00000000       0x10 mesh/core/libmesh_core_nrf52840_xxAA.a(net_state.c.obj)
 .text          0x00000000        0x0 mesh/core/libmesh_core_nrf52840_xxAA.a(nrf_mesh_utils.c.obj)
 .data          0x00000000        0x0 mesh/core/libmesh_core_nrf52840_xxAA.a(nrf_mesh_utils.c.obj)
 .bss           0x00000000        0x0 mesh/core/libmesh_core_nrf52840_xxAA.a(nrf_mesh_utils.c.obj)
 .text.nrf_mesh_rand_get
                0x00000000       0x10 mesh/core/libmesh_core_nrf52840_xxAA.a(nrf_mesh_utils.c.obj)
 .text.nrf_mesh_gap_address_type_get
                0x00000000       0x40 mesh/core/libmesh_core_nrf52840_xxAA.a(nrf_mesh_utils.c.obj)
 .text          0x00000000        0x0 mesh/core/libmesh_core_nrf52840_xxAA.a(nrf_mesh.c.obj)
 .data          0x00000000        0x0 mesh/core/libmesh_core_nrf52840_xxAA.a(nrf_mesh.c.obj)
 .bss           0x00000000        0x0 mesh/core/libmesh_core_nrf52840_xxAA.a(nrf_mesh.c.obj)
 .text.nrf_mesh_disable
                0x00000000       0x2c mesh/core/libmesh_core_nrf52840_xxAA.a(nrf_mesh.c.obj)
 .text.nrf_mesh_rx_cb_set
                0x00000000        0xc mesh/core/libmesh_core_nrf52840_xxAA.a(nrf_mesh.c.obj)
 .text.nrf_mesh_rx_cb_clear
                0x00000000        0xc mesh/core/libmesh_core_nrf52840_xxAA.a(nrf_mesh.c.obj)
 .text          0x00000000        0x0 mesh/core/libmesh_core_nrf52840_xxAA.a(hal.c.obj)
 .data          0x00000000        0x0 mesh/core/libmesh_core_nrf52840_xxAA.a(hal.c.obj)
 .bss           0x00000000        0x0 mesh/core/libmesh_core_nrf52840_xxAA.a(hal.c.obj)
 .text.sd_power_reset_reason_clr
                0x00000000        0x4 mesh/core/libmesh_core_nrf52840_xxAA.a(hal.c.obj)
 .text.hal_device_reset
                0x00000000       0x2c mesh/core/libmesh_core_nrf52840_xxAA.a(hal.c.obj)
 .text          0x00000000        0x0 mesh/core/libmesh_core_nrf52840_xxAA.a(timer_scheduler.c.obj)
 .data          0x00000000        0x0 mesh/core/libmesh_core_nrf52840_xxAA.a(timer_scheduler.c.obj)
 .bss           0x00000000        0x0 mesh/core/libmesh_core_nrf52840_xxAA.a(timer_scheduler.c.obj)
 .text          0x00000000        0x0 mesh/core/libmesh_core_nrf52840_xxAA.a(timer.c.obj)
 .data          0x00000000        0x0 mesh/core/libmesh_core_nrf52840_xxAA.a(timer.c.obj)
 .bss           0x00000000        0x0 mesh/core/libmesh_core_nrf52840_xxAA.a(timer.c.obj)
 .text.timer_order_cb_ppi
                0x00000000       0xd8 mesh/core/libmesh_core_nrf52840_xxAA.a(timer.c.obj)
 .text.timer_order_ppi
                0x00000000       0x88 mesh/core/libmesh_core_nrf52840_xxAA.a(timer.c.obj)
 .text.timer_abort
                0x00000000       0x84 mesh/core/libmesh_core_nrf52840_xxAA.a(timer.c.obj)
 .text          0x00000000        0x0 mesh/core/libmesh_core_nrf52840_xxAA.a(ticker.c.obj)
 .data          0x00000000        0x0 mesh/core/libmesh_core_nrf52840_xxAA.a(ticker.c.obj)
 .bss           0x00000000        0x0 mesh/core/libmesh_core_nrf52840_xxAA.a(ticker.c.obj)
 .text.ticker_get
                0x00000000        0xc mesh/core/libmesh_core_nrf52840_xxAA.a(ticker.c.obj)
 .text          0x00000000        0x0 mesh/core/libmesh_core_nrf52840_xxAA.a(rand.c.obj)
 .data          0x00000000        0x0 mesh/core/libmesh_core_nrf52840_xxAA.a(rand.c.obj)
 .bss           0x00000000        0x0 mesh/core/libmesh_core_nrf52840_xxAA.a(rand.c.obj)
 .text          0x00000000        0x0 mesh/core/libmesh_core_nrf52840_xxAA.a(nrf_mesh_opt.c.obj)
 .data          0x00000000        0x0 mesh/core/libmesh_core_nrf52840_xxAA.a(nrf_mesh_opt.c.obj)
 .bss           0x00000000        0x0 mesh/core/libmesh_core_nrf52840_xxAA.a(nrf_mesh_opt.c.obj)
 .text          0x00000000        0x0 mesh/core/libmesh_core_nrf52840_xxAA.a(timeslot.c.obj)
 .data          0x00000000        0x0 mesh/core/libmesh_core_nrf52840_xxAA.a(timeslot.c.obj)
 .bss           0x00000000        0x0 mesh/core/libmesh_core_nrf52840_xxAA.a(timeslot.c.obj)
 .text.timeslot_restart
                0x00000000       0x30 mesh/core/libmesh_core_nrf52840_xxAA.a(timeslot.c.obj)
 .text.timeslot_end_time_get
                0x00000000       0x30 mesh/core/libmesh_core_nrf52840_xxAA.a(timeslot.c.obj)
 .text.timeslot_is_in_ts
                0x00000000        0xc mesh/core/libmesh_core_nrf52840_xxAA.a(timeslot.c.obj)
 .text          0x00000000        0x0 mesh/core/libmesh_core_nrf52840_xxAA.a(bearer_event.c.obj)
 .data          0x00000000        0x0 mesh/core/libmesh_core_nrf52840_xxAA.a(bearer_event.c.obj)
 .bss           0x00000000        0x0 mesh/core/libmesh_core_nrf52840_xxAA.a(bearer_event.c.obj)
 .text.bearer_event_generic_post
                0x00000000       0x50 mesh/core/libmesh_core_nrf52840_xxAA.a(bearer_event.c.obj)
 .text.bearer_event_timer_sch_post
                0x00000000       0x54 mesh/core/libmesh_core_nrf52840_xxAA.a(bearer_event.c.obj)
 .text          0x00000000        0x0 mesh/core/libmesh_core_nrf52840_xxAA.a(enc.c.obj)
 .data          0x00000000        0x0 mesh/core/libmesh_core_nrf52840_xxAA.a(enc.c.obj)
 .bss           0x00000000        0x0 mesh/core/libmesh_core_nrf52840_xxAA.a(enc.c.obj)
 .text.enc_key_generate
                0x00000000        0x8 mesh/core/libmesh_core_nrf52840_xxAA.a(enc.c.obj)
 .text          0x00000000        0x0 mesh/core/libmesh_core_nrf52840_xxAA.a(network.c.obj)
 .data          0x00000000        0x0 mesh/core/libmesh_core_nrf52840_xxAA.a(network.c.obj)
 .bss           0x00000000        0x0 mesh/core/libmesh_core_nrf52840_xxAA.a(network.c.obj)
 .text.network_packet_discard
                0x00000000       0x4c mesh/core/libmesh_core_nrf52840_xxAA.a(network.c.obj)
 .text          0x00000000        0x0 mesh/core/libmesh_core_nrf52840_xxAA.a(nrf_mesh_keygen.c.obj)
 .data          0x00000000        0x0 mesh/core/libmesh_core_nrf52840_xxAA.a(nrf_mesh_keygen.c.obj)
 .bss           0x00000000        0x0 mesh/core/libmesh_core_nrf52840_xxAA.a(nrf_mesh_keygen.c.obj)
 .text.nrf_mesh_keygen_identitykey
                0x00000000       0x4c mesh/core/libmesh_core_nrf52840_xxAA.a(nrf_mesh_keygen.c.obj)
 .text          0x00000000        0x0 mesh/core/libmesh_core_nrf52840_xxAA.a(log.c.obj)
 .data          0x00000000        0x0 mesh/core/libmesh_core_nrf52840_xxAA.a(log.c.obj)
 .bss           0x00000000        0x0 mesh/core/libmesh_core_nrf52840_xxAA.a(log.c.obj)
 .text.log_callback_logview
                0x00000000       0x38 mesh/core/libmesh_core_nrf52840_xxAA.a(log.c.obj)
 .text.log_set_callback
                0x00000000        0xc mesh/core/libmesh_core_nrf52840_xxAA.a(log.c.obj)
 .text.log_vprintf
                0x00000000       0x18 mesh/core/libmesh_core_nrf52840_xxAA.a(log.c.obj)
 .rodata.log_callback_logview.str1.4
                0x00000000       0x12 mesh/core/libmesh_core_nrf52840_xxAA.a(log.c.obj)
 .text          0x00000000        0x0 mesh/core/libmesh_core_nrf52840_xxAA.a(flash_manager.c.obj)
 .data          0x00000000        0x0 mesh/core/libmesh_core_nrf52840_xxAA.a(flash_manager.c.obj)
 .bss           0x00000000        0x0 mesh/core/libmesh_core_nrf52840_xxAA.a(flash_manager.c.obj)
 .text.flash_manager_entry_count_get
                0x00000000      0x110 mesh/core/libmesh_core_nrf52840_xxAA.a(flash_manager.c.obj)
 .text.flash_manager_entry_release
                0x00000000       0xb4 mesh/core/libmesh_core_nrf52840_xxAA.a(flash_manager.c.obj)
 .text          0x00000000        0x0 mesh/core/libmesh_core_nrf52840_xxAA.a(ccm_soft.c.obj)
 .data          0x00000000        0x0 mesh/core/libmesh_core_nrf52840_xxAA.a(ccm_soft.c.obj)
 .bss           0x00000000        0x0 mesh/core/libmesh_core_nrf52840_xxAA.a(ccm_soft.c.obj)
 .text          0x00000000        0x0 mesh/core/libmesh_core_nrf52840_xxAA.a(beacon.c.obj)
 .data          0x00000000        0x0 mesh/core/libmesh_core_nrf52840_xxAA.a(beacon.c.obj)
 .bss           0x00000000        0x0 mesh/core/libmesh_core_nrf52840_xxAA.a(beacon.c.obj)
 .text          0x00000000        0x0 mesh/core/libmesh_core_nrf52840_xxAA.a(flash_manager_internal.c.obj)
 .data          0x00000000        0x0 mesh/core/libmesh_core_nrf52840_xxAA.a(flash_manager_internal.c.obj)
 .bss           0x00000000        0x0 mesh/core/libmesh_core_nrf52840_xxAA.a(flash_manager_internal.c.obj)
 .text          0x00000000        0x0 mesh/core/libmesh_core_nrf52840_xxAA.a(core_tx.c.obj)
 .data          0x00000000        0x0 mesh/core/libmesh_core_nrf52840_xxAA.a(core_tx.c.obj)
 .bss           0x00000000        0x0 mesh/core/libmesh_core_nrf52840_xxAA.a(core_tx.c.obj)
 .text.core_tx_adv_address_set
                0x00000000       0x34 mesh/core/libmesh_core_nrf52840_xxAA.a(core_tx.c.obj)
 .text          0x00000000        0x0 mesh/core/libmesh_core_nrf52840_xxAA.a(net_beacon.c.obj)
 .data          0x00000000        0x0 mesh/core/libmesh_core_nrf52840_xxAA.a(net_beacon.c.obj)
 .bss           0x00000000        0x0 mesh/core/libmesh_core_nrf52840_xxAA.a(net_beacon.c.obj)
 .text          0x00000000        0x0 mesh/core/libmesh_core_nrf52840_xxAA.a(advertiser.c.obj)
 .data          0x00000000        0x0 mesh/core/libmesh_core_nrf52840_xxAA.a(advertiser.c.obj)
 .bss           0x00000000        0x0 mesh/core/libmesh_core_nrf52840_xxAA.a(advertiser.c.obj)
 .text.advertiser_disable
                0x00000000        0xc mesh/core/libmesh_core_nrf52840_xxAA.a(advertiser.c.obj)
 .text.advertiser_channels_set
                0x00000000       0xac mesh/core/libmesh_core_nrf52840_xxAA.a(advertiser.c.obj)
 .text.advertiser_config_set
                0x00000000      0x12c mesh/core/libmesh_core_nrf52840_xxAA.a(advertiser.c.obj)
 .text.advertiser_address_set
                0x00000000       0x80 mesh/core/libmesh_core_nrf52840_xxAA.a(advertiser.c.obj)
 .text.advertiser_config_get
                0x00000000       0x30 mesh/core/libmesh_core_nrf52840_xxAA.a(advertiser.c.obj)
 .text.advertiser_address_default_get
                0x00000000       0x68 mesh/core/libmesh_core_nrf52840_xxAA.a(advertiser.c.obj)
 .text          0x00000000        0x0 mesh/core/libmesh_core_nrf52840_xxAA.a(bearer_handler.c.obj)
 .data          0x00000000        0x0 mesh/core/libmesh_core_nrf52840_xxAA.a(bearer_handler.c.obj)
 .bss           0x00000000        0x0 mesh/core/libmesh_core_nrf52840_xxAA.a(bearer_handler.c.obj)
 .text.bearer_handler_stop
                0x00000000       0x20 mesh/core/libmesh_core_nrf52840_xxAA.a(bearer_handler.c.obj)
 .text.bearer_handler_action_fire
                0x00000000       0xb0 mesh/core/libmesh_core_nrf52840_xxAA.a(bearer_handler.c.obj)
 .text          0x00000000        0x0 mesh/core/libmesh_core_nrf52840_xxAA.a(broadcast.c.obj)
 .data          0x00000000        0x0 mesh/core/libmesh_core_nrf52840_xxAA.a(broadcast.c.obj)
 .bss           0x00000000        0x0 mesh/core/libmesh_core_nrf52840_xxAA.a(broadcast.c.obj)
 .text          0x00000000        0x0 mesh/core/libmesh_core_nrf52840_xxAA.a(radio_config.c.obj)
 .data          0x00000000        0x0 mesh/core/libmesh_core_nrf52840_xxAA.a(radio_config.c.obj)
 .bss           0x00000000        0x0 mesh/core/libmesh_core_nrf52840_xxAA.a(radio_config.c.obj)
 .text.radio_config_access_addr_get
                0x00000000       0x6c mesh/core/libmesh_core_nrf52840_xxAA.a(radio_config.c.obj)
 .text          0x00000000        0x0 mesh/core/libmesh_core_nrf52840_xxAA.a(scanner.c.obj)
 .data          0x00000000        0x0 mesh/core/libmesh_core_nrf52840_xxAA.a(scanner.c.obj)
 .bss           0x00000000        0x0 mesh/core/libmesh_core_nrf52840_xxAA.a(scanner.c.obj)
 .text.scanner_disable
                0x00000000       0x5c mesh/core/libmesh_core_nrf52840_xxAA.a(scanner.c.obj)
 .text.scanner_is_enabled
                0x00000000       0x14 mesh/core/libmesh_core_nrf52840_xxAA.a(scanner.c.obj)
 .text.scanner_stats_get
                0x00000000        0x8 mesh/core/libmesh_core_nrf52840_xxAA.a(scanner.c.obj)
 .text.scanner_config_radio_mode_set
                0x00000000       0x10 mesh/core/libmesh_core_nrf52840_xxAA.a(scanner.c.obj)
 .text.scanner_config_scan_time_set
                0x00000000       0x94 mesh/core/libmesh_core_nrf52840_xxAA.a(scanner.c.obj)
 .text.scanner_config_channels_set
                0x00000000       0x64 mesh/core/libmesh_core_nrf52840_xxAA.a(scanner.c.obj)
 .text.scanner_config_access_addresses_set
                0x00000000       0x44 mesh/core/libmesh_core_nrf52840_xxAA.a(scanner.c.obj)
 .text          0x00000000        0x0 mesh/core/libmesh_core_nrf52840_xxAA.a(internal_event.c.obj)
 .data          0x00000000        0x0 mesh/core/libmesh_core_nrf52840_xxAA.a(internal_event.c.obj)
 .bss           0x00000000        0x0 mesh/core/libmesh_core_nrf52840_xxAA.a(internal_event.c.obj)
 .text.internal_event_init
                0x00000000       0x48 mesh/core/libmesh_core_nrf52840_xxAA.a(internal_event.c.obj)
 .text.internal_event_pop
                0x00000000       0x1c mesh/core/libmesh_core_nrf52840_xxAA.a(internal_event.c.obj)
 .bss.m_internal_event_fifo_buffer
                0x00000000      0x100 mesh/core/libmesh_core_nrf52840_xxAA.a(internal_event.c.obj)
 .text          0x00000000        0x0 mesh/core/libmesh_core_nrf52840_xxAA.a(aes.c.obj)
 .data          0x00000000        0x0 mesh/core/libmesh_core_nrf52840_xxAA.a(aes.c.obj)
 .bss           0x00000000        0x0 mesh/core/libmesh_core_nrf52840_xxAA.a(aes.c.obj)
 .text          0x00000000        0x0 mesh/core/libmesh_core_nrf52840_xxAA.a(msg_cache.c.obj)
 .data          0x00000000        0x0 mesh/core/libmesh_core_nrf52840_xxAA.a(msg_cache.c.obj)
 .bss           0x00000000        0x0 mesh/core/libmesh_core_nrf52840_xxAA.a(msg_cache.c.obj)
 .text.msg_cache_clear
                0x00000000       0x18 mesh/core/libmesh_core_nrf52840_xxAA.a(msg_cache.c.obj)
 .text          0x00000000        0x0 mesh/core/libmesh_core_nrf52840_xxAA.a(transport.c.obj)
 .data          0x00000000        0x0 mesh/core/libmesh_core_nrf52840_xxAA.a(transport.c.obj)
 .bss           0x00000000        0x0 mesh/core/libmesh_core_nrf52840_xxAA.a(transport.c.obj)
 .text.transport_sar_mem_funcs_reset
                0x00000000       0x30 mesh/core/libmesh_core_nrf52840_xxAA.a(transport.c.obj)
 .text.transport_sar_mem_funcs_set
                0x00000000       0x48 mesh/core/libmesh_core_nrf52840_xxAA.a(transport.c.obj)
 .text          0x00000000        0x0 mesh/core/libmesh_core_nrf52840_xxAA.a(packet_buffer.c.obj)
 .data          0x00000000        0x0 mesh/core/libmesh_core_nrf52840_xxAA.a(packet_buffer.c.obj)
 .bss           0x00000000        0x0 mesh/core/libmesh_core_nrf52840_xxAA.a(packet_buffer.c.obj)
 .text.packet_buffer_max_packet_len_get
                0x00000000       0x3c mesh/core/libmesh_core_nrf52840_xxAA.a(packet_buffer.c.obj)
 .text          0x00000000        0x0 mesh/core/libmesh_core_nrf52840_xxAA.a(flash_manager_defrag.c.obj)
 .data          0x00000000        0x0 mesh/core/libmesh_core_nrf52840_xxAA.a(flash_manager_defrag.c.obj)
 .bss           0x00000000        0x0 mesh/core/libmesh_core_nrf52840_xxAA.a(flash_manager_defrag.c.obj)
 .text.flash_manager_defragging
                0x00000000       0x50 mesh/core/libmesh_core_nrf52840_xxAA.a(flash_manager_defrag.c.obj)
 .text          0x00000000        0x0 mesh/core/libmesh_core_nrf52840_xxAA.a(fifo.c.obj)
 .data          0x00000000        0x0 mesh/core/libmesh_core_nrf52840_xxAA.a(fifo.c.obj)
 .bss           0x00000000        0x0 mesh/core/libmesh_core_nrf52840_xxAA.a(fifo.c.obj)
 .text.fifo_peek_at
                0x00000000       0x54 mesh/core/libmesh_core_nrf52840_xxAA.a(fifo.c.obj)
 .text.fifo_peek
                0x00000000       0x50 mesh/core/libmesh_core_nrf52840_xxAA.a(fifo.c.obj)
 .text.fifo_flush
                0x00000000        0x8 mesh/core/libmesh_core_nrf52840_xxAA.a(fifo.c.obj)
 .text.fifo_get_len
                0x00000000        0x8 mesh/core/libmesh_core_nrf52840_xxAA.a(fifo.c.obj)
 .text.fifo_is_full
                0x00000000       0x14 mesh/core/libmesh_core_nrf52840_xxAA.a(fifo.c.obj)
 .text.fifo_is_empty
                0x00000000       0x10 mesh/core/libmesh_core_nrf52840_xxAA.a(fifo.c.obj)
 .text          0x00000000        0x0 mesh/core/libmesh_core_nrf52840_xxAA.a(packet_mgr.c.obj)
 .data          0x00000000        0x0 mesh/core/libmesh_core_nrf52840_xxAA.a(packet_mgr.c.obj)
 .bss           0x00000000        0x0 mesh/core/libmesh_core_nrf52840_xxAA.a(packet_mgr.c.obj)
 .text.packet_mgr_alloc
                0x00000000      0x1dc mesh/core/libmesh_core_nrf52840_xxAA.a(packet_mgr.c.obj)
 .text.packet_mgr_free
                0x00000000       0x70 mesh/core/libmesh_core_nrf52840_xxAA.a(packet_mgr.c.obj)
 .text.packet_mgr_get_free_space
                0x00000000       0x1c mesh/core/libmesh_core_nrf52840_xxAA.a(packet_mgr.c.obj)
 .text.packet_mgr_refcount_get
                0x00000000        0x8 mesh/core/libmesh_core_nrf52840_xxAA.a(packet_mgr.c.obj)
 .text.packet_mgr_size_get
                0x00000000        0x8 mesh/core/libmesh_core_nrf52840_xxAA.a(packet_mgr.c.obj)
 .text          0x00000000        0x0 mesh/core/libmesh_core_nrf52840_xxAA.a(mesh_flash.c.obj)
 .data          0x00000000        0x0 mesh/core/libmesh_core_nrf52840_xxAA.a(mesh_flash.c.obj)
 .bss           0x00000000        0x0 mesh/core/libmesh_core_nrf52840_xxAA.a(mesh_flash.c.obj)
 .text.mesh_flash_op_available_slots
                0x00000000       0x2c mesh/core/libmesh_core_nrf52840_xxAA.a(mesh_flash.c.obj)
 .text.mesh_flash_in_progress
                0x00000000       0x34 mesh/core/libmesh_core_nrf52840_xxAA.a(mesh_flash.c.obj)
 .text.mesh_flash_set_suspended
                0x00000000       0x90 mesh/core/libmesh_core_nrf52840_xxAA.a(mesh_flash.c.obj)
 .bss.suspend_count.10174
                0x00000000        0x4 mesh/core/libmesh_core_nrf52840_xxAA.a(mesh_flash.c.obj)
 .text          0x00000000        0x0 mesh/core/libmesh_core_nrf52840_xxAA.a(queue.c.obj)
 .data          0x00000000        0x0 mesh/core/libmesh_core_nrf52840_xxAA.a(queue.c.obj)
 .bss           0x00000000        0x0 mesh/core/libmesh_core_nrf52840_xxAA.a(queue.c.obj)
 .text          0x00000000        0x0 mesh/core/libmesh_core_nrf52840_xxAA.a(aes_cmac.c.obj)
 .data          0x00000000        0x0 mesh/core/libmesh_core_nrf52840_xxAA.a(aes_cmac.c.obj)
 .bss           0x00000000        0x0 mesh/core/libmesh_core_nrf52840_xxAA.a(aes_cmac.c.obj)
 .text          0x00000000        0x0 mesh/core/libmesh_core_nrf52840_xxAA.a(msqueue.c.obj)
 .data          0x00000000        0x0 mesh/core/libmesh_core_nrf52840_xxAA.a(msqueue.c.obj)
 .bss           0x00000000        0x0 mesh/core/libmesh_core_nrf52840_xxAA.a(msqueue.c.obj)
 .text.msq_reset
                0x00000000       0x34 mesh/core/libmesh_core_nrf52840_xxAA.a(msqueue.c.obj)
 .text          0x00000000        0x0 mesh/core/libmesh_core_nrf52840_xxAA.a(replay_cache.c.obj)
 .data          0x00000000        0x0 mesh/core/libmesh_core_nrf52840_xxAA.a(replay_cache.c.obj)
 .bss           0x00000000        0x0 mesh/core/libmesh_core_nrf52840_xxAA.a(replay_cache.c.obj)
 .text.replay_cache_on_iv_update
                0x00000000       0x2c mesh/core/libmesh_core_nrf52840_xxAA.a(replay_cache.c.obj)
 .text.replay_cache_clear
                0x00000000       0x28 mesh/core/libmesh_core_nrf52840_xxAA.a(replay_cache.c.obj)
 .text          0x00000000        0x0 mesh/core/libmesh_core_nrf52840_xxAA.a(filter_engine.c.obj)
 .data          0x00000000        0x0 mesh/core/libmesh_core_nrf52840_xxAA.a(filter_engine.c.obj)
 .bss           0x00000000        0x0 mesh/core/libmesh_core_nrf52840_xxAA.a(filter_engine.c.obj)
 .text.fen_filter_start
                0x00000000       0x84 mesh/core/libmesh_core_nrf52840_xxAA.a(filter_engine.c.obj)
 .text.fen_filter_stop
                0x00000000       0x70 mesh/core/libmesh_core_nrf52840_xxAA.a(filter_engine.c.obj)
 .text.fen_accepted_amount_get
                0x00000000        0xc mesh/core/libmesh_core_nrf52840_xxAA.a(filter_engine.c.obj)
 .text          0x00000000        0x0 mesh/core/libmesh_core_nrf52840_xxAA.a(nrf_flash.c.obj)
 .data          0x00000000        0x0 mesh/core/libmesh_core_nrf52840_xxAA.a(nrf_flash.c.obj)
 .bss           0x00000000        0x0 mesh/core/libmesh_core_nrf52840_xxAA.a(nrf_flash.c.obj)
 .text          0x00000000        0x0 external/rtt/librtt_nrf52840_xxAA.a(SEGGER_RTT.c.obj)
 .data          0x00000000        0x0 external/rtt/librtt_nrf52840_xxAA.a(SEGGER_RTT.c.obj)
 .bss           0x00000000        0x0 external/rtt/librtt_nrf52840_xxAA.a(SEGGER_RTT.c.obj)
 .text.SEGGER_RTT_ReadNoLock
                0x00000000      0x100 external/rtt/librtt_nrf52840_xxAA.a(SEGGER_RTT.c.obj)
 .text.SEGGER_RTT_Read
                0x00000000      0x114 external/rtt/librtt_nrf52840_xxAA.a(SEGGER_RTT.c.obj)
 .text.SEGGER_RTT_WriteSkipNoLock
                0x00000000      0x184 external/rtt/librtt_nrf52840_xxAA.a(SEGGER_RTT.c.obj)
 .text.SEGGER_RTT_WriteNoLock
                0x00000000      0x188 external/rtt/librtt_nrf52840_xxAA.a(SEGGER_RTT.c.obj)
 .text.SEGGER_RTT_WriteString
                0x00000000      0x20c external/rtt/librtt_nrf52840_xxAA.a(SEGGER_RTT.c.obj)
 .text.SEGGER_RTT_GetKey
                0x00000000       0xec external/rtt/librtt_nrf52840_xxAA.a(SEGGER_RTT.c.obj)
 .text.SEGGER_RTT_WaitKey
                0x00000000      0x114 external/rtt/librtt_nrf52840_xxAA.a(SEGGER_RTT.c.obj)
 .text.SEGGER_RTT_HasKey
                0x00000000       0x6c external/rtt/librtt_nrf52840_xxAA.a(SEGGER_RTT.c.obj)
 .text.SEGGER_RTT_HasData
                0x00000000       0x18 external/rtt/librtt_nrf52840_xxAA.a(SEGGER_RTT.c.obj)
 .text.SEGGER_RTT_AllocDownBuffer
                0x00000000       0xbc external/rtt/librtt_nrf52840_xxAA.a(SEGGER_RTT.c.obj)
 .text.SEGGER_RTT_AllocUpBuffer
                0x00000000       0xd8 external/rtt/librtt_nrf52840_xxAA.a(SEGGER_RTT.c.obj)
 .text.SEGGER_RTT_ConfigUpBuffer
                0x00000000       0xd0 external/rtt/librtt_nrf52840_xxAA.a(SEGGER_RTT.c.obj)
 .text.SEGGER_RTT_ConfigDownBuffer
                0x00000000       0xb8 external/rtt/librtt_nrf52840_xxAA.a(SEGGER_RTT.c.obj)
 .text.SEGGER_RTT_SetNameUpBuffer
                0x00000000       0x90 external/rtt/librtt_nrf52840_xxAA.a(SEGGER_RTT.c.obj)
 .text.SEGGER_RTT_SetNameDownBuffer
                0x00000000       0x90 external/rtt/librtt_nrf52840_xxAA.a(SEGGER_RTT.c.obj)
 .text.SEGGER_RTT_Init
                0x00000000       0x60 external/rtt/librtt_nrf52840_xxAA.a(SEGGER_RTT.c.obj)
 .text.SEGGER_RTT_SetTerminal
                0x00000000      0x15c external/rtt/librtt_nrf52840_xxAA.a(SEGGER_RTT.c.obj)
 .text.SEGGER_RTT_TerminalOut
                0x00000000      0x40c external/rtt/librtt_nrf52840_xxAA.a(SEGGER_RTT.c.obj)
 .bss._ActiveTerminal
                0x00000000        0x1 external/rtt/librtt_nrf52840_xxAA.a(SEGGER_RTT.c.obj)
 .rodata._aTerminalId
                0x00000000       0x10 external/rtt/librtt_nrf52840_xxAA.a(SEGGER_RTT.c.obj)
 .text          0x00000000        0x0 external/rtt/librtt_nrf52840_xxAA.a(SEGGER_RTT_printf.c.obj)
 .data          0x00000000        0x0 external/rtt/librtt_nrf52840_xxAA.a(SEGGER_RTT_printf.c.obj)
 .bss           0x00000000        0x0 external/rtt/librtt_nrf52840_xxAA.a(SEGGER_RTT_printf.c.obj)
 .text          0x00000000        0x0 external/micro-ecc/libuECC_nrf52840_xxAA.a(uECC.c.obj)
 .data          0x00000000        0x0 external/micro-ecc/libuECC_nrf52840_xxAA.a(uECC.c.obj)
 .bss           0x00000000        0x0 external/micro-ecc/libuECC_nrf52840_xxAA.a(uECC.c.obj)
 .text.HMAC_finish
                0x00000000       0x70 external/micro-ecc/libuECC_nrf52840_xxAA.a(uECC.c.obj)
 .text.uECC_vli_mmod
                0x00000000      0x3c8 external/micro-ecc/libuECC_nrf52840_xxAA.a(uECC.c.obj)
 .text.uECC_vli_modSub.isra.2
                0x00000000       0x98 external/micro-ecc/libuECC_nrf52840_xxAA.a(uECC.c.obj)
 .text.bits2int
                0x00000000      0x14c external/micro-ecc/libuECC_nrf52840_xxAA.a(uECC.c.obj)
 .text.uECC_sign_with_k
                0x00000000      0x60c external/micro-ecc/libuECC_nrf52840_xxAA.a(uECC.c.obj)
 .text.uECC_set_rng
                0x00000000        0xc external/micro-ecc/libuECC_nrf52840_xxAA.a(uECC.c.obj)
 .text.uECC_get_rng
                0x00000000        0xc external/micro-ecc/libuECC_nrf52840_xxAA.a(uECC.c.obj)
 .text.uECC_curve_private_key_size
                0x00000000       0x10 external/micro-ecc/libuECC_nrf52840_xxAA.a(uECC.c.obj)
 .text.uECC_curve_public_key_size
                0x00000000        0x8 external/micro-ecc/libuECC_nrf52840_xxAA.a(uECC.c.obj)
 .text.uECC_compute_public_key
                0x00000000      0x2e4 external/micro-ecc/libuECC_nrf52840_xxAA.a(uECC.c.obj)
 .text.uECC_sign
                0x00000000       0x60 external/micro-ecc/libuECC_nrf52840_xxAA.a(uECC.c.obj)
 .text.uECC_sign_deterministic
                0x00000000      0x400 external/micro-ecc/libuECC_nrf52840_xxAA.a(uECC.c.obj)
 .text.uECC_verify
                0x00000000      0x95c external/micro-ecc/libuECC_nrf52840_xxAA.a(uECC.c.obj)
 .text          0x00000000        0x0 c:/a/gcc_arm/6/bin/../lib/gcc/arm-none-eabi/6.3.1/../../../../arm-none-eabi/lib/thumb/v7e-m/fpv4-sp/hard\libc_nano.a(lib_a-exit.o)
 .data          0x00000000        0x0 c:/a/gcc_arm/6/bin/../lib/gcc/arm-none-eabi/6.3.1/../../../../arm-none-eabi/lib/thumb/v7e-m/fpv4-sp/hard\libc_nano.a(lib_a-exit.o)
 .bss           0x00000000        0x0 c:/a/gcc_arm/6/bin/../lib/gcc/arm-none-eabi/6.3.1/../../../../arm-none-eabi/lib/thumb/v7e-m/fpv4-sp/hard\libc_nano.a(lib_a-exit.o)
 .text          0x00000000        0x0 c:/a/gcc_arm/6/bin/../lib/gcc/arm-none-eabi/6.3.1/../../../../arm-none-eabi/lib/thumb/v7e-m/fpv4-sp/hard\libc_nano.a(lib_a-impure.o)
 .data          0x00000000        0x0 c:/a/gcc_arm/6/bin/../lib/gcc/arm-none-eabi/6.3.1/../../../../arm-none-eabi/lib/thumb/v7e-m/fpv4-sp/hard\libc_nano.a(lib_a-impure.o)
 .bss           0x00000000        0x0 c:/a/gcc_arm/6/bin/../lib/gcc/arm-none-eabi/6.3.1/../../../../arm-none-eabi/lib/thumb/v7e-m/fpv4-sp/hard\libc_nano.a(lib_a-impure.o)
 .text          0x00000000        0x0 c:/a/gcc_arm/6/bin/../lib/gcc/arm-none-eabi/6.3.1/../../../../arm-none-eabi/lib/thumb/v7e-m/fpv4-sp/hard\libc_nano.a(lib_a-init.o)
 .data          0x00000000        0x0 c:/a/gcc_arm/6/bin/../lib/gcc/arm-none-eabi/6.3.1/../../../../arm-none-eabi/lib/thumb/v7e-m/fpv4-sp/hard\libc_nano.a(lib_a-init.o)
 .bss           0x00000000        0x0 c:/a/gcc_arm/6/bin/../lib/gcc/arm-none-eabi/6.3.1/../../../../arm-none-eabi/lib/thumb/v7e-m/fpv4-sp/hard\libc_nano.a(lib_a-init.o)
 .text          0x00000000        0x0 c:/a/gcc_arm/6/bin/../lib/gcc/arm-none-eabi/6.3.1/../../../../arm-none-eabi/lib/thumb/v7e-m/fpv4-sp/hard\libc_nano.a(lib_a-malloc.o)
 .data          0x00000000        0x0 c:/a/gcc_arm/6/bin/../lib/gcc/arm-none-eabi/6.3.1/../../../../arm-none-eabi/lib/thumb/v7e-m/fpv4-sp/hard\libc_nano.a(lib_a-malloc.o)
 .bss           0x00000000        0x0 c:/a/gcc_arm/6/bin/../lib/gcc/arm-none-eabi/6.3.1/../../../../arm-none-eabi/lib/thumb/v7e-m/fpv4-sp/hard\libc_nano.a(lib_a-malloc.o)
 .text          0x00000000        0x0 c:/a/gcc_arm/6/bin/../lib/gcc/arm-none-eabi/6.3.1/../../../../arm-none-eabi/lib/thumb/v7e-m/fpv4-sp/hard\libc_nano.a(lib_a-memcmp.o)
 .data          0x00000000        0x0 c:/a/gcc_arm/6/bin/../lib/gcc/arm-none-eabi/6.3.1/../../../../arm-none-eabi/lib/thumb/v7e-m/fpv4-sp/hard\libc_nano.a(lib_a-memcmp.o)
 .bss           0x00000000        0x0 c:/a/gcc_arm/6/bin/../lib/gcc/arm-none-eabi/6.3.1/../../../../arm-none-eabi/lib/thumb/v7e-m/fpv4-sp/hard\libc_nano.a(lib_a-memcmp.o)
 .text          0x00000000        0x0 c:/a/gcc_arm/6/bin/../lib/gcc/arm-none-eabi/6.3.1/../../../../arm-none-eabi/lib/thumb/v7e-m/fpv4-sp/hard\libc_nano.a(lib_a-memcpy-stub.o)
 .data          0x00000000        0x0 c:/a/gcc_arm/6/bin/../lib/gcc/arm-none-eabi/6.3.1/../../../../arm-none-eabi/lib/thumb/v7e-m/fpv4-sp/hard\libc_nano.a(lib_a-memcpy-stub.o)
 .bss           0x00000000        0x0 c:/a/gcc_arm/6/bin/../lib/gcc/arm-none-eabi/6.3.1/../../../../arm-none-eabi/lib/thumb/v7e-m/fpv4-sp/hard\libc_nano.a(lib_a-memcpy-stub.o)
 .text          0x00000000        0x0 c:/a/gcc_arm/6/bin/../lib/gcc/arm-none-eabi/6.3.1/../../../../arm-none-eabi/lib/thumb/v7e-m/fpv4-sp/hard\libc_nano.a(lib_a-memset.o)
 .data          0x00000000        0x0 c:/a/gcc_arm/6/bin/../lib/gcc/arm-none-eabi/6.3.1/../../../../arm-none-eabi/lib/thumb/v7e-m/fpv4-sp/hard\libc_nano.a(lib_a-memset.o)
 .bss           0x00000000        0x0 c:/a/gcc_arm/6/bin/../lib/gcc/arm-none-eabi/6.3.1/../../../../arm-none-eabi/lib/thumb/v7e-m/fpv4-sp/hard\libc_nano.a(lib_a-memset.o)
 .text          0x00000000        0x0 c:/a/gcc_arm/6/bin/../lib/gcc/arm-none-eabi/6.3.1/../../../../arm-none-eabi/lib/thumb/v7e-m/fpv4-sp/hard\libc_nano.a(lib_a-nano-freer.o)
 .data          0x00000000        0x0 c:/a/gcc_arm/6/bin/../lib/gcc/arm-none-eabi/6.3.1/../../../../arm-none-eabi/lib/thumb/v7e-m/fpv4-sp/hard\libc_nano.a(lib_a-nano-freer.o)
 .bss           0x00000000        0x0 c:/a/gcc_arm/6/bin/../lib/gcc/arm-none-eabi/6.3.1/../../../../arm-none-eabi/lib/thumb/v7e-m/fpv4-sp/hard\libc_nano.a(lib_a-nano-freer.o)
 .text          0x00000000        0x0 c:/a/gcc_arm/6/bin/../lib/gcc/arm-none-eabi/6.3.1/../../../../arm-none-eabi/lib/thumb/v7e-m/fpv4-sp/hard\libc_nano.a(lib_a-nano-mallocr.o)
 .data          0x00000000        0x0 c:/a/gcc_arm/6/bin/../lib/gcc/arm-none-eabi/6.3.1/../../../../arm-none-eabi/lib/thumb/v7e-m/fpv4-sp/hard\libc_nano.a(lib_a-nano-mallocr.o)
 .bss           0x00000000        0x0 c:/a/gcc_arm/6/bin/../lib/gcc/arm-none-eabi/6.3.1/../../../../arm-none-eabi/lib/thumb/v7e-m/fpv4-sp/hard\libc_nano.a(lib_a-nano-mallocr.o)
 .text          0x00000000        0x0 c:/a/gcc_arm/6/bin/../lib/gcc/arm-none-eabi/6.3.1/../../../../arm-none-eabi/lib/thumb/v7e-m/fpv4-sp/hard\libc_nano.a(lib_a-sbrkr.o)
 .data          0x00000000        0x0 c:/a/gcc_arm/6/bin/../lib/gcc/arm-none-eabi/6.3.1/../../../../arm-none-eabi/lib/thumb/v7e-m/fpv4-sp/hard\libc_nano.a(lib_a-sbrkr.o)
 .bss           0x00000000        0x0 c:/a/gcc_arm/6/bin/../lib/gcc/arm-none-eabi/6.3.1/../../../../arm-none-eabi/lib/thumb/v7e-m/fpv4-sp/hard\libc_nano.a(lib_a-sbrkr.o)
 .text          0x00000000        0x0 c:/a/gcc_arm/6/bin/../lib/gcc/arm-none-eabi/6.3.1/../../../../arm-none-eabi/lib/thumb/v7e-m/fpv4-sp/hard\libc_nano.a(lib_a-strcpy.o)
 .data          0x00000000        0x0 c:/a/gcc_arm/6/bin/../lib/gcc/arm-none-eabi/6.3.1/../../../../arm-none-eabi/lib/thumb/v7e-m/fpv4-sp/hard\libc_nano.a(lib_a-strcpy.o)
 .bss           0x00000000        0x0 c:/a/gcc_arm/6/bin/../lib/gcc/arm-none-eabi/6.3.1/../../../../arm-none-eabi/lib/thumb/v7e-m/fpv4-sp/hard\libc_nano.a(lib_a-strcpy.o)
 .data          0x00000000        0x0 c:/a/gcc_arm/6/bin/../lib/gcc/arm-none-eabi/6.3.1/../../../../arm-none-eabi/lib/thumb/v7e-m/fpv4-sp/hard\libc_nano.a(lib_a-strlen.o)
 .bss           0x00000000        0x0 c:/a/gcc_arm/6/bin/../lib/gcc/arm-none-eabi/6.3.1/../../../../arm-none-eabi/lib/thumb/v7e-m/fpv4-sp/hard\libc_nano.a(lib_a-strlen.o)
 .text          0x00000000        0x0 c:/a/gcc_arm/6/bin/../lib/gcc/arm-none-eabi/6.3.1/../../../../arm-none-eabi/lib/thumb/v7e-m/fpv4-sp/hard\libc_nano.a(lib_a-strrchr.o)
 .data          0x00000000        0x0 c:/a/gcc_arm/6/bin/../lib/gcc/arm-none-eabi/6.3.1/../../../../arm-none-eabi/lib/thumb/v7e-m/fpv4-sp/hard\libc_nano.a(lib_a-strrchr.o)
 .bss           0x00000000        0x0 c:/a/gcc_arm/6/bin/../lib/gcc/arm-none-eabi/6.3.1/../../../../arm-none-eabi/lib/thumb/v7e-m/fpv4-sp/hard\libc_nano.a(lib_a-strrchr.o)
 .text          0x00000000        0x0 c:/a/gcc_arm/6/bin/../lib/gcc/arm-none-eabi/6.3.1/../../../../arm-none-eabi/lib/thumb/v7e-m/fpv4-sp/hard\libc_nano.a(lib_a-mlock.o)
 .data          0x00000000        0x0 c:/a/gcc_arm/6/bin/../lib/gcc/arm-none-eabi/6.3.1/../../../../arm-none-eabi/lib/thumb/v7e-m/fpv4-sp/hard\libc_nano.a(lib_a-mlock.o)
 .bss           0x00000000        0x0 c:/a/gcc_arm/6/bin/../lib/gcc/arm-none-eabi/6.3.1/../../../../arm-none-eabi/lib/thumb/v7e-m/fpv4-sp/hard\libc_nano.a(lib_a-mlock.o)
 .text          0x00000000        0x0 c:/a/gcc_arm/6/bin/../lib/gcc/arm-none-eabi/6.3.1/../../../../arm-none-eabi/lib/thumb/v7e-m/fpv4-sp/hard\libc_nano.a(lib_a-reent.o)
 .data          0x00000000        0x0 c:/a/gcc_arm/6/bin/../lib/gcc/arm-none-eabi/6.3.1/../../../../arm-none-eabi/lib/thumb/v7e-m/fpv4-sp/hard\libc_nano.a(lib_a-reent.o)
 .bss           0x00000000        0x0 c:/a/gcc_arm/6/bin/../lib/gcc/arm-none-eabi/6.3.1/../../../../arm-none-eabi/lib/thumb/v7e-m/fpv4-sp/hard\libc_nano.a(lib_a-reent.o)
 .text.cleanup_glue
                0x00000000       0x1a c:/a/gcc_arm/6/bin/../lib/gcc/arm-none-eabi/6.3.1/../../../../arm-none-eabi/lib/thumb/v7e-m/fpv4-sp/hard\libc_nano.a(lib_a-reent.o)
 .text._reclaim_reent
                0x00000000       0xb8 c:/a/gcc_arm/6/bin/../lib/gcc/arm-none-eabi/6.3.1/../../../../arm-none-eabi/lib/thumb/v7e-m/fpv4-sp/hard\libc_nano.a(lib_a-reent.o)
 .text          0x00000000        0x0 c:/a/gcc_arm/6/bin/../lib/gcc/arm-none-eabi/6.3.1/../../../../arm-none-eabi/lib/thumb/v7e-m/fpv4-sp/hard\libc_nano.a(lib_a-strchr.o)
 .data          0x00000000        0x0 c:/a/gcc_arm/6/bin/../lib/gcc/arm-none-eabi/6.3.1/../../../../arm-none-eabi/lib/thumb/v7e-m/fpv4-sp/hard\libc_nano.a(lib_a-strchr.o)
 .bss           0x00000000        0x0 c:/a/gcc_arm/6/bin/../lib/gcc/arm-none-eabi/6.3.1/../../../../arm-none-eabi/lib/thumb/v7e-m/fpv4-sp/hard\libc_nano.a(lib_a-strchr.o)
 .text          0x00000000        0x0 c:/a/gcc_arm/6/bin/../lib/gcc/arm-none-eabi/6.3.1/thumb/v7e-m/fpv4-sp/hard/crtend.o
 .data          0x00000000        0x0 c:/a/gcc_arm/6/bin/../lib/gcc/arm-none-eabi/6.3.1/thumb/v7e-m/fpv4-sp/hard/crtend.o
 .bss           0x00000000        0x0 c:/a/gcc_arm/6/bin/../lib/gcc/arm-none-eabi/6.3.1/thumb/v7e-m/fpv4-sp/hard/crtend.o
 .text          0x00000000        0x0 c:/a/gcc_arm/6/bin/../lib/gcc/arm-none-eabi/6.3.1/thumb/v7e-m/fpv4-sp/hard/crtn.o
 .data          0x00000000        0x0 c:/a/gcc_arm/6/bin/../lib/gcc/arm-none-eabi/6.3.1/thumb/v7e-m/fpv4-sp/hard/crtn.o
 .bss           0x00000000        0x0 c:/a/gcc_arm/6/bin/../lib/gcc/arm-none-eabi/6.3.1/thumb/v7e-m/fpv4-sp/hard/crtn.o
 .text          0x00000000        0x0 c:/a/gcc_arm/6/bin/../lib/gcc/arm-none-eabi/6.3.1/../../../../arm-none-eabi/lib/thumb/v7e-m/fpv4-sp/hard\libnosys.a(sbrk.o)
 .data          0x00000000        0x0 c:/a/gcc_arm/6/bin/../lib/gcc/arm-none-eabi/6.3.1/../../../../arm-none-eabi/lib/thumb/v7e-m/fpv4-sp/hard\libnosys.a(sbrk.o)
 .bss           0x00000000        0x0 c:/a/gcc_arm/6/bin/../lib/gcc/arm-none-eabi/6.3.1/../../../../arm-none-eabi/lib/thumb/v7e-m/fpv4-sp/hard\libnosys.a(sbrk.o)
 .text          0x00000000        0x0 c:/a/gcc_arm/6/bin/../lib/gcc/arm-none-eabi/6.3.1/../../../../arm-none-eabi/lib/thumb/v7e-m/fpv4-sp/hard\libnosys.a(_exit.o)
 .data          0x00000000        0x0 c:/a/gcc_arm/6/bin/../lib/gcc/arm-none-eabi/6.3.1/../../../../arm-none-eabi/lib/thumb/v7e-m/fpv4-sp/hard\libnosys.a(_exit.o)
 .bss           0x00000000        0x0 c:/a/gcc_arm/6/bin/../lib/gcc/arm-none-eabi/6.3.1/../../../../arm-none-eabi/lib/thumb/v7e-m/fpv4-sp/hard\libnosys.a(_exit.o)

Memory Configuration

Name             Origin             Length             Attributes
FLASH            0x00024000         0x000dc000         xr
RAM              0x200031b8         0x0003be4a         xrw
*default*        0x00000000         0xffffffff

Linker script and memory map

LOAD c:/a/gcc_arm/6/bin/../lib/gcc/arm-none-eabi/6.3.1/thumb/v7e-m/fpv4-sp/hard/crti.o
LOAD c:/a/gcc_arm/6/bin/../lib/gcc/arm-none-eabi/6.3.1/thumb/v7e-m/fpv4-sp/hard/crtbegin.o
LOAD c:/a/gcc_arm/6/bin/../lib/gcc/arm-none-eabi/6.3.1/../../../../arm-none-eabi/lib/thumb/v7e-m/fpv4-sp/hard/crt0.o
LOAD examples/light_switch/server/CMakeFiles/light_switch_server_nrf52840_xxAA_s140_5.0.0-3.alpha.dir/src/main.c.obj
LOAD examples/light_switch/server/CMakeFiles/light_switch_server_nrf52840_xxAA_s140_5.0.0-3.alpha.dir/__/__/nrf_mesh_sdk.c.obj
LOAD examples/light_switch/server/CMakeFiles/light_switch_server_nrf52840_xxAA_s140_5.0.0-3.alpha.dir/__/__/hal/src/simple_hal.c.obj
LOAD examples/light_switch/server/CMakeFiles/light_switch_server_nrf52840_xxAA_s140_5.0.0-3.alpha.dir/__/__/nrf_mesh_weak.c.obj
LOAD examples/light_switch/server/CMakeFiles/light_switch_server_nrf52840_xxAA_s140_5.0.0-3.alpha.dir/__/__/__/models/simple_on_off/src/simple_on_off_server.c.obj
LOAD examples/light_switch/server/CMakeFiles/light_switch_server_nrf52840_xxAA_s140_5.0.0-3.alpha.dir/__/__/__/models/config/src/composition_data.c.obj
LOAD examples/light_switch/server/CMakeFiles/light_switch_server_nrf52840_xxAA_s140_5.0.0-3.alpha.dir/__/__/__/models/config/src/config_server.c.obj
LOAD examples/light_switch/server/CMakeFiles/light_switch_server_nrf52840_xxAA_s140_5.0.0-3.alpha.dir/__/__/__/models/config/src/packed_index_list.c.obj
LOAD examples/light_switch/server/CMakeFiles/light_switch_server_nrf52840_xxAA_s140_5.0.0-3.alpha.dir/__/__/__/models/health/src/health_server.c.obj
LOAD examples/light_switch/server/CMakeFiles/light_switch_server_nrf52840_xxAA_s140_5.0.0-3.alpha.dir/__/__/__/mesh/access/src/access_publish.c.obj
LOAD examples/light_switch/server/CMakeFiles/light_switch_server_nrf52840_xxAA_s140_5.0.0-3.alpha.dir/__/__/__/mesh/access/src/access.c.obj
LOAD examples/light_switch/server/CMakeFiles/light_switch_server_nrf52840_xxAA_s140_5.0.0-3.alpha.dir/__/__/__/mesh/access/src/access_reliable.c.obj
LOAD examples/light_switch/server/CMakeFiles/light_switch_server_nrf52840_xxAA_s140_5.0.0-3.alpha.dir/__/__/__/mesh/access/src/device_state_manager.c.obj
LOAD examples/light_switch/server/CMakeFiles/light_switch_server_nrf52840_xxAA_s140_5.0.0-3.alpha.dir/__/__/__/mesh/prov/src/prov_provisionee.c.obj
LOAD examples/light_switch/server/CMakeFiles/light_switch_server_nrf52840_xxAA_s140_5.0.0-3.alpha.dir/__/__/__/mesh/prov/src/nrf_mesh_prov.c.obj
LOAD examples/light_switch/server/CMakeFiles/light_switch_server_nrf52840_xxAA_s140_5.0.0-3.alpha.dir/__/__/__/mesh/prov/src/provisioning.c.obj
LOAD examples/light_switch/server/CMakeFiles/light_switch_server_nrf52840_xxAA_s140_5.0.0-3.alpha.dir/__/__/__/mesh/prov/src/prov_beacon.c.obj
LOAD examples/light_switch/server/CMakeFiles/light_switch_server_nrf52840_xxAA_s140_5.0.0-3.alpha.dir/__/__/__/mesh/prov/src/prov_utils.c.obj
LOAD examples/light_switch/server/CMakeFiles/light_switch_server_nrf52840_xxAA_s140_5.0.0-3.alpha.dir/__/__/__/mesh/prov/src/prov_bearer_adv.c.obj
LOAD examples/light_switch/server/CMakeFiles/light_switch_server_nrf52840_xxAA_s140_5.0.0-3.alpha.dir/__/__/__/mesh/access/src/nrf_mesh_node_config.c.obj
LOAD examples/light_switch/server/CMakeFiles/light_switch_server_nrf52840_xxAA_s140_5.0.0-3.alpha.dir/__/__/__/external/nRF5_SDK_14.0.0_3bcc1f7/components/toolchain/system_nrf52840.c.obj
LOAD examples/light_switch/server/CMakeFiles/light_switch_server_nrf52840_xxAA_s140_5.0.0-3.alpha.dir/__/__/__/external/nRF5_SDK_14.0.0_3bcc1f7/components/toolchain/gcc/gcc_startup_nrf52840.S.obj
LOAD mesh/core/libmesh_core_nrf52840_xxAA.a
LOAD external/rtt/librtt_nrf52840_xxAA.a
LOAD external/micro-ecc/libuECC_nrf52840_xxAA.a
START GROUP
LOAD c:/a/gcc_arm/6/bin/../lib/gcc/arm-none-eabi/6.3.1/thumb/v7e-m/fpv4-sp/hard\libgcc.a
LOAD c:/a/gcc_arm/6/bin/../lib/gcc/arm-none-eabi/6.3.1/../../../../arm-none-eabi/lib/thumb/v7e-m/fpv4-sp/hard\libc_nano.a
END GROUP
START GROUP
LOAD c:/a/gcc_arm/6/bin/../lib/gcc/arm-none-eabi/6.3.1/thumb/v7e-m/fpv4-sp/hard\libgcc.a
LOAD c:/a/gcc_arm/6/bin/../lib/gcc/arm-none-eabi/6.3.1/../../../../arm-none-eabi/lib/thumb/v7e-m/fpv4-sp/hard\libc_nano.a
END GROUP
LOAD c:/a/gcc_arm/6/bin/../lib/gcc/arm-none-eabi/6.3.1/thumb/v7e-m/fpv4-sp/hard/crtend.o
LOAD c:/a/gcc_arm/6/bin/../lib/gcc/arm-none-eabi/6.3.1/thumb/v7e-m/fpv4-sp/hard/crtn.o
START GROUP
LOAD c:/a/gcc_arm/6/bin/../lib/gcc/arm-none-eabi/6.3.1/thumb/v7e-m/fpv4-sp/hard\libgcc.a
LOAD c:/a/gcc_arm/6/bin/../lib/gcc/arm-none-eabi/6.3.1/../../../../arm-none-eabi/lib/thumb/v7e-m/fpv4-sp/hard\libc.a
LOAD c:/a/gcc_arm/6/bin/../lib/gcc/arm-none-eabi/6.3.1/../../../../arm-none-eabi/lib/thumb/v7e-m/fpv4-sp/hard\libnosys.a
END GROUP

.text           0x00024000    0x1992c
 *(.isr_vector)
 .isr_vector    0x00024000      0x200 examples/light_switch/server/CMakeFiles/light_switch_server_nrf52840_xxAA_s140_5.0.0-3.alpha.dir/__/__/__/external/nRF5_SDK_14.0.0_3bcc1f7/components/toolchain/gcc/gcc_startup_nrf52840.S.obj
                0x00024000                __isr_vector
 *(.text*)
 .text          0x00024200       0x6c c:/a/gcc_arm/6/bin/../lib/gcc/arm-none-eabi/6.3.1/thumb/v7e-m/fpv4-sp/hard/crtbegin.o
 .text          0x0002426c       0x74 c:/a/gcc_arm/6/bin/../lib/gcc/arm-none-eabi/6.3.1/../../../../arm-none-eabi/lib/thumb/v7e-m/fpv4-sp/hard/crt0.o
                0x0002426c                _start
                0x0002426c                _mainCRTStartup
 .text.configuration_setup
                0x000242e0       0xb4 examples/light_switch/server/CMakeFiles/light_switch_server_nrf52840_xxAA_s140_5.0.0-3.alpha.dir/src/main.c.obj
 .text.set_cb   0x00024394       0x7c examples/light_switch/server/CMakeFiles/light_switch_server_nrf52840_xxAA_s140_5.0.0-3.alpha.dir/src/main.c.obj
 .text.get_cb   0x00024410        0x8 examples/light_switch/server/CMakeFiles/light_switch_server_nrf52840_xxAA_s140_5.0.0-3.alpha.dir/src/main.c.obj
 .text.configuration_complete
                0x00024418       0x88 examples/light_switch/server/CMakeFiles/light_switch_server_nrf52840_xxAA_s140_5.0.0-3.alpha.dir/src/main.c.obj
 .text.startup.main
                0x000244a0       0xc8 examples/light_switch/server/CMakeFiles/light_switch_server_nrf52840_xxAA_s140_5.0.0-3.alpha.dir/src/main.c.obj
                0x000244a0                main
 .text.sd_evt_get
                0x00024568        0x4 examples/light_switch/server/CMakeFiles/light_switch_server_nrf52840_xxAA_s140_5.0.0-3.alpha.dir/__/__/nrf_mesh_sdk.c.obj
 .text.sd_ble_evt_get
                0x0002456c        0x4 examples/light_switch/server/CMakeFiles/light_switch_server_nrf52840_xxAA_s140_5.0.0-3.alpha.dir/__/__/nrf_mesh_sdk.c.obj
 .text.app_error_handler
                0x00024570       0x88 examples/light_switch/server/CMakeFiles/light_switch_server_nrf52840_xxAA_s140_5.0.0-3.alpha.dir/__/__/nrf_mesh_sdk.c.obj
                0x00024570                app_error_handler
 .text.HardFault_Handler
                0x000245f8       0x78 examples/light_switch/server/CMakeFiles/light_switch_server_nrf52840_xxAA_s140_5.0.0-3.alpha.dir/__/__/nrf_mesh_sdk.c.obj
                0x000245f8                HardFault_Handler
 .text.SWI2_EGU2_IRQHandler
                0x00024670       0x40 examples/light_switch/server/CMakeFiles/light_switch_server_nrf52840_xxAA_s140_5.0.0-3.alpha.dir/__/__/nrf_mesh_sdk.c.obj
                0x00024670                SWI2_EGU2_IRQHandler
 .text.hal_led_pin_get
                0x000246b0       0x18 examples/light_switch/server/CMakeFiles/light_switch_server_nrf52840_xxAA_s140_5.0.0-3.alpha.dir/__/__/hal/src/simple_hal.c.obj
                0x000246b0                hal_led_pin_get
 .text.hal_led_pin_set
                0x000246c8       0x18 examples/light_switch/server/CMakeFiles/light_switch_server_nrf52840_xxAA_s140_5.0.0-3.alpha.dir/__/__/hal/src/simple_hal.c.obj
                0x000246c8                hal_led_pin_set
 .text.hal_led_mask_set
                0x000246e0       0x14 examples/light_switch/server/CMakeFiles/light_switch_server_nrf52840_xxAA_s140_5.0.0-3.alpha.dir/__/__/hal/src/simple_hal.c.obj
                0x000246e0                hal_led_mask_set
 .text.hal_led_blink_ms
                0x000246f4       0xb8 examples/light_switch/server/CMakeFiles/light_switch_server_nrf52840_xxAA_s140_5.0.0-3.alpha.dir/__/__/hal/src/simple_hal.c.obj
                0x000246f4                hal_led_blink_ms
 .text.hal_leds_init
                0x000247ac       0x3c examples/light_switch/server/CMakeFiles/light_switch_server_nrf52840_xxAA_s140_5.0.0-3.alpha.dir/__/__/hal/src/simple_hal.c.obj
                0x000247ac                hal_leds_init
 .text.GPIOTE_IRQHandler
                0x000247e8      0x114 examples/light_switch/server/CMakeFiles/light_switch_server_nrf52840_xxAA_s140_5.0.0-3.alpha.dir/__/__/hal/src/simple_hal.c.obj
                0x000247e8                GPIOTE_IRQHandler
 .text._weak_handler
                0x000248fc        0x4 examples/light_switch/server/CMakeFiles/light_switch_server_nrf52840_xxAA_s140_5.0.0-3.alpha.dir/__/__/nrf_mesh_weak.c.obj
                0x000248fc                nrf_mesh_dfu_init
                0x000248fc                nrf_mesh_dfu_jump_to_bootloader
                0x000248fc                nrf_mesh_dfu_rx
                0x000248fc                prov_provisioner_provision
                0x000248fc                nrf_mesh_dfu_bank_info_get
                0x000248fc                prov_provisioner_oob_pubkey
                0x000248fc                nrf_mesh_dfu_request
                0x000248fc                nrf_mesh_dfu_bank_flash
                0x000248fc                _weak_handler
                0x000248fc                nrf_mesh_dfu_relay
                0x000248fc                nrf_mesh_dfu_abort
                0x000248fc                mesh_flash_op_execute
                0x000248fc                nrf_mesh_dfu_state_get
                0x000248fc                prov_provisioner_shared_secret
                0x000248fc                prov_provisioner_auth_data
                0x000248fc                prov_provisioner_oob_use
 .text.handle_set_unreliable_cb
                0x00024900       0x58 examples/light_switch/server/CMakeFiles/light_switch_server_nrf52840_xxAA_s140_5.0.0-3.alpha.dir/__/__/__/models/simple_on_off/src/simple_on_off_server.c.obj
 .text.handle_get_cb
                0x00024958       0x4c examples/light_switch/server/CMakeFiles/light_switch_server_nrf52840_xxAA_s140_5.0.0-3.alpha.dir/__/__/__/models/simple_on_off/src/simple_on_off_server.c.obj
 .text.handle_set_cb
                0x000249a4       0x6c examples/light_switch/server/CMakeFiles/light_switch_server_nrf52840_xxAA_s140_5.0.0-3.alpha.dir/__/__/__/models/simple_on_off/src/simple_on_off_server.c.obj
 .text.simple_on_off_server_init
                0x00024a10       0x44 examples/light_switch/server/CMakeFiles/light_switch_server_nrf52840_xxAA_s140_5.0.0-3.alpha.dir/__/__/__/models/simple_on_off/src/simple_on_off_server.c.obj
                0x00024a10                simple_on_off_server_init
 .text.config_composition_data_get
                0x00024a54      0x1cc examples/light_switch/server/CMakeFiles/light_switch_server_nrf52840_xxAA_s140_5.0.0-3.alpha.dir/__/__/__/models/config/src/composition_data.c.obj
                0x00024a54                config_composition_data_get
 .text.send_generic_error_reply
                0x00024c20       0x4c examples/light_switch/server/CMakeFiles/light_switch_server_nrf52840_xxAA_s140_5.0.0-3.alpha.dir/__/__/__/models/config/src/config_server.c.obj
 .text.handle_node_reset
                0x00024c6c       0x28 examples/light_switch/server/CMakeFiles/light_switch_server_nrf52840_xxAA_s140_5.0.0-3.alpha.dir/__/__/__/models/config/src/config_server.c.obj
 .text.handle_heartbeat_subscription_set
                0x00024c94       0x30 examples/light_switch/server/CMakeFiles/light_switch_server_nrf52840_xxAA_s140_5.0.0-3.alpha.dir/__/__/__/models/config/src/config_server.c.obj
 .text.handle_heartbeat_publication_set
                0x00024cc4       0x30 examples/light_switch/server/CMakeFiles/light_switch_server_nrf52840_xxAA_s140_5.0.0-3.alpha.dir/__/__/__/models/config/src/config_server.c.obj
 .text.handle_netkey_get
                0x00024cf4       0x68 examples/light_switch/server/CMakeFiles/light_switch_server_nrf52840_xxAA_s140_5.0.0-3.alpha.dir/__/__/__/models/config/src/config_server.c.obj
 .text.handle_config_relay_set
                0x00024d5c       0xf8 examples/light_switch/server/CMakeFiles/light_switch_server_nrf52840_xxAA_s140_5.0.0-3.alpha.dir/__/__/__/models/config/src/config_server.c.obj
 .text.delete_all_subscriptions
                0x00024e54       0x9c examples/light_switch/server/CMakeFiles/light_switch_server_nrf52840_xxAA_s140_5.0.0-3.alpha.dir/__/__/__/models/config/src/config_server.c.obj
 .text.send_publication_status
                0x00024ef0      0x1a0 examples/light_switch/server/CMakeFiles/light_switch_server_nrf52840_xxAA_s140_5.0.0-3.alpha.dir/__/__/__/models/config/src/config_server.c.obj
 .text.handle_config_default_ttl_getset
                0x00025090       0x5c examples/light_switch/server/CMakeFiles/light_switch_server_nrf52840_xxAA_s140_5.0.0-3.alpha.dir/__/__/__/models/config/src/config_server.c.obj
 .text.handle_composition_data_get
                0x000250ec       0x5c examples/light_switch/server/CMakeFiles/light_switch_server_nrf52840_xxAA_s140_5.0.0-3.alpha.dir/__/__/__/models/config/src/config_server.c.obj
 .text.handle_node_identity_set
                0x00025148       0x40 examples/light_switch/server/CMakeFiles/light_switch_server_nrf52840_xxAA_s140_5.0.0-3.alpha.dir/__/__/__/models/config/src/config_server.c.obj
 .text.handle_node_identity_get
                0x00025188       0x3c examples/light_switch/server/CMakeFiles/light_switch_server_nrf52840_xxAA_s140_5.0.0-3.alpha.dir/__/__/__/models/config/src/config_server.c.obj
 .text.handle_config_gatt_proxy_set
                0x000251c4       0x2c examples/light_switch/server/CMakeFiles/light_switch_server_nrf52840_xxAA_s140_5.0.0-3.alpha.dir/__/__/__/models/config/src/config_server.c.obj
 .text.handle_config_friend_set
                0x000251f0       0x2c examples/light_switch/server/CMakeFiles/light_switch_server_nrf52840_xxAA_s140_5.0.0-3.alpha.dir/__/__/__/models/config/src/config_server.c.obj
 .text.handle_config_beacon_set
                0x0002521c       0x50 examples/light_switch/server/CMakeFiles/light_switch_server_nrf52840_xxAA_s140_5.0.0-3.alpha.dir/__/__/__/models/config/src/config_server.c.obj
 .text.handle_config_friend_get
                0x0002526c       0x2c examples/light_switch/server/CMakeFiles/light_switch_server_nrf52840_xxAA_s140_5.0.0-3.alpha.dir/__/__/__/models/config/src/config_server.c.obj
 .text.handle_config_gatt_proxy_get
                0x00025298       0x2c examples/light_switch/server/CMakeFiles/light_switch_server_nrf52840_xxAA_s140_5.0.0-3.alpha.dir/__/__/__/models/config/src/config_server.c.obj
 .text.handle_config_beacon_get
                0x000252c4       0x3c examples/light_switch/server/CMakeFiles/light_switch_server_nrf52840_xxAA_s140_5.0.0-3.alpha.dir/__/__/__/models/config/src/config_server.c.obj
 .text.handle_heartbeat_subscription_get
                0x00025300       0x30 examples/light_switch/server/CMakeFiles/light_switch_server_nrf52840_xxAA_s140_5.0.0-3.alpha.dir/__/__/__/models/config/src/config_server.c.obj
 .text.handle_heartbeat_publication_get
                0x00025330       0x30 examples/light_switch/server/CMakeFiles/light_switch_server_nrf52840_xxAA_s140_5.0.0-3.alpha.dir/__/__/__/models/config/src/config_server.c.obj
 .text.handle_config_relay_get
                0x00025360       0x90 examples/light_switch/server/CMakeFiles/light_switch_server_nrf52840_xxAA_s140_5.0.0-3.alpha.dir/__/__/__/models/config/src/config_server.c.obj
 .text.handle_appkey_add_update
                0x000253f0       0xf8 examples/light_switch/server/CMakeFiles/light_switch_server_nrf52840_xxAA_s140_5.0.0-3.alpha.dir/__/__/__/models/config/src/config_server.c.obj
 .text.handle_config_model_publication_get
                0x000254e8       0xd4 examples/light_switch/server/CMakeFiles/light_switch_server_nrf52840_xxAA_s140_5.0.0-3.alpha.dir/__/__/__/models/config/src/config_server.c.obj
 .text.handle_netkey_add_update
                0x000255bc       0xac examples/light_switch/server/CMakeFiles/light_switch_server_nrf52840_xxAA_s140_5.0.0-3.alpha.dir/__/__/__/models/config/src/config_server.c.obj
 .text.handle_appkey_delete
                0x00025668       0xc0 examples/light_switch/server/CMakeFiles/light_switch_server_nrf52840_xxAA_s140_5.0.0-3.alpha.dir/__/__/__/models/config/src/config_server.c.obj
 .text.handle_model_app_bind_unbind
                0x00025728      0x134 examples/light_switch/server/CMakeFiles/light_switch_server_nrf52840_xxAA_s140_5.0.0-3.alpha.dir/__/__/__/models/config/src/config_server.c.obj
 .text.handle_appkey_get
                0x0002585c       0xdc examples/light_switch/server/CMakeFiles/light_switch_server_nrf52840_xxAA_s140_5.0.0-3.alpha.dir/__/__/__/models/config/src/config_server.c.obj
 .text.handle_model_app_get
                0x00025938      0x1ec examples/light_switch/server/CMakeFiles/light_switch_server_nrf52840_xxAA_s140_5.0.0-3.alpha.dir/__/__/__/models/config/src/config_server.c.obj
 .text.handle_config_model_subscription_delete_all
                0x00025b24      0x14c examples/light_switch/server/CMakeFiles/light_switch_server_nrf52840_xxAA_s140_5.0.0-3.alpha.dir/__/__/__/models/config/src/config_server.c.obj
 .text.handle_netkey_delete
                0x00025c70       0xa8 examples/light_switch/server/CMakeFiles/light_switch_server_nrf52840_xxAA_s140_5.0.0-3.alpha.dir/__/__/__/models/config/src/config_server.c.obj
 .text.handle_config_sig_model_subscription_get
                0x00025d18      0x140 examples/light_switch/server/CMakeFiles/light_switch_server_nrf52840_xxAA_s140_5.0.0-3.alpha.dir/__/__/__/models/config/src/config_server.c.obj
 .text.handle_config_vendor_model_subscription_get
                0x00025e58      0x138 examples/light_switch/server/CMakeFiles/light_switch_server_nrf52840_xxAA_s140_5.0.0-3.alpha.dir/__/__/__/models/config/src/config_server.c.obj
 .text.handle_config_model_subscription_virtual_address_delete
                0x00025f90      0x1d8 examples/light_switch/server/CMakeFiles/light_switch_server_nrf52840_xxAA_s140_5.0.0-3.alpha.dir/__/__/__/models/config/src/config_server.c.obj
 .text.handle_config_model_subscription_overwrite
                0x00026168      0x238 examples/light_switch/server/CMakeFiles/light_switch_server_nrf52840_xxAA_s140_5.0.0-3.alpha.dir/__/__/__/models/config/src/config_server.c.obj
 .text.handle_config_model_subscription_virtual_address_add
                0x000263a0      0x1f4 examples/light_switch/server/CMakeFiles/light_switch_server_nrf52840_xxAA_s140_5.0.0-3.alpha.dir/__/__/__/models/config/src/config_server.c.obj
 .text.handle_config_model_publication_set
                0x00026594      0x2ac examples/light_switch/server/CMakeFiles/light_switch_server_nrf52840_xxAA_s140_5.0.0-3.alpha.dir/__/__/__/models/config/src/config_server.c.obj
 .text.handle_config_model_subscription_virtual_address_overwrite
                0x00026840      0x254 examples/light_switch/server/CMakeFiles/light_switch_server_nrf52840_xxAA_s140_5.0.0-3.alpha.dir/__/__/__/models/config/src/config_server.c.obj
 .text.handle_config_model_subscription_add
                0x00026a94      0x1ec examples/light_switch/server/CMakeFiles/light_switch_server_nrf52840_xxAA_s140_5.0.0-3.alpha.dir/__/__/__/models/config/src/config_server.c.obj
 .text.handle_config_model_subscription_delete
                0x00026c80      0x1f4 examples/light_switch/server/CMakeFiles/light_switch_server_nrf52840_xxAA_s140_5.0.0-3.alpha.dir/__/__/__/models/config/src/config_server.c.obj
 .text.config_server_init
                0x00026e74       0x50 examples/light_switch/server/CMakeFiles/light_switch_server_nrf52840_xxAA_s140_5.0.0-3.alpha.dir/__/__/__/models/config/src/config_server.c.obj
                0x00026e74                config_server_init
 .text.config_server_bind
                0x00026ec4       0x10 examples/light_switch/server/CMakeFiles/light_switch_server_nrf52840_xxAA_s140_5.0.0-3.alpha.dir/__/__/__/models/config/src/config_server.c.obj
                0x00026ec4                config_server_bind
 .text.packed_index_list_size
                0x00026ed4       0x10 examples/light_switch/server/CMakeFiles/light_switch_server_nrf52840_xxAA_s140_5.0.0-3.alpha.dir/__/__/__/models/config/src/packed_index_list.c.obj
                0x00026ed4                packed_index_list_size
 .text.packed_index_list_create
                0x00026ee4       0x38 examples/light_switch/server/CMakeFiles/light_switch_server_nrf52840_xxAA_s140_5.0.0-3.alpha.dir/__/__/__/models/config/src/packed_index_list.c.obj
                0x00026ee4                packed_index_list_create
 .text.attention_timer_handler
                0x00026f1c       0x78 examples/light_switch/server/CMakeFiles/light_switch_server_nrf52840_xxAA_s140_5.0.0-3.alpha.dir/__/__/__/models/health/src/health_server.c.obj
 .text.handle_attention_set
                0x00026f94       0xe0 examples/light_switch/server/CMakeFiles/light_switch_server_nrf52840_xxAA_s140_5.0.0-3.alpha.dir/__/__/__/models/health/src/health_server.c.obj
 .text.handle_period_set
                0x00027074       0x44 examples/light_switch/server/CMakeFiles/light_switch_server_nrf52840_xxAA_s140_5.0.0-3.alpha.dir/__/__/__/models/health/src/health_server.c.obj
 .text.handle_attention_get
                0x000270b8       0x30 examples/light_switch/server/CMakeFiles/light_switch_server_nrf52840_xxAA_s140_5.0.0-3.alpha.dir/__/__/__/models/health/src/health_server.c.obj
 .text.handle_period_get
                0x000270e8       0x30 examples/light_switch/server/CMakeFiles/light_switch_server_nrf52840_xxAA_s140_5.0.0-3.alpha.dir/__/__/__/models/health/src/health_server.c.obj
 .text.send_fault_status
                0x00027118      0x374 examples/light_switch/server/CMakeFiles/light_switch_server_nrf52840_xxAA_s140_5.0.0-3.alpha.dir/__/__/__/models/health/src/health_server.c.obj
 .text.health_publish_timeout_handler
                0x0002748c        0xc examples/light_switch/server/CMakeFiles/light_switch_server_nrf52840_xxAA_s140_5.0.0-3.alpha.dir/__/__/__/models/health/src/health_server.c.obj
 .text.handle_fault_test
                0x00027498       0x88 examples/light_switch/server/CMakeFiles/light_switch_server_nrf52840_xxAA_s140_5.0.0-3.alpha.dir/__/__/__/models/health/src/health_server.c.obj
 .text.handle_fault_clear
                0x00027520       0x54 examples/light_switch/server/CMakeFiles/light_switch_server_nrf52840_xxAA_s140_5.0.0-3.alpha.dir/__/__/__/models/health/src/health_server.c.obj
 .text.handle_fault_get
                0x00027574       0x40 examples/light_switch/server/CMakeFiles/light_switch_server_nrf52840_xxAA_s140_5.0.0-3.alpha.dir/__/__/__/models/health/src/health_server.c.obj
 .text.health_server_init
                0x000275b4       0x74 examples/light_switch/server/CMakeFiles/light_switch_server_nrf52840_xxAA_s140_5.0.0-3.alpha.dir/__/__/__/models/health/src/health_server.c.obj
                0x000275b4                health_server_init
 .text.add_to_publication_list
                0x00027628       0x8c examples/light_switch/server/CMakeFiles/light_switch_server_nrf52840_xxAA_s140_5.0.0-3.alpha.dir/__/__/__/mesh/access/src/access_publish.c.obj
 .text.schedule_publication_timer
                0x000276b4      0x2f4 examples/light_switch/server/CMakeFiles/light_switch_server_nrf52840_xxAA_s140_5.0.0-3.alpha.dir/__/__/__/mesh/access/src/access_publish.c.obj
 .text.publish_timer_tick
                0x000279a8       0xd0 examples/light_switch/server/CMakeFiles/light_switch_server_nrf52840_xxAA_s140_5.0.0-3.alpha.dir/__/__/__/mesh/access/src/access_publish.c.obj
 .text.access_publish_init
                0x00027a78       0x38 examples/light_switch/server/CMakeFiles/light_switch_server_nrf52840_xxAA_s140_5.0.0-3.alpha.dir/__/__/__/mesh/access/src/access_publish.c.obj
                0x00027a78                access_publish_init
 .text.access_publish_period_set
                0x00027ab0       0xa4 examples/light_switch/server/CMakeFiles/light_switch_server_nrf52840_xxAA_s140_5.0.0-3.alpha.dir/__/__/__/mesh/access/src/access_publish.c.obj
                0x00027ab0                access_publish_period_set
 .text.access_publish_period_get
                0x00027b54       0x38 examples/light_switch/server/CMakeFiles/light_switch_server_nrf52840_xxAA_s140_5.0.0-3.alpha.dir/__/__/__/mesh/access/src/access_publish.c.obj
                0x00027b54                access_publish_period_get
 .text.flash_invalidate_complete
                0x00027b8c       0x14 examples/light_switch/server/CMakeFiles/light_switch_server_nrf52840_xxAA_s140_5.0.0-3.alpha.dir/__/__/__/mesh/access/src/access.c.obj
 .text.flash_manager_mem_available
                0x00027ba0        0x4 examples/light_switch/server/CMakeFiles/light_switch_server_nrf52840_xxAA_s140_5.0.0-3.alpha.dir/__/__/__/mesh/access/src/access.c.obj
 .text.access_flash_config_clear
                0x00027ba4       0x28 examples/light_switch/server/CMakeFiles/light_switch_server_nrf52840_xxAA_s140_5.0.0-3.alpha.dir/__/__/__/mesh/access/src/access.c.obj
 .text.access_flash_config_store
                0x00027bcc      0x11c examples/light_switch/server/CMakeFiles/light_switch_server_nrf52840_xxAA_s140_5.0.0-3.alpha.dir/__/__/__/mesh/access/src/access.c.obj
                0x00027bcc                access_flash_config_store
 .text.handle_incoming
                0x00027ce8      0x1b4 examples/light_switch/server/CMakeFiles/light_switch_server_nrf52840_xxAA_s140_5.0.0-3.alpha.dir/__/__/__/mesh/access/src/access.c.obj
 .text.mesh_evt_cb
                0x00027e9c      0x15c examples/light_switch/server/CMakeFiles/light_switch_server_nrf52840_xxAA_s140_5.0.0-3.alpha.dir/__/__/__/mesh/access/src/access.c.obj
 .text.add_flash_manager
                0x00027ff8       0x58 examples/light_switch/server/CMakeFiles/light_switch_server_nrf52840_xxAA_s140_5.0.0-3.alpha.dir/__/__/__/mesh/access/src/access.c.obj
 .text.flash_write_complete
                0x00028050       0x58 examples/light_switch/server/CMakeFiles/light_switch_server_nrf52840_xxAA_s140_5.0.0-3.alpha.dir/__/__/__/mesh/access/src/access.c.obj
 .text.flash_remove_complete
                0x000280a8       0xb4 examples/light_switch/server/CMakeFiles/light_switch_server_nrf52840_xxAA_s140_5.0.0-3.alpha.dir/__/__/__/mesh/access/src/access.c.obj
 .text.access_flash_config_load
                0x0002815c      0x2d4 examples/light_switch/server/CMakeFiles/light_switch_server_nrf52840_xxAA_s140_5.0.0-3.alpha.dir/__/__/__/mesh/access/src/access.c.obj
                0x0002815c                access_flash_config_load
 .text.access_init
                0x00028430       0xb8 examples/light_switch/server/CMakeFiles/light_switch_server_nrf52840_xxAA_s140_5.0.0-3.alpha.dir/__/__/__/mesh/access/src/access.c.obj
                0x00028430                access_init
 .text.access_model_add
                0x000284e8      0x228 examples/light_switch/server/CMakeFiles/light_switch_server_nrf52840_xxAA_s140_5.0.0-3.alpha.dir/__/__/__/mesh/access/src/access.c.obj
                0x000284e8                access_model_add
 .text.access_model_publish
                0x00028710      0x2d8 examples/light_switch/server/CMakeFiles/light_switch_server_nrf52840_xxAA_s140_5.0.0-3.alpha.dir/__/__/__/mesh/access/src/access.c.obj
                0x00028710                access_model_publish
 .text.access_model_reply
                0x000289e8      0x2d4 examples/light_switch/server/CMakeFiles/light_switch_server_nrf52840_xxAA_s140_5.0.0-3.alpha.dir/__/__/__/mesh/access/src/access.c.obj
                0x000289e8                access_model_reply
 .text.access_model_publish_address_set
                0x00028cbc       0x3c examples/light_switch/server/CMakeFiles/light_switch_server_nrf52840_xxAA_s140_5.0.0-3.alpha.dir/__/__/__/mesh/access/src/access.c.obj
                0x00028cbc                access_model_publish_address_set
 .text.access_model_publish_address_get
                0x00028cf8       0x2c examples/light_switch/server/CMakeFiles/light_switch_server_nrf52840_xxAA_s140_5.0.0-3.alpha.dir/__/__/__/mesh/access/src/access.c.obj
                0x00028cf8                access_model_publish_address_get
 .text.access_model_publish_period_set
                0x00028d24       0x78 examples/light_switch/server/CMakeFiles/light_switch_server_nrf52840_xxAA_s140_5.0.0-3.alpha.dir/__/__/__/mesh/access/src/access.c.obj
                0x00028d24                access_model_publish_period_set
 .text.access_model_publish_period_get
                0x00028d9c       0x40 examples/light_switch/server/CMakeFiles/light_switch_server_nrf52840_xxAA_s140_5.0.0-3.alpha.dir/__/__/__/mesh/access/src/access.c.obj
                0x00028d9c                access_model_publish_period_get
 .text.access_model_subscription_list_alloc
                0x00028ddc       0x44 examples/light_switch/server/CMakeFiles/light_switch_server_nrf52840_xxAA_s140_5.0.0-3.alpha.dir/__/__/__/mesh/access/src/access.c.obj
                0x00028ddc                access_model_subscription_list_alloc
 .text.access_model_subscription_add
                0x00028e20       0x60 examples/light_switch/server/CMakeFiles/light_switch_server_nrf52840_xxAA_s140_5.0.0-3.alpha.dir/__/__/__/mesh/access/src/access.c.obj
                0x00028e20                access_model_subscription_add
 .text.access_model_subscription_remove
                0x00028e80       0x60 examples/light_switch/server/CMakeFiles/light_switch_server_nrf52840_xxAA_s140_5.0.0-3.alpha.dir/__/__/__/mesh/access/src/access.c.obj
                0x00028e80                access_model_subscription_remove
 .text.access_model_subscriptions_get
                0x00028ee0       0xd0 examples/light_switch/server/CMakeFiles/light_switch_server_nrf52840_xxAA_s140_5.0.0-3.alpha.dir/__/__/__/mesh/access/src/access.c.obj
                0x00028ee0                access_model_subscriptions_get
 .text.access_model_application_bind
                0x00028fb0       0x58 examples/light_switch/server/CMakeFiles/light_switch_server_nrf52840_xxAA_s140_5.0.0-3.alpha.dir/__/__/__/mesh/access/src/access.c.obj
                0x00028fb0                access_model_application_bind
 .text.access_model_application_unbind
                0x00029008       0x58 examples/light_switch/server/CMakeFiles/light_switch_server_nrf52840_xxAA_s140_5.0.0-3.alpha.dir/__/__/__/mesh/access/src/access.c.obj
                0x00029008                access_model_application_unbind
 .text.access_model_applications_get
                0x00029060       0x50 examples/light_switch/server/CMakeFiles/light_switch_server_nrf52840_xxAA_s140_5.0.0-3.alpha.dir/__/__/__/mesh/access/src/access.c.obj
                0x00029060                access_model_applications_get
 .text.access_model_publish_application_set
                0x000290b0       0x3c examples/light_switch/server/CMakeFiles/light_switch_server_nrf52840_xxAA_s140_5.0.0-3.alpha.dir/__/__/__/mesh/access/src/access.c.obj
                0x000290b0                access_model_publish_application_set
 .text.access_model_publish_application_get
                0x000290ec       0x2c examples/light_switch/server/CMakeFiles/light_switch_server_nrf52840_xxAA_s140_5.0.0-3.alpha.dir/__/__/__/mesh/access/src/access.c.obj
                0x000290ec                access_model_publish_application_get
 .text.access_default_ttl_set
                0x00029118       0x10 examples/light_switch/server/CMakeFiles/light_switch_server_nrf52840_xxAA_s140_5.0.0-3.alpha.dir/__/__/__/mesh/access/src/access.c.obj
                0x00029118                access_default_ttl_set
 .text.access_default_ttl_get
                0x00029128        0xc examples/light_switch/server/CMakeFiles/light_switch_server_nrf52840_xxAA_s140_5.0.0-3.alpha.dir/__/__/__/mesh/access/src/access.c.obj
                0x00029128                access_default_ttl_get
 .text.access_model_publish_ttl_set
                0x00029134       0x40 examples/light_switch/server/CMakeFiles/light_switch_server_nrf52840_xxAA_s140_5.0.0-3.alpha.dir/__/__/__/mesh/access/src/access.c.obj
                0x00029134                access_model_publish_ttl_set
 .text.access_model_publish_ttl_get
                0x00029174       0x2c examples/light_switch/server/CMakeFiles/light_switch_server_nrf52840_xxAA_s140_5.0.0-3.alpha.dir/__/__/__/mesh/access/src/access.c.obj
                0x00029174                access_model_publish_ttl_get
 .text.access_element_location_get
                0x000291a0       0x18 examples/light_switch/server/CMakeFiles/light_switch_server_nrf52840_xxAA_s140_5.0.0-3.alpha.dir/__/__/__/mesh/access/src/access.c.obj
                0x000291a0                access_element_location_get
 .text.access_element_sig_model_count_get
                0x000291b8       0x18 examples/light_switch/server/CMakeFiles/light_switch_server_nrf52840_xxAA_s140_5.0.0-3.alpha.dir/__/__/__/mesh/access/src/access.c.obj
                0x000291b8                access_element_sig_model_count_get
 .text.access_element_vendor_model_count_get
                0x000291d0       0x18 examples/light_switch/server/CMakeFiles/light_switch_server_nrf52840_xxAA_s140_5.0.0-3.alpha.dir/__/__/__/mesh/access/src/access.c.obj
                0x000291d0                access_element_vendor_model_count_get
 .text.access_model_id_get
                0x000291e8       0x40 examples/light_switch/server/CMakeFiles/light_switch_server_nrf52840_xxAA_s140_5.0.0-3.alpha.dir/__/__/__/mesh/access/src/access.c.obj
                0x000291e8                access_model_id_get
 .text.access_handle_get
                0x00029228       0x78 examples/light_switch/server/CMakeFiles/light_switch_server_nrf52840_xxAA_s140_5.0.0-3.alpha.dir/__/__/__/mesh/access/src/access.c.obj
                0x00029228                access_handle_get
 .text.access_element_models_get
                0x000292a0       0x84 examples/light_switch/server/CMakeFiles/light_switch_server_nrf52840_xxAA_s140_5.0.0-3.alpha.dir/__/__/__/mesh/access/src/access.c.obj
                0x000292a0                access_element_models_get
 .text.access_model_p_args_get
                0x00029324       0x2c examples/light_switch/server/CMakeFiles/light_switch_server_nrf52840_xxAA_s140_5.0.0-3.alpha.dir/__/__/__/mesh/access/src/access.c.obj
                0x00029324                access_model_p_args_get
 .text.remove_and_reschedule
                0x00029350      0x110 examples/light_switch/server/CMakeFiles/light_switch_server_nrf52840_xxAA_s140_5.0.0-3.alpha.dir/__/__/__/mesh/access/src/access_reliable.c.obj
 .text.reliable_timer_cb
                0x00029460      0x2c4 examples/light_switch/server/CMakeFiles/light_switch_server_nrf52840_xxAA_s140_5.0.0-3.alpha.dir/__/__/__/mesh/access/src/access_reliable.c.obj
 .text.access_reliable_message_rx_cb
                0x00029724       0xa4 examples/light_switch/server/CMakeFiles/light_switch_server_nrf52840_xxAA_s140_5.0.0-3.alpha.dir/__/__/__/mesh/access/src/access_reliable.c.obj
                0x00029724                access_reliable_message_rx_cb
 .text.access_reliable_init
                0x000297c8       0x1c examples/light_switch/server/CMakeFiles/light_switch_server_nrf52840_xxAA_s140_5.0.0-3.alpha.dir/__/__/__/mesh/access/src/access_reliable.c.obj
                0x000297c8                access_reliable_init
 .text.addr_nonvirtual_to_dsm_entry
                0x000297e4       0x48 examples/light_switch/server/CMakeFiles/light_switch_server_nrf52840_xxAA_s140_5.0.0-3.alpha.dir/__/__/__/mesh/access/src/device_state_manager.c.obj
 .text.addr_nonvirtual_to_flash_entry
                0x0002982c       0x10 examples/light_switch/server/CMakeFiles/light_switch_server_nrf52840_xxAA_s140_5.0.0-3.alpha.dir/__/__/__/mesh/access/src/device_state_manager.c.obj
 .text.flash_mem_listener_callback
                0x0002983c       0x28 examples/light_switch/server/CMakeFiles/light_switch_server_nrf52840_xxAA_s140_5.0.0-3.alpha.dir/__/__/__/mesh/access/src/device_state_manager.c.obj
 .text.devkey_to_flash_entry
                0x00029864       0x28 examples/light_switch/server/CMakeFiles/light_switch_server_nrf52840_xxAA_s140_5.0.0-3.alpha.dir/__/__/__/mesh/access/src/device_state_manager.c.obj
 .text.appkey_to_flash_entry
                0x0002988c       0x28 examples/light_switch/server/CMakeFiles/light_switch_server_nrf52840_xxAA_s140_5.0.0-3.alpha.dir/__/__/__/mesh/access/src/device_state_manager.c.obj
 .text.subnet_to_flash_entry
                0x000298b4       0x24 examples/light_switch/server/CMakeFiles/light_switch_server_nrf52840_xxAA_s140_5.0.0-3.alpha.dir/__/__/__/mesh/access/src/device_state_manager.c.obj
 .text.addr_virtual_to_flash_entry
                0x000298d8       0x18 examples/light_switch/server/CMakeFiles/light_switch_server_nrf52840_xxAA_s140_5.0.0-3.alpha.dir/__/__/__/mesh/access/src/device_state_manager.c.obj
 .text.addr_unicast_to_dsm_entry
                0x000298f0        0xc examples/light_switch/server/CMakeFiles/light_switch_server_nrf52840_xxAA_s140_5.0.0-3.alpha.dir/__/__/__/mesh/access/src/device_state_manager.c.obj
 .text.addr_unicast_to_flash_entry
                0x000298fc       0x10 examples/light_switch/server/CMakeFiles/light_switch_server_nrf52840_xxAA_s140_5.0.0-3.alpha.dir/__/__/__/mesh/access/src/device_state_manager.c.obj
 .text.subnet_set
                0x0002990c       0xac examples/light_switch/server/CMakeFiles/light_switch_server_nrf52840_xxAA_s140_5.0.0-3.alpha.dir/__/__/__/mesh/access/src/device_state_manager.c.obj
 .text.flash_save
                0x000299b8       0xa8 examples/light_switch/server/CMakeFiles/light_switch_server_nrf52840_xxAA_s140_5.0.0-3.alpha.dir/__/__/__/mesh/access/src/device_state_manager.c.obj
 .text.reset_flash_area
                0x00029a60       0x28 examples/light_switch/server/CMakeFiles/light_switch_server_nrf52840_xxAA_s140_5.0.0-3.alpha.dir/__/__/__/mesh/access/src/device_state_manager.c.obj
 .text.build_flash_area
                0x00029a88       0x8c examples/light_switch/server/CMakeFiles/light_switch_server_nrf52840_xxAA_s140_5.0.0-3.alpha.dir/__/__/__/mesh/access/src/device_state_manager.c.obj
 .text.flash_write_complete
                0x00029b14       0x5c examples/light_switch/server/CMakeFiles/light_switch_server_nrf52840_xxAA_s140_5.0.0-3.alpha.dir/__/__/__/mesh/access/src/device_state_manager.c.obj
 .text.devkey_to_dsm_entry
                0x00029b70       0x70 examples/light_switch/server/CMakeFiles/light_switch_server_nrf52840_xxAA_s140_5.0.0-3.alpha.dir/__/__/__/mesh/access/src/device_state_manager.c.obj
 .text.addr_virtual_to_dsm_entry
                0x00029be0       0x6c examples/light_switch/server/CMakeFiles/light_switch_server_nrf52840_xxAA_s140_5.0.0-3.alpha.dir/__/__/__/mesh/access/src/device_state_manager.c.obj
 .text.flash_invalidate_complete
                0x00029c4c       0x5c examples/light_switch/server/CMakeFiles/light_switch_server_nrf52840_xxAA_s140_5.0.0-3.alpha.dir/__/__/__/mesh/access/src/device_state_manager.c.obj
 .text.appkey_to_dsm_entry
                0x00029ca8       0x94 examples/light_switch/server/CMakeFiles/light_switch_server_nrf52840_xxAA_s140_5.0.0-3.alpha.dir/__/__/__/mesh/access/src/device_state_manager.c.obj
 .text.flash_update_all
                0x00029d3c      0x144 examples/light_switch/server/CMakeFiles/light_switch_server_nrf52840_xxAA_s140_5.0.0-3.alpha.dir/__/__/__/mesh/access/src/device_state_manager.c.obj
 .text.flash_remove_complete
                0x00029e80       0x8c examples/light_switch/server/CMakeFiles/light_switch_server_nrf52840_xxAA_s140_5.0.0-3.alpha.dir/__/__/__/mesh/access/src/device_state_manager.c.obj
 .text.subnet_to_dsm_entry
                0x00029f0c       0xbc examples/light_switch/server/CMakeFiles/light_switch_server_nrf52840_xxAA_s140_5.0.0-3.alpha.dir/__/__/__/mesh/access/src/device_state_manager.c.obj
 .text.address_delete_if_unused
                0x00029fc8       0xe0 examples/light_switch/server/CMakeFiles/light_switch_server_nrf52840_xxAA_s140_5.0.0-3.alpha.dir/__/__/__/mesh/access/src/device_state_manager.c.obj
 .text.dsm_init
                0x0002a0a8       0xa4 examples/light_switch/server/CMakeFiles/light_switch_server_nrf52840_xxAA_s140_5.0.0-3.alpha.dir/__/__/__/mesh/access/src/device_state_manager.c.obj
                0x0002a0a8                dsm_init
 .text.dsm_flash_config_load
                0x0002a14c      0x190 examples/light_switch/server/CMakeFiles/light_switch_server_nrf52840_xxAA_s140_5.0.0-3.alpha.dir/__/__/__/mesh/access/src/device_state_manager.c.obj
                0x0002a14c                dsm_flash_config_load
 .text.dsm_flash_area_get
                0x0002a2dc        0xc examples/light_switch/server/CMakeFiles/light_switch_server_nrf52840_xxAA_s140_5.0.0-3.alpha.dir/__/__/__/mesh/access/src/device_state_manager.c.obj
                0x0002a2dc                dsm_flash_area_get
 .text.dsm_local_unicast_addresses_set
                0x0002a2e8       0x78 examples/light_switch/server/CMakeFiles/light_switch_server_nrf52840_xxAA_s140_5.0.0-3.alpha.dir/__/__/__/mesh/access/src/device_state_manager.c.obj
                0x0002a2e8                dsm_local_unicast_addresses_set
 .text.dsm_local_unicast_addresses_get
                0x0002a360       0x2c examples/light_switch/server/CMakeFiles/light_switch_server_nrf52840_xxAA_s140_5.0.0-3.alpha.dir/__/__/__/mesh/access/src/device_state_manager.c.obj
                0x0002a360                dsm_local_unicast_addresses_get
 .text.dsm_address_publish_add
                0x0002a38c      0x140 examples/light_switch/server/CMakeFiles/light_switch_server_nrf52840_xxAA_s140_5.0.0-3.alpha.dir/__/__/__/mesh/access/src/device_state_manager.c.obj
                0x0002a38c                dsm_address_publish_add
 .text.dsm_address_publish_add_handle
                0x0002a4cc       0x4c examples/light_switch/server/CMakeFiles/light_switch_server_nrf52840_xxAA_s140_5.0.0-3.alpha.dir/__/__/__/mesh/access/src/device_state_manager.c.obj
                0x0002a4cc                dsm_address_publish_add_handle
 .text.dsm_address_publish_virtual_add
                0x0002a518       0xd0 examples/light_switch/server/CMakeFiles/light_switch_server_nrf52840_xxAA_s140_5.0.0-3.alpha.dir/__/__/__/mesh/access/src/device_state_manager.c.obj
                0x0002a518                dsm_address_publish_virtual_add
 .text.dsm_address_subscription_add
                0x0002a5e8      0x124 examples/light_switch/server/CMakeFiles/light_switch_server_nrf52840_xxAA_s140_5.0.0-3.alpha.dir/__/__/__/mesh/access/src/device_state_manager.c.obj
                0x0002a5e8                dsm_address_subscription_add
 .text.dsm_address_subscription_virtual_add
                0x0002a70c       0xd0 examples/light_switch/server/CMakeFiles/light_switch_server_nrf52840_xxAA_s140_5.0.0-3.alpha.dir/__/__/__/mesh/access/src/device_state_manager.c.obj
                0x0002a70c                dsm_address_subscription_virtual_add
 .text.dsm_address_subscription_add_handle
                0x0002a7dc       0x4c examples/light_switch/server/CMakeFiles/light_switch_server_nrf52840_xxAA_s140_5.0.0-3.alpha.dir/__/__/__/mesh/access/src/device_state_manager.c.obj
                0x0002a7dc                dsm_address_subscription_add_handle
 .text.dsm_address_subscription_get
                0x0002a828       0x50 examples/light_switch/server/CMakeFiles/light_switch_server_nrf52840_xxAA_s140_5.0.0-3.alpha.dir/__/__/__/mesh/access/src/device_state_manager.c.obj
                0x0002a828                dsm_address_subscription_get
 .text.dsm_address_subscription_remove
                0x0002a878       0x84 examples/light_switch/server/CMakeFiles/light_switch_server_nrf52840_xxAA_s140_5.0.0-3.alpha.dir/__/__/__/mesh/access/src/device_state_manager.c.obj
                0x0002a878                dsm_address_subscription_remove
 .text.dsm_address_get
                0x0002a8fc       0x68 examples/light_switch/server/CMakeFiles/light_switch_server_nrf52840_xxAA_s140_5.0.0-3.alpha.dir/__/__/__/mesh/access/src/device_state_manager.c.obj
                0x0002a8fc                dsm_address_get
 .text.dsm_address_handle_get
                0x0002a964       0xc4 examples/light_switch/server/CMakeFiles/light_switch_server_nrf52840_xxAA_s140_5.0.0-3.alpha.dir/__/__/__/mesh/access/src/device_state_manager.c.obj
                0x0002a964                dsm_address_handle_get
 .text.dsm_net_key_index_to_subnet_handle
                0x0002aa28       0x28 examples/light_switch/server/CMakeFiles/light_switch_server_nrf52840_xxAA_s140_5.0.0-3.alpha.dir/__/__/__/mesh/access/src/device_state_manager.c.obj
                0x0002aa28                dsm_net_key_index_to_subnet_handle
 .text.dsm_app_key_index_to_appkey_handle
                0x0002aa50       0x28 examples/light_switch/server/CMakeFiles/light_switch_server_nrf52840_xxAA_s140_5.0.0-3.alpha.dir/__/__/__/mesh/access/src/device_state_manager.c.obj
                0x0002aa50                dsm_app_key_index_to_appkey_handle
 .text.dsm_appkey_handle_get
                0x0002aa78       0x2c examples/light_switch/server/CMakeFiles/light_switch_server_nrf52840_xxAA_s140_5.0.0-3.alpha.dir/__/__/__/mesh/access/src/device_state_manager.c.obj
                0x0002aa78                dsm_appkey_handle_get
 .text.dsm_appkey_handle_to_appkey_index
                0x0002aaa4       0x24 examples/light_switch/server/CMakeFiles/light_switch_server_nrf52840_xxAA_s140_5.0.0-3.alpha.dir/__/__/__/mesh/access/src/device_state_manager.c.obj
                0x0002aaa4                dsm_appkey_handle_to_appkey_index
 .text.dsm_subnet_add
                0x0002aac8       0x94 examples/light_switch/server/CMakeFiles/light_switch_server_nrf52840_xxAA_s140_5.0.0-3.alpha.dir/__/__/__/mesh/access/src/device_state_manager.c.obj
                0x0002aac8                dsm_subnet_add
 .text.dsm_subnet_update
                0x0002ab5c       0x84 examples/light_switch/server/CMakeFiles/light_switch_server_nrf52840_xxAA_s140_5.0.0-3.alpha.dir/__/__/__/mesh/access/src/device_state_manager.c.obj
                0x0002ab5c                dsm_subnet_update
 .text.dsm_subnet_delete
                0x0002abe0      0x124 examples/light_switch/server/CMakeFiles/light_switch_server_nrf52840_xxAA_s140_5.0.0-3.alpha.dir/__/__/__/mesh/access/src/device_state_manager.c.obj
                0x0002abe0                dsm_subnet_delete
 .text.dsm_subnet_get_all
                0x0002ad04       0x44 examples/light_switch/server/CMakeFiles/light_switch_server_nrf52840_xxAA_s140_5.0.0-3.alpha.dir/__/__/__/mesh/access/src/device_state_manager.c.obj
                0x0002ad04                dsm_subnet_get_all
 .text.dsm_devkey_add
                0x0002ad48       0xac examples/light_switch/server/CMakeFiles/light_switch_server_nrf52840_xxAA_s140_5.0.0-3.alpha.dir/__/__/__/mesh/access/src/device_state_manager.c.obj
                0x0002ad48                dsm_devkey_add
 .text.dsm_appkey_add
                0x0002adf4       0xa8 examples/light_switch/server/CMakeFiles/light_switch_server_nrf52840_xxAA_s140_5.0.0-3.alpha.dir/__/__/__/mesh/access/src/device_state_manager.c.obj
                0x0002adf4                dsm_appkey_add
 .text.dsm_appkey_update
                0x0002ae9c       0xcc examples/light_switch/server/CMakeFiles/light_switch_server_nrf52840_xxAA_s140_5.0.0-3.alpha.dir/__/__/__/mesh/access/src/device_state_manager.c.obj
                0x0002ae9c                dsm_appkey_update
 .text.dsm_appkey_delete
                0x0002af68       0x60 examples/light_switch/server/CMakeFiles/light_switch_server_nrf52840_xxAA_s140_5.0.0-3.alpha.dir/__/__/__/mesh/access/src/device_state_manager.c.obj
                0x0002af68                dsm_appkey_delete
 .text.dsm_appkey_get_all
                0x0002afc8       0x54 examples/light_switch/server/CMakeFiles/light_switch_server_nrf52840_xxAA_s140_5.0.0-3.alpha.dir/__/__/__/mesh/access/src/device_state_manager.c.obj
                0x0002afc8                dsm_appkey_get_all
 .text.dsm_tx_secmat_get
                0x0002b01c       0xe0 examples/light_switch/server/CMakeFiles/light_switch_server_nrf52840_xxAA_s140_5.0.0-3.alpha.dir/__/__/__/mesh/access/src/device_state_manager.c.obj
                0x0002b01c                dsm_tx_secmat_get
 .text.nrf_mesh_net_secmat_next_get
                0x0002b0fc       0x54 examples/light_switch/server/CMakeFiles/light_switch_server_nrf52840_xxAA_s140_5.0.0-3.alpha.dir/__/__/__/mesh/access/src/device_state_manager.c.obj
                0x0002b0fc                nrf_mesh_net_secmat_next_get
 .text.nrf_mesh_app_secmat_next_get
                0x0002b150       0x80 examples/light_switch/server/CMakeFiles/light_switch_server_nrf52840_xxAA_s140_5.0.0-3.alpha.dir/__/__/__/mesh/access/src/device_state_manager.c.obj
                0x0002b150                nrf_mesh_app_secmat_next_get
 .text.nrf_mesh_devkey_secmat_get
                0x0002b1d0       0x3c examples/light_switch/server/CMakeFiles/light_switch_server_nrf52840_xxAA_s140_5.0.0-3.alpha.dir/__/__/__/mesh/access/src/device_state_manager.c.obj
                0x0002b1d0                nrf_mesh_devkey_secmat_get
 .text.nrf_mesh_beacon_info_next_get
                0x0002b20c       0x7c examples/light_switch/server/CMakeFiles/light_switch_server_nrf52840_xxAA_s140_5.0.0-3.alpha.dir/__/__/__/mesh/access/src/device_state_manager.c.obj
                0x0002b20c                nrf_mesh_beacon_info_next_get
 .text.nrf_mesh_rx_address_get
                0x0002b288       0xf4 examples/light_switch/server/CMakeFiles/light_switch_server_nrf52840_xxAA_s140_5.0.0-3.alpha.dir/__/__/__/mesh/access/src/device_state_manager.c.obj
                0x0002b288                nrf_mesh_rx_address_get
 .text.prov_provisionee_cb_link_established
                0x0002b37c       0x24 examples/light_switch/server/CMakeFiles/light_switch_server_nrf52840_xxAA_s140_5.0.0-3.alpha.dir/__/__/__/mesh/prov/src/prov_provisionee.c.obj
 .text.prov_provisionee_cb_link_closed
                0x0002b3a0       0x80 examples/light_switch/server/CMakeFiles/light_switch_server_nrf52840_xxAA_s140_5.0.0-3.alpha.dir/__/__/__/mesh/prov/src/prov_provisionee.c.obj
 .text.start_authentication
                0x0002b420      0x128 examples/light_switch/server/CMakeFiles/light_switch_server_nrf52840_xxAA_s140_5.0.0-3.alpha.dir/__/__/__/mesh/prov/src/prov_provisionee.c.obj
 .text.prov_provisionee_cb_ack_received
                0x0002b548      0x11c examples/light_switch/server/CMakeFiles/light_switch_server_nrf52840_xxAA_s140_5.0.0-3.alpha.dir/__/__/__/mesh/prov/src/prov_provisionee.c.obj
 .text.prov_provisionee_pkt_in
                0x0002b664      0x30c examples/light_switch/server/CMakeFiles/light_switch_server_nrf52840_xxAA_s140_5.0.0-3.alpha.dir/__/__/__/mesh/prov/src/prov_provisionee.c.obj
 .text.prov_provisionee_init
                0x0002b970       0x40 examples/light_switch/server/CMakeFiles/light_switch_server_nrf52840_xxAA_s140_5.0.0-3.alpha.dir/__/__/__/mesh/prov/src/prov_provisionee.c.obj
                0x0002b970                prov_provisionee_init
 .text.prov_provisionee_auth_data
                0x0002b9b0       0x84 examples/light_switch/server/CMakeFiles/light_switch_server_nrf52840_xxAA_s140_5.0.0-3.alpha.dir/__/__/__/mesh/prov/src/prov_provisionee.c.obj
                0x0002b9b0                prov_provisionee_auth_data
 .text.nrf_mesh_prov_init
                0x0002ba34       0x24 examples/light_switch/server/CMakeFiles/light_switch_server_nrf52840_xxAA_s140_5.0.0-3.alpha.dir/__/__/__/mesh/prov/src/nrf_mesh_prov.c.obj
                0x0002ba34                nrf_mesh_prov_init
 .text.nrf_mesh_prov_generate_keys
                0x0002ba58        0x4 examples/light_switch/server/CMakeFiles/light_switch_server_nrf52840_xxAA_s140_5.0.0-3.alpha.dir/__/__/__/mesh/prov/src/nrf_mesh_prov.c.obj
                0x0002ba58                nrf_mesh_prov_generate_keys
 .text.nrf_mesh_prov_listen
                0x0002ba5c       0x28 examples/light_switch/server/CMakeFiles/light_switch_server_nrf52840_xxAA_s140_5.0.0-3.alpha.dir/__/__/__/mesh/prov/src/nrf_mesh_prov.c.obj
                0x0002ba5c                nrf_mesh_prov_listen
 .text.nrf_mesh_prov_auth_data_provide
                0x0002ba84       0x10 examples/light_switch/server/CMakeFiles/light_switch_server_nrf52840_xxAA_s140_5.0.0-3.alpha.dir/__/__/__/mesh/prov/src/nrf_mesh_prov.c.obj
                0x0002ba84                nrf_mesh_prov_auth_data_provide
 .text.prov_packet_length_valid
                0x0002ba94       0x20 examples/light_switch/server/CMakeFiles/light_switch_server_nrf52840_xxAA_s140_5.0.0-3.alpha.dir/__/__/__/mesh/prov/src/provisioning.c.obj
                0x0002ba94                prov_packet_length_valid
 .text.prov_init
                0x0002bab4       0x34 examples/light_switch/server/CMakeFiles/light_switch_server_nrf52840_xxAA_s140_5.0.0-3.alpha.dir/__/__/__/mesh/prov/src/provisioning.c.obj
                0x0002bab4                prov_init
 .text.prov_listen_start
                0x0002bae8       0x14 examples/light_switch/server/CMakeFiles/light_switch_server_nrf52840_xxAA_s140_5.0.0-3.alpha.dir/__/__/__/mesh/prov/src/provisioning.c.obj
                0x0002bae8                prov_listen_start
 .text.prov_link_close
                0x0002bafc        0x8 examples/light_switch/server/CMakeFiles/light_switch_server_nrf52840_xxAA_s140_5.0.0-3.alpha.dir/__/__/__/mesh/prov/src/provisioning.c.obj
                0x0002bafc                prov_link_close
 .text.prov_tx_capabilities
                0x0002bb04       0x4c examples/light_switch/server/CMakeFiles/light_switch_server_nrf52840_xxAA_s140_5.0.0-3.alpha.dir/__/__/__/mesh/prov/src/provisioning.c.obj
                0x0002bb04                prov_tx_capabilities
 .text.prov_tx_public_key
                0x0002bb50       0x40 examples/light_switch/server/CMakeFiles/light_switch_server_nrf52840_xxAA_s140_5.0.0-3.alpha.dir/__/__/__/mesh/prov/src/provisioning.c.obj
                0x0002bb50                prov_tx_public_key
 .text.prov_tx_input_complete
                0x0002bb90       0x34 examples/light_switch/server/CMakeFiles/light_switch_server_nrf52840_xxAA_s140_5.0.0-3.alpha.dir/__/__/__/mesh/prov/src/provisioning.c.obj
                0x0002bb90                prov_tx_input_complete
 .text.prov_tx_confirmation
                0x0002bbc4       0x40 examples/light_switch/server/CMakeFiles/light_switch_server_nrf52840_xxAA_s140_5.0.0-3.alpha.dir/__/__/__/mesh/prov/src/provisioning.c.obj
                0x0002bbc4                prov_tx_confirmation
 .text.prov_tx_random
                0x0002bc04       0x40 examples/light_switch/server/CMakeFiles/light_switch_server_nrf52840_xxAA_s140_5.0.0-3.alpha.dir/__/__/__/mesh/prov/src/provisioning.c.obj
                0x0002bc04                prov_tx_random
 .text.prov_tx_complete
                0x0002bc44       0x34 examples/light_switch/server/CMakeFiles/light_switch_server_nrf52840_xxAA_s140_5.0.0-3.alpha.dir/__/__/__/mesh/prov/src/provisioning.c.obj
                0x0002bc44                prov_tx_complete
 .text.prov_tx_failed
                0x0002bc78       0x38 examples/light_switch/server/CMakeFiles/light_switch_server_nrf52840_xxAA_s140_5.0.0-3.alpha.dir/__/__/__/mesh/prov/src/provisioning.c.obj
                0x0002bc78                prov_tx_failed
 .text.prov_cb_link_opened
                0x0002bcb0        0x8 examples/light_switch/server/CMakeFiles/light_switch_server_nrf52840_xxAA_s140_5.0.0-3.alpha.dir/__/__/__/mesh/prov/src/provisioning.c.obj
                0x0002bcb0                prov_cb_link_opened
 .text.prov_cb_link_closed
                0x0002bcb8        0x8 examples/light_switch/server/CMakeFiles/light_switch_server_nrf52840_xxAA_s140_5.0.0-3.alpha.dir/__/__/__/mesh/prov/src/provisioning.c.obj
                0x0002bcb8                prov_cb_link_closed
 .text.prov_cb_pkt_in
                0x0002bcc0       0x88 examples/light_switch/server/CMakeFiles/light_switch_server_nrf52840_xxAA_s140_5.0.0-3.alpha.dir/__/__/__/mesh/prov/src/provisioning.c.obj
                0x0002bcc0                prov_cb_pkt_in
 .text.prov_cb_ack_in
                0x0002bd48        0x8 examples/light_switch/server/CMakeFiles/light_switch_server_nrf52840_xxAA_s140_5.0.0-3.alpha.dir/__/__/__/mesh/prov/src/provisioning.c.obj
                0x0002bd48                prov_cb_ack_in
 .text.prov_beacon_unprov_build
                0x0002bd50       0x54 examples/light_switch/server/CMakeFiles/light_switch_server_nrf52840_xxAA_s140_5.0.0-3.alpha.dir/__/__/__/mesh/prov/src/prov_beacon.c.obj
                0x0002bd50                prov_beacon_unprov_build
 .text.prov_beacon_unprov_packet_in
                0x0002bda4       0xbc examples/light_switch/server/CMakeFiles/light_switch_server_nrf52840_xxAA_s140_5.0.0-3.alpha.dir/__/__/__/mesh/prov/src/prov_beacon.c.obj
                0x0002bda4                prov_beacon_unprov_packet_in
 .text.prov_utils_opt_set
                0x0002be60       0x24 examples/light_switch/server/CMakeFiles/light_switch_server_nrf52840_xxAA_s140_5.0.0-3.alpha.dir/__/__/__/mesh/prov/src/prov_utils.c.obj
                0x0002be60                prov_utils_opt_set
 .text.prov_utils_opt_get
                0x0002be84       0x1c examples/light_switch/server/CMakeFiles/light_switch_server_nrf52840_xxAA_s140_5.0.0-3.alpha.dir/__/__/__/mesh/prov/src/prov_utils.c.obj
                0x0002be84                prov_utils_opt_get
 .text.prov_utils_use_ecdh_offloading
                0x0002bea0        0xc examples/light_switch/server/CMakeFiles/light_switch_server_nrf52840_xxAA_s140_5.0.0-3.alpha.dir/__/__/__/mesh/prov/src/prov_utils.c.obj
                0x0002bea0                prov_utils_use_ecdh_offloading
 .text.prov_utils_authentication_values_derive
                0x0002beac       0xac examples/light_switch/server/CMakeFiles/light_switch_server_nrf52840_xxAA_s140_5.0.0-3.alpha.dir/__/__/__/mesh/prov/src/prov_utils.c.obj
                0x0002beac                prov_utils_authentication_values_derive
 .text.prov_utils_keys_generate
                0x0002bf58       0x20 examples/light_switch/server/CMakeFiles/light_switch_server_nrf52840_xxAA_s140_5.0.0-3.alpha.dir/__/__/__/mesh/prov/src/prov_utils.c.obj
                0x0002bf58                prov_utils_keys_generate
 .text.prov_utils_derive_keys
                0x0002bf78       0xb4 examples/light_switch/server/CMakeFiles/light_switch_server_nrf52840_xxAA_s140_5.0.0-3.alpha.dir/__/__/__/mesh/prov/src/prov_utils.c.obj
                0x0002bf78                prov_utils_derive_keys
 .text.prov_utils_calculate_shared_secret
                0x0002c02c       0x38 examples/light_switch/server/CMakeFiles/light_switch_server_nrf52840_xxAA_s140_5.0.0-3.alpha.dir/__/__/__/mesh/prov/src/prov_utils.c.obj
                0x0002c02c                prov_utils_calculate_shared_secret
 .text.prov_utils_generate_oob_data
                0x0002c064      0x1c8 examples/light_switch/server/CMakeFiles/light_switch_server_nrf52840_xxAA_s140_5.0.0-3.alpha.dir/__/__/__/mesh/prov/src/prov_utils.c.obj
                0x0002c064                prov_utils_generate_oob_data
 .text.prov_utils_confirmation_check
                0x0002c22c       0x5c examples/light_switch/server/CMakeFiles/light_switch_server_nrf52840_xxAA_s140_5.0.0-3.alpha.dir/__/__/__/mesh/prov/src/prov_utils.c.obj
                0x0002c22c                prov_utils_confirmation_check
 .text.remove_active_bearer
                0x0002c288       0x70 examples/light_switch/server/CMakeFiles/light_switch_server_nrf52840_xxAA_s140_5.0.0-3.alpha.dir/__/__/__/mesh/prov/src/prov_bearer_adv.c.obj
 .text.prov_bearer_adv_listen_stop
                0x0002c2f8       0x3c examples/light_switch/server/CMakeFiles/light_switch_server_nrf52840_xxAA_s140_5.0.0-3.alpha.dir/__/__/__/mesh/prov/src/prov_bearer_adv.c.obj
 .text.link_timeout_cb
                0x0002c334        0x8 examples/light_switch/server/CMakeFiles/light_switch_server_nrf52840_xxAA_s140_5.0.0-3.alpha.dir/__/__/__/mesh/prov/src/prov_bearer_adv.c.obj
 .text.tx_complete_cb
                0x0002c33c       0x20 examples/light_switch/server/CMakeFiles/light_switch_server_nrf52840_xxAA_s140_5.0.0-3.alpha.dir/__/__/__/mesh/prov/src/prov_bearer_adv.c.obj
 .text.prov_bearer_adv_listen
                0x0002c35c      0x160 examples/light_switch/server/CMakeFiles/light_switch_server_nrf52840_xxAA_s140_5.0.0-3.alpha.dir/__/__/__/mesh/prov/src/prov_bearer_adv.c.obj
 .text.prov_buffer_tx
                0x0002c4bc      0x218 examples/light_switch/server/CMakeFiles/light_switch_server_nrf52840_xxAA_s140_5.0.0-3.alpha.dir/__/__/__/mesh/prov/src/prov_bearer_adv.c.obj
 .text.prov_bearer_adv_tx
                0x0002c6d4       0xd4 examples/light_switch/server/CMakeFiles/light_switch_server_nrf52840_xxAA_s140_5.0.0-3.alpha.dir/__/__/__/mesh/prov/src/prov_bearer_adv.c.obj
 .text.send_link_ack
                0x0002c7a8       0x90 examples/light_switch/server/CMakeFiles/light_switch_server_nrf52840_xxAA_s140_5.0.0-3.alpha.dir/__/__/__/mesh/prov/src/prov_bearer_adv.c.obj
 .text.tx_retry_cb
                0x0002c838      0x148 examples/light_switch/server/CMakeFiles/light_switch_server_nrf52840_xxAA_s140_5.0.0-3.alpha.dir/__/__/__/mesh/prov/src/prov_bearer_adv.c.obj
 .text.send_transaction_ack
                0x0002c980       0x78 examples/light_switch/server/CMakeFiles/light_switch_server_nrf52840_xxAA_s140_5.0.0-3.alpha.dir/__/__/__/mesh/prov/src/prov_bearer_adv.c.obj
 .text.prov_buffer_rx
                0x0002c9f8       0xa4 examples/light_switch/server/CMakeFiles/light_switch_server_nrf52840_xxAA_s140_5.0.0-3.alpha.dir/__/__/__/mesh/prov/src/prov_bearer_adv.c.obj
 .text.async_process
                0x0002ca9c       0xb4 examples/light_switch/server/CMakeFiles/light_switch_server_nrf52840_xxAA_s140_5.0.0-3.alpha.dir/__/__/__/mesh/prov/src/prov_bearer_adv.c.obj
 .text.prov_bearer_adv_link_open
                0x0002cb50      0x1c4 examples/light_switch/server/CMakeFiles/light_switch_server_nrf52840_xxAA_s140_5.0.0-3.alpha.dir/__/__/__/mesh/prov/src/prov_bearer_adv.c.obj
 .text.prov_bearer_adv_link_close
                0x0002cd14      0x154 examples/light_switch/server/CMakeFiles/light_switch_server_nrf52840_xxAA_s140_5.0.0-3.alpha.dir/__/__/__/mesh/prov/src/prov_bearer_adv.c.obj
 .text.prov_bearer_adv_interface_get
                0x0002ce68       0x28 examples/light_switch/server/CMakeFiles/light_switch_server_nrf52840_xxAA_s140_5.0.0-3.alpha.dir/__/__/__/mesh/prov/src/prov_bearer_adv.c.obj
                0x0002ce68                prov_bearer_adv_interface_get
 .text.prov_bearer_adv_packet_in
                0x0002ce90      0x9d0 examples/light_switch/server/CMakeFiles/light_switch_server_nrf52840_xxAA_s140_5.0.0-3.alpha.dir/__/__/__/mesh/prov/src/prov_bearer_adv.c.obj
                0x0002ce90                prov_bearer_adv_packet_in
 .text.sd_softdevice_enable
                0x0002d860        0x4 examples/light_switch/server/CMakeFiles/light_switch_server_nrf52840_xxAA_s140_5.0.0-3.alpha.dir/__/__/__/mesh/access/src/nrf_mesh_node_config.c.obj
 .text.sd_softdevice_is_enabled
                0x0002d864        0x4 examples/light_switch/server/CMakeFiles/light_switch_server_nrf52840_xxAA_s140_5.0.0-3.alpha.dir/__/__/__/mesh/access/src/nrf_mesh_node_config.c.obj
 .text.default_mesh_assertion_handler
                0x0002d868       0x7c examples/light_switch/server/CMakeFiles/light_switch_server_nrf52840_xxAA_s140_5.0.0-3.alpha.dir/__/__/__/mesh/access/src/nrf_mesh_node_config.c.obj
                0x0002d868                default_mesh_assertion_handler
 .text.default_softdevice_assertion_handler
                0x0002d8e4       0x84 examples/light_switch/server/CMakeFiles/light_switch_server_nrf52840_xxAA_s140_5.0.0-3.alpha.dir/__/__/__/mesh/access/src/nrf_mesh_node_config.c.obj
 .text.mesh_evt_handler
                0x0002d968      0x118 examples/light_switch/server/CMakeFiles/light_switch_server_nrf52840_xxAA_s140_5.0.0-3.alpha.dir/__/__/__/mesh/access/src/nrf_mesh_node_config.c.obj
 .text.nrf_mesh_node_config
                0x0002da80      0x180 examples/light_switch/server/CMakeFiles/light_switch_server_nrf52840_xxAA_s140_5.0.0-3.alpha.dir/__/__/__/mesh/access/src/nrf_mesh_node_config.c.obj
                0x0002da80                nrf_mesh_node_config
 .text.SystemInit
                0x0002dc00      0x1bc examples/light_switch/server/CMakeFiles/light_switch_server_nrf52840_xxAA_s140_5.0.0-3.alpha.dir/__/__/__/external/nRF5_SDK_14.0.0_3bcc1f7/components/toolchain/system_nrf52840.c.obj
                0x0002dc00                SystemInit
 .text          0x0002ddbc       0x3c examples/light_switch/server/CMakeFiles/light_switch_server_nrf52840_xxAA_s140_5.0.0-3.alpha.dir/__/__/__/external/nRF5_SDK_14.0.0_3bcc1f7/components/toolchain/gcc/gcc_startup_nrf52840.S.obj
                0x0002ddbc                Reset_Handler
                0x0002dde4                NMI_Handler
                0x0002dde8                MemoryManagement_Handler
                0x0002ddea                BusFault_Handler
                0x0002ddec                UsageFault_Handler
                0x0002ddee                SVC_Handler
                0x0002ddf0                DebugMon_Handler
                0x0002ddf2                PendSV_Handler
                0x0002ddf4                SysTick_Handler
                0x0002ddf6                RADIO_IRQHandler
                0x0002ddf6                PDM_IRQHandler
                0x0002ddf6                TEMP_IRQHandler
                0x0002ddf6                POWER_CLOCK_IRQHandler
                0x0002ddf6                PWM3_IRQHandler
                0x0002ddf6                FPU_IRQHandler
                0x0002ddf6                USBD_IRQHandler
                0x0002ddf6                SPIM0_SPIS0_TWIM0_TWIS0_SPI0_TWI0_IRQHandler
                0x0002ddf6                TIMER3_IRQHandler
                0x0002ddf6                UARTE0_UART0_IRQHandler
                0x0002ddf6                TIMER4_IRQHandler
                0x0002ddf6                CRYPTOCELL_IRQHandler
                0x0002ddf6                I2S_IRQHandler
                0x0002ddf6                SWI4_EGU4_IRQHandler
                0x0002ddf6                TIMER0_IRQHandler
                0x0002ddf6                PWM1_IRQHandler
                0x0002ddf6                UARTE1_IRQHandler
                0x0002ddf6                TIMER1_IRQHandler
                0x0002ddf6                SPIM3_IRQHandler
                0x0002ddf6                PWM2_IRQHandler
                0x0002ddf6                ECB_IRQHandler
                0x0002ddf6                SPIM1_SPIS1_TWIM1_TWIS1_SPI1_TWI1_IRQHandler
                0x0002ddf6                Default_Handler
                0x0002ddf6                SAADC_IRQHandler
                0x0002ddf6                CCM_AAR_IRQHandler
                0x0002ddf6                WDT_IRQHandler
                0x0002ddf6                RTC0_IRQHandler
                0x0002ddf6                SWI5_EGU5_IRQHandler
                0x0002ddf6                RNG_IRQHandler
                0x0002ddf6                RTC2_IRQHandler
                0x0002ddf6                PWM0_IRQHandler
                0x0002ddf6                SWI3_EGU3_IRQHandler
                0x0002ddf6                RTC1_IRQHandler
                0x0002ddf6                SWI1_EGU1_IRQHandler
                0x0002ddf6                SPIM2_SPIS2_SPI2_IRQHandler
                0x0002ddf6                NFCT_IRQHandler
                0x0002ddf6                SWI0_EGU0_IRQHandler
                0x0002ddf6                MWU_IRQHandler
                0x0002ddf6                TIMER2_IRQHandler
                0x0002ddf6                QSPI_IRQHandler
                0x0002ddf6                COMP_LPCOMP_IRQHandler
 .text.nrf_mesh_configure_device_uuid_reset
                0x0002ddf8       0x2c mesh/core/libmesh_core_nrf52840_xxAA.a(nrf_mesh_configure.c.obj)
                0x0002ddf8                nrf_mesh_configure_device_uuid_reset
 .text.nrf_mesh_configure_device_uuid_get
                0x0002de24        0x8 mesh/core/libmesh_core_nrf52840_xxAA.a(nrf_mesh_configure.c.obj)
                0x0002de24                nrf_mesh_configure_device_uuid_get
 .text.event_handle
                0x0002de2c       0x34 mesh/core/libmesh_core_nrf52840_xxAA.a(event.c.obj)
                0x0002de2c                event_handle
 .text.event_handler_add
                0x0002de60       0x90 mesh/core/libmesh_core_nrf52840_xxAA.a(event.c.obj)
                0x0002de60                event_handler_add
 .text.event_handler_remove
                0x0002def0       0x6c mesh/core/libmesh_core_nrf52840_xxAA.a(event.c.obj)
                0x0002def0                event_handler_remove
 .text.flash_mem_available
                0x0002df5c       0x28 mesh/core/libmesh_core_nrf52840_xxAA.a(net_state.c.obj)
 .text.flash_store_iv_index
                0x0002df84       0x38 mesh/core/libmesh_core_nrf52840_xxAA.a(net_state.c.obj)
 .text.init_flash_storage
                0x0002dfbc       0x44 mesh/core/libmesh_core_nrf52840_xxAA.a(net_state.c.obj)
 .text.flash_write_complete
                0x0002e000       0x7c mesh/core/libmesh_core_nrf52840_xxAA.a(net_state.c.obj)
 .text.seqnum_block_allocate
                0x0002e07c       0x4c mesh/core/libmesh_core_nrf52840_xxAA.a(net_state.c.obj)
 .text.iv_update_trigger_if_pending
                0x0002e0c8      0x17c mesh/core/libmesh_core_nrf52840_xxAA.a(net_state.c.obj)
 .text.iv_update_timer_handler
                0x0002e244       0x80 mesh/core/libmesh_core_nrf52840_xxAA.a(net_state.c.obj)
 .text.net_state_recover_from_flash
                0x0002e2c4      0x10c mesh/core/libmesh_core_nrf52840_xxAA.a(net_state.c.obj)
                0x0002e2c4                net_state_recover_from_flash
 .text.net_state_flash_area_get
                0x0002e3d0        0xc mesh/core/libmesh_core_nrf52840_xxAA.a(net_state.c.obj)
                0x0002e3d0                net_state_flash_area_get
 .text.net_state_init
                0x0002e3dc       0x80 mesh/core/libmesh_core_nrf52840_xxAA.a(net_state.c.obj)
                0x0002e3dc                net_state_init
 .text.net_state_seqnum_alloc
                0x0002e45c       0xd4 mesh/core/libmesh_core_nrf52840_xxAA.a(net_state.c.obj)
                0x0002e45c                net_state_seqnum_alloc
 .text.net_state_iv_index_lock
                0x0002e530       0x50 mesh/core/libmesh_core_nrf52840_xxAA.a(net_state.c.obj)
                0x0002e530                net_state_iv_index_lock
 .text.net_state_beacon_received
                0x0002e580       0xec mesh/core/libmesh_core_nrf52840_xxAA.a(net_state.c.obj)
                0x0002e580                net_state_beacon_received
 .text.net_state_beacon_iv_index_get
                0x0002e66c        0xc mesh/core/libmesh_core_nrf52840_xxAA.a(net_state.c.obj)
                0x0002e66c                net_state_beacon_iv_index_get
 .text.net_state_tx_iv_index_get
                0x0002e678       0x14 mesh/core/libmesh_core_nrf52840_xxAA.a(net_state.c.obj)
                0x0002e678                net_state_tx_iv_index_get
 .text.net_state_rx_iv_index_get
                0x0002e68c       0x18 mesh/core/libmesh_core_nrf52840_xxAA.a(net_state.c.obj)
                0x0002e68c                net_state_rx_iv_index_get
 .text.net_state_iv_update_get
                0x0002e6a4        0xc mesh/core/libmesh_core_nrf52840_xxAA.a(net_state.c.obj)
                0x0002e6a4                net_state_iv_update_get
 .text.nrf_mesh_address_type_get
                0x0002e6b0       0x10 mesh/core/libmesh_core_nrf52840_xxAA.a(nrf_mesh_utils.c.obj)
                0x0002e6b0                nrf_mesh_address_type_get
 .text.sd_softdevice_is_enabled
                0x0002e6c0        0x4 mesh/core/libmesh_core_nrf52840_xxAA.a(nrf_mesh.c.obj)
 .text.nrf_mesh_init
                0x0002e6c4       0xb8 mesh/core/libmesh_core_nrf52840_xxAA.a(nrf_mesh.c.obj)
                0x0002e6c4                nrf_mesh_init
 .text.nrf_mesh_enable
                0x0002e77c       0x50 mesh/core/libmesh_core_nrf52840_xxAA.a(nrf_mesh.c.obj)
                0x0002e77c                nrf_mesh_enable
 .text.nrf_mesh_packet_send
                0x0002e7cc        0x4 mesh/core/libmesh_core_nrf52840_xxAA.a(nrf_mesh.c.obj)
                0x0002e7cc                nrf_mesh_packet_send
 .text.nrf_mesh_process
                0x0002e7d0      0x21c mesh/core/libmesh_core_nrf52840_xxAA.a(nrf_mesh.c.obj)
                0x0002e7d0                nrf_mesh_process
 .text.nrf_mesh_on_ble_evt
                0x0002e9ec        0x4 mesh/core/libmesh_core_nrf52840_xxAA.a(nrf_mesh.c.obj)
                0x0002e9ec                nrf_mesh_on_ble_evt
 .text.nrf_mesh_on_sd_evt
                0x0002e9f0        0xc mesh/core/libmesh_core_nrf52840_xxAA.a(nrf_mesh.c.obj)
                0x0002e9f0                nrf_mesh_on_sd_evt
 .text.nrf_mesh_evt_handler_add
                0x0002e9fc        0x4 mesh/core/libmesh_core_nrf52840_xxAA.a(nrf_mesh.c.obj)
                0x0002e9fc                nrf_mesh_evt_handler_add
 .text.nrf_mesh_evt_handler_remove
                0x0002ea00        0x4 mesh/core/libmesh_core_nrf52840_xxAA.a(nrf_mesh.c.obj)
                0x0002ea00                nrf_mesh_evt_handler_remove
 .text.hal_lfclk_ppm_get
                0x0002ea04       0x14 mesh/core/libmesh_core_nrf52840_xxAA.a(hal.c.obj)
                0x0002ea04                hal_lfclk_ppm_get
 .text.timer_cb
                0x0002ea18        0xc mesh/core/libmesh_core_nrf52840_xxAA.a(timer_scheduler.c.obj)
 .text.add_evt.constprop.0
                0x0002ea24       0x78 mesh/core/libmesh_core_nrf52840_xxAA.a(timer_scheduler.c.obj)
 .text.flag_event_cb
                0x0002ea9c      0x2e4 mesh/core/libmesh_core_nrf52840_xxAA.a(timer_scheduler.c.obj)
 .text.timer_sch_init
                0x0002ed80       0x24 mesh/core/libmesh_core_nrf52840_xxAA.a(timer_scheduler.c.obj)
                0x0002ed80                timer_sch_init
 .text.timer_sch_schedule
                0x0002eda4       0x84 mesh/core/libmesh_core_nrf52840_xxAA.a(timer_scheduler.c.obj)
                0x0002eda4                timer_sch_schedule
 .text.timer_sch_abort
                0x0002ee28       0x68 mesh/core/libmesh_core_nrf52840_xxAA.a(timer_scheduler.c.obj)
                0x0002ee28                timer_sch_abort
 .text.timer_sch_reschedule
                0x0002ee90       0xa4 mesh/core/libmesh_core_nrf52840_xxAA.a(timer_scheduler.c.obj)
                0x0002ee90                timer_sch_reschedule
 .text.timer_event_handler
                0x0002ef34       0xd8 mesh/core/libmesh_core_nrf52840_xxAA.a(timer.c.obj)
                0x0002ef34                timer_event_handler
 .text.timer_order_cb
                0x0002f00c       0x98 mesh/core/libmesh_core_nrf52840_xxAA.a(timer.c.obj)
                0x0002f00c                timer_order_cb
 .text.timer_now
                0x0002f0a4       0x58 mesh/core/libmesh_core_nrf52840_xxAA.a(timer.c.obj)
                0x0002f0a4                timer_now
 .text.timer_on_ts_begin
                0x0002f0fc      0x110 mesh/core/libmesh_core_nrf52840_xxAA.a(timer.c.obj)
                0x0002f0fc                timer_on_ts_begin
 .text.timer_on_ts_end
                0x0002f20c       0x78 mesh/core/libmesh_core_nrf52840_xxAA.a(timer.c.obj)
                0x0002f20c                timer_on_ts_end
 .text.timer_cb
                0x0002f284       0x10 mesh/core/libmesh_core_nrf52840_xxAA.a(ticker.c.obj)
 .text.ticker_init
                0x0002f294       0x3c mesh/core/libmesh_core_nrf52840_xxAA.a(ticker.c.obj)
                0x0002f294                ticker_init
 .text.sd_rand_application_bytes_available_get
                0x0002f2d0        0x4 mesh/core/libmesh_core_nrf52840_xxAA.a(rand.c.obj)
 .text.sd_rand_application_vector_get
                0x0002f2d4        0x4 mesh/core/libmesh_core_nrf52840_xxAA.a(rand.c.obj)
 .text.rand_prng_seed
                0x0002f2d8       0x6c mesh/core/libmesh_core_nrf52840_xxAA.a(rand.c.obj)
                0x0002f2d8                rand_prng_seed
 .text.rand_prng_get
                0x0002f344       0x28 mesh/core/libmesh_core_nrf52840_xxAA.a(rand.c.obj)
                0x0002f344                rand_prng_get
 .text.rand_hw_rng_get
                0x0002f36c       0x58 mesh/core/libmesh_core_nrf52840_xxAA.a(rand.c.obj)
                0x0002f36c                rand_hw_rng_get
 .text.nrf_mesh_opt_set
                0x0002f3c4       0x28 mesh/core/libmesh_core_nrf52840_xxAA.a(nrf_mesh_opt.c.obj)
                0x0002f3c4                nrf_mesh_opt_set
 .text.nrf_mesh_opt_get
                0x0002f3ec       0x28 mesh/core/libmesh_core_nrf52840_xxAA.a(nrf_mesh_opt.c.obj)
                0x0002f3ec                nrf_mesh_opt_get
 .text.sd_radio_session_open
                0x0002f414        0x4 mesh/core/libmesh_core_nrf52840_xxAA.a(timeslot.c.obj)
 .text.sd_radio_session_close
                0x0002f418        0x4 mesh/core/libmesh_core_nrf52840_xxAA.a(timeslot.c.obj)
 .text.sd_radio_request
                0x0002f41c        0x4 mesh/core/libmesh_core_nrf52840_xxAA.a(timeslot.c.obj)
 .text.end_timer_handler
                0x0002f420       0x2c mesh/core/libmesh_core_nrf52840_xxAA.a(timeslot.c.obj)
 .text.radio_signal_callback
                0x0002f44c      0x324 mesh/core/libmesh_core_nrf52840_xxAA.a(timeslot.c.obj)
 .text.timeslot_sd_event_handler
                0x0002f770       0x50 mesh/core/libmesh_core_nrf52840_xxAA.a(timeslot.c.obj)
                0x0002f770                timeslot_sd_event_handler
 .text.timeslot_init
                0x0002f7c0       0x4c mesh/core/libmesh_core_nrf52840_xxAA.a(timeslot.c.obj)
                0x0002f7c0                timeslot_init
 .text.timeslot_start
                0x0002f80c       0x20 mesh/core/libmesh_core_nrf52840_xxAA.a(timeslot.c.obj)
                0x0002f80c                timeslot_start
 .text.timeslot_stop
                0x0002f82c       0x30 mesh/core/libmesh_core_nrf52840_xxAA.a(timeslot.c.obj)
                0x0002f82c                timeslot_stop
 .text.timeslot_state_lock
                0x0002f85c       0x44 mesh/core/libmesh_core_nrf52840_xxAA.a(timeslot.c.obj)
                0x0002f85c                timeslot_state_lock
 .text.timeslot_end_is_pending
                0x0002f8a0       0x24 mesh/core/libmesh_core_nrf52840_xxAA.a(timeslot.c.obj)
                0x0002f8a0                timeslot_end_is_pending
 .text.timeslot_start_time_get
                0x0002f8c4        0xc mesh/core/libmesh_core_nrf52840_xxAA.a(timeslot.c.obj)
                0x0002f8c4                timeslot_start_time_get
 .text.timeslot_remaining_time_get
                0x0002f8d0       0x40 mesh/core/libmesh_core_nrf52840_xxAA.a(timeslot.c.obj)
                0x0002f8d0                timeslot_remaining_time_get
 .text.timeslot_is_in_cb
                0x0002f910        0xc mesh/core/libmesh_core_nrf52840_xxAA.a(timeslot.c.obj)
                0x0002f910                timeslot_is_in_cb
 .text.timeslot_trigger
                0x0002f91c       0x24 mesh/core/libmesh_core_nrf52840_xxAA.a(timeslot.c.obj)
                0x0002f91c                timeslot_trigger
 .text.QDEC_IRQHandler
                0x0002f940       0xe0 mesh/core/libmesh_core_nrf52840_xxAA.a(bearer_event.c.obj)
                0x0002f940                QDEC_IRQHandler
 .text.bearer_event_init
                0x0002fa20       0x3c mesh/core/libmesh_core_nrf52840_xxAA.a(bearer_event.c.obj)
                0x0002fa20                bearer_event_init
 .text.bearer_event_timer_post
                0x0002fa5c       0x50 mesh/core/libmesh_core_nrf52840_xxAA.a(bearer_event.c.obj)
                0x0002fa5c                bearer_event_timer_post
 .text.bearer_event_critical_section_begin
                0x0002faac       0x44 mesh/core/libmesh_core_nrf52840_xxAA.a(bearer_event.c.obj)
                0x0002faac                bearer_event_critical_section_begin
 .text.bearer_event_critical_section_end
                0x0002faf0       0x44 mesh/core/libmesh_core_nrf52840_xxAA.a(bearer_event.c.obj)
                0x0002faf0                bearer_event_critical_section_end
 .text.bearer_event_flag_add
                0x0002fb34       0x50 mesh/core/libmesh_core_nrf52840_xxAA.a(bearer_event.c.obj)
                0x0002fb34                bearer_event_flag_add
 .text.bearer_event_flag_set
                0x0002fb84       0x58 mesh/core/libmesh_core_nrf52840_xxAA.a(bearer_event.c.obj)
                0x0002fb84                bearer_event_flag_set
 .text.bearer_event_sequential_add
                0x0002fbdc       0x48 mesh/core/libmesh_core_nrf52840_xxAA.a(bearer_event.c.obj)
                0x0002fbdc                bearer_event_sequential_add
 .text.bearer_event_sequential_post
                0x0002fc24       0x6c mesh/core/libmesh_core_nrf52840_xxAA.a(bearer_event.c.obj)
                0x0002fc24                bearer_event_sequential_post
 .text.bearer_event_sequential_pending
                0x0002fc90       0x20 mesh/core/libmesh_core_nrf52840_xxAA.a(bearer_event.c.obj)
                0x0002fc90                bearer_event_sequential_pending
 .text.enc_aes_encrypt
                0x0002fcb0        0x4 mesh/core/libmesh_core_nrf52840_xxAA.a(enc.c.obj)
                0x0002fcb0                enc_aes_encrypt
 .text.enc_aes_cmac
                0x0002fcb4        0x4 mesh/core/libmesh_core_nrf52840_xxAA.a(enc.c.obj)
                0x0002fcb4                enc_aes_cmac
 .text.enc_aes_ccm_encrypt
                0x0002fcb8        0x4 mesh/core/libmesh_core_nrf52840_xxAA.a(enc.c.obj)
                0x0002fcb8                enc_aes_ccm_encrypt
 .text.enc_aes_ccm_decrypt
                0x0002fcbc        0x4 mesh/core/libmesh_core_nrf52840_xxAA.a(enc.c.obj)
                0x0002fcbc                enc_aes_ccm_decrypt
 .text.enc_nonce_generate
                0x0002fcc0       0xc4 mesh/core/libmesh_core_nrf52840_xxAA.a(enc.c.obj)
                0x0002fcc0                enc_nonce_generate
 .text.enc_s1   0x0002fd84       0x40 mesh/core/libmesh_core_nrf52840_xxAA.a(enc.c.obj)
                0x0002fd84                enc_s1
 .text.enc_k1   0x0002fdc4       0x50 mesh/core/libmesh_core_nrf52840_xxAA.a(enc.c.obj)
                0x0002fdc4                enc_k1
 .text.enc_k2   0x0002fe14       0xec mesh/core/libmesh_core_nrf52840_xxAA.a(enc.c.obj)
                0x0002fe14                enc_k2
 .text.enc_k3   0x0002ff00       0x74 mesh/core/libmesh_core_nrf52840_xxAA.a(enc.c.obj)
                0x0002ff00                enc_k3
 .text.enc_k4   0x0002ff74       0x6c mesh/core/libmesh_core_nrf52840_xxAA.a(enc.c.obj)
                0x0002ff74                enc_k4
 .text.network_init
                0x0002ffe0       0x28 mesh/core/libmesh_core_nrf52840_xxAA.a(network.c.obj)
                0x0002ffe0                network_init
 .text.network_opt_set
                0x00030008       0x58 mesh/core/libmesh_core_nrf52840_xxAA.a(network.c.obj)
                0x00030008                network_opt_set
 .text.network_opt_get
                0x00030060       0x4c mesh/core/libmesh_core_nrf52840_xxAA.a(network.c.obj)
                0x00030060                network_opt_get
 .text.network_packet_alloc
                0x000300ac      0x1a4 mesh/core/libmesh_core_nrf52840_xxAA.a(network.c.obj)
                0x000300ac                network_packet_alloc
 .text.network_packet_send
                0x00030250      0x1ec mesh/core/libmesh_core_nrf52840_xxAA.a(network.c.obj)
                0x00030250                network_packet_send
 .text.network_packet_in
                0x0003043c      0x6c8 mesh/core/libmesh_core_nrf52840_xxAA.a(network.c.obj)
                0x0003043c                network_packet_in
 .text.nrf_mesh_keygen_aid
                0x00030b04       0x18 mesh/core/libmesh_core_nrf52840_xxAA.a(nrf_mesh_keygen.c.obj)
                0x00030b04                nrf_mesh_keygen_aid
 .text.nrf_mesh_keygen_network_secmat
                0x00030b1c       0x24 mesh/core/libmesh_core_nrf52840_xxAA.a(nrf_mesh_keygen.c.obj)
                0x00030b1c                nrf_mesh_keygen_network_secmat
 .text.nrf_mesh_keygen_beacon_secmat
                0x00030b40       0x50 mesh/core/libmesh_core_nrf52840_xxAA.a(nrf_mesh_keygen.c.obj)
                0x00030b40                nrf_mesh_keygen_beacon_secmat
 .text.nrf_mesh_keygen_virtual_address
                0x00030b90       0x50 mesh/core/libmesh_core_nrf52840_xxAA.a(nrf_mesh_keygen.c.obj)
                0x00030b90                nrf_mesh_keygen_virtual_address
 .text.log_callback_rtt
                0x00030be0       0x2c mesh/core/libmesh_core_nrf52840_xxAA.a(log.c.obj)
                0x00030be0                log_callback_rtt
 .text.log_init
                0x00030c0c       0x20 mesh/core/libmesh_core_nrf52840_xxAA.a(log.c.obj)
                0x00030c0c                log_init
 .text.log_printf
                0x00030c2c       0x20 mesh/core/libmesh_core_nrf52840_xxAA.a(log.c.obj)
                0x00030c2c                log_printf
 .text.process_action_queue
                0x00030c4c      0x834 mesh/core/libmesh_core_nrf52840_xxAA.a(flash_manager.c.obj)
 .text.flash_op_ended_callback
                0x00031480       0x24 mesh/core/libmesh_core_nrf52840_xxAA.a(flash_manager.c.obj)
 .text.flash_manager_init
                0x000314a4       0x68 mesh/core/libmesh_core_nrf52840_xxAA.a(flash_manager.c.obj)
                0x000314a4                flash_manager_init
 .text.flash_manager_remove
                0x0003150c       0x78 mesh/core/libmesh_core_nrf52840_xxAA.a(flash_manager.c.obj)
                0x0003150c                flash_manager_remove
 .text.flash_manager_entry_get
                0x00031584       0x54 mesh/core/libmesh_core_nrf52840_xxAA.a(flash_manager.c.obj)
                0x00031584                flash_manager_entry_get
 .text.flash_manager_entry_next_get
                0x000315d8      0x15c mesh/core/libmesh_core_nrf52840_xxAA.a(flash_manager.c.obj)
                0x000315d8                flash_manager_entry_next_get
 .text.flash_manager_entry_alloc
                0x00031734       0x9c mesh/core/libmesh_core_nrf52840_xxAA.a(flash_manager.c.obj)
                0x00031734                flash_manager_entry_alloc
 .text.flash_manager_entry_commit
                0x000317d0       0x6c mesh/core/libmesh_core_nrf52840_xxAA.a(flash_manager.c.obj)
                0x000317d0                flash_manager_entry_commit
 .text.flash_manager_entry_invalidate
                0x0003183c       0xb8 mesh/core/libmesh_core_nrf52840_xxAA.a(flash_manager.c.obj)
                0x0003183c                flash_manager_entry_invalidate
 .text.flash_manager_add
                0x000318f4      0x474 mesh/core/libmesh_core_nrf52840_xxAA.a(flash_manager.c.obj)
                0x000318f4                flash_manager_add
 .text.flash_manager_mem_listener_register
                0x00031d68       0x50 mesh/core/libmesh_core_nrf52840_xxAA.a(flash_manager.c.obj)
                0x00031d68                flash_manager_mem_listener_register
 .text.flash_manager_is_stable
                0x00031db8       0x20 mesh/core/libmesh_core_nrf52840_xxAA.a(flash_manager.c.obj)
                0x00031db8                flash_manager_is_stable
 .text.flash_manager_on_defrag_end
                0x00031dd8       0x64 mesh/core/libmesh_core_nrf52840_xxAA.a(flash_manager.c.obj)
                0x00031dd8                flash_manager_on_defrag_end
 .text.flash_manager_recovery_page_get
                0x00031e3c        0x4 mesh/core/libmesh_core_nrf52840_xxAA.a(flash_manager.c.obj)
                0x00031e3c                flash_manager_recovery_page_get
 .text.ccm_soft_crypt.constprop.0
                0x00031e40      0x298 mesh/core/libmesh_core_nrf52840_xxAA.a(ccm_soft.c.obj)
 .text.ccm_soft_authenticate
                0x000320d8      0x324 mesh/core/libmesh_core_nrf52840_xxAA.a(ccm_soft.c.obj)
 .text.ccm_soft_encrypt
                0x000323fc       0x78 mesh/core/libmesh_core_nrf52840_xxAA.a(ccm_soft.c.obj)
                0x000323fc                ccm_soft_encrypt
 .text.ccm_soft_decrypt
                0x00032474      0x10c mesh/core/libmesh_core_nrf52840_xxAA.a(ccm_soft.c.obj)
                0x00032474                ccm_soft_decrypt
 .text.beacon_init
                0x00032580       0x48 mesh/core/libmesh_core_nrf52840_xxAA.a(beacon.c.obj)
                0x00032580                beacon_init
 .text.beacon_tx
                0x000325c8       0x6c mesh/core/libmesh_core_nrf52840_xxAA.a(beacon.c.obj)
                0x000325c8                beacon_tx
 .text.beacon_create
                0x00032634       0x50 mesh/core/libmesh_core_nrf52840_xxAA.a(beacon.c.obj)
                0x00032634                beacon_create
 .text.beacon_packet_in
                0x00032684      0x180 mesh/core/libmesh_core_nrf52840_xxAA.a(beacon.c.obj)
                0x00032684                beacon_packet_in
 .text.entry_get
                0x00032804       0x8c mesh/core/libmesh_core_nrf52840_xxAA.a(flash_manager_internal.c.obj)
                0x00032804                entry_get
 .text.adv_tx_complete_callback
                0x00032890       0x58 mesh/core/libmesh_core_nrf52840_xxAA.a(core_tx.c.obj)
 .text.core_tx_init
                0x000328e8       0x4c mesh/core/libmesh_core_nrf52840_xxAA.a(core_tx.c.obj)
                0x000328e8                core_tx_init
 .text.core_tx_complete_cb_set
                0x00032934        0xc mesh/core/libmesh_core_nrf52840_xxAA.a(core_tx.c.obj)
                0x00032934                core_tx_complete_cb_set
 .text.core_tx_packet_alloc
                0x00032940       0xa4 mesh/core/libmesh_core_nrf52840_xxAA.a(core_tx.c.obj)
                0x00032940                core_tx_packet_alloc
 .text.core_tx_packet_send
                0x000329e4       0x74 mesh/core/libmesh_core_nrf52840_xxAA.a(core_tx.c.obj)
                0x000329e4                core_tx_packet_send
 .text.core_tx_packet_discard
                0x00032a58       0x74 mesh/core/libmesh_core_nrf52840_xxAA.a(core_tx.c.obj)
                0x00032a58                core_tx_packet_discard
 .text.core_tx_adv_count_set
                0x00032acc       0x40 mesh/core/libmesh_core_nrf52840_xxAA.a(core_tx.c.obj)
                0x00032acc                core_tx_adv_count_set
 .text.core_tx_adv_count_get
                0x00032b0c       0x2c mesh/core/libmesh_core_nrf52840_xxAA.a(core_tx.c.obj)
                0x00032b0c                core_tx_adv_count_get
 .text.core_tx_adv_interval_set
                0x00032b38       0x34 mesh/core/libmesh_core_nrf52840_xxAA.a(core_tx.c.obj)
                0x00032b38                core_tx_adv_interval_set
 .text.core_tx_adv_interval_get
                0x00032b6c       0x38 mesh/core/libmesh_core_nrf52840_xxAA.a(core_tx.c.obj)
                0x00032b6c                core_tx_adv_interval_get
 .text.network_beacon_tx_cb
                0x00032ba4      0x10c mesh/core/libmesh_core_nrf52840_xxAA.a(net_beacon.c.obj)
 .text.net_beacon_init
                0x00032cb0       0x64 mesh/core/libmesh_core_nrf52840_xxAA.a(net_beacon.c.obj)
                0x00032cb0                net_beacon_init
 .text.net_beacon_state_set
                0x00032d14       0x3c mesh/core/libmesh_core_nrf52840_xxAA.a(net_beacon.c.obj)
                0x00032d14                net_beacon_state_set
 .text.net_beacon_state_get
                0x00032d50        0xc mesh/core/libmesh_core_nrf52840_xxAA.a(net_beacon.c.obj)
                0x00032d50                net_beacon_state_get
 .text.net_beacon_packet_in
                0x00032d5c       0xe0 mesh/core/libmesh_core_nrf52840_xxAA.a(net_beacon.c.obj)
                0x00032d5c                net_beacon_packet_in
 .text.tx_complete_event_callback
                0x00032e3c       0x40 mesh/core/libmesh_core_nrf52840_xxAA.a(advertiser.c.obj)
 .text.broadcast_complete_cb
                0x00032e7c       0x70 mesh/core/libmesh_core_nrf52840_xxAA.a(advertiser.c.obj)
 .text.timeout_event
                0x00032eec      0x13c mesh/core/libmesh_core_nrf52840_xxAA.a(advertiser.c.obj)
 .text.advertiser_init
                0x00033028        0xc mesh/core/libmesh_core_nrf52840_xxAA.a(advertiser.c.obj)
                0x00033028                advertiser_init
 .text.advertiser_instance_init
                0x00033034      0x11c mesh/core/libmesh_core_nrf52840_xxAA.a(advertiser.c.obj)
                0x00033034                advertiser_instance_init
 .text.advertiser_enable
                0x00033150       0x44 mesh/core/libmesh_core_nrf52840_xxAA.a(advertiser.c.obj)
                0x00033150                advertiser_enable
 .text.advertiser_packet_alloc
                0x00033194       0x9c mesh/core/libmesh_core_nrf52840_xxAA.a(advertiser.c.obj)
                0x00033194                advertiser_packet_alloc
 .text.advertiser_packet_send
                0x00033230       0x98 mesh/core/libmesh_core_nrf52840_xxAA.a(advertiser.c.obj)
                0x00033230                advertiser_packet_send
 .text.advertiser_packet_discard
                0x000332c8       0x34 mesh/core/libmesh_core_nrf52840_xxAA.a(advertiser.c.obj)
                0x000332c8                advertiser_packet_discard
 .text.advertiser_interval_set
                0x000332fc       0x80 mesh/core/libmesh_core_nrf52840_xxAA.a(advertiser.c.obj)
                0x000332fc                advertiser_interval_set
 .text.advertiser_flush
                0x0003337c       0x20 mesh/core/libmesh_core_nrf52840_xxAA.a(advertiser.c.obj)
                0x0003337c                advertiser_flush
 .text.action_switch.part.2
                0x0003339c       0xc0 mesh/core/libmesh_core_nrf52840_xxAA.a(bearer_handler.c.obj)
 .text.bearer_handler_init
                0x0003345c       0x2c mesh/core/libmesh_core_nrf52840_xxAA.a(bearer_handler.c.obj)
                0x0003345c                bearer_handler_init
 .text.bearer_handler_start
                0x00033488       0x1c mesh/core/libmesh_core_nrf52840_xxAA.a(bearer_handler.c.obj)
                0x00033488                bearer_handler_start
 .text.bearer_handler_action_enqueue
                0x000334a4       0xa0 mesh/core/libmesh_core_nrf52840_xxAA.a(bearer_handler.c.obj)
                0x000334a4                bearer_handler_action_enqueue
 .text.bearer_handler_action_end
                0x00033544       0x84 mesh/core/libmesh_core_nrf52840_xxAA.a(bearer_handler.c.obj)
                0x00033544                bearer_handler_action_end
 .text.bearer_handler_radio_irq_handler
                0x000335c8       0x70 mesh/core/libmesh_core_nrf52840_xxAA.a(bearer_handler.c.obj)
                0x000335c8                bearer_handler_radio_irq_handler
 .text.bearer_handler_timer_irq_handler
                0x00033638       0x3c mesh/core/libmesh_core_nrf52840_xxAA.a(bearer_handler.c.obj)
                0x00033638                bearer_handler_timer_irq_handler
 .text.bearer_handler_on_ts_begin
                0x00033674       0x4c mesh/core/libmesh_core_nrf52840_xxAA.a(bearer_handler.c.obj)
                0x00033674                bearer_handler_on_ts_begin
 .text.bearer_handler_on_ts_end
                0x000336c0       0x48 mesh/core/libmesh_core_nrf52840_xxAA.a(bearer_handler.c.obj)
                0x000336c0                bearer_handler_on_ts_end
 .text.radio_irq_handler
                0x00033708       0xb4 mesh/core/libmesh_core_nrf52840_xxAA.a(broadcast.c.obj)
 .text.broadcast_start
                0x000337bc       0x8c mesh/core/libmesh_core_nrf52840_xxAA.a(broadcast.c.obj)
 .text.broadcast_send
                0x00033848       0x8c mesh/core/libmesh_core_nrf52840_xxAA.a(broadcast.c.obj)
                0x00033848                broadcast_send
 .text.radio_config_reset
                0x000338d4       0x38 mesh/core/libmesh_core_nrf52840_xxAA.a(radio_config.c.obj)
                0x000338d4                radio_config_reset
 .text.radio_config_channel_set
                0x0003390c       0x34 mesh/core/libmesh_core_nrf52840_xxAA.a(radio_config.c.obj)
                0x0003390c                radio_config_channel_set
 .text.radio_config_config
                0x00033940       0x78 mesh/core/libmesh_core_nrf52840_xxAA.a(radio_config.c.obj)
                0x00033940                radio_config_config
 .text.radio_config_access_addr_set
                0x000339b8       0x68 mesh/core/libmesh_core_nrf52840_xxAA.a(radio_config.c.obj)
                0x000339b8                radio_config_access_addr_set
 .text.scan_window_end
                0x00033a20       0x28 mesh/core/libmesh_core_nrf52840_xxAA.a(scanner.c.obj)
 .text.scan_window_start
                0x00033a48       0x38 mesh/core/libmesh_core_nrf52840_xxAA.a(scanner.c.obj)
 .text.radio_start
                0x00033a80      0x19c mesh/core/libmesh_core_nrf52840_xxAA.a(scanner.c.obj)
 .text.scanner_radio_start
                0x00033c1c      0x14c mesh/core/libmesh_core_nrf52840_xxAA.a(scanner.c.obj)
                0x00033c1c                scanner_radio_start
 .text.scanner_radio_stop
                0x00033d68       0x34 mesh/core/libmesh_core_nrf52840_xxAA.a(scanner.c.obj)
                0x00033d68                scanner_radio_stop
 .text.scanner_radio_irq_handler
                0x00033d9c      0x200 mesh/core/libmesh_core_nrf52840_xxAA.a(scanner.c.obj)
                0x00033d9c                scanner_radio_irq_handler
 .text.scanner_enable
                0x00033f9c       0x5c mesh/core/libmesh_core_nrf52840_xxAA.a(scanner.c.obj)
                0x00033f9c                scanner_enable
 .text.scanner_rx
                0x00033ff8       0x84 mesh/core/libmesh_core_nrf52840_xxAA.a(scanner.c.obj)
                0x00033ff8                scanner_rx
 .text.scanner_packet_release
                0x0003407c       0x4c mesh/core/libmesh_core_nrf52840_xxAA.a(scanner.c.obj)
                0x0003407c                scanner_packet_release
 .text.scanner_config_reset
                0x000340c8       0xa8 mesh/core/libmesh_core_nrf52840_xxAA.a(scanner.c.obj)
                0x000340c8                scanner_config_reset
 .text.scanner_init
                0x00034170       0x48 mesh/core/libmesh_core_nrf52840_xxAA.a(scanner.c.obj)
                0x00034170                scanner_init
 .text.internal_event_push
                0x000341b8       0x28 mesh/core/libmesh_core_nrf52840_xxAA.a(internal_event.c.obj)
                0x000341b8                internal_event_push
 .text.sd_ecb_block_encrypt
                0x000341e0        0x4 mesh/core/libmesh_core_nrf52840_xxAA.a(aes.c.obj)
 .text.aes_encrypt
                0x000341e4       0x34 mesh/core/libmesh_core_nrf52840_xxAA.a(aes.c.obj)
                0x000341e4                aes_encrypt
 .text.msg_cache_init
                0x00034218       0x24 mesh/core/libmesh_core_nrf52840_xxAA.a(msg_cache.c.obj)
                0x00034218                msg_cache_init
 .text.msg_cache_entry_exists
                0x0003423c       0x40 mesh/core/libmesh_core_nrf52840_xxAA.a(msg_cache.c.obj)
                0x0003423c                msg_cache_entry_exists
 .text.msg_cache_entry_add
                0x0003427c       0x30 mesh/core/libmesh_core_nrf52840_xxAA.a(msg_cache.c.obj)
                0x0003427c                msg_cache_entry_add
 .text.tx_complete
                0x000342ac       0x34 mesh/core/libmesh_core_nrf52840_xxAA.a(transport.c.obj)
 .text.upper_trs_packet_encrypt
                0x000342e0       0xe0 mesh/core/libmesh_core_nrf52840_xxAA.a(transport.c.obj)
 .text.sar_ctx_alloc
                0x000343c0       0xd0 mesh/core/libmesh_core_nrf52840_xxAA.a(transport.c.obj)
 .text.trs_packet_header_build
                0x00034490       0xac mesh/core/libmesh_core_nrf52840_xxAA.a(transport.c.obj)
 .text.sar_ack_send
                0x0003453c      0x144 mesh/core/libmesh_core_nrf52840_xxAA.a(transport.c.obj)
 .text.test_transport_decrypt
                0x00034680       0x98 mesh/core/libmesh_core_nrf52840_xxAA.a(transport.c.obj)
 .text.upper_transport_access_packet_in
                0x00034718      0x34c mesh/core/libmesh_core_nrf52840_xxAA.a(transport.c.obj)
 .text.trs_sar_packet_out
                0x00034a64      0x19c mesh/core/libmesh_core_nrf52840_xxAA.a(transport.c.obj)
 .text.sar_ctx_cancel
                0x00034c00      0x1d0 mesh/core/libmesh_core_nrf52840_xxAA.a(transport.c.obj)
 .text.abort_timeout
                0x00034dd0        0x8 mesh/core/libmesh_core_nrf52840_xxAA.a(transport.c.obj)
 .text.retry_timeout
                0x00034dd8       0xb0 mesh/core/libmesh_core_nrf52840_xxAA.a(transport.c.obj)
 .text.transport_sar_process
                0x00034e88      0x2a8 mesh/core/libmesh_core_nrf52840_xxAA.a(transport.c.obj)
 .text.upper_transport_packet_in
                0x00035130      0x2e0 mesh/core/libmesh_core_nrf52840_xxAA.a(transport.c.obj)
 .text.ack_timeout
                0x00035410      0x15c mesh/core/libmesh_core_nrf52840_xxAA.a(transport.c.obj)
 .text.transport_init
                0x0003556c       0x98 mesh/core/libmesh_core_nrf52840_xxAA.a(transport.c.obj)
                0x0003556c                transport_init
 .text.transport_packet_in
                0x00035604      0x824 mesh/core/libmesh_core_nrf52840_xxAA.a(transport.c.obj)
                0x00035604                transport_packet_in
 .text.transport_tx
                0x00035e28      0x32c mesh/core/libmesh_core_nrf52840_xxAA.a(transport.c.obj)
                0x00035e28                transport_tx
 .text.transport_opt_set
                0x00036154       0xdc mesh/core/libmesh_core_nrf52840_xxAA.a(transport.c.obj)
                0x00036154                transport_opt_set
 .text.transport_opt_get
                0x00036230       0x84 mesh/core/libmesh_core_nrf52840_xxAA.a(transport.c.obj)
                0x00036230                transport_opt_get
 .text.packet_buffer_init
                0x000362b4       0xec mesh/core/libmesh_core_nrf52840_xxAA.a(packet_buffer.c.obj)
                0x000362b4                packet_buffer_init
 .text.packet_buffer_flush
                0x000363a0       0xd4 mesh/core/libmesh_core_nrf52840_xxAA.a(packet_buffer.c.obj)
                0x000363a0                packet_buffer_flush
 .text.packet_buffer_reserve
                0x00036474      0x150 mesh/core/libmesh_core_nrf52840_xxAA.a(packet_buffer.c.obj)
                0x00036474                packet_buffer_reserve
 .text.packet_buffer_commit
                0x000365c4      0x144 mesh/core/libmesh_core_nrf52840_xxAA.a(packet_buffer.c.obj)
                0x000365c4                packet_buffer_commit
 .text.packet_buffer_pop
                0x00036708       0xc8 mesh/core/libmesh_core_nrf52840_xxAA.a(packet_buffer.c.obj)
                0x00036708                packet_buffer_pop
 .text.packet_buffer_can_pop
                0x000367d0       0x84 mesh/core/libmesh_core_nrf52840_xxAA.a(packet_buffer.c.obj)
                0x000367d0                packet_buffer_can_pop
 .text.packet_buffer_packets_ready_to_pop
                0x00036854       0xb4 mesh/core/libmesh_core_nrf52840_xxAA.a(packet_buffer.c.obj)
                0x00036854                packet_buffer_packets_ready_to_pop
 .text.packet_buffer_free
                0x00036908       0xf0 mesh/core/libmesh_core_nrf52840_xxAA.a(packet_buffer.c.obj)
                0x00036908                packet_buffer_free
 .text.erase_source
                0x000369f8       0x34 mesh/core/libmesh_core_nrf52840_xxAA.a(flash_manager_defrag.c.obj)
 .text.erase_recovery_area
                0x00036a2c       0x34 mesh/core/libmesh_core_nrf52840_xxAA.a(flash_manager_defrag.c.obj)
 .text.write_back
                0x00036a60       0x44 mesh/core/libmesh_core_nrf52840_xxAA.a(flash_manager_defrag.c.obj)
 .text.write_defrag_start_pointer
                0x00036aa4       0x38 mesh/core/libmesh_core_nrf52840_xxAA.a(flash_manager_defrag.c.obj)
 .text.copy_metadata
                0x00036adc       0x58 mesh/core/libmesh_core_nrf52840_xxAA.a(flash_manager_defrag.c.obj)
 .text.seal_storage_page
                0x00036b34       0x70 mesh/core/libmesh_core_nrf52840_xxAA.a(flash_manager_defrag.c.obj)
 .text.post_process
                0x00036ba4       0x64 mesh/core/libmesh_core_nrf52840_xxAA.a(flash_manager_defrag.c.obj)
 .text.check_for_invalid_entries
                0x00036c08       0x40 mesh/core/libmesh_core_nrf52840_xxAA.a(flash_manager_defrag.c.obj)
 .text.execute_procedure_step
                0x00036c48       0xc0 mesh/core/libmesh_core_nrf52840_xxAA.a(flash_manager_defrag.c.obj)
 .text.on_flash_op_end
                0x00036d08       0x4c mesh/core/libmesh_core_nrf52840_xxAA.a(flash_manager_defrag.c.obj)
 .text.invalidate_duplicate_entries
                0x00036d54      0x148 mesh/core/libmesh_core_nrf52840_xxAA.a(flash_manager_defrag.c.obj)
 .text.backup_entries
                0x00036e9c      0x1fc mesh/core/libmesh_core_nrf52840_xxAA.a(flash_manager_defrag.c.obj)
 .text.flash_manager_defrag_init
                0x00037098       0x68 mesh/core/libmesh_core_nrf52840_xxAA.a(flash_manager_defrag.c.obj)
                0x00037098                flash_manager_defrag_init
 .text.flash_manager_defrag_is_running
                0x00037100       0x10 mesh/core/libmesh_core_nrf52840_xxAA.a(flash_manager_defrag.c.obj)
                0x00037100                flash_manager_defrag_is_running
 .text.flash_manager_defrag
                0x00037110       0xe4 mesh/core/libmesh_core_nrf52840_xxAA.a(flash_manager_defrag.c.obj)
                0x00037110                flash_manager_defrag
 .text.flash_manager_defrag_recovery_page_get
                0x000371f4        0xc mesh/core/libmesh_core_nrf52840_xxAA.a(flash_manager_defrag.c.obj)
                0x000371f4                flash_manager_defrag_recovery_page_get
 .text.fifo_init
                0x00037200       0x5c mesh/core/libmesh_core_nrf52840_xxAA.a(fifo.c.obj)
                0x00037200                fifo_init
 .text.fifo_push
                0x0003725c       0x54 mesh/core/libmesh_core_nrf52840_xxAA.a(fifo.c.obj)
                0x0003725c                fifo_push
 .text.fifo_pop
                0x000372b0       0x58 mesh/core/libmesh_core_nrf52840_xxAA.a(fifo.c.obj)
                0x000372b0                fifo_pop
 .text.packet_mgr_init
                0x00037308       0x4c mesh/core/libmesh_core_nrf52840_xxAA.a(packet_mgr.c.obj)
                0x00037308                packet_mgr_init
 .text.send_end_events
                0x00037354       0x8c mesh/core/libmesh_core_nrf52840_xxAA.a(mesh_flash.c.obj)
 .text.flash_op_schedule
                0x000373e0       0xac mesh/core/libmesh_core_nrf52840_xxAA.a(mesh_flash.c.obj)
 .text.flash_op_start
                0x0003748c      0x1c4 mesh/core/libmesh_core_nrf52840_xxAA.a(mesh_flash.c.obj)
 .text.mesh_flash_init
                0x00037650       0x88 mesh/core/libmesh_core_nrf52840_xxAA.a(mesh_flash.c.obj)
                0x00037650                mesh_flash_init
 .text.mesh_flash_user_callback_set
                0x000376d8       0x2c mesh/core/libmesh_core_nrf52840_xxAA.a(mesh_flash.c.obj)
                0x000376d8                mesh_flash_user_callback_set
 .text.mesh_flash_op_push
                0x00037704      0x140 mesh/core/libmesh_core_nrf52840_xxAA.a(mesh_flash.c.obj)
                0x00037704                mesh_flash_op_push
 .text.queue_init
                0x00037844       0x28 mesh/core/libmesh_core_nrf52840_xxAA.a(queue.c.obj)
                0x00037844                queue_init
 .text.queue_push
                0x0003786c       0x50 mesh/core/libmesh_core_nrf52840_xxAA.a(queue.c.obj)
                0x0003786c                queue_push
 .text.queue_pop
                0x000378bc       0x40 mesh/core/libmesh_core_nrf52840_xxAA.a(queue.c.obj)
                0x000378bc                queue_pop
 .text.queue_peek
                0x000378fc       0x20 mesh/core/libmesh_core_nrf52840_xxAA.a(queue.c.obj)
                0x000378fc                queue_peek
 .text.aes_cmac_subkey_generate
                0x0003791c      0x2b0 mesh/core/libmesh_core_nrf52840_xxAA.a(aes_cmac.c.obj)
                0x0003791c                aes_cmac_subkey_generate
 .text.aes_cmac
                0x00037bcc      0x49c mesh/core/libmesh_core_nrf52840_xxAA.a(aes_cmac.c.obj)
                0x00037bcc                aes_cmac
 .text.msq_init
                0x00038068       0x98 mesh/core/libmesh_core_nrf52840_xxAA.a(msqueue.c.obj)
                0x00038068                msq_init
 .text.msq_get  0x00038100       0x68 mesh/core/libmesh_core_nrf52840_xxAA.a(msqueue.c.obj)
                0x00038100                msq_get
 .text.msq_move
                0x00038168       0x60 mesh/core/libmesh_core_nrf52840_xxAA.a(msqueue.c.obj)
                0x00038168                msq_move
 .text.msq_available
                0x000381c8       0x58 mesh/core/libmesh_core_nrf52840_xxAA.a(msqueue.c.obj)
                0x000381c8                msq_available
 .text.replay_cache_init
                0x00038220       0x28 mesh/core/libmesh_core_nrf52840_xxAA.a(replay_cache.c.obj)
                0x00038220                replay_cache_init
 .text.replay_cache_add
                0x00038248       0x68 mesh/core/libmesh_core_nrf52840_xxAA.a(replay_cache.c.obj)
                0x00038248                replay_cache_add
 .text.replay_cache_has_room
                0x000382b0       0x48 mesh/core/libmesh_core_nrf52840_xxAA.a(replay_cache.c.obj)
                0x000382b0                replay_cache_has_room
 .text.replay_cache_has_elem
                0x000382f8       0x40 mesh/core/libmesh_core_nrf52840_xxAA.a(replay_cache.c.obj)
                0x000382f8                replay_cache_has_elem
 .text.fen_filters_apply
                0x00038338       0x38 mesh/core/libmesh_core_nrf52840_xxAA.a(filter_engine.c.obj)
                0x00038338                fen_filters_apply
 .text.nrf_flash_erase
                0x00038370       0x5c mesh/core/libmesh_core_nrf52840_xxAA.a(nrf_flash.c.obj)
                0x00038370                nrf_flash_erase
 .text.nrf_flash_write
                0x000383cc       0x6c mesh/core/libmesh_core_nrf52840_xxAA.a(nrf_flash.c.obj)
                0x000383cc                nrf_flash_write
 .text.SEGGER_RTT_Write
                0x00038438      0x1e4 external/rtt/librtt_nrf52840_xxAA.a(SEGGER_RTT.c.obj)
                0x00038438                SEGGER_RTT_Write
 .text._PrintUnsigned
                0x0003861c      0x194 external/rtt/librtt_nrf52840_xxAA.a(SEGGER_RTT_printf.c.obj)
 .text.SEGGER_RTT_vprintf
                0x000387b0      0x464 external/rtt/librtt_nrf52840_xxAA.a(SEGGER_RTT_printf.c.obj)
                0x000387b0                SEGGER_RTT_vprintf
 .text.SEGGER_RTT_printf
                0x00038c14       0x20 external/rtt/librtt_nrf52840_xxAA.a(SEGGER_RTT_printf.c.obj)
                0x00038c14                SEGGER_RTT_printf
 .text.default_RNG
                0x00038c34        0xc external/micro-ecc/libuECC_nrf52840_xxAA.a(uECC.c.obj)
 .text.uECC_generate_random_int
                0x00038c40      0x170 external/micro-ecc/libuECC_nrf52840_xxAA.a(uECC.c.obj)
 .text.apply_z  0x00038db0      0x1a8 external/micro-ecc/libuECC_nrf52840_xxAA.a(uECC.c.obj)
 .text.uECC_vli_modAdd
                0x00038f58       0xc8 external/micro-ecc/libuECC_nrf52840_xxAA.a(uECC.c.obj)
 .text.x_side_default
                0x00039020      0x254 external/micro-ecc/libuECC_nrf52840_xxAA.a(uECC.c.obj)
 .text.vli_mmod_fast_secp256r1
                0x00039274      0x520 external/micro-ecc/libuECC_nrf52840_xxAA.a(uECC.c.obj)
 .text.XYcZ_add
                0x00039794      0x6dc external/micro-ecc/libuECC_nrf52840_xxAA.a(uECC.c.obj)
 .text.XYcZ_addC
                0x00039e70      0xa94 external/micro-ecc/libuECC_nrf52840_xxAA.a(uECC.c.obj)
 .text.uECC_vli_modInv.part.4
                0x0003a904      0x6e8 external/micro-ecc/libuECC_nrf52840_xxAA.a(uECC.c.obj)
 .text.EccPoint_mult.constprop.5
                0x0003afec      0x470 external/micro-ecc/libuECC_nrf52840_xxAA.a(uECC.c.obj)
 .text.double_jacobian_default
                0x0003b45c      0x7ec external/micro-ecc/libuECC_nrf52840_xxAA.a(uECC.c.obj)
 .text.uECC_secp256r1
                0x0003bc48        0x8 external/micro-ecc/libuECC_nrf52840_xxAA.a(uECC.c.obj)
                0x0003bc48                uECC_secp256r1
 .text.uECC_make_key
                0x0003bc50      0x23c external/micro-ecc/libuECC_nrf52840_xxAA.a(uECC.c.obj)
                0x0003bc50                uECC_make_key
 .text.uECC_shared_secret
                0x0003be8c      0x788 external/micro-ecc/libuECC_nrf52840_xxAA.a(uECC.c.obj)
                0x0003be8c                uECC_shared_secret
 .text.uECC_valid_point
                0x0003c614      0x134 external/micro-ecc/libuECC_nrf52840_xxAA.a(uECC.c.obj)
                0x0003c614                uECC_valid_point
 .text.uECC_valid_public_key
                0x0003c748       0xe8 external/micro-ecc/libuECC_nrf52840_xxAA.a(uECC.c.obj)
                0x0003c748                uECC_valid_public_key
 .text.exit     0x0003c830       0x28 c:/a/gcc_arm/6/bin/../lib/gcc/arm-none-eabi/6.3.1/../../../../arm-none-eabi/lib/thumb/v7e-m/fpv4-sp/hard\libc_nano.a(lib_a-exit.o)
                0x0003c830                exit
 .text.__libc_init_array
                0x0003c858       0x48 c:/a/gcc_arm/6/bin/../lib/gcc/arm-none-eabi/6.3.1/../../../../arm-none-eabi/lib/thumb/v7e-m/fpv4-sp/hard\libc_nano.a(lib_a-init.o)
                0x0003c858                __libc_init_array
 .text.malloc   0x0003c8a0       0x10 c:/a/gcc_arm/6/bin/../lib/gcc/arm-none-eabi/6.3.1/../../../../arm-none-eabi/lib/thumb/v7e-m/fpv4-sp/hard\libc_nano.a(lib_a-malloc.o)
                0x0003c8a0                malloc
 .text.free     0x0003c8b0       0x10 c:/a/gcc_arm/6/bin/../lib/gcc/arm-none-eabi/6.3.1/../../../../arm-none-eabi/lib/thumb/v7e-m/fpv4-sp/hard\libc_nano.a(lib_a-malloc.o)
                0x0003c8b0                free
 .text.memcmp   0x0003c8c0       0x1e c:/a/gcc_arm/6/bin/../lib/gcc/arm-none-eabi/6.3.1/../../../../arm-none-eabi/lib/thumb/v7e-m/fpv4-sp/hard\libc_nano.a(lib_a-memcmp.o)
                0x0003c8c0                memcmp
 .text.memcpy   0x0003c8de       0x16 c:/a/gcc_arm/6/bin/../lib/gcc/arm-none-eabi/6.3.1/../../../../arm-none-eabi/lib/thumb/v7e-m/fpv4-sp/hard\libc_nano.a(lib_a-memcpy-stub.o)
                0x0003c8de                memcpy
 .text.memset   0x0003c8f4       0x10 c:/a/gcc_arm/6/bin/../lib/gcc/arm-none-eabi/6.3.1/../../../../arm-none-eabi/lib/thumb/v7e-m/fpv4-sp/hard\libc_nano.a(lib_a-memset.o)
                0x0003c8f4                memset
 .text._free_r  0x0003c904       0x9c c:/a/gcc_arm/6/bin/../lib/gcc/arm-none-eabi/6.3.1/../../../../arm-none-eabi/lib/thumb/v7e-m/fpv4-sp/hard\libc_nano.a(lib_a-nano-freer.o)
                0x0003c904                _free_r
 .text._malloc_r
                0x0003c9a0       0xbc c:/a/gcc_arm/6/bin/../lib/gcc/arm-none-eabi/6.3.1/../../../../arm-none-eabi/lib/thumb/v7e-m/fpv4-sp/hard\libc_nano.a(lib_a-nano-mallocr.o)
                0x0003c9a0                _malloc_r
 .text._sbrk_r  0x0003ca5c       0x20 c:/a/gcc_arm/6/bin/../lib/gcc/arm-none-eabi/6.3.1/../../../../arm-none-eabi/lib/thumb/v7e-m/fpv4-sp/hard\libc_nano.a(lib_a-sbrkr.o)
                0x0003ca5c                _sbrk_r
 .text.strcpy   0x0003ca7c       0x10 c:/a/gcc_arm/6/bin/../lib/gcc/arm-none-eabi/6.3.1/../../../../arm-none-eabi/lib/thumb/v7e-m/fpv4-sp/hard\libc_nano.a(lib_a-strcpy.o)
                0x0003ca7c                strcpy
 .text          0x0003ca8c       0x10 c:/a/gcc_arm/6/bin/../lib/gcc/arm-none-eabi/6.3.1/../../../../arm-none-eabi/lib/thumb/v7e-m/fpv4-sp/hard\libc_nano.a(lib_a-strlen.o)
                0x0003ca8c                strlen
 .text.strrchr  0x0003ca9c       0x26 c:/a/gcc_arm/6/bin/../lib/gcc/arm-none-eabi/6.3.1/../../../../arm-none-eabi/lib/thumb/v7e-m/fpv4-sp/hard\libc_nano.a(lib_a-strrchr.o)
                0x0003ca9c                strrchr
 .text.__malloc_lock
                0x0003cac2        0x2 c:/a/gcc_arm/6/bin/../lib/gcc/arm-none-eabi/6.3.1/../../../../arm-none-eabi/lib/thumb/v7e-m/fpv4-sp/hard\libc_nano.a(lib_a-mlock.o)
                0x0003cac2                __malloc_lock
 .text.__malloc_unlock
                0x0003cac4        0x2 c:/a/gcc_arm/6/bin/../lib/gcc/arm-none-eabi/6.3.1/../../../../arm-none-eabi/lib/thumb/v7e-m/fpv4-sp/hard\libc_nano.a(lib_a-mlock.o)
                0x0003cac4                __malloc_unlock
 .text.strchr   0x0003cac6       0x1c c:/a/gcc_arm/6/bin/../lib/gcc/arm-none-eabi/6.3.1/../../../../arm-none-eabi/lib/thumb/v7e-m/fpv4-sp/hard\libc_nano.a(lib_a-strchr.o)
                0x0003cac6                strchr
 *fill*         0x0003cae2        0x2 
 .text._sbrk    0x0003cae4       0x1c c:/a/gcc_arm/6/bin/../lib/gcc/arm-none-eabi/6.3.1/../../../../arm-none-eabi/lib/thumb/v7e-m/fpv4-sp/hard\libnosys.a(sbrk.o)
                0x0003cae4                _sbrk
 .text._exit    0x0003cb00        0x4 c:/a/gcc_arm/6/bin/../lib/gcc/arm-none-eabi/6.3.1/../../../../arm-none-eabi/lib/thumb/v7e-m/fpv4-sp/hard\libnosys.a(_exit.o)
                0x0003cb00                _exit
 *(.init)
 .init          0x0003cb04        0x4 c:/a/gcc_arm/6/bin/../lib/gcc/arm-none-eabi/6.3.1/thumb/v7e-m/fpv4-sp/hard/crti.o
                0x0003cb04                _init
 .init          0x0003cb08        0x8 c:/a/gcc_arm/6/bin/../lib/gcc/arm-none-eabi/6.3.1/thumb/v7e-m/fpv4-sp/hard/crtn.o
 *(.fini)
 .fini          0x0003cb10        0x4 c:/a/gcc_arm/6/bin/../lib/gcc/arm-none-eabi/6.3.1/thumb/v7e-m/fpv4-sp/hard/crti.o
                0x0003cb10                _fini
 .fini          0x0003cb14        0x8 c:/a/gcc_arm/6/bin/../lib/gcc/arm-none-eabi/6.3.1/thumb/v7e-m/fpv4-sp/hard/crtn.o
 *crtbegin.o(.ctors)
 *crtbegin?.o(.ctors)
 *(EXCLUDE_FILE(*crtend.o *crtend?.o) .ctors)
 *(SORT(.ctors.*))
 *(.ctors)
 *crtbegin.o(.dtors)
 *crtbegin?.o(.dtors)
 *(EXCLUDE_FILE(*crtend.o *crtend?.o) .dtors)
 *(SORT(.dtors.*))
 *(.dtors)
 *(.rodata*)
 .rodata.configuration_complete.str1.4
                0x0003cb1c       0x1a examples/light_switch/server/CMakeFiles/light_switch_server_nrf52840_xxAA_s140_5.0.0-3.alpha.dir/src/main.c.obj
 *fill*         0x0003cb36        0x2 
 .rodata.configuration_setup.str1.4
                0x0003cb38       0x4c examples/light_switch/server/CMakeFiles/light_switch_server_nrf52840_xxAA_s140_5.0.0-3.alpha.dir/src/main.c.obj
 .rodata.main.str1.4
                0x0003cb84       0x2f examples/light_switch/server/CMakeFiles/light_switch_server_nrf52840_xxAA_s140_5.0.0-3.alpha.dir/src/main.c.obj
 *fill*         0x0003cbb3        0x1 
 .rodata.set_cb.str1.4
                0x0003cbb4       0x17 examples/light_switch/server/CMakeFiles/light_switch_server_nrf52840_xxAA_s140_5.0.0-3.alpha.dir/src/main.c.obj
 *fill*         0x0003cbcb        0x1 
 .rodata.static_auth_data.10839
                0x0003cbcc       0x10 examples/light_switch/server/CMakeFiles/light_switch_server_nrf52840_xxAA_s140_5.0.0-3.alpha.dir/src/main.c.obj
 .rodata.HardFault_Handler.str1.4
                0x0003cbdc        0xe examples/light_switch/server/CMakeFiles/light_switch_server_nrf52840_xxAA_s140_5.0.0-3.alpha.dir/__/__/nrf_mesh_sdk.c.obj
 *fill*         0x0003cbea        0x2 
 .rodata.app_error_handler.str1.4
                0x0003cbec       0x1d examples/light_switch/server/CMakeFiles/light_switch_server_nrf52840_xxAA_s140_5.0.0-3.alpha.dir/__/__/nrf_mesh_sdk.c.obj
 *fill*         0x0003cc09        0x3 
 .rodata.mesh_assert_handler.str1.4
                0x0003cc0c       0x35 examples/light_switch/server/CMakeFiles/light_switch_server_nrf52840_xxAA_s140_5.0.0-3.alpha.dir/__/__/nrf_mesh_sdk.c.obj
 *fill*         0x0003cc41        0x3 
 .rodata.m_opcode_handlers
                0x0003cc44       0x18 examples/light_switch/server/CMakeFiles/light_switch_server_nrf52840_xxAA_s140_5.0.0-3.alpha.dir/__/__/__/models/simple_on_off/src/simple_on_off_server.c.obj
 .rodata.CSWTCH.152
                0x0003cc5c        0xc examples/light_switch/server/CMakeFiles/light_switch_server_nrf52840_xxAA_s140_5.0.0-3.alpha.dir/__/__/__/models/config/src/config_server.c.obj
 .rodata.CSWTCH.155
                0x0003cc68        0x7 examples/light_switch/server/CMakeFiles/light_switch_server_nrf52840_xxAA_s140_5.0.0-3.alpha.dir/__/__/__/models/config/src/config_server.c.obj
 *fill*         0x0003cc6f        0x1 
 .rodata.opcode_handlers
                0x0003cc70      0x150 examples/light_switch/server/CMakeFiles/light_switch_server_nrf52840_xxAA_s140_5.0.0-3.alpha.dir/__/__/__/models/config/src/config_server.c.obj
 .rodata.m_opcode_handlers
                0x0003cdc0       0x58 examples/light_switch/server/CMakeFiles/light_switch_server_nrf52840_xxAA_s140_5.0.0-3.alpha.dir/__/__/__/models/health/src/health_server.c.obj
 .rodata.multiply_de_bruijn_bit_position.9368
                0x0003ce18       0x20 examples/light_switch/server/CMakeFiles/light_switch_server_nrf52840_xxAA_s140_5.0.0-3.alpha.dir/__/__/__/models/health/src/health_server.c.obj
 .rodata.access_model_publish.str1.4
                0x0003ce38       0x13 examples/light_switch/server/CMakeFiles/light_switch_server_nrf52840_xxAA_s140_5.0.0-3.alpha.dir/__/__/__/mesh/access/src/access.c.obj
 *fill*         0x0003ce4b        0x1 
 .rodata.mesh_evt_cb.str1.4
                0x0003ce4c       0x2f examples/light_switch/server/CMakeFiles/light_switch_server_nrf52840_xxAA_s140_5.0.0-3.alpha.dir/__/__/__/mesh/access/src/access.c.obj
 *fill*         0x0003ce7b        0x1 
 .rodata.multiply_de_bruijn_bit_position.9295
                0x0003ce7c       0x20 examples/light_switch/server/CMakeFiles/light_switch_server_nrf52840_xxAA_s140_5.0.0-3.alpha.dir/__/__/__/mesh/access/src/access.c.obj
 .rodata.m_flash_groups
                0x0003ce9c       0xc0 examples/light_switch/server/CMakeFiles/light_switch_server_nrf52840_xxAA_s140_5.0.0-3.alpha.dir/__/__/__/mesh/access/src/device_state_manager.c.obj
 .rodata.m_prov_callbacks
                0x0003cf5c       0x10 examples/light_switch/server/CMakeFiles/light_switch_server_nrf52840_xxAA_s140_5.0.0-3.alpha.dir/__/__/__/mesh/prov/src/prov_provisionee.c.obj
 .rodata.prov_provisionee_cb_ack_received.str1.4
                0x0003cf6c       0x53 examples/light_switch/server/CMakeFiles/light_switch_server_nrf52840_xxAA_s140_5.0.0-3.alpha.dir/__/__/__/mesh/prov/src/prov_provisionee.c.obj
 *fill*         0x0003cfbf        0x1 
 .rodata.pdu_sizes.10990
                0x0003cfc0        0xa examples/light_switch/server/CMakeFiles/light_switch_server_nrf52840_xxAA_s140_5.0.0-3.alpha.dir/__/__/__/mesh/prov/src/provisioning.c.obj
 *fill*         0x0003cfca        0x2 
 .rodata.prov_cb_pkt_in.str1.4
                0x0003cfcc       0x34 examples/light_switch/server/CMakeFiles/light_switch_server_nrf52840_xxAA_s140_5.0.0-3.alpha.dir/__/__/__/mesh/prov/src/provisioning.c.obj
 .rodata.alphanumeric.11094
                0x0003d000       0x25 examples/light_switch/server/CMakeFiles/light_switch_server_nrf52840_xxAA_s140_5.0.0-3.alpha.dir/__/__/__/mesh/prov/src/prov_utils.c.obj
 *fill*         0x0003d025        0x3 
 .rodata.numeric_max.11088
                0x0003d028       0x24 examples/light_switch/server/CMakeFiles/light_switch_server_nrf52840_xxAA_s140_5.0.0-3.alpha.dir/__/__/__/mesh/prov/src/prov_utils.c.obj
 .rodata.prov_utils_authentication_values_derive.str1.4
                0x0003d04c        0x5 examples/light_switch/server/CMakeFiles/light_switch_server_nrf52840_xxAA_s140_5.0.0-3.alpha.dir/__/__/__/mesh/prov/src/prov_utils.c.obj
 *fill*         0x0003d051        0x3 
 .rodata.prov_utils_derive_keys.str1.4
                0x0003d054       0x15 examples/light_switch/server/CMakeFiles/light_switch_server_nrf52840_xxAA_s140_5.0.0-3.alpha.dir/__/__/__/mesh/prov/src/prov_utils.c.obj
 *fill*         0x0003d069        0x3 
 .rodata.crctable.10852
                0x0003d06c      0x100 examples/light_switch/server/CMakeFiles/light_switch_server_nrf52840_xxAA_s140_5.0.0-3.alpha.dir/__/__/__/mesh/prov/src/prov_bearer_adv.c.obj
 .rodata.interface.11081
                0x0003d16c       0x14 examples/light_switch/server/CMakeFiles/light_switch_server_nrf52840_xxAA_s140_5.0.0-3.alpha.dir/__/__/__/mesh/prov/src/prov_bearer_adv.c.obj
 .rodata.prov_bearer_adv_listen.str1.4
                0x0003d180       0x50 examples/light_switch/server/CMakeFiles/light_switch_server_nrf52840_xxAA_s140_5.0.0-3.alpha.dir/__/__/__/mesh/prov/src/prov_bearer_adv.c.obj
 .rodata.prov_bearer_adv_packet_in.str1.4
                0x0003d1d0      0x283 examples/light_switch/server/CMakeFiles/light_switch_server_nrf52840_xxAA_s140_5.0.0-3.alpha.dir/__/__/__/mesh/prov/src/prov_bearer_adv.c.obj
 *fill*         0x0003d453        0x1 
 .rodata.tx_retry_cb.str1.4
                0x0003d454       0x14 examples/light_switch/server/CMakeFiles/light_switch_server_nrf52840_xxAA_s140_5.0.0-3.alpha.dir/__/__/__/mesh/prov/src/prov_bearer_adv.c.obj
 .rodata.default_mesh_assertion_handler.str1.4
                0x0003d468       0x2a examples/light_switch/server/CMakeFiles/light_switch_server_nrf52840_xxAA_s140_5.0.0-3.alpha.dir/__/__/__/mesh/access/src/nrf_mesh_node_config.c.obj
                                 0x45 (size before relaxing)
 *fill*         0x0003d492        0x2 
 .rodata.default_softdevice_assertion_handler.str1.4
                0x0003d494       0x1d examples/light_switch/server/CMakeFiles/light_switch_server_nrf52840_xxAA_s140_5.0.0-3.alpha.dir/__/__/__/mesh/access/src/nrf_mesh_node_config.c.obj
 *fill*         0x0003d4b1        0x3 
 .rodata.types_lookup.9118
                0x0003d4b4        0x4 mesh/core/libmesh_core_nrf52840_xxAA.a(nrf_mesh_utils.c.obj)
 .rodata.nrf_mesh_process.str1.4
                0x0003d4b8       0x73 mesh/core/libmesh_core_nrf52840_xxAA.a(nrf_mesh.c.obj)
 *fill*         0x0003d52b        0x1 
 .rodata.CSWTCH.8
                0x0003d52c       0x20 mesh/core/libmesh_core_nrf52840_xxAA.a(hal.c.obj)
 .rodata        0x0003d54c       0x18 mesh/core/libmesh_core_nrf52840_xxAA.a(enc.c.obj)
 .rodata.network_packet_in.str1.4
                0x0003d564       0x49 mesh/core/libmesh_core_nrf52840_xxAA.a(network.c.obj)
 *fill*         0x0003d5ad        0x3 
 .rodata.network_packet_send.str1.4
                0x0003d5b0       0x4a mesh/core/libmesh_core_nrf52840_xxAA.a(network.c.obj)
 *fill*         0x0003d5fa        0x2 
 .rodata        0x0003d5fc        0x7 mesh/core/libmesh_core_nrf52840_xxAA.a(nrf_mesh_keygen.c.obj)
 *fill*         0x0003d603        0x1 
 .rodata.log_callback_rtt.str1.4
                0x0003d604       0x15 mesh/core/libmesh_core_nrf52840_xxAA.a(log.c.obj)
 *fill*         0x0003d619        0x3 
 .rodata.str1.4
                0x0003d61c       0x11 mesh/core/libmesh_core_nrf52840_xxAA.a(log.c.obj)
 *fill*         0x0003d62d        0x3 
 .rodata.INVALID_HEADER
                0x0003d630        0x4 mesh/core/libmesh_core_nrf52840_xxAA.a(flash_manager.c.obj)
                0x0003d630                INVALID_HEADER
 .rodata.PADDING_HEADER
                0x0003d634        0x4 mesh/core/libmesh_core_nrf52840_xxAA.a(flash_manager.c.obj)
                0x0003d634                PADDING_HEADER
 .rodata.SEAL_HEADER
                0x0003d638        0x4 mesh/core/libmesh_core_nrf52840_xxAA.a(flash_manager.c.obj)
                0x0003d638                SEAL_HEADER
 .rodata.process_action_queue.str1.4
                0x0003d63c       0x21 mesh/core/libmesh_core_nrf52840_xxAA.a(flash_manager.c.obj)
                                 0x52 (size before relaxing)
 *fill*         0x0003d65d        0x3 
 .rodata.beacon_packet_in.str1.4
                0x0003d660       0x55 mesh/core/libmesh_core_nrf52840_xxAA.a(beacon.c.obj)
                                 0x60 (size before relaxing)
 *fill*         0x0003d6b5        0x3 
 .rodata.net_beacon_init.str1.4
                0x0003d6b8        0x5 mesh/core/libmesh_core_nrf52840_xxAA.a(net_beacon.c.obj)
 *fill*         0x0003d6bd        0x3 
 .rodata.radio_mode_to_us_per_byte.9494
                0x0003d6c0        0x6 mesh/core/libmesh_core_nrf52840_xxAA.a(broadcast.c.obj)
 *fill*         0x0003d6c6        0x2 
 .rodata.channel_rf_offsets.8756
                0x0003d6c8       0x28 mesh/core/libmesh_core_nrf52840_xxAA.a(radio_config.c.obj)
 .rodata.sar_ack_send.str1.4
                0x0003d6f0       0x1d mesh/core/libmesh_core_nrf52840_xxAA.a(transport.c.obj)
                                 0x4e (size before relaxing)
 *fill*         0x0003d70d        0x3 
 .rodata.sar_ctx_cancel.str1.4
                0x0003d710       0x18 mesh/core/libmesh_core_nrf52840_xxAA.a(transport.c.obj)
 .rodata.test_transport_decrypt.str1.4
                0x0003d728       0x13 mesh/core/libmesh_core_nrf52840_xxAA.a(transport.c.obj)
 *fill*         0x0003d73b        0x1 
 .rodata.transport_packet_in.str1.4
                0x0003d73c       0x24 mesh/core/libmesh_core_nrf52840_xxAA.a(transport.c.obj)
 .rodata.transport_tx.str1.4
                0x0003d760       0x2f mesh/core/libmesh_core_nrf52840_xxAA.a(transport.c.obj)
                                 0x38 (size before relaxing)
 *fill*         0x0003d78f        0x1 
 .rodata.upper_transport_access_packet_in.str1.4
                0x0003d790       0x29 mesh/core/libmesh_core_nrf52840_xxAA.a(transport.c.obj)
 *fill*         0x0003d7b9        0x3 
 .rodata.upper_transport_packet_in.str1.4
                0x0003d7bc       0x2e mesh/core/libmesh_core_nrf52840_xxAA.a(transport.c.obj)
 *fill*         0x0003d7ea        0x2 
 .rodata.flash_manager_defrag.str1.4
                0x0003d7ec       0x28 mesh/core/libmesh_core_nrf52840_xxAA.a(flash_manager_defrag.c.obj)
                                 0x56 (size before relaxing)
 .rodata.m_procedure_steps
                0x0003d814       0x28 mesh/core/libmesh_core_nrf52840_xxAA.a(flash_manager_defrag.c.obj)
 .rodata.m_all_operations
                0x0003d83c       0x10 mesh/core/libmesh_core_nrf52840_xxAA.a(mesh_flash.c.obj)
 .rodata.SEGGER_RTT_ReadNoLock.str1.4
                0x0003d84c       0x18 external/rtt/librtt_nrf52840_xxAA.a(SEGGER_RTT.c.obj)
                                 0x17 (size before relaxing)
 .rodata._aV2C.5497
                0x0003d864       0x10 external/rtt/librtt_nrf52840_xxAA.a(SEGGER_RTT_printf.c.obj)
 .rodata.curve_secp256r1
                0x0003d874       0xb0 external/micro-ecc/libuECC_nrf52840_xxAA.a(uECC.c.obj)
 .rodata._global_impure_ptr
                0x0003d924        0x4 c:/a/gcc_arm/6/bin/../lib/gcc/arm-none-eabi/6.3.1/../../../../arm-none-eabi/lib/thumb/v7e-m/fpv4-sp/hard\libc_nano.a(lib_a-impure.o)
                0x0003d924                _global_impure_ptr
 *(.eh_frame*)
 .eh_frame      0x0003d928        0x0 c:/a/gcc_arm/6/bin/../lib/gcc/arm-none-eabi/6.3.1/thumb/v7e-m/fpv4-sp/hard/crtbegin.o
 .eh_frame      0x0003d928        0x4 c:/a/gcc_arm/6/bin/../lib/gcc/arm-none-eabi/6.3.1/thumb/v7e-m/fpv4-sp/hard/crtend.o

.glue_7         0x0003d92c        0x0
 .glue_7        0x0003d92c        0x0 linker stubs

.glue_7t        0x0003d92c        0x0
 .glue_7t       0x0003d92c        0x0 linker stubs

.vfp11_veneer   0x0003d92c        0x0
 .vfp11_veneer  0x0003d92c        0x0 linker stubs

.v4_bx          0x0003d92c        0x0
 .v4_bx         0x0003d92c        0x0 linker stubs

.iplt           0x0003d92c        0x0
 .iplt          0x0003d92c        0x0 c:/a/gcc_arm/6/bin/../lib/gcc/arm-none-eabi/6.3.1/thumb/v7e-m/fpv4-sp/hard/crtbegin.o

.ARM.extab
 *(.ARM.extab* .gnu.linkonce.armextab.*)
                0x0003d92c                __exidx_start = .

.ARM.exidx      0x0003d92c        0x8
 *(.ARM.exidx* .gnu.linkonce.armexidx.*)
 .ARM.exidx     0x0003d92c        0x8 c:/a/gcc_arm/6/bin/../lib/gcc/arm-none-eabi/6.3.1/../../../../arm-none-eabi/lib/thumb/v7e-m/fpv4-sp/hard/crt0.o
                0x0003d934                __exidx_end = .
                0x0003d934                __etext = .

.rel.dyn        0x0003d934        0x0
 .rel.iplt      0x0003d934        0x0 c:/a/gcc_arm/6/bin/../lib/gcc/arm-none-eabi/6.3.1/thumb/v7e-m/fpv4-sp/hard/crtbegin.o

.data           0x200031b8      0x118 load address 0x0003d934
                0x200031b8                __data_start__ = .
 *(vtable)
 *(.data*)
 .data.m_config_server_handle
                0x200031b8        0x2 examples/light_switch/server/CMakeFiles/light_switch_server_nrf52840_xxAA_s140_5.0.0-3.alpha.dir/__/__/__/models/config/src/config_server.c.obj
 *fill*         0x200031ba        0x2 
 .data.flash_add_mem_available_struct.10546
                0x200031bc       0x10 examples/light_switch/server/CMakeFiles/light_switch_server_nrf52840_xxAA_s140_5.0.0-3.alpha.dir/__/__/__/mesh/access/src/access.c.obj
 .data.flash_clear_mem_available_struct.10635
                0x200031cc       0x10 examples/light_switch/server/CMakeFiles/light_switch_server_nrf52840_xxAA_s140_5.0.0-3.alpha.dir/__/__/__/mesh/access/src/access.c.obj
 .data.flash_store_mem_available_struct.10659
                0x200031dc       0x10 examples/light_switch/server/CMakeFiles/light_switch_server_nrf52840_xxAA_s140_5.0.0-3.alpha.dir/__/__/__/mesh/access/src/access.c.obj
 .data.m_default_ttl
                0x200031ec        0x1 examples/light_switch/server/CMakeFiles/light_switch_server_nrf52840_xxAA_s140_5.0.0-3.alpha.dir/__/__/__/mesh/access/src/access.c.obj
 *fill*         0x200031ed        0x3 
 .data.mem_listener.10798
                0x200031f0       0x10 examples/light_switch/server/CMakeFiles/light_switch_server_nrf52840_xxAA_s140_5.0.0-3.alpha.dir/__/__/__/mesh/access/src/device_state_manager.c.obj
 .data.mem_listener.10824
                0x20003200       0x10 examples/light_switch/server/CMakeFiles/light_switch_server_nrf52840_xxAA_s140_5.0.0-3.alpha.dir/__/__/__/mesh/access/src/device_state_manager.c.obj
 .data.m_unprov_report
                0x20003210        0x1 examples/light_switch/server/CMakeFiles/light_switch_server_nrf52840_xxAA_s140_5.0.0-3.alpha.dir/__/__/__/mesh/prov/src/prov_beacon.c.obj
 *fill*         0x20003211        0x3 
 .data.m_async_process_flag
                0x20003214        0x4 examples/light_switch/server/CMakeFiles/light_switch_server_nrf52840_xxAA_s140_5.0.0-3.alpha.dir/__/__/__/mesh/prov/src/prov_bearer_adv.c.obj
 .data.SystemCoreClock
                0x20003218        0x4 examples/light_switch/server/CMakeFiles/light_switch_server_nrf52840_xxAA_s140_5.0.0-3.alpha.dir/__/__/__/external/nRF5_SDK_14.0.0_3bcc1f7/components/toolchain/system_nrf52840.c.obj
                0x20003218                SystemCoreClock
 .data.mem_listener.10018
                0x2000321c       0x10 mesh/core/libmesh_core_nrf52840_xxAA.a(net_state.c.obj)
 .data.mem_listener.10023
                0x2000322c       0x10 mesh/core/libmesh_core_nrf52840_xxAA.a(net_state.c.obj)
 .data.mem_listener.10037
                0x2000323c       0x10 mesh/core/libmesh_core_nrf52840_xxAA.a(net_state.c.obj)
 .data.g_log_debug_level
                0x2000324c        0x4 mesh/core/libmesh_core_nrf52840_xxAA.a(log.c.obj)
                0x2000324c                g_log_debug_level
 .data.g_log_debug_msk
                0x20003250        0x4 mesh/core/libmesh_core_nrf52840_xxAA.a(log.c.obj)
                0x20003250                g_log_debug_msk
 .data.g_log_hex_digits
                0x20003254        0x4 mesh/core/libmesh_core_nrf52840_xxAA.a(log.c.obj)
                0x20003254                g_log_hex_digits
 .data.m_log_callback
                0x20003258        0x4 mesh/core/libmesh_core_nrf52840_xxAA.a(log.c.obj)
                0x20003258                m_log_callback
 .data.g_rng_function
                0x2000325c        0x4 external/micro-ecc/libuECC_nrf52840_xxAA.a(uECC.c.obj)
 .data._impure_ptr
                0x20003260        0x4 c:/a/gcc_arm/6/bin/../lib/gcc/arm-none-eabi/6.3.1/../../../../arm-none-eabi/lib/thumb/v7e-m/fpv4-sp/hard\libc_nano.a(lib_a-impure.o)
                0x20003260                _impure_ptr
 .data.impure_data
                0x20003264       0x60 c:/a/gcc_arm/6/bin/../lib/gcc/arm-none-eabi/6.3.1/../../../../arm-none-eabi/lib/thumb/v7e-m/fpv4-sp/hard\libc_nano.a(lib_a-impure.o)
                0x200032c4                . = ALIGN (0x4)
                0x200032c4                PROVIDE (__preinit_array_start, .)
 *(.preinit_array)
                0x200032c4                PROVIDE (__preinit_array_end, .)
                0x200032c4                . = ALIGN (0x4)
                0x200032c4                PROVIDE (__init_array_start, .)
 *(SORT(.init_array.*))
 *(.init_array)
 .init_array    0x200032c4        0x4 c:/a/gcc_arm/6/bin/../lib/gcc/arm-none-eabi/6.3.1/thumb/v7e-m/fpv4-sp/hard/crtbegin.o
                0x200032c8                PROVIDE (__init_array_end, .)
                0x200032c8                . = ALIGN (0x4)
                [!provide]                PROVIDE (__fini_array_start, .)
 *(SORT(.fini_array.*))
 *(.fini_array)
 .fini_array    0x200032c8        0x4 c:/a/gcc_arm/6/bin/../lib/gcc/arm-none-eabi/6.3.1/thumb/v7e-m/fpv4-sp/hard/crtbegin.o
                [!provide]                PROVIDE (__fini_array_end, .)
 *(.jcr*)
 .jcr           0x200032cc        0x0 c:/a/gcc_arm/6/bin/../lib/gcc/arm-none-eabi/6.3.1/thumb/v7e-m/fpv4-sp/hard/crtbegin.o
 .jcr           0x200032cc        0x4 c:/a/gcc_arm/6/bin/../lib/gcc/arm-none-eabi/6.3.1/thumb/v7e-m/fpv4-sp/hard/crtend.o
                0x200032d0                . = ALIGN (0x4)
                0x200032d0                __data_end__ = .

.igot.plt       0x200032d0        0x0 load address 0x0003da4c
 .igot.plt      0x200032d0        0x0 c:/a/gcc_arm/6/bin/../lib/gcc/arm-none-eabi/6.3.1/thumb/v7e-m/fpv4-sp/hard/crtbegin.o

.bss            0x200032d0     0x2e54 load address 0x0003da50
                0x200032d0                . = ALIGN (0x4)
                0x200032d0                __bss_start__ = .
 *(.bss*)
 .bss           0x200032d0       0x1c c:/a/gcc_arm/6/bin/../lib/gcc/arm-none-eabi/6.3.1/thumb/v7e-m/fpv4-sp/hard/crtbegin.o
 .bss.config_params.10840
                0x200032ec       0x3c examples/light_switch/server/CMakeFiles/light_switch_server_nrf52840_xxAA_s140_5.0.0-3.alpha.dir/src/main.c.obj
 .bss.m_server  0x20003328        0xc examples/light_switch/server/CMakeFiles/light_switch_server_nrf52840_xxAA_s140_5.0.0-3.alpha.dir/src/main.c.obj
 .bss.m_ble_evt_buffer
                0x20003334       0x57 examples/light_switch/server/CMakeFiles/light_switch_server_nrf52840_xxAA_s140_5.0.0-3.alpha.dir/__/__/nrf_mesh_sdk.c.obj
 *fill*         0x2000338b        0x1 
 .bss.m_button_handler_cb
                0x2000338c        0x4 examples/light_switch/server/CMakeFiles/light_switch_server_nrf52840_xxAA_s140_5.0.0-3.alpha.dir/__/__/hal/src/simple_hal.c.obj
 .bss.m_last_button_press
                0x20003390        0x4 examples/light_switch/server/CMakeFiles/light_switch_server_nrf52840_xxAA_s140_5.0.0-3.alpha.dir/__/__/hal/src/simple_hal.c.obj
 .bss.m_attention_timer
                0x20003394       0x18 examples/light_switch/server/CMakeFiles/light_switch_server_nrf52840_xxAA_s140_5.0.0-3.alpha.dir/__/__/__/models/health/src/health_server.c.obj
 .bss.mp_attention_list
                0x200033ac        0x4 examples/light_switch/server/CMakeFiles/light_switch_server_nrf52840_xxAA_s140_5.0.0-3.alpha.dir/__/__/__/models/health/src/health_server.c.obj
 .bss.m_publish_timer
                0x200033b0       0x18 examples/light_switch/server/CMakeFiles/light_switch_server_nrf52840_xxAA_s140_5.0.0-3.alpha.dir/__/__/__/mesh/access/src/access_publish.c.obj
 .bss.m_publish_timer_counter
                0x200033c8        0x4 examples/light_switch/server/CMakeFiles/light_switch_server_nrf52840_xxAA_s140_5.0.0-3.alpha.dir/__/__/__/mesh/access/src/access_publish.c.obj
 .bss.m_publish_timer_running
                0x200033cc        0x1 examples/light_switch/server/CMakeFiles/light_switch_server_nrf52840_xxAA_s140_5.0.0-3.alpha.dir/__/__/__/mesh/access/src/access_publish.c.obj
 .bss.m_timer_resolution
                0x200033cd        0x1 examples/light_switch/server/CMakeFiles/light_switch_server_nrf52840_xxAA_s140_5.0.0-3.alpha.dir/__/__/__/mesh/access/src/access_publish.c.obj
 *fill*         0x200033ce        0x2 
 .bss.mp_publication_list
                0x200033d0        0x4 examples/light_switch/server/CMakeFiles/light_switch_server_nrf52840_xxAA_s140_5.0.0-3.alpha.dir/__/__/__/mesh/access/src/access_publish.c.obj
 .bss.m_element_pool
                0x200033d4        0x6 examples/light_switch/server/CMakeFiles/light_switch_server_nrf52840_xxAA_s140_5.0.0-3.alpha.dir/__/__/__/mesh/access/src/access.c.obj
 *fill*         0x200033da        0x2 
 .bss.m_evt_handler
                0x200033dc        0x8 examples/light_switch/server/CMakeFiles/light_switch_server_nrf52840_xxAA_s140_5.0.0-3.alpha.dir/__/__/__/mesh/access/src/access.c.obj
 .bss.m_flash_manager
                0x200033e4       0x24 examples/light_switch/server/CMakeFiles/light_switch_server_nrf52840_xxAA_s140_5.0.0-3.alpha.dir/__/__/__/mesh/access/src/access.c.obj
 .bss.m_flash_not_ready
                0x20003408        0x1 examples/light_switch/server/CMakeFiles/light_switch_server_nrf52840_xxAA_s140_5.0.0-3.alpha.dir/__/__/__/mesh/access/src/access.c.obj
 .bss.m_metadata_stored
                0x20003409        0x1 examples/light_switch/server/CMakeFiles/light_switch_server_nrf52840_xxAA_s140_5.0.0-3.alpha.dir/__/__/__/mesh/access/src/access.c.obj
 *fill*         0x2000340a        0x2 
 .bss.m_model_pool
                0x2000340c       0x9c examples/light_switch/server/CMakeFiles/light_switch_server_nrf52840_xxAA_s140_5.0.0-3.alpha.dir/__/__/__/mesh/access/src/access.c.obj
 .bss.m_subscription_list_pool
                0x200034a8        0x8 examples/light_switch/server/CMakeFiles/light_switch_server_nrf52840_xxAA_s140_5.0.0-3.alpha.dir/__/__/__/mesh/access/src/access.c.obj
 .bss.m_reliable
                0x200034b0       0x94 examples/light_switch/server/CMakeFiles/light_switch_server_nrf52840_xxAA_s140_5.0.0-3.alpha.dir/__/__/__/mesh/access/src/access_reliable.c.obj
 .bss.m_addr_nonvirtual_allocated
                0x20003544        0x4 examples/light_switch/server/CMakeFiles/light_switch_server_nrf52840_xxAA_s140_5.0.0-3.alpha.dir/__/__/__/mesh/access/src/device_state_manager.c.obj
 .bss.m_addr_nonvirtual_needs_flashing
                0x20003548        0x4 examples/light_switch/server/CMakeFiles/light_switch_server_nrf52840_xxAA_s140_5.0.0-3.alpha.dir/__/__/__/mesh/access/src/device_state_manager.c.obj
 .bss.m_addr_unicast_allocated
                0x2000354c        0x4 examples/light_switch/server/CMakeFiles/light_switch_server_nrf52840_xxAA_s140_5.0.0-3.alpha.dir/__/__/__/mesh/access/src/device_state_manager.c.obj
 .bss.m_addr_unicast_needs_flashing
                0x20003550        0x4 examples/light_switch/server/CMakeFiles/light_switch_server_nrf52840_xxAA_s140_5.0.0-3.alpha.dir/__/__/__/mesh/access/src/device_state_manager.c.obj
 .bss.m_addr_virtual_allocated
                0x20003554        0x4 examples/light_switch/server/CMakeFiles/light_switch_server_nrf52840_xxAA_s140_5.0.0-3.alpha.dir/__/__/__/mesh/access/src/device_state_manager.c.obj
 .bss.m_addr_virtual_needs_flashing
                0x20003558        0x4 examples/light_switch/server/CMakeFiles/light_switch_server_nrf52840_xxAA_s140_5.0.0-3.alpha.dir/__/__/__/mesh/access/src/device_state_manager.c.obj
 .bss.m_addresses
                0x2000355c        0xc examples/light_switch/server/CMakeFiles/light_switch_server_nrf52840_xxAA_s140_5.0.0-3.alpha.dir/__/__/__/mesh/access/src/device_state_manager.c.obj
 .bss.m_appkey_allocated
                0x20003568        0x4 examples/light_switch/server/CMakeFiles/light_switch_server_nrf52840_xxAA_s140_5.0.0-3.alpha.dir/__/__/__/mesh/access/src/device_state_manager.c.obj
 .bss.m_appkey_needs_flashing
                0x2000356c        0x4 examples/light_switch/server/CMakeFiles/light_switch_server_nrf52840_xxAA_s140_5.0.0-3.alpha.dir/__/__/__/mesh/access/src/device_state_manager.c.obj
 .bss.m_appkeys
                0x20003570       0x16 examples/light_switch/server/CMakeFiles/light_switch_server_nrf52840_xxAA_s140_5.0.0-3.alpha.dir/__/__/__/mesh/access/src/device_state_manager.c.obj
 *fill*         0x20003586        0x2 
 .bss.m_devkey_allocated
                0x20003588        0x4 examples/light_switch/server/CMakeFiles/light_switch_server_nrf52840_xxAA_s140_5.0.0-3.alpha.dir/__/__/__/mesh/access/src/device_state_manager.c.obj
 .bss.m_devkey_needs_flashing
                0x2000358c        0x4 examples/light_switch/server/CMakeFiles/light_switch_server_nrf52840_xxAA_s140_5.0.0-3.alpha.dir/__/__/__/mesh/access/src/device_state_manager.c.obj
 .bss.m_devkeys
                0x20003590       0x16 examples/light_switch/server/CMakeFiles/light_switch_server_nrf52840_xxAA_s140_5.0.0-3.alpha.dir/__/__/__/mesh/access/src/device_state_manager.c.obj
 .bss.m_flash_is_available
                0x200035a6        0x1 examples/light_switch/server/CMakeFiles/light_switch_server_nrf52840_xxAA_s140_5.0.0-3.alpha.dir/__/__/__/mesh/access/src/device_state_manager.c.obj
 *fill*         0x200035a7        0x1 
 .bss.m_flash_manager
                0x200035a8       0x24 examples/light_switch/server/CMakeFiles/light_switch_server_nrf52840_xxAA_s140_5.0.0-3.alpha.dir/__/__/__/mesh/access/src/device_state_manager.c.obj
 .bss.m_flash_mem_listener_update_all
                0x200035cc       0x10 examples/light_switch/server/CMakeFiles/light_switch_server_nrf52840_xxAA_s140_5.0.0-3.alpha.dir/__/__/__/mesh/access/src/device_state_manager.c.obj
 .bss.m_has_primary_subnet
                0x200035dc        0x1 examples/light_switch/server/CMakeFiles/light_switch_server_nrf52840_xxAA_s140_5.0.0-3.alpha.dir/__/__/__/mesh/access/src/device_state_manager.c.obj
 *fill*         0x200035dd        0x3 
 .bss.m_local_unicast_addr
                0x200035e0        0x4 examples/light_switch/server/CMakeFiles/light_switch_server_nrf52840_xxAA_s140_5.0.0-3.alpha.dir/__/__/__/mesh/access/src/device_state_manager.c.obj
 .bss.m_subnet_allocated
                0x200035e4        0x4 examples/light_switch/server/CMakeFiles/light_switch_server_nrf52840_xxAA_s140_5.0.0-3.alpha.dir/__/__/__/mesh/access/src/device_state_manager.c.obj
 .bss.m_subnet_needs_flashing
                0x200035e8        0x4 examples/light_switch/server/CMakeFiles/light_switch_server_nrf52840_xxAA_s140_5.0.0-3.alpha.dir/__/__/__/mesh/access/src/device_state_manager.c.obj
 .bss.m_subnets
                0x200035ec       0x5c examples/light_switch/server/CMakeFiles/light_switch_server_nrf52840_xxAA_s140_5.0.0-3.alpha.dir/__/__/__/mesh/access/src/device_state_manager.c.obj
 .bss.m_virtual_addresses
                0x20003648       0x14 examples/light_switch/server/CMakeFiles/light_switch_server_nrf52840_xxAA_s140_5.0.0-3.alpha.dir/__/__/__/mesh/access/src/device_state_manager.c.obj
 .bss.m_offload_ecdh
                0x2000365c        0x1 examples/light_switch/server/CMakeFiles/light_switch_server_nrf52840_xxAA_s140_5.0.0-3.alpha.dir/__/__/__/mesh/prov/src/prov_utils.c.obj
 *fill*         0x2000365d        0x3 
 .bss.mp_bearer_head
                0x20003660        0x4 examples/light_switch/server/CMakeFiles/light_switch_server_nrf52840_xxAA_s140_5.0.0-3.alpha.dir/__/__/__/mesh/prov/src/prov_bearer_adv.c.obj
 .bss.m_evt_handler
                0x20003664        0x8 examples/light_switch/server/CMakeFiles/light_switch_server_nrf52840_xxAA_s140_5.0.0-3.alpha.dir/__/__/__/mesh/access/src/nrf_mesh_node_config.c.obj
 .bss.m_health_server
                0x2000366c       0x5c examples/light_switch/server/CMakeFiles/light_switch_server_nrf52840_xxAA_s140_5.0.0-3.alpha.dir/__/__/__/mesh/access/src/nrf_mesh_node_config.c.obj
 .bss.m_node_provisioned
                0x200036c8        0x1 examples/light_switch/server/CMakeFiles/light_switch_server_nrf52840_xxAA_s140_5.0.0-3.alpha.dir/__/__/__/mesh/access/src/nrf_mesh_node_config.c.obj
 *fill*         0x200036c9        0x3 
 .bss.m_private_key
                0x200036cc       0x20 examples/light_switch/server/CMakeFiles/light_switch_server_nrf52840_xxAA_s140_5.0.0-3.alpha.dir/__/__/__/mesh/access/src/nrf_mesh_node_config.c.obj
 .bss.m_prov_ctx
                0x200036ec      0x2fc examples/light_switch/server/CMakeFiles/light_switch_server_nrf52840_xxAA_s140_5.0.0-3.alpha.dir/__/__/__/mesh/access/src/nrf_mesh_node_config.c.obj
 .bss.m_public_key
                0x200039e8       0x40 examples/light_switch/server/CMakeFiles/light_switch_server_nrf52840_xxAA_s140_5.0.0-3.alpha.dir/__/__/__/mesh/access/src/nrf_mesh_node_config.c.obj
 .bss.mp_init_params
                0x20003a28        0x4 examples/light_switch/server/CMakeFiles/light_switch_server_nrf52840_xxAA_s140_5.0.0-3.alpha.dir/__/__/__/mesh/access/src/nrf_mesh_node_config.c.obj
 .bss.m_uuid    0x20003a2c       0x10 mesh/core/libmesh_core_nrf52840_xxAA.a(nrf_mesh_configure.c.obj)
 .bss.mp_evt_handlers_head
                0x20003a3c        0x4 mesh/core/libmesh_core_nrf52840_xxAA.a(event.c.obj)
 .bss.lock_count.10077
                0x20003a40        0x4 mesh/core/libmesh_core_nrf52840_xxAA.a(net_state.c.obj)
 .bss.m_flash_manager
                0x20003a44       0x24 mesh/core/libmesh_core_nrf52840_xxAA.a(net_state.c.obj)
 .bss.m_iv_update_timer
                0x20003a68       0x18 mesh/core/libmesh_core_nrf52840_xxAA.a(net_state.c.obj)
 .bss.m_net_state
                0x20003a80       0x14 mesh/core/libmesh_core_nrf52840_xxAA.a(net_state.c.obj)
 .bss.m_seqnum_allocation_in_progress
                0x20003a94        0x1 mesh/core/libmesh_core_nrf52840_xxAA.a(net_state.c.obj)
 .bss.m_test_mode
                0x20003a95        0x1 mesh/core/libmesh_core_nrf52840_xxAA.a(net_state.c.obj)
 .bss.m_is_enabled
                0x20003a96        0x1 mesh/core/libmesh_core_nrf52840_xxAA.a(nrf_mesh.c.obj)
 .bss.m_is_initialized
                0x20003a97        0x1 mesh/core/libmesh_core_nrf52840_xxAA.a(nrf_mesh.c.obj)
 .bss.m_rx_cb   0x20003a98        0x4 mesh/core/libmesh_core_nrf52840_xxAA.a(nrf_mesh.c.obj)
 .bss.m_event_flag
                0x20003a9c        0x4 mesh/core/libmesh_core_nrf52840_xxAA.a(timer_scheduler.c.obj)
 .bss.m_scheduler
                0x20003aa0       0x10 mesh/core/libmesh_core_nrf52840_xxAA.a(timer_scheduler.c.obj)
 .bss.m_attributes
                0x20003ab0        0x3 mesh/core/libmesh_core_nrf52840_xxAA.a(timer.c.obj)
 *fill*         0x20003ab3        0x1 
 .bss.m_callbacks
                0x20003ab4        0xc mesh/core/libmesh_core_nrf52840_xxAA.a(timer.c.obj)
 .bss.m_is_in_ts
                0x20003ac0        0x1 mesh/core/libmesh_core_nrf52840_xxAA.a(timer.c.obj)
 *fill*         0x20003ac1        0x3 
 .bss.m_reference_time
                0x20003ac4        0x4 mesh/core/libmesh_core_nrf52840_xxAA.a(timer.c.obj)
 .bss.m_timeouts
                0x20003ac8        0xc mesh/core/libmesh_core_nrf52840_xxAA.a(timer.c.obj)
 .bss.m_timer_mut
                0x20003ad4        0x4 mesh/core/libmesh_core_nrf52840_xxAA.a(timer.c.obj)
 .bss.m_ts_end_time
                0x20003ad8        0x4 mesh/core/libmesh_core_nrf52840_xxAA.a(timer.c.obj)
 .bss.mp_ppi_tasks
                0x20003adc        0xc mesh/core/libmesh_core_nrf52840_xxAA.a(timer.c.obj)
 .bss.m_current_time
                0x20003ae8        0x4 mesh/core/libmesh_core_nrf52840_xxAA.a(ticker.c.obj)
 .bss.m_timer   0x20003aec       0x18 mesh/core/libmesh_core_nrf52840_xxAA.a(ticker.c.obj)
 .bss.m_current_timeslot
                0x20003b04       0x1c mesh/core/libmesh_core_nrf52840_xxAA.a(timeslot.c.obj)
 .bss.m_lfclk_ppm
                0x20003b20        0x4 mesh/core/libmesh_core_nrf52840_xxAA.a(timeslot.c.obj)
 .bss.m_radio_request_earliest
                0x20003b24       0x10 mesh/core/libmesh_core_nrf52840_xxAA.a(timeslot.c.obj)
 .bss.m_state_lock
                0x20003b34        0x1 mesh/core/libmesh_core_nrf52840_xxAA.a(timeslot.c.obj)
 .bss.m_timeslot_forced_command
                0x20003b35        0x1 mesh/core/libmesh_core_nrf52840_xxAA.a(timeslot.c.obj)
 *fill*         0x20003b36        0x2 
 .bss.s_last_rtc_value.9342
                0x20003b38        0x8 mesh/core/libmesh_core_nrf52840_xxAA.a(timeslot.c.obj)
 .bss.m_bearer_event_fifo
                0x20003b40       0x14 mesh/core/libmesh_core_nrf52840_xxAA.a(bearer_event.c.obj)
 .bss.m_bearer_event_fifo_buffer
                0x20003b54      0x100 mesh/core/libmesh_core_nrf52840_xxAA.a(bearer_event.c.obj)
 .bss.m_critical
                0x20003c54        0x4 mesh/core/libmesh_core_nrf52840_xxAA.a(bearer_event.c.obj)
 .bss.m_flag_count
                0x20003c58        0x4 mesh/core/libmesh_core_nrf52840_xxAA.a(bearer_event.c.obj)
 .bss.m_flag_event_callbacks
                0x20003c5c       0x18 mesh/core/libmesh_core_nrf52840_xxAA.a(bearer_event.c.obj)
 .bss.m_flags   0x20003c74        0x4 mesh/core/libmesh_core_nrf52840_xxAA.a(bearer_event.c.obj)
 .bss.m_sequential_event_queue
                0x20003c78        0x8 mesh/core/libmesh_core_nrf52840_xxAA.a(bearer_event.c.obj)
 .bss.m_relay_check_cb
                0x20003c80        0x4 mesh/core/libmesh_core_nrf52840_xxAA.a(network.c.obj)
 .bss.m_relay_enable
                0x20003c84        0x1 mesh/core/libmesh_core_nrf52840_xxAA.a(network.c.obj)
 *fill*         0x20003c85        0x3 
 .bss.m_action_queue
                0x20003c88        0xc mesh/core/libmesh_core_nrf52840_xxAA.a(flash_manager.c.obj)
 .bss.m_action_queue_buffer
                0x20003c94      0x104 mesh/core/libmesh_core_nrf52840_xxAA.a(flash_manager.c.obj)
 .bss.m_action_state
                0x20003d98        0x1 mesh/core/libmesh_core_nrf52840_xxAA.a(flash_manager.c.obj)
 *fill*         0x20003d99        0x3 
 .bss.m_memory_listener_queue
                0x20003d9c        0x8 mesh/core/libmesh_core_nrf52840_xxAA.a(flash_manager.c.obj)
 .bss.m_processing_flag
                0x20003da4        0x4 mesh/core/libmesh_core_nrf52840_xxAA.a(flash_manager.c.obj)
 .bss.m_state   0x20003da8        0x1 mesh/core/libmesh_core_nrf52840_xxAA.a(flash_manager.c.obj)
 *fill*         0x20003da9        0x1 
 .bss.m_token   0x20003daa        0x2 mesh/core/libmesh_core_nrf52840_xxAA.a(flash_manager.c.obj)
 .bss.p_current.11194
                0x20003dac        0x4 mesh/core/libmesh_core_nrf52840_xxAA.a(flash_manager.c.obj)
 .bss.result.11195
                0x20003db0        0x1 mesh/core/libmesh_core_nrf52840_xxAA.a(flash_manager.c.obj)
 *fill*         0x20003db1        0x3 
 .bss.m_adv_buffer
                0x20003db4       0x68 mesh/core/libmesh_core_nrf52840_xxAA.a(beacon.c.obj)
 .bss.m_advertiser
                0x20003e1c       0x94 mesh/core/libmesh_core_nrf52840_xxAA.a(beacon.c.obj)
 .bss.m_adv_tx_count
                0x20003eb0        0x8 mesh/core/libmesh_core_nrf52840_xxAA.a(core_tx.c.obj)
 .bss.m_advertisers
                0x20003eb8      0x128 mesh/core/libmesh_core_nrf52840_xxAA.a(core_tx.c.obj)
 .bss.m_originator_adv_packet_buffer
                0x20003fe0      0x100 mesh/core/libmesh_core_nrf52840_xxAA.a(core_tx.c.obj)
 .bss.m_relay_adv_packet_buffer
                0x200040e0       0x80 mesh/core/libmesh_core_nrf52840_xxAA.a(core_tx.c.obj)
 .bss.m_tx_complete_callback
                0x20004160        0x4 mesh/core/libmesh_core_nrf52840_xxAA.a(core_tx.c.obj)
 .bss.m_beacon_salt
                0x20004164       0x10 mesh/core/libmesh_core_nrf52840_xxAA.a(net_beacon.c.obj)
 .bss.m_enabled
                0x20004174        0x1 mesh/core/libmesh_core_nrf52840_xxAA.a(net_beacon.c.obj)
 *fill*         0x20004175        0x3 
 .bss.m_tx_event
                0x20004178       0x18 mesh/core/libmesh_core_nrf52840_xxAA.a(net_beacon.c.obj)
 .bss.m_adv_prng
                0x20004190       0x10 mesh/core/libmesh_core_nrf52840_xxAA.a(advertiser.c.obj)
 .bss.m_action_queue
                0x200041a0        0x8 mesh/core/libmesh_core_nrf52840_xxAA.a(bearer_handler.c.obj)
 .bss.m_end_time
                0x200041a8        0x4 mesh/core/libmesh_core_nrf52840_xxAA.a(bearer_handler.c.obj)
 .bss.m_scanner_is_active
                0x200041ac        0x1 mesh/core/libmesh_core_nrf52840_xxAA.a(bearer_handler.c.obj)
 .bss.m_stopped
                0x200041ad        0x1 mesh/core/libmesh_core_nrf52840_xxAA.a(bearer_handler.c.obj)
 *fill*         0x200041ae        0x2 
 .bss.mp_action
                0x200041b0        0x4 mesh/core/libmesh_core_nrf52840_xxAA.a(bearer_handler.c.obj)
 .bss.m_next_channel_index
                0x200041b4        0x1 mesh/core/libmesh_core_nrf52840_xxAA.a(broadcast.c.obj)
 *fill*         0x200041b5        0x3 
 .bss.m_scanner
                0x200041b8      0x284 mesh/core/libmesh_core_nrf52840_xxAA.a(scanner.c.obj)
 .bss.m_internal_event_fifo
                0x2000443c       0x14 mesh/core/libmesh_core_nrf52840_xxAA.a(internal_event.c.obj)
 .bss.m_internal_event_initialized
                0x20004450        0x1 mesh/core/libmesh_core_nrf52840_xxAA.a(internal_event.c.obj)
 *fill*         0x20004451        0x3 
 .bss.m_report_cb
                0x20004454        0x4 mesh/core/libmesh_core_nrf52840_xxAA.a(internal_event.c.obj)
 .bss.m_msg_cache
                0x20004458      0x100 mesh/core/libmesh_core_nrf52840_xxAA.a(msg_cache.c.obj)
 .bss.m_msg_cache_head
                0x20004558        0x4 mesh/core/libmesh_core_nrf52840_xxAA.a(msg_cache.c.obj)
 .bss.m_sar_alloc
                0x2000455c        0x4 mesh/core/libmesh_core_nrf52840_xxAA.a(transport.c.obj)
 .bss.m_sar_process_flag
                0x20004560        0x4 mesh/core/libmesh_core_nrf52840_xxAA.a(transport.c.obj)
 .bss.m_sar_release
                0x20004564        0x4 mesh/core/libmesh_core_nrf52840_xxAA.a(transport.c.obj)
 .bss.m_sar_session_cache
                0x20004568       0x40 mesh/core/libmesh_core_nrf52840_xxAA.a(transport.c.obj)
 .bss.m_sar_session_cache_head
                0x200045a8        0x4 mesh/core/libmesh_core_nrf52840_xxAA.a(transport.c.obj)
 .bss.m_trs_config
                0x200045ac       0x18 mesh/core/libmesh_core_nrf52840_xxAA.a(transport.c.obj)
 .bss.m_trs_sar_sessions
                0x200045c4      0x1b0 mesh/core/libmesh_core_nrf52840_xxAA.a(transport.c.obj)
 .bss.m_defrag  0x20004774       0x1c mesh/core/libmesh_core_nrf52840_xxAA.a(flash_manager_defrag.c.obj)
 .bss.m_token   0x20004790        0x2 mesh/core/libmesh_core_nrf52840_xxAA.a(flash_manager_defrag.c.obj)
 *fill*         0x20004792        0x2 
 .bss.mp_recovery_area
                0x20004794        0x4 mesh/core/libmesh_core_nrf52840_xxAA.a(flash_manager_defrag.c.obj)
 .bss.p_null_ptr.10247
                0x20004798        0x4 mesh/core/libmesh_core_nrf52840_xxAA.a(flash_manager_defrag.c.obj)
 .bss.m_pool    0x2000479c     0x1000 mesh/core/libmesh_core_nrf52840_xxAA.a(packet_mgr.c.obj)
 .bss.mp_free_head
                0x2000579c        0x4 mesh/core/libmesh_core_nrf52840_xxAA.a(packet_mgr.c.obj)
 .bss.m_event_flag
                0x200057a0        0x4 mesh/core/libmesh_core_nrf52840_xxAA.a(mesh_flash.c.obj)
 .bss.m_suspended
                0x200057a4        0x1 mesh/core/libmesh_core_nrf52840_xxAA.a(mesh_flash.c.obj)
 *fill*         0x200057a5        0x3 
 .bss.m_users   0x200057a8      0x228 mesh/core/libmesh_core_nrf52840_xxAA.a(mesh_flash.c.obj)
 .bss.m_128buf  0x200059d0       0x10 mesh/core/libmesh_core_nrf52840_xxAA.a(aes_cmac.c.obj)
 .bss.m_subkey1
                0x200059e0       0x10 mesh/core/libmesh_core_nrf52840_xxAA.a(aes_cmac.c.obj)
 .bss.m_subkey2
                0x200059f0       0x10 mesh/core/libmesh_core_nrf52840_xxAA.a(aes_cmac.c.obj)
 .bss.m_cache_full
                0x20005a00        0x1 mesh/core/libmesh_core_nrf52840_xxAA.a(replay_cache.c.obj)
 .bss.m_cache_index
                0x20005a01        0x1 mesh/core/libmesh_core_nrf52840_xxAA.a(replay_cache.c.obj)
 *fill*         0x20005a02        0x2 
 .bss.m_replay_cache
                0x20005a04      0x200 mesh/core/libmesh_core_nrf52840_xxAA.a(replay_cache.c.obj)
 .bss.m_accepted_amount
                0x20005c04        0x4 mesh/core/libmesh_core_nrf52840_xxAA.a(filter_engine.c.obj)
 .bss.m_filter_list_head
                0x20005c08        0x4 mesh/core/libmesh_core_nrf52840_xxAA.a(filter_engine.c.obj)
 .bss._acDownBuffer
                0x20005c0c       0x80 external/rtt/librtt_nrf52840_xxAA.a(SEGGER_RTT.c.obj)
 .bss._acUpBuffer
                0x20005c8c      0x400 external/rtt/librtt_nrf52840_xxAA.a(SEGGER_RTT.c.obj)
 .bss.__malloc_free_list
                0x2000608c        0x4 c:/a/gcc_arm/6/bin/../lib/gcc/arm-none-eabi/6.3.1/../../../../arm-none-eabi/lib/thumb/v7e-m/fpv4-sp/hard\libc_nano.a(lib_a-nano-mallocr.o)
                0x2000608c                __malloc_free_list
 .bss.__malloc_sbrk_start
                0x20006090        0x4 c:/a/gcc_arm/6/bin/../lib/gcc/arm-none-eabi/6.3.1/../../../../arm-none-eabi/lib/thumb/v7e-m/fpv4-sp/hard\libc_nano.a(lib_a-nano-mallocr.o)
                0x20006090                __malloc_sbrk_start
 .bss.heap_end.5239
                0x20006094        0x4 c:/a/gcc_arm/6/bin/../lib/gcc/arm-none-eabi/6.3.1/../../../../arm-none-eabi/lib/thumb/v7e-m/fpv4-sp/hard\libnosys.a(sbrk.o)
 *(COMMON)
 COMMON         0x20006098        0xc examples/light_switch/server/CMakeFiles/light_switch_server_nrf52840_xxAA_s140_5.0.0-3.alpha.dir/__/__/nrf_mesh_sdk.c.obj
                0x20006098                nrf_nvic_state
 COMMON         0x200060a4        0x4 mesh/core/libmesh_core_nrf52840_xxAA.a(nrf_mesh.c.obj)
                0x200060a4                m_assertion_handler
 COMMON         0x200060a8       0x78 external/rtt/librtt_nrf52840_xxAA.a(SEGGER_RTT.c.obj)
                0x200060a8                _SEGGER_RTT
 COMMON         0x20006120        0x4 c:/a/gcc_arm/6/bin/../lib/gcc/arm-none-eabi/6.3.1/../../../../arm-none-eabi/lib/thumb/v7e-m/fpv4-sp/hard\libc_nano.a(lib_a-reent.o)
                0x20006120                errno
                0x20006124                . = ALIGN (0x4)
                0x20006124                __bss_end__ = .

.heap           0x20006128     0x2000
                0x20006128                __HeapBase = .
                0x20006128                __end__ = .
                0x20006128                PROVIDE (end, .)
 *(.heap*)
 .heap          0x20006128     0x2000 examples/light_switch/server/CMakeFiles/light_switch_server_nrf52840_xxAA_s140_5.0.0-3.alpha.dir/__/__/__/external/nRF5_SDK_14.0.0_3bcc1f7/components/toolchain/gcc/gcc_startup_nrf52840.S.obj
                0x20008128                __HeapLimit = .

.stack_dummy    0x20006128     0x2000
 *(.stack*)
 .stack         0x20006128     0x2000 examples/light_switch/server/CMakeFiles/light_switch_server_nrf52840_xxAA_s140_5.0.0-3.alpha.dir/__/__/__/external/nRF5_SDK_14.0.0_3bcc1f7/components/toolchain/gcc/gcc_startup_nrf52840.S.obj
                0x2003f002                __StackTop = (ORIGIN (RAM) + LENGTH (RAM))
                0x2003d002                __StackLimit = (__StackTop - SIZEOF (.stack_dummy))
                0x2003f002                PROVIDE (__stack, __StackTop)
                0x00000001                ASSERT ((__StackLimit >= __HeapLimit), region RAM overflowed with stack)
OUTPUT(examples\light_switch\server\light_switch_server_nrf52840_xxAA_s140_5.0.0-3.alpha.elf elf32-littlearm)

.ARM.attributes
                0x00000000       0x30
 .ARM.attributes
                0x00000000       0x22 c:/a/gcc_arm/6/bin/../lib/gcc/arm-none-eabi/6.3.1/thumb/v7e-m/fpv4-sp/hard/crti.o
 .ARM.attributes
                0x00000022       0x34 c:/a/gcc_arm/6/bin/../lib/gcc/arm-none-eabi/6.3.1/thumb/v7e-m/fpv4-sp/hard/crtbegin.o
 .ARM.attributes
                0x00000056       0x20 c:/a/gcc_arm/6/bin/../lib/gcc/arm-none-eabi/6.3.1/../../../../arm-none-eabi/lib/thumb/v7e-m/fpv4-sp/hard/crt0.o
 .ARM.attributes
                0x00000076       0x39 examples/light_switch/server/CMakeFiles/light_switch_server_nrf52840_xxAA_s140_5.0.0-3.alpha.dir/src/main.c.obj
 .ARM.attributes
                0x000000af       0x39 examples/light_switch/server/CMakeFiles/light_switch_server_nrf52840_xxAA_s140_5.0.0-3.alpha.dir/__/__/nrf_mesh_sdk.c.obj
 .ARM.attributes
                0x000000e8       0x39 examples/light_switch/server/CMakeFiles/light_switch_server_nrf52840_xxAA_s140_5.0.0-3.alpha.dir/__/__/hal/src/simple_hal.c.obj
 .ARM.attributes
                0x00000121       0x39 examples/light_switch/server/CMakeFiles/light_switch_server_nrf52840_xxAA_s140_5.0.0-3.alpha.dir/__/__/nrf_mesh_weak.c.obj
 .ARM.attributes
                0x0000015a       0x39 examples/light_switch/server/CMakeFiles/light_switch_server_nrf52840_xxAA_s140_5.0.0-3.alpha.dir/__/__/__/models/simple_on_off/src/simple_on_off_server.c.obj
 .ARM.attributes
                0x00000193       0x39 examples/light_switch/server/CMakeFiles/light_switch_server_nrf52840_xxAA_s140_5.0.0-3.alpha.dir/__/__/__/models/config/src/composition_data.c.obj
 .ARM.attributes
                0x000001cc       0x39 examples/light_switch/server/CMakeFiles/light_switch_server_nrf52840_xxAA_s140_5.0.0-3.alpha.dir/__/__/__/models/config/src/config_server.c.obj
 .ARM.attributes
                0x00000205       0x39 examples/light_switch/server/CMakeFiles/light_switch_server_nrf52840_xxAA_s140_5.0.0-3.alpha.dir/__/__/__/models/config/src/packed_index_list.c.obj
 .ARM.attributes
                0x0000023e       0x39 examples/light_switch/server/CMakeFiles/light_switch_server_nrf52840_xxAA_s140_5.0.0-3.alpha.dir/__/__/__/models/health/src/health_server.c.obj
 .ARM.attributes
                0x00000277       0x39 examples/light_switch/server/CMakeFiles/light_switch_server_nrf52840_xxAA_s140_5.0.0-3.alpha.dir/__/__/__/mesh/access/src/access_publish.c.obj
 .ARM.attributes
                0x000002b0       0x39 examples/light_switch/server/CMakeFiles/light_switch_server_nrf52840_xxAA_s140_5.0.0-3.alpha.dir/__/__/__/mesh/access/src/access.c.obj
 .ARM.attributes
                0x000002e9       0x39 examples/light_switch/server/CMakeFiles/light_switch_server_nrf52840_xxAA_s140_5.0.0-3.alpha.dir/__/__/__/mesh/access/src/access_reliable.c.obj
 .ARM.attributes
                0x00000322       0x39 examples/light_switch/server/CMakeFiles/light_switch_server_nrf52840_xxAA_s140_5.0.0-3.alpha.dir/__/__/__/mesh/access/src/device_state_manager.c.obj
 .ARM.attributes
                0x0000035b       0x39 examples/light_switch/server/CMakeFiles/light_switch_server_nrf52840_xxAA_s140_5.0.0-3.alpha.dir/__/__/__/mesh/prov/src/prov_provisionee.c.obj
 .ARM.attributes
                0x00000394       0x39 examples/light_switch/server/CMakeFiles/light_switch_server_nrf52840_xxAA_s140_5.0.0-3.alpha.dir/__/__/__/mesh/prov/src/nrf_mesh_prov.c.obj
 .ARM.attributes
                0x000003cd       0x39 examples/light_switch/server/CMakeFiles/light_switch_server_nrf52840_xxAA_s140_5.0.0-3.alpha.dir/__/__/__/mesh/prov/src/provisioning.c.obj
 .ARM.attributes
                0x00000406       0x39 examples/light_switch/server/CMakeFiles/light_switch_server_nrf52840_xxAA_s140_5.0.0-3.alpha.dir/__/__/__/mesh/prov/src/prov_beacon.c.obj
 .ARM.attributes
                0x0000043f       0x39 examples/light_switch/server/CMakeFiles/light_switch_server_nrf52840_xxAA_s140_5.0.0-3.alpha.dir/__/__/__/mesh/prov/src/prov_utils.c.obj
 .ARM.attributes
                0x00000478       0x39 examples/light_switch/server/CMakeFiles/light_switch_server_nrf52840_xxAA_s140_5.0.0-3.alpha.dir/__/__/__/mesh/prov/src/prov_bearer_adv.c.obj
 .ARM.attributes
                0x000004b1       0x39 examples/light_switch/server/CMakeFiles/light_switch_server_nrf52840_xxAA_s140_5.0.0-3.alpha.dir/__/__/__/mesh/access/src/nrf_mesh_node_config.c.obj
 .ARM.attributes
                0x000004ea       0x39 examples/light_switch/server/CMakeFiles/light_switch_server_nrf52840_xxAA_s140_5.0.0-3.alpha.dir/__/__/__/external/nRF5_SDK_14.0.0_3bcc1f7/components/toolchain/system_nrf52840.c.obj
 .ARM.attributes
                0x00000523       0x20 examples/light_switch/server/CMakeFiles/light_switch_server_nrf52840_xxAA_s140_5.0.0-3.alpha.dir/__/__/__/external/nRF5_SDK_14.0.0_3bcc1f7/components/toolchain/gcc/gcc_startup_nrf52840.S.obj
 .ARM.attributes
                0x00000543       0x39 mesh/core/libmesh_core_nrf52840_xxAA.a(nrf_mesh_configure.c.obj)
 .ARM.attributes
                0x0000057c       0x39 mesh/core/libmesh_core_nrf52840_xxAA.a(event.c.obj)
 .ARM.attributes
                0x000005b5       0x39 mesh/core/libmesh_core_nrf52840_xxAA.a(net_state.c.obj)
 .ARM.attributes
                0x000005ee       0x39 mesh/core/libmesh_core_nrf52840_xxAA.a(nrf_mesh_utils.c.obj)
 .ARM.attributes
                0x00000627       0x39 mesh/core/libmesh_core_nrf52840_xxAA.a(nrf_mesh.c.obj)
 .ARM.attributes
                0x00000660       0x39 mesh/core/libmesh_core_nrf52840_xxAA.a(hal.c.obj)
 .ARM.attributes
                0x00000699       0x39 mesh/core/libmesh_core_nrf52840_xxAA.a(timer_scheduler.c.obj)
 .ARM.attributes
                0x000006d2       0x39 mesh/core/libmesh_core_nrf52840_xxAA.a(timer.c.obj)
 .ARM.attributes
                0x0000070b       0x39 mesh/core/libmesh_core_nrf52840_xxAA.a(ticker.c.obj)
 .ARM.attributes
                0x00000744       0x39 mesh/core/libmesh_core_nrf52840_xxAA.a(rand.c.obj)
 .ARM.attributes
                0x0000077d       0x39 mesh/core/libmesh_core_nrf52840_xxAA.a(nrf_mesh_opt.c.obj)
 .ARM.attributes
                0x000007b6       0x39 mesh/core/libmesh_core_nrf52840_xxAA.a(timeslot.c.obj)
 .ARM.attributes
                0x000007ef       0x39 mesh/core/libmesh_core_nrf52840_xxAA.a(bearer_event.c.obj)
 .ARM.attributes
                0x00000828       0x39 mesh/core/libmesh_core_nrf52840_xxAA.a(enc.c.obj)
 .ARM.attributes
                0x00000861       0x39 mesh/core/libmesh_core_nrf52840_xxAA.a(network.c.obj)
 .ARM.attributes
                0x0000089a       0x39 mesh/core/libmesh_core_nrf52840_xxAA.a(nrf_mesh_keygen.c.obj)
 .ARM.attributes
                0x000008d3       0x39 mesh/core/libmesh_core_nrf52840_xxAA.a(log.c.obj)
 .ARM.attributes
                0x0000090c       0x39 mesh/core/libmesh_core_nrf52840_xxAA.a(flash_manager.c.obj)
 .ARM.attributes
                0x00000945       0x39 mesh/core/libmesh_core_nrf52840_xxAA.a(ccm_soft.c.obj)
 .ARM.attributes
                0x0000097e       0x39 mesh/core/libmesh_core_nrf52840_xxAA.a(beacon.c.obj)
 .ARM.attributes
                0x000009b7       0x39 mesh/core/libmesh_core_nrf52840_xxAA.a(flash_manager_internal.c.obj)
 .ARM.attributes
                0x000009f0       0x39 mesh/core/libmesh_core_nrf52840_xxAA.a(core_tx.c.obj)
 .ARM.attributes
                0x00000a29       0x39 mesh/core/libmesh_core_nrf52840_xxAA.a(net_beacon.c.obj)
 .ARM.attributes
                0x00000a62       0x39 mesh/core/libmesh_core_nrf52840_xxAA.a(advertiser.c.obj)
 .ARM.attributes
                0x00000a9b       0x39 mesh/core/libmesh_core_nrf52840_xxAA.a(bearer_handler.c.obj)
 .ARM.attributes
                0x00000ad4       0x39 mesh/core/libmesh_core_nrf52840_xxAA.a(broadcast.c.obj)
 .ARM.attributes
                0x00000b0d       0x39 mesh/core/libmesh_core_nrf52840_xxAA.a(radio_config.c.obj)
 .ARM.attributes
                0x00000b46       0x39 mesh/core/libmesh_core_nrf52840_xxAA.a(scanner.c.obj)
 .ARM.attributes
                0x00000b7f       0x39 mesh/core/libmesh_core_nrf52840_xxAA.a(internal_event.c.obj)
 .ARM.attributes
                0x00000bb8       0x39 mesh/core/libmesh_core_nrf52840_xxAA.a(aes.c.obj)
 .ARM.attributes
                0x00000bf1       0x39 mesh/core/libmesh_core_nrf52840_xxAA.a(msg_cache.c.obj)
 .ARM.attributes
                0x00000c2a       0x39 mesh/core/libmesh_core_nrf52840_xxAA.a(transport.c.obj)
 .ARM.attributes
                0x00000c63       0x39 mesh/core/libmesh_core_nrf52840_xxAA.a(packet_buffer.c.obj)
 .ARM.attributes
                0x00000c9c       0x39 mesh/core/libmesh_core_nrf52840_xxAA.a(flash_manager_defrag.c.obj)
 .ARM.attributes
                0x00000cd5       0x39 mesh/core/libmesh_core_nrf52840_xxAA.a(fifo.c.obj)
 .ARM.attributes
                0x00000d0e       0x39 mesh/core/libmesh_core_nrf52840_xxAA.a(packet_mgr.c.obj)
 .ARM.attributes
                0x00000d47       0x39 mesh/core/libmesh_core_nrf52840_xxAA.a(mesh_flash.c.obj)
 .ARM.attributes
                0x00000d80       0x39 mesh/core/libmesh_core_nrf52840_xxAA.a(queue.c.obj)
 .ARM.attributes
                0x00000db9       0x39 mesh/core/libmesh_core_nrf52840_xxAA.a(aes_cmac.c.obj)
 .ARM.attributes
                0x00000df2       0x39 mesh/core/libmesh_core_nrf52840_xxAA.a(msqueue.c.obj)
 .ARM.attributes
                0x00000e2b       0x39 mesh/core/libmesh_core_nrf52840_xxAA.a(replay_cache.c.obj)
 .ARM.attributes
                0x00000e64       0x39 mesh/core/libmesh_core_nrf52840_xxAA.a(filter_engine.c.obj)
 .ARM.attributes
                0x00000e9d       0x39 mesh/core/libmesh_core_nrf52840_xxAA.a(nrf_flash.c.obj)
 .ARM.attributes
                0x00000ed6       0x39 external/rtt/librtt_nrf52840_xxAA.a(SEGGER_RTT.c.obj)
 .ARM.attributes
                0x00000f0f       0x39 external/rtt/librtt_nrf52840_xxAA.a(SEGGER_RTT_printf.c.obj)
 .ARM.attributes
                0x00000f48       0x39 external/micro-ecc/libuECC_nrf52840_xxAA.a(uECC.c.obj)
 .ARM.attributes
                0x00000f81       0x34 c:/a/gcc_arm/6/bin/../lib/gcc/arm-none-eabi/6.3.1/../../../../arm-none-eabi/lib/thumb/v7e-m/fpv4-sp/hard\libc_nano.a(lib_a-exit.o)
 .ARM.attributes
                0x00000fb5       0x34 c:/a/gcc_arm/6/bin/../lib/gcc/arm-none-eabi/6.3.1/../../../../arm-none-eabi/lib/thumb/v7e-m/fpv4-sp/hard\libc_nano.a(lib_a-impure.o)
 .ARM.attributes
                0x00000fe9       0x34 c:/a/gcc_arm/6/bin/../lib/gcc/arm-none-eabi/6.3.1/../../../../arm-none-eabi/lib/thumb/v7e-m/fpv4-sp/hard\libc_nano.a(lib_a-init.o)
 .ARM.attributes
                0x0000101d       0x34 c:/a/gcc_arm/6/bin/../lib/gcc/arm-none-eabi/6.3.1/../../../../arm-none-eabi/lib/thumb/v7e-m/fpv4-sp/hard\libc_nano.a(lib_a-malloc.o)
 .ARM.attributes
                0x00001051       0x34 c:/a/gcc_arm/6/bin/../lib/gcc/arm-none-eabi/6.3.1/../../../../arm-none-eabi/lib/thumb/v7e-m/fpv4-sp/hard\libc_nano.a(lib_a-memcmp.o)
 .ARM.attributes
                0x00001085       0x34 c:/a/gcc_arm/6/bin/../lib/gcc/arm-none-eabi/6.3.1/../../../../arm-none-eabi/lib/thumb/v7e-m/fpv4-sp/hard\libc_nano.a(lib_a-memcpy-stub.o)
 .ARM.attributes
                0x000010b9       0x34 c:/a/gcc_arm/6/bin/../lib/gcc/arm-none-eabi/6.3.1/../../../../arm-none-eabi/lib/thumb/v7e-m/fpv4-sp/hard\libc_nano.a(lib_a-memset.o)
 .ARM.attributes
                0x000010ed       0x34 c:/a/gcc_arm/6/bin/../lib/gcc/arm-none-eabi/6.3.1/../../../../arm-none-eabi/lib/thumb/v7e-m/fpv4-sp/hard\libc_nano.a(lib_a-nano-freer.o)
 .ARM.attributes
                0x00001121       0x34 c:/a/gcc_arm/6/bin/../lib/gcc/arm-none-eabi/6.3.1/../../../../arm-none-eabi/lib/thumb/v7e-m/fpv4-sp/hard\libc_nano.a(lib_a-nano-mallocr.o)
 .ARM.attributes
                0x00001155       0x34 c:/a/gcc_arm/6/bin/../lib/gcc/arm-none-eabi/6.3.1/../../../../arm-none-eabi/lib/thumb/v7e-m/fpv4-sp/hard\libc_nano.a(lib_a-sbrkr.o)
 .ARM.attributes
                0x00001189       0x34 c:/a/gcc_arm/6/bin/../lib/gcc/arm-none-eabi/6.3.1/../../../../arm-none-eabi/lib/thumb/v7e-m/fpv4-sp/hard\libc_nano.a(lib_a-strcpy.o)
 .ARM.attributes
                0x000011bd       0x1b c:/a/gcc_arm/6/bin/../lib/gcc/arm-none-eabi/6.3.1/../../../../arm-none-eabi/lib/thumb/v7e-m/fpv4-sp/hard\libc_nano.a(lib_a-strlen.o)
 .ARM.attributes
                0x000011d8       0x34 c:/a/gcc_arm/6/bin/../lib/gcc/arm-none-eabi/6.3.1/../../../../arm-none-eabi/lib/thumb/v7e-m/fpv4-sp/hard\libc_nano.a(lib_a-strrchr.o)
 .ARM.attributes
                0x0000120c       0x34 c:/a/gcc_arm/6/bin/../lib/gcc/arm-none-eabi/6.3.1/../../../../arm-none-eabi/lib/thumb/v7e-m/fpv4-sp/hard\libc_nano.a(lib_a-mlock.o)
 .ARM.attributes
                0x00001240       0x34 c:/a/gcc_arm/6/bin/../lib/gcc/arm-none-eabi/6.3.1/../../../../arm-none-eabi/lib/thumb/v7e-m/fpv4-sp/hard\libc_nano.a(lib_a-reent.o)
 .ARM.attributes
                0x00001274       0x34 c:/a/gcc_arm/6/bin/../lib/gcc/arm-none-eabi/6.3.1/../../../../arm-none-eabi/lib/thumb/v7e-m/fpv4-sp/hard\libc_nano.a(lib_a-strchr.o)
 .ARM.attributes
                0x000012a8       0x34 c:/a/gcc_arm/6/bin/../lib/gcc/arm-none-eabi/6.3.1/thumb/v7e-m/fpv4-sp/hard/crtend.o
 .ARM.attributes
                0x000012dc       0x22 c:/a/gcc_arm/6/bin/../lib/gcc/arm-none-eabi/6.3.1/thumb/v7e-m/fpv4-sp/hard/crtn.o
 .ARM.attributes
                0x000012fe       0x34 c:/a/gcc_arm/6/bin/../lib/gcc/arm-none-eabi/6.3.1/../../../../arm-none-eabi/lib/thumb/v7e-m/fpv4-sp/hard\libnosys.a(sbrk.o)
 .ARM.attributes
                0x00001332       0x34 c:/a/gcc_arm/6/bin/../lib/gcc/arm-none-eabi/6.3.1/../../../../arm-none-eabi/lib/thumb/v7e-m/fpv4-sp/hard\libnosys.a(_exit.o)

.comment        0x00000000       0x7f
 .comment       0x00000000       0x7f examples/light_switch/server/CMakeFiles/light_switch_server_nrf52840_xxAA_s140_5.0.0-3.alpha.dir/src/main.c.obj
                                 0x80 (size before relaxing)
 .comment       0x0000007f       0x80 examples/light_switch/server/CMakeFiles/light_switch_server_nrf52840_xxAA_s140_5.0.0-3.alpha.dir/__/__/nrf_mesh_sdk.c.obj
 .comment       0x0000007f       0x80 examples/light_switch/server/CMakeFiles/light_switch_server_nrf52840_xxAA_s140_5.0.0-3.alpha.dir/__/__/hal/src/simple_hal.c.obj
 .comment       0x0000007f       0x80 examples/light_switch/server/CMakeFiles/light_switch_server_nrf52840_xxAA_s140_5.0.0-3.alpha.dir/__/__/nrf_mesh_weak.c.obj
 .comment       0x0000007f       0x80 examples/light_switch/server/CMakeFiles/light_switch_server_nrf52840_xxAA_s140_5.0.0-3.alpha.dir/__/__/__/models/simple_on_off/src/simple_on_off_server.c.obj
 .comment       0x0000007f       0x80 examples/light_switch/server/CMakeFiles/light_switch_server_nrf52840_xxAA_s140_5.0.0-3.alpha.dir/__/__/__/models/config/src/composition_data.c.obj
 .comment       0x0000007f       0x80 examples/light_switch/server/CMakeFiles/light_switch_server_nrf52840_xxAA_s140_5.0.0-3.alpha.dir/__/__/__/models/config/src/config_server.c.obj
 .comment       0x0000007f       0x80 examples/light_switch/server/CMakeFiles/light_switch_server_nrf52840_xxAA_s140_5.0.0-3.alpha.dir/__/__/__/models/config/src/packed_index_list.c.obj
 .comment       0x0000007f       0x80 examples/light_switch/server/CMakeFiles/light_switch_server_nrf52840_xxAA_s140_5.0.0-3.alpha.dir/__/__/__/models/health/src/health_server.c.obj
 .comment       0x0000007f       0x80 examples/light_switch/server/CMakeFiles/light_switch_server_nrf52840_xxAA_s140_5.0.0-3.alpha.dir/__/__/__/mesh/access/src/access_publish.c.obj
 .comment       0x0000007f       0x80 examples/light_switch/server/CMakeFiles/light_switch_server_nrf52840_xxAA_s140_5.0.0-3.alpha.dir/__/__/__/mesh/access/src/access.c.obj
 .comment       0x0000007f       0x80 examples/light_switch/server/CMakeFiles/light_switch_server_nrf52840_xxAA_s140_5.0.0-3.alpha.dir/__/__/__/mesh/access/src/access_reliable.c.obj
 .comment       0x0000007f       0x80 examples/light_switch/server/CMakeFiles/light_switch_server_nrf52840_xxAA_s140_5.0.0-3.alpha.dir/__/__/__/mesh/access/src/device_state_manager.c.obj
 .comment       0x0000007f       0x80 examples/light_switch/server/CMakeFiles/light_switch_server_nrf52840_xxAA_s140_5.0.0-3.alpha.dir/__/__/__/mesh/prov/src/prov_provisionee.c.obj
 .comment       0x0000007f       0x80 examples/light_switch/server/CMakeFiles/light_switch_server_nrf52840_xxAA_s140_5.0.0-3.alpha.dir/__/__/__/mesh/prov/src/nrf_mesh_prov.c.obj
 .comment       0x0000007f       0x80 examples/light_switch/server/CMakeFiles/light_switch_server_nrf52840_xxAA_s140_5.0.0-3.alpha.dir/__/__/__/mesh/prov/src/provisioning.c.obj
 .comment       0x0000007f       0x80 examples/light_switch/server/CMakeFiles/light_switch_server_nrf52840_xxAA_s140_5.0.0-3.alpha.dir/__/__/__/mesh/prov/src/prov_beacon.c.obj
 .comment       0x0000007f       0x80 examples/light_switch/server/CMakeFiles/light_switch_server_nrf52840_xxAA_s140_5.0.0-3.alpha.dir/__/__/__/mesh/prov/src/prov_utils.c.obj
 .comment       0x0000007f       0x80 examples/light_switch/server/CMakeFiles/light_switch_server_nrf52840_xxAA_s140_5.0.0-3.alpha.dir/__/__/__/mesh/prov/src/prov_bearer_adv.c.obj
 .comment       0x0000007f       0x80 examples/light_switch/server/CMakeFiles/light_switch_server_nrf52840_xxAA_s140_5.0.0-3.alpha.dir/__/__/__/mesh/access/src/nrf_mesh_node_config.c.obj
 .comment       0x0000007f       0x80 examples/light_switch/server/CMakeFiles/light_switch_server_nrf52840_xxAA_s140_5.0.0-3.alpha.dir/__/__/__/external/nRF5_SDK_14.0.0_3bcc1f7/components/toolchain/system_nrf52840.c.obj
 .comment       0x0000007f       0x80 mesh/core/libmesh_core_nrf52840_xxAA.a(nrf_mesh_configure.c.obj)
 .comment       0x0000007f       0x80 mesh/core/libmesh_core_nrf52840_xxAA.a(event.c.obj)
 .comment       0x0000007f       0x80 mesh/core/libmesh_core_nrf52840_xxAA.a(net_state.c.obj)
 .comment       0x0000007f       0x80 mesh/core/libmesh_core_nrf52840_xxAA.a(nrf_mesh_utils.c.obj)
 .comment       0x0000007f       0x80 mesh/core/libmesh_core_nrf52840_xxAA.a(nrf_mesh.c.obj)
 .comment       0x0000007f       0x80 mesh/core/libmesh_core_nrf52840_xxAA.a(hal.c.obj)
 .comment       0x0000007f       0x80 mesh/core/libmesh_core_nrf52840_xxAA.a(timer_scheduler.c.obj)
 .comment       0x0000007f       0x80 mesh/core/libmesh_core_nrf52840_xxAA.a(timer.c.obj)
 .comment       0x0000007f       0x80 mesh/core/libmesh_core_nrf52840_xxAA.a(ticker.c.obj)
 .comment       0x0000007f       0x80 mesh/core/libmesh_core_nrf52840_xxAA.a(rand.c.obj)
 .comment       0x0000007f       0x80 mesh/core/libmesh_core_nrf52840_xxAA.a(nrf_mesh_opt.c.obj)
 .comment       0x0000007f       0x80 mesh/core/libmesh_core_nrf52840_xxAA.a(timeslot.c.obj)
 .comment       0x0000007f       0x80 mesh/core/libmesh_core_nrf52840_xxAA.a(bearer_event.c.obj)
 .comment       0x0000007f       0x80 mesh/core/libmesh_core_nrf52840_xxAA.a(enc.c.obj)
 .comment       0x0000007f       0x80 mesh/core/libmesh_core_nrf52840_xxAA.a(network.c.obj)
 .comment       0x0000007f       0x80 mesh/core/libmesh_core_nrf52840_xxAA.a(nrf_mesh_keygen.c.obj)
 .comment       0x0000007f       0x80 mesh/core/libmesh_core_nrf52840_xxAA.a(log.c.obj)
 .comment       0x0000007f       0x80 mesh/core/libmesh_core_nrf52840_xxAA.a(flash_manager.c.obj)
 .comment       0x0000007f       0x80 mesh/core/libmesh_core_nrf52840_xxAA.a(ccm_soft.c.obj)
 .comment       0x0000007f       0x80 mesh/core/libmesh_core_nrf52840_xxAA.a(beacon.c.obj)
 .comment       0x0000007f       0x80 mesh/core/libmesh_core_nrf52840_xxAA.a(flash_manager_internal.c.obj)
 .comment       0x0000007f       0x80 mesh/core/libmesh_core_nrf52840_xxAA.a(core_tx.c.obj)
 .comment       0x0000007f       0x80 mesh/core/libmesh_core_nrf52840_xxAA.a(net_beacon.c.obj)
 .comment       0x0000007f       0x80 mesh/core/libmesh_core_nrf52840_xxAA.a(advertiser.c.obj)
 .comment       0x0000007f       0x80 mesh/core/libmesh_core_nrf52840_xxAA.a(bearer_handler.c.obj)
 .comment       0x0000007f       0x80 mesh/core/libmesh_core_nrf52840_xxAA.a(broadcast.c.obj)
 .comment       0x0000007f       0x80 mesh/core/libmesh_core_nrf52840_xxAA.a(radio_config.c.obj)
 .comment       0x0000007f       0x80 mesh/core/libmesh_core_nrf52840_xxAA.a(scanner.c.obj)
 .comment       0x0000007f       0x80 mesh/core/libmesh_core_nrf52840_xxAA.a(internal_event.c.obj)
 .comment       0x0000007f       0x80 mesh/core/libmesh_core_nrf52840_xxAA.a(aes.c.obj)
 .comment       0x0000007f       0x80 mesh/core/libmesh_core_nrf52840_xxAA.a(msg_cache.c.obj)
 .comment       0x0000007f       0x80 mesh/core/libmesh_core_nrf52840_xxAA.a(transport.c.obj)
 .comment       0x0000007f       0x80 mesh/core/libmesh_core_nrf52840_xxAA.a(packet_buffer.c.obj)
 .comment       0x0000007f       0x80 mesh/core/libmesh_core_nrf52840_xxAA.a(flash_manager_defrag.c.obj)
 .comment       0x0000007f       0x80 mesh/core/libmesh_core_nrf52840_xxAA.a(fifo.c.obj)
 .comment       0x0000007f       0x80 mesh/core/libmesh_core_nrf52840_xxAA.a(packet_mgr.c.obj)
 .comment       0x0000007f       0x80 mesh/core/libmesh_core_nrf52840_xxAA.a(mesh_flash.c.obj)
 .comment       0x0000007f       0x80 mesh/core/libmesh_core_nrf52840_xxAA.a(queue.c.obj)
 .comment       0x0000007f       0x80 mesh/core/libmesh_core_nrf52840_xxAA.a(aes_cmac.c.obj)
 .comment       0x0000007f       0x80 mesh/core/libmesh_core_nrf52840_xxAA.a(msqueue.c.obj)
 .comment       0x0000007f       0x80 mesh/core/libmesh_core_nrf52840_xxAA.a(replay_cache.c.obj)
 .comment       0x0000007f       0x80 mesh/core/libmesh_core_nrf52840_xxAA.a(filter_engine.c.obj)
 .comment       0x0000007f       0x80 mesh/core/libmesh_core_nrf52840_xxAA.a(nrf_flash.c.obj)
 .comment       0x0000007f       0x80 external/rtt/librtt_nrf52840_xxAA.a(SEGGER_RTT.c.obj)
 .comment       0x0000007f       0x80 external/rtt/librtt_nrf52840_xxAA.a(SEGGER_RTT_printf.c.obj)
 .comment       0x0000007f       0x80 external/micro-ecc/libuECC_nrf52840_xxAA.a(uECC.c.obj)

.debug_frame    0x00000000      0x2c4
 .debug_frame   0x00000000       0x28 c:/a/gcc_arm/6/bin/../lib/gcc/arm-none-eabi/6.3.1/../../../../arm-none-eabi/lib/thumb/v7e-m/fpv4-sp/hard\libc_nano.a(lib_a-exit.o)
 .debug_frame   0x00000028       0x2c c:/a/gcc_arm/6/bin/../lib/gcc/arm-none-eabi/6.3.1/../../../../arm-none-eabi/lib/thumb/v7e-m/fpv4-sp/hard\libc_nano.a(lib_a-init.o)
 .debug_frame   0x00000054       0x30 c:/a/gcc_arm/6/bin/../lib/gcc/arm-none-eabi/6.3.1/../../../../arm-none-eabi/lib/thumb/v7e-m/fpv4-sp/hard\libc_nano.a(lib_a-malloc.o)
 .debug_frame   0x00000084       0x28 c:/a/gcc_arm/6/bin/../lib/gcc/arm-none-eabi/6.3.1/../../../../arm-none-eabi/lib/thumb/v7e-m/fpv4-sp/hard\libc_nano.a(lib_a-memcmp.o)
 .debug_frame   0x000000ac       0x28 c:/a/gcc_arm/6/bin/../lib/gcc/arm-none-eabi/6.3.1/../../../../arm-none-eabi/lib/thumb/v7e-m/fpv4-sp/hard\libc_nano.a(lib_a-memcpy-stub.o)
 .debug_frame   0x000000d4       0x20 c:/a/gcc_arm/6/bin/../lib/gcc/arm-none-eabi/6.3.1/../../../../arm-none-eabi/lib/thumb/v7e-m/fpv4-sp/hard\libc_nano.a(lib_a-memset.o)
 .debug_frame   0x000000f4       0x38 c:/a/gcc_arm/6/bin/../lib/gcc/arm-none-eabi/6.3.1/../../../../arm-none-eabi/lib/thumb/v7e-m/fpv4-sp/hard\libc_nano.a(lib_a-nano-freer.o)
 .debug_frame   0x0000012c       0x2c c:/a/gcc_arm/6/bin/../lib/gcc/arm-none-eabi/6.3.1/../../../../arm-none-eabi/lib/thumb/v7e-m/fpv4-sp/hard\libc_nano.a(lib_a-nano-mallocr.o)
 .debug_frame   0x00000158       0x2c c:/a/gcc_arm/6/bin/../lib/gcc/arm-none-eabi/6.3.1/../../../../arm-none-eabi/lib/thumb/v7e-m/fpv4-sp/hard\libc_nano.a(lib_a-sbrkr.o)
 .debug_frame   0x00000184       0x20 c:/a/gcc_arm/6/bin/../lib/gcc/arm-none-eabi/6.3.1/../../../../arm-none-eabi/lib/thumb/v7e-m/fpv4-sp/hard\libc_nano.a(lib_a-strcpy.o)
 .debug_frame   0x000001a4       0x34 c:/a/gcc_arm/6/bin/../lib/gcc/arm-none-eabi/6.3.1/../../../../arm-none-eabi/lib/thumb/v7e-m/fpv4-sp/hard\libc_nano.a(lib_a-strrchr.o)
 .debug_frame   0x000001d8       0x30 c:/a/gcc_arm/6/bin/../lib/gcc/arm-none-eabi/6.3.1/../../../../arm-none-eabi/lib/thumb/v7e-m/fpv4-sp/hard\libc_nano.a(lib_a-mlock.o)
 .debug_frame   0x00000208       0x5c c:/a/gcc_arm/6/bin/../lib/gcc/arm-none-eabi/6.3.1/../../../../arm-none-eabi/lib/thumb/v7e-m/fpv4-sp/hard\libc_nano.a(lib_a-reent.o)
 .debug_frame   0x00000264       0x20 c:/a/gcc_arm/6/bin/../lib/gcc/arm-none-eabi/6.3.1/../../../../arm-none-eabi/lib/thumb/v7e-m/fpv4-sp/hard\libc_nano.a(lib_a-strchr.o)
 .debug_frame   0x00000284       0x20 c:/a/gcc_arm/6/bin/../lib/gcc/arm-none-eabi/6.3.1/../../../../arm-none-eabi/lib/thumb/v7e-m/fpv4-sp/hard\libnosys.a(sbrk.o)
 .debug_frame   0x000002a4       0x20 c:/a/gcc_arm/6/bin/../lib/gcc/arm-none-eabi/6.3.1/../../../../arm-none-eabi/lib/thumb/v7e-m/fpv4-sp/hard\libnosys.a(_exit.o)
