Archive member included to satisfy reference by file (symbol)

mesh/core/libmesh_core_nrf52840_xxAA.a(nrf_mesh_configure.c.obj)
                              examples/pb_remote/client/CMakeFiles/pb_remote_client_nrf52840_xxAA_s140_5.0.0-3.alpha.dir/__/__/__/mesh/prov/src/prov_beacon.c.obj (nrf_mesh_configure_device_uuid_get)
mesh/core/libmesh_core_nrf52840_xxAA.a(event.c.obj)
                              examples/pb_remote/client/CMakeFiles/pb_remote_client_nrf52840_xxAA_s140_5.0.0-3.alpha.dir/__/__/__/mesh/prov/src/prov_provisioner.c.obj (event_handle)
mesh/core/libmesh_core_nrf52840_xxAA.a(fifo.c.obj)
                              examples/pb_remote/client/CMakeFiles/pb_remote_client_nrf52840_xxAA_s140_5.0.0-3.alpha.dir/__/__/__/models/pb_remote/src/pb_remote_client.c.obj (fifo_init)
mesh/core/libmesh_core_nrf52840_xxAA.a(net_state.c.obj)
                              examples/pb_remote/client/CMakeFiles/pb_remote_client_nrf52840_xxAA_s140_5.0.0-3.alpha.dir/__/__/__/mesh/access/src/device_state_manager.c.obj (net_state_flash_area_get)
mesh/core/libmesh_core_nrf52840_xxAA.a(nrf_mesh_utils.c.obj)
                              examples/pb_remote/client/CMakeFiles/pb_remote_client_nrf52840_xxAA_s140_5.0.0-3.alpha.dir/__/__/__/mesh/prov/src/nrf_mesh_prov.c.obj (nrf_mesh_address_type_get)
mesh/core/libmesh_core_nrf52840_xxAA.a(nrf_mesh.c.obj)
                              examples/pb_remote/client/CMakeFiles/pb_remote_client_nrf52840_xxAA_s140_5.0.0-3.alpha.dir/__/__/nrf_mesh_sdk.c.obj (nrf_mesh_init)
mesh/core/libmesh_core_nrf52840_xxAA.a(hal.c.obj)
                              mesh/core/libmesh_core_nrf52840_xxAA.a(nrf_mesh.c.obj) (hal_lfclk_ppm_get)
mesh/core/libmesh_core_nrf52840_xxAA.a(timer_scheduler.c.obj)
                              mesh/core/libmesh_core_nrf52840_xxAA.a(nrf_mesh.c.obj) (timer_sch_init)
mesh/core/libmesh_core_nrf52840_xxAA.a(timer.c.obj)
                              mesh/core/libmesh_core_nrf52840_xxAA.a(timer_scheduler.c.obj) (timer_order_cb)
mesh/core/libmesh_core_nrf52840_xxAA.a(ticker.c.obj)
                              mesh/core/libmesh_core_nrf52840_xxAA.a(nrf_mesh.c.obj) (ticker_init)
mesh/core/libmesh_core_nrf52840_xxAA.a(rand.c.obj)
                              examples/pb_remote/client/CMakeFiles/pb_remote_client_nrf52840_xxAA_s140_5.0.0-3.alpha.dir/__/__/__/mesh/prov/src/prov_utils.c.obj (rand_hw_rng_get)
mesh/core/libmesh_core_nrf52840_xxAA.a(timeslot.c.obj)
                              mesh/core/libmesh_core_nrf52840_xxAA.a(nrf_mesh.c.obj) (timeslot_sd_event_handler)
mesh/core/libmesh_core_nrf52840_xxAA.a(bearer_event.c.obj)
                              mesh/core/libmesh_core_nrf52840_xxAA.a(nrf_mesh.c.obj) (bearer_event_init)
mesh/core/libmesh_core_nrf52840_xxAA.a(enc.c.obj)
                              examples/pb_remote/client/CMakeFiles/pb_remote_client_nrf52840_xxAA_s140_5.0.0-3.alpha.dir/__/__/__/mesh/prov/src/prov_utils.c.obj (enc_aes_cmac)
mesh/core/libmesh_core_nrf52840_xxAA.a(network.c.obj)
                              mesh/core/libmesh_core_nrf52840_xxAA.a(nrf_mesh.c.obj) (network_init)
mesh/core/libmesh_core_nrf52840_xxAA.a(nrf_mesh_keygen.c.obj)
                              examples/pb_remote/client/CMakeFiles/pb_remote_client_nrf52840_xxAA_s140_5.0.0-3.alpha.dir/__/__/__/mesh/access/src/device_state_manager.c.obj (nrf_mesh_keygen_aid)
mesh/core/libmesh_core_nrf52840_xxAA.a(log.c.obj)
                              examples/pb_remote/client/CMakeFiles/pb_remote_client_nrf52840_xxAA_s140_5.0.0-3.alpha.dir/src/main.c.obj (log_callback_rtt)
mesh/core/libmesh_core_nrf52840_xxAA.a(flash_manager.c.obj)
                              mesh/core/libmesh_core_nrf52840_xxAA.a(nrf_mesh.c.obj) (flash_manager_init)
mesh/core/libmesh_core_nrf52840_xxAA.a(ccm_soft.c.obj)
                              mesh/core/libmesh_core_nrf52840_xxAA.a(enc.c.obj) (ccm_soft_encrypt)
mesh/core/libmesh_core_nrf52840_xxAA.a(beacon.c.obj)
                              mesh/core/libmesh_core_nrf52840_xxAA.a(nrf_mesh.c.obj) (beacon_init)
mesh/core/libmesh_core_nrf52840_xxAA.a(flash_manager_internal.c.obj)
                              mesh/core/libmesh_core_nrf52840_xxAA.a(flash_manager.c.obj) (entry_get)
mesh/core/libmesh_core_nrf52840_xxAA.a(core_tx.c.obj)
                              mesh/core/libmesh_core_nrf52840_xxAA.a(nrf_mesh.c.obj) (core_tx_init)
mesh/core/libmesh_core_nrf52840_xxAA.a(net_beacon.c.obj)
                              mesh/core/libmesh_core_nrf52840_xxAA.a(network.c.obj) (net_beacon_init)
mesh/core/libmesh_core_nrf52840_xxAA.a(advertiser.c.obj)
                              mesh/core/libmesh_core_nrf52840_xxAA.a(nrf_mesh.c.obj) (advertiser_init)
mesh/core/libmesh_core_nrf52840_xxAA.a(bearer_handler.c.obj)
                              mesh/core/libmesh_core_nrf52840_xxAA.a(nrf_mesh.c.obj) (bearer_handler_init)
mesh/core/libmesh_core_nrf52840_xxAA.a(broadcast.c.obj)
                              mesh/core/libmesh_core_nrf52840_xxAA.a(advertiser.c.obj) (broadcast_send)
mesh/core/libmesh_core_nrf52840_xxAA.a(radio_config.c.obj)
                              mesh/core/libmesh_core_nrf52840_xxAA.a(broadcast.c.obj) (radio_config_reset)
mesh/core/libmesh_core_nrf52840_xxAA.a(scanner.c.obj)
                              mesh/core/libmesh_core_nrf52840_xxAA.a(bearer_handler.c.obj) (scanner_radio_start)
mesh/core/libmesh_core_nrf52840_xxAA.a(internal_event.c.obj)
                              mesh/core/libmesh_core_nrf52840_xxAA.a(network.c.obj) (internal_event_push)
mesh/core/libmesh_core_nrf52840_xxAA.a(aes.c.obj)
                              mesh/core/libmesh_core_nrf52840_xxAA.a(enc.c.obj) (aes_encrypt)
mesh/core/libmesh_core_nrf52840_xxAA.a(msg_cache.c.obj)
                              mesh/core/libmesh_core_nrf52840_xxAA.a(nrf_mesh.c.obj) (msg_cache_init)
mesh/core/libmesh_core_nrf52840_xxAA.a(transport.c.obj)
                              mesh/core/libmesh_core_nrf52840_xxAA.a(nrf_mesh.c.obj) (transport_init)
mesh/core/libmesh_core_nrf52840_xxAA.a(packet_buffer.c.obj)
                              mesh/core/libmesh_core_nrf52840_xxAA.a(flash_manager.c.obj) (packet_buffer_init)
mesh/core/libmesh_core_nrf52840_xxAA.a(flash_manager_defrag.c.obj)
                              mesh/core/libmesh_core_nrf52840_xxAA.a(flash_manager.c.obj) (flash_manager_defrag_init)
mesh/core/libmesh_core_nrf52840_xxAA.a(packet_mgr.c.obj)
                              mesh/core/libmesh_core_nrf52840_xxAA.a(nrf_mesh.c.obj) (packet_mgr_init)
mesh/core/libmesh_core_nrf52840_xxAA.a(mesh_flash.c.obj)
                              mesh/core/libmesh_core_nrf52840_xxAA.a(flash_manager.c.obj) (mesh_flash_user_callback_set)
mesh/core/libmesh_core_nrf52840_xxAA.a(queue.c.obj)
                              mesh/core/libmesh_core_nrf52840_xxAA.a(bearer_event.c.obj) (queue_init)
mesh/core/libmesh_core_nrf52840_xxAA.a(aes_cmac.c.obj)
                              mesh/core/libmesh_core_nrf52840_xxAA.a(enc.c.obj) (aes_cmac)
mesh/core/libmesh_core_nrf52840_xxAA.a(msqueue.c.obj)
                              mesh/core/libmesh_core_nrf52840_xxAA.a(mesh_flash.c.obj) (msq_init)
mesh/core/libmesh_core_nrf52840_xxAA.a(replay_cache.c.obj)
                              mesh/core/libmesh_core_nrf52840_xxAA.a(transport.c.obj) (replay_cache_init)
mesh/core/libmesh_core_nrf52840_xxAA.a(filter_engine.c.obj)
                              mesh/core/libmesh_core_nrf52840_xxAA.a(scanner.c.obj) (fen_filters_apply)
mesh/core/libmesh_core_nrf52840_xxAA.a(nrf_flash.c.obj)
                              mesh/core/libmesh_core_nrf52840_xxAA.a(mesh_flash.c.obj) (nrf_flash_erase)
external/rtt/librtt_nrf52840_xxAA.a(SEGGER_RTT.c.obj)
                              mesh/core/libmesh_core_nrf52840_xxAA.a(log.c.obj) (SEGGER_RTT_Write)
external/rtt/librtt_nrf52840_xxAA.a(SEGGER_RTT_printf.c.obj)
                              mesh/core/libmesh_core_nrf52840_xxAA.a(log.c.obj) (SEGGER_RTT_vprintf)
external/micro-ecc/libuECC_nrf52840_xxAA.a(uECC.c.obj)
                              examples/pb_remote/client/CMakeFiles/pb_remote_client_nrf52840_xxAA_s140_5.0.0-3.alpha.dir/__/__/__/mesh/prov/src/prov_utils.c.obj (uECC_secp256r1)
c:/a/gcc_arm/6/bin/../lib/gcc/arm-none-eabi/6.3.1/../../../../arm-none-eabi/lib/thumb/v7e-m/fpv4-sp/hard\libc_nano.a(lib_a-exit.o)
                              c:/a/gcc_arm/6/bin/../lib/gcc/arm-none-eabi/6.3.1/../../../../arm-none-eabi/lib/thumb/v7e-m/fpv4-sp/hard/crt0.o (exit)
c:/a/gcc_arm/6/bin/../lib/gcc/arm-none-eabi/6.3.1/../../../../arm-none-eabi/lib/thumb/v7e-m/fpv4-sp/hard\libc_nano.a(lib_a-impure.o)
                              c:/a/gcc_arm/6/bin/../lib/gcc/arm-none-eabi/6.3.1/../../../../arm-none-eabi/lib/thumb/v7e-m/fpv4-sp/hard\libc_nano.a(lib_a-exit.o) (_global_impure_ptr)
c:/a/gcc_arm/6/bin/../lib/gcc/arm-none-eabi/6.3.1/../../../../arm-none-eabi/lib/thumb/v7e-m/fpv4-sp/hard\libc_nano.a(lib_a-init.o)
                              c:/a/gcc_arm/6/bin/../lib/gcc/arm-none-eabi/6.3.1/../../../../arm-none-eabi/lib/thumb/v7e-m/fpv4-sp/hard/crt0.o (__libc_init_array)
c:/a/gcc_arm/6/bin/../lib/gcc/arm-none-eabi/6.3.1/../../../../arm-none-eabi/lib/thumb/v7e-m/fpv4-sp/hard\libc_nano.a(lib_a-malloc.o)
                              mesh/core/libmesh_core_nrf52840_xxAA.a(transport.c.obj) (malloc)
c:/a/gcc_arm/6/bin/../lib/gcc/arm-none-eabi/6.3.1/../../../../arm-none-eabi/lib/thumb/v7e-m/fpv4-sp/hard\libc_nano.a(lib_a-memcmp.o)
                              examples/pb_remote/client/CMakeFiles/pb_remote_client_nrf52840_xxAA_s140_5.0.0-3.alpha.dir/__/__/__/mesh/prov/src/prov_utils.c.obj (memcmp)
c:/a/gcc_arm/6/bin/../lib/gcc/arm-none-eabi/6.3.1/../../../../arm-none-eabi/lib/thumb/v7e-m/fpv4-sp/hard\libc_nano.a(lib_a-memcpy-stub.o)
                              examples/pb_remote/client/CMakeFiles/pb_remote_client_nrf52840_xxAA_s140_5.0.0-3.alpha.dir/__/__/__/models/pb_remote/src/pb_remote_client.c.obj (memcpy)
c:/a/gcc_arm/6/bin/../lib/gcc/arm-none-eabi/6.3.1/../../../../arm-none-eabi/lib/thumb/v7e-m/fpv4-sp/hard\libc_nano.a(lib_a-memset.o)
                              c:/a/gcc_arm/6/bin/../lib/gcc/arm-none-eabi/6.3.1/../../../../arm-none-eabi/lib/thumb/v7e-m/fpv4-sp/hard/crt0.o (memset)
c:/a/gcc_arm/6/bin/../lib/gcc/arm-none-eabi/6.3.1/../../../../arm-none-eabi/lib/thumb/v7e-m/fpv4-sp/hard\libc_nano.a(lib_a-nano-freer.o)
                              c:/a/gcc_arm/6/bin/../lib/gcc/arm-none-eabi/6.3.1/../../../../arm-none-eabi/lib/thumb/v7e-m/fpv4-sp/hard\libc_nano.a(lib_a-malloc.o) (_free_r)
c:/a/gcc_arm/6/bin/../lib/gcc/arm-none-eabi/6.3.1/../../../../arm-none-eabi/lib/thumb/v7e-m/fpv4-sp/hard\libc_nano.a(lib_a-nano-mallocr.o)
                              c:/a/gcc_arm/6/bin/../lib/gcc/arm-none-eabi/6.3.1/../../../../arm-none-eabi/lib/thumb/v7e-m/fpv4-sp/hard\libc_nano.a(lib_a-malloc.o) (_malloc_r)
c:/a/gcc_arm/6/bin/../lib/gcc/arm-none-eabi/6.3.1/../../../../arm-none-eabi/lib/thumb/v7e-m/fpv4-sp/hard\libc_nano.a(lib_a-sbrkr.o)
                              c:/a/gcc_arm/6/bin/../lib/gcc/arm-none-eabi/6.3.1/../../../../arm-none-eabi/lib/thumb/v7e-m/fpv4-sp/hard\libc_nano.a(lib_a-nano-mallocr.o) (_sbrk_r)
c:/a/gcc_arm/6/bin/../lib/gcc/arm-none-eabi/6.3.1/../../../../arm-none-eabi/lib/thumb/v7e-m/fpv4-sp/hard\libc_nano.a(lib_a-strcpy.o)
                              external/rtt/librtt_nrf52840_xxAA.a(SEGGER_RTT.c.obj) (strcpy)
c:/a/gcc_arm/6/bin/../lib/gcc/arm-none-eabi/6.3.1/../../../../arm-none-eabi/lib/thumb/v7e-m/fpv4-sp/hard\libc_nano.a(lib_a-strlen.o)
                              examples/pb_remote/client/CMakeFiles/pb_remote_client_nrf52840_xxAA_s140_5.0.0-3.alpha.dir/__/__/__/mesh/prov/src/prov_beacon.c.obj (strlen)
c:/a/gcc_arm/6/bin/../lib/gcc/arm-none-eabi/6.3.1/../../../../arm-none-eabi/lib/thumb/v7e-m/fpv4-sp/hard\libc_nano.a(lib_a-strrchr.o)
                              examples/pb_remote/client/CMakeFiles/pb_remote_client_nrf52840_xxAA_s140_5.0.0-3.alpha.dir/src/main.c.obj (strrchr)
c:/a/gcc_arm/6/bin/../lib/gcc/arm-none-eabi/6.3.1/../../../../arm-none-eabi/lib/thumb/v7e-m/fpv4-sp/hard\libc_nano.a(lib_a-mlock.o)
                              c:/a/gcc_arm/6/bin/../lib/gcc/arm-none-eabi/6.3.1/../../../../arm-none-eabi/lib/thumb/v7e-m/fpv4-sp/hard\libc_nano.a(lib_a-nano-freer.o) (__malloc_lock)
c:/a/gcc_arm/6/bin/../lib/gcc/arm-none-eabi/6.3.1/../../../../arm-none-eabi/lib/thumb/v7e-m/fpv4-sp/hard\libc_nano.a(lib_a-reent.o)
                              c:/a/gcc_arm/6/bin/../lib/gcc/arm-none-eabi/6.3.1/../../../../arm-none-eabi/lib/thumb/v7e-m/fpv4-sp/hard\libc_nano.a(lib_a-sbrkr.o) (errno)
c:/a/gcc_arm/6/bin/../lib/gcc/arm-none-eabi/6.3.1/../../../../arm-none-eabi/lib/thumb/v7e-m/fpv4-sp/hard\libc_nano.a(lib_a-strchr.o)
                              c:/a/gcc_arm/6/bin/../lib/gcc/arm-none-eabi/6.3.1/../../../../arm-none-eabi/lib/thumb/v7e-m/fpv4-sp/hard\libc_nano.a(lib_a-strrchr.o) (strchr)
c:/a/gcc_arm/6/bin/../lib/gcc/arm-none-eabi/6.3.1/../../../../arm-none-eabi/lib/thumb/v7e-m/fpv4-sp/hard\libnosys.a(sbrk.o)
                              c:/a/gcc_arm/6/bin/../lib/gcc/arm-none-eabi/6.3.1/../../../../arm-none-eabi/lib/thumb/v7e-m/fpv4-sp/hard\libc_nano.a(lib_a-sbrkr.o) (_sbrk)
c:/a/gcc_arm/6/bin/../lib/gcc/arm-none-eabi/6.3.1/../../../../arm-none-eabi/lib/thumb/v7e-m/fpv4-sp/hard\libnosys.a(_exit.o)
                              c:/a/gcc_arm/6/bin/../lib/gcc/arm-none-eabi/6.3.1/../../../../arm-none-eabi/lib/thumb/v7e-m/fpv4-sp/hard\libc_nano.a(lib_a-exit.o) (_exit)

Allocating common symbols
Common symbol       size              file

nrf_nvic_state      0xc               examples/pb_remote/client/CMakeFiles/pb_remote_client_nrf52840_xxAA_s140_5.0.0-3.alpha.dir/__/__/nrf_mesh_sdk.c.obj
errno               0x4               c:/a/gcc_arm/6/bin/../lib/gcc/arm-none-eabi/6.3.1/../../../../arm-none-eabi/lib/thumb/v7e-m/fpv4-sp/hard\libc_nano.a(lib_a-reent.o)
m_assertion_handler
                    0x4               mesh/core/libmesh_core_nrf52840_xxAA.a(nrf_mesh.c.obj)
_SEGGER_RTT         0x78              external/rtt/librtt_nrf52840_xxAA.a(SEGGER_RTT.c.obj)

Discarded input sections

 .text          0x00000000        0x0 c:/a/gcc_arm/6/bin/../lib/gcc/arm-none-eabi/6.3.1/thumb/v7e-m/fpv4-sp/hard/crti.o
 .data          0x00000000        0x0 c:/a/gcc_arm/6/bin/../lib/gcc/arm-none-eabi/6.3.1/thumb/v7e-m/fpv4-sp/hard/crti.o
 .bss           0x00000000        0x0 c:/a/gcc_arm/6/bin/../lib/gcc/arm-none-eabi/6.3.1/thumb/v7e-m/fpv4-sp/hard/crti.o
 .data          0x00000000        0x4 c:/a/gcc_arm/6/bin/../lib/gcc/arm-none-eabi/6.3.1/thumb/v7e-m/fpv4-sp/hard/crtbegin.o
 .data          0x00000000        0x0 c:/a/gcc_arm/6/bin/../lib/gcc/arm-none-eabi/6.3.1/../../../../arm-none-eabi/lib/thumb/v7e-m/fpv4-sp/hard/crt0.o
 .bss           0x00000000        0x0 c:/a/gcc_arm/6/bin/../lib/gcc/arm-none-eabi/6.3.1/../../../../arm-none-eabi/lib/thumb/v7e-m/fpv4-sp/hard/crt0.o
 .ARM.extab     0x00000000        0x0 c:/a/gcc_arm/6/bin/../lib/gcc/arm-none-eabi/6.3.1/../../../../arm-none-eabi/lib/thumb/v7e-m/fpv4-sp/hard/crt0.o
 .text          0x00000000        0x0 examples/pb_remote/client/CMakeFiles/pb_remote_client_nrf52840_xxAA_s140_5.0.0-3.alpha.dir/src/main.c.obj
 .data          0x00000000        0x0 examples/pb_remote/client/CMakeFiles/pb_remote_client_nrf52840_xxAA_s140_5.0.0-3.alpha.dir/src/main.c.obj
 .bss           0x00000000        0x0 examples/pb_remote/client/CMakeFiles/pb_remote_client_nrf52840_xxAA_s140_5.0.0-3.alpha.dir/src/main.c.obj
 .text          0x00000000        0x0 examples/pb_remote/client/CMakeFiles/pb_remote_client_nrf52840_xxAA_s140_5.0.0-3.alpha.dir/__/__/nrf_mesh_sdk.c.obj
 .data          0x00000000        0x0 examples/pb_remote/client/CMakeFiles/pb_remote_client_nrf52840_xxAA_s140_5.0.0-3.alpha.dir/__/__/nrf_mesh_sdk.c.obj
 .bss           0x00000000        0x0 examples/pb_remote/client/CMakeFiles/pb_remote_client_nrf52840_xxAA_s140_5.0.0-3.alpha.dir/__/__/nrf_mesh_sdk.c.obj
 .text.mesh_softdevice_setup
                0x00000000      0x1b4 examples/pb_remote/client/CMakeFiles/pb_remote_client_nrf52840_xxAA_s140_5.0.0-3.alpha.dir/__/__/nrf_mesh_sdk.c.obj
 .text          0x00000000        0x0 examples/pb_remote/client/CMakeFiles/pb_remote_client_nrf52840_xxAA_s140_5.0.0-3.alpha.dir/__/__/__/models/pb_remote/src/pb_remote_client.c.obj
 .data          0x00000000        0x0 examples/pb_remote/client/CMakeFiles/pb_remote_client_nrf52840_xxAA_s140_5.0.0-3.alpha.dir/__/__/__/models/pb_remote/src/pb_remote_client.c.obj
 .bss           0x00000000        0x0 examples/pb_remote/client/CMakeFiles/pb_remote_client_nrf52840_xxAA_s140_5.0.0-3.alpha.dir/__/__/__/models/pb_remote/src/pb_remote_client.c.obj
 .text          0x00000000        0x0 examples/pb_remote/client/CMakeFiles/pb_remote_client_nrf52840_xxAA_s140_5.0.0-3.alpha.dir/__/__/__/mesh/prov/src/prov_provisioner.c.obj
 .data          0x00000000        0x0 examples/pb_remote/client/CMakeFiles/pb_remote_client_nrf52840_xxAA_s140_5.0.0-3.alpha.dir/__/__/__/mesh/prov/src/prov_provisioner.c.obj
 .bss           0x00000000        0x0 examples/pb_remote/client/CMakeFiles/pb_remote_client_nrf52840_xxAA_s140_5.0.0-3.alpha.dir/__/__/__/mesh/prov/src/prov_provisioner.c.obj
 .text.prov_provisioner_shared_secret
                0x00000000       0xcc examples/pb_remote/client/CMakeFiles/pb_remote_client_nrf52840_xxAA_s140_5.0.0-3.alpha.dir/__/__/__/mesh/prov/src/prov_provisioner.c.obj
 .text.prov_provisioner_oob_pubkey
                0x00000000       0x38 examples/pb_remote/client/CMakeFiles/pb_remote_client_nrf52840_xxAA_s140_5.0.0-3.alpha.dir/__/__/__/mesh/prov/src/prov_provisioner.c.obj
 .text          0x00000000        0x0 examples/pb_remote/client/CMakeFiles/pb_remote_client_nrf52840_xxAA_s140_5.0.0-3.alpha.dir/__/__/__/mesh/prov/src/nrf_mesh_prov.c.obj
 .data          0x00000000        0x0 examples/pb_remote/client/CMakeFiles/pb_remote_client_nrf52840_xxAA_s140_5.0.0-3.alpha.dir/__/__/__/mesh/prov/src/nrf_mesh_prov.c.obj
 .bss           0x00000000        0x0 examples/pb_remote/client/CMakeFiles/pb_remote_client_nrf52840_xxAA_s140_5.0.0-3.alpha.dir/__/__/__/mesh/prov/src/nrf_mesh_prov.c.obj
 .text.nrf_mesh_prov_listen
                0x00000000       0x28 examples/pb_remote/client/CMakeFiles/pb_remote_client_nrf52840_xxAA_s140_5.0.0-3.alpha.dir/__/__/__/mesh/prov/src/nrf_mesh_prov.c.obj
 .text.nrf_mesh_prov_shared_secret_provide
                0x00000000       0x10 examples/pb_remote/client/CMakeFiles/pb_remote_client_nrf52840_xxAA_s140_5.0.0-3.alpha.dir/__/__/__/mesh/prov/src/nrf_mesh_prov.c.obj
 .text.nrf_mesh_prov_pubkey_provide
                0x00000000       0x10 examples/pb_remote/client/CMakeFiles/pb_remote_client_nrf52840_xxAA_s140_5.0.0-3.alpha.dir/__/__/__/mesh/prov/src/nrf_mesh_prov.c.obj
 .text          0x00000000        0x0 examples/pb_remote/client/CMakeFiles/pb_remote_client_nrf52840_xxAA_s140_5.0.0-3.alpha.dir/__/__/__/mesh/prov/src/provisioning.c.obj
 .data          0x00000000        0x0 examples/pb_remote/client/CMakeFiles/pb_remote_client_nrf52840_xxAA_s140_5.0.0-3.alpha.dir/__/__/__/mesh/prov/src/provisioning.c.obj
 .bss           0x00000000        0x0 examples/pb_remote/client/CMakeFiles/pb_remote_client_nrf52840_xxAA_s140_5.0.0-3.alpha.dir/__/__/__/mesh/prov/src/provisioning.c.obj
 .text.prov_listen_start
                0x00000000       0x14 examples/pb_remote/client/CMakeFiles/pb_remote_client_nrf52840_xxAA_s140_5.0.0-3.alpha.dir/__/__/__/mesh/prov/src/provisioning.c.obj
 .text.prov_listen_stop
                0x00000000        0x8 examples/pb_remote/client/CMakeFiles/pb_remote_client_nrf52840_xxAA_s140_5.0.0-3.alpha.dir/__/__/__/mesh/prov/src/provisioning.c.obj
 .text.prov_tx_capabilities
                0x00000000       0x4c examples/pb_remote/client/CMakeFiles/pb_remote_client_nrf52840_xxAA_s140_5.0.0-3.alpha.dir/__/__/__/mesh/prov/src/provisioning.c.obj
 .text.prov_tx_input_complete
                0x00000000       0x34 examples/pb_remote/client/CMakeFiles/pb_remote_client_nrf52840_xxAA_s140_5.0.0-3.alpha.dir/__/__/__/mesh/prov/src/provisioning.c.obj
 .text.prov_tx_complete
                0x00000000       0x34 examples/pb_remote/client/CMakeFiles/pb_remote_client_nrf52840_xxAA_s140_5.0.0-3.alpha.dir/__/__/__/mesh/prov/src/provisioning.c.obj
 .text.prov_tx_failed
                0x00000000       0x38 examples/pb_remote/client/CMakeFiles/pb_remote_client_nrf52840_xxAA_s140_5.0.0-3.alpha.dir/__/__/__/mesh/prov/src/provisioning.c.obj
 .text.prov_tx  0x00000000       0x50 examples/pb_remote/client/CMakeFiles/pb_remote_client_nrf52840_xxAA_s140_5.0.0-3.alpha.dir/__/__/__/mesh/prov/src/provisioning.c.obj
 .text          0x00000000        0x0 examples/pb_remote/client/CMakeFiles/pb_remote_client_nrf52840_xxAA_s140_5.0.0-3.alpha.dir/__/__/__/mesh/prov/src/prov_beacon.c.obj
 .data          0x00000000        0x0 examples/pb_remote/client/CMakeFiles/pb_remote_client_nrf52840_xxAA_s140_5.0.0-3.alpha.dir/__/__/__/mesh/prov/src/prov_beacon.c.obj
 .bss           0x00000000        0x0 examples/pb_remote/client/CMakeFiles/pb_remote_client_nrf52840_xxAA_s140_5.0.0-3.alpha.dir/__/__/__/mesh/prov/src/prov_beacon.c.obj
 .text.prov_beacon_unprov_report
                0x00000000        0xc examples/pb_remote/client/CMakeFiles/pb_remote_client_nrf52840_xxAA_s140_5.0.0-3.alpha.dir/__/__/__/mesh/prov/src/prov_beacon.c.obj
 .text          0x00000000        0x0 examples/pb_remote/client/CMakeFiles/pb_remote_client_nrf52840_xxAA_s140_5.0.0-3.alpha.dir/__/__/__/mesh/prov/src/prov_utils.c.obj
 .data          0x00000000        0x0 examples/pb_remote/client/CMakeFiles/pb_remote_client_nrf52840_xxAA_s140_5.0.0-3.alpha.dir/__/__/__/mesh/prov/src/prov_utils.c.obj
 .bss           0x00000000        0x0 examples/pb_remote/client/CMakeFiles/pb_remote_client_nrf52840_xxAA_s140_5.0.0-3.alpha.dir/__/__/__/mesh/prov/src/prov_utils.c.obj
 .text.prov_utils_opt_set
                0x00000000       0x24 examples/pb_remote/client/CMakeFiles/pb_remote_client_nrf52840_xxAA_s140_5.0.0-3.alpha.dir/__/__/__/mesh/prov/src/prov_utils.c.obj
 .text.prov_utils_opt_get
                0x00000000       0x1c examples/pb_remote/client/CMakeFiles/pb_remote_client_nrf52840_xxAA_s140_5.0.0-3.alpha.dir/__/__/__/mesh/prov/src/prov_utils.c.obj
 .text          0x00000000        0x0 examples/pb_remote/client/CMakeFiles/pb_remote_client_nrf52840_xxAA_s140_5.0.0-3.alpha.dir/__/__/__/mesh/prov/src/prov_bearer_adv.c.obj
 .data          0x00000000        0x0 examples/pb_remote/client/CMakeFiles/pb_remote_client_nrf52840_xxAA_s140_5.0.0-3.alpha.dir/__/__/__/mesh/prov/src/prov_bearer_adv.c.obj
 .bss           0x00000000        0x0 examples/pb_remote/client/CMakeFiles/pb_remote_client_nrf52840_xxAA_s140_5.0.0-3.alpha.dir/__/__/__/mesh/prov/src/prov_bearer_adv.c.obj
 .text.calculate_3GPP_CRC
                0x00000000       0x28 examples/pb_remote/client/CMakeFiles/pb_remote_client_nrf52840_xxAA_s140_5.0.0-3.alpha.dir/__/__/__/mesh/prov/src/prov_bearer_adv.c.obj
 .text          0x00000000        0x0 examples/pb_remote/client/CMakeFiles/pb_remote_client_nrf52840_xxAA_s140_5.0.0-3.alpha.dir/__/__/__/mesh/access/src/access_publish.c.obj
 .data          0x00000000        0x0 examples/pb_remote/client/CMakeFiles/pb_remote_client_nrf52840_xxAA_s140_5.0.0-3.alpha.dir/__/__/__/mesh/access/src/access_publish.c.obj
 .bss           0x00000000        0x0 examples/pb_remote/client/CMakeFiles/pb_remote_client_nrf52840_xxAA_s140_5.0.0-3.alpha.dir/__/__/__/mesh/access/src/access_publish.c.obj
 .text.access_publish_period_set
                0x00000000       0xa4 examples/pb_remote/client/CMakeFiles/pb_remote_client_nrf52840_xxAA_s140_5.0.0-3.alpha.dir/__/__/__/mesh/access/src/access_publish.c.obj
 .text.access_publish_period_get
                0x00000000       0x38 examples/pb_remote/client/CMakeFiles/pb_remote_client_nrf52840_xxAA_s140_5.0.0-3.alpha.dir/__/__/__/mesh/access/src/access_publish.c.obj
 .text          0x00000000        0x0 examples/pb_remote/client/CMakeFiles/pb_remote_client_nrf52840_xxAA_s140_5.0.0-3.alpha.dir/__/__/__/mesh/access/src/access.c.obj
 .data          0x00000000        0x0 examples/pb_remote/client/CMakeFiles/pb_remote_client_nrf52840_xxAA_s140_5.0.0-3.alpha.dir/__/__/__/mesh/access/src/access.c.obj
 .bss           0x00000000        0x0 examples/pb_remote/client/CMakeFiles/pb_remote_client_nrf52840_xxAA_s140_5.0.0-3.alpha.dir/__/__/__/mesh/access/src/access.c.obj
 .text.access_flash_config_clear
                0x00000000       0x28 examples/pb_remote/client/CMakeFiles/pb_remote_client_nrf52840_xxAA_s140_5.0.0-3.alpha.dir/__/__/__/mesh/access/src/access.c.obj
 .text.access_flash_config_store
                0x00000000      0x138 examples/pb_remote/client/CMakeFiles/pb_remote_client_nrf52840_xxAA_s140_5.0.0-3.alpha.dir/__/__/__/mesh/access/src/access.c.obj
 .text.access_flash_config_load
                0x00000000      0x2d8 examples/pb_remote/client/CMakeFiles/pb_remote_client_nrf52840_xxAA_s140_5.0.0-3.alpha.dir/__/__/__/mesh/access/src/access.c.obj
 .text.access_clear
                0x00000000       0x6c examples/pb_remote/client/CMakeFiles/pb_remote_client_nrf52840_xxAA_s140_5.0.0-3.alpha.dir/__/__/__/mesh/access/src/access.c.obj
 .text.access_model_publish_period_set
                0x00000000       0x78 examples/pb_remote/client/CMakeFiles/pb_remote_client_nrf52840_xxAA_s140_5.0.0-3.alpha.dir/__/__/__/mesh/access/src/access.c.obj
 .text.access_model_publish_period_get
                0x00000000       0x40 examples/pb_remote/client/CMakeFiles/pb_remote_client_nrf52840_xxAA_s140_5.0.0-3.alpha.dir/__/__/__/mesh/access/src/access.c.obj
 .text.access_model_subscription_list_alloc
                0x00000000       0x60 examples/pb_remote/client/CMakeFiles/pb_remote_client_nrf52840_xxAA_s140_5.0.0-3.alpha.dir/__/__/__/mesh/access/src/access.c.obj
 .text.access_model_subscription_lists_share
                0x00000000       0x60 examples/pb_remote/client/CMakeFiles/pb_remote_client_nrf52840_xxAA_s140_5.0.0-3.alpha.dir/__/__/__/mesh/access/src/access.c.obj
 .text.access_model_subscription_add
                0x00000000       0x60 examples/pb_remote/client/CMakeFiles/pb_remote_client_nrf52840_xxAA_s140_5.0.0-3.alpha.dir/__/__/__/mesh/access/src/access.c.obj
 .text.access_model_subscription_remove
                0x00000000       0x60 examples/pb_remote/client/CMakeFiles/pb_remote_client_nrf52840_xxAA_s140_5.0.0-3.alpha.dir/__/__/__/mesh/access/src/access.c.obj
 .text.access_model_subscriptions_get
                0x00000000      0x130 examples/pb_remote/client/CMakeFiles/pb_remote_client_nrf52840_xxAA_s140_5.0.0-3.alpha.dir/__/__/__/mesh/access/src/access.c.obj
 .text.access_model_application_unbind
                0x00000000       0x58 examples/pb_remote/client/CMakeFiles/pb_remote_client_nrf52840_xxAA_s140_5.0.0-3.alpha.dir/__/__/__/mesh/access/src/access.c.obj
 .text.access_model_applications_get
                0x00000000       0x4c examples/pb_remote/client/CMakeFiles/pb_remote_client_nrf52840_xxAA_s140_5.0.0-3.alpha.dir/__/__/__/mesh/access/src/access.c.obj
 .text.access_model_publish_application_get
                0x00000000       0x2c examples/pb_remote/client/CMakeFiles/pb_remote_client_nrf52840_xxAA_s140_5.0.0-3.alpha.dir/__/__/__/mesh/access/src/access.c.obj
 .text.access_default_ttl_set
                0x00000000       0x10 examples/pb_remote/client/CMakeFiles/pb_remote_client_nrf52840_xxAA_s140_5.0.0-3.alpha.dir/__/__/__/mesh/access/src/access.c.obj
 .text.access_default_ttl_get
                0x00000000        0xc examples/pb_remote/client/CMakeFiles/pb_remote_client_nrf52840_xxAA_s140_5.0.0-3.alpha.dir/__/__/__/mesh/access/src/access.c.obj
 .text.access_element_location_set
                0x00000000       0x20 examples/pb_remote/client/CMakeFiles/pb_remote_client_nrf52840_xxAA_s140_5.0.0-3.alpha.dir/__/__/__/mesh/access/src/access.c.obj
 .text.access_element_location_get
                0x00000000       0x18 examples/pb_remote/client/CMakeFiles/pb_remote_client_nrf52840_xxAA_s140_5.0.0-3.alpha.dir/__/__/__/mesh/access/src/access.c.obj
 .text.access_element_sig_model_count_get
                0x00000000       0x18 examples/pb_remote/client/CMakeFiles/pb_remote_client_nrf52840_xxAA_s140_5.0.0-3.alpha.dir/__/__/__/mesh/access/src/access.c.obj
 .text.access_element_vendor_model_count_get
                0x00000000       0x18 examples/pb_remote/client/CMakeFiles/pb_remote_client_nrf52840_xxAA_s140_5.0.0-3.alpha.dir/__/__/__/mesh/access/src/access.c.obj
 .text.access_model_id_get
                0x00000000       0x40 examples/pb_remote/client/CMakeFiles/pb_remote_client_nrf52840_xxAA_s140_5.0.0-3.alpha.dir/__/__/__/mesh/access/src/access.c.obj
 .text.access_handle_get
                0x00000000       0x5c examples/pb_remote/client/CMakeFiles/pb_remote_client_nrf52840_xxAA_s140_5.0.0-3.alpha.dir/__/__/__/mesh/access/src/access.c.obj
 .text.access_element_models_get
                0x00000000       0x60 examples/pb_remote/client/CMakeFiles/pb_remote_client_nrf52840_xxAA_s140_5.0.0-3.alpha.dir/__/__/__/mesh/access/src/access.c.obj
 .bss.m_metadata_stored
                0x00000000        0x1 examples/pb_remote/client/CMakeFiles/pb_remote_client_nrf52840_xxAA_s140_5.0.0-3.alpha.dir/__/__/__/mesh/access/src/access.c.obj
 .data.flash_clear_mem_available_struct.10635
                0x00000000       0x10 examples/pb_remote/client/CMakeFiles/pb_remote_client_nrf52840_xxAA_s140_5.0.0-3.alpha.dir/__/__/__/mesh/access/src/access.c.obj
 .data.flash_store_mem_available_struct.10659
                0x00000000       0x10 examples/pb_remote/client/CMakeFiles/pb_remote_client_nrf52840_xxAA_s140_5.0.0-3.alpha.dir/__/__/__/mesh/access/src/access.c.obj
 .rodata.multiply_de_bruijn_bit_position.9295
                0x00000000       0x20 examples/pb_remote/client/CMakeFiles/pb_remote_client_nrf52840_xxAA_s140_5.0.0-3.alpha.dir/__/__/__/mesh/access/src/access.c.obj
 .text          0x00000000        0x0 examples/pb_remote/client/CMakeFiles/pb_remote_client_nrf52840_xxAA_s140_5.0.0-3.alpha.dir/__/__/__/mesh/access/src/access_reliable.c.obj
 .data          0x00000000        0x0 examples/pb_remote/client/CMakeFiles/pb_remote_client_nrf52840_xxAA_s140_5.0.0-3.alpha.dir/__/__/__/mesh/access/src/access_reliable.c.obj
 .bss           0x00000000        0x0 examples/pb_remote/client/CMakeFiles/pb_remote_client_nrf52840_xxAA_s140_5.0.0-3.alpha.dir/__/__/__/mesh/access/src/access_reliable.c.obj
 .text.access_reliable_cancel_all
                0x00000000       0x34 examples/pb_remote/client/CMakeFiles/pb_remote_client_nrf52840_xxAA_s140_5.0.0-3.alpha.dir/__/__/__/mesh/access/src/access_reliable.c.obj
 .text          0x00000000        0x0 examples/pb_remote/client/CMakeFiles/pb_remote_client_nrf52840_xxAA_s140_5.0.0-3.alpha.dir/__/__/__/mesh/access/src/device_state_manager.c.obj
 .data          0x00000000        0x0 examples/pb_remote/client/CMakeFiles/pb_remote_client_nrf52840_xxAA_s140_5.0.0-3.alpha.dir/__/__/__/mesh/access/src/device_state_manager.c.obj
 .bss           0x00000000        0x0 examples/pb_remote/client/CMakeFiles/pb_remote_client_nrf52840_xxAA_s140_5.0.0-3.alpha.dir/__/__/__/mesh/access/src/device_state_manager.c.obj
 .text.reset_flash_area
                0x00000000       0x28 examples/pb_remote/client/CMakeFiles/pb_remote_client_nrf52840_xxAA_s140_5.0.0-3.alpha.dir/__/__/__/mesh/access/src/device_state_manager.c.obj
 .text.address_delete_if_unused
                0x00000000       0xe0 examples/pb_remote/client/CMakeFiles/pb_remote_client_nrf52840_xxAA_s140_5.0.0-3.alpha.dir/__/__/__/mesh/access/src/device_state_manager.c.obj
 .text.dsm_flash_config_load
                0x00000000      0x190 examples/pb_remote/client/CMakeFiles/pb_remote_client_nrf52840_xxAA_s140_5.0.0-3.alpha.dir/__/__/__/mesh/access/src/device_state_manager.c.obj
 .text.dsm_has_unflashed_data
                0x00000000       0x58 examples/pb_remote/client/CMakeFiles/pb_remote_client_nrf52840_xxAA_s140_5.0.0-3.alpha.dir/__/__/__/mesh/access/src/device_state_manager.c.obj
 .text.dsm_clear
                0x00000000       0x88 examples/pb_remote/client/CMakeFiles/pb_remote_client_nrf52840_xxAA_s140_5.0.0-3.alpha.dir/__/__/__/mesh/access/src/device_state_manager.c.obj
 .text.dsm_address_publish_add_handle
                0x00000000       0x4c examples/pb_remote/client/CMakeFiles/pb_remote_client_nrf52840_xxAA_s140_5.0.0-3.alpha.dir/__/__/__/mesh/access/src/device_state_manager.c.obj
 .text.dsm_address_publish_virtual_add
                0x00000000       0xd0 examples/pb_remote/client/CMakeFiles/pb_remote_client_nrf52840_xxAA_s140_5.0.0-3.alpha.dir/__/__/__/mesh/access/src/device_state_manager.c.obj
 .text.dsm_address_publish_remove
                0x00000000       0xac examples/pb_remote/client/CMakeFiles/pb_remote_client_nrf52840_xxAA_s140_5.0.0-3.alpha.dir/__/__/__/mesh/access/src/device_state_manager.c.obj
 .text.dsm_address_subscription_add
                0x00000000      0x14c examples/pb_remote/client/CMakeFiles/pb_remote_client_nrf52840_xxAA_s140_5.0.0-3.alpha.dir/__/__/__/mesh/access/src/device_state_manager.c.obj
 .text.dsm_address_subscription_virtual_add
                0x00000000       0xd0 examples/pb_remote/client/CMakeFiles/pb_remote_client_nrf52840_xxAA_s140_5.0.0-3.alpha.dir/__/__/__/mesh/access/src/device_state_manager.c.obj
 .text.dsm_address_subscription_add_handle
                0x00000000       0x4c examples/pb_remote/client/CMakeFiles/pb_remote_client_nrf52840_xxAA_s140_5.0.0-3.alpha.dir/__/__/__/mesh/access/src/device_state_manager.c.obj
 .text.dsm_address_subscription_count_get
                0x00000000       0x78 examples/pb_remote/client/CMakeFiles/pb_remote_client_nrf52840_xxAA_s140_5.0.0-3.alpha.dir/__/__/__/mesh/access/src/device_state_manager.c.obj
 .text.dsm_address_subscription_remove
                0x00000000       0x84 examples/pb_remote/client/CMakeFiles/pb_remote_client_nrf52840_xxAA_s140_5.0.0-3.alpha.dir/__/__/__/mesh/access/src/device_state_manager.c.obj
 .text.dsm_address_get_all
                0x00000000       0x98 examples/pb_remote/client/CMakeFiles/pb_remote_client_nrf52840_xxAA_s140_5.0.0-3.alpha.dir/__/__/__/mesh/access/src/device_state_manager.c.obj
 .text.dsm_net_key_index_to_subnet_handle
                0x00000000       0x28 examples/pb_remote/client/CMakeFiles/pb_remote_client_nrf52840_xxAA_s140_5.0.0-3.alpha.dir/__/__/__/mesh/access/src/device_state_manager.c.obj
 .text.dsm_subnet_handle_get
                0x00000000       0x1c examples/pb_remote/client/CMakeFiles/pb_remote_client_nrf52840_xxAA_s140_5.0.0-3.alpha.dir/__/__/__/mesh/access/src/device_state_manager.c.obj
 .text.dsm_subnet_handle_to_netkey_index
                0x00000000       0x24 examples/pb_remote/client/CMakeFiles/pb_remote_client_nrf52840_xxAA_s140_5.0.0-3.alpha.dir/__/__/__/mesh/access/src/device_state_manager.c.obj
 .text.dsm_app_key_index_to_appkey_handle
                0x00000000       0x28 examples/pb_remote/client/CMakeFiles/pb_remote_client_nrf52840_xxAA_s140_5.0.0-3.alpha.dir/__/__/__/mesh/access/src/device_state_manager.c.obj
 .text.dsm_appkey_handle_to_appkey_index
                0x00000000       0x24 examples/pb_remote/client/CMakeFiles/pb_remote_client_nrf52840_xxAA_s140_5.0.0-3.alpha.dir/__/__/__/mesh/access/src/device_state_manager.c.obj
 .text.dsm_subnet_update
                0x00000000       0x84 examples/pb_remote/client/CMakeFiles/pb_remote_client_nrf52840_xxAA_s140_5.0.0-3.alpha.dir/__/__/__/mesh/access/src/device_state_manager.c.obj
 .text.dsm_subnet_delete
                0x00000000      0x2a4 examples/pb_remote/client/CMakeFiles/pb_remote_client_nrf52840_xxAA_s140_5.0.0-3.alpha.dir/__/__/__/mesh/access/src/device_state_manager.c.obj
 .text.dsm_subnet_get_all
                0x00000000       0x44 examples/pb_remote/client/CMakeFiles/pb_remote_client_nrf52840_xxAA_s140_5.0.0-3.alpha.dir/__/__/__/mesh/access/src/device_state_manager.c.obj
 .text.dsm_devkey_delete
                0x00000000       0x80 examples/pb_remote/client/CMakeFiles/pb_remote_client_nrf52840_xxAA_s140_5.0.0-3.alpha.dir/__/__/__/mesh/access/src/device_state_manager.c.obj
 .text.dsm_devkey_handle_get
                0x00000000       0x98 examples/pb_remote/client/CMakeFiles/pb_remote_client_nrf52840_xxAA_s140_5.0.0-3.alpha.dir/__/__/__/mesh/access/src/device_state_manager.c.obj
 .text.dsm_appkey_update
                0x00000000       0xcc examples/pb_remote/client/CMakeFiles/pb_remote_client_nrf52840_xxAA_s140_5.0.0-3.alpha.dir/__/__/__/mesh/access/src/device_state_manager.c.obj
 .text.dsm_appkey_delete
                0x00000000       0x60 examples/pb_remote/client/CMakeFiles/pb_remote_client_nrf52840_xxAA_s140_5.0.0-3.alpha.dir/__/__/__/mesh/access/src/device_state_manager.c.obj
 .text.dsm_appkey_get_all
                0x00000000       0x54 examples/pb_remote/client/CMakeFiles/pb_remote_client_nrf52840_xxAA_s140_5.0.0-3.alpha.dir/__/__/__/mesh/access/src/device_state_manager.c.obj
 .text.dsm_beacon_secmat_get
                0x00000000       0x24 examples/pb_remote/client/CMakeFiles/pb_remote_client_nrf52840_xxAA_s140_5.0.0-3.alpha.dir/__/__/__/mesh/access/src/device_state_manager.c.obj
 .text.dsm_proxy_identity_get
                0x00000000        0x4 examples/pb_remote/client/CMakeFiles/pb_remote_client_nrf52840_xxAA_s140_5.0.0-3.alpha.dir/__/__/__/mesh/access/src/device_state_manager.c.obj
 .data.mem_listener.10798
                0x00000000       0x10 examples/pb_remote/client/CMakeFiles/pb_remote_client_nrf52840_xxAA_s140_5.0.0-3.alpha.dir/__/__/__/mesh/access/src/device_state_manager.c.obj
 .text          0x00000000        0x0 examples/pb_remote/client/CMakeFiles/pb_remote_client_nrf52840_xxAA_s140_5.0.0-3.alpha.dir/__/__/nrf_mesh_weak.c.obj
 .data          0x00000000        0x0 examples/pb_remote/client/CMakeFiles/pb_remote_client_nrf52840_xxAA_s140_5.0.0-3.alpha.dir/__/__/nrf_mesh_weak.c.obj
 .bss           0x00000000        0x0 examples/pb_remote/client/CMakeFiles/pb_remote_client_nrf52840_xxAA_s140_5.0.0-3.alpha.dir/__/__/nrf_mesh_weak.c.obj
 .text._weak_handler_ptr
                0x00000000        0x4 examples/pb_remote/client/CMakeFiles/pb_remote_client_nrf52840_xxAA_s140_5.0.0-3.alpha.dir/__/__/nrf_mesh_weak.c.obj
 .text          0x00000000        0x0 examples/pb_remote/client/CMakeFiles/pb_remote_client_nrf52840_xxAA_s140_5.0.0-3.alpha.dir/__/__/__/external/nRF5_SDK_14.0.0_3bcc1f7/components/toolchain/system_nrf52840.c.obj
 .data          0x00000000        0x0 examples/pb_remote/client/CMakeFiles/pb_remote_client_nrf52840_xxAA_s140_5.0.0-3.alpha.dir/__/__/__/external/nRF5_SDK_14.0.0_3bcc1f7/components/toolchain/system_nrf52840.c.obj
 .bss           0x00000000        0x0 examples/pb_remote/client/CMakeFiles/pb_remote_client_nrf52840_xxAA_s140_5.0.0-3.alpha.dir/__/__/__/external/nRF5_SDK_14.0.0_3bcc1f7/components/toolchain/system_nrf52840.c.obj
 .text.SystemCoreClockUpdate
                0x00000000       0x10 examples/pb_remote/client/CMakeFiles/pb_remote_client_nrf52840_xxAA_s140_5.0.0-3.alpha.dir/__/__/__/external/nRF5_SDK_14.0.0_3bcc1f7/components/toolchain/system_nrf52840.c.obj
 .data          0x00000000        0x0 examples/pb_remote/client/CMakeFiles/pb_remote_client_nrf52840_xxAA_s140_5.0.0-3.alpha.dir/__/__/__/external/nRF5_SDK_14.0.0_3bcc1f7/components/toolchain/gcc/gcc_startup_nrf52840.S.obj
 .bss           0x00000000        0x0 examples/pb_remote/client/CMakeFiles/pb_remote_client_nrf52840_xxAA_s140_5.0.0-3.alpha.dir/__/__/__/external/nRF5_SDK_14.0.0_3bcc1f7/components/toolchain/gcc/gcc_startup_nrf52840.S.obj
 .text          0x00000000        0x0 mesh/core/libmesh_core_nrf52840_xxAA.a(nrf_mesh_configure.c.obj)
 .data          0x00000000        0x0 mesh/core/libmesh_core_nrf52840_xxAA.a(nrf_mesh_configure.c.obj)
 .bss           0x00000000        0x0 mesh/core/libmesh_core_nrf52840_xxAA.a(nrf_mesh_configure.c.obj)
 .text.nrf_mesh_configure_device_uuid_set
                0x00000000       0x10 mesh/core/libmesh_core_nrf52840_xxAA.a(nrf_mesh_configure.c.obj)
 .text          0x00000000        0x0 mesh/core/libmesh_core_nrf52840_xxAA.a(event.c.obj)
 .data          0x00000000        0x0 mesh/core/libmesh_core_nrf52840_xxAA.a(event.c.obj)
 .bss           0x00000000        0x0 mesh/core/libmesh_core_nrf52840_xxAA.a(event.c.obj)
 .text.event_handler_remove
                0x00000000       0x6c mesh/core/libmesh_core_nrf52840_xxAA.a(event.c.obj)
 .text          0x00000000        0x0 mesh/core/libmesh_core_nrf52840_xxAA.a(fifo.c.obj)
 .data          0x00000000        0x0 mesh/core/libmesh_core_nrf52840_xxAA.a(fifo.c.obj)
 .bss           0x00000000        0x0 mesh/core/libmesh_core_nrf52840_xxAA.a(fifo.c.obj)
 .text.fifo_peek_at
                0x00000000       0x54 mesh/core/libmesh_core_nrf52840_xxAA.a(fifo.c.obj)
 .text.fifo_peek
                0x00000000       0x50 mesh/core/libmesh_core_nrf52840_xxAA.a(fifo.c.obj)
 .text.fifo_flush
                0x00000000        0x8 mesh/core/libmesh_core_nrf52840_xxAA.a(fifo.c.obj)
 .text.fifo_get_len
                0x00000000        0x8 mesh/core/libmesh_core_nrf52840_xxAA.a(fifo.c.obj)
 .text.fifo_is_full
                0x00000000       0x14 mesh/core/libmesh_core_nrf52840_xxAA.a(fifo.c.obj)
 .text.fifo_is_empty
                0x00000000       0x10 mesh/core/libmesh_core_nrf52840_xxAA.a(fifo.c.obj)
 .text          0x00000000        0x0 mesh/core/libmesh_core_nrf52840_xxAA.a(net_state.c.obj)
 .data          0x00000000        0x0 mesh/core/libmesh_core_nrf52840_xxAA.a(net_state.c.obj)
 .bss           0x00000000        0x0 mesh/core/libmesh_core_nrf52840_xxAA.a(net_state.c.obj)
 .text.net_state_reset
                0x00000000       0x3c mesh/core/libmesh_core_nrf52840_xxAA.a(net_state.c.obj)
 .text.net_state_iv_update_start
                0x00000000       0x90 mesh/core/libmesh_core_nrf52840_xxAA.a(net_state.c.obj)
 .text.net_state_iv_update_test_mode_set
                0x00000000        0xc mesh/core/libmesh_core_nrf52840_xxAA.a(net_state.c.obj)
 .data.mem_listener.10054
                0x00000000       0x10 mesh/core/libmesh_core_nrf52840_xxAA.a(net_state.c.obj)
 .text          0x00000000        0x0 mesh/core/libmesh_core_nrf52840_xxAA.a(nrf_mesh_utils.c.obj)
 .data          0x00000000        0x0 mesh/core/libmesh_core_nrf52840_xxAA.a(nrf_mesh_utils.c.obj)
 .bss           0x00000000        0x0 mesh/core/libmesh_core_nrf52840_xxAA.a(nrf_mesh_utils.c.obj)
 .text.nrf_mesh_rand_get
                0x00000000       0x10 mesh/core/libmesh_core_nrf52840_xxAA.a(nrf_mesh_utils.c.obj)
 .text.nrf_mesh_gap_address_type_get
                0x00000000       0x40 mesh/core/libmesh_core_nrf52840_xxAA.a(nrf_mesh_utils.c.obj)
 .text          0x00000000        0x0 mesh/core/libmesh_core_nrf52840_xxAA.a(nrf_mesh.c.obj)
 .data          0x00000000        0x0 mesh/core/libmesh_core_nrf52840_xxAA.a(nrf_mesh.c.obj)
 .bss           0x00000000        0x0 mesh/core/libmesh_core_nrf52840_xxAA.a(nrf_mesh.c.obj)
 .text.nrf_mesh_disable
                0x00000000       0x2c mesh/core/libmesh_core_nrf52840_xxAA.a(nrf_mesh.c.obj)
 .text.nrf_mesh_evt_handler_remove
                0x00000000        0x4 mesh/core/libmesh_core_nrf52840_xxAA.a(nrf_mesh.c.obj)
 .text.nrf_mesh_rx_cb_set
                0x00000000        0xc mesh/core/libmesh_core_nrf52840_xxAA.a(nrf_mesh.c.obj)
 .text.nrf_mesh_rx_cb_clear
                0x00000000        0xc mesh/core/libmesh_core_nrf52840_xxAA.a(nrf_mesh.c.obj)
 .text          0x00000000        0x0 mesh/core/libmesh_core_nrf52840_xxAA.a(hal.c.obj)
 .data          0x00000000        0x0 mesh/core/libmesh_core_nrf52840_xxAA.a(hal.c.obj)
 .bss           0x00000000        0x0 mesh/core/libmesh_core_nrf52840_xxAA.a(hal.c.obj)
 .text.sd_power_reset_reason_clr
                0x00000000        0x4 mesh/core/libmesh_core_nrf52840_xxAA.a(hal.c.obj)
 .text.hal_device_reset
                0x00000000       0x2c mesh/core/libmesh_core_nrf52840_xxAA.a(hal.c.obj)
 .text          0x00000000        0x0 mesh/core/libmesh_core_nrf52840_xxAA.a(timer_scheduler.c.obj)
 .data          0x00000000        0x0 mesh/core/libmesh_core_nrf52840_xxAA.a(timer_scheduler.c.obj)
 .bss           0x00000000        0x0 mesh/core/libmesh_core_nrf52840_xxAA.a(timer_scheduler.c.obj)
 .text          0x00000000        0x0 mesh/core/libmesh_core_nrf52840_xxAA.a(timer.c.obj)
 .data          0x00000000        0x0 mesh/core/libmesh_core_nrf52840_xxAA.a(timer.c.obj)
 .bss           0x00000000        0x0 mesh/core/libmesh_core_nrf52840_xxAA.a(timer.c.obj)
 .text.timer_order_cb_ppi
                0x00000000       0xd8 mesh/core/libmesh_core_nrf52840_xxAA.a(timer.c.obj)
 .text.timer_order_ppi
                0x00000000       0x88 mesh/core/libmesh_core_nrf52840_xxAA.a(timer.c.obj)
 .text.timer_abort
                0x00000000       0x84 mesh/core/libmesh_core_nrf52840_xxAA.a(timer.c.obj)
 .text          0x00000000        0x0 mesh/core/libmesh_core_nrf52840_xxAA.a(ticker.c.obj)
 .data          0x00000000        0x0 mesh/core/libmesh_core_nrf52840_xxAA.a(ticker.c.obj)
 .bss           0x00000000        0x0 mesh/core/libmesh_core_nrf52840_xxAA.a(ticker.c.obj)
 .text.ticker_get
                0x00000000        0xc mesh/core/libmesh_core_nrf52840_xxAA.a(ticker.c.obj)
 .text          0x00000000        0x0 mesh/core/libmesh_core_nrf52840_xxAA.a(rand.c.obj)
 .data          0x00000000        0x0 mesh/core/libmesh_core_nrf52840_xxAA.a(rand.c.obj)
 .bss           0x00000000        0x0 mesh/core/libmesh_core_nrf52840_xxAA.a(rand.c.obj)
 .text          0x00000000        0x0 mesh/core/libmesh_core_nrf52840_xxAA.a(timeslot.c.obj)
 .data          0x00000000        0x0 mesh/core/libmesh_core_nrf52840_xxAA.a(timeslot.c.obj)
 .bss           0x00000000        0x0 mesh/core/libmesh_core_nrf52840_xxAA.a(timeslot.c.obj)
 .text.timeslot_restart
                0x00000000       0x30 mesh/core/libmesh_core_nrf52840_xxAA.a(timeslot.c.obj)
 .text.timeslot_end_time_get
                0x00000000       0x30 mesh/core/libmesh_core_nrf52840_xxAA.a(timeslot.c.obj)
 .text.timeslot_is_in_ts
                0x00000000        0xc mesh/core/libmesh_core_nrf52840_xxAA.a(timeslot.c.obj)
 .text          0x00000000        0x0 mesh/core/libmesh_core_nrf52840_xxAA.a(bearer_event.c.obj)
 .data          0x00000000        0x0 mesh/core/libmesh_core_nrf52840_xxAA.a(bearer_event.c.obj)
 .bss           0x00000000        0x0 mesh/core/libmesh_core_nrf52840_xxAA.a(bearer_event.c.obj)
 .text.bearer_event_generic_post
                0x00000000       0x50 mesh/core/libmesh_core_nrf52840_xxAA.a(bearer_event.c.obj)
 .text.bearer_event_timer_sch_post
                0x00000000       0x54 mesh/core/libmesh_core_nrf52840_xxAA.a(bearer_event.c.obj)
 .text          0x00000000        0x0 mesh/core/libmesh_core_nrf52840_xxAA.a(enc.c.obj)
 .data          0x00000000        0x0 mesh/core/libmesh_core_nrf52840_xxAA.a(enc.c.obj)
 .bss           0x00000000        0x0 mesh/core/libmesh_core_nrf52840_xxAA.a(enc.c.obj)
 .text.enc_key_generate
                0x00000000        0x8 mesh/core/libmesh_core_nrf52840_xxAA.a(enc.c.obj)
 .text          0x00000000        0x0 mesh/core/libmesh_core_nrf52840_xxAA.a(network.c.obj)
 .data          0x00000000        0x0 mesh/core/libmesh_core_nrf52840_xxAA.a(network.c.obj)
 .bss           0x00000000        0x0 mesh/core/libmesh_core_nrf52840_xxAA.a(network.c.obj)
 .text.network_opt_set
                0x00000000       0x58 mesh/core/libmesh_core_nrf52840_xxAA.a(network.c.obj)
 .text.network_opt_get
                0x00000000       0x4c mesh/core/libmesh_core_nrf52840_xxAA.a(network.c.obj)
 .text.network_packet_discard
                0x00000000       0x4c mesh/core/libmesh_core_nrf52840_xxAA.a(network.c.obj)
 .text          0x00000000        0x0 mesh/core/libmesh_core_nrf52840_xxAA.a(nrf_mesh_keygen.c.obj)
 .data          0x00000000        0x0 mesh/core/libmesh_core_nrf52840_xxAA.a(nrf_mesh_keygen.c.obj)
 .bss           0x00000000        0x0 mesh/core/libmesh_core_nrf52840_xxAA.a(nrf_mesh_keygen.c.obj)
 .text.nrf_mesh_keygen_identitykey
                0x00000000       0x4c mesh/core/libmesh_core_nrf52840_xxAA.a(nrf_mesh_keygen.c.obj)
 .text          0x00000000        0x0 mesh/core/libmesh_core_nrf52840_xxAA.a(log.c.obj)
 .data          0x00000000        0x0 mesh/core/libmesh_core_nrf52840_xxAA.a(log.c.obj)
 .bss           0x00000000        0x0 mesh/core/libmesh_core_nrf52840_xxAA.a(log.c.obj)
 .text.log_callback_logview
                0x00000000       0x38 mesh/core/libmesh_core_nrf52840_xxAA.a(log.c.obj)
 .text.log_set_callback
                0x00000000        0xc mesh/core/libmesh_core_nrf52840_xxAA.a(log.c.obj)
 .text.log_vprintf
                0x00000000       0x18 mesh/core/libmesh_core_nrf52840_xxAA.a(log.c.obj)
 .rodata.log_callback_logview.str1.4
                0x00000000       0x12 mesh/core/libmesh_core_nrf52840_xxAA.a(log.c.obj)
 .text          0x00000000        0x0 mesh/core/libmesh_core_nrf52840_xxAA.a(flash_manager.c.obj)
 .data          0x00000000        0x0 mesh/core/libmesh_core_nrf52840_xxAA.a(flash_manager.c.obj)
 .bss           0x00000000        0x0 mesh/core/libmesh_core_nrf52840_xxAA.a(flash_manager.c.obj)
 .text.flash_manager_remove
                0x00000000       0x78 mesh/core/libmesh_core_nrf52840_xxAA.a(flash_manager.c.obj)
 .text.flash_manager_entry_get
                0x00000000       0x54 mesh/core/libmesh_core_nrf52840_xxAA.a(flash_manager.c.obj)
 .text.flash_manager_entry_count_get
                0x00000000      0x110 mesh/core/libmesh_core_nrf52840_xxAA.a(flash_manager.c.obj)
 .text.flash_manager_entry_release
                0x00000000       0xb4 mesh/core/libmesh_core_nrf52840_xxAA.a(flash_manager.c.obj)
 .text          0x00000000        0x0 mesh/core/libmesh_core_nrf52840_xxAA.a(ccm_soft.c.obj)
 .data          0x00000000        0x0 mesh/core/libmesh_core_nrf52840_xxAA.a(ccm_soft.c.obj)
 .bss           0x00000000        0x0 mesh/core/libmesh_core_nrf52840_xxAA.a(ccm_soft.c.obj)
 .text          0x00000000        0x0 mesh/core/libmesh_core_nrf52840_xxAA.a(beacon.c.obj)
 .data          0x00000000        0x0 mesh/core/libmesh_core_nrf52840_xxAA.a(beacon.c.obj)
 .bss           0x00000000        0x0 mesh/core/libmesh_core_nrf52840_xxAA.a(beacon.c.obj)
 .text          0x00000000        0x0 mesh/core/libmesh_core_nrf52840_xxAA.a(flash_manager_internal.c.obj)
 .data          0x00000000        0x0 mesh/core/libmesh_core_nrf52840_xxAA.a(flash_manager_internal.c.obj)
 .bss           0x00000000        0x0 mesh/core/libmesh_core_nrf52840_xxAA.a(flash_manager_internal.c.obj)
 .text          0x00000000        0x0 mesh/core/libmesh_core_nrf52840_xxAA.a(core_tx.c.obj)
 .data          0x00000000        0x0 mesh/core/libmesh_core_nrf52840_xxAA.a(core_tx.c.obj)
 .bss           0x00000000        0x0 mesh/core/libmesh_core_nrf52840_xxAA.a(core_tx.c.obj)
 .text.core_tx_adv_count_set
                0x00000000       0x40 mesh/core/libmesh_core_nrf52840_xxAA.a(core_tx.c.obj)
 .text.core_tx_adv_count_get
                0x00000000       0x2c mesh/core/libmesh_core_nrf52840_xxAA.a(core_tx.c.obj)
 .text.core_tx_adv_interval_set
                0x00000000       0x34 mesh/core/libmesh_core_nrf52840_xxAA.a(core_tx.c.obj)
 .text.core_tx_adv_interval_get
                0x00000000       0x38 mesh/core/libmesh_core_nrf52840_xxAA.a(core_tx.c.obj)
 .text.core_tx_adv_address_set
                0x00000000       0x34 mesh/core/libmesh_core_nrf52840_xxAA.a(core_tx.c.obj)
 .text          0x00000000        0x0 mesh/core/libmesh_core_nrf52840_xxAA.a(net_beacon.c.obj)
 .data          0x00000000        0x0 mesh/core/libmesh_core_nrf52840_xxAA.a(net_beacon.c.obj)
 .bss           0x00000000        0x0 mesh/core/libmesh_core_nrf52840_xxAA.a(net_beacon.c.obj)
 .text.net_beacon_state_set
                0x00000000       0x3c mesh/core/libmesh_core_nrf52840_xxAA.a(net_beacon.c.obj)
 .text.net_beacon_state_get
                0x00000000        0xc mesh/core/libmesh_core_nrf52840_xxAA.a(net_beacon.c.obj)
 .text          0x00000000        0x0 mesh/core/libmesh_core_nrf52840_xxAA.a(advertiser.c.obj)
 .data          0x00000000        0x0 mesh/core/libmesh_core_nrf52840_xxAA.a(advertiser.c.obj)
 .bss           0x00000000        0x0 mesh/core/libmesh_core_nrf52840_xxAA.a(advertiser.c.obj)
 .text.advertiser_disable
                0x00000000        0xc mesh/core/libmesh_core_nrf52840_xxAA.a(advertiser.c.obj)
 .text.advertiser_channels_set
                0x00000000       0xac mesh/core/libmesh_core_nrf52840_xxAA.a(advertiser.c.obj)
 .text.advertiser_config_set
                0x00000000      0x12c mesh/core/libmesh_core_nrf52840_xxAA.a(advertiser.c.obj)
 .text.advertiser_address_set
                0x00000000       0x80 mesh/core/libmesh_core_nrf52840_xxAA.a(advertiser.c.obj)
 .text.advertiser_config_get
                0x00000000       0x30 mesh/core/libmesh_core_nrf52840_xxAA.a(advertiser.c.obj)
 .text.advertiser_address_default_get
                0x00000000       0x68 mesh/core/libmesh_core_nrf52840_xxAA.a(advertiser.c.obj)
 .text          0x00000000        0x0 mesh/core/libmesh_core_nrf52840_xxAA.a(bearer_handler.c.obj)
 .data          0x00000000        0x0 mesh/core/libmesh_core_nrf52840_xxAA.a(bearer_handler.c.obj)
 .bss           0x00000000        0x0 mesh/core/libmesh_core_nrf52840_xxAA.a(bearer_handler.c.obj)
 .text.bearer_handler_stop
                0x00000000       0x20 mesh/core/libmesh_core_nrf52840_xxAA.a(bearer_handler.c.obj)
 .text.bearer_handler_action_fire
                0x00000000       0xb0 mesh/core/libmesh_core_nrf52840_xxAA.a(bearer_handler.c.obj)
 .text          0x00000000        0x0 mesh/core/libmesh_core_nrf52840_xxAA.a(broadcast.c.obj)
 .data          0x00000000        0x0 mesh/core/libmesh_core_nrf52840_xxAA.a(broadcast.c.obj)
 .bss           0x00000000        0x0 mesh/core/libmesh_core_nrf52840_xxAA.a(broadcast.c.obj)
 .text          0x00000000        0x0 mesh/core/libmesh_core_nrf52840_xxAA.a(radio_config.c.obj)
 .data          0x00000000        0x0 mesh/core/libmesh_core_nrf52840_xxAA.a(radio_config.c.obj)
 .bss           0x00000000        0x0 mesh/core/libmesh_core_nrf52840_xxAA.a(radio_config.c.obj)
 .text.radio_config_access_addr_get
                0x00000000       0x6c mesh/core/libmesh_core_nrf52840_xxAA.a(radio_config.c.obj)
 .text          0x00000000        0x0 mesh/core/libmesh_core_nrf52840_xxAA.a(scanner.c.obj)
 .data          0x00000000        0x0 mesh/core/libmesh_core_nrf52840_xxAA.a(scanner.c.obj)
 .bss           0x00000000        0x0 mesh/core/libmesh_core_nrf52840_xxAA.a(scanner.c.obj)
 .text.scanner_disable
                0x00000000       0x5c mesh/core/libmesh_core_nrf52840_xxAA.a(scanner.c.obj)
 .text.scanner_is_enabled
                0x00000000       0x14 mesh/core/libmesh_core_nrf52840_xxAA.a(scanner.c.obj)
 .text.scanner_stats_get
                0x00000000        0x8 mesh/core/libmesh_core_nrf52840_xxAA.a(scanner.c.obj)
 .text.scanner_config_radio_mode_set
                0x00000000       0x10 mesh/core/libmesh_core_nrf52840_xxAA.a(scanner.c.obj)
 .text.scanner_config_scan_time_set
                0x00000000       0x94 mesh/core/libmesh_core_nrf52840_xxAA.a(scanner.c.obj)
 .text.scanner_config_channels_set
                0x00000000       0x64 mesh/core/libmesh_core_nrf52840_xxAA.a(scanner.c.obj)
 .text.scanner_config_access_addresses_set
                0x00000000       0x44 mesh/core/libmesh_core_nrf52840_xxAA.a(scanner.c.obj)
 .text          0x00000000        0x0 mesh/core/libmesh_core_nrf52840_xxAA.a(internal_event.c.obj)
 .data          0x00000000        0x0 mesh/core/libmesh_core_nrf52840_xxAA.a(internal_event.c.obj)
 .bss           0x00000000        0x0 mesh/core/libmesh_core_nrf52840_xxAA.a(internal_event.c.obj)
 .text.internal_event_init
                0x00000000       0x48 mesh/core/libmesh_core_nrf52840_xxAA.a(internal_event.c.obj)
 .text.internal_event_pop
                0x00000000       0x1c mesh/core/libmesh_core_nrf52840_xxAA.a(internal_event.c.obj)
 .bss.m_internal_event_fifo_buffer
                0x00000000      0x100 mesh/core/libmesh_core_nrf52840_xxAA.a(internal_event.c.obj)
 .text          0x00000000        0x0 mesh/core/libmesh_core_nrf52840_xxAA.a(aes.c.obj)
 .data          0x00000000        0x0 mesh/core/libmesh_core_nrf52840_xxAA.a(aes.c.obj)
 .bss           0x00000000        0x0 mesh/core/libmesh_core_nrf52840_xxAA.a(aes.c.obj)
 .text          0x00000000        0x0 mesh/core/libmesh_core_nrf52840_xxAA.a(msg_cache.c.obj)
 .data          0x00000000        0x0 mesh/core/libmesh_core_nrf52840_xxAA.a(msg_cache.c.obj)
 .bss           0x00000000        0x0 mesh/core/libmesh_core_nrf52840_xxAA.a(msg_cache.c.obj)
 .text.msg_cache_clear
                0x00000000       0x18 mesh/core/libmesh_core_nrf52840_xxAA.a(msg_cache.c.obj)
 .text          0x00000000        0x0 mesh/core/libmesh_core_nrf52840_xxAA.a(transport.c.obj)
 .data          0x00000000        0x0 mesh/core/libmesh_core_nrf52840_xxAA.a(transport.c.obj)
 .bss           0x00000000        0x0 mesh/core/libmesh_core_nrf52840_xxAA.a(transport.c.obj)
 .text.transport_sar_mem_funcs_reset
                0x00000000       0x30 mesh/core/libmesh_core_nrf52840_xxAA.a(transport.c.obj)
 .text.transport_sar_mem_funcs_set
                0x00000000       0x48 mesh/core/libmesh_core_nrf52840_xxAA.a(transport.c.obj)
 .text.transport_opt_set
                0x00000000       0xdc mesh/core/libmesh_core_nrf52840_xxAA.a(transport.c.obj)
 .text.transport_opt_get
                0x00000000       0x84 mesh/core/libmesh_core_nrf52840_xxAA.a(transport.c.obj)
 .text          0x00000000        0x0 mesh/core/libmesh_core_nrf52840_xxAA.a(packet_buffer.c.obj)
 .data          0x00000000        0x0 mesh/core/libmesh_core_nrf52840_xxAA.a(packet_buffer.c.obj)
 .bss           0x00000000        0x0 mesh/core/libmesh_core_nrf52840_xxAA.a(packet_buffer.c.obj)
 .text.packet_buffer_max_packet_len_get
                0x00000000       0x3c mesh/core/libmesh_core_nrf52840_xxAA.a(packet_buffer.c.obj)
 .text          0x00000000        0x0 mesh/core/libmesh_core_nrf52840_xxAA.a(flash_manager_defrag.c.obj)
 .data          0x00000000        0x0 mesh/core/libmesh_core_nrf52840_xxAA.a(flash_manager_defrag.c.obj)
 .bss           0x00000000        0x0 mesh/core/libmesh_core_nrf52840_xxAA.a(flash_manager_defrag.c.obj)
 .text.flash_manager_defragging
                0x00000000       0x50 mesh/core/libmesh_core_nrf52840_xxAA.a(flash_manager_defrag.c.obj)
 .text          0x00000000        0x0 mesh/core/libmesh_core_nrf52840_xxAA.a(packet_mgr.c.obj)
 .data          0x00000000        0x0 mesh/core/libmesh_core_nrf52840_xxAA.a(packet_mgr.c.obj)
 .bss           0x00000000        0x0 mesh/core/libmesh_core_nrf52840_xxAA.a(packet_mgr.c.obj)
 .text.packet_mgr_alloc
                0x00000000      0x1dc mesh/core/libmesh_core_nrf52840_xxAA.a(packet_mgr.c.obj)
 .text.packet_mgr_free
                0x00000000       0x70 mesh/core/libmesh_core_nrf52840_xxAA.a(packet_mgr.c.obj)
 .text.packet_mgr_get_free_space
                0x00000000       0x1c mesh/core/libmesh_core_nrf52840_xxAA.a(packet_mgr.c.obj)
 .text.packet_mgr_refcount_get
                0x00000000        0x8 mesh/core/libmesh_core_nrf52840_xxAA.a(packet_mgr.c.obj)
 .text.packet_mgr_size_get
                0x00000000        0x8 mesh/core/libmesh_core_nrf52840_xxAA.a(packet_mgr.c.obj)
 .text          0x00000000        0x0 mesh/core/libmesh_core_nrf52840_xxAA.a(mesh_flash.c.obj)
 .data          0x00000000        0x0 mesh/core/libmesh_core_nrf52840_xxAA.a(mesh_flash.c.obj)
 .bss           0x00000000        0x0 mesh/core/libmesh_core_nrf52840_xxAA.a(mesh_flash.c.obj)
 .text.mesh_flash_op_available_slots
                0x00000000       0x2c mesh/core/libmesh_core_nrf52840_xxAA.a(mesh_flash.c.obj)
 .text.mesh_flash_in_progress
                0x00000000       0x34 mesh/core/libmesh_core_nrf52840_xxAA.a(mesh_flash.c.obj)
 .text.mesh_flash_set_suspended
                0x00000000       0x90 mesh/core/libmesh_core_nrf52840_xxAA.a(mesh_flash.c.obj)
 .bss.suspend_count.10174
                0x00000000        0x4 mesh/core/libmesh_core_nrf52840_xxAA.a(mesh_flash.c.obj)
 .text          0x00000000        0x0 mesh/core/libmesh_core_nrf52840_xxAA.a(queue.c.obj)
 .data          0x00000000        0x0 mesh/core/libmesh_core_nrf52840_xxAA.a(queue.c.obj)
 .bss           0x00000000        0x0 mesh/core/libmesh_core_nrf52840_xxAA.a(queue.c.obj)
 .text          0x00000000        0x0 mesh/core/libmesh_core_nrf52840_xxAA.a(aes_cmac.c.obj)
 .data          0x00000000        0x0 mesh/core/libmesh_core_nrf52840_xxAA.a(aes_cmac.c.obj)
 .bss           0x00000000        0x0 mesh/core/libmesh_core_nrf52840_xxAA.a(aes_cmac.c.obj)
 .text          0x00000000        0x0 mesh/core/libmesh_core_nrf52840_xxAA.a(msqueue.c.obj)
 .data          0x00000000        0x0 mesh/core/libmesh_core_nrf52840_xxAA.a(msqueue.c.obj)
 .bss           0x00000000        0x0 mesh/core/libmesh_core_nrf52840_xxAA.a(msqueue.c.obj)
 .text.msq_reset
                0x00000000       0x34 mesh/core/libmesh_core_nrf52840_xxAA.a(msqueue.c.obj)
 .text          0x00000000        0x0 mesh/core/libmesh_core_nrf52840_xxAA.a(replay_cache.c.obj)
 .data          0x00000000        0x0 mesh/core/libmesh_core_nrf52840_xxAA.a(replay_cache.c.obj)
 .bss           0x00000000        0x0 mesh/core/libmesh_core_nrf52840_xxAA.a(replay_cache.c.obj)
 .text.replay_cache_on_iv_update
                0x00000000       0x2c mesh/core/libmesh_core_nrf52840_xxAA.a(replay_cache.c.obj)
 .text.replay_cache_clear
                0x00000000       0x28 mesh/core/libmesh_core_nrf52840_xxAA.a(replay_cache.c.obj)
 .text          0x00000000        0x0 mesh/core/libmesh_core_nrf52840_xxAA.a(filter_engine.c.obj)
 .data          0x00000000        0x0 mesh/core/libmesh_core_nrf52840_xxAA.a(filter_engine.c.obj)
 .bss           0x00000000        0x0 mesh/core/libmesh_core_nrf52840_xxAA.a(filter_engine.c.obj)
 .text.fen_filter_start
                0x00000000       0x84 mesh/core/libmesh_core_nrf52840_xxAA.a(filter_engine.c.obj)
 .text.fen_filter_stop
                0x00000000       0x70 mesh/core/libmesh_core_nrf52840_xxAA.a(filter_engine.c.obj)
 .text.fen_accepted_amount_get
                0x00000000        0xc mesh/core/libmesh_core_nrf52840_xxAA.a(filter_engine.c.obj)
 .text          0x00000000        0x0 mesh/core/libmesh_core_nrf52840_xxAA.a(nrf_flash.c.obj)
 .data          0x00000000        0x0 mesh/core/libmesh_core_nrf52840_xxAA.a(nrf_flash.c.obj)
 .bss           0x00000000        0x0 mesh/core/libmesh_core_nrf52840_xxAA.a(nrf_flash.c.obj)
 .text          0x00000000        0x0 external/rtt/librtt_nrf52840_xxAA.a(SEGGER_RTT.c.obj)
 .data          0x00000000        0x0 external/rtt/librtt_nrf52840_xxAA.a(SEGGER_RTT.c.obj)
 .bss           0x00000000        0x0 external/rtt/librtt_nrf52840_xxAA.a(SEGGER_RTT.c.obj)
 .text.SEGGER_RTT_ReadNoLock
                0x00000000      0x100 external/rtt/librtt_nrf52840_xxAA.a(SEGGER_RTT.c.obj)
 .text.SEGGER_RTT_Read
                0x00000000      0x114 external/rtt/librtt_nrf52840_xxAA.a(SEGGER_RTT.c.obj)
 .text.SEGGER_RTT_WriteSkipNoLock
                0x00000000      0x184 external/rtt/librtt_nrf52840_xxAA.a(SEGGER_RTT.c.obj)
 .text.SEGGER_RTT_WriteNoLock
                0x00000000      0x188 external/rtt/librtt_nrf52840_xxAA.a(SEGGER_RTT.c.obj)
 .text.SEGGER_RTT_WriteString
                0x00000000      0x20c external/rtt/librtt_nrf52840_xxAA.a(SEGGER_RTT.c.obj)
 .text.SEGGER_RTT_WaitKey
                0x00000000      0x114 external/rtt/librtt_nrf52840_xxAA.a(SEGGER_RTT.c.obj)
 .text.SEGGER_RTT_HasKey
                0x00000000       0x6c external/rtt/librtt_nrf52840_xxAA.a(SEGGER_RTT.c.obj)
 .text.SEGGER_RTT_HasData
                0x00000000       0x18 external/rtt/librtt_nrf52840_xxAA.a(SEGGER_RTT.c.obj)
 .text.SEGGER_RTT_AllocDownBuffer
                0x00000000       0xbc external/rtt/librtt_nrf52840_xxAA.a(SEGGER_RTT.c.obj)
 .text.SEGGER_RTT_AllocUpBuffer
                0x00000000       0xd8 external/rtt/librtt_nrf52840_xxAA.a(SEGGER_RTT.c.obj)
 .text.SEGGER_RTT_ConfigUpBuffer
                0x00000000       0xd0 external/rtt/librtt_nrf52840_xxAA.a(SEGGER_RTT.c.obj)
 .text.SEGGER_RTT_ConfigDownBuffer
                0x00000000       0xb8 external/rtt/librtt_nrf52840_xxAA.a(SEGGER_RTT.c.obj)
 .text.SEGGER_RTT_SetNameUpBuffer
                0x00000000       0x90 external/rtt/librtt_nrf52840_xxAA.a(SEGGER_RTT.c.obj)
 .text.SEGGER_RTT_SetNameDownBuffer
                0x00000000       0x90 external/rtt/librtt_nrf52840_xxAA.a(SEGGER_RTT.c.obj)
 .text.SEGGER_RTT_Init
                0x00000000       0x60 external/rtt/librtt_nrf52840_xxAA.a(SEGGER_RTT.c.obj)
 .text.SEGGER_RTT_SetTerminal
                0x00000000      0x15c external/rtt/librtt_nrf52840_xxAA.a(SEGGER_RTT.c.obj)
 .text.SEGGER_RTT_TerminalOut
                0x00000000      0x40c external/rtt/librtt_nrf52840_xxAA.a(SEGGER_RTT.c.obj)
 .bss._ActiveTerminal
                0x00000000        0x1 external/rtt/librtt_nrf52840_xxAA.a(SEGGER_RTT.c.obj)
 .rodata._aTerminalId
                0x00000000       0x10 external/rtt/librtt_nrf52840_xxAA.a(SEGGER_RTT.c.obj)
 .text          0x00000000        0x0 external/rtt/librtt_nrf52840_xxAA.a(SEGGER_RTT_printf.c.obj)
 .data          0x00000000        0x0 external/rtt/librtt_nrf52840_xxAA.a(SEGGER_RTT_printf.c.obj)
 .bss           0x00000000        0x0 external/rtt/librtt_nrf52840_xxAA.a(SEGGER_RTT_printf.c.obj)
 .text          0x00000000        0x0 external/micro-ecc/libuECC_nrf52840_xxAA.a(uECC.c.obj)
 .data          0x00000000        0x0 external/micro-ecc/libuECC_nrf52840_xxAA.a(uECC.c.obj)
 .bss           0x00000000        0x0 external/micro-ecc/libuECC_nrf52840_xxAA.a(uECC.c.obj)
 .text.HMAC_finish
                0x00000000       0x70 external/micro-ecc/libuECC_nrf52840_xxAA.a(uECC.c.obj)
 .text.uECC_vli_mmod
                0x00000000      0x3c8 external/micro-ecc/libuECC_nrf52840_xxAA.a(uECC.c.obj)
 .text.uECC_vli_modSub.isra.2
                0x00000000       0x98 external/micro-ecc/libuECC_nrf52840_xxAA.a(uECC.c.obj)
 .text.bits2int
                0x00000000      0x14c external/micro-ecc/libuECC_nrf52840_xxAA.a(uECC.c.obj)
 .text.uECC_sign_with_k
                0x00000000      0x60c external/micro-ecc/libuECC_nrf52840_xxAA.a(uECC.c.obj)
 .text.uECC_set_rng
                0x00000000        0xc external/micro-ecc/libuECC_nrf52840_xxAA.a(uECC.c.obj)
 .text.uECC_get_rng
                0x00000000        0xc external/micro-ecc/libuECC_nrf52840_xxAA.a(uECC.c.obj)
 .text.uECC_curve_private_key_size
                0x00000000       0x10 external/micro-ecc/libuECC_nrf52840_xxAA.a(uECC.c.obj)
 .text.uECC_curve_public_key_size
                0x00000000        0x8 external/micro-ecc/libuECC_nrf52840_xxAA.a(uECC.c.obj)
 .text.uECC_compute_public_key
                0x00000000      0x2e4 external/micro-ecc/libuECC_nrf52840_xxAA.a(uECC.c.obj)
 .text.uECC_sign
                0x00000000       0x60 external/micro-ecc/libuECC_nrf52840_xxAA.a(uECC.c.obj)
 .text.uECC_sign_deterministic
                0x00000000      0x400 external/micro-ecc/libuECC_nrf52840_xxAA.a(uECC.c.obj)
 .text.uECC_verify
                0x00000000      0x95c external/micro-ecc/libuECC_nrf52840_xxAA.a(uECC.c.obj)
 .text          0x00000000        0x0 c:/a/gcc_arm/6/bin/../lib/gcc/arm-none-eabi/6.3.1/../../../../arm-none-eabi/lib/thumb/v7e-m/fpv4-sp/hard\libc_nano.a(lib_a-exit.o)
 .data          0x00000000        0x0 c:/a/gcc_arm/6/bin/../lib/gcc/arm-none-eabi/6.3.1/../../../../arm-none-eabi/lib/thumb/v7e-m/fpv4-sp/hard\libc_nano.a(lib_a-exit.o)
 .bss           0x00000000        0x0 c:/a/gcc_arm/6/bin/../lib/gcc/arm-none-eabi/6.3.1/../../../../arm-none-eabi/lib/thumb/v7e-m/fpv4-sp/hard\libc_nano.a(lib_a-exit.o)
 .text          0x00000000        0x0 c:/a/gcc_arm/6/bin/../lib/gcc/arm-none-eabi/6.3.1/../../../../arm-none-eabi/lib/thumb/v7e-m/fpv4-sp/hard\libc_nano.a(lib_a-impure.o)
 .data          0x00000000        0x0 c:/a/gcc_arm/6/bin/../lib/gcc/arm-none-eabi/6.3.1/../../../../arm-none-eabi/lib/thumb/v7e-m/fpv4-sp/hard\libc_nano.a(lib_a-impure.o)
 .bss           0x00000000        0x0 c:/a/gcc_arm/6/bin/../lib/gcc/arm-none-eabi/6.3.1/../../../../arm-none-eabi/lib/thumb/v7e-m/fpv4-sp/hard\libc_nano.a(lib_a-impure.o)
 .text          0x00000000        0x0 c:/a/gcc_arm/6/bin/../lib/gcc/arm-none-eabi/6.3.1/../../../../arm-none-eabi/lib/thumb/v7e-m/fpv4-sp/hard\libc_nano.a(lib_a-init.o)
 .data          0x00000000        0x0 c:/a/gcc_arm/6/bin/../lib/gcc/arm-none-eabi/6.3.1/../../../../arm-none-eabi/lib/thumb/v7e-m/fpv4-sp/hard\libc_nano.a(lib_a-init.o)
 .bss           0x00000000        0x0 c:/a/gcc_arm/6/bin/../lib/gcc/arm-none-eabi/6.3.1/../../../../arm-none-eabi/lib/thumb/v7e-m/fpv4-sp/hard\libc_nano.a(lib_a-init.o)
 .text          0x00000000        0x0 c:/a/gcc_arm/6/bin/../lib/gcc/arm-none-eabi/6.3.1/../../../../arm-none-eabi/lib/thumb/v7e-m/fpv4-sp/hard\libc_nano.a(lib_a-malloc.o)
 .data          0x00000000        0x0 c:/a/gcc_arm/6/bin/../lib/gcc/arm-none-eabi/6.3.1/../../../../arm-none-eabi/lib/thumb/v7e-m/fpv4-sp/hard\libc_nano.a(lib_a-malloc.o)
 .bss           0x00000000        0x0 c:/a/gcc_arm/6/bin/../lib/gcc/arm-none-eabi/6.3.1/../../../../arm-none-eabi/lib/thumb/v7e-m/fpv4-sp/hard\libc_nano.a(lib_a-malloc.o)
 .text          0x00000000        0x0 c:/a/gcc_arm/6/bin/../lib/gcc/arm-none-eabi/6.3.1/../../../../arm-none-eabi/lib/thumb/v7e-m/fpv4-sp/hard\libc_nano.a(lib_a-memcmp.o)
 .data          0x00000000        0x0 c:/a/gcc_arm/6/bin/../lib/gcc/arm-none-eabi/6.3.1/../../../../arm-none-eabi/lib/thumb/v7e-m/fpv4-sp/hard\libc_nano.a(lib_a-memcmp.o)
 .bss           0x00000000        0x0 c:/a/gcc_arm/6/bin/../lib/gcc/arm-none-eabi/6.3.1/../../../../arm-none-eabi/lib/thumb/v7e-m/fpv4-sp/hard\libc_nano.a(lib_a-memcmp.o)
 .text          0x00000000        0x0 c:/a/gcc_arm/6/bin/../lib/gcc/arm-none-eabi/6.3.1/../../../../arm-none-eabi/lib/thumb/v7e-m/fpv4-sp/hard\libc_nano.a(lib_a-memcpy-stub.o)
 .data          0x00000000        0x0 c:/a/gcc_arm/6/bin/../lib/gcc/arm-none-eabi/6.3.1/../../../../arm-none-eabi/lib/thumb/v7e-m/fpv4-sp/hard\libc_nano.a(lib_a-memcpy-stub.o)
 .bss           0x00000000        0x0 c:/a/gcc_arm/6/bin/../lib/gcc/arm-none-eabi/6.3.1/../../../../arm-none-eabi/lib/thumb/v7e-m/fpv4-sp/hard\libc_nano.a(lib_a-memcpy-stub.o)
 .text          0x00000000        0x0 c:/a/gcc_arm/6/bin/../lib/gcc/arm-none-eabi/6.3.1/../../../../arm-none-eabi/lib/thumb/v7e-m/fpv4-sp/hard\libc_nano.a(lib_a-memset.o)
 .data          0x00000000        0x0 c:/a/gcc_arm/6/bin/../lib/gcc/arm-none-eabi/6.3.1/../../../../arm-none-eabi/lib/thumb/v7e-m/fpv4-sp/hard\libc_nano.a(lib_a-memset.o)
 .bss           0x00000000        0x0 c:/a/gcc_arm/6/bin/../lib/gcc/arm-none-eabi/6.3.1/../../../../arm-none-eabi/lib/thumb/v7e-m/fpv4-sp/hard\libc_nano.a(lib_a-memset.o)
 .text          0x00000000        0x0 c:/a/gcc_arm/6/bin/../lib/gcc/arm-none-eabi/6.3.1/../../../../arm-none-eabi/lib/thumb/v7e-m/fpv4-sp/hard\libc_nano.a(lib_a-nano-freer.o)
 .data          0x00000000        0x0 c:/a/gcc_arm/6/bin/../lib/gcc/arm-none-eabi/6.3.1/../../../../arm-none-eabi/lib/thumb/v7e-m/fpv4-sp/hard\libc_nano.a(lib_a-nano-freer.o)
 .bss           0x00000000        0x0 c:/a/gcc_arm/6/bin/../lib/gcc/arm-none-eabi/6.3.1/../../../../arm-none-eabi/lib/thumb/v7e-m/fpv4-sp/hard\libc_nano.a(lib_a-nano-freer.o)
 .text          0x00000000        0x0 c:/a/gcc_arm/6/bin/../lib/gcc/arm-none-eabi/6.3.1/../../../../arm-none-eabi/lib/thumb/v7e-m/fpv4-sp/hard\libc_nano.a(lib_a-nano-mallocr.o)
 .data          0x00000000        0x0 c:/a/gcc_arm/6/bin/../lib/gcc/arm-none-eabi/6.3.1/../../../../arm-none-eabi/lib/thumb/v7e-m/fpv4-sp/hard\libc_nano.a(lib_a-nano-mallocr.o)
 .bss           0x00000000        0x0 c:/a/gcc_arm/6/bin/../lib/gcc/arm-none-eabi/6.3.1/../../../../arm-none-eabi/lib/thumb/v7e-m/fpv4-sp/hard\libc_nano.a(lib_a-nano-mallocr.o)
 .text          0x00000000        0x0 c:/a/gcc_arm/6/bin/../lib/gcc/arm-none-eabi/6.3.1/../../../../arm-none-eabi/lib/thumb/v7e-m/fpv4-sp/hard\libc_nano.a(lib_a-sbrkr.o)
 .data          0x00000000        0x0 c:/a/gcc_arm/6/bin/../lib/gcc/arm-none-eabi/6.3.1/../../../../arm-none-eabi/lib/thumb/v7e-m/fpv4-sp/hard\libc_nano.a(lib_a-sbrkr.o)
 .bss           0x00000000        0x0 c:/a/gcc_arm/6/bin/../lib/gcc/arm-none-eabi/6.3.1/../../../../arm-none-eabi/lib/thumb/v7e-m/fpv4-sp/hard\libc_nano.a(lib_a-sbrkr.o)
 .text          0x00000000        0x0 c:/a/gcc_arm/6/bin/../lib/gcc/arm-none-eabi/6.3.1/../../../../arm-none-eabi/lib/thumb/v7e-m/fpv4-sp/hard\libc_nano.a(lib_a-strcpy.o)
 .data          0x00000000        0x0 c:/a/gcc_arm/6/bin/../lib/gcc/arm-none-eabi/6.3.1/../../../../arm-none-eabi/lib/thumb/v7e-m/fpv4-sp/hard\libc_nano.a(lib_a-strcpy.o)
 .bss           0x00000000        0x0 c:/a/gcc_arm/6/bin/../lib/gcc/arm-none-eabi/6.3.1/../../../../arm-none-eabi/lib/thumb/v7e-m/fpv4-sp/hard\libc_nano.a(lib_a-strcpy.o)
 .data          0x00000000        0x0 c:/a/gcc_arm/6/bin/../lib/gcc/arm-none-eabi/6.3.1/../../../../arm-none-eabi/lib/thumb/v7e-m/fpv4-sp/hard\libc_nano.a(lib_a-strlen.o)
 .bss           0x00000000        0x0 c:/a/gcc_arm/6/bin/../lib/gcc/arm-none-eabi/6.3.1/../../../../arm-none-eabi/lib/thumb/v7e-m/fpv4-sp/hard\libc_nano.a(lib_a-strlen.o)
 .text          0x00000000        0x0 c:/a/gcc_arm/6/bin/../lib/gcc/arm-none-eabi/6.3.1/../../../../arm-none-eabi/lib/thumb/v7e-m/fpv4-sp/hard\libc_nano.a(lib_a-strrchr.o)
 .data          0x00000000        0x0 c:/a/gcc_arm/6/bin/../lib/gcc/arm-none-eabi/6.3.1/../../../../arm-none-eabi/lib/thumb/v7e-m/fpv4-sp/hard\libc_nano.a(lib_a-strrchr.o)
 .bss           0x00000000        0x0 c:/a/gcc_arm/6/bin/../lib/gcc/arm-none-eabi/6.3.1/../../../../arm-none-eabi/lib/thumb/v7e-m/fpv4-sp/hard\libc_nano.a(lib_a-strrchr.o)
 .text          0x00000000        0x0 c:/a/gcc_arm/6/bin/../lib/gcc/arm-none-eabi/6.3.1/../../../../arm-none-eabi/lib/thumb/v7e-m/fpv4-sp/hard\libc_nano.a(lib_a-mlock.o)
 .data          0x00000000        0x0 c:/a/gcc_arm/6/bin/../lib/gcc/arm-none-eabi/6.3.1/../../../../arm-none-eabi/lib/thumb/v7e-m/fpv4-sp/hard\libc_nano.a(lib_a-mlock.o)
 .bss           0x00000000        0x0 c:/a/gcc_arm/6/bin/../lib/gcc/arm-none-eabi/6.3.1/../../../../arm-none-eabi/lib/thumb/v7e-m/fpv4-sp/hard\libc_nano.a(lib_a-mlock.o)
 .text          0x00000000        0x0 c:/a/gcc_arm/6/bin/../lib/gcc/arm-none-eabi/6.3.1/../../../../arm-none-eabi/lib/thumb/v7e-m/fpv4-sp/hard\libc_nano.a(lib_a-reent.o)
 .data          0x00000000        0x0 c:/a/gcc_arm/6/bin/../lib/gcc/arm-none-eabi/6.3.1/../../../../arm-none-eabi/lib/thumb/v7e-m/fpv4-sp/hard\libc_nano.a(lib_a-reent.o)
 .bss           0x00000000        0x0 c:/a/gcc_arm/6/bin/../lib/gcc/arm-none-eabi/6.3.1/../../../../arm-none-eabi/lib/thumb/v7e-m/fpv4-sp/hard\libc_nano.a(lib_a-reent.o)
 .text.cleanup_glue
                0x00000000       0x1a c:/a/gcc_arm/6/bin/../lib/gcc/arm-none-eabi/6.3.1/../../../../arm-none-eabi/lib/thumb/v7e-m/fpv4-sp/hard\libc_nano.a(lib_a-reent.o)
 .text._reclaim_reent
                0x00000000       0xb8 c:/a/gcc_arm/6/bin/../lib/gcc/arm-none-eabi/6.3.1/../../../../arm-none-eabi/lib/thumb/v7e-m/fpv4-sp/hard\libc_nano.a(lib_a-reent.o)
 .text          0x00000000        0x0 c:/a/gcc_arm/6/bin/../lib/gcc/arm-none-eabi/6.3.1/../../../../arm-none-eabi/lib/thumb/v7e-m/fpv4-sp/hard\libc_nano.a(lib_a-strchr.o)
 .data          0x00000000        0x0 c:/a/gcc_arm/6/bin/../lib/gcc/arm-none-eabi/6.3.1/../../../../arm-none-eabi/lib/thumb/v7e-m/fpv4-sp/hard\libc_nano.a(lib_a-strchr.o)
 .bss           0x00000000        0x0 c:/a/gcc_arm/6/bin/../lib/gcc/arm-none-eabi/6.3.1/../../../../arm-none-eabi/lib/thumb/v7e-m/fpv4-sp/hard\libc_nano.a(lib_a-strchr.o)
 .text          0x00000000        0x0 c:/a/gcc_arm/6/bin/../lib/gcc/arm-none-eabi/6.3.1/thumb/v7e-m/fpv4-sp/hard/crtend.o
 .data          0x00000000        0x0 c:/a/gcc_arm/6/bin/../lib/gcc/arm-none-eabi/6.3.1/thumb/v7e-m/fpv4-sp/hard/crtend.o
 .bss           0x00000000        0x0 c:/a/gcc_arm/6/bin/../lib/gcc/arm-none-eabi/6.3.1/thumb/v7e-m/fpv4-sp/hard/crtend.o
 .text          0x00000000        0x0 c:/a/gcc_arm/6/bin/../lib/gcc/arm-none-eabi/6.3.1/thumb/v7e-m/fpv4-sp/hard/crtn.o
 .data          0x00000000        0x0 c:/a/gcc_arm/6/bin/../lib/gcc/arm-none-eabi/6.3.1/thumb/v7e-m/fpv4-sp/hard/crtn.o
 .bss           0x00000000        0x0 c:/a/gcc_arm/6/bin/../lib/gcc/arm-none-eabi/6.3.1/thumb/v7e-m/fpv4-sp/hard/crtn.o
 .text          0x00000000        0x0 c:/a/gcc_arm/6/bin/../lib/gcc/arm-none-eabi/6.3.1/../../../../arm-none-eabi/lib/thumb/v7e-m/fpv4-sp/hard\libnosys.a(sbrk.o)
 .data          0x00000000        0x0 c:/a/gcc_arm/6/bin/../lib/gcc/arm-none-eabi/6.3.1/../../../../arm-none-eabi/lib/thumb/v7e-m/fpv4-sp/hard\libnosys.a(sbrk.o)
 .bss           0x00000000        0x0 c:/a/gcc_arm/6/bin/../lib/gcc/arm-none-eabi/6.3.1/../../../../arm-none-eabi/lib/thumb/v7e-m/fpv4-sp/hard\libnosys.a(sbrk.o)
 .text          0x00000000        0x0 c:/a/gcc_arm/6/bin/../lib/gcc/arm-none-eabi/6.3.1/../../../../arm-none-eabi/lib/thumb/v7e-m/fpv4-sp/hard\libnosys.a(_exit.o)
 .data          0x00000000        0x0 c:/a/gcc_arm/6/bin/../lib/gcc/arm-none-eabi/6.3.1/../../../../arm-none-eabi/lib/thumb/v7e-m/fpv4-sp/hard\libnosys.a(_exit.o)
 .bss           0x00000000        0x0 c:/a/gcc_arm/6/bin/../lib/gcc/arm-none-eabi/6.3.1/../../../../arm-none-eabi/lib/thumb/v7e-m/fpv4-sp/hard\libnosys.a(_exit.o)

Memory Configuration

Name             Origin             Length             Attributes
FLASH            0x00024000         0x000dc000         xr
RAM              0x200031b8         0x0003be4a         xrw
*default*        0x00000000         0xffffffff

Linker script and memory map

LOAD c:/a/gcc_arm/6/bin/../lib/gcc/arm-none-eabi/6.3.1/thumb/v7e-m/fpv4-sp/hard/crti.o
LOAD c:/a/gcc_arm/6/bin/../lib/gcc/arm-none-eabi/6.3.1/thumb/v7e-m/fpv4-sp/hard/crtbegin.o
LOAD c:/a/gcc_arm/6/bin/../lib/gcc/arm-none-eabi/6.3.1/../../../../arm-none-eabi/lib/thumb/v7e-m/fpv4-sp/hard/crt0.o
LOAD examples/pb_remote/client/CMakeFiles/pb_remote_client_nrf52840_xxAA_s140_5.0.0-3.alpha.dir/src/main.c.obj
LOAD examples/pb_remote/client/CMakeFiles/pb_remote_client_nrf52840_xxAA_s140_5.0.0-3.alpha.dir/__/__/nrf_mesh_sdk.c.obj
LOAD examples/pb_remote/client/CMakeFiles/pb_remote_client_nrf52840_xxAA_s140_5.0.0-3.alpha.dir/__/__/__/models/pb_remote/src/pb_remote_client.c.obj
LOAD examples/pb_remote/client/CMakeFiles/pb_remote_client_nrf52840_xxAA_s140_5.0.0-3.alpha.dir/__/__/__/mesh/prov/src/prov_provisioner.c.obj
LOAD examples/pb_remote/client/CMakeFiles/pb_remote_client_nrf52840_xxAA_s140_5.0.0-3.alpha.dir/__/__/__/mesh/prov/src/nrf_mesh_prov.c.obj
LOAD examples/pb_remote/client/CMakeFiles/pb_remote_client_nrf52840_xxAA_s140_5.0.0-3.alpha.dir/__/__/__/mesh/prov/src/provisioning.c.obj
LOAD examples/pb_remote/client/CMakeFiles/pb_remote_client_nrf52840_xxAA_s140_5.0.0-3.alpha.dir/__/__/__/mesh/prov/src/prov_beacon.c.obj
LOAD examples/pb_remote/client/CMakeFiles/pb_remote_client_nrf52840_xxAA_s140_5.0.0-3.alpha.dir/__/__/__/mesh/prov/src/prov_utils.c.obj
LOAD examples/pb_remote/client/CMakeFiles/pb_remote_client_nrf52840_xxAA_s140_5.0.0-3.alpha.dir/__/__/__/mesh/prov/src/prov_bearer_adv.c.obj
LOAD examples/pb_remote/client/CMakeFiles/pb_remote_client_nrf52840_xxAA_s140_5.0.0-3.alpha.dir/__/__/__/mesh/access/src/access_publish.c.obj
LOAD examples/pb_remote/client/CMakeFiles/pb_remote_client_nrf52840_xxAA_s140_5.0.0-3.alpha.dir/__/__/__/mesh/access/src/access.c.obj
LOAD examples/pb_remote/client/CMakeFiles/pb_remote_client_nrf52840_xxAA_s140_5.0.0-3.alpha.dir/__/__/__/mesh/access/src/access_reliable.c.obj
LOAD examples/pb_remote/client/CMakeFiles/pb_remote_client_nrf52840_xxAA_s140_5.0.0-3.alpha.dir/__/__/__/mesh/access/src/device_state_manager.c.obj
LOAD examples/pb_remote/client/CMakeFiles/pb_remote_client_nrf52840_xxAA_s140_5.0.0-3.alpha.dir/__/__/nrf_mesh_weak.c.obj
LOAD examples/pb_remote/client/CMakeFiles/pb_remote_client_nrf52840_xxAA_s140_5.0.0-3.alpha.dir/__/__/__/external/nRF5_SDK_14.0.0_3bcc1f7/components/toolchain/system_nrf52840.c.obj
LOAD examples/pb_remote/client/CMakeFiles/pb_remote_client_nrf52840_xxAA_s140_5.0.0-3.alpha.dir/__/__/__/external/nRF5_SDK_14.0.0_3bcc1f7/components/toolchain/gcc/gcc_startup_nrf52840.S.obj
LOAD mesh/core/libmesh_core_nrf52840_xxAA.a
LOAD external/rtt/librtt_nrf52840_xxAA.a
LOAD external/micro-ecc/libuECC_nrf52840_xxAA.a
START GROUP
LOAD c:/a/gcc_arm/6/bin/../lib/gcc/arm-none-eabi/6.3.1/thumb/v7e-m/fpv4-sp/hard\libgcc.a
LOAD c:/a/gcc_arm/6/bin/../lib/gcc/arm-none-eabi/6.3.1/../../../../arm-none-eabi/lib/thumb/v7e-m/fpv4-sp/hard\libc_nano.a
END GROUP
START GROUP
LOAD c:/a/gcc_arm/6/bin/../lib/gcc/arm-none-eabi/6.3.1/thumb/v7e-m/fpv4-sp/hard\libgcc.a
LOAD c:/a/gcc_arm/6/bin/../lib/gcc/arm-none-eabi/6.3.1/../../../../arm-none-eabi/lib/thumb/v7e-m/fpv4-sp/hard\libc_nano.a
END GROUP
LOAD c:/a/gcc_arm/6/bin/../lib/gcc/arm-none-eabi/6.3.1/thumb/v7e-m/fpv4-sp/hard/crtend.o
LOAD c:/a/gcc_arm/6/bin/../lib/gcc/arm-none-eabi/6.3.1/thumb/v7e-m/fpv4-sp/hard/crtn.o
START GROUP
LOAD c:/a/gcc_arm/6/bin/../lib/gcc/arm-none-eabi/6.3.1/thumb/v7e-m/fpv4-sp/hard\libgcc.a
LOAD c:/a/gcc_arm/6/bin/../lib/gcc/arm-none-eabi/6.3.1/../../../../arm-none-eabi/lib/thumb/v7e-m/fpv4-sp/hard\libc.a
LOAD c:/a/gcc_arm/6/bin/../lib/gcc/arm-none-eabi/6.3.1/../../../../arm-none-eabi/lib/thumb/v7e-m/fpv4-sp/hard\libnosys.a
END GROUP

.text           0x00024000    0x17a2c
 *(.isr_vector)
 .isr_vector    0x00024000      0x200 examples/pb_remote/client/CMakeFiles/pb_remote_client_nrf52840_xxAA_s140_5.0.0-3.alpha.dir/__/__/__/external/nRF5_SDK_14.0.0_3bcc1f7/components/toolchain/gcc/gcc_startup_nrf52840.S.obj
                0x00024000                __isr_vector
 *(.text*)
 .text          0x00024200       0x6c c:/a/gcc_arm/6/bin/../lib/gcc/arm-none-eabi/6.3.1/thumb/v7e-m/fpv4-sp/hard/crtbegin.o
 .text          0x0002426c       0x74 c:/a/gcc_arm/6/bin/../lib/gcc/arm-none-eabi/6.3.1/../../../../arm-none-eabi/lib/thumb/v7e-m/fpv4-sp/hard/crt0.o
                0x0002426c                _start
                0x0002426c                _mainCRTStartup
 .text.mesh_evt_handler
                0x000242e0      0x448 examples/pb_remote/client/CMakeFiles/pb_remote_client_nrf52840_xxAA_s140_5.0.0-3.alpha.dir/src/main.c.obj
 .text.remote_client_event_cb
                0x00024728      0x38c examples/pb_remote/client/CMakeFiles/pb_remote_client_nrf52840_xxAA_s140_5.0.0-3.alpha.dir/src/main.c.obj
 .text.startup.main
                0x00024ab4      0x698 examples/pb_remote/client/CMakeFiles/pb_remote_client_nrf52840_xxAA_s140_5.0.0-3.alpha.dir/src/main.c.obj
                0x00024ab4                main
 .text.sd_evt_get
                0x0002514c        0x4 examples/pb_remote/client/CMakeFiles/pb_remote_client_nrf52840_xxAA_s140_5.0.0-3.alpha.dir/__/__/nrf_mesh_sdk.c.obj
 .text.sd_softdevice_enable
                0x00025150        0x4 examples/pb_remote/client/CMakeFiles/pb_remote_client_nrf52840_xxAA_s140_5.0.0-3.alpha.dir/__/__/nrf_mesh_sdk.c.obj
 .text.sd_ble_enable
                0x00025154        0x4 examples/pb_remote/client/CMakeFiles/pb_remote_client_nrf52840_xxAA_s140_5.0.0-3.alpha.dir/__/__/nrf_mesh_sdk.c.obj
 .text.sd_ble_evt_get
                0x00025158        0x4 examples/pb_remote/client/CMakeFiles/pb_remote_client_nrf52840_xxAA_s140_5.0.0-3.alpha.dir/__/__/nrf_mesh_sdk.c.obj
 .text.mesh_assert_handler
                0x0002515c       0x80 examples/pb_remote/client/CMakeFiles/pb_remote_client_nrf52840_xxAA_s140_5.0.0-3.alpha.dir/__/__/nrf_mesh_sdk.c.obj
                0x0002515c                mesh_assert_handler
 .text.softdevice_assert_handler
                0x000251dc       0x94 examples/pb_remote/client/CMakeFiles/pb_remote_client_nrf52840_xxAA_s140_5.0.0-3.alpha.dir/__/__/nrf_mesh_sdk.c.obj
                0x000251dc                softdevice_assert_handler
 .text.app_error_handler
                0x00025270       0x88 examples/pb_remote/client/CMakeFiles/pb_remote_client_nrf52840_xxAA_s140_5.0.0-3.alpha.dir/__/__/nrf_mesh_sdk.c.obj
                0x00025270                app_error_handler
 .text.HardFault_Handler
                0x000252f8       0x78 examples/pb_remote/client/CMakeFiles/pb_remote_client_nrf52840_xxAA_s140_5.0.0-3.alpha.dir/__/__/nrf_mesh_sdk.c.obj
                0x000252f8                HardFault_Handler
 .text.SWI2_EGU2_IRQHandler
                0x00025370       0x40 examples/pb_remote/client/CMakeFiles/pb_remote_client_nrf52840_xxAA_s140_5.0.0-3.alpha.dir/__/__/nrf_mesh_sdk.c.obj
                0x00025370                SWI2_EGU2_IRQHandler
 .text.mesh_softdevice_enable
                0x000253b0      0x14c examples/pb_remote/client/CMakeFiles/pb_remote_client_nrf52840_xxAA_s140_5.0.0-3.alpha.dir/__/__/nrf_mesh_sdk.c.obj
                0x000253b0                mesh_softdevice_enable
 .text.mesh_core_setup
                0x000254fc      0x1c4 examples/pb_remote/client/CMakeFiles/pb_remote_client_nrf52840_xxAA_s140_5.0.0-3.alpha.dir/__/__/nrf_mesh_sdk.c.obj
                0x000254fc                mesh_core_setup
 .text.pb_if_link_open_cb
                0x000256c0        0x4 examples/pb_remote/client/CMakeFiles/pb_remote_client_nrf52840_xxAA_s140_5.0.0-3.alpha.dir/__/__/__/models/pb_remote/src/pb_remote_client.c.obj
 .text.pb_if_listen_start_cb
                0x000256c4        0x4 examples/pb_remote/client/CMakeFiles/pb_remote_client_nrf52840_xxAA_s140_5.0.0-3.alpha.dir/__/__/__/models/pb_remote/src/pb_remote_client.c.obj
 .text.pb_if_listen_stop_cb
                0x000256c8        0x4 examples/pb_remote/client/CMakeFiles/pb_remote_client_nrf52840_xxAA_s140_5.0.0-3.alpha.dir/__/__/__/models/pb_remote/src/pb_remote_client.c.obj
 .text.pb_remote_client_event_transfer_status_cb
                0x000256cc       0xbc examples/pb_remote/client/CMakeFiles/pb_remote_client_nrf52840_xxAA_s140_5.0.0-3.alpha.dir/__/__/__/models/pb_remote/src/pb_remote_client.c.obj
 .text.pb_remote_client_event_link_status_cb
                0x00025788      0x288 examples/pb_remote/client/CMakeFiles/pb_remote_client_nrf52840_xxAA_s140_5.0.0-3.alpha.dir/__/__/__/models/pb_remote/src/pb_remote_client.c.obj
 .text.pb_remote_client_event_scan_status_cb
                0x00025a10      0x1a0 examples/pb_remote/client/CMakeFiles/pb_remote_client_nrf52840_xxAA_s140_5.0.0-3.alpha.dir/__/__/__/models/pb_remote/src/pb_remote_client.c.obj
 .text.pb_remote_client_event_unprov_number_cb
                0x00025bb0       0x78 examples/pb_remote/client/CMakeFiles/pb_remote_client_nrf52840_xxAA_s140_5.0.0-3.alpha.dir/__/__/__/models/pb_remote/src/pb_remote_client.c.obj
 .text.pb_remote_client_event_tx_failed_cb
                0x00025c28       0x68 examples/pb_remote/client/CMakeFiles/pb_remote_client_nrf52840_xxAA_s140_5.0.0-3.alpha.dir/__/__/__/models/pb_remote/src/pb_remote_client.c.obj
 .text.pb_remote_client_process.part.8
                0x00025c90      0x128 examples/pb_remote/client/CMakeFiles/pb_remote_client_nrf52840_xxAA_s140_5.0.0-3.alpha.dir/__/__/__/models/pb_remote/src/pb_remote_client.c.obj
 .text.pb_if_link_close_cb
                0x00025db8       0x58 examples/pb_remote/client/CMakeFiles/pb_remote_client_nrf52840_xxAA_s140_5.0.0-3.alpha.dir/__/__/__/models/pb_remote/src/pb_remote_client.c.obj
 .text.client_reliable_status_cb
                0x00025e10      0x14c examples/pb_remote/client/CMakeFiles/pb_remote_client_nrf52840_xxAA_s140_5.0.0-3.alpha.dir/__/__/__/models/pb_remote/src/pb_remote_client.c.obj
 .text.pb_if_tx_cb
                0x00025f5c       0x4c examples/pb_remote/client/CMakeFiles/pb_remote_client_nrf52840_xxAA_s140_5.0.0-3.alpha.dir/__/__/__/models/pb_remote/src/pb_remote_client.c.obj
 .text.pb_remote_client_event_link_status_report_cb
                0x00025fa8      0x1c8 examples/pb_remote/client/CMakeFiles/pb_remote_client_nrf52840_xxAA_s140_5.0.0-3.alpha.dir/__/__/__/models/pb_remote/src/pb_remote_client.c.obj
 .text.pb_remote_client_event_packet_transfer_cb
                0x00026170      0x100 examples/pb_remote/client/CMakeFiles/pb_remote_client_nrf52840_xxAA_s140_5.0.0-3.alpha.dir/__/__/__/models/pb_remote/src/pb_remote_client.c.obj
 .text.pb_remote_client_event_prov_start_cb
                0x00026270       0x88 examples/pb_remote/client/CMakeFiles/pb_remote_client_nrf52840_xxAA_s140_5.0.0-3.alpha.dir/__/__/__/models/pb_remote/src/pb_remote_client.c.obj
 .text.pb_remote_client_event_unprov_uuid_cb
                0x000262f8      0x108 examples/pb_remote/client/CMakeFiles/pb_remote_client_nrf52840_xxAA_s140_5.0.0-3.alpha.dir/__/__/__/models/pb_remote/src/pb_remote_client.c.obj
 .text.pb_remote_client_event_transfer_status_report_cb
                0x00026400      0x188 examples/pb_remote/client/CMakeFiles/pb_remote_client_nrf52840_xxAA_s140_5.0.0-3.alpha.dir/__/__/__/models/pb_remote/src/pb_remote_client.c.obj
 .text.pb_remote_client_event_link_close_cb
                0x00026588       0xcc examples/pb_remote/client/CMakeFiles/pb_remote_client_nrf52840_xxAA_s140_5.0.0-3.alpha.dir/__/__/__/models/pb_remote/src/pb_remote_client.c.obj
 .text.pb_remote_client_event_local_packet_cb
                0x00026654       0xe4 examples/pb_remote/client/CMakeFiles/pb_remote_client_nrf52840_xxAA_s140_5.0.0-3.alpha.dir/__/__/__/models/pb_remote/src/pb_remote_client.c.obj
 .text.pb_remote_client_event_scan_start_cb
                0x00026738       0xc4 examples/pb_remote/client/CMakeFiles/pb_remote_client_nrf52840_xxAA_s140_5.0.0-3.alpha.dir/__/__/__/models/pb_remote/src/pb_remote_client.c.obj
 .text.pb_remote_client_event_scan_cancel_cb
                0x000267fc       0xc4 examples/pb_remote/client/CMakeFiles/pb_remote_client_nrf52840_xxAA_s140_5.0.0-3.alpha.dir/__/__/__/models/pb_remote/src/pb_remote_client.c.obj
 .text.remote_client_access_rx_cb
                0x000268c0      0x1f4 examples/pb_remote/client/CMakeFiles/pb_remote_client_nrf52840_xxAA_s140_5.0.0-3.alpha.dir/__/__/__/models/pb_remote/src/pb_remote_client.c.obj
 .text.pb_remote_client_init
                0x00026ab4       0x94 examples/pb_remote/client/CMakeFiles/pb_remote_client_nrf52840_xxAA_s140_5.0.0-3.alpha.dir/__/__/__/models/pb_remote/src/pb_remote_client.c.obj
                0x00026ab4                pb_remote_client_init
 .text.pb_remote_client_remote_scan_start
                0x00026b48       0x58 examples/pb_remote/client/CMakeFiles/pb_remote_client_nrf52840_xxAA_s140_5.0.0-3.alpha.dir/__/__/__/models/pb_remote/src/pb_remote_client.c.obj
                0x00026b48                pb_remote_client_remote_scan_start
 .text.pb_remote_client_remote_scan_cancel
                0x00026ba0       0x58 examples/pb_remote/client/CMakeFiles/pb_remote_client_nrf52840_xxAA_s140_5.0.0-3.alpha.dir/__/__/__/models/pb_remote/src/pb_remote_client.c.obj
                0x00026ba0                pb_remote_client_remote_scan_cancel
 .text.pb_remote_client_remote_provision
                0x00026bf8       0x78 examples/pb_remote/client/CMakeFiles/pb_remote_client_nrf52840_xxAA_s140_5.0.0-3.alpha.dir/__/__/__/models/pb_remote/src/pb_remote_client.c.obj
                0x00026bf8                pb_remote_client_remote_provision
 .text.prov_provisioner_cb_link_closed
                0x00026c70       0x2c examples/pb_remote/client/CMakeFiles/pb_remote_client_nrf52840_xxAA_s140_5.0.0-3.alpha.dir/__/__/__/mesh/prov/src/prov_provisioner.c.obj
 .text.prov_provisioner_cb_link_established
                0x00026c9c       0x44 examples/pb_remote/client/CMakeFiles/pb_remote_client_nrf52840_xxAA_s140_5.0.0-3.alpha.dir/__/__/__/mesh/prov/src/prov_provisioner.c.obj
 .text.prov_provisioner_cb_ack_received
                0x00026ce0       0x4c examples/pb_remote/client/CMakeFiles/pb_remote_client_nrf52840_xxAA_s140_5.0.0-3.alpha.dir/__/__/__/mesh/prov/src/prov_provisioner.c.obj
 .text.prov_provisioner_pkt_in
                0x00026d2c      0x350 examples/pb_remote/client/CMakeFiles/pb_remote_client_nrf52840_xxAA_s140_5.0.0-3.alpha.dir/__/__/__/mesh/prov/src/prov_provisioner.c.obj
 .text.prov_provisioner_provision
                0x0002707c       0x4c examples/pb_remote/client/CMakeFiles/pb_remote_client_nrf52840_xxAA_s140_5.0.0-3.alpha.dir/__/__/__/mesh/prov/src/prov_provisioner.c.obj
                0x0002707c                prov_provisioner_provision
 .text.prov_provisioner_oob_use
                0x000270c8       0xb0 examples/pb_remote/client/CMakeFiles/pb_remote_client_nrf52840_xxAA_s140_5.0.0-3.alpha.dir/__/__/__/mesh/prov/src/prov_provisioner.c.obj
                0x000270c8                prov_provisioner_oob_use
 .text.prov_provisioner_auth_data
                0x00027178       0x64 examples/pb_remote/client/CMakeFiles/pb_remote_client_nrf52840_xxAA_s140_5.0.0-3.alpha.dir/__/__/__/mesh/prov/src/prov_provisioner.c.obj
                0x00027178                prov_provisioner_auth_data
 .text.nrf_mesh_prov_init
                0x000271dc       0x24 examples/pb_remote/client/CMakeFiles/pb_remote_client_nrf52840_xxAA_s140_5.0.0-3.alpha.dir/__/__/__/mesh/prov/src/nrf_mesh_prov.c.obj
                0x000271dc                nrf_mesh_prov_init
 .text.nrf_mesh_prov_generate_keys
                0x00027200        0x4 examples/pb_remote/client/CMakeFiles/pb_remote_client_nrf52840_xxAA_s140_5.0.0-3.alpha.dir/__/__/__/mesh/prov/src/nrf_mesh_prov.c.obj
                0x00027200                nrf_mesh_prov_generate_keys
 .text.nrf_mesh_prov_provision
                0x00027204       0x50 examples/pb_remote/client/CMakeFiles/pb_remote_client_nrf52840_xxAA_s140_5.0.0-3.alpha.dir/__/__/__/mesh/prov/src/nrf_mesh_prov.c.obj
                0x00027204                nrf_mesh_prov_provision
 .text.nrf_mesh_prov_oob_use
                0x00027254       0x10 examples/pb_remote/client/CMakeFiles/pb_remote_client_nrf52840_xxAA_s140_5.0.0-3.alpha.dir/__/__/__/mesh/prov/src/nrf_mesh_prov.c.obj
                0x00027254                nrf_mesh_prov_oob_use
 .text.nrf_mesh_prov_auth_data_provide
                0x00027264       0x10 examples/pb_remote/client/CMakeFiles/pb_remote_client_nrf52840_xxAA_s140_5.0.0-3.alpha.dir/__/__/__/mesh/prov/src/nrf_mesh_prov.c.obj
                0x00027264                nrf_mesh_prov_auth_data_provide
 .text.prov_packet_length_valid
                0x00027274       0x20 examples/pb_remote/client/CMakeFiles/pb_remote_client_nrf52840_xxAA_s140_5.0.0-3.alpha.dir/__/__/__/mesh/prov/src/provisioning.c.obj
                0x00027274                prov_packet_length_valid
 .text.prov_init
                0x00027294       0x34 examples/pb_remote/client/CMakeFiles/pb_remote_client_nrf52840_xxAA_s140_5.0.0-3.alpha.dir/__/__/__/mesh/prov/src/provisioning.c.obj
                0x00027294                prov_init
 .text.prov_link_open
                0x000272c8       0x14 examples/pb_remote/client/CMakeFiles/pb_remote_client_nrf52840_xxAA_s140_5.0.0-3.alpha.dir/__/__/__/mesh/prov/src/provisioning.c.obj
                0x000272c8                prov_link_open
 .text.prov_link_close
                0x000272dc        0x8 examples/pb_remote/client/CMakeFiles/pb_remote_client_nrf52840_xxAA_s140_5.0.0-3.alpha.dir/__/__/__/mesh/prov/src/provisioning.c.obj
                0x000272dc                prov_link_close
 .text.prov_tx_invite
                0x000272e4       0x44 examples/pb_remote/client/CMakeFiles/pb_remote_client_nrf52840_xxAA_s140_5.0.0-3.alpha.dir/__/__/__/mesh/prov/src/provisioning.c.obj
                0x000272e4                prov_tx_invite
 .text.prov_tx_start
                0x00027328       0x4c examples/pb_remote/client/CMakeFiles/pb_remote_client_nrf52840_xxAA_s140_5.0.0-3.alpha.dir/__/__/__/mesh/prov/src/provisioning.c.obj
                0x00027328                prov_tx_start
 .text.prov_tx_public_key
                0x00027374       0x40 examples/pb_remote/client/CMakeFiles/pb_remote_client_nrf52840_xxAA_s140_5.0.0-3.alpha.dir/__/__/__/mesh/prov/src/provisioning.c.obj
                0x00027374                prov_tx_public_key
 .text.prov_tx_confirmation
                0x000273b4       0x40 examples/pb_remote/client/CMakeFiles/pb_remote_client_nrf52840_xxAA_s140_5.0.0-3.alpha.dir/__/__/__/mesh/prov/src/provisioning.c.obj
                0x000273b4                prov_tx_confirmation
 .text.prov_tx_random
                0x000273f4       0x40 examples/pb_remote/client/CMakeFiles/pb_remote_client_nrf52840_xxAA_s140_5.0.0-3.alpha.dir/__/__/__/mesh/prov/src/provisioning.c.obj
                0x000273f4                prov_tx_random
 .text.prov_tx_data
                0x00027434       0x48 examples/pb_remote/client/CMakeFiles/pb_remote_client_nrf52840_xxAA_s140_5.0.0-3.alpha.dir/__/__/__/mesh/prov/src/provisioning.c.obj
                0x00027434                prov_tx_data
 .text.prov_cb_link_opened
                0x0002747c        0x8 examples/pb_remote/client/CMakeFiles/pb_remote_client_nrf52840_xxAA_s140_5.0.0-3.alpha.dir/__/__/__/mesh/prov/src/provisioning.c.obj
                0x0002747c                prov_cb_link_opened
 .text.prov_cb_link_closed
                0x00027484        0x8 examples/pb_remote/client/CMakeFiles/pb_remote_client_nrf52840_xxAA_s140_5.0.0-3.alpha.dir/__/__/__/mesh/prov/src/provisioning.c.obj
                0x00027484                prov_cb_link_closed
 .text.prov_cb_pkt_in
                0x0002748c       0x88 examples/pb_remote/client/CMakeFiles/pb_remote_client_nrf52840_xxAA_s140_5.0.0-3.alpha.dir/__/__/__/mesh/prov/src/provisioning.c.obj
                0x0002748c                prov_cb_pkt_in
 .text.prov_cb_ack_in
                0x00027514        0x8 examples/pb_remote/client/CMakeFiles/pb_remote_client_nrf52840_xxAA_s140_5.0.0-3.alpha.dir/__/__/__/mesh/prov/src/provisioning.c.obj
                0x00027514                prov_cb_ack_in
 .text.prov_beacon_unprov_build
                0x0002751c       0x54 examples/pb_remote/client/CMakeFiles/pb_remote_client_nrf52840_xxAA_s140_5.0.0-3.alpha.dir/__/__/__/mesh/prov/src/prov_beacon.c.obj
                0x0002751c                prov_beacon_unprov_build
 .text.prov_beacon_unprov_packet_in
                0x00027570       0xbc examples/pb_remote/client/CMakeFiles/pb_remote_client_nrf52840_xxAA_s140_5.0.0-3.alpha.dir/__/__/__/mesh/prov/src/prov_beacon.c.obj
                0x00027570                prov_beacon_unprov_packet_in
 .text.prov_utils_use_ecdh_offloading
                0x0002762c        0xc examples/pb_remote/client/CMakeFiles/pb_remote_client_nrf52840_xxAA_s140_5.0.0-3.alpha.dir/__/__/__/mesh/prov/src/prov_utils.c.obj
                0x0002762c                prov_utils_use_ecdh_offloading
 .text.prov_utils_authentication_values_derive
                0x00027638       0xac examples/pb_remote/client/CMakeFiles/pb_remote_client_nrf52840_xxAA_s140_5.0.0-3.alpha.dir/__/__/__/mesh/prov/src/prov_utils.c.obj
                0x00027638                prov_utils_authentication_values_derive
 .text.prov_utils_keys_generate
                0x000276e4       0x20 examples/pb_remote/client/CMakeFiles/pb_remote_client_nrf52840_xxAA_s140_5.0.0-3.alpha.dir/__/__/__/mesh/prov/src/prov_utils.c.obj
                0x000276e4                prov_utils_keys_generate
 .text.prov_utils_derive_keys
                0x00027704       0xb4 examples/pb_remote/client/CMakeFiles/pb_remote_client_nrf52840_xxAA_s140_5.0.0-3.alpha.dir/__/__/__/mesh/prov/src/prov_utils.c.obj
                0x00027704                prov_utils_derive_keys
 .text.prov_utils_calculate_shared_secret
                0x000277b8       0x38 examples/pb_remote/client/CMakeFiles/pb_remote_client_nrf52840_xxAA_s140_5.0.0-3.alpha.dir/__/__/__/mesh/prov/src/prov_utils.c.obj
                0x000277b8                prov_utils_calculate_shared_secret
 .text.prov_utils_generate_oob_data
                0x000277f0      0x1c8 examples/pb_remote/client/CMakeFiles/pb_remote_client_nrf52840_xxAA_s140_5.0.0-3.alpha.dir/__/__/__/mesh/prov/src/prov_utils.c.obj
                0x000277f0                prov_utils_generate_oob_data
 .text.prov_utils_confirmation_check
                0x000279b8       0x5c examples/pb_remote/client/CMakeFiles/pb_remote_client_nrf52840_xxAA_s140_5.0.0-3.alpha.dir/__/__/__/mesh/prov/src/prov_utils.c.obj
                0x000279b8                prov_utils_confirmation_check
 .text.remove_active_bearer
                0x00027a14       0x70 examples/pb_remote/client/CMakeFiles/pb_remote_client_nrf52840_xxAA_s140_5.0.0-3.alpha.dir/__/__/__/mesh/prov/src/prov_bearer_adv.c.obj
 .text.prov_bearer_adv_listen_stop
                0x00027a84       0x3c examples/pb_remote/client/CMakeFiles/pb_remote_client_nrf52840_xxAA_s140_5.0.0-3.alpha.dir/__/__/__/mesh/prov/src/prov_bearer_adv.c.obj
 .text.link_timeout_cb
                0x00027ac0        0x8 examples/pb_remote/client/CMakeFiles/pb_remote_client_nrf52840_xxAA_s140_5.0.0-3.alpha.dir/__/__/__/mesh/prov/src/prov_bearer_adv.c.obj
 .text.tx_complete_cb
                0x00027ac8       0x20 examples/pb_remote/client/CMakeFiles/pb_remote_client_nrf52840_xxAA_s140_5.0.0-3.alpha.dir/__/__/__/mesh/prov/src/prov_bearer_adv.c.obj
 .text.prov_bearer_adv_listen
                0x00027ae8      0x160 examples/pb_remote/client/CMakeFiles/pb_remote_client_nrf52840_xxAA_s140_5.0.0-3.alpha.dir/__/__/__/mesh/prov/src/prov_bearer_adv.c.obj
 .text.prov_buffer_tx
                0x00027c48      0x218 examples/pb_remote/client/CMakeFiles/pb_remote_client_nrf52840_xxAA_s140_5.0.0-3.alpha.dir/__/__/__/mesh/prov/src/prov_bearer_adv.c.obj
 .text.prov_bearer_adv_tx
                0x00027e60       0xd4 examples/pb_remote/client/CMakeFiles/pb_remote_client_nrf52840_xxAA_s140_5.0.0-3.alpha.dir/__/__/__/mesh/prov/src/prov_bearer_adv.c.obj
 .text.send_link_ack
                0x00027f34       0x90 examples/pb_remote/client/CMakeFiles/pb_remote_client_nrf52840_xxAA_s140_5.0.0-3.alpha.dir/__/__/__/mesh/prov/src/prov_bearer_adv.c.obj
 .text.tx_retry_cb
                0x00027fc4      0x148 examples/pb_remote/client/CMakeFiles/pb_remote_client_nrf52840_xxAA_s140_5.0.0-3.alpha.dir/__/__/__/mesh/prov/src/prov_bearer_adv.c.obj
 .text.send_transaction_ack
                0x0002810c       0x78 examples/pb_remote/client/CMakeFiles/pb_remote_client_nrf52840_xxAA_s140_5.0.0-3.alpha.dir/__/__/__/mesh/prov/src/prov_bearer_adv.c.obj
 .text.prov_buffer_rx
                0x00028184       0xa4 examples/pb_remote/client/CMakeFiles/pb_remote_client_nrf52840_xxAA_s140_5.0.0-3.alpha.dir/__/__/__/mesh/prov/src/prov_bearer_adv.c.obj
 .text.async_process
                0x00028228       0xb4 examples/pb_remote/client/CMakeFiles/pb_remote_client_nrf52840_xxAA_s140_5.0.0-3.alpha.dir/__/__/__/mesh/prov/src/prov_bearer_adv.c.obj
 .text.prov_bearer_adv_link_open
                0x000282dc      0x1c4 examples/pb_remote/client/CMakeFiles/pb_remote_client_nrf52840_xxAA_s140_5.0.0-3.alpha.dir/__/__/__/mesh/prov/src/prov_bearer_adv.c.obj
 .text.prov_bearer_adv_link_close
                0x000284a0      0x154 examples/pb_remote/client/CMakeFiles/pb_remote_client_nrf52840_xxAA_s140_5.0.0-3.alpha.dir/__/__/__/mesh/prov/src/prov_bearer_adv.c.obj
 .text.prov_bearer_adv_interface_get
                0x000285f4       0x28 examples/pb_remote/client/CMakeFiles/pb_remote_client_nrf52840_xxAA_s140_5.0.0-3.alpha.dir/__/__/__/mesh/prov/src/prov_bearer_adv.c.obj
                0x000285f4                prov_bearer_adv_interface_get
 .text.prov_bearer_adv_packet_in
                0x0002861c      0x9d0 examples/pb_remote/client/CMakeFiles/pb_remote_client_nrf52840_xxAA_s140_5.0.0-3.alpha.dir/__/__/__/mesh/prov/src/prov_bearer_adv.c.obj
                0x0002861c                prov_bearer_adv_packet_in
 .text.add_to_publication_list
                0x00028fec       0x8c examples/pb_remote/client/CMakeFiles/pb_remote_client_nrf52840_xxAA_s140_5.0.0-3.alpha.dir/__/__/__/mesh/access/src/access_publish.c.obj
 .text.schedule_publication_timer
                0x00029078      0x2f4 examples/pb_remote/client/CMakeFiles/pb_remote_client_nrf52840_xxAA_s140_5.0.0-3.alpha.dir/__/__/__/mesh/access/src/access_publish.c.obj
 .text.publish_timer_tick
                0x0002936c       0xd0 examples/pb_remote/client/CMakeFiles/pb_remote_client_nrf52840_xxAA_s140_5.0.0-3.alpha.dir/__/__/__/mesh/access/src/access_publish.c.obj
 .text.access_publish_init
                0x0002943c       0x38 examples/pb_remote/client/CMakeFiles/pb_remote_client_nrf52840_xxAA_s140_5.0.0-3.alpha.dir/__/__/__/mesh/access/src/access_publish.c.obj
                0x0002943c                access_publish_init
 .text.flash_invalidate_complete
                0x00029474       0x14 examples/pb_remote/client/CMakeFiles/pb_remote_client_nrf52840_xxAA_s140_5.0.0-3.alpha.dir/__/__/__/mesh/access/src/access.c.obj
 .text.flash_manager_mem_available
                0x00029488        0x4 examples/pb_remote/client/CMakeFiles/pb_remote_client_nrf52840_xxAA_s140_5.0.0-3.alpha.dir/__/__/__/mesh/access/src/access.c.obj
 .text.handle_incoming
                0x0002948c      0x1b8 examples/pb_remote/client/CMakeFiles/pb_remote_client_nrf52840_xxAA_s140_5.0.0-3.alpha.dir/__/__/__/mesh/access/src/access.c.obj
 .text.mesh_evt_cb
                0x00029644      0x15c examples/pb_remote/client/CMakeFiles/pb_remote_client_nrf52840_xxAA_s140_5.0.0-3.alpha.dir/__/__/__/mesh/access/src/access.c.obj
 .text.add_flash_manager
                0x000297a0       0x58 examples/pb_remote/client/CMakeFiles/pb_remote_client_nrf52840_xxAA_s140_5.0.0-3.alpha.dir/__/__/__/mesh/access/src/access.c.obj
 .text.flash_write_complete
                0x000297f8       0x58 examples/pb_remote/client/CMakeFiles/pb_remote_client_nrf52840_xxAA_s140_5.0.0-3.alpha.dir/__/__/__/mesh/access/src/access.c.obj
 .text.flash_remove_complete
                0x00029850       0xb0 examples/pb_remote/client/CMakeFiles/pb_remote_client_nrf52840_xxAA_s140_5.0.0-3.alpha.dir/__/__/__/mesh/access/src/access.c.obj
 .text.access_init
                0x00029900       0xb4 examples/pb_remote/client/CMakeFiles/pb_remote_client_nrf52840_xxAA_s140_5.0.0-3.alpha.dir/__/__/__/mesh/access/src/access.c.obj
                0x00029900                access_init
 .text.access_model_add
                0x000299b4      0x1f4 examples/pb_remote/client/CMakeFiles/pb_remote_client_nrf52840_xxAA_s140_5.0.0-3.alpha.dir/__/__/__/mesh/access/src/access.c.obj
                0x000299b4                access_model_add
 .text.access_model_publish
                0x00029ba8      0x2d4 examples/pb_remote/client/CMakeFiles/pb_remote_client_nrf52840_xxAA_s140_5.0.0-3.alpha.dir/__/__/__/mesh/access/src/access.c.obj
                0x00029ba8                access_model_publish
 .text.access_model_reply
                0x00029e7c      0x2d0 examples/pb_remote/client/CMakeFiles/pb_remote_client_nrf52840_xxAA_s140_5.0.0-3.alpha.dir/__/__/__/mesh/access/src/access.c.obj
                0x00029e7c                access_model_reply
 .text.access_model_publish_address_set
                0x0002a14c       0x3c examples/pb_remote/client/CMakeFiles/pb_remote_client_nrf52840_xxAA_s140_5.0.0-3.alpha.dir/__/__/__/mesh/access/src/access.c.obj
                0x0002a14c                access_model_publish_address_set
 .text.access_model_publish_address_get
                0x0002a188       0x2c examples/pb_remote/client/CMakeFiles/pb_remote_client_nrf52840_xxAA_s140_5.0.0-3.alpha.dir/__/__/__/mesh/access/src/access.c.obj
                0x0002a188                access_model_publish_address_get
 .text.access_model_application_bind
                0x0002a1b4       0x58 examples/pb_remote/client/CMakeFiles/pb_remote_client_nrf52840_xxAA_s140_5.0.0-3.alpha.dir/__/__/__/mesh/access/src/access.c.obj
                0x0002a1b4                access_model_application_bind
 .text.access_model_publish_application_set
                0x0002a20c       0x3c examples/pb_remote/client/CMakeFiles/pb_remote_client_nrf52840_xxAA_s140_5.0.0-3.alpha.dir/__/__/__/mesh/access/src/access.c.obj
                0x0002a20c                access_model_publish_application_set
 .text.access_model_publish_ttl_set
                0x0002a248       0x40 examples/pb_remote/client/CMakeFiles/pb_remote_client_nrf52840_xxAA_s140_5.0.0-3.alpha.dir/__/__/__/mesh/access/src/access.c.obj
                0x0002a248                access_model_publish_ttl_set
 .text.access_model_publish_ttl_get
                0x0002a288       0x2c examples/pb_remote/client/CMakeFiles/pb_remote_client_nrf52840_xxAA_s140_5.0.0-3.alpha.dir/__/__/__/mesh/access/src/access.c.obj
                0x0002a288                access_model_publish_ttl_get
 .text.access_model_p_args_get
                0x0002a2b4       0x2c examples/pb_remote/client/CMakeFiles/pb_remote_client_nrf52840_xxAA_s140_5.0.0-3.alpha.dir/__/__/__/mesh/access/src/access.c.obj
                0x0002a2b4                access_model_p_args_get
 .text.remove_and_reschedule
                0x0002a2e0      0x108 examples/pb_remote/client/CMakeFiles/pb_remote_client_nrf52840_xxAA_s140_5.0.0-3.alpha.dir/__/__/__/mesh/access/src/access_reliable.c.obj
 .text.reliable_timer_cb
                0x0002a3e8      0x1dc examples/pb_remote/client/CMakeFiles/pb_remote_client_nrf52840_xxAA_s140_5.0.0-3.alpha.dir/__/__/__/mesh/access/src/access_reliable.c.obj
 .text.access_reliable_message_rx_cb
                0x0002a5c4       0x8c examples/pb_remote/client/CMakeFiles/pb_remote_client_nrf52840_xxAA_s140_5.0.0-3.alpha.dir/__/__/__/mesh/access/src/access_reliable.c.obj
                0x0002a5c4                access_reliable_message_rx_cb
 .text.access_reliable_init
                0x0002a650       0x1c examples/pb_remote/client/CMakeFiles/pb_remote_client_nrf52840_xxAA_s140_5.0.0-3.alpha.dir/__/__/__/mesh/access/src/access_reliable.c.obj
                0x0002a650                access_reliable_init
 .text.access_model_reliable_cancel
                0x0002a66c       0x50 examples/pb_remote/client/CMakeFiles/pb_remote_client_nrf52840_xxAA_s140_5.0.0-3.alpha.dir/__/__/__/mesh/access/src/access_reliable.c.obj
                0x0002a66c                access_model_reliable_cancel
 .text.access_model_reliable_publish
                0x0002a6bc      0x1d0 examples/pb_remote/client/CMakeFiles/pb_remote_client_nrf52840_xxAA_s140_5.0.0-3.alpha.dir/__/__/__/mesh/access/src/access_reliable.c.obj
                0x0002a6bc                access_model_reliable_publish
 .text.addr_nonvirtual_to_dsm_entry
                0x0002a88c       0x48 examples/pb_remote/client/CMakeFiles/pb_remote_client_nrf52840_xxAA_s140_5.0.0-3.alpha.dir/__/__/__/mesh/access/src/device_state_manager.c.obj
 .text.addr_nonvirtual_to_flash_entry
                0x0002a8d4       0x10 examples/pb_remote/client/CMakeFiles/pb_remote_client_nrf52840_xxAA_s140_5.0.0-3.alpha.dir/__/__/__/mesh/access/src/device_state_manager.c.obj
 .text.flash_mem_listener_callback
                0x0002a8e4       0x28 examples/pb_remote/client/CMakeFiles/pb_remote_client_nrf52840_xxAA_s140_5.0.0-3.alpha.dir/__/__/__/mesh/access/src/device_state_manager.c.obj
 .text.devkey_to_flash_entry
                0x0002a90c       0x28 examples/pb_remote/client/CMakeFiles/pb_remote_client_nrf52840_xxAA_s140_5.0.0-3.alpha.dir/__/__/__/mesh/access/src/device_state_manager.c.obj
 .text.appkey_to_flash_entry
                0x0002a934       0x28 examples/pb_remote/client/CMakeFiles/pb_remote_client_nrf52840_xxAA_s140_5.0.0-3.alpha.dir/__/__/__/mesh/access/src/device_state_manager.c.obj
 .text.subnet_to_flash_entry
                0x0002a95c       0x24 examples/pb_remote/client/CMakeFiles/pb_remote_client_nrf52840_xxAA_s140_5.0.0-3.alpha.dir/__/__/__/mesh/access/src/device_state_manager.c.obj
 .text.addr_virtual_to_flash_entry
                0x0002a980       0x18 examples/pb_remote/client/CMakeFiles/pb_remote_client_nrf52840_xxAA_s140_5.0.0-3.alpha.dir/__/__/__/mesh/access/src/device_state_manager.c.obj
 .text.addr_unicast_to_dsm_entry
                0x0002a998        0xc examples/pb_remote/client/CMakeFiles/pb_remote_client_nrf52840_xxAA_s140_5.0.0-3.alpha.dir/__/__/__/mesh/access/src/device_state_manager.c.obj
 .text.addr_unicast_to_flash_entry
                0x0002a9a4       0x10 examples/pb_remote/client/CMakeFiles/pb_remote_client_nrf52840_xxAA_s140_5.0.0-3.alpha.dir/__/__/__/mesh/access/src/device_state_manager.c.obj
 .text.subnet_set
                0x0002a9b4       0xac examples/pb_remote/client/CMakeFiles/pb_remote_client_nrf52840_xxAA_s140_5.0.0-3.alpha.dir/__/__/__/mesh/access/src/device_state_manager.c.obj
 .text.flash_save
                0x0002aa60       0xa8 examples/pb_remote/client/CMakeFiles/pb_remote_client_nrf52840_xxAA_s140_5.0.0-3.alpha.dir/__/__/__/mesh/access/src/device_state_manager.c.obj
 .text.build_flash_area
                0x0002ab08       0x90 examples/pb_remote/client/CMakeFiles/pb_remote_client_nrf52840_xxAA_s140_5.0.0-3.alpha.dir/__/__/__/mesh/access/src/device_state_manager.c.obj
 .text.flash_write_complete
                0x0002ab98       0x5c examples/pb_remote/client/CMakeFiles/pb_remote_client_nrf52840_xxAA_s140_5.0.0-3.alpha.dir/__/__/__/mesh/access/src/device_state_manager.c.obj
 .text.devkey_to_dsm_entry
                0x0002abf4       0x70 examples/pb_remote/client/CMakeFiles/pb_remote_client_nrf52840_xxAA_s140_5.0.0-3.alpha.dir/__/__/__/mesh/access/src/device_state_manager.c.obj
 .text.addr_virtual_to_dsm_entry
                0x0002ac64       0x6c examples/pb_remote/client/CMakeFiles/pb_remote_client_nrf52840_xxAA_s140_5.0.0-3.alpha.dir/__/__/__/mesh/access/src/device_state_manager.c.obj
 .text.flash_invalidate_complete
                0x0002acd0       0x5c examples/pb_remote/client/CMakeFiles/pb_remote_client_nrf52840_xxAA_s140_5.0.0-3.alpha.dir/__/__/__/mesh/access/src/device_state_manager.c.obj
 .text.appkey_to_dsm_entry
                0x0002ad2c       0x94 examples/pb_remote/client/CMakeFiles/pb_remote_client_nrf52840_xxAA_s140_5.0.0-3.alpha.dir/__/__/__/mesh/access/src/device_state_manager.c.obj
 .text.flash_update_all
                0x0002adc0      0x144 examples/pb_remote/client/CMakeFiles/pb_remote_client_nrf52840_xxAA_s140_5.0.0-3.alpha.dir/__/__/__/mesh/access/src/device_state_manager.c.obj
 .text.flash_remove_complete
                0x0002af04       0x90 examples/pb_remote/client/CMakeFiles/pb_remote_client_nrf52840_xxAA_s140_5.0.0-3.alpha.dir/__/__/__/mesh/access/src/device_state_manager.c.obj
 .text.subnet_to_dsm_entry
                0x0002af94       0xbc examples/pb_remote/client/CMakeFiles/pb_remote_client_nrf52840_xxAA_s140_5.0.0-3.alpha.dir/__/__/__/mesh/access/src/device_state_manager.c.obj
 .text.dsm_init
                0x0002b050       0xa8 examples/pb_remote/client/CMakeFiles/pb_remote_client_nrf52840_xxAA_s140_5.0.0-3.alpha.dir/__/__/__/mesh/access/src/device_state_manager.c.obj
                0x0002b050                dsm_init
 .text.dsm_flash_area_get
                0x0002b0f8        0xc examples/pb_remote/client/CMakeFiles/pb_remote_client_nrf52840_xxAA_s140_5.0.0-3.alpha.dir/__/__/__/mesh/access/src/device_state_manager.c.obj
                0x0002b0f8                dsm_flash_area_get
 .text.dsm_local_unicast_addresses_set
                0x0002b104       0x78 examples/pb_remote/client/CMakeFiles/pb_remote_client_nrf52840_xxAA_s140_5.0.0-3.alpha.dir/__/__/__/mesh/access/src/device_state_manager.c.obj
                0x0002b104                dsm_local_unicast_addresses_set
 .text.dsm_local_unicast_addresses_get
                0x0002b17c       0x2c examples/pb_remote/client/CMakeFiles/pb_remote_client_nrf52840_xxAA_s140_5.0.0-3.alpha.dir/__/__/__/mesh/access/src/device_state_manager.c.obj
                0x0002b17c                dsm_local_unicast_addresses_get
 .text.dsm_address_publish_add
                0x0002b1a8      0x16c examples/pb_remote/client/CMakeFiles/pb_remote_client_nrf52840_xxAA_s140_5.0.0-3.alpha.dir/__/__/__/mesh/access/src/device_state_manager.c.obj
                0x0002b1a8                dsm_address_publish_add
 .text.dsm_address_subscription_get
                0x0002b314       0x50 examples/pb_remote/client/CMakeFiles/pb_remote_client_nrf52840_xxAA_s140_5.0.0-3.alpha.dir/__/__/__/mesh/access/src/device_state_manager.c.obj
                0x0002b314                dsm_address_subscription_get
 .text.dsm_address_get
                0x0002b364       0x68 examples/pb_remote/client/CMakeFiles/pb_remote_client_nrf52840_xxAA_s140_5.0.0-3.alpha.dir/__/__/__/mesh/access/src/device_state_manager.c.obj
                0x0002b364                dsm_address_get
 .text.dsm_address_handle_get
                0x0002b3cc       0xe4 examples/pb_remote/client/CMakeFiles/pb_remote_client_nrf52840_xxAA_s140_5.0.0-3.alpha.dir/__/__/__/mesh/access/src/device_state_manager.c.obj
                0x0002b3cc                dsm_address_handle_get
 .text.dsm_appkey_handle_get
                0x0002b4b0       0x3c examples/pb_remote/client/CMakeFiles/pb_remote_client_nrf52840_xxAA_s140_5.0.0-3.alpha.dir/__/__/__/mesh/access/src/device_state_manager.c.obj
                0x0002b4b0                dsm_appkey_handle_get
 .text.dsm_subnet_add
                0x0002b4ec       0x94 examples/pb_remote/client/CMakeFiles/pb_remote_client_nrf52840_xxAA_s140_5.0.0-3.alpha.dir/__/__/__/mesh/access/src/device_state_manager.c.obj
                0x0002b4ec                dsm_subnet_add
 .text.dsm_devkey_add
                0x0002b580      0x140 examples/pb_remote/client/CMakeFiles/pb_remote_client_nrf52840_xxAA_s140_5.0.0-3.alpha.dir/__/__/__/mesh/access/src/device_state_manager.c.obj
                0x0002b580                dsm_devkey_add
 .text.dsm_appkey_add
                0x0002b6c0       0xa8 examples/pb_remote/client/CMakeFiles/pb_remote_client_nrf52840_xxAA_s140_5.0.0-3.alpha.dir/__/__/__/mesh/access/src/device_state_manager.c.obj
                0x0002b6c0                dsm_appkey_add
 .text.dsm_tx_secmat_get
                0x0002b768      0x104 examples/pb_remote/client/CMakeFiles/pb_remote_client_nrf52840_xxAA_s140_5.0.0-3.alpha.dir/__/__/__/mesh/access/src/device_state_manager.c.obj
                0x0002b768                dsm_tx_secmat_get
 .text.nrf_mesh_net_secmat_next_get
                0x0002b86c       0x54 examples/pb_remote/client/CMakeFiles/pb_remote_client_nrf52840_xxAA_s140_5.0.0-3.alpha.dir/__/__/__/mesh/access/src/device_state_manager.c.obj
                0x0002b86c                nrf_mesh_net_secmat_next_get
 .text.nrf_mesh_app_secmat_next_get
                0x0002b8c0       0x80 examples/pb_remote/client/CMakeFiles/pb_remote_client_nrf52840_xxAA_s140_5.0.0-3.alpha.dir/__/__/__/mesh/access/src/device_state_manager.c.obj
                0x0002b8c0                nrf_mesh_app_secmat_next_get
 .text.nrf_mesh_devkey_secmat_get
                0x0002b940       0x74 examples/pb_remote/client/CMakeFiles/pb_remote_client_nrf52840_xxAA_s140_5.0.0-3.alpha.dir/__/__/__/mesh/access/src/device_state_manager.c.obj
                0x0002b940                nrf_mesh_devkey_secmat_get
 .text.nrf_mesh_beacon_info_next_get
                0x0002b9b4       0x7c examples/pb_remote/client/CMakeFiles/pb_remote_client_nrf52840_xxAA_s140_5.0.0-3.alpha.dir/__/__/__/mesh/access/src/device_state_manager.c.obj
                0x0002b9b4                nrf_mesh_beacon_info_next_get
 .text.nrf_mesh_rx_address_get
                0x0002ba30      0x11c examples/pb_remote/client/CMakeFiles/pb_remote_client_nrf52840_xxAA_s140_5.0.0-3.alpha.dir/__/__/__/mesh/access/src/device_state_manager.c.obj
                0x0002ba30                nrf_mesh_rx_address_get
 .text._weak_handler
                0x0002bb4c        0x4 examples/pb_remote/client/CMakeFiles/pb_remote_client_nrf52840_xxAA_s140_5.0.0-3.alpha.dir/__/__/nrf_mesh_weak.c.obj
                0x0002bb4c                nrf_mesh_dfu_init
                0x0002bb4c                nrf_mesh_dfu_jump_to_bootloader
                0x0002bb4c                nrf_mesh_dfu_rx
                0x0002bb4c                nrf_mesh_dfu_bank_info_get
                0x0002bb4c                nrf_mesh_dfu_request
                0x0002bb4c                nrf_mesh_dfu_bank_flash
                0x0002bb4c                _weak_handler
                0x0002bb4c                prov_provisionee_auth_data
                0x0002bb4c                nrf_mesh_dfu_relay
                0x0002bb4c                prov_provisionee_shared_secret
                0x0002bb4c                nrf_mesh_dfu_abort
                0x0002bb4c                mesh_flash_op_execute
                0x0002bb4c                prov_provisionee_init
                0x0002bb4c                nrf_mesh_dfu_state_get
 .text.SystemInit
                0x0002bb50      0x1bc examples/pb_remote/client/CMakeFiles/pb_remote_client_nrf52840_xxAA_s140_5.0.0-3.alpha.dir/__/__/__/external/nRF5_SDK_14.0.0_3bcc1f7/components/toolchain/system_nrf52840.c.obj
                0x0002bb50                SystemInit
 .text          0x0002bd0c       0x3c examples/pb_remote/client/CMakeFiles/pb_remote_client_nrf52840_xxAA_s140_5.0.0-3.alpha.dir/__/__/__/external/nRF5_SDK_14.0.0_3bcc1f7/components/toolchain/gcc/gcc_startup_nrf52840.S.obj
                0x0002bd0c                Reset_Handler
                0x0002bd34                NMI_Handler
                0x0002bd38                MemoryManagement_Handler
                0x0002bd3a                BusFault_Handler
                0x0002bd3c                UsageFault_Handler
                0x0002bd3e                SVC_Handler
                0x0002bd40                DebugMon_Handler
                0x0002bd42                PendSV_Handler
                0x0002bd44                SysTick_Handler
                0x0002bd46                POWER_CLOCK_IRQHandler
                0x0002bd46                RADIO_IRQHandler
                0x0002bd46                PDM_IRQHandler
                0x0002bd46                TEMP_IRQHandler
                0x0002bd46                RTC0_IRQHandler
                0x0002bd46                PWM3_IRQHandler
                0x0002bd46                FPU_IRQHandler
                0x0002bd46                USBD_IRQHandler
                0x0002bd46                SPIM0_SPIS0_TWIM0_TWIS0_SPI0_TWI0_IRQHandler
                0x0002bd46                GPIOTE_IRQHandler
                0x0002bd46                UARTE0_UART0_IRQHandler
                0x0002bd46                TIMER3_IRQHandler
                0x0002bd46                CRYPTOCELL_IRQHandler
                0x0002bd46                I2S_IRQHandler
                0x0002bd46                SWI4_EGU4_IRQHandler
                0x0002bd46                PWM1_IRQHandler
                0x0002bd46                TIMER2_IRQHandler
                0x0002bd46                UARTE1_IRQHandler
                0x0002bd46                TIMER1_IRQHandler
                0x0002bd46                SPIM3_IRQHandler
                0x0002bd46                PWM2_IRQHandler
                0x0002bd46                ECB_IRQHandler
                0x0002bd46                SPIM1_SPIS1_TWIM1_TWIS1_SPI1_TWI1_IRQHandler
                0x0002bd46                Default_Handler
                0x0002bd46                SAADC_IRQHandler
                0x0002bd46                CCM_AAR_IRQHandler
                0x0002bd46                WDT_IRQHandler
                0x0002bd46                TIMER4_IRQHandler
                0x0002bd46                SWI5_EGU5_IRQHandler
                0x0002bd46                RNG_IRQHandler
                0x0002bd46                RTC2_IRQHandler
                0x0002bd46                PWM0_IRQHandler
                0x0002bd46                SWI3_EGU3_IRQHandler
                0x0002bd46                RTC1_IRQHandler
                0x0002bd46                SWI1_EGU1_IRQHandler
                0x0002bd46                SPIM2_SPIS2_SPI2_IRQHandler
                0x0002bd46                NFCT_IRQHandler
                0x0002bd46                SWI0_EGU0_IRQHandler
                0x0002bd46                MWU_IRQHandler
                0x0002bd46                TIMER0_IRQHandler
                0x0002bd46                QSPI_IRQHandler
                0x0002bd46                COMP_LPCOMP_IRQHandler
 .text.nrf_mesh_configure_device_uuid_reset
                0x0002bd48       0x2c mesh/core/libmesh_core_nrf52840_xxAA.a(nrf_mesh_configure.c.obj)
                0x0002bd48                nrf_mesh_configure_device_uuid_reset
 .text.nrf_mesh_configure_device_uuid_get
                0x0002bd74        0x8 mesh/core/libmesh_core_nrf52840_xxAA.a(nrf_mesh_configure.c.obj)
                0x0002bd74                nrf_mesh_configure_device_uuid_get
 .text.event_handle
                0x0002bd7c       0x34 mesh/core/libmesh_core_nrf52840_xxAA.a(event.c.obj)
                0x0002bd7c                event_handle
 .text.event_handler_add
                0x0002bdb0       0x90 mesh/core/libmesh_core_nrf52840_xxAA.a(event.c.obj)
                0x0002bdb0                event_handler_add
 .text.fifo_init
                0x0002be40       0x5c mesh/core/libmesh_core_nrf52840_xxAA.a(fifo.c.obj)
                0x0002be40                fifo_init
 .text.fifo_push
                0x0002be9c       0x54 mesh/core/libmesh_core_nrf52840_xxAA.a(fifo.c.obj)
                0x0002be9c                fifo_push
 .text.fifo_pop
                0x0002bef0       0x58 mesh/core/libmesh_core_nrf52840_xxAA.a(fifo.c.obj)
                0x0002bef0                fifo_pop
 .text.flash_mem_available
                0x0002bf48       0x28 mesh/core/libmesh_core_nrf52840_xxAA.a(net_state.c.obj)
 .text.flash_store_iv_index
                0x0002bf70       0x38 mesh/core/libmesh_core_nrf52840_xxAA.a(net_state.c.obj)
 .text.init_flash_storage
                0x0002bfa8       0x44 mesh/core/libmesh_core_nrf52840_xxAA.a(net_state.c.obj)
 .text.flash_write_complete
                0x0002bfec       0x7c mesh/core/libmesh_core_nrf52840_xxAA.a(net_state.c.obj)
 .text.seqnum_block_allocate
                0x0002c068       0x4c mesh/core/libmesh_core_nrf52840_xxAA.a(net_state.c.obj)
 .text.iv_update_trigger_if_pending
                0x0002c0b4      0x17c mesh/core/libmesh_core_nrf52840_xxAA.a(net_state.c.obj)
 .text.iv_update_timer_handler
                0x0002c230       0x80 mesh/core/libmesh_core_nrf52840_xxAA.a(net_state.c.obj)
 .text.net_state_recover_from_flash
                0x0002c2b0      0x10c mesh/core/libmesh_core_nrf52840_xxAA.a(net_state.c.obj)
                0x0002c2b0                net_state_recover_from_flash
 .text.net_state_flash_area_get
                0x0002c3bc        0xc mesh/core/libmesh_core_nrf52840_xxAA.a(net_state.c.obj)
                0x0002c3bc                net_state_flash_area_get
 .text.net_state_init
                0x0002c3c8       0x80 mesh/core/libmesh_core_nrf52840_xxAA.a(net_state.c.obj)
                0x0002c3c8                net_state_init
 .text.net_state_seqnum_alloc
                0x0002c448       0xd4 mesh/core/libmesh_core_nrf52840_xxAA.a(net_state.c.obj)
                0x0002c448                net_state_seqnum_alloc
 .text.net_state_iv_index_lock
                0x0002c51c       0x50 mesh/core/libmesh_core_nrf52840_xxAA.a(net_state.c.obj)
                0x0002c51c                net_state_iv_index_lock
 .text.net_state_beacon_received
                0x0002c56c       0xec mesh/core/libmesh_core_nrf52840_xxAA.a(net_state.c.obj)
                0x0002c56c                net_state_beacon_received
 .text.net_state_beacon_iv_index_get
                0x0002c658        0xc mesh/core/libmesh_core_nrf52840_xxAA.a(net_state.c.obj)
                0x0002c658                net_state_beacon_iv_index_get
 .text.net_state_tx_iv_index_get
                0x0002c664       0x14 mesh/core/libmesh_core_nrf52840_xxAA.a(net_state.c.obj)
                0x0002c664                net_state_tx_iv_index_get
 .text.net_state_rx_iv_index_get
                0x0002c678       0x18 mesh/core/libmesh_core_nrf52840_xxAA.a(net_state.c.obj)
                0x0002c678                net_state_rx_iv_index_get
 .text.net_state_iv_update_get
                0x0002c690        0xc mesh/core/libmesh_core_nrf52840_xxAA.a(net_state.c.obj)
                0x0002c690                net_state_iv_update_get
 .text.nrf_mesh_address_type_get
                0x0002c69c       0x10 mesh/core/libmesh_core_nrf52840_xxAA.a(nrf_mesh_utils.c.obj)
                0x0002c69c                nrf_mesh_address_type_get
 .text.sd_softdevice_is_enabled
                0x0002c6ac        0x4 mesh/core/libmesh_core_nrf52840_xxAA.a(nrf_mesh.c.obj)
 .text.nrf_mesh_init
                0x0002c6b0       0xb8 mesh/core/libmesh_core_nrf52840_xxAA.a(nrf_mesh.c.obj)
                0x0002c6b0                nrf_mesh_init
 .text.nrf_mesh_enable
                0x0002c768       0x50 mesh/core/libmesh_core_nrf52840_xxAA.a(nrf_mesh.c.obj)
                0x0002c768                nrf_mesh_enable
 .text.nrf_mesh_packet_send
                0x0002c7b8        0x4 mesh/core/libmesh_core_nrf52840_xxAA.a(nrf_mesh.c.obj)
                0x0002c7b8                nrf_mesh_packet_send
 .text.nrf_mesh_process
                0x0002c7bc      0x21c mesh/core/libmesh_core_nrf52840_xxAA.a(nrf_mesh.c.obj)
                0x0002c7bc                nrf_mesh_process
 .text.nrf_mesh_on_ble_evt
                0x0002c9d8        0x4 mesh/core/libmesh_core_nrf52840_xxAA.a(nrf_mesh.c.obj)
                0x0002c9d8                nrf_mesh_on_ble_evt
 .text.nrf_mesh_on_sd_evt
                0x0002c9dc        0xc mesh/core/libmesh_core_nrf52840_xxAA.a(nrf_mesh.c.obj)
                0x0002c9dc                nrf_mesh_on_sd_evt
 .text.nrf_mesh_evt_handler_add
                0x0002c9e8        0x4 mesh/core/libmesh_core_nrf52840_xxAA.a(nrf_mesh.c.obj)
                0x0002c9e8                nrf_mesh_evt_handler_add
 .text.hal_lfclk_ppm_get
                0x0002c9ec       0x14 mesh/core/libmesh_core_nrf52840_xxAA.a(hal.c.obj)
                0x0002c9ec                hal_lfclk_ppm_get
 .text.timer_cb
                0x0002ca00        0xc mesh/core/libmesh_core_nrf52840_xxAA.a(timer_scheduler.c.obj)
 .text.add_evt.constprop.0
                0x0002ca0c       0x78 mesh/core/libmesh_core_nrf52840_xxAA.a(timer_scheduler.c.obj)
 .text.flag_event_cb
                0x0002ca84      0x2e4 mesh/core/libmesh_core_nrf52840_xxAA.a(timer_scheduler.c.obj)
 .text.timer_sch_init
                0x0002cd68       0x24 mesh/core/libmesh_core_nrf52840_xxAA.a(timer_scheduler.c.obj)
                0x0002cd68                timer_sch_init
 .text.timer_sch_schedule
                0x0002cd8c       0x84 mesh/core/libmesh_core_nrf52840_xxAA.a(timer_scheduler.c.obj)
                0x0002cd8c                timer_sch_schedule
 .text.timer_sch_abort
                0x0002ce10       0x68 mesh/core/libmesh_core_nrf52840_xxAA.a(timer_scheduler.c.obj)
                0x0002ce10                timer_sch_abort
 .text.timer_sch_reschedule
                0x0002ce78       0xa4 mesh/core/libmesh_core_nrf52840_xxAA.a(timer_scheduler.c.obj)
                0x0002ce78                timer_sch_reschedule
 .text.timer_event_handler
                0x0002cf1c       0xd8 mesh/core/libmesh_core_nrf52840_xxAA.a(timer.c.obj)
                0x0002cf1c                timer_event_handler
 .text.timer_order_cb
                0x0002cff4       0x98 mesh/core/libmesh_core_nrf52840_xxAA.a(timer.c.obj)
                0x0002cff4                timer_order_cb
 .text.timer_now
                0x0002d08c       0x58 mesh/core/libmesh_core_nrf52840_xxAA.a(timer.c.obj)
                0x0002d08c                timer_now
 .text.timer_on_ts_begin
                0x0002d0e4      0x110 mesh/core/libmesh_core_nrf52840_xxAA.a(timer.c.obj)
                0x0002d0e4                timer_on_ts_begin
 .text.timer_on_ts_end
                0x0002d1f4       0x78 mesh/core/libmesh_core_nrf52840_xxAA.a(timer.c.obj)
                0x0002d1f4                timer_on_ts_end
 .text.timer_cb
                0x0002d26c       0x10 mesh/core/libmesh_core_nrf52840_xxAA.a(ticker.c.obj)
 .text.ticker_init
                0x0002d27c       0x3c mesh/core/libmesh_core_nrf52840_xxAA.a(ticker.c.obj)
                0x0002d27c                ticker_init
 .text.sd_rand_application_bytes_available_get
                0x0002d2b8        0x4 mesh/core/libmesh_core_nrf52840_xxAA.a(rand.c.obj)
 .text.sd_rand_application_vector_get
                0x0002d2bc        0x4 mesh/core/libmesh_core_nrf52840_xxAA.a(rand.c.obj)
 .text.rand_prng_seed
                0x0002d2c0       0x6c mesh/core/libmesh_core_nrf52840_xxAA.a(rand.c.obj)
                0x0002d2c0                rand_prng_seed
 .text.rand_prng_get
                0x0002d32c       0x28 mesh/core/libmesh_core_nrf52840_xxAA.a(rand.c.obj)
                0x0002d32c                rand_prng_get
 .text.rand_hw_rng_get
                0x0002d354       0x58 mesh/core/libmesh_core_nrf52840_xxAA.a(rand.c.obj)
                0x0002d354                rand_hw_rng_get
 .text.sd_radio_session_open
                0x0002d3ac        0x4 mesh/core/libmesh_core_nrf52840_xxAA.a(timeslot.c.obj)
 .text.sd_radio_session_close
                0x0002d3b0        0x4 mesh/core/libmesh_core_nrf52840_xxAA.a(timeslot.c.obj)
 .text.sd_radio_request
                0x0002d3b4        0x4 mesh/core/libmesh_core_nrf52840_xxAA.a(timeslot.c.obj)
 .text.end_timer_handler
                0x0002d3b8       0x2c mesh/core/libmesh_core_nrf52840_xxAA.a(timeslot.c.obj)
 .text.radio_signal_callback
                0x0002d3e4      0x324 mesh/core/libmesh_core_nrf52840_xxAA.a(timeslot.c.obj)
 .text.timeslot_sd_event_handler
                0x0002d708       0x50 mesh/core/libmesh_core_nrf52840_xxAA.a(timeslot.c.obj)
                0x0002d708                timeslot_sd_event_handler
 .text.timeslot_init
                0x0002d758       0x4c mesh/core/libmesh_core_nrf52840_xxAA.a(timeslot.c.obj)
                0x0002d758                timeslot_init
 .text.timeslot_start
                0x0002d7a4       0x20 mesh/core/libmesh_core_nrf52840_xxAA.a(timeslot.c.obj)
                0x0002d7a4                timeslot_start
 .text.timeslot_stop
                0x0002d7c4       0x30 mesh/core/libmesh_core_nrf52840_xxAA.a(timeslot.c.obj)
                0x0002d7c4                timeslot_stop
 .text.timeslot_state_lock
                0x0002d7f4       0x44 mesh/core/libmesh_core_nrf52840_xxAA.a(timeslot.c.obj)
                0x0002d7f4                timeslot_state_lock
 .text.timeslot_end_is_pending
                0x0002d838       0x24 mesh/core/libmesh_core_nrf52840_xxAA.a(timeslot.c.obj)
                0x0002d838                timeslot_end_is_pending
 .text.timeslot_start_time_get
                0x0002d85c        0xc mesh/core/libmesh_core_nrf52840_xxAA.a(timeslot.c.obj)
                0x0002d85c                timeslot_start_time_get
 .text.timeslot_remaining_time_get
                0x0002d868       0x40 mesh/core/libmesh_core_nrf52840_xxAA.a(timeslot.c.obj)
                0x0002d868                timeslot_remaining_time_get
 .text.timeslot_is_in_cb
                0x0002d8a8        0xc mesh/core/libmesh_core_nrf52840_xxAA.a(timeslot.c.obj)
                0x0002d8a8                timeslot_is_in_cb
 .text.timeslot_trigger
                0x0002d8b4       0x24 mesh/core/libmesh_core_nrf52840_xxAA.a(timeslot.c.obj)
                0x0002d8b4                timeslot_trigger
 .text.QDEC_IRQHandler
                0x0002d8d8       0xe0 mesh/core/libmesh_core_nrf52840_xxAA.a(bearer_event.c.obj)
                0x0002d8d8                QDEC_IRQHandler
 .text.bearer_event_init
                0x0002d9b8       0x3c mesh/core/libmesh_core_nrf52840_xxAA.a(bearer_event.c.obj)
                0x0002d9b8                bearer_event_init
 .text.bearer_event_timer_post
                0x0002d9f4       0x50 mesh/core/libmesh_core_nrf52840_xxAA.a(bearer_event.c.obj)
                0x0002d9f4                bearer_event_timer_post
 .text.bearer_event_critical_section_begin
                0x0002da44       0x44 mesh/core/libmesh_core_nrf52840_xxAA.a(bearer_event.c.obj)
                0x0002da44                bearer_event_critical_section_begin
 .text.bearer_event_critical_section_end
                0x0002da88       0x44 mesh/core/libmesh_core_nrf52840_xxAA.a(bearer_event.c.obj)
                0x0002da88                bearer_event_critical_section_end
 .text.bearer_event_flag_add
                0x0002dacc       0x50 mesh/core/libmesh_core_nrf52840_xxAA.a(bearer_event.c.obj)
                0x0002dacc                bearer_event_flag_add
 .text.bearer_event_flag_set
                0x0002db1c       0x58 mesh/core/libmesh_core_nrf52840_xxAA.a(bearer_event.c.obj)
                0x0002db1c                bearer_event_flag_set
 .text.bearer_event_sequential_add
                0x0002db74       0x48 mesh/core/libmesh_core_nrf52840_xxAA.a(bearer_event.c.obj)
                0x0002db74                bearer_event_sequential_add
 .text.bearer_event_sequential_post
                0x0002dbbc       0x6c mesh/core/libmesh_core_nrf52840_xxAA.a(bearer_event.c.obj)
                0x0002dbbc                bearer_event_sequential_post
 .text.bearer_event_sequential_pending
                0x0002dc28       0x20 mesh/core/libmesh_core_nrf52840_xxAA.a(bearer_event.c.obj)
                0x0002dc28                bearer_event_sequential_pending
 .text.enc_aes_encrypt
                0x0002dc48        0x4 mesh/core/libmesh_core_nrf52840_xxAA.a(enc.c.obj)
                0x0002dc48                enc_aes_encrypt
 .text.enc_aes_cmac
                0x0002dc4c        0x4 mesh/core/libmesh_core_nrf52840_xxAA.a(enc.c.obj)
                0x0002dc4c                enc_aes_cmac
 .text.enc_aes_ccm_encrypt
                0x0002dc50        0x4 mesh/core/libmesh_core_nrf52840_xxAA.a(enc.c.obj)
                0x0002dc50                enc_aes_ccm_encrypt
 .text.enc_aes_ccm_decrypt
                0x0002dc54        0x4 mesh/core/libmesh_core_nrf52840_xxAA.a(enc.c.obj)
                0x0002dc54                enc_aes_ccm_decrypt
 .text.enc_nonce_generate
                0x0002dc58       0xc4 mesh/core/libmesh_core_nrf52840_xxAA.a(enc.c.obj)
                0x0002dc58                enc_nonce_generate
 .text.enc_s1   0x0002dd1c       0x40 mesh/core/libmesh_core_nrf52840_xxAA.a(enc.c.obj)
                0x0002dd1c                enc_s1
 .text.enc_k1   0x0002dd5c       0x50 mesh/core/libmesh_core_nrf52840_xxAA.a(enc.c.obj)
                0x0002dd5c                enc_k1
 .text.enc_k2   0x0002ddac       0xec mesh/core/libmesh_core_nrf52840_xxAA.a(enc.c.obj)
                0x0002ddac                enc_k2
 .text.enc_k3   0x0002de98       0x74 mesh/core/libmesh_core_nrf52840_xxAA.a(enc.c.obj)
                0x0002de98                enc_k3
 .text.enc_k4   0x0002df0c       0x6c mesh/core/libmesh_core_nrf52840_xxAA.a(enc.c.obj)
                0x0002df0c                enc_k4
 .text.network_init
                0x0002df78       0x28 mesh/core/libmesh_core_nrf52840_xxAA.a(network.c.obj)
                0x0002df78                network_init
 .text.network_packet_alloc
                0x0002dfa0      0x1a4 mesh/core/libmesh_core_nrf52840_xxAA.a(network.c.obj)
                0x0002dfa0                network_packet_alloc
 .text.network_packet_send
                0x0002e144      0x1ec mesh/core/libmesh_core_nrf52840_xxAA.a(network.c.obj)
                0x0002e144                network_packet_send
 .text.network_packet_in
                0x0002e330      0x6c8 mesh/core/libmesh_core_nrf52840_xxAA.a(network.c.obj)
                0x0002e330                network_packet_in
 .text.nrf_mesh_keygen_aid
                0x0002e9f8       0x18 mesh/core/libmesh_core_nrf52840_xxAA.a(nrf_mesh_keygen.c.obj)
                0x0002e9f8                nrf_mesh_keygen_aid
 .text.nrf_mesh_keygen_network_secmat
                0x0002ea10       0x24 mesh/core/libmesh_core_nrf52840_xxAA.a(nrf_mesh_keygen.c.obj)
                0x0002ea10                nrf_mesh_keygen_network_secmat
 .text.nrf_mesh_keygen_beacon_secmat
                0x0002ea34       0x50 mesh/core/libmesh_core_nrf52840_xxAA.a(nrf_mesh_keygen.c.obj)
                0x0002ea34                nrf_mesh_keygen_beacon_secmat
 .text.nrf_mesh_keygen_virtual_address
                0x0002ea84       0x50 mesh/core/libmesh_core_nrf52840_xxAA.a(nrf_mesh_keygen.c.obj)
                0x0002ea84                nrf_mesh_keygen_virtual_address
 .text.log_callback_rtt
                0x0002ead4       0x2c mesh/core/libmesh_core_nrf52840_xxAA.a(log.c.obj)
                0x0002ead4                log_callback_rtt
 .text.log_init
                0x0002eb00       0x20 mesh/core/libmesh_core_nrf52840_xxAA.a(log.c.obj)
                0x0002eb00                log_init
 .text.log_printf
                0x0002eb20       0x20 mesh/core/libmesh_core_nrf52840_xxAA.a(log.c.obj)
                0x0002eb20                log_printf
 .text.process_action_queue
                0x0002eb40      0x834 mesh/core/libmesh_core_nrf52840_xxAA.a(flash_manager.c.obj)
 .text.flash_op_ended_callback
                0x0002f374       0x24 mesh/core/libmesh_core_nrf52840_xxAA.a(flash_manager.c.obj)
 .text.flash_manager_init
                0x0002f398       0x68 mesh/core/libmesh_core_nrf52840_xxAA.a(flash_manager.c.obj)
                0x0002f398                flash_manager_init
 .text.flash_manager_entry_next_get
                0x0002f400      0x15c mesh/core/libmesh_core_nrf52840_xxAA.a(flash_manager.c.obj)
                0x0002f400                flash_manager_entry_next_get
 .text.flash_manager_entry_alloc
                0x0002f55c       0x9c mesh/core/libmesh_core_nrf52840_xxAA.a(flash_manager.c.obj)
                0x0002f55c                flash_manager_entry_alloc
 .text.flash_manager_entry_commit
                0x0002f5f8       0x6c mesh/core/libmesh_core_nrf52840_xxAA.a(flash_manager.c.obj)
                0x0002f5f8                flash_manager_entry_commit
 .text.flash_manager_entry_invalidate
                0x0002f664       0xb8 mesh/core/libmesh_core_nrf52840_xxAA.a(flash_manager.c.obj)
                0x0002f664                flash_manager_entry_invalidate
 .text.flash_manager_add
                0x0002f71c      0x474 mesh/core/libmesh_core_nrf52840_xxAA.a(flash_manager.c.obj)
                0x0002f71c                flash_manager_add
 .text.flash_manager_mem_listener_register
                0x0002fb90       0x50 mesh/core/libmesh_core_nrf52840_xxAA.a(flash_manager.c.obj)
                0x0002fb90                flash_manager_mem_listener_register
 .text.flash_manager_is_stable
                0x0002fbe0       0x20 mesh/core/libmesh_core_nrf52840_xxAA.a(flash_manager.c.obj)
                0x0002fbe0                flash_manager_is_stable
 .text.flash_manager_on_defrag_end
                0x0002fc00       0x64 mesh/core/libmesh_core_nrf52840_xxAA.a(flash_manager.c.obj)
                0x0002fc00                flash_manager_on_defrag_end
 .text.flash_manager_recovery_page_get
                0x0002fc64        0x4 mesh/core/libmesh_core_nrf52840_xxAA.a(flash_manager.c.obj)
                0x0002fc64                flash_manager_recovery_page_get
 .text.ccm_soft_crypt.constprop.0
                0x0002fc68      0x298 mesh/core/libmesh_core_nrf52840_xxAA.a(ccm_soft.c.obj)
 .text.ccm_soft_authenticate
                0x0002ff00      0x324 mesh/core/libmesh_core_nrf52840_xxAA.a(ccm_soft.c.obj)
 .text.ccm_soft_encrypt
                0x00030224       0x78 mesh/core/libmesh_core_nrf52840_xxAA.a(ccm_soft.c.obj)
                0x00030224                ccm_soft_encrypt
 .text.ccm_soft_decrypt
                0x0003029c      0x10c mesh/core/libmesh_core_nrf52840_xxAA.a(ccm_soft.c.obj)
                0x0003029c                ccm_soft_decrypt
 .text.beacon_init
                0x000303a8       0x48 mesh/core/libmesh_core_nrf52840_xxAA.a(beacon.c.obj)
                0x000303a8                beacon_init
 .text.beacon_tx
                0x000303f0       0x6c mesh/core/libmesh_core_nrf52840_xxAA.a(beacon.c.obj)
                0x000303f0                beacon_tx
 .text.beacon_create
                0x0003045c       0x50 mesh/core/libmesh_core_nrf52840_xxAA.a(beacon.c.obj)
                0x0003045c                beacon_create
 .text.beacon_packet_in
                0x000304ac      0x180 mesh/core/libmesh_core_nrf52840_xxAA.a(beacon.c.obj)
                0x000304ac                beacon_packet_in
 .text.entry_get
                0x0003062c       0x8c mesh/core/libmesh_core_nrf52840_xxAA.a(flash_manager_internal.c.obj)
                0x0003062c                entry_get
 .text.adv_tx_complete_callback
                0x000306b8       0x58 mesh/core/libmesh_core_nrf52840_xxAA.a(core_tx.c.obj)
 .text.core_tx_init
                0x00030710       0x4c mesh/core/libmesh_core_nrf52840_xxAA.a(core_tx.c.obj)
                0x00030710                core_tx_init
 .text.core_tx_complete_cb_set
                0x0003075c        0xc mesh/core/libmesh_core_nrf52840_xxAA.a(core_tx.c.obj)
                0x0003075c                core_tx_complete_cb_set
 .text.core_tx_packet_alloc
                0x00030768       0xa4 mesh/core/libmesh_core_nrf52840_xxAA.a(core_tx.c.obj)
                0x00030768                core_tx_packet_alloc
 .text.core_tx_packet_send
                0x0003080c       0x74 mesh/core/libmesh_core_nrf52840_xxAA.a(core_tx.c.obj)
                0x0003080c                core_tx_packet_send
 .text.core_tx_packet_discard
                0x00030880       0x74 mesh/core/libmesh_core_nrf52840_xxAA.a(core_tx.c.obj)
                0x00030880                core_tx_packet_discard
 .text.network_beacon_tx_cb
                0x000308f4      0x10c mesh/core/libmesh_core_nrf52840_xxAA.a(net_beacon.c.obj)
 .text.net_beacon_init
                0x00030a00       0x64 mesh/core/libmesh_core_nrf52840_xxAA.a(net_beacon.c.obj)
                0x00030a00                net_beacon_init
 .text.net_beacon_packet_in
                0x00030a64       0xe0 mesh/core/libmesh_core_nrf52840_xxAA.a(net_beacon.c.obj)
                0x00030a64                net_beacon_packet_in
 .text.tx_complete_event_callback
                0x00030b44       0x40 mesh/core/libmesh_core_nrf52840_xxAA.a(advertiser.c.obj)
 .text.broadcast_complete_cb
                0x00030b84       0x70 mesh/core/libmesh_core_nrf52840_xxAA.a(advertiser.c.obj)
 .text.timeout_event
                0x00030bf4      0x13c mesh/core/libmesh_core_nrf52840_xxAA.a(advertiser.c.obj)
 .text.advertiser_init
                0x00030d30        0xc mesh/core/libmesh_core_nrf52840_xxAA.a(advertiser.c.obj)
                0x00030d30                advertiser_init
 .text.advertiser_instance_init
                0x00030d3c      0x11c mesh/core/libmesh_core_nrf52840_xxAA.a(advertiser.c.obj)
                0x00030d3c                advertiser_instance_init
 .text.advertiser_enable
                0x00030e58       0x44 mesh/core/libmesh_core_nrf52840_xxAA.a(advertiser.c.obj)
                0x00030e58                advertiser_enable
 .text.advertiser_packet_alloc
                0x00030e9c       0x9c mesh/core/libmesh_core_nrf52840_xxAA.a(advertiser.c.obj)
                0x00030e9c                advertiser_packet_alloc
 .text.advertiser_packet_send
                0x00030f38       0x98 mesh/core/libmesh_core_nrf52840_xxAA.a(advertiser.c.obj)
                0x00030f38                advertiser_packet_send
 .text.advertiser_packet_discard
                0x00030fd0       0x34 mesh/core/libmesh_core_nrf52840_xxAA.a(advertiser.c.obj)
                0x00030fd0                advertiser_packet_discard
 .text.advertiser_interval_set
                0x00031004       0x80 mesh/core/libmesh_core_nrf52840_xxAA.a(advertiser.c.obj)
                0x00031004                advertiser_interval_set
 .text.advertiser_flush
                0x00031084       0x20 mesh/core/libmesh_core_nrf52840_xxAA.a(advertiser.c.obj)
                0x00031084                advertiser_flush
 .text.action_switch.part.2
                0x000310a4       0xc0 mesh/core/libmesh_core_nrf52840_xxAA.a(bearer_handler.c.obj)
 .text.bearer_handler_init
                0x00031164       0x2c mesh/core/libmesh_core_nrf52840_xxAA.a(bearer_handler.c.obj)
                0x00031164                bearer_handler_init
 .text.bearer_handler_start
                0x00031190       0x1c mesh/core/libmesh_core_nrf52840_xxAA.a(bearer_handler.c.obj)
                0x00031190                bearer_handler_start
 .text.bearer_handler_action_enqueue
                0x000311ac       0xa0 mesh/core/libmesh_core_nrf52840_xxAA.a(bearer_handler.c.obj)
                0x000311ac                bearer_handler_action_enqueue
 .text.bearer_handler_action_end
                0x0003124c       0x84 mesh/core/libmesh_core_nrf52840_xxAA.a(bearer_handler.c.obj)
                0x0003124c                bearer_handler_action_end
 .text.bearer_handler_radio_irq_handler
                0x000312d0       0x70 mesh/core/libmesh_core_nrf52840_xxAA.a(bearer_handler.c.obj)
                0x000312d0                bearer_handler_radio_irq_handler
 .text.bearer_handler_timer_irq_handler
                0x00031340       0x3c mesh/core/libmesh_core_nrf52840_xxAA.a(bearer_handler.c.obj)
                0x00031340                bearer_handler_timer_irq_handler
 .text.bearer_handler_on_ts_begin
                0x0003137c       0x4c mesh/core/libmesh_core_nrf52840_xxAA.a(bearer_handler.c.obj)
                0x0003137c                bearer_handler_on_ts_begin
 .text.bearer_handler_on_ts_end
                0x000313c8       0x48 mesh/core/libmesh_core_nrf52840_xxAA.a(bearer_handler.c.obj)
                0x000313c8                bearer_handler_on_ts_end
 .text.radio_irq_handler
                0x00031410       0xb4 mesh/core/libmesh_core_nrf52840_xxAA.a(broadcast.c.obj)
 .text.broadcast_start
                0x000314c4       0x8c mesh/core/libmesh_core_nrf52840_xxAA.a(broadcast.c.obj)
 .text.broadcast_send
                0x00031550       0x8c mesh/core/libmesh_core_nrf52840_xxAA.a(broadcast.c.obj)
                0x00031550                broadcast_send
 .text.radio_config_reset
                0x000315dc       0x38 mesh/core/libmesh_core_nrf52840_xxAA.a(radio_config.c.obj)
                0x000315dc                radio_config_reset
 .text.radio_config_channel_set
                0x00031614       0x34 mesh/core/libmesh_core_nrf52840_xxAA.a(radio_config.c.obj)
                0x00031614                radio_config_channel_set
 .text.radio_config_config
                0x00031648       0x78 mesh/core/libmesh_core_nrf52840_xxAA.a(radio_config.c.obj)
                0x00031648                radio_config_config
 .text.radio_config_access_addr_set
                0x000316c0       0x68 mesh/core/libmesh_core_nrf52840_xxAA.a(radio_config.c.obj)
                0x000316c0                radio_config_access_addr_set
 .text.scan_window_end
                0x00031728       0x28 mesh/core/libmesh_core_nrf52840_xxAA.a(scanner.c.obj)
 .text.scan_window_start
                0x00031750       0x38 mesh/core/libmesh_core_nrf52840_xxAA.a(scanner.c.obj)
 .text.radio_start
                0x00031788      0x19c mesh/core/libmesh_core_nrf52840_xxAA.a(scanner.c.obj)
 .text.scanner_radio_start
                0x00031924      0x14c mesh/core/libmesh_core_nrf52840_xxAA.a(scanner.c.obj)
                0x00031924                scanner_radio_start
 .text.scanner_radio_stop
                0x00031a70       0x34 mesh/core/libmesh_core_nrf52840_xxAA.a(scanner.c.obj)
                0x00031a70                scanner_radio_stop
 .text.scanner_radio_irq_handler
                0x00031aa4      0x200 mesh/core/libmesh_core_nrf52840_xxAA.a(scanner.c.obj)
                0x00031aa4                scanner_radio_irq_handler
 .text.scanner_enable
                0x00031ca4       0x5c mesh/core/libmesh_core_nrf52840_xxAA.a(scanner.c.obj)
                0x00031ca4                scanner_enable
 .text.scanner_rx
                0x00031d00       0x84 mesh/core/libmesh_core_nrf52840_xxAA.a(scanner.c.obj)
                0x00031d00                scanner_rx
 .text.scanner_packet_release
                0x00031d84       0x4c mesh/core/libmesh_core_nrf52840_xxAA.a(scanner.c.obj)
                0x00031d84                scanner_packet_release
 .text.scanner_config_reset
                0x00031dd0       0xa8 mesh/core/libmesh_core_nrf52840_xxAA.a(scanner.c.obj)
                0x00031dd0                scanner_config_reset
 .text.scanner_init
                0x00031e78       0x48 mesh/core/libmesh_core_nrf52840_xxAA.a(scanner.c.obj)
                0x00031e78                scanner_init
 .text.internal_event_push
                0x00031ec0       0x28 mesh/core/libmesh_core_nrf52840_xxAA.a(internal_event.c.obj)
                0x00031ec0                internal_event_push
 .text.sd_ecb_block_encrypt
                0x00031ee8        0x4 mesh/core/libmesh_core_nrf52840_xxAA.a(aes.c.obj)
 .text.aes_encrypt
                0x00031eec       0x34 mesh/core/libmesh_core_nrf52840_xxAA.a(aes.c.obj)
                0x00031eec                aes_encrypt
 .text.msg_cache_init
                0x00031f20       0x24 mesh/core/libmesh_core_nrf52840_xxAA.a(msg_cache.c.obj)
                0x00031f20                msg_cache_init
 .text.msg_cache_entry_exists
                0x00031f44       0x40 mesh/core/libmesh_core_nrf52840_xxAA.a(msg_cache.c.obj)
                0x00031f44                msg_cache_entry_exists
 .text.msg_cache_entry_add
                0x00031f84       0x30 mesh/core/libmesh_core_nrf52840_xxAA.a(msg_cache.c.obj)
                0x00031f84                msg_cache_entry_add
 .text.tx_complete
                0x00031fb4       0x34 mesh/core/libmesh_core_nrf52840_xxAA.a(transport.c.obj)
 .text.upper_trs_packet_encrypt
                0x00031fe8       0xe0 mesh/core/libmesh_core_nrf52840_xxAA.a(transport.c.obj)
 .text.sar_ctx_alloc
                0x000320c8       0xd0 mesh/core/libmesh_core_nrf52840_xxAA.a(transport.c.obj)
 .text.trs_packet_header_build
                0x00032198       0xac mesh/core/libmesh_core_nrf52840_xxAA.a(transport.c.obj)
 .text.sar_ack_send
                0x00032244      0x144 mesh/core/libmesh_core_nrf52840_xxAA.a(transport.c.obj)
 .text.test_transport_decrypt
                0x00032388       0x98 mesh/core/libmesh_core_nrf52840_xxAA.a(transport.c.obj)
 .text.upper_transport_access_packet_in
                0x00032420      0x34c mesh/core/libmesh_core_nrf52840_xxAA.a(transport.c.obj)
 .text.trs_sar_packet_out
                0x0003276c      0x19c mesh/core/libmesh_core_nrf52840_xxAA.a(transport.c.obj)
 .text.sar_ctx_cancel
                0x00032908      0x1d0 mesh/core/libmesh_core_nrf52840_xxAA.a(transport.c.obj)
 .text.abort_timeout
                0x00032ad8        0x8 mesh/core/libmesh_core_nrf52840_xxAA.a(transport.c.obj)
 .text.retry_timeout
                0x00032ae0       0xb0 mesh/core/libmesh_core_nrf52840_xxAA.a(transport.c.obj)
 .text.transport_sar_process
                0x00032b90      0x2a8 mesh/core/libmesh_core_nrf52840_xxAA.a(transport.c.obj)
 .text.upper_transport_packet_in
                0x00032e38      0x2e0 mesh/core/libmesh_core_nrf52840_xxAA.a(transport.c.obj)
 .text.ack_timeout
                0x00033118      0x15c mesh/core/libmesh_core_nrf52840_xxAA.a(transport.c.obj)
 .text.transport_init
                0x00033274       0x98 mesh/core/libmesh_core_nrf52840_xxAA.a(transport.c.obj)
                0x00033274                transport_init
 .text.transport_packet_in
                0x0003330c      0x824 mesh/core/libmesh_core_nrf52840_xxAA.a(transport.c.obj)
                0x0003330c                transport_packet_in
 .text.transport_tx
                0x00033b30      0x32c mesh/core/libmesh_core_nrf52840_xxAA.a(transport.c.obj)
                0x00033b30                transport_tx
 .text.packet_buffer_init
                0x00033e5c       0xec mesh/core/libmesh_core_nrf52840_xxAA.a(packet_buffer.c.obj)
                0x00033e5c                packet_buffer_init
 .text.packet_buffer_flush
                0x00033f48       0xd4 mesh/core/libmesh_core_nrf52840_xxAA.a(packet_buffer.c.obj)
                0x00033f48                packet_buffer_flush
 .text.packet_buffer_reserve
                0x0003401c      0x150 mesh/core/libmesh_core_nrf52840_xxAA.a(packet_buffer.c.obj)
                0x0003401c                packet_buffer_reserve
 .text.packet_buffer_commit
                0x0003416c      0x144 mesh/core/libmesh_core_nrf52840_xxAA.a(packet_buffer.c.obj)
                0x0003416c                packet_buffer_commit
 .text.packet_buffer_pop
                0x000342b0       0xc8 mesh/core/libmesh_core_nrf52840_xxAA.a(packet_buffer.c.obj)
                0x000342b0                packet_buffer_pop
 .text.packet_buffer_can_pop
                0x00034378       0x84 mesh/core/libmesh_core_nrf52840_xxAA.a(packet_buffer.c.obj)
                0x00034378                packet_buffer_can_pop
 .text.packet_buffer_packets_ready_to_pop
                0x000343fc       0xb4 mesh/core/libmesh_core_nrf52840_xxAA.a(packet_buffer.c.obj)
                0x000343fc                packet_buffer_packets_ready_to_pop
 .text.packet_buffer_free
                0x000344b0       0xf0 mesh/core/libmesh_core_nrf52840_xxAA.a(packet_buffer.c.obj)
                0x000344b0                packet_buffer_free
 .text.erase_source
                0x000345a0       0x34 mesh/core/libmesh_core_nrf52840_xxAA.a(flash_manager_defrag.c.obj)
 .text.erase_recovery_area
                0x000345d4       0x34 mesh/core/libmesh_core_nrf52840_xxAA.a(flash_manager_defrag.c.obj)
 .text.write_back
                0x00034608       0x44 mesh/core/libmesh_core_nrf52840_xxAA.a(flash_manager_defrag.c.obj)
 .text.write_defrag_start_pointer
                0x0003464c       0x38 mesh/core/libmesh_core_nrf52840_xxAA.a(flash_manager_defrag.c.obj)
 .text.copy_metadata
                0x00034684       0x58 mesh/core/libmesh_core_nrf52840_xxAA.a(flash_manager_defrag.c.obj)
 .text.seal_storage_page
                0x000346dc       0x70 mesh/core/libmesh_core_nrf52840_xxAA.a(flash_manager_defrag.c.obj)
 .text.post_process
                0x0003474c       0x64 mesh/core/libmesh_core_nrf52840_xxAA.a(flash_manager_defrag.c.obj)
 .text.check_for_invalid_entries
                0x000347b0       0x40 mesh/core/libmesh_core_nrf52840_xxAA.a(flash_manager_defrag.c.obj)
 .text.execute_procedure_step
                0x000347f0       0xc0 mesh/core/libmesh_core_nrf52840_xxAA.a(flash_manager_defrag.c.obj)
 .text.on_flash_op_end
                0x000348b0       0x4c mesh/core/libmesh_core_nrf52840_xxAA.a(flash_manager_defrag.c.obj)
 .text.invalidate_duplicate_entries
                0x000348fc      0x148 mesh/core/libmesh_core_nrf52840_xxAA.a(flash_manager_defrag.c.obj)
 .text.backup_entries
                0x00034a44      0x1fc mesh/core/libmesh_core_nrf52840_xxAA.a(flash_manager_defrag.c.obj)
 .text.flash_manager_defrag_init
                0x00034c40       0x68 mesh/core/libmesh_core_nrf52840_xxAA.a(flash_manager_defrag.c.obj)
                0x00034c40                flash_manager_defrag_init
 .text.flash_manager_defrag_is_running
                0x00034ca8       0x10 mesh/core/libmesh_core_nrf52840_xxAA.a(flash_manager_defrag.c.obj)
                0x00034ca8                flash_manager_defrag_is_running
 .text.flash_manager_defrag
                0x00034cb8       0xe4 mesh/core/libmesh_core_nrf52840_xxAA.a(flash_manager_defrag.c.obj)
                0x00034cb8                flash_manager_defrag
 .text.flash_manager_defrag_recovery_page_get
                0x00034d9c        0xc mesh/core/libmesh_core_nrf52840_xxAA.a(flash_manager_defrag.c.obj)
                0x00034d9c                flash_manager_defrag_recovery_page_get
 .text.packet_mgr_init
                0x00034da8       0x4c mesh/core/libmesh_core_nrf52840_xxAA.a(packet_mgr.c.obj)
                0x00034da8                packet_mgr_init
 .text.send_end_events
                0x00034df4       0x8c mesh/core/libmesh_core_nrf52840_xxAA.a(mesh_flash.c.obj)
 .text.flash_op_schedule
                0x00034e80       0xac mesh/core/libmesh_core_nrf52840_xxAA.a(mesh_flash.c.obj)
 .text.flash_op_start
                0x00034f2c      0x1c4 mesh/core/libmesh_core_nrf52840_xxAA.a(mesh_flash.c.obj)
 .text.mesh_flash_init
                0x000350f0       0x88 mesh/core/libmesh_core_nrf52840_xxAA.a(mesh_flash.c.obj)
                0x000350f0                mesh_flash_init
 .text.mesh_flash_user_callback_set
                0x00035178       0x2c mesh/core/libmesh_core_nrf52840_xxAA.a(mesh_flash.c.obj)
                0x00035178                mesh_flash_user_callback_set
 .text.mesh_flash_op_push
                0x000351a4      0x140 mesh/core/libmesh_core_nrf52840_xxAA.a(mesh_flash.c.obj)
                0x000351a4                mesh_flash_op_push
 .text.queue_init
                0x000352e4       0x28 mesh/core/libmesh_core_nrf52840_xxAA.a(queue.c.obj)
                0x000352e4                queue_init
 .text.queue_push
                0x0003530c       0x50 mesh/core/libmesh_core_nrf52840_xxAA.a(queue.c.obj)
                0x0003530c                queue_push
 .text.queue_pop
                0x0003535c       0x40 mesh/core/libmesh_core_nrf52840_xxAA.a(queue.c.obj)
                0x0003535c                queue_pop
 .text.queue_peek
                0x0003539c       0x20 mesh/core/libmesh_core_nrf52840_xxAA.a(queue.c.obj)
                0x0003539c                queue_peek
 .text.aes_cmac_subkey_generate
                0x000353bc      0x2b0 mesh/core/libmesh_core_nrf52840_xxAA.a(aes_cmac.c.obj)
                0x000353bc                aes_cmac_subkey_generate
 .text.aes_cmac
                0x0003566c      0x49c mesh/core/libmesh_core_nrf52840_xxAA.a(aes_cmac.c.obj)
                0x0003566c                aes_cmac
 .text.msq_init
                0x00035b08       0x98 mesh/core/libmesh_core_nrf52840_xxAA.a(msqueue.c.obj)
                0x00035b08                msq_init
 .text.msq_get  0x00035ba0       0x68 mesh/core/libmesh_core_nrf52840_xxAA.a(msqueue.c.obj)
                0x00035ba0                msq_get
 .text.msq_move
                0x00035c08       0x60 mesh/core/libmesh_core_nrf52840_xxAA.a(msqueue.c.obj)
                0x00035c08                msq_move
 .text.msq_available
                0x00035c68       0x58 mesh/core/libmesh_core_nrf52840_xxAA.a(msqueue.c.obj)
                0x00035c68                msq_available
 .text.replay_cache_init
                0x00035cc0       0x28 mesh/core/libmesh_core_nrf52840_xxAA.a(replay_cache.c.obj)
                0x00035cc0                replay_cache_init
 .text.replay_cache_add
                0x00035ce8       0x68 mesh/core/libmesh_core_nrf52840_xxAA.a(replay_cache.c.obj)
                0x00035ce8                replay_cache_add
 .text.replay_cache_has_room
                0x00035d50       0x48 mesh/core/libmesh_core_nrf52840_xxAA.a(replay_cache.c.obj)
                0x00035d50                replay_cache_has_room
 .text.replay_cache_has_elem
                0x00035d98       0x40 mesh/core/libmesh_core_nrf52840_xxAA.a(replay_cache.c.obj)
                0x00035d98                replay_cache_has_elem
 .text.fen_filters_apply
                0x00035dd8       0x38 mesh/core/libmesh_core_nrf52840_xxAA.a(filter_engine.c.obj)
                0x00035dd8                fen_filters_apply
 .text.nrf_flash_erase
                0x00035e10       0x5c mesh/core/libmesh_core_nrf52840_xxAA.a(nrf_flash.c.obj)
                0x00035e10                nrf_flash_erase
 .text.nrf_flash_write
                0x00035e6c       0x6c mesh/core/libmesh_core_nrf52840_xxAA.a(nrf_flash.c.obj)
                0x00035e6c                nrf_flash_write
 .text.SEGGER_RTT_Write
                0x00035ed8      0x1e4 external/rtt/librtt_nrf52840_xxAA.a(SEGGER_RTT.c.obj)
                0x00035ed8                SEGGER_RTT_Write
 .text.SEGGER_RTT_GetKey
                0x000360bc       0xec external/rtt/librtt_nrf52840_xxAA.a(SEGGER_RTT.c.obj)
                0x000360bc                SEGGER_RTT_GetKey
 .text._PrintUnsigned
                0x000361a8      0x194 external/rtt/librtt_nrf52840_xxAA.a(SEGGER_RTT_printf.c.obj)
 .text.SEGGER_RTT_vprintf
                0x0003633c      0x464 external/rtt/librtt_nrf52840_xxAA.a(SEGGER_RTT_printf.c.obj)
                0x0003633c                SEGGER_RTT_vprintf
 .text.SEGGER_RTT_printf
                0x000367a0       0x20 external/rtt/librtt_nrf52840_xxAA.a(SEGGER_RTT_printf.c.obj)
                0x000367a0                SEGGER_RTT_printf
 .text.default_RNG
                0x000367c0        0xc external/micro-ecc/libuECC_nrf52840_xxAA.a(uECC.c.obj)
 .text.uECC_generate_random_int
                0x000367cc      0x170 external/micro-ecc/libuECC_nrf52840_xxAA.a(uECC.c.obj)
 .text.apply_z  0x0003693c      0x1a8 external/micro-ecc/libuECC_nrf52840_xxAA.a(uECC.c.obj)
 .text.uECC_vli_modAdd
                0x00036ae4       0xc8 external/micro-ecc/libuECC_nrf52840_xxAA.a(uECC.c.obj)
 .text.x_side_default
                0x00036bac      0x254 external/micro-ecc/libuECC_nrf52840_xxAA.a(uECC.c.obj)
 .text.vli_mmod_fast_secp256r1
                0x00036e00      0x520 external/micro-ecc/libuECC_nrf52840_xxAA.a(uECC.c.obj)
 .text.XYcZ_add
                0x00037320      0x6dc external/micro-ecc/libuECC_nrf52840_xxAA.a(uECC.c.obj)
 .text.XYcZ_addC
                0x000379fc      0xa94 external/micro-ecc/libuECC_nrf52840_xxAA.a(uECC.c.obj)
 .text.uECC_vli_modInv.part.4
                0x00038490      0x6e8 external/micro-ecc/libuECC_nrf52840_xxAA.a(uECC.c.obj)
 .text.EccPoint_mult.constprop.5
                0x00038b78      0x470 external/micro-ecc/libuECC_nrf52840_xxAA.a(uECC.c.obj)
 .text.double_jacobian_default
                0x00038fe8      0x7ec external/micro-ecc/libuECC_nrf52840_xxAA.a(uECC.c.obj)
 .text.uECC_secp256r1
                0x000397d4        0x8 external/micro-ecc/libuECC_nrf52840_xxAA.a(uECC.c.obj)
                0x000397d4                uECC_secp256r1
 .text.uECC_make_key
                0x000397dc      0x23c external/micro-ecc/libuECC_nrf52840_xxAA.a(uECC.c.obj)
                0x000397dc                uECC_make_key
 .text.uECC_shared_secret
                0x00039a18      0x788 external/micro-ecc/libuECC_nrf52840_xxAA.a(uECC.c.obj)
                0x00039a18                uECC_shared_secret
 .text.uECC_valid_point
                0x0003a1a0      0x134 external/micro-ecc/libuECC_nrf52840_xxAA.a(uECC.c.obj)
                0x0003a1a0                uECC_valid_point
 .text.uECC_valid_public_key
                0x0003a2d4       0xe8 external/micro-ecc/libuECC_nrf52840_xxAA.a(uECC.c.obj)
                0x0003a2d4                uECC_valid_public_key
 .text.exit     0x0003a3bc       0x28 c:/a/gcc_arm/6/bin/../lib/gcc/arm-none-eabi/6.3.1/../../../../arm-none-eabi/lib/thumb/v7e-m/fpv4-sp/hard\libc_nano.a(lib_a-exit.o)
                0x0003a3bc                exit
 .text.__libc_init_array
                0x0003a3e4       0x48 c:/a/gcc_arm/6/bin/../lib/gcc/arm-none-eabi/6.3.1/../../../../arm-none-eabi/lib/thumb/v7e-m/fpv4-sp/hard\libc_nano.a(lib_a-init.o)
                0x0003a3e4                __libc_init_array
 .text.malloc   0x0003a42c       0x10 c:/a/gcc_arm/6/bin/../lib/gcc/arm-none-eabi/6.3.1/../../../../arm-none-eabi/lib/thumb/v7e-m/fpv4-sp/hard\libc_nano.a(lib_a-malloc.o)
                0x0003a42c                malloc
 .text.free     0x0003a43c       0x10 c:/a/gcc_arm/6/bin/../lib/gcc/arm-none-eabi/6.3.1/../../../../arm-none-eabi/lib/thumb/v7e-m/fpv4-sp/hard\libc_nano.a(lib_a-malloc.o)
                0x0003a43c                free
 .text.memcmp   0x0003a44c       0x1e c:/a/gcc_arm/6/bin/../lib/gcc/arm-none-eabi/6.3.1/../../../../arm-none-eabi/lib/thumb/v7e-m/fpv4-sp/hard\libc_nano.a(lib_a-memcmp.o)
                0x0003a44c                memcmp
 .text.memcpy   0x0003a46a       0x16 c:/a/gcc_arm/6/bin/../lib/gcc/arm-none-eabi/6.3.1/../../../../arm-none-eabi/lib/thumb/v7e-m/fpv4-sp/hard\libc_nano.a(lib_a-memcpy-stub.o)
                0x0003a46a                memcpy
 .text.memset   0x0003a480       0x10 c:/a/gcc_arm/6/bin/../lib/gcc/arm-none-eabi/6.3.1/../../../../arm-none-eabi/lib/thumb/v7e-m/fpv4-sp/hard\libc_nano.a(lib_a-memset.o)
                0x0003a480                memset
 .text._free_r  0x0003a490       0x9c c:/a/gcc_arm/6/bin/../lib/gcc/arm-none-eabi/6.3.1/../../../../arm-none-eabi/lib/thumb/v7e-m/fpv4-sp/hard\libc_nano.a(lib_a-nano-freer.o)
                0x0003a490                _free_r
 .text._malloc_r
                0x0003a52c       0xbc c:/a/gcc_arm/6/bin/../lib/gcc/arm-none-eabi/6.3.1/../../../../arm-none-eabi/lib/thumb/v7e-m/fpv4-sp/hard\libc_nano.a(lib_a-nano-mallocr.o)
                0x0003a52c                _malloc_r
 .text._sbrk_r  0x0003a5e8       0x20 c:/a/gcc_arm/6/bin/../lib/gcc/arm-none-eabi/6.3.1/../../../../arm-none-eabi/lib/thumb/v7e-m/fpv4-sp/hard\libc_nano.a(lib_a-sbrkr.o)
                0x0003a5e8                _sbrk_r
 .text.strcpy   0x0003a608       0x10 c:/a/gcc_arm/6/bin/../lib/gcc/arm-none-eabi/6.3.1/../../../../arm-none-eabi/lib/thumb/v7e-m/fpv4-sp/hard\libc_nano.a(lib_a-strcpy.o)
                0x0003a608                strcpy
 .text          0x0003a618       0x10 c:/a/gcc_arm/6/bin/../lib/gcc/arm-none-eabi/6.3.1/../../../../arm-none-eabi/lib/thumb/v7e-m/fpv4-sp/hard\libc_nano.a(lib_a-strlen.o)
                0x0003a618                strlen
 .text.strrchr  0x0003a628       0x26 c:/a/gcc_arm/6/bin/../lib/gcc/arm-none-eabi/6.3.1/../../../../arm-none-eabi/lib/thumb/v7e-m/fpv4-sp/hard\libc_nano.a(lib_a-strrchr.o)
                0x0003a628                strrchr
 .text.__malloc_lock
                0x0003a64e        0x2 c:/a/gcc_arm/6/bin/../lib/gcc/arm-none-eabi/6.3.1/../../../../arm-none-eabi/lib/thumb/v7e-m/fpv4-sp/hard\libc_nano.a(lib_a-mlock.o)
                0x0003a64e                __malloc_lock
 .text.__malloc_unlock
                0x0003a650        0x2 c:/a/gcc_arm/6/bin/../lib/gcc/arm-none-eabi/6.3.1/../../../../arm-none-eabi/lib/thumb/v7e-m/fpv4-sp/hard\libc_nano.a(lib_a-mlock.o)
                0x0003a650                __malloc_unlock
 .text.strchr   0x0003a652       0x1c c:/a/gcc_arm/6/bin/../lib/gcc/arm-none-eabi/6.3.1/../../../../arm-none-eabi/lib/thumb/v7e-m/fpv4-sp/hard\libc_nano.a(lib_a-strchr.o)
                0x0003a652                strchr
 *fill*         0x0003a66e        0x2 
 .text._sbrk    0x0003a670       0x1c c:/a/gcc_arm/6/bin/../lib/gcc/arm-none-eabi/6.3.1/../../../../arm-none-eabi/lib/thumb/v7e-m/fpv4-sp/hard\libnosys.a(sbrk.o)
                0x0003a670                _sbrk
 .text._exit    0x0003a68c        0x4 c:/a/gcc_arm/6/bin/../lib/gcc/arm-none-eabi/6.3.1/../../../../arm-none-eabi/lib/thumb/v7e-m/fpv4-sp/hard\libnosys.a(_exit.o)
                0x0003a68c                _exit
 *(.init)
 .init          0x0003a690        0x4 c:/a/gcc_arm/6/bin/../lib/gcc/arm-none-eabi/6.3.1/thumb/v7e-m/fpv4-sp/hard/crti.o
                0x0003a690                _init
 .init          0x0003a694        0x8 c:/a/gcc_arm/6/bin/../lib/gcc/arm-none-eabi/6.3.1/thumb/v7e-m/fpv4-sp/hard/crtn.o
 *(.fini)
 .fini          0x0003a69c        0x4 c:/a/gcc_arm/6/bin/../lib/gcc/arm-none-eabi/6.3.1/thumb/v7e-m/fpv4-sp/hard/crti.o
                0x0003a69c                _fini
 .fini          0x0003a6a0        0x8 c:/a/gcc_arm/6/bin/../lib/gcc/arm-none-eabi/6.3.1/thumb/v7e-m/fpv4-sp/hard/crtn.o
 *crtbegin.o(.ctors)
 *crtbegin?.o(.ctors)
 *(EXCLUDE_FILE(*crtend.o *crtend?.o) .ctors)
 *(SORT(.ctors.*))
 *(.ctors)
 *crtbegin.o(.dtors)
 *crtbegin?.o(.dtors)
 *(EXCLUDE_FILE(*crtend.o *crtend?.o) .dtors)
 *(SORT(.dtors.*))
 *(.dtors)
 *(.rodata*)
 .rodata        0x0003a6a8       0x14 examples/pb_remote/client/CMakeFiles/pb_remote_client_nrf52840_xxAA_s140_5.0.0-3.alpha.dir/src/main.c.obj
 .rodata.USAGE_STRING
                0x0003a6bc      0x11b examples/pb_remote/client/CMakeFiles/pb_remote_client_nrf52840_xxAA_s140_5.0.0-3.alpha.dir/src/main.c.obj
                0x0003a6bc                USAGE_STRING
 *fill*         0x0003a7d7        0x1 
 .rodata.m_netkey
                0x0003a7d8       0x10 examples/pb_remote/client/CMakeFiles/pb_remote_client_nrf52840_xxAA_s140_5.0.0-3.alpha.dir/src/main.c.obj
 .rodata.main.str1.4
                0x0003a7e8      0x157 examples/pb_remote/client/CMakeFiles/pb_remote_client_nrf52840_xxAA_s140_5.0.0-3.alpha.dir/src/main.c.obj
 *fill*         0x0003a93f        0x1 
 .rodata.mesh_evt_handler.str1.4
                0x0003a940      0x133 examples/pb_remote/client/CMakeFiles/pb_remote_client_nrf52840_xxAA_s140_5.0.0-3.alpha.dir/src/main.c.obj
 *fill*         0x0003aa73        0x1 
 .rodata.remote_client_event_cb.str1.4
                0x0003aa74       0x76 examples/pb_remote/client/CMakeFiles/pb_remote_client_nrf52840_xxAA_s140_5.0.0-3.alpha.dir/src/main.c.obj
 *fill*         0x0003aaea        0x2 
 .rodata.HardFault_Handler.str1.4
                0x0003aaec        0xe examples/pb_remote/client/CMakeFiles/pb_remote_client_nrf52840_xxAA_s140_5.0.0-3.alpha.dir/__/__/nrf_mesh_sdk.c.obj
 *fill*         0x0003aafa        0x2 
 .rodata.app_error_handler.str1.4
                0x0003aafc       0x1d examples/pb_remote/client/CMakeFiles/pb_remote_client_nrf52840_xxAA_s140_5.0.0-3.alpha.dir/__/__/nrf_mesh_sdk.c.obj
 *fill*         0x0003ab19        0x3 
 .rodata.mesh_assert_handler.str1.4
                0x0003ab1c       0x35 examples/pb_remote/client/CMakeFiles/pb_remote_client_nrf52840_xxAA_s140_5.0.0-3.alpha.dir/__/__/nrf_mesh_sdk.c.obj
 *fill*         0x0003ab51        0x3 
 .rodata.mesh_core_setup.str1.4
                0x0003ab54       0x4d examples/pb_remote/client/CMakeFiles/pb_remote_client_nrf52840_xxAA_s140_5.0.0-3.alpha.dir/__/__/nrf_mesh_sdk.c.obj
 *fill*         0x0003aba1        0x3 
 .rodata.mesh_softdevice_enable.str1.4
                0x0003aba4       0x65 examples/pb_remote/client/CMakeFiles/pb_remote_client_nrf52840_xxAA_s140_5.0.0-3.alpha.dir/__/__/nrf_mesh_sdk.c.obj
 *fill*         0x0003ac09        0x3 
 .rodata.softdevice_assert_handler.str1.4
                0x0003ac0c       0x1d examples/pb_remote/client/CMakeFiles/pb_remote_client_nrf52840_xxAA_s140_5.0.0-3.alpha.dir/__/__/nrf_mesh_sdk.c.obj
 *fill*         0x0003ac29        0x3 
 .rodata        0x0003ac2c       0x2a examples/pb_remote/client/CMakeFiles/pb_remote_client_nrf52840_xxAA_s140_5.0.0-3.alpha.dir/__/__/__/models/pb_remote/src/pb_remote_client.c.obj
 *fill*         0x0003ac56        0x2 
 .rodata.client_reliable_status_cb.str1.4
                0x0003ac58       0x41 examples/pb_remote/client/CMakeFiles/pb_remote_client_nrf52840_xxAA_s140_5.0.0-3.alpha.dir/__/__/__/models/pb_remote/src/pb_remote_client.c.obj
 *fill*         0x0003ac99        0x3 
 .rodata.m_opcode_handlers
                0x0003ac9c       0x38 examples/pb_remote/client/CMakeFiles/pb_remote_client_nrf52840_xxAA_s140_5.0.0-3.alpha.dir/__/__/__/models/pb_remote/src/pb_remote_client.c.obj
 .rodata.m_pb_remote_client_event_handler_callbacks
                0x0003acd4       0x38 examples/pb_remote/client/CMakeFiles/pb_remote_client_nrf52840_xxAA_s140_5.0.0-3.alpha.dir/__/__/__/models/pb_remote/src/pb_remote_client.c.obj
                0x0003acd4                m_pb_remote_client_event_handler_callbacks
 .rodata.m_prov_interface
                0x0003ad0c       0x14 examples/pb_remote/client/CMakeFiles/pb_remote_client_nrf52840_xxAA_s140_5.0.0-3.alpha.dir/__/__/__/models/pb_remote/src/pb_remote_client.c.obj
                0x0003ad0c                m_prov_interface
 .rodata.pb_remote_client_event_link_close_cb.str1.4
                0x0003ad20       0x2a examples/pb_remote/client/CMakeFiles/pb_remote_client_nrf52840_xxAA_s140_5.0.0-3.alpha.dir/__/__/__/models/pb_remote/src/pb_remote_client.c.obj
 *fill*         0x0003ad4a        0x2 
 .rodata.pb_remote_client_event_link_status_cb.str1.4
                0x0003ad4c       0x68 examples/pb_remote/client/CMakeFiles/pb_remote_client_nrf52840_xxAA_s140_5.0.0-3.alpha.dir/__/__/__/models/pb_remote/src/pb_remote_client.c.obj
 .rodata.pb_remote_client_event_link_status_report_cb.str1.4
                0x0003adb4       0x50 examples/pb_remote/client/CMakeFiles/pb_remote_client_nrf52840_xxAA_s140_5.0.0-3.alpha.dir/__/__/__/models/pb_remote/src/pb_remote_client.c.obj
 .rodata.pb_remote_client_event_local_packet_cb.str1.4
                0x0003ae04       0x1c examples/pb_remote/client/CMakeFiles/pb_remote_client_nrf52840_xxAA_s140_5.0.0-3.alpha.dir/__/__/__/models/pb_remote/src/pb_remote_client.c.obj
 .rodata.pb_remote_client_event_packet_transfer_cb.str1.4
                0x0003ae20       0x2d examples/pb_remote/client/CMakeFiles/pb_remote_client_nrf52840_xxAA_s140_5.0.0-3.alpha.dir/__/__/__/models/pb_remote/src/pb_remote_client.c.obj
 *fill*         0x0003ae4d        0x3 
 .rodata.pb_remote_client_event_scan_cancel_cb.str1.4
                0x0003ae50       0x1e examples/pb_remote/client/CMakeFiles/pb_remote_client_nrf52840_xxAA_s140_5.0.0-3.alpha.dir/__/__/__/models/pb_remote/src/pb_remote_client.c.obj
 *fill*         0x0003ae6e        0x2 
 .rodata.pb_remote_client_event_scan_start_cb.str1.4
                0x0003ae70       0x1d examples/pb_remote/client/CMakeFiles/pb_remote_client_nrf52840_xxAA_s140_5.0.0-3.alpha.dir/__/__/__/models/pb_remote/src/pb_remote_client.c.obj
 *fill*         0x0003ae8d        0x3 
 .rodata.pb_remote_client_event_scan_status_cb.str1.4
                0x0003ae90       0x64 examples/pb_remote/client/CMakeFiles/pb_remote_client_nrf52840_xxAA_s140_5.0.0-3.alpha.dir/__/__/__/models/pb_remote/src/pb_remote_client.c.obj
 .rodata.pb_remote_client_event_transfer_status_cb.str1.4
                0x0003aef4       0x51 examples/pb_remote/client/CMakeFiles/pb_remote_client_nrf52840_xxAA_s140_5.0.0-3.alpha.dir/__/__/__/models/pb_remote/src/pb_remote_client.c.obj
 *fill*         0x0003af45        0x3 
 .rodata.pb_remote_client_event_transfer_status_report_cb.str1.4
                0x0003af48       0x43 examples/pb_remote/client/CMakeFiles/pb_remote_client_nrf52840_xxAA_s140_5.0.0-3.alpha.dir/__/__/__/models/pb_remote/src/pb_remote_client.c.obj
 *fill*         0x0003af8b        0x1 
 .rodata.pb_remote_client_event_unprov_number_cb.str1.4
                0x0003af8c       0x2b examples/pb_remote/client/CMakeFiles/pb_remote_client_nrf52840_xxAA_s140_5.0.0-3.alpha.dir/__/__/__/models/pb_remote/src/pb_remote_client.c.obj
 *fill*         0x0003afb7        0x1 
 .rodata.pb_remote_client_event_unprov_uuid_cb.str1.4
                0x0003afb8       0x24 examples/pb_remote/client/CMakeFiles/pb_remote_client_nrf52840_xxAA_s140_5.0.0-3.alpha.dir/__/__/__/models/pb_remote/src/pb_remote_client.c.obj
 .rodata.pb_remote_client_process.part.8.str1.4
                0x0003afdc       0x23 examples/pb_remote/client/CMakeFiles/pb_remote_client_nrf52840_xxAA_s140_5.0.0-3.alpha.dir/__/__/__/models/pb_remote/src/pb_remote_client.c.obj
 *fill*         0x0003afff        0x1 
 .rodata.m_prov_callbacks
                0x0003b000       0x10 examples/pb_remote/client/CMakeFiles/pb_remote_client_nrf52840_xxAA_s140_5.0.0-3.alpha.dir/__/__/__/mesh/prov/src/prov_provisioner.c.obj
 .rodata.pdu_sizes.10990
                0x0003b010        0xa examples/pb_remote/client/CMakeFiles/pb_remote_client_nrf52840_xxAA_s140_5.0.0-3.alpha.dir/__/__/__/mesh/prov/src/provisioning.c.obj
 *fill*         0x0003b01a        0x2 
 .rodata.prov_cb_pkt_in.str1.4
                0x0003b01c       0x34 examples/pb_remote/client/CMakeFiles/pb_remote_client_nrf52840_xxAA_s140_5.0.0-3.alpha.dir/__/__/__/mesh/prov/src/provisioning.c.obj
 .rodata.alphanumeric.11094
                0x0003b050       0x25 examples/pb_remote/client/CMakeFiles/pb_remote_client_nrf52840_xxAA_s140_5.0.0-3.alpha.dir/__/__/__/mesh/prov/src/prov_utils.c.obj
 *fill*         0x0003b075        0x3 
 .rodata.numeric_max.11088
                0x0003b078       0x24 examples/pb_remote/client/CMakeFiles/pb_remote_client_nrf52840_xxAA_s140_5.0.0-3.alpha.dir/__/__/__/mesh/prov/src/prov_utils.c.obj
 .rodata.prov_utils_authentication_values_derive.str1.4
                0x0003b09c        0x5 examples/pb_remote/client/CMakeFiles/pb_remote_client_nrf52840_xxAA_s140_5.0.0-3.alpha.dir/__/__/__/mesh/prov/src/prov_utils.c.obj
 *fill*         0x0003b0a1        0x3 
 .rodata.prov_utils_derive_keys.str1.4
                0x0003b0a4       0x15 examples/pb_remote/client/CMakeFiles/pb_remote_client_nrf52840_xxAA_s140_5.0.0-3.alpha.dir/__/__/__/mesh/prov/src/prov_utils.c.obj
 *fill*         0x0003b0b9        0x3 
 .rodata.crctable.10852
                0x0003b0bc      0x100 examples/pb_remote/client/CMakeFiles/pb_remote_client_nrf52840_xxAA_s140_5.0.0-3.alpha.dir/__/__/__/mesh/prov/src/prov_bearer_adv.c.obj
 .rodata.interface.11081
                0x0003b1bc       0x14 examples/pb_remote/client/CMakeFiles/pb_remote_client_nrf52840_xxAA_s140_5.0.0-3.alpha.dir/__/__/__/mesh/prov/src/prov_bearer_adv.c.obj
 .rodata.prov_bearer_adv_listen.str1.4
                0x0003b1d0       0x50 examples/pb_remote/client/CMakeFiles/pb_remote_client_nrf52840_xxAA_s140_5.0.0-3.alpha.dir/__/__/__/mesh/prov/src/prov_bearer_adv.c.obj
 .rodata.prov_bearer_adv_packet_in.str1.4
                0x0003b220      0x283 examples/pb_remote/client/CMakeFiles/pb_remote_client_nrf52840_xxAA_s140_5.0.0-3.alpha.dir/__/__/__/mesh/prov/src/prov_bearer_adv.c.obj
 *fill*         0x0003b4a3        0x1 
 .rodata.tx_retry_cb.str1.4
                0x0003b4a4       0x14 examples/pb_remote/client/CMakeFiles/pb_remote_client_nrf52840_xxAA_s140_5.0.0-3.alpha.dir/__/__/__/mesh/prov/src/prov_bearer_adv.c.obj
 .rodata.access_model_publish.str1.4
                0x0003b4b8       0x13 examples/pb_remote/client/CMakeFiles/pb_remote_client_nrf52840_xxAA_s140_5.0.0-3.alpha.dir/__/__/__/mesh/access/src/access.c.obj
 *fill*         0x0003b4cb        0x1 
 .rodata.mesh_evt_cb.str1.4
                0x0003b4cc       0x2f examples/pb_remote/client/CMakeFiles/pb_remote_client_nrf52840_xxAA_s140_5.0.0-3.alpha.dir/__/__/__/mesh/access/src/access.c.obj
 *fill*         0x0003b4fb        0x1 
 .rodata.m_flash_groups
                0x0003b4fc       0xc0 examples/pb_remote/client/CMakeFiles/pb_remote_client_nrf52840_xxAA_s140_5.0.0-3.alpha.dir/__/__/__/mesh/access/src/device_state_manager.c.obj
 .rodata.types_lookup.9118
                0x0003b5bc        0x4 mesh/core/libmesh_core_nrf52840_xxAA.a(nrf_mesh_utils.c.obj)
 .rodata.nrf_mesh_process.str1.4
                0x0003b5c0       0x73 mesh/core/libmesh_core_nrf52840_xxAA.a(nrf_mesh.c.obj)
 *fill*         0x0003b633        0x1 
 .rodata.CSWTCH.8
                0x0003b634       0x20 mesh/core/libmesh_core_nrf52840_xxAA.a(hal.c.obj)
 .rodata        0x0003b654       0x18 mesh/core/libmesh_core_nrf52840_xxAA.a(enc.c.obj)
 .rodata.network_packet_in.str1.4
                0x0003b66c       0x41 mesh/core/libmesh_core_nrf52840_xxAA.a(network.c.obj)
                                 0x49 (size before relaxing)
 *fill*         0x0003b6ad        0x3 
 .rodata.network_packet_send.str1.4
                0x0003b6b0       0x4a mesh/core/libmesh_core_nrf52840_xxAA.a(network.c.obj)
 *fill*         0x0003b6fa        0x2 
 .rodata        0x0003b6fc        0x7 mesh/core/libmesh_core_nrf52840_xxAA.a(nrf_mesh_keygen.c.obj)
 *fill*         0x0003b703        0x1 
 .rodata.log_callback_rtt.str1.4
                0x0003b704       0x15 mesh/core/libmesh_core_nrf52840_xxAA.a(log.c.obj)
 *fill*         0x0003b719        0x3 
 .rodata.str1.4
                0x0003b71c       0x11 mesh/core/libmesh_core_nrf52840_xxAA.a(log.c.obj)
 *fill*         0x0003b72d        0x3 
 .rodata.INVALID_HEADER
                0x0003b730        0x4 mesh/core/libmesh_core_nrf52840_xxAA.a(flash_manager.c.obj)
                0x0003b730                INVALID_HEADER
 .rodata.PADDING_HEADER
                0x0003b734        0x4 mesh/core/libmesh_core_nrf52840_xxAA.a(flash_manager.c.obj)
                0x0003b734                PADDING_HEADER
 .rodata.SEAL_HEADER
                0x0003b738        0x4 mesh/core/libmesh_core_nrf52840_xxAA.a(flash_manager.c.obj)
                0x0003b738                SEAL_HEADER
 .rodata.process_action_queue.str1.4
                0x0003b73c       0x21 mesh/core/libmesh_core_nrf52840_xxAA.a(flash_manager.c.obj)
                                 0x52 (size before relaxing)
 *fill*         0x0003b75d        0x3 
 .rodata.beacon_packet_in.str1.4
                0x0003b760       0x55 mesh/core/libmesh_core_nrf52840_xxAA.a(beacon.c.obj)
                                 0x60 (size before relaxing)
 *fill*         0x0003b7b5        0x3 
 .rodata.net_beacon_init.str1.4
                0x0003b7b8        0x5 mesh/core/libmesh_core_nrf52840_xxAA.a(net_beacon.c.obj)
 *fill*         0x0003b7bd        0x3 
 .rodata.radio_mode_to_us_per_byte.9494
                0x0003b7c0        0x6 mesh/core/libmesh_core_nrf52840_xxAA.a(broadcast.c.obj)
 *fill*         0x0003b7c6        0x2 
 .rodata.channel_rf_offsets.8756
                0x0003b7c8       0x28 mesh/core/libmesh_core_nrf52840_xxAA.a(radio_config.c.obj)
 .rodata.sar_ack_send.str1.4
                0x0003b7f0       0x1d mesh/core/libmesh_core_nrf52840_xxAA.a(transport.c.obj)
                                 0x4e (size before relaxing)
 *fill*         0x0003b80d        0x3 
 .rodata.sar_ctx_cancel.str1.4
                0x0003b810       0x18 mesh/core/libmesh_core_nrf52840_xxAA.a(transport.c.obj)
 .rodata.test_transport_decrypt.str1.4
                0x0003b828       0x13 mesh/core/libmesh_core_nrf52840_xxAA.a(transport.c.obj)
 *fill*         0x0003b83b        0x1 
 .rodata.transport_packet_in.str1.4
                0x0003b83c       0x24 mesh/core/libmesh_core_nrf52840_xxAA.a(transport.c.obj)
 .rodata.transport_tx.str1.4
                0x0003b860       0x2f mesh/core/libmesh_core_nrf52840_xxAA.a(transport.c.obj)
                                 0x38 (size before relaxing)
 *fill*         0x0003b88f        0x1 
 .rodata.upper_transport_access_packet_in.str1.4
                0x0003b890       0x29 mesh/core/libmesh_core_nrf52840_xxAA.a(transport.c.obj)
 *fill*         0x0003b8b9        0x3 
 .rodata.upper_transport_packet_in.str1.4
                0x0003b8bc       0x2e mesh/core/libmesh_core_nrf52840_xxAA.a(transport.c.obj)
 *fill*         0x0003b8ea        0x2 
 .rodata.flash_manager_defrag.str1.4
                0x0003b8ec       0x28 mesh/core/libmesh_core_nrf52840_xxAA.a(flash_manager_defrag.c.obj)
                                 0x56 (size before relaxing)
 .rodata.m_procedure_steps
                0x0003b914       0x28 mesh/core/libmesh_core_nrf52840_xxAA.a(flash_manager_defrag.c.obj)
 .rodata.m_all_operations
                0x0003b93c       0x10 mesh/core/libmesh_core_nrf52840_xxAA.a(mesh_flash.c.obj)
 .rodata.SEGGER_RTT_ReadNoLock.str1.4
                0x0003b94c       0x18 external/rtt/librtt_nrf52840_xxAA.a(SEGGER_RTT.c.obj)
                                 0x17 (size before relaxing)
 .rodata._aV2C.5497
                0x0003b964       0x10 external/rtt/librtt_nrf52840_xxAA.a(SEGGER_RTT_printf.c.obj)
 .rodata.curve_secp256r1
                0x0003b974       0xb0 external/micro-ecc/libuECC_nrf52840_xxAA.a(uECC.c.obj)
 .rodata._global_impure_ptr
                0x0003ba24        0x4 c:/a/gcc_arm/6/bin/../lib/gcc/arm-none-eabi/6.3.1/../../../../arm-none-eabi/lib/thumb/v7e-m/fpv4-sp/hard\libc_nano.a(lib_a-impure.o)
                0x0003ba24                _global_impure_ptr
 *(.eh_frame*)
 .eh_frame      0x0003ba28        0x0 c:/a/gcc_arm/6/bin/../lib/gcc/arm-none-eabi/6.3.1/thumb/v7e-m/fpv4-sp/hard/crtbegin.o
 .eh_frame      0x0003ba28        0x4 c:/a/gcc_arm/6/bin/../lib/gcc/arm-none-eabi/6.3.1/thumb/v7e-m/fpv4-sp/hard/crtend.o

.glue_7         0x0003ba2c        0x0
 .glue_7        0x0003ba2c        0x0 linker stubs

.glue_7t        0x0003ba2c        0x0
 .glue_7t       0x0003ba2c        0x0 linker stubs

.vfp11_veneer   0x0003ba2c        0x0
 .vfp11_veneer  0x0003ba2c        0x0 linker stubs

.v4_bx          0x0003ba2c        0x0
 .v4_bx         0x0003ba2c        0x0 linker stubs

.iplt           0x0003ba2c        0x0
 .iplt          0x0003ba2c        0x0 c:/a/gcc_arm/6/bin/../lib/gcc/arm-none-eabi/6.3.1/thumb/v7e-m/fpv4-sp/hard/crtbegin.o

.ARM.extab
 *(.ARM.extab* .gnu.linkonce.armextab.*)
                0x0003ba2c                __exidx_start = .

.ARM.exidx      0x0003ba2c        0x8
 *(.ARM.exidx* .gnu.linkonce.armexidx.*)
 .ARM.exidx     0x0003ba2c        0x8 c:/a/gcc_arm/6/bin/../lib/gcc/arm-none-eabi/6.3.1/../../../../arm-none-eabi/lib/thumb/v7e-m/fpv4-sp/hard/crt0.o
                0x0003ba34                __exidx_end = .
                0x0003ba34                __etext = .

.rel.dyn        0x0003ba34        0x0
 .rel.iplt      0x0003ba34        0x0 c:/a/gcc_arm/6/bin/../lib/gcc/arm-none-eabi/6.3.1/thumb/v7e-m/fpv4-sp/hard/crtbegin.o

.data           0x200031b8       0xe4 load address 0x0003ba34
                0x200031b8                __data_start__ = .
 *(vtable)
 *(.data*)
 .data.m_next_unprov_address
                0x200031b8        0x2 examples/pb_remote/client/CMakeFiles/pb_remote_client_nrf52840_xxAA_s140_5.0.0-3.alpha.dir/src/main.c.obj
 .data.m_unprov_report
                0x200031ba        0x1 examples/pb_remote/client/CMakeFiles/pb_remote_client_nrf52840_xxAA_s140_5.0.0-3.alpha.dir/__/__/__/mesh/prov/src/prov_beacon.c.obj
 *fill*         0x200031bb        0x1 
 .data.m_async_process_flag
                0x200031bc        0x4 examples/pb_remote/client/CMakeFiles/pb_remote_client_nrf52840_xxAA_s140_5.0.0-3.alpha.dir/__/__/__/mesh/prov/src/prov_bearer_adv.c.obj
 .data.flash_add_mem_available_struct.10546
                0x200031c0       0x10 examples/pb_remote/client/CMakeFiles/pb_remote_client_nrf52840_xxAA_s140_5.0.0-3.alpha.dir/__/__/__/mesh/access/src/access.c.obj
 .data.m_default_ttl
                0x200031d0        0x1 examples/pb_remote/client/CMakeFiles/pb_remote_client_nrf52840_xxAA_s140_5.0.0-3.alpha.dir/__/__/__/mesh/access/src/access.c.obj
 *fill*         0x200031d1        0x3 
 .data.mem_listener.10824
                0x200031d4       0x10 examples/pb_remote/client/CMakeFiles/pb_remote_client_nrf52840_xxAA_s140_5.0.0-3.alpha.dir/__/__/__/mesh/access/src/device_state_manager.c.obj
 .data.SystemCoreClock
                0x200031e4        0x4 examples/pb_remote/client/CMakeFiles/pb_remote_client_nrf52840_xxAA_s140_5.0.0-3.alpha.dir/__/__/__/external/nRF5_SDK_14.0.0_3bcc1f7/components/toolchain/system_nrf52840.c.obj
                0x200031e4                SystemCoreClock
 .data.mem_listener.10018
                0x200031e8       0x10 mesh/core/libmesh_core_nrf52840_xxAA.a(net_state.c.obj)
 .data.mem_listener.10023
                0x200031f8       0x10 mesh/core/libmesh_core_nrf52840_xxAA.a(net_state.c.obj)
 .data.mem_listener.10037
                0x20003208       0x10 mesh/core/libmesh_core_nrf52840_xxAA.a(net_state.c.obj)
 .data.g_log_debug_level
                0x20003218        0x4 mesh/core/libmesh_core_nrf52840_xxAA.a(log.c.obj)
                0x20003218                g_log_debug_level
 .data.g_log_debug_msk
                0x2000321c        0x4 mesh/core/libmesh_core_nrf52840_xxAA.a(log.c.obj)
                0x2000321c                g_log_debug_msk
 .data.g_log_hex_digits
                0x20003220        0x4 mesh/core/libmesh_core_nrf52840_xxAA.a(log.c.obj)
                0x20003220                g_log_hex_digits
 .data.m_log_callback
                0x20003224        0x4 mesh/core/libmesh_core_nrf52840_xxAA.a(log.c.obj)
                0x20003224                m_log_callback
 .data.g_rng_function
                0x20003228        0x4 external/micro-ecc/libuECC_nrf52840_xxAA.a(uECC.c.obj)
 .data._impure_ptr
                0x2000322c        0x4 c:/a/gcc_arm/6/bin/../lib/gcc/arm-none-eabi/6.3.1/../../../../arm-none-eabi/lib/thumb/v7e-m/fpv4-sp/hard\libc_nano.a(lib_a-impure.o)
                0x2000322c                _impure_ptr
 .data.impure_data
                0x20003230       0x60 c:/a/gcc_arm/6/bin/../lib/gcc/arm-none-eabi/6.3.1/../../../../arm-none-eabi/lib/thumb/v7e-m/fpv4-sp/hard\libc_nano.a(lib_a-impure.o)
                0x20003290                . = ALIGN (0x4)
                0x20003290                PROVIDE (__preinit_array_start, .)
 *(.preinit_array)
                0x20003290                PROVIDE (__preinit_array_end, .)
                0x20003290                . = ALIGN (0x4)
                0x20003290                PROVIDE (__init_array_start, .)
 *(SORT(.init_array.*))
 *(.init_array)
 .init_array    0x20003290        0x4 c:/a/gcc_arm/6/bin/../lib/gcc/arm-none-eabi/6.3.1/thumb/v7e-m/fpv4-sp/hard/crtbegin.o
                0x20003294                PROVIDE (__init_array_end, .)
                0x20003294                . = ALIGN (0x4)
                [!provide]                PROVIDE (__fini_array_start, .)
 *(SORT(.fini_array.*))
 *(.fini_array)
 .fini_array    0x20003294        0x4 c:/a/gcc_arm/6/bin/../lib/gcc/arm-none-eabi/6.3.1/thumb/v7e-m/fpv4-sp/hard/crtbegin.o
                [!provide]                PROVIDE (__fini_array_end, .)
 *(.jcr*)
 .jcr           0x20003298        0x0 c:/a/gcc_arm/6/bin/../lib/gcc/arm-none-eabi/6.3.1/thumb/v7e-m/fpv4-sp/hard/crtbegin.o
 .jcr           0x20003298        0x4 c:/a/gcc_arm/6/bin/../lib/gcc/arm-none-eabi/6.3.1/thumb/v7e-m/fpv4-sp/hard/crtend.o
                0x2000329c                . = ALIGN (0x4)
                0x2000329c                __data_end__ = .

.igot.plt       0x2000329c        0x0 load address 0x0003bb18
 .igot.plt      0x2000329c        0x0 c:/a/gcc_arm/6/bin/../lib/gcc/arm-none-eabi/6.3.1/thumb/v7e-m/fpv4-sp/hard/crtbegin.o

.bss            0x200032a0     0x2ecc load address 0x0003bb20
                0x200032a0                . = ALIGN (0x4)
                0x200032a0                __bss_start__ = .
 *(.bss*)
 .bss           0x200032a0       0x1c c:/a/gcc_arm/6/bin/../lib/gcc/arm-none-eabi/6.3.1/thumb/v7e-m/fpv4-sp/hard/crtbegin.o
 .bss.m_appkey_handles
                0x200032bc        0x2 examples/pb_remote/client/CMakeFiles/pb_remote_client_nrf52840_xxAA_s140_5.0.0-3.alpha.dir/src/main.c.obj
 *fill*         0x200032be        0x2 
 .bss.m_device_address_handles
                0x200032c0        0x8 examples/pb_remote/client/CMakeFiles/pb_remote_client_nrf52840_xxAA_s140_5.0.0-3.alpha.dir/src/main.c.obj
 .bss.m_device_state
                0x200032c8        0x1 examples/pb_remote/client/CMakeFiles/pb_remote_client_nrf52840_xxAA_s140_5.0.0-3.alpha.dir/src/main.c.obj
 *fill*         0x200032c9        0x3 
 .bss.m_devkey_handles
                0x200032cc        0xa examples/pb_remote/client/CMakeFiles/pb_remote_client_nrf52840_xxAA_s140_5.0.0-3.alpha.dir/src/main.c.obj
 *fill*         0x200032d6        0x2 
 .bss.m_evt_handler
                0x200032d8        0x8 examples/pb_remote/client/CMakeFiles/pb_remote_client_nrf52840_xxAA_s140_5.0.0-3.alpha.dir/src/main.c.obj
 .bss.m_netkey_handles
                0x200032e0        0x2 examples/pb_remote/client/CMakeFiles/pb_remote_client_nrf52840_xxAA_s140_5.0.0-3.alpha.dir/src/main.c.obj
 .bss.m_next_unprov_index
                0x200032e2        0x1 examples/pb_remote/client/CMakeFiles/pb_remote_client_nrf52840_xxAA_s140_5.0.0-3.alpha.dir/src/main.c.obj
 *fill*         0x200032e3        0x1 
 .bss.m_num_elements_of_last_guy
                0x200032e4        0x2 examples/pb_remote/client/CMakeFiles/pb_remote_client_nrf52840_xxAA_s140_5.0.0-3.alpha.dir/src/main.c.obj
 *fill*         0x200032e6        0x2 
 .bss.m_private_key
                0x200032e8       0x20 examples/pb_remote/client/CMakeFiles/pb_remote_client_nrf52840_xxAA_s140_5.0.0-3.alpha.dir/src/main.c.obj
 .bss.m_prov_ctx
                0x20003308      0x2fc examples/pb_remote/client/CMakeFiles/pb_remote_client_nrf52840_xxAA_s140_5.0.0-3.alpha.dir/src/main.c.obj
 .bss.m_public_key
                0x20003604       0x40 examples/pb_remote/client/CMakeFiles/pb_remote_client_nrf52840_xxAA_s140_5.0.0-3.alpha.dir/src/main.c.obj
 .bss.m_remote_client
                0x20003644       0x2c examples/pb_remote/client/CMakeFiles/pb_remote_client_nrf52840_xxAA_s140_5.0.0-3.alpha.dir/src/main.c.obj
 .bss.m_ble_evt_buffer
                0x20003670       0x57 examples/pb_remote/client/CMakeFiles/pb_remote_client_nrf52840_xxAA_s140_5.0.0-3.alpha.dir/__/__/nrf_mesh_sdk.c.obj
 .bss.m_is_interrupting
                0x200036c7        0x1 examples/pb_remote/client/CMakeFiles/pb_remote_client_nrf52840_xxAA_s140_5.0.0-3.alpha.dir/__/__/__/models/pb_remote/src/pb_remote_client.c.obj
 .bss.m_packet  0x200036c8       0x41 examples/pb_remote/client/CMakeFiles/pb_remote_client_nrf52840_xxAA_s140_5.0.0-3.alpha.dir/__/__/__/models/pb_remote/src/pb_remote_client.c.obj
 *fill*         0x20003709        0x3 
 .bss.m_pbr_client_event_queue
                0x2000370c       0x14 examples/pb_remote/client/CMakeFiles/pb_remote_client_nrf52840_xxAA_s140_5.0.0-3.alpha.dir/__/__/__/models/pb_remote/src/pb_remote_client.c.obj
 .bss.m_pbr_client_event_queue_buffer
                0x20003720       0x90 examples/pb_remote/client/CMakeFiles/pb_remote_client_nrf52840_xxAA_s140_5.0.0-3.alpha.dir/__/__/__/models/pb_remote/src/pb_remote_client.c.obj
 .bss.mp_pb_remote_client_model
                0x200037b0        0x4 examples/pb_remote/client/CMakeFiles/pb_remote_client_nrf52840_xxAA_s140_5.0.0-3.alpha.dir/__/__/__/models/pb_remote/src/pb_remote_client.c.obj
 .bss.m_offload_ecdh
                0x200037b4        0x1 examples/pb_remote/client/CMakeFiles/pb_remote_client_nrf52840_xxAA_s140_5.0.0-3.alpha.dir/__/__/__/mesh/prov/src/prov_utils.c.obj
 *fill*         0x200037b5        0x3 
 .bss.mp_bearer_head
                0x200037b8        0x4 examples/pb_remote/client/CMakeFiles/pb_remote_client_nrf52840_xxAA_s140_5.0.0-3.alpha.dir/__/__/__/mesh/prov/src/prov_bearer_adv.c.obj
 .bss.m_publish_timer
                0x200037bc       0x18 examples/pb_remote/client/CMakeFiles/pb_remote_client_nrf52840_xxAA_s140_5.0.0-3.alpha.dir/__/__/__/mesh/access/src/access_publish.c.obj
 .bss.m_publish_timer_counter
                0x200037d4        0x4 examples/pb_remote/client/CMakeFiles/pb_remote_client_nrf52840_xxAA_s140_5.0.0-3.alpha.dir/__/__/__/mesh/access/src/access_publish.c.obj
 .bss.m_publish_timer_running
                0x200037d8        0x1 examples/pb_remote/client/CMakeFiles/pb_remote_client_nrf52840_xxAA_s140_5.0.0-3.alpha.dir/__/__/__/mesh/access/src/access_publish.c.obj
 .bss.m_timer_resolution
                0x200037d9        0x1 examples/pb_remote/client/CMakeFiles/pb_remote_client_nrf52840_xxAA_s140_5.0.0-3.alpha.dir/__/__/__/mesh/access/src/access_publish.c.obj
 *fill*         0x200037da        0x2 
 .bss.mp_publication_list
                0x200037dc        0x4 examples/pb_remote/client/CMakeFiles/pb_remote_client_nrf52840_xxAA_s140_5.0.0-3.alpha.dir/__/__/__/mesh/access/src/access_publish.c.obj
 .bss.m_element_pool
                0x200037e0        0x6 examples/pb_remote/client/CMakeFiles/pb_remote_client_nrf52840_xxAA_s140_5.0.0-3.alpha.dir/__/__/__/mesh/access/src/access.c.obj
 *fill*         0x200037e6        0x2 
 .bss.m_evt_handler
                0x200037e8        0x8 examples/pb_remote/client/CMakeFiles/pb_remote_client_nrf52840_xxAA_s140_5.0.0-3.alpha.dir/__/__/__/mesh/access/src/access.c.obj
 .bss.m_flash_manager
                0x200037f0       0x24 examples/pb_remote/client/CMakeFiles/pb_remote_client_nrf52840_xxAA_s140_5.0.0-3.alpha.dir/__/__/__/mesh/access/src/access.c.obj
 .bss.m_flash_not_ready
                0x20003814        0x1 examples/pb_remote/client/CMakeFiles/pb_remote_client_nrf52840_xxAA_s140_5.0.0-3.alpha.dir/__/__/__/mesh/access/src/access.c.obj
 *fill*         0x20003815        0x3 
 .bss.m_model_pool
                0x20003818       0x68 examples/pb_remote/client/CMakeFiles/pb_remote_client_nrf52840_xxAA_s140_5.0.0-3.alpha.dir/__/__/__/mesh/access/src/access.c.obj
 .bss.m_subscription_list_pool
                0x20003880       0x10 examples/pb_remote/client/CMakeFiles/pb_remote_client_nrf52840_xxAA_s140_5.0.0-3.alpha.dir/__/__/__/mesh/access/src/access.c.obj
 .bss.m_reliable
                0x20003890       0x6c examples/pb_remote/client/CMakeFiles/pb_remote_client_nrf52840_xxAA_s140_5.0.0-3.alpha.dir/__/__/__/mesh/access/src/access_reliable.c.obj
 .bss.m_addr_nonvirtual_allocated
                0x200038fc        0x4 examples/pb_remote/client/CMakeFiles/pb_remote_client_nrf52840_xxAA_s140_5.0.0-3.alpha.dir/__/__/__/mesh/access/src/device_state_manager.c.obj
 .bss.m_addr_nonvirtual_needs_flashing
                0x20003900        0x4 examples/pb_remote/client/CMakeFiles/pb_remote_client_nrf52840_xxAA_s140_5.0.0-3.alpha.dir/__/__/__/mesh/access/src/device_state_manager.c.obj
 .bss.m_addr_unicast_allocated
                0x20003904        0x4 examples/pb_remote/client/CMakeFiles/pb_remote_client_nrf52840_xxAA_s140_5.0.0-3.alpha.dir/__/__/__/mesh/access/src/device_state_manager.c.obj
 .bss.m_addr_unicast_needs_flashing
                0x20003908        0x4 examples/pb_remote/client/CMakeFiles/pb_remote_client_nrf52840_xxAA_s140_5.0.0-3.alpha.dir/__/__/__/mesh/access/src/device_state_manager.c.obj
 .bss.m_addr_virtual_allocated
                0x2000390c        0x4 examples/pb_remote/client/CMakeFiles/pb_remote_client_nrf52840_xxAA_s140_5.0.0-3.alpha.dir/__/__/__/mesh/access/src/device_state_manager.c.obj
 .bss.m_addr_virtual_needs_flashing
                0x20003910        0x4 examples/pb_remote/client/CMakeFiles/pb_remote_client_nrf52840_xxAA_s140_5.0.0-3.alpha.dir/__/__/__/mesh/access/src/device_state_manager.c.obj
 .bss.m_addresses
                0x20003914       0x10 examples/pb_remote/client/CMakeFiles/pb_remote_client_nrf52840_xxAA_s140_5.0.0-3.alpha.dir/__/__/__/mesh/access/src/device_state_manager.c.obj
 .bss.m_appkey_allocated
                0x20003924        0x4 examples/pb_remote/client/CMakeFiles/pb_remote_client_nrf52840_xxAA_s140_5.0.0-3.alpha.dir/__/__/__/mesh/access/src/device_state_manager.c.obj
 .bss.m_appkey_needs_flashing
                0x20003928        0x4 examples/pb_remote/client/CMakeFiles/pb_remote_client_nrf52840_xxAA_s140_5.0.0-3.alpha.dir/__/__/__/mesh/access/src/device_state_manager.c.obj
 .bss.m_appkeys
                0x2000392c       0x16 examples/pb_remote/client/CMakeFiles/pb_remote_client_nrf52840_xxAA_s140_5.0.0-3.alpha.dir/__/__/__/mesh/access/src/device_state_manager.c.obj
 *fill*         0x20003942        0x2 
 .bss.m_devkey_allocated
                0x20003944        0x4 examples/pb_remote/client/CMakeFiles/pb_remote_client_nrf52840_xxAA_s140_5.0.0-3.alpha.dir/__/__/__/mesh/access/src/device_state_manager.c.obj
 .bss.m_devkey_needs_flashing
                0x20003948        0x4 examples/pb_remote/client/CMakeFiles/pb_remote_client_nrf52840_xxAA_s140_5.0.0-3.alpha.dir/__/__/__/mesh/access/src/device_state_manager.c.obj
 .bss.m_devkeys
                0x2000394c       0x6e examples/pb_remote/client/CMakeFiles/pb_remote_client_nrf52840_xxAA_s140_5.0.0-3.alpha.dir/__/__/__/mesh/access/src/device_state_manager.c.obj
 .bss.m_flash_is_available
                0x200039ba        0x1 examples/pb_remote/client/CMakeFiles/pb_remote_client_nrf52840_xxAA_s140_5.0.0-3.alpha.dir/__/__/__/mesh/access/src/device_state_manager.c.obj
 *fill*         0x200039bb        0x1 
 .bss.m_flash_manager
                0x200039bc       0x24 examples/pb_remote/client/CMakeFiles/pb_remote_client_nrf52840_xxAA_s140_5.0.0-3.alpha.dir/__/__/__/mesh/access/src/device_state_manager.c.obj
 .bss.m_flash_mem_listener_update_all
                0x200039e0       0x10 examples/pb_remote/client/CMakeFiles/pb_remote_client_nrf52840_xxAA_s140_5.0.0-3.alpha.dir/__/__/__/mesh/access/src/device_state_manager.c.obj
 .bss.m_has_primary_subnet
                0x200039f0        0x1 examples/pb_remote/client/CMakeFiles/pb_remote_client_nrf52840_xxAA_s140_5.0.0-3.alpha.dir/__/__/__/mesh/access/src/device_state_manager.c.obj
 *fill*         0x200039f1        0x3 
 .bss.m_local_unicast_addr
                0x200039f4        0x4 examples/pb_remote/client/CMakeFiles/pb_remote_client_nrf52840_xxAA_s140_5.0.0-3.alpha.dir/__/__/__/mesh/access/src/device_state_manager.c.obj
 .bss.m_subnet_allocated
                0x200039f8        0x4 examples/pb_remote/client/CMakeFiles/pb_remote_client_nrf52840_xxAA_s140_5.0.0-3.alpha.dir/__/__/__/mesh/access/src/device_state_manager.c.obj
 .bss.m_subnet_needs_flashing
                0x200039fc        0x4 examples/pb_remote/client/CMakeFiles/pb_remote_client_nrf52840_xxAA_s140_5.0.0-3.alpha.dir/__/__/__/mesh/access/src/device_state_manager.c.obj
 .bss.m_subnets
                0x20003a00       0x5c examples/pb_remote/client/CMakeFiles/pb_remote_client_nrf52840_xxAA_s140_5.0.0-3.alpha.dir/__/__/__/mesh/access/src/device_state_manager.c.obj
 .bss.m_virtual_addresses
                0x20003a5c       0x14 examples/pb_remote/client/CMakeFiles/pb_remote_client_nrf52840_xxAA_s140_5.0.0-3.alpha.dir/__/__/__/mesh/access/src/device_state_manager.c.obj
 .bss.m_uuid    0x20003a70       0x10 mesh/core/libmesh_core_nrf52840_xxAA.a(nrf_mesh_configure.c.obj)
 .bss.mp_evt_handlers_head
                0x20003a80        0x4 mesh/core/libmesh_core_nrf52840_xxAA.a(event.c.obj)
 .bss.lock_count.10077
                0x20003a84        0x4 mesh/core/libmesh_core_nrf52840_xxAA.a(net_state.c.obj)
 .bss.m_flash_manager
                0x20003a88       0x24 mesh/core/libmesh_core_nrf52840_xxAA.a(net_state.c.obj)
 .bss.m_iv_update_timer
                0x20003aac       0x18 mesh/core/libmesh_core_nrf52840_xxAA.a(net_state.c.obj)
 .bss.m_net_state
                0x20003ac4       0x14 mesh/core/libmesh_core_nrf52840_xxAA.a(net_state.c.obj)
 .bss.m_seqnum_allocation_in_progress
                0x20003ad8        0x1 mesh/core/libmesh_core_nrf52840_xxAA.a(net_state.c.obj)
 .bss.m_test_mode
                0x20003ad9        0x1 mesh/core/libmesh_core_nrf52840_xxAA.a(net_state.c.obj)
 .bss.m_is_enabled
                0x20003ada        0x1 mesh/core/libmesh_core_nrf52840_xxAA.a(nrf_mesh.c.obj)
 .bss.m_is_initialized
                0x20003adb        0x1 mesh/core/libmesh_core_nrf52840_xxAA.a(nrf_mesh.c.obj)
 .bss.m_rx_cb   0x20003adc        0x4 mesh/core/libmesh_core_nrf52840_xxAA.a(nrf_mesh.c.obj)
 .bss.m_event_flag
                0x20003ae0        0x4 mesh/core/libmesh_core_nrf52840_xxAA.a(timer_scheduler.c.obj)
 .bss.m_scheduler
                0x20003ae4       0x10 mesh/core/libmesh_core_nrf52840_xxAA.a(timer_scheduler.c.obj)
 .bss.m_attributes
                0x20003af4        0x3 mesh/core/libmesh_core_nrf52840_xxAA.a(timer.c.obj)
 *fill*         0x20003af7        0x1 
 .bss.m_callbacks
                0x20003af8        0xc mesh/core/libmesh_core_nrf52840_xxAA.a(timer.c.obj)
 .bss.m_is_in_ts
                0x20003b04        0x1 mesh/core/libmesh_core_nrf52840_xxAA.a(timer.c.obj)
 *fill*         0x20003b05        0x3 
 .bss.m_reference_time
                0x20003b08        0x4 mesh/core/libmesh_core_nrf52840_xxAA.a(timer.c.obj)
 .bss.m_timeouts
                0x20003b0c        0xc mesh/core/libmesh_core_nrf52840_xxAA.a(timer.c.obj)
 .bss.m_timer_mut
                0x20003b18        0x4 mesh/core/libmesh_core_nrf52840_xxAA.a(timer.c.obj)
 .bss.m_ts_end_time
                0x20003b1c        0x4 mesh/core/libmesh_core_nrf52840_xxAA.a(timer.c.obj)
 .bss.mp_ppi_tasks
                0x20003b20        0xc mesh/core/libmesh_core_nrf52840_xxAA.a(timer.c.obj)
 .bss.m_current_time
                0x20003b2c        0x4 mesh/core/libmesh_core_nrf52840_xxAA.a(ticker.c.obj)
 .bss.m_timer   0x20003b30       0x18 mesh/core/libmesh_core_nrf52840_xxAA.a(ticker.c.obj)
 .bss.m_current_timeslot
                0x20003b48       0x1c mesh/core/libmesh_core_nrf52840_xxAA.a(timeslot.c.obj)
 .bss.m_lfclk_ppm
                0x20003b64        0x4 mesh/core/libmesh_core_nrf52840_xxAA.a(timeslot.c.obj)
 .bss.m_radio_request_earliest
                0x20003b68       0x10 mesh/core/libmesh_core_nrf52840_xxAA.a(timeslot.c.obj)
 .bss.m_state_lock
                0x20003b78        0x1 mesh/core/libmesh_core_nrf52840_xxAA.a(timeslot.c.obj)
 .bss.m_timeslot_forced_command
                0x20003b79        0x1 mesh/core/libmesh_core_nrf52840_xxAA.a(timeslot.c.obj)
 *fill*         0x20003b7a        0x6 
 .bss.s_last_rtc_value.9342
                0x20003b80        0x8 mesh/core/libmesh_core_nrf52840_xxAA.a(timeslot.c.obj)
 .bss.m_bearer_event_fifo
                0x20003b88       0x14 mesh/core/libmesh_core_nrf52840_xxAA.a(bearer_event.c.obj)
 .bss.m_bearer_event_fifo_buffer
                0x20003b9c      0x100 mesh/core/libmesh_core_nrf52840_xxAA.a(bearer_event.c.obj)
 .bss.m_critical
                0x20003c9c        0x4 mesh/core/libmesh_core_nrf52840_xxAA.a(bearer_event.c.obj)
 .bss.m_flag_count
                0x20003ca0        0x4 mesh/core/libmesh_core_nrf52840_xxAA.a(bearer_event.c.obj)
 .bss.m_flag_event_callbacks
                0x20003ca4       0x18 mesh/core/libmesh_core_nrf52840_xxAA.a(bearer_event.c.obj)
 .bss.m_flags   0x20003cbc        0x4 mesh/core/libmesh_core_nrf52840_xxAA.a(bearer_event.c.obj)
 .bss.m_sequential_event_queue
                0x20003cc0        0x8 mesh/core/libmesh_core_nrf52840_xxAA.a(bearer_event.c.obj)
 .bss.m_relay_check_cb
                0x20003cc8        0x4 mesh/core/libmesh_core_nrf52840_xxAA.a(network.c.obj)
 .bss.m_relay_enable
                0x20003ccc        0x1 mesh/core/libmesh_core_nrf52840_xxAA.a(network.c.obj)
 *fill*         0x20003ccd        0x3 
 .bss.m_action_queue
                0x20003cd0        0xc mesh/core/libmesh_core_nrf52840_xxAA.a(flash_manager.c.obj)
 .bss.m_action_queue_buffer
                0x20003cdc      0x104 mesh/core/libmesh_core_nrf52840_xxAA.a(flash_manager.c.obj)
 .bss.m_action_state
                0x20003de0        0x1 mesh/core/libmesh_core_nrf52840_xxAA.a(flash_manager.c.obj)
 *fill*         0x20003de1        0x3 
 .bss.m_memory_listener_queue
                0x20003de4        0x8 mesh/core/libmesh_core_nrf52840_xxAA.a(flash_manager.c.obj)
 .bss.m_processing_flag
                0x20003dec        0x4 mesh/core/libmesh_core_nrf52840_xxAA.a(flash_manager.c.obj)
 .bss.m_state   0x20003df0        0x1 mesh/core/libmesh_core_nrf52840_xxAA.a(flash_manager.c.obj)
 *fill*         0x20003df1        0x1 
 .bss.m_token   0x20003df2        0x2 mesh/core/libmesh_core_nrf52840_xxAA.a(flash_manager.c.obj)
 .bss.p_current.11194
                0x20003df4        0x4 mesh/core/libmesh_core_nrf52840_xxAA.a(flash_manager.c.obj)
 .bss.result.11195
                0x20003df8        0x1 mesh/core/libmesh_core_nrf52840_xxAA.a(flash_manager.c.obj)
 *fill*         0x20003df9        0x3 
 .bss.m_adv_buffer
                0x20003dfc       0x68 mesh/core/libmesh_core_nrf52840_xxAA.a(beacon.c.obj)
 .bss.m_advertiser
                0x20003e64       0x94 mesh/core/libmesh_core_nrf52840_xxAA.a(beacon.c.obj)
 .bss.m_adv_tx_count
                0x20003ef8        0x8 mesh/core/libmesh_core_nrf52840_xxAA.a(core_tx.c.obj)
 .bss.m_advertisers
                0x20003f00      0x128 mesh/core/libmesh_core_nrf52840_xxAA.a(core_tx.c.obj)
 .bss.m_originator_adv_packet_buffer
                0x20004028      0x100 mesh/core/libmesh_core_nrf52840_xxAA.a(core_tx.c.obj)
 .bss.m_relay_adv_packet_buffer
                0x20004128       0x80 mesh/core/libmesh_core_nrf52840_xxAA.a(core_tx.c.obj)
 .bss.m_tx_complete_callback
                0x200041a8        0x4 mesh/core/libmesh_core_nrf52840_xxAA.a(core_tx.c.obj)
 .bss.m_beacon_salt
                0x200041ac       0x10 mesh/core/libmesh_core_nrf52840_xxAA.a(net_beacon.c.obj)
 .bss.m_enabled
                0x200041bc        0x1 mesh/core/libmesh_core_nrf52840_xxAA.a(net_beacon.c.obj)
 *fill*         0x200041bd        0x3 
 .bss.m_tx_event
                0x200041c0       0x18 mesh/core/libmesh_core_nrf52840_xxAA.a(net_beacon.c.obj)
 .bss.m_adv_prng
                0x200041d8       0x10 mesh/core/libmesh_core_nrf52840_xxAA.a(advertiser.c.obj)
 .bss.m_action_queue
                0x200041e8        0x8 mesh/core/libmesh_core_nrf52840_xxAA.a(bearer_handler.c.obj)
 .bss.m_end_time
                0x200041f0        0x4 mesh/core/libmesh_core_nrf52840_xxAA.a(bearer_handler.c.obj)
 .bss.m_scanner_is_active
                0x200041f4        0x1 mesh/core/libmesh_core_nrf52840_xxAA.a(bearer_handler.c.obj)
 .bss.m_stopped
                0x200041f5        0x1 mesh/core/libmesh_core_nrf52840_xxAA.a(bearer_handler.c.obj)
 *fill*         0x200041f6        0x2 
 .bss.mp_action
                0x200041f8        0x4 mesh/core/libmesh_core_nrf52840_xxAA.a(bearer_handler.c.obj)
 .bss.m_next_channel_index
                0x200041fc        0x1 mesh/core/libmesh_core_nrf52840_xxAA.a(broadcast.c.obj)
 *fill*         0x200041fd        0x3 
 .bss.m_scanner
                0x20004200      0x284 mesh/core/libmesh_core_nrf52840_xxAA.a(scanner.c.obj)
 .bss.m_internal_event_fifo
                0x20004484       0x14 mesh/core/libmesh_core_nrf52840_xxAA.a(internal_event.c.obj)
 .bss.m_internal_event_initialized
                0x20004498        0x1 mesh/core/libmesh_core_nrf52840_xxAA.a(internal_event.c.obj)
 *fill*         0x20004499        0x3 
 .bss.m_report_cb
                0x2000449c        0x4 mesh/core/libmesh_core_nrf52840_xxAA.a(internal_event.c.obj)
 .bss.m_msg_cache
                0x200044a0      0x100 mesh/core/libmesh_core_nrf52840_xxAA.a(msg_cache.c.obj)
 .bss.m_msg_cache_head
                0x200045a0        0x4 mesh/core/libmesh_core_nrf52840_xxAA.a(msg_cache.c.obj)
 .bss.m_sar_alloc
                0x200045a4        0x4 mesh/core/libmesh_core_nrf52840_xxAA.a(transport.c.obj)
 .bss.m_sar_process_flag
                0x200045a8        0x4 mesh/core/libmesh_core_nrf52840_xxAA.a(transport.c.obj)
 .bss.m_sar_release
                0x200045ac        0x4 mesh/core/libmesh_core_nrf52840_xxAA.a(transport.c.obj)
 .bss.m_sar_session_cache
                0x200045b0       0x40 mesh/core/libmesh_core_nrf52840_xxAA.a(transport.c.obj)
 .bss.m_sar_session_cache_head
                0x200045f0        0x4 mesh/core/libmesh_core_nrf52840_xxAA.a(transport.c.obj)
 .bss.m_trs_config
                0x200045f4       0x18 mesh/core/libmesh_core_nrf52840_xxAA.a(transport.c.obj)
 .bss.m_trs_sar_sessions
                0x2000460c      0x1b0 mesh/core/libmesh_core_nrf52840_xxAA.a(transport.c.obj)
 .bss.m_defrag  0x200047bc       0x1c mesh/core/libmesh_core_nrf52840_xxAA.a(flash_manager_defrag.c.obj)
 .bss.m_token   0x200047d8        0x2 mesh/core/libmesh_core_nrf52840_xxAA.a(flash_manager_defrag.c.obj)
 *fill*         0x200047da        0x2 
 .bss.mp_recovery_area
                0x200047dc        0x4 mesh/core/libmesh_core_nrf52840_xxAA.a(flash_manager_defrag.c.obj)
 .bss.p_null_ptr.10247
                0x200047e0        0x4 mesh/core/libmesh_core_nrf52840_xxAA.a(flash_manager_defrag.c.obj)
 .bss.m_pool    0x200047e4     0x1000 mesh/core/libmesh_core_nrf52840_xxAA.a(packet_mgr.c.obj)
 .bss.mp_free_head
                0x200057e4        0x4 mesh/core/libmesh_core_nrf52840_xxAA.a(packet_mgr.c.obj)
 .bss.m_event_flag
                0x200057e8        0x4 mesh/core/libmesh_core_nrf52840_xxAA.a(mesh_flash.c.obj)
 .bss.m_suspended
                0x200057ec        0x1 mesh/core/libmesh_core_nrf52840_xxAA.a(mesh_flash.c.obj)
 *fill*         0x200057ed        0x3 
 .bss.m_users   0x200057f0      0x228 mesh/core/libmesh_core_nrf52840_xxAA.a(mesh_flash.c.obj)
 .bss.m_128buf  0x20005a18       0x10 mesh/core/libmesh_core_nrf52840_xxAA.a(aes_cmac.c.obj)
 .bss.m_subkey1
                0x20005a28       0x10 mesh/core/libmesh_core_nrf52840_xxAA.a(aes_cmac.c.obj)
 .bss.m_subkey2
                0x20005a38       0x10 mesh/core/libmesh_core_nrf52840_xxAA.a(aes_cmac.c.obj)
 .bss.m_cache_full
                0x20005a48        0x1 mesh/core/libmesh_core_nrf52840_xxAA.a(replay_cache.c.obj)
 .bss.m_cache_index
                0x20005a49        0x1 mesh/core/libmesh_core_nrf52840_xxAA.a(replay_cache.c.obj)
 *fill*         0x20005a4a        0x2 
 .bss.m_replay_cache
                0x20005a4c      0x200 mesh/core/libmesh_core_nrf52840_xxAA.a(replay_cache.c.obj)
 .bss.m_accepted_amount
                0x20005c4c        0x4 mesh/core/libmesh_core_nrf52840_xxAA.a(filter_engine.c.obj)
 .bss.m_filter_list_head
                0x20005c50        0x4 mesh/core/libmesh_core_nrf52840_xxAA.a(filter_engine.c.obj)
 .bss._acDownBuffer
                0x20005c54       0x80 external/rtt/librtt_nrf52840_xxAA.a(SEGGER_RTT.c.obj)
 .bss._acUpBuffer
                0x20005cd4      0x400 external/rtt/librtt_nrf52840_xxAA.a(SEGGER_RTT.c.obj)
 .bss.__malloc_free_list
                0x200060d4        0x4 c:/a/gcc_arm/6/bin/../lib/gcc/arm-none-eabi/6.3.1/../../../../arm-none-eabi/lib/thumb/v7e-m/fpv4-sp/hard\libc_nano.a(lib_a-nano-mallocr.o)
                0x200060d4                __malloc_free_list
 .bss.__malloc_sbrk_start
                0x200060d8        0x4 c:/a/gcc_arm/6/bin/../lib/gcc/arm-none-eabi/6.3.1/../../../../arm-none-eabi/lib/thumb/v7e-m/fpv4-sp/hard\libc_nano.a(lib_a-nano-mallocr.o)
                0x200060d8                __malloc_sbrk_start
 .bss.heap_end.5239
                0x200060dc        0x4 c:/a/gcc_arm/6/bin/../lib/gcc/arm-none-eabi/6.3.1/../../../../arm-none-eabi/lib/thumb/v7e-m/fpv4-sp/hard\libnosys.a(sbrk.o)
 *(COMMON)
 COMMON         0x200060e0        0xc examples/pb_remote/client/CMakeFiles/pb_remote_client_nrf52840_xxAA_s140_5.0.0-3.alpha.dir/__/__/nrf_mesh_sdk.c.obj
                0x200060e0                nrf_nvic_state
 COMMON         0x200060ec        0x4 mesh/core/libmesh_core_nrf52840_xxAA.a(nrf_mesh.c.obj)
                0x200060ec                m_assertion_handler
 COMMON         0x200060f0       0x78 external/rtt/librtt_nrf52840_xxAA.a(SEGGER_RTT.c.obj)
                0x200060f0                _SEGGER_RTT
 COMMON         0x20006168        0x4 c:/a/gcc_arm/6/bin/../lib/gcc/arm-none-eabi/6.3.1/../../../../arm-none-eabi/lib/thumb/v7e-m/fpv4-sp/hard\libc_nano.a(lib_a-reent.o)
                0x20006168                errno
                0x2000616c                . = ALIGN (0x4)
                0x2000616c                __bss_end__ = .

.heap           0x20006170     0x2000
                0x20006170                __HeapBase = .
                0x20006170                __end__ = .
                0x20006170                PROVIDE (end, .)
 *(.heap*)
 .heap          0x20006170     0x2000 examples/pb_remote/client/CMakeFiles/pb_remote_client_nrf52840_xxAA_s140_5.0.0-3.alpha.dir/__/__/__/external/nRF5_SDK_14.0.0_3bcc1f7/components/toolchain/gcc/gcc_startup_nrf52840.S.obj
                0x20008170                __HeapLimit = .

.stack_dummy    0x20006170     0x2000
 *(.stack*)
 .stack         0x20006170     0x2000 examples/pb_remote/client/CMakeFiles/pb_remote_client_nrf52840_xxAA_s140_5.0.0-3.alpha.dir/__/__/__/external/nRF5_SDK_14.0.0_3bcc1f7/components/toolchain/gcc/gcc_startup_nrf52840.S.obj
                0x2003f002                __StackTop = (ORIGIN (RAM) + LENGTH (RAM))
                0x2003d002                __StackLimit = (__StackTop - SIZEOF (.stack_dummy))
                0x2003f002                PROVIDE (__stack, __StackTop)
                0x00000001                ASSERT ((__StackLimit >= __HeapLimit), region RAM overflowed with stack)
OUTPUT(examples\pb_remote\client\pb_remote_client_nrf52840_xxAA_s140_5.0.0-3.alpha.elf elf32-littlearm)

.ARM.attributes
                0x00000000       0x30
 .ARM.attributes
                0x00000000       0x22 c:/a/gcc_arm/6/bin/../lib/gcc/arm-none-eabi/6.3.1/thumb/v7e-m/fpv4-sp/hard/crti.o
 .ARM.attributes
                0x00000022       0x34 c:/a/gcc_arm/6/bin/../lib/gcc/arm-none-eabi/6.3.1/thumb/v7e-m/fpv4-sp/hard/crtbegin.o
 .ARM.attributes
                0x00000056       0x20 c:/a/gcc_arm/6/bin/../lib/gcc/arm-none-eabi/6.3.1/../../../../arm-none-eabi/lib/thumb/v7e-m/fpv4-sp/hard/crt0.o
 .ARM.attributes
                0x00000076       0x39 examples/pb_remote/client/CMakeFiles/pb_remote_client_nrf52840_xxAA_s140_5.0.0-3.alpha.dir/src/main.c.obj
 .ARM.attributes
                0x000000af       0x39 examples/pb_remote/client/CMakeFiles/pb_remote_client_nrf52840_xxAA_s140_5.0.0-3.alpha.dir/__/__/nrf_mesh_sdk.c.obj
 .ARM.attributes
                0x000000e8       0x39 examples/pb_remote/client/CMakeFiles/pb_remote_client_nrf52840_xxAA_s140_5.0.0-3.alpha.dir/__/__/__/models/pb_remote/src/pb_remote_client.c.obj
 .ARM.attributes
                0x00000121       0x39 examples/pb_remote/client/CMakeFiles/pb_remote_client_nrf52840_xxAA_s140_5.0.0-3.alpha.dir/__/__/__/mesh/prov/src/prov_provisioner.c.obj
 .ARM.attributes
                0x0000015a       0x39 examples/pb_remote/client/CMakeFiles/pb_remote_client_nrf52840_xxAA_s140_5.0.0-3.alpha.dir/__/__/__/mesh/prov/src/nrf_mesh_prov.c.obj
 .ARM.attributes
                0x00000193       0x39 examples/pb_remote/client/CMakeFiles/pb_remote_client_nrf52840_xxAA_s140_5.0.0-3.alpha.dir/__/__/__/mesh/prov/src/provisioning.c.obj
 .ARM.attributes
                0x000001cc       0x39 examples/pb_remote/client/CMakeFiles/pb_remote_client_nrf52840_xxAA_s140_5.0.0-3.alpha.dir/__/__/__/mesh/prov/src/prov_beacon.c.obj
 .ARM.attributes
                0x00000205       0x39 examples/pb_remote/client/CMakeFiles/pb_remote_client_nrf52840_xxAA_s140_5.0.0-3.alpha.dir/__/__/__/mesh/prov/src/prov_utils.c.obj
 .ARM.attributes
                0x0000023e       0x39 examples/pb_remote/client/CMakeFiles/pb_remote_client_nrf52840_xxAA_s140_5.0.0-3.alpha.dir/__/__/__/mesh/prov/src/prov_bearer_adv.c.obj
 .ARM.attributes
                0x00000277       0x39 examples/pb_remote/client/CMakeFiles/pb_remote_client_nrf52840_xxAA_s140_5.0.0-3.alpha.dir/__/__/__/mesh/access/src/access_publish.c.obj
 .ARM.attributes
                0x000002b0       0x39 examples/pb_remote/client/CMakeFiles/pb_remote_client_nrf52840_xxAA_s140_5.0.0-3.alpha.dir/__/__/__/mesh/access/src/access.c.obj
 .ARM.attributes
                0x000002e9       0x39 examples/pb_remote/client/CMakeFiles/pb_remote_client_nrf52840_xxAA_s140_5.0.0-3.alpha.dir/__/__/__/mesh/access/src/access_reliable.c.obj
 .ARM.attributes
                0x00000322       0x39 examples/pb_remote/client/CMakeFiles/pb_remote_client_nrf52840_xxAA_s140_5.0.0-3.alpha.dir/__/__/__/mesh/access/src/device_state_manager.c.obj
 .ARM.attributes
                0x0000035b       0x39 examples/pb_remote/client/CMakeFiles/pb_remote_client_nrf52840_xxAA_s140_5.0.0-3.alpha.dir/__/__/nrf_mesh_weak.c.obj
 .ARM.attributes
                0x00000394       0x39 examples/pb_remote/client/CMakeFiles/pb_remote_client_nrf52840_xxAA_s140_5.0.0-3.alpha.dir/__/__/__/external/nRF5_SDK_14.0.0_3bcc1f7/components/toolchain/system_nrf52840.c.obj
 .ARM.attributes
                0x000003cd       0x20 examples/pb_remote/client/CMakeFiles/pb_remote_client_nrf52840_xxAA_s140_5.0.0-3.alpha.dir/__/__/__/external/nRF5_SDK_14.0.0_3bcc1f7/components/toolchain/gcc/gcc_startup_nrf52840.S.obj
 .ARM.attributes
                0x000003ed       0x39 mesh/core/libmesh_core_nrf52840_xxAA.a(nrf_mesh_configure.c.obj)
 .ARM.attributes
                0x00000426       0x39 mesh/core/libmesh_core_nrf52840_xxAA.a(event.c.obj)
 .ARM.attributes
                0x0000045f       0x39 mesh/core/libmesh_core_nrf52840_xxAA.a(fifo.c.obj)
 .ARM.attributes
                0x00000498       0x39 mesh/core/libmesh_core_nrf52840_xxAA.a(net_state.c.obj)
 .ARM.attributes
                0x000004d1       0x39 mesh/core/libmesh_core_nrf52840_xxAA.a(nrf_mesh_utils.c.obj)
 .ARM.attributes
                0x0000050a       0x39 mesh/core/libmesh_core_nrf52840_xxAA.a(nrf_mesh.c.obj)
 .ARM.attributes
                0x00000543       0x39 mesh/core/libmesh_core_nrf52840_xxAA.a(hal.c.obj)
 .ARM.attributes
                0x0000057c       0x39 mesh/core/libmesh_core_nrf52840_xxAA.a(timer_scheduler.c.obj)
 .ARM.attributes
                0x000005b5       0x39 mesh/core/libmesh_core_nrf52840_xxAA.a(timer.c.obj)
 .ARM.attributes
                0x000005ee       0x39 mesh/core/libmesh_core_nrf52840_xxAA.a(ticker.c.obj)
 .ARM.attributes
                0x00000627       0x39 mesh/core/libmesh_core_nrf52840_xxAA.a(rand.c.obj)
 .ARM.attributes
                0x00000660       0x39 mesh/core/libmesh_core_nrf52840_xxAA.a(timeslot.c.obj)
 .ARM.attributes
                0x00000699       0x39 mesh/core/libmesh_core_nrf52840_xxAA.a(bearer_event.c.obj)
 .ARM.attributes
                0x000006d2       0x39 mesh/core/libmesh_core_nrf52840_xxAA.a(enc.c.obj)
 .ARM.attributes
                0x0000070b       0x39 mesh/core/libmesh_core_nrf52840_xxAA.a(network.c.obj)
 .ARM.attributes
                0x00000744       0x39 mesh/core/libmesh_core_nrf52840_xxAA.a(nrf_mesh_keygen.c.obj)
 .ARM.attributes
                0x0000077d       0x39 mesh/core/libmesh_core_nrf52840_xxAA.a(log.c.obj)
 .ARM.attributes
                0x000007b6       0x39 mesh/core/libmesh_core_nrf52840_xxAA.a(flash_manager.c.obj)
 .ARM.attributes
                0x000007ef       0x39 mesh/core/libmesh_core_nrf52840_xxAA.a(ccm_soft.c.obj)
 .ARM.attributes
                0x00000828       0x39 mesh/core/libmesh_core_nrf52840_xxAA.a(beacon.c.obj)
 .ARM.attributes
                0x00000861       0x39 mesh/core/libmesh_core_nrf52840_xxAA.a(flash_manager_internal.c.obj)
 .ARM.attributes
                0x0000089a       0x39 mesh/core/libmesh_core_nrf52840_xxAA.a(core_tx.c.obj)
 .ARM.attributes
                0x000008d3       0x39 mesh/core/libmesh_core_nrf52840_xxAA.a(net_beacon.c.obj)
 .ARM.attributes
                0x0000090c       0x39 mesh/core/libmesh_core_nrf52840_xxAA.a(advertiser.c.obj)
 .ARM.attributes
                0x00000945       0x39 mesh/core/libmesh_core_nrf52840_xxAA.a(bearer_handler.c.obj)
 .ARM.attributes
                0x0000097e       0x39 mesh/core/libmesh_core_nrf52840_xxAA.a(broadcast.c.obj)
 .ARM.attributes
                0x000009b7       0x39 mesh/core/libmesh_core_nrf52840_xxAA.a(radio_config.c.obj)
 .ARM.attributes
                0x000009f0       0x39 mesh/core/libmesh_core_nrf52840_xxAA.a(scanner.c.obj)
 .ARM.attributes
                0x00000a29       0x39 mesh/core/libmesh_core_nrf52840_xxAA.a(internal_event.c.obj)
 .ARM.attributes
                0x00000a62       0x39 mesh/core/libmesh_core_nrf52840_xxAA.a(aes.c.obj)
 .ARM.attributes
                0x00000a9b       0x39 mesh/core/libmesh_core_nrf52840_xxAA.a(msg_cache.c.obj)
 .ARM.attributes
                0x00000ad4       0x39 mesh/core/libmesh_core_nrf52840_xxAA.a(transport.c.obj)
 .ARM.attributes
                0x00000b0d       0x39 mesh/core/libmesh_core_nrf52840_xxAA.a(packet_buffer.c.obj)
 .ARM.attributes
                0x00000b46       0x39 mesh/core/libmesh_core_nrf52840_xxAA.a(flash_manager_defrag.c.obj)
 .ARM.attributes
                0x00000b7f       0x39 mesh/core/libmesh_core_nrf52840_xxAA.a(packet_mgr.c.obj)
 .ARM.attributes
                0x00000bb8       0x39 mesh/core/libmesh_core_nrf52840_xxAA.a(mesh_flash.c.obj)
 .ARM.attributes
                0x00000bf1       0x39 mesh/core/libmesh_core_nrf52840_xxAA.a(queue.c.obj)
 .ARM.attributes
                0x00000c2a       0x39 mesh/core/libmesh_core_nrf52840_xxAA.a(aes_cmac.c.obj)
 .ARM.attributes
                0x00000c63       0x39 mesh/core/libmesh_core_nrf52840_xxAA.a(msqueue.c.obj)
 .ARM.attributes
                0x00000c9c       0x39 mesh/core/libmesh_core_nrf52840_xxAA.a(replay_cache.c.obj)
 .ARM.attributes
                0x00000cd5       0x39 mesh/core/libmesh_core_nrf52840_xxAA.a(filter_engine.c.obj)
 .ARM.attributes
                0x00000d0e       0x39 mesh/core/libmesh_core_nrf52840_xxAA.a(nrf_flash.c.obj)
 .ARM.attributes
                0x00000d47       0x39 external/rtt/librtt_nrf52840_xxAA.a(SEGGER_RTT.c.obj)
 .ARM.attributes
                0x00000d80       0x39 external/rtt/librtt_nrf52840_xxAA.a(SEGGER_RTT_printf.c.obj)
 .ARM.attributes
                0x00000db9       0x39 external/micro-ecc/libuECC_nrf52840_xxAA.a(uECC.c.obj)
 .ARM.attributes
                0x00000df2       0x34 c:/a/gcc_arm/6/bin/../lib/gcc/arm-none-eabi/6.3.1/../../../../arm-none-eabi/lib/thumb/v7e-m/fpv4-sp/hard\libc_nano.a(lib_a-exit.o)
 .ARM.attributes
                0x00000e26       0x34 c:/a/gcc_arm/6/bin/../lib/gcc/arm-none-eabi/6.3.1/../../../../arm-none-eabi/lib/thumb/v7e-m/fpv4-sp/hard\libc_nano.a(lib_a-impure.o)
 .ARM.attributes
                0x00000e5a       0x34 c:/a/gcc_arm/6/bin/../lib/gcc/arm-none-eabi/6.3.1/../../../../arm-none-eabi/lib/thumb/v7e-m/fpv4-sp/hard\libc_nano.a(lib_a-init.o)
 .ARM.attributes
                0x00000e8e       0x34 c:/a/gcc_arm/6/bin/../lib/gcc/arm-none-eabi/6.3.1/../../../../arm-none-eabi/lib/thumb/v7e-m/fpv4-sp/hard\libc_nano.a(lib_a-malloc.o)
 .ARM.attributes
                0x00000ec2       0x34 c:/a/gcc_arm/6/bin/../lib/gcc/arm-none-eabi/6.3.1/../../../../arm-none-eabi/lib/thumb/v7e-m/fpv4-sp/hard\libc_nano.a(lib_a-memcmp.o)
 .ARM.attributes
                0x00000ef6       0x34 c:/a/gcc_arm/6/bin/../lib/gcc/arm-none-eabi/6.3.1/../../../../arm-none-eabi/lib/thumb/v7e-m/fpv4-sp/hard\libc_nano.a(lib_a-memcpy-stub.o)
 .ARM.attributes
                0x00000f2a       0x34 c:/a/gcc_arm/6/bin/../lib/gcc/arm-none-eabi/6.3.1/../../../../arm-none-eabi/lib/thumb/v7e-m/fpv4-sp/hard\libc_nano.a(lib_a-memset.o)
 .ARM.attributes
                0x00000f5e       0x34 c:/a/gcc_arm/6/bin/../lib/gcc/arm-none-eabi/6.3.1/../../../../arm-none-eabi/lib/thumb/v7e-m/fpv4-sp/hard\libc_nano.a(lib_a-nano-freer.o)
 .ARM.attributes
                0x00000f92       0x34 c:/a/gcc_arm/6/bin/../lib/gcc/arm-none-eabi/6.3.1/../../../../arm-none-eabi/lib/thumb/v7e-m/fpv4-sp/hard\libc_nano.a(lib_a-nano-mallocr.o)
 .ARM.attributes
                0x00000fc6       0x34 c:/a/gcc_arm/6/bin/../lib/gcc/arm-none-eabi/6.3.1/../../../../arm-none-eabi/lib/thumb/v7e-m/fpv4-sp/hard\libc_nano.a(lib_a-sbrkr.o)
 .ARM.attributes
                0x00000ffa       0x34 c:/a/gcc_arm/6/bin/../lib/gcc/arm-none-eabi/6.3.1/../../../../arm-none-eabi/lib/thumb/v7e-m/fpv4-sp/hard\libc_nano.a(lib_a-strcpy.o)
 .ARM.attributes
                0x0000102e       0x1b c:/a/gcc_arm/6/bin/../lib/gcc/arm-none-eabi/6.3.1/../../../../arm-none-eabi/lib/thumb/v7e-m/fpv4-sp/hard\libc_nano.a(lib_a-strlen.o)
 .ARM.attributes
                0x00001049       0x34 c:/a/gcc_arm/6/bin/../lib/gcc/arm-none-eabi/6.3.1/../../../../arm-none-eabi/lib/thumb/v7e-m/fpv4-sp/hard\libc_nano.a(lib_a-strrchr.o)
 .ARM.attributes
                0x0000107d       0x34 c:/a/gcc_arm/6/bin/../lib/gcc/arm-none-eabi/6.3.1/../../../../arm-none-eabi/lib/thumb/v7e-m/fpv4-sp/hard\libc_nano.a(lib_a-mlock.o)
 .ARM.attributes
                0x000010b1       0x34 c:/a/gcc_arm/6/bin/../lib/gcc/arm-none-eabi/6.3.1/../../../../arm-none-eabi/lib/thumb/v7e-m/fpv4-sp/hard\libc_nano.a(lib_a-reent.o)
 .ARM.attributes
                0x000010e5       0x34 c:/a/gcc_arm/6/bin/../lib/gcc/arm-none-eabi/6.3.1/../../../../arm-none-eabi/lib/thumb/v7e-m/fpv4-sp/hard\libc_nano.a(lib_a-strchr.o)
 .ARM.attributes
                0x00001119       0x34 c:/a/gcc_arm/6/bin/../lib/gcc/arm-none-eabi/6.3.1/thumb/v7e-m/fpv4-sp/hard/crtend.o
 .ARM.attributes
                0x0000114d       0x22 c:/a/gcc_arm/6/bin/../lib/gcc/arm-none-eabi/6.3.1/thumb/v7e-m/fpv4-sp/hard/crtn.o
 .ARM.attributes
                0x0000116f       0x34 c:/a/gcc_arm/6/bin/../lib/gcc/arm-none-eabi/6.3.1/../../../../arm-none-eabi/lib/thumb/v7e-m/fpv4-sp/hard\libnosys.a(sbrk.o)
 .ARM.attributes
                0x000011a3       0x34 c:/a/gcc_arm/6/bin/../lib/gcc/arm-none-eabi/6.3.1/../../../../arm-none-eabi/lib/thumb/v7e-m/fpv4-sp/hard\libnosys.a(_exit.o)

.comment        0x00000000       0x7f
 .comment       0x00000000       0x7f examples/pb_remote/client/CMakeFiles/pb_remote_client_nrf52840_xxAA_s140_5.0.0-3.alpha.dir/src/main.c.obj
                                 0x80 (size before relaxing)
 .comment       0x0000007f       0x80 examples/pb_remote/client/CMakeFiles/pb_remote_client_nrf52840_xxAA_s140_5.0.0-3.alpha.dir/__/__/nrf_mesh_sdk.c.obj
 .comment       0x0000007f       0x80 examples/pb_remote/client/CMakeFiles/pb_remote_client_nrf52840_xxAA_s140_5.0.0-3.alpha.dir/__/__/__/models/pb_remote/src/pb_remote_client.c.obj
 .comment       0x0000007f       0x80 examples/pb_remote/client/CMakeFiles/pb_remote_client_nrf52840_xxAA_s140_5.0.0-3.alpha.dir/__/__/__/mesh/prov/src/prov_provisioner.c.obj
 .comment       0x0000007f       0x80 examples/pb_remote/client/CMakeFiles/pb_remote_client_nrf52840_xxAA_s140_5.0.0-3.alpha.dir/__/__/__/mesh/prov/src/nrf_mesh_prov.c.obj
 .comment       0x0000007f       0x80 examples/pb_remote/client/CMakeFiles/pb_remote_client_nrf52840_xxAA_s140_5.0.0-3.alpha.dir/__/__/__/mesh/prov/src/provisioning.c.obj
 .comment       0x0000007f       0x80 examples/pb_remote/client/CMakeFiles/pb_remote_client_nrf52840_xxAA_s140_5.0.0-3.alpha.dir/__/__/__/mesh/prov/src/prov_beacon.c.obj
 .comment       0x0000007f       0x80 examples/pb_remote/client/CMakeFiles/pb_remote_client_nrf52840_xxAA_s140_5.0.0-3.alpha.dir/__/__/__/mesh/prov/src/prov_utils.c.obj
 .comment       0x0000007f       0x80 examples/pb_remote/client/CMakeFiles/pb_remote_client_nrf52840_xxAA_s140_5.0.0-3.alpha.dir/__/__/__/mesh/prov/src/prov_bearer_adv.c.obj
 .comment       0x0000007f       0x80 examples/pb_remote/client/CMakeFiles/pb_remote_client_nrf52840_xxAA_s140_5.0.0-3.alpha.dir/__/__/__/mesh/access/src/access_publish.c.obj
 .comment       0x0000007f       0x80 examples/pb_remote/client/CMakeFiles/pb_remote_client_nrf52840_xxAA_s140_5.0.0-3.alpha.dir/__/__/__/mesh/access/src/access.c.obj
 .comment       0x0000007f       0x80 examples/pb_remote/client/CMakeFiles/pb_remote_client_nrf52840_xxAA_s140_5.0.0-3.alpha.dir/__/__/__/mesh/access/src/access_reliable.c.obj
 .comment       0x0000007f       0x80 examples/pb_remote/client/CMakeFiles/pb_remote_client_nrf52840_xxAA_s140_5.0.0-3.alpha.dir/__/__/__/mesh/access/src/device_state_manager.c.obj
 .comment       0x0000007f       0x80 examples/pb_remote/client/CMakeFiles/pb_remote_client_nrf52840_xxAA_s140_5.0.0-3.alpha.dir/__/__/nrf_mesh_weak.c.obj
 .comment       0x0000007f       0x80 examples/pb_remote/client/CMakeFiles/pb_remote_client_nrf52840_xxAA_s140_5.0.0-3.alpha.dir/__/__/__/external/nRF5_SDK_14.0.0_3bcc1f7/components/toolchain/system_nrf52840.c.obj
 .comment       0x0000007f       0x80 mesh/core/libmesh_core_nrf52840_xxAA.a(nrf_mesh_configure.c.obj)
 .comment       0x0000007f       0x80 mesh/core/libmesh_core_nrf52840_xxAA.a(event.c.obj)
 .comment       0x0000007f       0x80 mesh/core/libmesh_core_nrf52840_xxAA.a(fifo.c.obj)
 .comment       0x0000007f       0x80 mesh/core/libmesh_core_nrf52840_xxAA.a(net_state.c.obj)
 .comment       0x0000007f       0x80 mesh/core/libmesh_core_nrf52840_xxAA.a(nrf_mesh_utils.c.obj)
 .comment       0x0000007f       0x80 mesh/core/libmesh_core_nrf52840_xxAA.a(nrf_mesh.c.obj)
 .comment       0x0000007f       0x80 mesh/core/libmesh_core_nrf52840_xxAA.a(hal.c.obj)
 .comment       0x0000007f       0x80 mesh/core/libmesh_core_nrf52840_xxAA.a(timer_scheduler.c.obj)
 .comment       0x0000007f       0x80 mesh/core/libmesh_core_nrf52840_xxAA.a(timer.c.obj)
 .comment       0x0000007f       0x80 mesh/core/libmesh_core_nrf52840_xxAA.a(ticker.c.obj)
 .comment       0x0000007f       0x80 mesh/core/libmesh_core_nrf52840_xxAA.a(rand.c.obj)
 .comment       0x0000007f       0x80 mesh/core/libmesh_core_nrf52840_xxAA.a(timeslot.c.obj)
 .comment       0x0000007f       0x80 mesh/core/libmesh_core_nrf52840_xxAA.a(bearer_event.c.obj)
 .comment       0x0000007f       0x80 mesh/core/libmesh_core_nrf52840_xxAA.a(enc.c.obj)
 .comment       0x0000007f       0x80 mesh/core/libmesh_core_nrf52840_xxAA.a(network.c.obj)
 .comment       0x0000007f       0x80 mesh/core/libmesh_core_nrf52840_xxAA.a(nrf_mesh_keygen.c.obj)
 .comment       0x0000007f       0x80 mesh/core/libmesh_core_nrf52840_xxAA.a(log.c.obj)
 .comment       0x0000007f       0x80 mesh/core/libmesh_core_nrf52840_xxAA.a(flash_manager.c.obj)
 .comment       0x0000007f       0x80 mesh/core/libmesh_core_nrf52840_xxAA.a(ccm_soft.c.obj)
 .comment       0x0000007f       0x80 mesh/core/libmesh_core_nrf52840_xxAA.a(beacon.c.obj)
 .comment       0x0000007f       0x80 mesh/core/libmesh_core_nrf52840_xxAA.a(flash_manager_internal.c.obj)
 .comment       0x0000007f       0x80 mesh/core/libmesh_core_nrf52840_xxAA.a(core_tx.c.obj)
 .comment       0x0000007f       0x80 mesh/core/libmesh_core_nrf52840_xxAA.a(net_beacon.c.obj)
 .comment       0x0000007f       0x80 mesh/core/libmesh_core_nrf52840_xxAA.a(advertiser.c.obj)
 .comment       0x0000007f       0x80 mesh/core/libmesh_core_nrf52840_xxAA.a(bearer_handler.c.obj)
 .comment       0x0000007f       0x80 mesh/core/libmesh_core_nrf52840_xxAA.a(broadcast.c.obj)
 .comment       0x0000007f       0x80 mesh/core/libmesh_core_nrf52840_xxAA.a(radio_config.c.obj)
 .comment       0x0000007f       0x80 mesh/core/libmesh_core_nrf52840_xxAA.a(scanner.c.obj)
 .comment       0x0000007f       0x80 mesh/core/libmesh_core_nrf52840_xxAA.a(internal_event.c.obj)
 .comment       0x0000007f       0x80 mesh/core/libmesh_core_nrf52840_xxAA.a(aes.c.obj)
 .comment       0x0000007f       0x80 mesh/core/libmesh_core_nrf52840_xxAA.a(msg_cache.c.obj)
 .comment       0x0000007f       0x80 mesh/core/libmesh_core_nrf52840_xxAA.a(transport.c.obj)
 .comment       0x0000007f       0x80 mesh/core/libmesh_core_nrf52840_xxAA.a(packet_buffer.c.obj)
 .comment       0x0000007f       0x80 mesh/core/libmesh_core_nrf52840_xxAA.a(flash_manager_defrag.c.obj)
 .comment       0x0000007f       0x80 mesh/core/libmesh_core_nrf52840_xxAA.a(packet_mgr.c.obj)
 .comment       0x0000007f       0x80 mesh/core/libmesh_core_nrf52840_xxAA.a(mesh_flash.c.obj)
 .comment       0x0000007f       0x80 mesh/core/libmesh_core_nrf52840_xxAA.a(queue.c.obj)
 .comment       0x0000007f       0x80 mesh/core/libmesh_core_nrf52840_xxAA.a(aes_cmac.c.obj)
 .comment       0x0000007f       0x80 mesh/core/libmesh_core_nrf52840_xxAA.a(msqueue.c.obj)
 .comment       0x0000007f       0x80 mesh/core/libmesh_core_nrf52840_xxAA.a(replay_cache.c.obj)
 .comment       0x0000007f       0x80 mesh/core/libmesh_core_nrf52840_xxAA.a(filter_engine.c.obj)
 .comment       0x0000007f       0x80 mesh/core/libmesh_core_nrf52840_xxAA.a(nrf_flash.c.obj)
 .comment       0x0000007f       0x80 external/rtt/librtt_nrf52840_xxAA.a(SEGGER_RTT.c.obj)
 .comment       0x0000007f       0x80 external/rtt/librtt_nrf52840_xxAA.a(SEGGER_RTT_printf.c.obj)
 .comment       0x0000007f       0x80 external/micro-ecc/libuECC_nrf52840_xxAA.a(uECC.c.obj)

.debug_frame    0x00000000      0x2c4
 .debug_frame   0x00000000       0x28 c:/a/gcc_arm/6/bin/../lib/gcc/arm-none-eabi/6.3.1/../../../../arm-none-eabi/lib/thumb/v7e-m/fpv4-sp/hard\libc_nano.a(lib_a-exit.o)
 .debug_frame   0x00000028       0x2c c:/a/gcc_arm/6/bin/../lib/gcc/arm-none-eabi/6.3.1/../../../../arm-none-eabi/lib/thumb/v7e-m/fpv4-sp/hard\libc_nano.a(lib_a-init.o)
 .debug_frame   0x00000054       0x30 c:/a/gcc_arm/6/bin/../lib/gcc/arm-none-eabi/6.3.1/../../../../arm-none-eabi/lib/thumb/v7e-m/fpv4-sp/hard\libc_nano.a(lib_a-malloc.o)
 .debug_frame   0x00000084       0x28 c:/a/gcc_arm/6/bin/../lib/gcc/arm-none-eabi/6.3.1/../../../../arm-none-eabi/lib/thumb/v7e-m/fpv4-sp/hard\libc_nano.a(lib_a-memcmp.o)
 .debug_frame   0x000000ac       0x28 c:/a/gcc_arm/6/bin/../lib/gcc/arm-none-eabi/6.3.1/../../../../arm-none-eabi/lib/thumb/v7e-m/fpv4-sp/hard\libc_nano.a(lib_a-memcpy-stub.o)
 .debug_frame   0x000000d4       0x20 c:/a/gcc_arm/6/bin/../lib/gcc/arm-none-eabi/6.3.1/../../../../arm-none-eabi/lib/thumb/v7e-m/fpv4-sp/hard\libc_nano.a(lib_a-memset.o)
 .debug_frame   0x000000f4       0x38 c:/a/gcc_arm/6/bin/../lib/gcc/arm-none-eabi/6.3.1/../../../../arm-none-eabi/lib/thumb/v7e-m/fpv4-sp/hard\libc_nano.a(lib_a-nano-freer.o)
 .debug_frame   0x0000012c       0x2c c:/a/gcc_arm/6/bin/../lib/gcc/arm-none-eabi/6.3.1/../../../../arm-none-eabi/lib/thumb/v7e-m/fpv4-sp/hard\libc_nano.a(lib_a-nano-mallocr.o)
 .debug_frame   0x00000158       0x2c c:/a/gcc_arm/6/bin/../lib/gcc/arm-none-eabi/6.3.1/../../../../arm-none-eabi/lib/thumb/v7e-m/fpv4-sp/hard\libc_nano.a(lib_a-sbrkr.o)
 .debug_frame   0x00000184       0x20 c:/a/gcc_arm/6/bin/../lib/gcc/arm-none-eabi/6.3.1/../../../../arm-none-eabi/lib/thumb/v7e-m/fpv4-sp/hard\libc_nano.a(lib_a-strcpy.o)
 .debug_frame   0x000001a4       0x34 c:/a/gcc_arm/6/bin/../lib/gcc/arm-none-eabi/6.3.1/../../../../arm-none-eabi/lib/thumb/v7e-m/fpv4-sp/hard\libc_nano.a(lib_a-strrchr.o)
 .debug_frame   0x000001d8       0x30 c:/a/gcc_arm/6/bin/../lib/gcc/arm-none-eabi/6.3.1/../../../../arm-none-eabi/lib/thumb/v7e-m/fpv4-sp/hard\libc_nano.a(lib_a-mlock.o)
 .debug_frame   0x00000208       0x5c c:/a/gcc_arm/6/bin/../lib/gcc/arm-none-eabi/6.3.1/../../../../arm-none-eabi/lib/thumb/v7e-m/fpv4-sp/hard\libc_nano.a(lib_a-reent.o)
 .debug_frame   0x00000264       0x20 c:/a/gcc_arm/6/bin/../lib/gcc/arm-none-eabi/6.3.1/../../../../arm-none-eabi/lib/thumb/v7e-m/fpv4-sp/hard\libc_nano.a(lib_a-strchr.o)
 .debug_frame   0x00000284       0x20 c:/a/gcc_arm/6/bin/../lib/gcc/arm-none-eabi/6.3.1/../../../../arm-none-eabi/lib/thumb/v7e-m/fpv4-sp/hard\libnosys.a(sbrk.o)
 .debug_frame   0x000002a4       0x20 c:/a/gcc_arm/6/bin/../lib/gcc/arm-none-eabi/6.3.1/../../../../arm-none-eabi/lib/thumb/v7e-m/fpv4-sp/hard\libnosys.a(_exit.o)
