Archive member included to satisfy reference by file (symbol)

mesh/core/libmesh_core_nrf52832_xxAA.a(nrf_mesh_configure.c.obj)
                              examples/pb_remote/client/CMakeFiles/pb_remote_client_nrf52832_xxAA_s132_3.1.0.dir/__/__/__/mesh/prov/src/prov_beacon.c.obj (nrf_mesh_configure_device_uuid_get)
mesh/core/libmesh_core_nrf52832_xxAA.a(event.c.obj)
                              examples/pb_remote/client/CMakeFiles/pb_remote_client_nrf52832_xxAA_s132_3.1.0.dir/__/__/__/mesh/prov/src/prov_provisioner.c.obj (event_handle)
mesh/core/libmesh_core_nrf52832_xxAA.a(fifo.c.obj)
                              examples/pb_remote/client/CMakeFiles/pb_remote_client_nrf52832_xxAA_s132_3.1.0.dir/__/__/__/models/pb_remote/src/pb_remote_client.c.obj (fifo_init)
mesh/core/libmesh_core_nrf52832_xxAA.a(net_state.c.obj)
                              examples/pb_remote/client/CMakeFiles/pb_remote_client_nrf52832_xxAA_s132_3.1.0.dir/__/__/__/mesh/access/src/device_state_manager.c.obj (net_state_flash_area_get)
mesh/core/libmesh_core_nrf52832_xxAA.a(nrf_mesh_utils.c.obj)
                              examples/pb_remote/client/CMakeFiles/pb_remote_client_nrf52832_xxAA_s132_3.1.0.dir/__/__/__/mesh/prov/src/nrf_mesh_prov.c.obj (nrf_mesh_address_type_get)
mesh/core/libmesh_core_nrf52832_xxAA.a(nrf_mesh.c.obj)
                              examples/pb_remote/client/CMakeFiles/pb_remote_client_nrf52832_xxAA_s132_3.1.0.dir/__/__/nrf_mesh_sdk.c.obj (nrf_mesh_init)
mesh/core/libmesh_core_nrf52832_xxAA.a(hal.c.obj)
                              mesh/core/libmesh_core_nrf52832_xxAA.a(nrf_mesh.c.obj) (hal_lfclk_ppm_get)
mesh/core/libmesh_core_nrf52832_xxAA.a(timer_scheduler.c.obj)
                              mesh/core/libmesh_core_nrf52832_xxAA.a(nrf_mesh.c.obj) (timer_sch_init)
mesh/core/libmesh_core_nrf52832_xxAA.a(timer.c.obj)
                              mesh/core/libmesh_core_nrf52832_xxAA.a(timer_scheduler.c.obj) (timer_order_cb)
mesh/core/libmesh_core_nrf52832_xxAA.a(ticker.c.obj)
                              mesh/core/libmesh_core_nrf52832_xxAA.a(nrf_mesh.c.obj) (ticker_init)
mesh/core/libmesh_core_nrf52832_xxAA.a(rand.c.obj)
                              examples/pb_remote/client/CMakeFiles/pb_remote_client_nrf52832_xxAA_s132_3.1.0.dir/__/__/__/mesh/prov/src/prov_utils.c.obj (rand_hw_rng_get)
mesh/core/libmesh_core_nrf52832_xxAA.a(timeslot.c.obj)
                              mesh/core/libmesh_core_nrf52832_xxAA.a(nrf_mesh.c.obj) (timeslot_sd_event_handler)
mesh/core/libmesh_core_nrf52832_xxAA.a(bearer_event.c.obj)
                              mesh/core/libmesh_core_nrf52832_xxAA.a(nrf_mesh.c.obj) (bearer_event_init)
mesh/core/libmesh_core_nrf52832_xxAA.a(enc.c.obj)
                              examples/pb_remote/client/CMakeFiles/pb_remote_client_nrf52832_xxAA_s132_3.1.0.dir/__/__/__/mesh/prov/src/prov_utils.c.obj (enc_aes_cmac)
mesh/core/libmesh_core_nrf52832_xxAA.a(network.c.obj)
                              mesh/core/libmesh_core_nrf52832_xxAA.a(nrf_mesh.c.obj) (network_init)
mesh/core/libmesh_core_nrf52832_xxAA.a(nrf_mesh_keygen.c.obj)
                              examples/pb_remote/client/CMakeFiles/pb_remote_client_nrf52832_xxAA_s132_3.1.0.dir/__/__/__/mesh/access/src/device_state_manager.c.obj (nrf_mesh_keygen_aid)
mesh/core/libmesh_core_nrf52832_xxAA.a(log.c.obj)
                              examples/pb_remote/client/CMakeFiles/pb_remote_client_nrf52832_xxAA_s132_3.1.0.dir/src/main.c.obj (log_callback_rtt)
mesh/core/libmesh_core_nrf52832_xxAA.a(flash_manager.c.obj)
                              mesh/core/libmesh_core_nrf52832_xxAA.a(nrf_mesh.c.obj) (flash_manager_init)
mesh/core/libmesh_core_nrf52832_xxAA.a(ccm_soft.c.obj)
                              mesh/core/libmesh_core_nrf52832_xxAA.a(enc.c.obj) (ccm_soft_encrypt)
mesh/core/libmesh_core_nrf52832_xxAA.a(beacon.c.obj)
                              mesh/core/libmesh_core_nrf52832_xxAA.a(nrf_mesh.c.obj) (beacon_init)
mesh/core/libmesh_core_nrf52832_xxAA.a(flash_manager_internal.c.obj)
                              mesh/core/libmesh_core_nrf52832_xxAA.a(flash_manager.c.obj) (entry_get)
mesh/core/libmesh_core_nrf52832_xxAA.a(core_tx.c.obj)
                              mesh/core/libmesh_core_nrf52832_xxAA.a(nrf_mesh.c.obj) (core_tx_init)
mesh/core/libmesh_core_nrf52832_xxAA.a(net_beacon.c.obj)
                              mesh/core/libmesh_core_nrf52832_xxAA.a(network.c.obj) (net_beacon_init)
mesh/core/libmesh_core_nrf52832_xxAA.a(advertiser.c.obj)
                              mesh/core/libmesh_core_nrf52832_xxAA.a(nrf_mesh.c.obj) (advertiser_init)
mesh/core/libmesh_core_nrf52832_xxAA.a(bearer_handler.c.obj)
                              mesh/core/libmesh_core_nrf52832_xxAA.a(nrf_mesh.c.obj) (bearer_handler_init)
mesh/core/libmesh_core_nrf52832_xxAA.a(broadcast.c.obj)
                              mesh/core/libmesh_core_nrf52832_xxAA.a(advertiser.c.obj) (broadcast_send)
mesh/core/libmesh_core_nrf52832_xxAA.a(radio_config.c.obj)
                              mesh/core/libmesh_core_nrf52832_xxAA.a(broadcast.c.obj) (radio_config_reset)
mesh/core/libmesh_core_nrf52832_xxAA.a(scanner.c.obj)
                              mesh/core/libmesh_core_nrf52832_xxAA.a(bearer_handler.c.obj) (scanner_radio_start)
mesh/core/libmesh_core_nrf52832_xxAA.a(internal_event.c.obj)
                              mesh/core/libmesh_core_nrf52832_xxAA.a(network.c.obj) (internal_event_push)
mesh/core/libmesh_core_nrf52832_xxAA.a(aes.c.obj)
                              mesh/core/libmesh_core_nrf52832_xxAA.a(enc.c.obj) (aes_encrypt)
mesh/core/libmesh_core_nrf52832_xxAA.a(msg_cache.c.obj)
                              mesh/core/libmesh_core_nrf52832_xxAA.a(nrf_mesh.c.obj) (msg_cache_init)
mesh/core/libmesh_core_nrf52832_xxAA.a(transport.c.obj)
                              mesh/core/libmesh_core_nrf52832_xxAA.a(nrf_mesh.c.obj) (transport_init)
mesh/core/libmesh_core_nrf52832_xxAA.a(packet_buffer.c.obj)
                              mesh/core/libmesh_core_nrf52832_xxAA.a(flash_manager.c.obj) (packet_buffer_init)
mesh/core/libmesh_core_nrf52832_xxAA.a(flash_manager_defrag.c.obj)
                              mesh/core/libmesh_core_nrf52832_xxAA.a(flash_manager.c.obj) (flash_manager_defrag_init)
mesh/core/libmesh_core_nrf52832_xxAA.a(packet_mgr.c.obj)
                              mesh/core/libmesh_core_nrf52832_xxAA.a(nrf_mesh.c.obj) (packet_mgr_init)
mesh/core/libmesh_core_nrf52832_xxAA.a(mesh_flash.c.obj)
                              mesh/core/libmesh_core_nrf52832_xxAA.a(flash_manager.c.obj) (mesh_flash_user_callback_set)
mesh/core/libmesh_core_nrf52832_xxAA.a(queue.c.obj)
                              mesh/core/libmesh_core_nrf52832_xxAA.a(bearer_event.c.obj) (queue_init)
mesh/core/libmesh_core_nrf52832_xxAA.a(aes_cmac.c.obj)
                              mesh/core/libmesh_core_nrf52832_xxAA.a(enc.c.obj) (aes_cmac)
mesh/core/libmesh_core_nrf52832_xxAA.a(msqueue.c.obj)
                              mesh/core/libmesh_core_nrf52832_xxAA.a(mesh_flash.c.obj) (msq_init)
mesh/core/libmesh_core_nrf52832_xxAA.a(replay_cache.c.obj)
                              mesh/core/libmesh_core_nrf52832_xxAA.a(transport.c.obj) (replay_cache_init)
mesh/core/libmesh_core_nrf52832_xxAA.a(filter_engine.c.obj)
                              mesh/core/libmesh_core_nrf52832_xxAA.a(scanner.c.obj) (fen_filters_apply)
mesh/core/libmesh_core_nrf52832_xxAA.a(nrf_flash.c.obj)
                              mesh/core/libmesh_core_nrf52832_xxAA.a(mesh_flash.c.obj) (nrf_flash_erase)
external/rtt/librtt_nrf52832_xxAA.a(SEGGER_RTT.c.obj)
                              mesh/core/libmesh_core_nrf52832_xxAA.a(log.c.obj) (SEGGER_RTT_Write)
external/rtt/librtt_nrf52832_xxAA.a(SEGGER_RTT_printf.c.obj)
                              mesh/core/libmesh_core_nrf52832_xxAA.a(log.c.obj) (SEGGER_RTT_vprintf)
external/micro-ecc/libuECC_nrf52832_xxAA.a(uECC.c.obj)
                              examples/pb_remote/client/CMakeFiles/pb_remote_client_nrf52832_xxAA_s132_3.1.0.dir/__/__/__/mesh/prov/src/prov_utils.c.obj (uECC_secp256r1)
c:/a/gcc_arm/6/bin/../lib/gcc/arm-none-eabi/6.3.1/../../../../arm-none-eabi/lib/thumb/v7e-m/fpv4-sp/hard\libc_nano.a(lib_a-exit.o)
                              c:/a/gcc_arm/6/bin/../lib/gcc/arm-none-eabi/6.3.1/../../../../arm-none-eabi/lib/thumb/v7e-m/fpv4-sp/hard/crt0.o (exit)
c:/a/gcc_arm/6/bin/../lib/gcc/arm-none-eabi/6.3.1/../../../../arm-none-eabi/lib/thumb/v7e-m/fpv4-sp/hard\libc_nano.a(lib_a-impure.o)
                              c:/a/gcc_arm/6/bin/../lib/gcc/arm-none-eabi/6.3.1/../../../../arm-none-eabi/lib/thumb/v7e-m/fpv4-sp/hard\libc_nano.a(lib_a-exit.o) (_global_impure_ptr)
c:/a/gcc_arm/6/bin/../lib/gcc/arm-none-eabi/6.3.1/../../../../arm-none-eabi/lib/thumb/v7e-m/fpv4-sp/hard\libc_nano.a(lib_a-init.o)
                              c:/a/gcc_arm/6/bin/../lib/gcc/arm-none-eabi/6.3.1/../../../../arm-none-eabi/lib/thumb/v7e-m/fpv4-sp/hard/crt0.o (__libc_init_array)
c:/a/gcc_arm/6/bin/../lib/gcc/arm-none-eabi/6.3.1/../../../../arm-none-eabi/lib/thumb/v7e-m/fpv4-sp/hard\libc_nano.a(lib_a-malloc.o)
                              mesh/core/libmesh_core_nrf52832_xxAA.a(transport.c.obj) (malloc)
c:/a/gcc_arm/6/bin/../lib/gcc/arm-none-eabi/6.3.1/../../../../arm-none-eabi/lib/thumb/v7e-m/fpv4-sp/hard\libc_nano.a(lib_a-memcmp.o)
                              examples/pb_remote/client/CMakeFiles/pb_remote_client_nrf52832_xxAA_s132_3.1.0.dir/__/__/__/mesh/prov/src/prov_utils.c.obj (memcmp)
c:/a/gcc_arm/6/bin/../lib/gcc/arm-none-eabi/6.3.1/../../../../arm-none-eabi/lib/thumb/v7e-m/fpv4-sp/hard\libc_nano.a(lib_a-memcpy-stub.o)
                              examples/pb_remote/client/CMakeFiles/pb_remote_client_nrf52832_xxAA_s132_3.1.0.dir/__/__/__/models/pb_remote/src/pb_remote_client.c.obj (memcpy)
c:/a/gcc_arm/6/bin/../lib/gcc/arm-none-eabi/6.3.1/../../../../arm-none-eabi/lib/thumb/v7e-m/fpv4-sp/hard\libc_nano.a(lib_a-memset.o)
                              c:/a/gcc_arm/6/bin/../lib/gcc/arm-none-eabi/6.3.1/../../../../arm-none-eabi/lib/thumb/v7e-m/fpv4-sp/hard/crt0.o (memset)
c:/a/gcc_arm/6/bin/../lib/gcc/arm-none-eabi/6.3.1/../../../../arm-none-eabi/lib/thumb/v7e-m/fpv4-sp/hard\libc_nano.a(lib_a-nano-freer.o)
                              c:/a/gcc_arm/6/bin/../lib/gcc/arm-none-eabi/6.3.1/../../../../arm-none-eabi/lib/thumb/v7e-m/fpv4-sp/hard\libc_nano.a(lib_a-malloc.o) (_free_r)
c:/a/gcc_arm/6/bin/../lib/gcc/arm-none-eabi/6.3.1/../../../../arm-none-eabi/lib/thumb/v7e-m/fpv4-sp/hard\libc_nano.a(lib_a-nano-mallocr.o)
                              c:/a/gcc_arm/6/bin/../lib/gcc/arm-none-eabi/6.3.1/../../../../arm-none-eabi/lib/thumb/v7e-m/fpv4-sp/hard\libc_nano.a(lib_a-malloc.o) (_malloc_r)
c:/a/gcc_arm/6/bin/../lib/gcc/arm-none-eabi/6.3.1/../../../../arm-none-eabi/lib/thumb/v7e-m/fpv4-sp/hard\libc_nano.a(lib_a-sbrkr.o)
                              c:/a/gcc_arm/6/bin/../lib/gcc/arm-none-eabi/6.3.1/../../../../arm-none-eabi/lib/thumb/v7e-m/fpv4-sp/hard\libc_nano.a(lib_a-nano-mallocr.o) (_sbrk_r)
c:/a/gcc_arm/6/bin/../lib/gcc/arm-none-eabi/6.3.1/../../../../arm-none-eabi/lib/thumb/v7e-m/fpv4-sp/hard\libc_nano.a(lib_a-strcpy.o)
                              external/rtt/librtt_nrf52832_xxAA.a(SEGGER_RTT.c.obj) (strcpy)
c:/a/gcc_arm/6/bin/../lib/gcc/arm-none-eabi/6.3.1/../../../../arm-none-eabi/lib/thumb/v7e-m/fpv4-sp/hard\libc_nano.a(lib_a-strlen.o)
                              examples/pb_remote/client/CMakeFiles/pb_remote_client_nrf52832_xxAA_s132_3.1.0.dir/__/__/__/mesh/prov/src/prov_beacon.c.obj (strlen)
c:/a/gcc_arm/6/bin/../lib/gcc/arm-none-eabi/6.3.1/../../../../arm-none-eabi/lib/thumb/v7e-m/fpv4-sp/hard\libc_nano.a(lib_a-strrchr.o)
                              examples/pb_remote/client/CMakeFiles/pb_remote_client_nrf52832_xxAA_s132_3.1.0.dir/src/main.c.obj (strrchr)
c:/a/gcc_arm/6/bin/../lib/gcc/arm-none-eabi/6.3.1/../../../../arm-none-eabi/lib/thumb/v7e-m/fpv4-sp/hard\libc_nano.a(lib_a-mlock.o)
                              c:/a/gcc_arm/6/bin/../lib/gcc/arm-none-eabi/6.3.1/../../../../arm-none-eabi/lib/thumb/v7e-m/fpv4-sp/hard\libc_nano.a(lib_a-nano-freer.o) (__malloc_lock)
c:/a/gcc_arm/6/bin/../lib/gcc/arm-none-eabi/6.3.1/../../../../arm-none-eabi/lib/thumb/v7e-m/fpv4-sp/hard\libc_nano.a(lib_a-reent.o)
                              c:/a/gcc_arm/6/bin/../lib/gcc/arm-none-eabi/6.3.1/../../../../arm-none-eabi/lib/thumb/v7e-m/fpv4-sp/hard\libc_nano.a(lib_a-sbrkr.o) (errno)
c:/a/gcc_arm/6/bin/../lib/gcc/arm-none-eabi/6.3.1/../../../../arm-none-eabi/lib/thumb/v7e-m/fpv4-sp/hard\libc_nano.a(lib_a-strchr.o)
                              c:/a/gcc_arm/6/bin/../lib/gcc/arm-none-eabi/6.3.1/../../../../arm-none-eabi/lib/thumb/v7e-m/fpv4-sp/hard\libc_nano.a(lib_a-strrchr.o) (strchr)
c:/a/gcc_arm/6/bin/../lib/gcc/arm-none-eabi/6.3.1/../../../../arm-none-eabi/lib/thumb/v7e-m/fpv4-sp/hard\libnosys.a(sbrk.o)
                              c:/a/gcc_arm/6/bin/../lib/gcc/arm-none-eabi/6.3.1/../../../../arm-none-eabi/lib/thumb/v7e-m/fpv4-sp/hard\libc_nano.a(lib_a-sbrkr.o) (_sbrk)
c:/a/gcc_arm/6/bin/../lib/gcc/arm-none-eabi/6.3.1/../../../../arm-none-eabi/lib/thumb/v7e-m/fpv4-sp/hard\libnosys.a(_exit.o)
                              c:/a/gcc_arm/6/bin/../lib/gcc/arm-none-eabi/6.3.1/../../../../arm-none-eabi/lib/thumb/v7e-m/fpv4-sp/hard\libc_nano.a(lib_a-exit.o) (_exit)

Allocating common symbols
Common symbol       size              file

nrf_nvic_state      0xc               examples/pb_remote/client/CMakeFiles/pb_remote_client_nrf52832_xxAA_s132_3.1.0.dir/__/__/nrf_mesh_sdk.c.obj
errno               0x4               c:/a/gcc_arm/6/bin/../lib/gcc/arm-none-eabi/6.3.1/../../../../arm-none-eabi/lib/thumb/v7e-m/fpv4-sp/hard\libc_nano.a(lib_a-reent.o)
m_assertion_handler
                    0x4               mesh/core/libmesh_core_nrf52832_xxAA.a(nrf_mesh.c.obj)
_SEGGER_RTT         0x78              external/rtt/librtt_nrf52832_xxAA.a(SEGGER_RTT.c.obj)

Discarded input sections

 .text          0x00000000        0x0 c:/a/gcc_arm/6/bin/../lib/gcc/arm-none-eabi/6.3.1/thumb/v7e-m/fpv4-sp/hard/crti.o
 .data          0x00000000        0x0 c:/a/gcc_arm/6/bin/../lib/gcc/arm-none-eabi/6.3.1/thumb/v7e-m/fpv4-sp/hard/crti.o
 .bss           0x00000000        0x0 c:/a/gcc_arm/6/bin/../lib/gcc/arm-none-eabi/6.3.1/thumb/v7e-m/fpv4-sp/hard/crti.o
 .data          0x00000000        0x4 c:/a/gcc_arm/6/bin/../lib/gcc/arm-none-eabi/6.3.1/thumb/v7e-m/fpv4-sp/hard/crtbegin.o
 .data          0x00000000        0x0 c:/a/gcc_arm/6/bin/../lib/gcc/arm-none-eabi/6.3.1/../../../../arm-none-eabi/lib/thumb/v7e-m/fpv4-sp/hard/crt0.o
 .bss           0x00000000        0x0 c:/a/gcc_arm/6/bin/../lib/gcc/arm-none-eabi/6.3.1/../../../../arm-none-eabi/lib/thumb/v7e-m/fpv4-sp/hard/crt0.o
 .ARM.extab     0x00000000        0x0 c:/a/gcc_arm/6/bin/../lib/gcc/arm-none-eabi/6.3.1/../../../../arm-none-eabi/lib/thumb/v7e-m/fpv4-sp/hard/crt0.o
 .text          0x00000000        0x0 examples/pb_remote/client/CMakeFiles/pb_remote_client_nrf52832_xxAA_s132_3.1.0.dir/src/main.c.obj
 .data          0x00000000        0x0 examples/pb_remote/client/CMakeFiles/pb_remote_client_nrf52832_xxAA_s132_3.1.0.dir/src/main.c.obj
 .bss           0x00000000        0x0 examples/pb_remote/client/CMakeFiles/pb_remote_client_nrf52832_xxAA_s132_3.1.0.dir/src/main.c.obj
 .text          0x00000000        0x0 examples/pb_remote/client/CMakeFiles/pb_remote_client_nrf52832_xxAA_s132_3.1.0.dir/__/__/nrf_mesh_sdk.c.obj
 .data          0x00000000        0x0 examples/pb_remote/client/CMakeFiles/pb_remote_client_nrf52832_xxAA_s132_3.1.0.dir/__/__/nrf_mesh_sdk.c.obj
 .bss           0x00000000        0x0 examples/pb_remote/client/CMakeFiles/pb_remote_client_nrf52832_xxAA_s132_3.1.0.dir/__/__/nrf_mesh_sdk.c.obj
 .text.mesh_softdevice_enable
                0x00000000      0x150 examples/pb_remote/client/CMakeFiles/pb_remote_client_nrf52832_xxAA_s132_3.1.0.dir/__/__/nrf_mesh_sdk.c.obj
 .text          0x00000000        0x0 examples/pb_remote/client/CMakeFiles/pb_remote_client_nrf52832_xxAA_s132_3.1.0.dir/__/__/__/models/pb_remote/src/pb_remote_client.c.obj
 .data          0x00000000        0x0 examples/pb_remote/client/CMakeFiles/pb_remote_client_nrf52832_xxAA_s132_3.1.0.dir/__/__/__/models/pb_remote/src/pb_remote_client.c.obj
 .bss           0x00000000        0x0 examples/pb_remote/client/CMakeFiles/pb_remote_client_nrf52832_xxAA_s132_3.1.0.dir/__/__/__/models/pb_remote/src/pb_remote_client.c.obj
 .text          0x00000000        0x0 examples/pb_remote/client/CMakeFiles/pb_remote_client_nrf52832_xxAA_s132_3.1.0.dir/__/__/__/mesh/prov/src/prov_provisioner.c.obj
 .data          0x00000000        0x0 examples/pb_remote/client/CMakeFiles/pb_remote_client_nrf52832_xxAA_s132_3.1.0.dir/__/__/__/mesh/prov/src/prov_provisioner.c.obj
 .bss           0x00000000        0x0 examples/pb_remote/client/CMakeFiles/pb_remote_client_nrf52832_xxAA_s132_3.1.0.dir/__/__/__/mesh/prov/src/prov_provisioner.c.obj
 .text.prov_provisioner_shared_secret
                0x00000000       0xcc examples/pb_remote/client/CMakeFiles/pb_remote_client_nrf52832_xxAA_s132_3.1.0.dir/__/__/__/mesh/prov/src/prov_provisioner.c.obj
 .text.prov_provisioner_oob_pubkey
                0x00000000       0x38 examples/pb_remote/client/CMakeFiles/pb_remote_client_nrf52832_xxAA_s132_3.1.0.dir/__/__/__/mesh/prov/src/prov_provisioner.c.obj
 .text          0x00000000        0x0 examples/pb_remote/client/CMakeFiles/pb_remote_client_nrf52832_xxAA_s132_3.1.0.dir/__/__/__/mesh/prov/src/nrf_mesh_prov.c.obj
 .data          0x00000000        0x0 examples/pb_remote/client/CMakeFiles/pb_remote_client_nrf52832_xxAA_s132_3.1.0.dir/__/__/__/mesh/prov/src/nrf_mesh_prov.c.obj
 .bss           0x00000000        0x0 examples/pb_remote/client/CMakeFiles/pb_remote_client_nrf52832_xxAA_s132_3.1.0.dir/__/__/__/mesh/prov/src/nrf_mesh_prov.c.obj
 .text.nrf_mesh_prov_listen
                0x00000000       0x28 examples/pb_remote/client/CMakeFiles/pb_remote_client_nrf52832_xxAA_s132_3.1.0.dir/__/__/__/mesh/prov/src/nrf_mesh_prov.c.obj
 .text.nrf_mesh_prov_shared_secret_provide
                0x00000000       0x10 examples/pb_remote/client/CMakeFiles/pb_remote_client_nrf52832_xxAA_s132_3.1.0.dir/__/__/__/mesh/prov/src/nrf_mesh_prov.c.obj
 .text.nrf_mesh_prov_pubkey_provide
                0x00000000       0x10 examples/pb_remote/client/CMakeFiles/pb_remote_client_nrf52832_xxAA_s132_3.1.0.dir/__/__/__/mesh/prov/src/nrf_mesh_prov.c.obj
 .text          0x00000000        0x0 examples/pb_remote/client/CMakeFiles/pb_remote_client_nrf52832_xxAA_s132_3.1.0.dir/__/__/__/mesh/prov/src/provisioning.c.obj
 .data          0x00000000        0x0 examples/pb_remote/client/CMakeFiles/pb_remote_client_nrf52832_xxAA_s132_3.1.0.dir/__/__/__/mesh/prov/src/provisioning.c.obj
 .bss           0x00000000        0x0 examples/pb_remote/client/CMakeFiles/pb_remote_client_nrf52832_xxAA_s132_3.1.0.dir/__/__/__/mesh/prov/src/provisioning.c.obj
 .text.prov_listen_start
                0x00000000       0x14 examples/pb_remote/client/CMakeFiles/pb_remote_client_nrf52832_xxAA_s132_3.1.0.dir/__/__/__/mesh/prov/src/provisioning.c.obj
 .text.prov_listen_stop
                0x00000000        0x8 examples/pb_remote/client/CMakeFiles/pb_remote_client_nrf52832_xxAA_s132_3.1.0.dir/__/__/__/mesh/prov/src/provisioning.c.obj
 .text.prov_tx_capabilities
                0x00000000       0x4c examples/pb_remote/client/CMakeFiles/pb_remote_client_nrf52832_xxAA_s132_3.1.0.dir/__/__/__/mesh/prov/src/provisioning.c.obj
 .text.prov_tx_input_complete
                0x00000000       0x34 examples/pb_remote/client/CMakeFiles/pb_remote_client_nrf52832_xxAA_s132_3.1.0.dir/__/__/__/mesh/prov/src/provisioning.c.obj
 .text.prov_tx_complete
                0x00000000       0x34 examples/pb_remote/client/CMakeFiles/pb_remote_client_nrf52832_xxAA_s132_3.1.0.dir/__/__/__/mesh/prov/src/provisioning.c.obj
 .text.prov_tx_failed
                0x00000000       0x38 examples/pb_remote/client/CMakeFiles/pb_remote_client_nrf52832_xxAA_s132_3.1.0.dir/__/__/__/mesh/prov/src/provisioning.c.obj
 .text.prov_tx  0x00000000       0x50 examples/pb_remote/client/CMakeFiles/pb_remote_client_nrf52832_xxAA_s132_3.1.0.dir/__/__/__/mesh/prov/src/provisioning.c.obj
 .text          0x00000000        0x0 examples/pb_remote/client/CMakeFiles/pb_remote_client_nrf52832_xxAA_s132_3.1.0.dir/__/__/__/mesh/prov/src/prov_beacon.c.obj
 .data          0x00000000        0x0 examples/pb_remote/client/CMakeFiles/pb_remote_client_nrf52832_xxAA_s132_3.1.0.dir/__/__/__/mesh/prov/src/prov_beacon.c.obj
 .bss           0x00000000        0x0 examples/pb_remote/client/CMakeFiles/pb_remote_client_nrf52832_xxAA_s132_3.1.0.dir/__/__/__/mesh/prov/src/prov_beacon.c.obj
 .text.prov_beacon_unprov_report
                0x00000000        0xc examples/pb_remote/client/CMakeFiles/pb_remote_client_nrf52832_xxAA_s132_3.1.0.dir/__/__/__/mesh/prov/src/prov_beacon.c.obj
 .text          0x00000000        0x0 examples/pb_remote/client/CMakeFiles/pb_remote_client_nrf52832_xxAA_s132_3.1.0.dir/__/__/__/mesh/prov/src/prov_utils.c.obj
 .data          0x00000000        0x0 examples/pb_remote/client/CMakeFiles/pb_remote_client_nrf52832_xxAA_s132_3.1.0.dir/__/__/__/mesh/prov/src/prov_utils.c.obj
 .bss           0x00000000        0x0 examples/pb_remote/client/CMakeFiles/pb_remote_client_nrf52832_xxAA_s132_3.1.0.dir/__/__/__/mesh/prov/src/prov_utils.c.obj
 .text.prov_utils_opt_set
                0x00000000       0x24 examples/pb_remote/client/CMakeFiles/pb_remote_client_nrf52832_xxAA_s132_3.1.0.dir/__/__/__/mesh/prov/src/prov_utils.c.obj
 .text.prov_utils_opt_get
                0x00000000       0x1c examples/pb_remote/client/CMakeFiles/pb_remote_client_nrf52832_xxAA_s132_3.1.0.dir/__/__/__/mesh/prov/src/prov_utils.c.obj
 .text          0x00000000        0x0 examples/pb_remote/client/CMakeFiles/pb_remote_client_nrf52832_xxAA_s132_3.1.0.dir/__/__/__/mesh/prov/src/prov_bearer_adv.c.obj
 .data          0x00000000        0x0 examples/pb_remote/client/CMakeFiles/pb_remote_client_nrf52832_xxAA_s132_3.1.0.dir/__/__/__/mesh/prov/src/prov_bearer_adv.c.obj
 .bss           0x00000000        0x0 examples/pb_remote/client/CMakeFiles/pb_remote_client_nrf52832_xxAA_s132_3.1.0.dir/__/__/__/mesh/prov/src/prov_bearer_adv.c.obj
 .text.calculate_3GPP_CRC
                0x00000000       0x28 examples/pb_remote/client/CMakeFiles/pb_remote_client_nrf52832_xxAA_s132_3.1.0.dir/__/__/__/mesh/prov/src/prov_bearer_adv.c.obj
 .text          0x00000000        0x0 examples/pb_remote/client/CMakeFiles/pb_remote_client_nrf52832_xxAA_s132_3.1.0.dir/__/__/__/mesh/access/src/access_publish.c.obj
 .data          0x00000000        0x0 examples/pb_remote/client/CMakeFiles/pb_remote_client_nrf52832_xxAA_s132_3.1.0.dir/__/__/__/mesh/access/src/access_publish.c.obj
 .bss           0x00000000        0x0 examples/pb_remote/client/CMakeFiles/pb_remote_client_nrf52832_xxAA_s132_3.1.0.dir/__/__/__/mesh/access/src/access_publish.c.obj
 .text.access_publish_period_set
                0x00000000       0xa4 examples/pb_remote/client/CMakeFiles/pb_remote_client_nrf52832_xxAA_s132_3.1.0.dir/__/__/__/mesh/access/src/access_publish.c.obj
 .text.access_publish_period_get
                0x00000000       0x38 examples/pb_remote/client/CMakeFiles/pb_remote_client_nrf52832_xxAA_s132_3.1.0.dir/__/__/__/mesh/access/src/access_publish.c.obj
 .text          0x00000000        0x0 examples/pb_remote/client/CMakeFiles/pb_remote_client_nrf52832_xxAA_s132_3.1.0.dir/__/__/__/mesh/access/src/access.c.obj
 .data          0x00000000        0x0 examples/pb_remote/client/CMakeFiles/pb_remote_client_nrf52832_xxAA_s132_3.1.0.dir/__/__/__/mesh/access/src/access.c.obj
 .bss           0x00000000        0x0 examples/pb_remote/client/CMakeFiles/pb_remote_client_nrf52832_xxAA_s132_3.1.0.dir/__/__/__/mesh/access/src/access.c.obj
 .text.access_flash_config_clear
                0x00000000       0x28 examples/pb_remote/client/CMakeFiles/pb_remote_client_nrf52832_xxAA_s132_3.1.0.dir/__/__/__/mesh/access/src/access.c.obj
 .text.access_flash_config_store
                0x00000000      0x138 examples/pb_remote/client/CMakeFiles/pb_remote_client_nrf52832_xxAA_s132_3.1.0.dir/__/__/__/mesh/access/src/access.c.obj
 .text.access_flash_config_load
                0x00000000      0x2d8 examples/pb_remote/client/CMakeFiles/pb_remote_client_nrf52832_xxAA_s132_3.1.0.dir/__/__/__/mesh/access/src/access.c.obj
 .text.access_clear
                0x00000000       0x6c examples/pb_remote/client/CMakeFiles/pb_remote_client_nrf52832_xxAA_s132_3.1.0.dir/__/__/__/mesh/access/src/access.c.obj
 .text.access_model_publish_period_set
                0x00000000       0x78 examples/pb_remote/client/CMakeFiles/pb_remote_client_nrf52832_xxAA_s132_3.1.0.dir/__/__/__/mesh/access/src/access.c.obj
 .text.access_model_publish_period_get
                0x00000000       0x40 examples/pb_remote/client/CMakeFiles/pb_remote_client_nrf52832_xxAA_s132_3.1.0.dir/__/__/__/mesh/access/src/access.c.obj
 .text.access_model_subscription_list_alloc
                0x00000000       0x60 examples/pb_remote/client/CMakeFiles/pb_remote_client_nrf52832_xxAA_s132_3.1.0.dir/__/__/__/mesh/access/src/access.c.obj
 .text.access_model_subscription_lists_share
                0x00000000       0x60 examples/pb_remote/client/CMakeFiles/pb_remote_client_nrf52832_xxAA_s132_3.1.0.dir/__/__/__/mesh/access/src/access.c.obj
 .text.access_model_subscription_add
                0x00000000       0x60 examples/pb_remote/client/CMakeFiles/pb_remote_client_nrf52832_xxAA_s132_3.1.0.dir/__/__/__/mesh/access/src/access.c.obj
 .text.access_model_subscription_remove
                0x00000000       0x60 examples/pb_remote/client/CMakeFiles/pb_remote_client_nrf52832_xxAA_s132_3.1.0.dir/__/__/__/mesh/access/src/access.c.obj
 .text.access_model_subscriptions_get
                0x00000000      0x130 examples/pb_remote/client/CMakeFiles/pb_remote_client_nrf52832_xxAA_s132_3.1.0.dir/__/__/__/mesh/access/src/access.c.obj
 .text.access_model_application_unbind
                0x00000000       0x58 examples/pb_remote/client/CMakeFiles/pb_remote_client_nrf52832_xxAA_s132_3.1.0.dir/__/__/__/mesh/access/src/access.c.obj
 .text.access_model_applications_get
                0x00000000       0x4c examples/pb_remote/client/CMakeFiles/pb_remote_client_nrf52832_xxAA_s132_3.1.0.dir/__/__/__/mesh/access/src/access.c.obj
 .text.access_model_publish_application_get
                0x00000000       0x2c examples/pb_remote/client/CMakeFiles/pb_remote_client_nrf52832_xxAA_s132_3.1.0.dir/__/__/__/mesh/access/src/access.c.obj
 .text.access_default_ttl_set
                0x00000000       0x10 examples/pb_remote/client/CMakeFiles/pb_remote_client_nrf52832_xxAA_s132_3.1.0.dir/__/__/__/mesh/access/src/access.c.obj
 .text.access_default_ttl_get
                0x00000000        0xc examples/pb_remote/client/CMakeFiles/pb_remote_client_nrf52832_xxAA_s132_3.1.0.dir/__/__/__/mesh/access/src/access.c.obj
 .text.access_element_location_set
                0x00000000       0x20 examples/pb_remote/client/CMakeFiles/pb_remote_client_nrf52832_xxAA_s132_3.1.0.dir/__/__/__/mesh/access/src/access.c.obj
 .text.access_element_location_get
                0x00000000       0x18 examples/pb_remote/client/CMakeFiles/pb_remote_client_nrf52832_xxAA_s132_3.1.0.dir/__/__/__/mesh/access/src/access.c.obj
 .text.access_element_sig_model_count_get
                0x00000000       0x18 examples/pb_remote/client/CMakeFiles/pb_remote_client_nrf52832_xxAA_s132_3.1.0.dir/__/__/__/mesh/access/src/access.c.obj
 .text.access_element_vendor_model_count_get
                0x00000000       0x18 examples/pb_remote/client/CMakeFiles/pb_remote_client_nrf52832_xxAA_s132_3.1.0.dir/__/__/__/mesh/access/src/access.c.obj
 .text.access_model_id_get
                0x00000000       0x40 examples/pb_remote/client/CMakeFiles/pb_remote_client_nrf52832_xxAA_s132_3.1.0.dir/__/__/__/mesh/access/src/access.c.obj
 .text.access_handle_get
                0x00000000       0x5c examples/pb_remote/client/CMakeFiles/pb_remote_client_nrf52832_xxAA_s132_3.1.0.dir/__/__/__/mesh/access/src/access.c.obj
 .text.access_element_models_get
                0x00000000       0x60 examples/pb_remote/client/CMakeFiles/pb_remote_client_nrf52832_xxAA_s132_3.1.0.dir/__/__/__/mesh/access/src/access.c.obj
 .bss.m_metadata_stored
                0x00000000        0x1 examples/pb_remote/client/CMakeFiles/pb_remote_client_nrf52832_xxAA_s132_3.1.0.dir/__/__/__/mesh/access/src/access.c.obj
 .data.flash_clear_mem_available_struct.10322
                0x00000000       0x10 examples/pb_remote/client/CMakeFiles/pb_remote_client_nrf52832_xxAA_s132_3.1.0.dir/__/__/__/mesh/access/src/access.c.obj
 .data.flash_store_mem_available_struct.10346
                0x00000000       0x10 examples/pb_remote/client/CMakeFiles/pb_remote_client_nrf52832_xxAA_s132_3.1.0.dir/__/__/__/mesh/access/src/access.c.obj
 .rodata.multiply_de_bruijn_bit_position.8982
                0x00000000       0x20 examples/pb_remote/client/CMakeFiles/pb_remote_client_nrf52832_xxAA_s132_3.1.0.dir/__/__/__/mesh/access/src/access.c.obj
 .text          0x00000000        0x0 examples/pb_remote/client/CMakeFiles/pb_remote_client_nrf52832_xxAA_s132_3.1.0.dir/__/__/__/mesh/access/src/access_reliable.c.obj
 .data          0x00000000        0x0 examples/pb_remote/client/CMakeFiles/pb_remote_client_nrf52832_xxAA_s132_3.1.0.dir/__/__/__/mesh/access/src/access_reliable.c.obj
 .bss           0x00000000        0x0 examples/pb_remote/client/CMakeFiles/pb_remote_client_nrf52832_xxAA_s132_3.1.0.dir/__/__/__/mesh/access/src/access_reliable.c.obj
 .text.access_reliable_cancel_all
                0x00000000       0x34 examples/pb_remote/client/CMakeFiles/pb_remote_client_nrf52832_xxAA_s132_3.1.0.dir/__/__/__/mesh/access/src/access_reliable.c.obj
 .text          0x00000000        0x0 examples/pb_remote/client/CMakeFiles/pb_remote_client_nrf52832_xxAA_s132_3.1.0.dir/__/__/__/mesh/access/src/device_state_manager.c.obj
 .data          0x00000000        0x0 examples/pb_remote/client/CMakeFiles/pb_remote_client_nrf52832_xxAA_s132_3.1.0.dir/__/__/__/mesh/access/src/device_state_manager.c.obj
 .bss           0x00000000        0x0 examples/pb_remote/client/CMakeFiles/pb_remote_client_nrf52832_xxAA_s132_3.1.0.dir/__/__/__/mesh/access/src/device_state_manager.c.obj
 .text.reset_flash_area
                0x00000000       0x28 examples/pb_remote/client/CMakeFiles/pb_remote_client_nrf52832_xxAA_s132_3.1.0.dir/__/__/__/mesh/access/src/device_state_manager.c.obj
 .text.address_delete_if_unused
                0x00000000       0xe0 examples/pb_remote/client/CMakeFiles/pb_remote_client_nrf52832_xxAA_s132_3.1.0.dir/__/__/__/mesh/access/src/device_state_manager.c.obj
 .text.dsm_flash_config_load
                0x00000000      0x190 examples/pb_remote/client/CMakeFiles/pb_remote_client_nrf52832_xxAA_s132_3.1.0.dir/__/__/__/mesh/access/src/device_state_manager.c.obj
 .text.dsm_has_unflashed_data
                0x00000000       0x58 examples/pb_remote/client/CMakeFiles/pb_remote_client_nrf52832_xxAA_s132_3.1.0.dir/__/__/__/mesh/access/src/device_state_manager.c.obj
 .text.dsm_clear
                0x00000000       0x88 examples/pb_remote/client/CMakeFiles/pb_remote_client_nrf52832_xxAA_s132_3.1.0.dir/__/__/__/mesh/access/src/device_state_manager.c.obj
 .text.dsm_address_publish_add_handle
                0x00000000       0x4c examples/pb_remote/client/CMakeFiles/pb_remote_client_nrf52832_xxAA_s132_3.1.0.dir/__/__/__/mesh/access/src/device_state_manager.c.obj
 .text.dsm_address_publish_virtual_add
                0x00000000       0xd0 examples/pb_remote/client/CMakeFiles/pb_remote_client_nrf52832_xxAA_s132_3.1.0.dir/__/__/__/mesh/access/src/device_state_manager.c.obj
 .text.dsm_address_publish_remove
                0x00000000       0xac examples/pb_remote/client/CMakeFiles/pb_remote_client_nrf52832_xxAA_s132_3.1.0.dir/__/__/__/mesh/access/src/device_state_manager.c.obj
 .text.dsm_address_subscription_add
                0x00000000      0x14c examples/pb_remote/client/CMakeFiles/pb_remote_client_nrf52832_xxAA_s132_3.1.0.dir/__/__/__/mesh/access/src/device_state_manager.c.obj
 .text.dsm_address_subscription_virtual_add
                0x00000000       0xd0 examples/pb_remote/client/CMakeFiles/pb_remote_client_nrf52832_xxAA_s132_3.1.0.dir/__/__/__/mesh/access/src/device_state_manager.c.obj
 .text.dsm_address_subscription_add_handle
                0x00000000       0x4c examples/pb_remote/client/CMakeFiles/pb_remote_client_nrf52832_xxAA_s132_3.1.0.dir/__/__/__/mesh/access/src/device_state_manager.c.obj
 .text.dsm_address_subscription_count_get
                0x00000000       0x78 examples/pb_remote/client/CMakeFiles/pb_remote_client_nrf52832_xxAA_s132_3.1.0.dir/__/__/__/mesh/access/src/device_state_manager.c.obj
 .text.dsm_address_subscription_remove
                0x00000000       0x84 examples/pb_remote/client/CMakeFiles/pb_remote_client_nrf52832_xxAA_s132_3.1.0.dir/__/__/__/mesh/access/src/device_state_manager.c.obj
 .text.dsm_address_get_all
                0x00000000       0x98 examples/pb_remote/client/CMakeFiles/pb_remote_client_nrf52832_xxAA_s132_3.1.0.dir/__/__/__/mesh/access/src/device_state_manager.c.obj
 .text.dsm_net_key_index_to_subnet_handle
                0x00000000       0x28 examples/pb_remote/client/CMakeFiles/pb_remote_client_nrf52832_xxAA_s132_3.1.0.dir/__/__/__/mesh/access/src/device_state_manager.c.obj
 .text.dsm_subnet_handle_get
                0x00000000       0x1c examples/pb_remote/client/CMakeFiles/pb_remote_client_nrf52832_xxAA_s132_3.1.0.dir/__/__/__/mesh/access/src/device_state_manager.c.obj
 .text.dsm_subnet_handle_to_netkey_index
                0x00000000       0x24 examples/pb_remote/client/CMakeFiles/pb_remote_client_nrf52832_xxAA_s132_3.1.0.dir/__/__/__/mesh/access/src/device_state_manager.c.obj
 .text.dsm_app_key_index_to_appkey_handle
                0x00000000       0x28 examples/pb_remote/client/CMakeFiles/pb_remote_client_nrf52832_xxAA_s132_3.1.0.dir/__/__/__/mesh/access/src/device_state_manager.c.obj
 .text.dsm_appkey_handle_to_appkey_index
                0x00000000       0x24 examples/pb_remote/client/CMakeFiles/pb_remote_client_nrf52832_xxAA_s132_3.1.0.dir/__/__/__/mesh/access/src/device_state_manager.c.obj
 .text.dsm_subnet_update
                0x00000000       0x84 examples/pb_remote/client/CMakeFiles/pb_remote_client_nrf52832_xxAA_s132_3.1.0.dir/__/__/__/mesh/access/src/device_state_manager.c.obj
 .text.dsm_subnet_delete
                0x00000000      0x2a4 examples/pb_remote/client/CMakeFiles/pb_remote_client_nrf52832_xxAA_s132_3.1.0.dir/__/__/__/mesh/access/src/device_state_manager.c.obj
 .text.dsm_subnet_get_all
                0x00000000       0x44 examples/pb_remote/client/CMakeFiles/pb_remote_client_nrf52832_xxAA_s132_3.1.0.dir/__/__/__/mesh/access/src/device_state_manager.c.obj
 .text.dsm_devkey_delete
                0x00000000       0x80 examples/pb_remote/client/CMakeFiles/pb_remote_client_nrf52832_xxAA_s132_3.1.0.dir/__/__/__/mesh/access/src/device_state_manager.c.obj
 .text.dsm_devkey_handle_get
                0x00000000       0x98 examples/pb_remote/client/CMakeFiles/pb_remote_client_nrf52832_xxAA_s132_3.1.0.dir/__/__/__/mesh/access/src/device_state_manager.c.obj
 .text.dsm_appkey_update
                0x00000000       0xcc examples/pb_remote/client/CMakeFiles/pb_remote_client_nrf52832_xxAA_s132_3.1.0.dir/__/__/__/mesh/access/src/device_state_manager.c.obj
 .text.dsm_appkey_delete
                0x00000000       0x60 examples/pb_remote/client/CMakeFiles/pb_remote_client_nrf52832_xxAA_s132_3.1.0.dir/__/__/__/mesh/access/src/device_state_manager.c.obj
 .text.dsm_appkey_get_all
                0x00000000       0x54 examples/pb_remote/client/CMakeFiles/pb_remote_client_nrf52832_xxAA_s132_3.1.0.dir/__/__/__/mesh/access/src/device_state_manager.c.obj
 .text.dsm_beacon_secmat_get
                0x00000000       0x24 examples/pb_remote/client/CMakeFiles/pb_remote_client_nrf52832_xxAA_s132_3.1.0.dir/__/__/__/mesh/access/src/device_state_manager.c.obj
 .text.dsm_proxy_identity_get
                0x00000000        0x4 examples/pb_remote/client/CMakeFiles/pb_remote_client_nrf52832_xxAA_s132_3.1.0.dir/__/__/__/mesh/access/src/device_state_manager.c.obj
 .data.mem_listener.10485
                0x00000000       0x10 examples/pb_remote/client/CMakeFiles/pb_remote_client_nrf52832_xxAA_s132_3.1.0.dir/__/__/__/mesh/access/src/device_state_manager.c.obj
 .text          0x00000000        0x0 examples/pb_remote/client/CMakeFiles/pb_remote_client_nrf52832_xxAA_s132_3.1.0.dir/__/__/nrf_mesh_weak.c.obj
 .data          0x00000000        0x0 examples/pb_remote/client/CMakeFiles/pb_remote_client_nrf52832_xxAA_s132_3.1.0.dir/__/__/nrf_mesh_weak.c.obj
 .bss           0x00000000        0x0 examples/pb_remote/client/CMakeFiles/pb_remote_client_nrf52832_xxAA_s132_3.1.0.dir/__/__/nrf_mesh_weak.c.obj
 .text._weak_handler_ptr
                0x00000000        0x4 examples/pb_remote/client/CMakeFiles/pb_remote_client_nrf52832_xxAA_s132_3.1.0.dir/__/__/nrf_mesh_weak.c.obj
 .text          0x00000000        0x0 examples/pb_remote/client/CMakeFiles/pb_remote_client_nrf52832_xxAA_s132_3.1.0.dir/__/__/__/external/nRF5_SDK_14.0.0_3bcc1f7/components/toolchain/system_nrf52.c.obj
 .data          0x00000000        0x0 examples/pb_remote/client/CMakeFiles/pb_remote_client_nrf52832_xxAA_s132_3.1.0.dir/__/__/__/external/nRF5_SDK_14.0.0_3bcc1f7/components/toolchain/system_nrf52.c.obj
 .bss           0x00000000        0x0 examples/pb_remote/client/CMakeFiles/pb_remote_client_nrf52832_xxAA_s132_3.1.0.dir/__/__/__/external/nRF5_SDK_14.0.0_3bcc1f7/components/toolchain/system_nrf52.c.obj
 .text.SystemCoreClockUpdate
                0x00000000       0x10 examples/pb_remote/client/CMakeFiles/pb_remote_client_nrf52832_xxAA_s132_3.1.0.dir/__/__/__/external/nRF5_SDK_14.0.0_3bcc1f7/components/toolchain/system_nrf52.c.obj
 .data          0x00000000        0x0 examples/pb_remote/client/CMakeFiles/pb_remote_client_nrf52832_xxAA_s132_3.1.0.dir/__/__/__/external/nRF5_SDK_14.0.0_3bcc1f7/components/toolchain/gcc/gcc_startup_nrf52.S.obj
 .bss           0x00000000        0x0 examples/pb_remote/client/CMakeFiles/pb_remote_client_nrf52832_xxAA_s132_3.1.0.dir/__/__/__/external/nRF5_SDK_14.0.0_3bcc1f7/components/toolchain/gcc/gcc_startup_nrf52.S.obj
 .text          0x00000000        0x0 mesh/core/libmesh_core_nrf52832_xxAA.a(nrf_mesh_configure.c.obj)
 .data          0x00000000        0x0 mesh/core/libmesh_core_nrf52832_xxAA.a(nrf_mesh_configure.c.obj)
 .bss           0x00000000        0x0 mesh/core/libmesh_core_nrf52832_xxAA.a(nrf_mesh_configure.c.obj)
 .text.nrf_mesh_configure_device_uuid_set
                0x00000000       0x10 mesh/core/libmesh_core_nrf52832_xxAA.a(nrf_mesh_configure.c.obj)
 .text          0x00000000        0x0 mesh/core/libmesh_core_nrf52832_xxAA.a(event.c.obj)
 .data          0x00000000        0x0 mesh/core/libmesh_core_nrf52832_xxAA.a(event.c.obj)
 .bss           0x00000000        0x0 mesh/core/libmesh_core_nrf52832_xxAA.a(event.c.obj)
 .text.event_handler_remove
                0x00000000       0x6c mesh/core/libmesh_core_nrf52832_xxAA.a(event.c.obj)
 .text          0x00000000        0x0 mesh/core/libmesh_core_nrf52832_xxAA.a(fifo.c.obj)
 .data          0x00000000        0x0 mesh/core/libmesh_core_nrf52832_xxAA.a(fifo.c.obj)
 .bss           0x00000000        0x0 mesh/core/libmesh_core_nrf52832_xxAA.a(fifo.c.obj)
 .text.fifo_peek_at
                0x00000000       0x54 mesh/core/libmesh_core_nrf52832_xxAA.a(fifo.c.obj)
 .text.fifo_peek
                0x00000000       0x50 mesh/core/libmesh_core_nrf52832_xxAA.a(fifo.c.obj)
 .text.fifo_flush
                0x00000000        0x8 mesh/core/libmesh_core_nrf52832_xxAA.a(fifo.c.obj)
 .text.fifo_get_len
                0x00000000        0x8 mesh/core/libmesh_core_nrf52832_xxAA.a(fifo.c.obj)
 .text.fifo_is_full
                0x00000000       0x14 mesh/core/libmesh_core_nrf52832_xxAA.a(fifo.c.obj)
 .text.fifo_is_empty
                0x00000000       0x10 mesh/core/libmesh_core_nrf52832_xxAA.a(fifo.c.obj)
 .text          0x00000000        0x0 mesh/core/libmesh_core_nrf52832_xxAA.a(net_state.c.obj)
 .data          0x00000000        0x0 mesh/core/libmesh_core_nrf52832_xxAA.a(net_state.c.obj)
 .bss           0x00000000        0x0 mesh/core/libmesh_core_nrf52832_xxAA.a(net_state.c.obj)
 .text.net_state_reset
                0x00000000       0x3c mesh/core/libmesh_core_nrf52832_xxAA.a(net_state.c.obj)
 .text.net_state_iv_update_start
                0x00000000       0x90 mesh/core/libmesh_core_nrf52832_xxAA.a(net_state.c.obj)
 .text.net_state_iv_update_test_mode_set
                0x00000000        0xc mesh/core/libmesh_core_nrf52832_xxAA.a(net_state.c.obj)
 .data.mem_listener.9741
                0x00000000       0x10 mesh/core/libmesh_core_nrf52832_xxAA.a(net_state.c.obj)
 .text          0x00000000        0x0 mesh/core/libmesh_core_nrf52832_xxAA.a(nrf_mesh_utils.c.obj)
 .data          0x00000000        0x0 mesh/core/libmesh_core_nrf52832_xxAA.a(nrf_mesh_utils.c.obj)
 .bss           0x00000000        0x0 mesh/core/libmesh_core_nrf52832_xxAA.a(nrf_mesh_utils.c.obj)
 .text.nrf_mesh_rand_get
                0x00000000       0x10 mesh/core/libmesh_core_nrf52832_xxAA.a(nrf_mesh_utils.c.obj)
 .text.nrf_mesh_gap_address_type_get
                0x00000000       0x40 mesh/core/libmesh_core_nrf52832_xxAA.a(nrf_mesh_utils.c.obj)
 .text          0x00000000        0x0 mesh/core/libmesh_core_nrf52832_xxAA.a(nrf_mesh.c.obj)
 .data          0x00000000        0x0 mesh/core/libmesh_core_nrf52832_xxAA.a(nrf_mesh.c.obj)
 .bss           0x00000000        0x0 mesh/core/libmesh_core_nrf52832_xxAA.a(nrf_mesh.c.obj)
 .text.nrf_mesh_disable
                0x00000000       0x2c mesh/core/libmesh_core_nrf52832_xxAA.a(nrf_mesh.c.obj)
 .text.nrf_mesh_evt_handler_remove
                0x00000000        0x4 mesh/core/libmesh_core_nrf52832_xxAA.a(nrf_mesh.c.obj)
 .text.nrf_mesh_rx_cb_set
                0x00000000        0xc mesh/core/libmesh_core_nrf52832_xxAA.a(nrf_mesh.c.obj)
 .text.nrf_mesh_rx_cb_clear
                0x00000000        0xc mesh/core/libmesh_core_nrf52832_xxAA.a(nrf_mesh.c.obj)
 .text          0x00000000        0x0 mesh/core/libmesh_core_nrf52832_xxAA.a(hal.c.obj)
 .data          0x00000000        0x0 mesh/core/libmesh_core_nrf52832_xxAA.a(hal.c.obj)
 .bss           0x00000000        0x0 mesh/core/libmesh_core_nrf52832_xxAA.a(hal.c.obj)
 .text.sd_power_reset_reason_clr
                0x00000000        0x4 mesh/core/libmesh_core_nrf52832_xxAA.a(hal.c.obj)
 .text.sd_power_gpregret_set
                0x00000000        0x4 mesh/core/libmesh_core_nrf52832_xxAA.a(hal.c.obj)
 .text.hal_device_reset
                0x00000000       0x38 mesh/core/libmesh_core_nrf52832_xxAA.a(hal.c.obj)
 .text          0x00000000        0x0 mesh/core/libmesh_core_nrf52832_xxAA.a(timer_scheduler.c.obj)
 .data          0x00000000        0x0 mesh/core/libmesh_core_nrf52832_xxAA.a(timer_scheduler.c.obj)
 .bss           0x00000000        0x0 mesh/core/libmesh_core_nrf52832_xxAA.a(timer_scheduler.c.obj)
 .text          0x00000000        0x0 mesh/core/libmesh_core_nrf52832_xxAA.a(timer.c.obj)
 .data          0x00000000        0x0 mesh/core/libmesh_core_nrf52832_xxAA.a(timer.c.obj)
 .bss           0x00000000        0x0 mesh/core/libmesh_core_nrf52832_xxAA.a(timer.c.obj)
 .text.timer_order_cb_ppi
                0x00000000       0xd8 mesh/core/libmesh_core_nrf52832_xxAA.a(timer.c.obj)
 .text.timer_order_ppi
                0x00000000       0x88 mesh/core/libmesh_core_nrf52832_xxAA.a(timer.c.obj)
 .text.timer_abort
                0x00000000       0x84 mesh/core/libmesh_core_nrf52832_xxAA.a(timer.c.obj)
 .text          0x00000000        0x0 mesh/core/libmesh_core_nrf52832_xxAA.a(ticker.c.obj)
 .data          0x00000000        0x0 mesh/core/libmesh_core_nrf52832_xxAA.a(ticker.c.obj)
 .bss           0x00000000        0x0 mesh/core/libmesh_core_nrf52832_xxAA.a(ticker.c.obj)
 .text.ticker_get
                0x00000000        0xc mesh/core/libmesh_core_nrf52832_xxAA.a(ticker.c.obj)
 .text          0x00000000        0x0 mesh/core/libmesh_core_nrf52832_xxAA.a(rand.c.obj)
 .data          0x00000000        0x0 mesh/core/libmesh_core_nrf52832_xxAA.a(rand.c.obj)
 .bss           0x00000000        0x0 mesh/core/libmesh_core_nrf52832_xxAA.a(rand.c.obj)
 .text          0x00000000        0x0 mesh/core/libmesh_core_nrf52832_xxAA.a(timeslot.c.obj)
 .data          0x00000000        0x0 mesh/core/libmesh_core_nrf52832_xxAA.a(timeslot.c.obj)
 .bss           0x00000000        0x0 mesh/core/libmesh_core_nrf52832_xxAA.a(timeslot.c.obj)
 .text.timeslot_restart
                0x00000000       0x30 mesh/core/libmesh_core_nrf52832_xxAA.a(timeslot.c.obj)
 .text.timeslot_end_time_get
                0x00000000       0x30 mesh/core/libmesh_core_nrf52832_xxAA.a(timeslot.c.obj)
 .text.timeslot_is_in_ts
                0x00000000        0xc mesh/core/libmesh_core_nrf52832_xxAA.a(timeslot.c.obj)
 .text          0x00000000        0x0 mesh/core/libmesh_core_nrf52832_xxAA.a(bearer_event.c.obj)
 .data          0x00000000        0x0 mesh/core/libmesh_core_nrf52832_xxAA.a(bearer_event.c.obj)
 .bss           0x00000000        0x0 mesh/core/libmesh_core_nrf52832_xxAA.a(bearer_event.c.obj)
 .text.bearer_event_generic_post
                0x00000000       0x50 mesh/core/libmesh_core_nrf52832_xxAA.a(bearer_event.c.obj)
 .text.bearer_event_timer_sch_post
                0x00000000       0x54 mesh/core/libmesh_core_nrf52832_xxAA.a(bearer_event.c.obj)
 .text          0x00000000        0x0 mesh/core/libmesh_core_nrf52832_xxAA.a(enc.c.obj)
 .data          0x00000000        0x0 mesh/core/libmesh_core_nrf52832_xxAA.a(enc.c.obj)
 .bss           0x00000000        0x0 mesh/core/libmesh_core_nrf52832_xxAA.a(enc.c.obj)
 .text.enc_key_generate
                0x00000000        0x8 mesh/core/libmesh_core_nrf52832_xxAA.a(enc.c.obj)
 .text          0x00000000        0x0 mesh/core/libmesh_core_nrf52832_xxAA.a(network.c.obj)
 .data          0x00000000        0x0 mesh/core/libmesh_core_nrf52832_xxAA.a(network.c.obj)
 .bss           0x00000000        0x0 mesh/core/libmesh_core_nrf52832_xxAA.a(network.c.obj)
 .text.network_opt_set
                0x00000000       0x58 mesh/core/libmesh_core_nrf52832_xxAA.a(network.c.obj)
 .text.network_opt_get
                0x00000000       0x4c mesh/core/libmesh_core_nrf52832_xxAA.a(network.c.obj)
 .text.network_packet_discard
                0x00000000       0x4c mesh/core/libmesh_core_nrf52832_xxAA.a(network.c.obj)
 .text          0x00000000        0x0 mesh/core/libmesh_core_nrf52832_xxAA.a(nrf_mesh_keygen.c.obj)
 .data          0x00000000        0x0 mesh/core/libmesh_core_nrf52832_xxAA.a(nrf_mesh_keygen.c.obj)
 .bss           0x00000000        0x0 mesh/core/libmesh_core_nrf52832_xxAA.a(nrf_mesh_keygen.c.obj)
 .text.nrf_mesh_keygen_identitykey
                0x00000000       0x4c mesh/core/libmesh_core_nrf52832_xxAA.a(nrf_mesh_keygen.c.obj)
 .text          0x00000000        0x0 mesh/core/libmesh_core_nrf52832_xxAA.a(log.c.obj)
 .data          0x00000000        0x0 mesh/core/libmesh_core_nrf52832_xxAA.a(log.c.obj)
 .bss           0x00000000        0x0 mesh/core/libmesh_core_nrf52832_xxAA.a(log.c.obj)
 .text.log_callback_logview
                0x00000000       0x38 mesh/core/libmesh_core_nrf52832_xxAA.a(log.c.obj)
 .text.log_set_callback
                0x00000000        0xc mesh/core/libmesh_core_nrf52832_xxAA.a(log.c.obj)
 .text.log_vprintf
                0x00000000       0x18 mesh/core/libmesh_core_nrf52832_xxAA.a(log.c.obj)
 .rodata.log_callback_logview.str1.4
                0x00000000       0x12 mesh/core/libmesh_core_nrf52832_xxAA.a(log.c.obj)
 .text          0x00000000        0x0 mesh/core/libmesh_core_nrf52832_xxAA.a(flash_manager.c.obj)
 .data          0x00000000        0x0 mesh/core/libmesh_core_nrf52832_xxAA.a(flash_manager.c.obj)
 .bss           0x00000000        0x0 mesh/core/libmesh_core_nrf52832_xxAA.a(flash_manager.c.obj)
 .text.flash_manager_remove
                0x00000000       0x78 mesh/core/libmesh_core_nrf52832_xxAA.a(flash_manager.c.obj)
 .text.flash_manager_entry_get
                0x00000000       0x54 mesh/core/libmesh_core_nrf52832_xxAA.a(flash_manager.c.obj)
 .text.flash_manager_entry_count_get
                0x00000000      0x110 mesh/core/libmesh_core_nrf52832_xxAA.a(flash_manager.c.obj)
 .text.flash_manager_entry_release
                0x00000000       0xb4 mesh/core/libmesh_core_nrf52832_xxAA.a(flash_manager.c.obj)
 .text          0x00000000        0x0 mesh/core/libmesh_core_nrf52832_xxAA.a(ccm_soft.c.obj)
 .data          0x00000000        0x0 mesh/core/libmesh_core_nrf52832_xxAA.a(ccm_soft.c.obj)
 .bss           0x00000000        0x0 mesh/core/libmesh_core_nrf52832_xxAA.a(ccm_soft.c.obj)
 .text          0x00000000        0x0 mesh/core/libmesh_core_nrf52832_xxAA.a(beacon.c.obj)
 .data          0x00000000        0x0 mesh/core/libmesh_core_nrf52832_xxAA.a(beacon.c.obj)
 .bss           0x00000000        0x0 mesh/core/libmesh_core_nrf52832_xxAA.a(beacon.c.obj)
 .text          0x00000000        0x0 mesh/core/libmesh_core_nrf52832_xxAA.a(flash_manager_internal.c.obj)
 .data          0x00000000        0x0 mesh/core/libmesh_core_nrf52832_xxAA.a(flash_manager_internal.c.obj)
 .bss           0x00000000        0x0 mesh/core/libmesh_core_nrf52832_xxAA.a(flash_manager_internal.c.obj)
 .text          0x00000000        0x0 mesh/core/libmesh_core_nrf52832_xxAA.a(core_tx.c.obj)
 .data          0x00000000        0x0 mesh/core/libmesh_core_nrf52832_xxAA.a(core_tx.c.obj)
 .bss           0x00000000        0x0 mesh/core/libmesh_core_nrf52832_xxAA.a(core_tx.c.obj)
 .text.core_tx_adv_count_set
                0x00000000       0x40 mesh/core/libmesh_core_nrf52832_xxAA.a(core_tx.c.obj)
 .text.core_tx_adv_count_get
                0x00000000       0x2c mesh/core/libmesh_core_nrf52832_xxAA.a(core_tx.c.obj)
 .text.core_tx_adv_interval_set
                0x00000000       0x34 mesh/core/libmesh_core_nrf52832_xxAA.a(core_tx.c.obj)
 .text.core_tx_adv_interval_get
                0x00000000       0x38 mesh/core/libmesh_core_nrf52832_xxAA.a(core_tx.c.obj)
 .text.core_tx_adv_address_set
                0x00000000       0x34 mesh/core/libmesh_core_nrf52832_xxAA.a(core_tx.c.obj)
 .text          0x00000000        0x0 mesh/core/libmesh_core_nrf52832_xxAA.a(net_beacon.c.obj)
 .data          0x00000000        0x0 mesh/core/libmesh_core_nrf52832_xxAA.a(net_beacon.c.obj)
 .bss           0x00000000        0x0 mesh/core/libmesh_core_nrf52832_xxAA.a(net_beacon.c.obj)
 .text.net_beacon_state_set
                0x00000000       0x3c mesh/core/libmesh_core_nrf52832_xxAA.a(net_beacon.c.obj)
 .text.net_beacon_state_get
                0x00000000        0xc mesh/core/libmesh_core_nrf52832_xxAA.a(net_beacon.c.obj)
 .text          0x00000000        0x0 mesh/core/libmesh_core_nrf52832_xxAA.a(advertiser.c.obj)
 .data          0x00000000        0x0 mesh/core/libmesh_core_nrf52832_xxAA.a(advertiser.c.obj)
 .bss           0x00000000        0x0 mesh/core/libmesh_core_nrf52832_xxAA.a(advertiser.c.obj)
 .text.advertiser_disable
                0x00000000        0xc mesh/core/libmesh_core_nrf52832_xxAA.a(advertiser.c.obj)
 .text.advertiser_channels_set
                0x00000000       0xac mesh/core/libmesh_core_nrf52832_xxAA.a(advertiser.c.obj)
 .text.advertiser_config_set
                0x00000000      0x12c mesh/core/libmesh_core_nrf52832_xxAA.a(advertiser.c.obj)
 .text.advertiser_address_set
                0x00000000       0x80 mesh/core/libmesh_core_nrf52832_xxAA.a(advertiser.c.obj)
 .text.advertiser_config_get
                0x00000000       0x30 mesh/core/libmesh_core_nrf52832_xxAA.a(advertiser.c.obj)
 .text.advertiser_address_default_get
                0x00000000       0x68 mesh/core/libmesh_core_nrf52832_xxAA.a(advertiser.c.obj)
 .text          0x00000000        0x0 mesh/core/libmesh_core_nrf52832_xxAA.a(bearer_handler.c.obj)
 .data          0x00000000        0x0 mesh/core/libmesh_core_nrf52832_xxAA.a(bearer_handler.c.obj)
 .bss           0x00000000        0x0 mesh/core/libmesh_core_nrf52832_xxAA.a(bearer_handler.c.obj)
 .text.bearer_handler_stop
                0x00000000       0x20 mesh/core/libmesh_core_nrf52832_xxAA.a(bearer_handler.c.obj)
 .text.bearer_handler_action_fire
                0x00000000       0xb0 mesh/core/libmesh_core_nrf52832_xxAA.a(bearer_handler.c.obj)
 .text          0x00000000        0x0 mesh/core/libmesh_core_nrf52832_xxAA.a(broadcast.c.obj)
 .data          0x00000000        0x0 mesh/core/libmesh_core_nrf52832_xxAA.a(broadcast.c.obj)
 .bss           0x00000000        0x0 mesh/core/libmesh_core_nrf52832_xxAA.a(broadcast.c.obj)
 .text          0x00000000        0x0 mesh/core/libmesh_core_nrf52832_xxAA.a(radio_config.c.obj)
 .data          0x00000000        0x0 mesh/core/libmesh_core_nrf52832_xxAA.a(radio_config.c.obj)
 .bss           0x00000000        0x0 mesh/core/libmesh_core_nrf52832_xxAA.a(radio_config.c.obj)
 .text.radio_config_access_addr_get
                0x00000000       0x6c mesh/core/libmesh_core_nrf52832_xxAA.a(radio_config.c.obj)
 .text          0x00000000        0x0 mesh/core/libmesh_core_nrf52832_xxAA.a(scanner.c.obj)
 .data          0x00000000        0x0 mesh/core/libmesh_core_nrf52832_xxAA.a(scanner.c.obj)
 .bss           0x00000000        0x0 mesh/core/libmesh_core_nrf52832_xxAA.a(scanner.c.obj)
 .text.scanner_disable
                0x00000000       0x5c mesh/core/libmesh_core_nrf52832_xxAA.a(scanner.c.obj)
 .text.scanner_is_enabled
                0x00000000       0x14 mesh/core/libmesh_core_nrf52832_xxAA.a(scanner.c.obj)
 .text.scanner_stats_get
                0x00000000        0x8 mesh/core/libmesh_core_nrf52832_xxAA.a(scanner.c.obj)
 .text.scanner_config_radio_mode_set
                0x00000000       0x10 mesh/core/libmesh_core_nrf52832_xxAA.a(scanner.c.obj)
 .text.scanner_config_scan_time_set
                0x00000000       0x94 mesh/core/libmesh_core_nrf52832_xxAA.a(scanner.c.obj)
 .text.scanner_config_channels_set
                0x00000000       0x64 mesh/core/libmesh_core_nrf52832_xxAA.a(scanner.c.obj)
 .text.scanner_config_access_addresses_set
                0x00000000       0x44 mesh/core/libmesh_core_nrf52832_xxAA.a(scanner.c.obj)
 .text          0x00000000        0x0 mesh/core/libmesh_core_nrf52832_xxAA.a(internal_event.c.obj)
 .data          0x00000000        0x0 mesh/core/libmesh_core_nrf52832_xxAA.a(internal_event.c.obj)
 .bss           0x00000000        0x0 mesh/core/libmesh_core_nrf52832_xxAA.a(internal_event.c.obj)
 .text.internal_event_init
                0x00000000       0x48 mesh/core/libmesh_core_nrf52832_xxAA.a(internal_event.c.obj)
 .text.internal_event_pop
                0x00000000       0x1c mesh/core/libmesh_core_nrf52832_xxAA.a(internal_event.c.obj)
 .bss.m_internal_event_fifo_buffer
                0x00000000      0x100 mesh/core/libmesh_core_nrf52832_xxAA.a(internal_event.c.obj)
 .text          0x00000000        0x0 mesh/core/libmesh_core_nrf52832_xxAA.a(aes.c.obj)
 .data          0x00000000        0x0 mesh/core/libmesh_core_nrf52832_xxAA.a(aes.c.obj)
 .bss           0x00000000        0x0 mesh/core/libmesh_core_nrf52832_xxAA.a(aes.c.obj)
 .text          0x00000000        0x0 mesh/core/libmesh_core_nrf52832_xxAA.a(msg_cache.c.obj)
 .data          0x00000000        0x0 mesh/core/libmesh_core_nrf52832_xxAA.a(msg_cache.c.obj)
 .bss           0x00000000        0x0 mesh/core/libmesh_core_nrf52832_xxAA.a(msg_cache.c.obj)
 .text.msg_cache_clear
                0x00000000       0x18 mesh/core/libmesh_core_nrf52832_xxAA.a(msg_cache.c.obj)
 .text          0x00000000        0x0 mesh/core/libmesh_core_nrf52832_xxAA.a(transport.c.obj)
 .data          0x00000000        0x0 mesh/core/libmesh_core_nrf52832_xxAA.a(transport.c.obj)
 .bss           0x00000000        0x0 mesh/core/libmesh_core_nrf52832_xxAA.a(transport.c.obj)
 .text.transport_sar_mem_funcs_reset
                0x00000000       0x30 mesh/core/libmesh_core_nrf52832_xxAA.a(transport.c.obj)
 .text.transport_sar_mem_funcs_set
                0x00000000       0x48 mesh/core/libmesh_core_nrf52832_xxAA.a(transport.c.obj)
 .text.transport_opt_set
                0x00000000       0xdc mesh/core/libmesh_core_nrf52832_xxAA.a(transport.c.obj)
 .text.transport_opt_get
                0x00000000       0x84 mesh/core/libmesh_core_nrf52832_xxAA.a(transport.c.obj)
 .text          0x00000000        0x0 mesh/core/libmesh_core_nrf52832_xxAA.a(packet_buffer.c.obj)
 .data          0x00000000        0x0 mesh/core/libmesh_core_nrf52832_xxAA.a(packet_buffer.c.obj)
 .bss           0x00000000        0x0 mesh/core/libmesh_core_nrf52832_xxAA.a(packet_buffer.c.obj)
 .text.packet_buffer_max_packet_len_get
                0x00000000       0x3c mesh/core/libmesh_core_nrf52832_xxAA.a(packet_buffer.c.obj)
 .text          0x00000000        0x0 mesh/core/libmesh_core_nrf52832_xxAA.a(flash_manager_defrag.c.obj)
 .data          0x00000000        0x0 mesh/core/libmesh_core_nrf52832_xxAA.a(flash_manager_defrag.c.obj)
 .bss           0x00000000        0x0 mesh/core/libmesh_core_nrf52832_xxAA.a(flash_manager_defrag.c.obj)
 .text.flash_manager_defragging
                0x00000000       0x50 mesh/core/libmesh_core_nrf52832_xxAA.a(flash_manager_defrag.c.obj)
 .text          0x00000000        0x0 mesh/core/libmesh_core_nrf52832_xxAA.a(packet_mgr.c.obj)
 .data          0x00000000        0x0 mesh/core/libmesh_core_nrf52832_xxAA.a(packet_mgr.c.obj)
 .bss           0x00000000        0x0 mesh/core/libmesh_core_nrf52832_xxAA.a(packet_mgr.c.obj)
 .text.packet_mgr_alloc
                0x00000000      0x1dc mesh/core/libmesh_core_nrf52832_xxAA.a(packet_mgr.c.obj)
 .text.packet_mgr_free
                0x00000000       0x70 mesh/core/libmesh_core_nrf52832_xxAA.a(packet_mgr.c.obj)
 .text.packet_mgr_get_free_space
                0x00000000       0x1c mesh/core/libmesh_core_nrf52832_xxAA.a(packet_mgr.c.obj)
 .text.packet_mgr_refcount_get
                0x00000000        0x8 mesh/core/libmesh_core_nrf52832_xxAA.a(packet_mgr.c.obj)
 .text.packet_mgr_size_get
                0x00000000        0x8 mesh/core/libmesh_core_nrf52832_xxAA.a(packet_mgr.c.obj)
 .text          0x00000000        0x0 mesh/core/libmesh_core_nrf52832_xxAA.a(mesh_flash.c.obj)
 .data          0x00000000        0x0 mesh/core/libmesh_core_nrf52832_xxAA.a(mesh_flash.c.obj)
 .bss           0x00000000        0x0 mesh/core/libmesh_core_nrf52832_xxAA.a(mesh_flash.c.obj)
 .text.mesh_flash_op_available_slots
                0x00000000       0x2c mesh/core/libmesh_core_nrf52832_xxAA.a(mesh_flash.c.obj)
 .text.mesh_flash_in_progress
                0x00000000       0x34 mesh/core/libmesh_core_nrf52832_xxAA.a(mesh_flash.c.obj)
 .text.mesh_flash_set_suspended
                0x00000000       0x90 mesh/core/libmesh_core_nrf52832_xxAA.a(mesh_flash.c.obj)
 .bss.suspend_count.9861
                0x00000000        0x4 mesh/core/libmesh_core_nrf52832_xxAA.a(mesh_flash.c.obj)
 .text          0x00000000        0x0 mesh/core/libmesh_core_nrf52832_xxAA.a(queue.c.obj)
 .data          0x00000000        0x0 mesh/core/libmesh_core_nrf52832_xxAA.a(queue.c.obj)
 .bss           0x00000000        0x0 mesh/core/libmesh_core_nrf52832_xxAA.a(queue.c.obj)
 .text          0x00000000        0x0 mesh/core/libmesh_core_nrf52832_xxAA.a(aes_cmac.c.obj)
 .data          0x00000000        0x0 mesh/core/libmesh_core_nrf52832_xxAA.a(aes_cmac.c.obj)
 .bss           0x00000000        0x0 mesh/core/libmesh_core_nrf52832_xxAA.a(aes_cmac.c.obj)
 .text          0x00000000        0x0 mesh/core/libmesh_core_nrf52832_xxAA.a(msqueue.c.obj)
 .data          0x00000000        0x0 mesh/core/libmesh_core_nrf52832_xxAA.a(msqueue.c.obj)
 .bss           0x00000000        0x0 mesh/core/libmesh_core_nrf52832_xxAA.a(msqueue.c.obj)
 .text.msq_reset
                0x00000000       0x34 mesh/core/libmesh_core_nrf52832_xxAA.a(msqueue.c.obj)
 .text          0x00000000        0x0 mesh/core/libmesh_core_nrf52832_xxAA.a(replay_cache.c.obj)
 .data          0x00000000        0x0 mesh/core/libmesh_core_nrf52832_xxAA.a(replay_cache.c.obj)
 .bss           0x00000000        0x0 mesh/core/libmesh_core_nrf52832_xxAA.a(replay_cache.c.obj)
 .text.replay_cache_on_iv_update
                0x00000000       0x2c mesh/core/libmesh_core_nrf52832_xxAA.a(replay_cache.c.obj)
 .text.replay_cache_clear
                0x00000000       0x28 mesh/core/libmesh_core_nrf52832_xxAA.a(replay_cache.c.obj)
 .text          0x00000000        0x0 mesh/core/libmesh_core_nrf52832_xxAA.a(filter_engine.c.obj)
 .data          0x00000000        0x0 mesh/core/libmesh_core_nrf52832_xxAA.a(filter_engine.c.obj)
 .bss           0x00000000        0x0 mesh/core/libmesh_core_nrf52832_xxAA.a(filter_engine.c.obj)
 .text.fen_filter_start
                0x00000000       0x84 mesh/core/libmesh_core_nrf52832_xxAA.a(filter_engine.c.obj)
 .text.fen_filter_stop
                0x00000000       0x70 mesh/core/libmesh_core_nrf52832_xxAA.a(filter_engine.c.obj)
 .text.fen_accepted_amount_get
                0x00000000        0xc mesh/core/libmesh_core_nrf52832_xxAA.a(filter_engine.c.obj)
 .text          0x00000000        0x0 mesh/core/libmesh_core_nrf52832_xxAA.a(nrf_flash.c.obj)
 .data          0x00000000        0x0 mesh/core/libmesh_core_nrf52832_xxAA.a(nrf_flash.c.obj)
 .bss           0x00000000        0x0 mesh/core/libmesh_core_nrf52832_xxAA.a(nrf_flash.c.obj)
 .text          0x00000000        0x0 external/rtt/librtt_nrf52832_xxAA.a(SEGGER_RTT.c.obj)
 .data          0x00000000        0x0 external/rtt/librtt_nrf52832_xxAA.a(SEGGER_RTT.c.obj)
 .bss           0x00000000        0x0 external/rtt/librtt_nrf52832_xxAA.a(SEGGER_RTT.c.obj)
 .text.SEGGER_RTT_ReadNoLock
                0x00000000      0x100 external/rtt/librtt_nrf52832_xxAA.a(SEGGER_RTT.c.obj)
 .text.SEGGER_RTT_Read
                0x00000000      0x114 external/rtt/librtt_nrf52832_xxAA.a(SEGGER_RTT.c.obj)
 .text.SEGGER_RTT_WriteSkipNoLock
                0x00000000      0x184 external/rtt/librtt_nrf52832_xxAA.a(SEGGER_RTT.c.obj)
 .text.SEGGER_RTT_WriteNoLock
                0x00000000      0x188 external/rtt/librtt_nrf52832_xxAA.a(SEGGER_RTT.c.obj)
 .text.SEGGER_RTT_WriteString
                0x00000000      0x20c external/rtt/librtt_nrf52832_xxAA.a(SEGGER_RTT.c.obj)
 .text.SEGGER_RTT_WaitKey
                0x00000000      0x114 external/rtt/librtt_nrf52832_xxAA.a(SEGGER_RTT.c.obj)
 .text.SEGGER_RTT_HasKey
                0x00000000       0x6c external/rtt/librtt_nrf52832_xxAA.a(SEGGER_RTT.c.obj)
 .text.SEGGER_RTT_HasData
                0x00000000       0x18 external/rtt/librtt_nrf52832_xxAA.a(SEGGER_RTT.c.obj)
 .text.SEGGER_RTT_AllocDownBuffer
                0x00000000       0xbc external/rtt/librtt_nrf52832_xxAA.a(SEGGER_RTT.c.obj)
 .text.SEGGER_RTT_AllocUpBuffer
                0x00000000       0xd8 external/rtt/librtt_nrf52832_xxAA.a(SEGGER_RTT.c.obj)
 .text.SEGGER_RTT_ConfigUpBuffer
                0x00000000       0xd0 external/rtt/librtt_nrf52832_xxAA.a(SEGGER_RTT.c.obj)
 .text.SEGGER_RTT_ConfigDownBuffer
                0x00000000       0xb8 external/rtt/librtt_nrf52832_xxAA.a(SEGGER_RTT.c.obj)
 .text.SEGGER_RTT_SetNameUpBuffer
                0x00000000       0x90 external/rtt/librtt_nrf52832_xxAA.a(SEGGER_RTT.c.obj)
 .text.SEGGER_RTT_SetNameDownBuffer
                0x00000000       0x90 external/rtt/librtt_nrf52832_xxAA.a(SEGGER_RTT.c.obj)
 .text.SEGGER_RTT_Init
                0x00000000       0x60 external/rtt/librtt_nrf52832_xxAA.a(SEGGER_RTT.c.obj)
 .text.SEGGER_RTT_SetTerminal
                0x00000000      0x15c external/rtt/librtt_nrf52832_xxAA.a(SEGGER_RTT.c.obj)
 .text.SEGGER_RTT_TerminalOut
                0x00000000      0x40c external/rtt/librtt_nrf52832_xxAA.a(SEGGER_RTT.c.obj)
 .bss._ActiveTerminal
                0x00000000        0x1 external/rtt/librtt_nrf52832_xxAA.a(SEGGER_RTT.c.obj)
 .rodata._aTerminalId
                0x00000000       0x10 external/rtt/librtt_nrf52832_xxAA.a(SEGGER_RTT.c.obj)
 .text          0x00000000        0x0 external/rtt/librtt_nrf52832_xxAA.a(SEGGER_RTT_printf.c.obj)
 .data          0x00000000        0x0 external/rtt/librtt_nrf52832_xxAA.a(SEGGER_RTT_printf.c.obj)
 .bss           0x00000000        0x0 external/rtt/librtt_nrf52832_xxAA.a(SEGGER_RTT_printf.c.obj)
 .text          0x00000000        0x0 external/micro-ecc/libuECC_nrf52832_xxAA.a(uECC.c.obj)
 .data          0x00000000        0x0 external/micro-ecc/libuECC_nrf52832_xxAA.a(uECC.c.obj)
 .bss           0x00000000        0x0 external/micro-ecc/libuECC_nrf52832_xxAA.a(uECC.c.obj)
 .text.HMAC_finish
                0x00000000       0x70 external/micro-ecc/libuECC_nrf52832_xxAA.a(uECC.c.obj)
 .text.uECC_vli_mmod
                0x00000000      0x3c8 external/micro-ecc/libuECC_nrf52832_xxAA.a(uECC.c.obj)
 .text.uECC_vli_modSub.isra.2
                0x00000000       0x98 external/micro-ecc/libuECC_nrf52832_xxAA.a(uECC.c.obj)
 .text.bits2int
                0x00000000      0x14c external/micro-ecc/libuECC_nrf52832_xxAA.a(uECC.c.obj)
 .text.uECC_sign_with_k
                0x00000000      0x60c external/micro-ecc/libuECC_nrf52832_xxAA.a(uECC.c.obj)
 .text.uECC_set_rng
                0x00000000        0xc external/micro-ecc/libuECC_nrf52832_xxAA.a(uECC.c.obj)
 .text.uECC_get_rng
                0x00000000        0xc external/micro-ecc/libuECC_nrf52832_xxAA.a(uECC.c.obj)
 .text.uECC_curve_private_key_size
                0x00000000       0x10 external/micro-ecc/libuECC_nrf52832_xxAA.a(uECC.c.obj)
 .text.uECC_curve_public_key_size
                0x00000000        0x8 external/micro-ecc/libuECC_nrf52832_xxAA.a(uECC.c.obj)
 .text.uECC_compute_public_key
                0x00000000      0x2e4 external/micro-ecc/libuECC_nrf52832_xxAA.a(uECC.c.obj)
 .text.uECC_sign
                0x00000000       0x60 external/micro-ecc/libuECC_nrf52832_xxAA.a(uECC.c.obj)
 .text.uECC_sign_deterministic
                0x00000000      0x400 external/micro-ecc/libuECC_nrf52832_xxAA.a(uECC.c.obj)
 .text.uECC_verify
                0x00000000      0x95c external/micro-ecc/libuECC_nrf52832_xxAA.a(uECC.c.obj)
 .text          0x00000000        0x0 c:/a/gcc_arm/6/bin/../lib/gcc/arm-none-eabi/6.3.1/../../../../arm-none-eabi/lib/thumb/v7e-m/fpv4-sp/hard\libc_nano.a(lib_a-exit.o)
 .data          0x00000000        0x0 c:/a/gcc_arm/6/bin/../lib/gcc/arm-none-eabi/6.3.1/../../../../arm-none-eabi/lib/thumb/v7e-m/fpv4-sp/hard\libc_nano.a(lib_a-exit.o)
 .bss           0x00000000        0x0 c:/a/gcc_arm/6/bin/../lib/gcc/arm-none-eabi/6.3.1/../../../../arm-none-eabi/lib/thumb/v7e-m/fpv4-sp/hard\libc_nano.a(lib_a-exit.o)
 .text          0x00000000        0x0 c:/a/gcc_arm/6/bin/../lib/gcc/arm-none-eabi/6.3.1/../../../../arm-none-eabi/lib/thumb/v7e-m/fpv4-sp/hard\libc_nano.a(lib_a-impure.o)
 .data          0x00000000        0x0 c:/a/gcc_arm/6/bin/../lib/gcc/arm-none-eabi/6.3.1/../../../../arm-none-eabi/lib/thumb/v7e-m/fpv4-sp/hard\libc_nano.a(lib_a-impure.o)
 .bss           0x00000000        0x0 c:/a/gcc_arm/6/bin/../lib/gcc/arm-none-eabi/6.3.1/../../../../arm-none-eabi/lib/thumb/v7e-m/fpv4-sp/hard\libc_nano.a(lib_a-impure.o)
 .text          0x00000000        0x0 c:/a/gcc_arm/6/bin/../lib/gcc/arm-none-eabi/6.3.1/../../../../arm-none-eabi/lib/thumb/v7e-m/fpv4-sp/hard\libc_nano.a(lib_a-init.o)
 .data          0x00000000        0x0 c:/a/gcc_arm/6/bin/../lib/gcc/arm-none-eabi/6.3.1/../../../../arm-none-eabi/lib/thumb/v7e-m/fpv4-sp/hard\libc_nano.a(lib_a-init.o)
 .bss           0x00000000        0x0 c:/a/gcc_arm/6/bin/../lib/gcc/arm-none-eabi/6.3.1/../../../../arm-none-eabi/lib/thumb/v7e-m/fpv4-sp/hard\libc_nano.a(lib_a-init.o)
 .text          0x00000000        0x0 c:/a/gcc_arm/6/bin/../lib/gcc/arm-none-eabi/6.3.1/../../../../arm-none-eabi/lib/thumb/v7e-m/fpv4-sp/hard\libc_nano.a(lib_a-malloc.o)
 .data          0x00000000        0x0 c:/a/gcc_arm/6/bin/../lib/gcc/arm-none-eabi/6.3.1/../../../../arm-none-eabi/lib/thumb/v7e-m/fpv4-sp/hard\libc_nano.a(lib_a-malloc.o)
 .bss           0x00000000        0x0 c:/a/gcc_arm/6/bin/../lib/gcc/arm-none-eabi/6.3.1/../../../../arm-none-eabi/lib/thumb/v7e-m/fpv4-sp/hard\libc_nano.a(lib_a-malloc.o)
 .text          0x00000000        0x0 c:/a/gcc_arm/6/bin/../lib/gcc/arm-none-eabi/6.3.1/../../../../arm-none-eabi/lib/thumb/v7e-m/fpv4-sp/hard\libc_nano.a(lib_a-memcmp.o)
 .data          0x00000000        0x0 c:/a/gcc_arm/6/bin/../lib/gcc/arm-none-eabi/6.3.1/../../../../arm-none-eabi/lib/thumb/v7e-m/fpv4-sp/hard\libc_nano.a(lib_a-memcmp.o)
 .bss           0x00000000        0x0 c:/a/gcc_arm/6/bin/../lib/gcc/arm-none-eabi/6.3.1/../../../../arm-none-eabi/lib/thumb/v7e-m/fpv4-sp/hard\libc_nano.a(lib_a-memcmp.o)
 .text          0x00000000        0x0 c:/a/gcc_arm/6/bin/../lib/gcc/arm-none-eabi/6.3.1/../../../../arm-none-eabi/lib/thumb/v7e-m/fpv4-sp/hard\libc_nano.a(lib_a-memcpy-stub.o)
 .data          0x00000000        0x0 c:/a/gcc_arm/6/bin/../lib/gcc/arm-none-eabi/6.3.1/../../../../arm-none-eabi/lib/thumb/v7e-m/fpv4-sp/hard\libc_nano.a(lib_a-memcpy-stub.o)
 .bss           0x00000000        0x0 c:/a/gcc_arm/6/bin/../lib/gcc/arm-none-eabi/6.3.1/../../../../arm-none-eabi/lib/thumb/v7e-m/fpv4-sp/hard\libc_nano.a(lib_a-memcpy-stub.o)
 .text          0x00000000        0x0 c:/a/gcc_arm/6/bin/../lib/gcc/arm-none-eabi/6.3.1/../../../../arm-none-eabi/lib/thumb/v7e-m/fpv4-sp/hard\libc_nano.a(lib_a-memset.o)
 .data          0x00000000        0x0 c:/a/gcc_arm/6/bin/../lib/gcc/arm-none-eabi/6.3.1/../../../../arm-none-eabi/lib/thumb/v7e-m/fpv4-sp/hard\libc_nano.a(lib_a-memset.o)
 .bss           0x00000000        0x0 c:/a/gcc_arm/6/bin/../lib/gcc/arm-none-eabi/6.3.1/../../../../arm-none-eabi/lib/thumb/v7e-m/fpv4-sp/hard\libc_nano.a(lib_a-memset.o)
 .text          0x00000000        0x0 c:/a/gcc_arm/6/bin/../lib/gcc/arm-none-eabi/6.3.1/../../../../arm-none-eabi/lib/thumb/v7e-m/fpv4-sp/hard\libc_nano.a(lib_a-nano-freer.o)
 .data          0x00000000        0x0 c:/a/gcc_arm/6/bin/../lib/gcc/arm-none-eabi/6.3.1/../../../../arm-none-eabi/lib/thumb/v7e-m/fpv4-sp/hard\libc_nano.a(lib_a-nano-freer.o)
 .bss           0x00000000        0x0 c:/a/gcc_arm/6/bin/../lib/gcc/arm-none-eabi/6.3.1/../../../../arm-none-eabi/lib/thumb/v7e-m/fpv4-sp/hard\libc_nano.a(lib_a-nano-freer.o)
 .text          0x00000000        0x0 c:/a/gcc_arm/6/bin/../lib/gcc/arm-none-eabi/6.3.1/../../../../arm-none-eabi/lib/thumb/v7e-m/fpv4-sp/hard\libc_nano.a(lib_a-nano-mallocr.o)
 .data          0x00000000        0x0 c:/a/gcc_arm/6/bin/../lib/gcc/arm-none-eabi/6.3.1/../../../../arm-none-eabi/lib/thumb/v7e-m/fpv4-sp/hard\libc_nano.a(lib_a-nano-mallocr.o)
 .bss           0x00000000        0x0 c:/a/gcc_arm/6/bin/../lib/gcc/arm-none-eabi/6.3.1/../../../../arm-none-eabi/lib/thumb/v7e-m/fpv4-sp/hard\libc_nano.a(lib_a-nano-mallocr.o)
 .text          0x00000000        0x0 c:/a/gcc_arm/6/bin/../lib/gcc/arm-none-eabi/6.3.1/../../../../arm-none-eabi/lib/thumb/v7e-m/fpv4-sp/hard\libc_nano.a(lib_a-sbrkr.o)
 .data          0x00000000        0x0 c:/a/gcc_arm/6/bin/../lib/gcc/arm-none-eabi/6.3.1/../../../../arm-none-eabi/lib/thumb/v7e-m/fpv4-sp/hard\libc_nano.a(lib_a-sbrkr.o)
 .bss           0x00000000        0x0 c:/a/gcc_arm/6/bin/../lib/gcc/arm-none-eabi/6.3.1/../../../../arm-none-eabi/lib/thumb/v7e-m/fpv4-sp/hard\libc_nano.a(lib_a-sbrkr.o)
 .text          0x00000000        0x0 c:/a/gcc_arm/6/bin/../lib/gcc/arm-none-eabi/6.3.1/../../../../arm-none-eabi/lib/thumb/v7e-m/fpv4-sp/hard\libc_nano.a(lib_a-strcpy.o)
 .data          0x00000000        0x0 c:/a/gcc_arm/6/bin/../lib/gcc/arm-none-eabi/6.3.1/../../../../arm-none-eabi/lib/thumb/v7e-m/fpv4-sp/hard\libc_nano.a(lib_a-strcpy.o)
 .bss           0x00000000        0x0 c:/a/gcc_arm/6/bin/../lib/gcc/arm-none-eabi/6.3.1/../../../../arm-none-eabi/lib/thumb/v7e-m/fpv4-sp/hard\libc_nano.a(lib_a-strcpy.o)
 .data          0x00000000        0x0 c:/a/gcc_arm/6/bin/../lib/gcc/arm-none-eabi/6.3.1/../../../../arm-none-eabi/lib/thumb/v7e-m/fpv4-sp/hard\libc_nano.a(lib_a-strlen.o)
 .bss           0x00000000        0x0 c:/a/gcc_arm/6/bin/../lib/gcc/arm-none-eabi/6.3.1/../../../../arm-none-eabi/lib/thumb/v7e-m/fpv4-sp/hard\libc_nano.a(lib_a-strlen.o)
 .text          0x00000000        0x0 c:/a/gcc_arm/6/bin/../lib/gcc/arm-none-eabi/6.3.1/../../../../arm-none-eabi/lib/thumb/v7e-m/fpv4-sp/hard\libc_nano.a(lib_a-strrchr.o)
 .data          0x00000000        0x0 c:/a/gcc_arm/6/bin/../lib/gcc/arm-none-eabi/6.3.1/../../../../arm-none-eabi/lib/thumb/v7e-m/fpv4-sp/hard\libc_nano.a(lib_a-strrchr.o)
 .bss           0x00000000        0x0 c:/a/gcc_arm/6/bin/../lib/gcc/arm-none-eabi/6.3.1/../../../../arm-none-eabi/lib/thumb/v7e-m/fpv4-sp/hard\libc_nano.a(lib_a-strrchr.o)
 .text          0x00000000        0x0 c:/a/gcc_arm/6/bin/../lib/gcc/arm-none-eabi/6.3.1/../../../../arm-none-eabi/lib/thumb/v7e-m/fpv4-sp/hard\libc_nano.a(lib_a-mlock.o)
 .data          0x00000000        0x0 c:/a/gcc_arm/6/bin/../lib/gcc/arm-none-eabi/6.3.1/../../../../arm-none-eabi/lib/thumb/v7e-m/fpv4-sp/hard\libc_nano.a(lib_a-mlock.o)
 .bss           0x00000000        0x0 c:/a/gcc_arm/6/bin/../lib/gcc/arm-none-eabi/6.3.1/../../../../arm-none-eabi/lib/thumb/v7e-m/fpv4-sp/hard\libc_nano.a(lib_a-mlock.o)
 .text          0x00000000        0x0 c:/a/gcc_arm/6/bin/../lib/gcc/arm-none-eabi/6.3.1/../../../../arm-none-eabi/lib/thumb/v7e-m/fpv4-sp/hard\libc_nano.a(lib_a-reent.o)
 .data          0x00000000        0x0 c:/a/gcc_arm/6/bin/../lib/gcc/arm-none-eabi/6.3.1/../../../../arm-none-eabi/lib/thumb/v7e-m/fpv4-sp/hard\libc_nano.a(lib_a-reent.o)
 .bss           0x00000000        0x0 c:/a/gcc_arm/6/bin/../lib/gcc/arm-none-eabi/6.3.1/../../../../arm-none-eabi/lib/thumb/v7e-m/fpv4-sp/hard\libc_nano.a(lib_a-reent.o)
 .text.cleanup_glue
                0x00000000       0x1a c:/a/gcc_arm/6/bin/../lib/gcc/arm-none-eabi/6.3.1/../../../../arm-none-eabi/lib/thumb/v7e-m/fpv4-sp/hard\libc_nano.a(lib_a-reent.o)
 .text._reclaim_reent
                0x00000000       0xb8 c:/a/gcc_arm/6/bin/../lib/gcc/arm-none-eabi/6.3.1/../../../../arm-none-eabi/lib/thumb/v7e-m/fpv4-sp/hard\libc_nano.a(lib_a-reent.o)
 .text          0x00000000        0x0 c:/a/gcc_arm/6/bin/../lib/gcc/arm-none-eabi/6.3.1/../../../../arm-none-eabi/lib/thumb/v7e-m/fpv4-sp/hard\libc_nano.a(lib_a-strchr.o)
 .data          0x00000000        0x0 c:/a/gcc_arm/6/bin/../lib/gcc/arm-none-eabi/6.3.1/../../../../arm-none-eabi/lib/thumb/v7e-m/fpv4-sp/hard\libc_nano.a(lib_a-strchr.o)
 .bss           0x00000000        0x0 c:/a/gcc_arm/6/bin/../lib/gcc/arm-none-eabi/6.3.1/../../../../arm-none-eabi/lib/thumb/v7e-m/fpv4-sp/hard\libc_nano.a(lib_a-strchr.o)
 .text          0x00000000        0x0 c:/a/gcc_arm/6/bin/../lib/gcc/arm-none-eabi/6.3.1/thumb/v7e-m/fpv4-sp/hard/crtend.o
 .data          0x00000000        0x0 c:/a/gcc_arm/6/bin/../lib/gcc/arm-none-eabi/6.3.1/thumb/v7e-m/fpv4-sp/hard/crtend.o
 .bss           0x00000000        0x0 c:/a/gcc_arm/6/bin/../lib/gcc/arm-none-eabi/6.3.1/thumb/v7e-m/fpv4-sp/hard/crtend.o
 .text          0x00000000        0x0 c:/a/gcc_arm/6/bin/../lib/gcc/arm-none-eabi/6.3.1/thumb/v7e-m/fpv4-sp/hard/crtn.o
 .data          0x00000000        0x0 c:/a/gcc_arm/6/bin/../lib/gcc/arm-none-eabi/6.3.1/thumb/v7e-m/fpv4-sp/hard/crtn.o
 .bss           0x00000000        0x0 c:/a/gcc_arm/6/bin/../lib/gcc/arm-none-eabi/6.3.1/thumb/v7e-m/fpv4-sp/hard/crtn.o
 .text          0x00000000        0x0 c:/a/gcc_arm/6/bin/../lib/gcc/arm-none-eabi/6.3.1/../../../../arm-none-eabi/lib/thumb/v7e-m/fpv4-sp/hard\libnosys.a(sbrk.o)
 .data          0x00000000        0x0 c:/a/gcc_arm/6/bin/../lib/gcc/arm-none-eabi/6.3.1/../../../../arm-none-eabi/lib/thumb/v7e-m/fpv4-sp/hard\libnosys.a(sbrk.o)
 .bss           0x00000000        0x0 c:/a/gcc_arm/6/bin/../lib/gcc/arm-none-eabi/6.3.1/../../../../arm-none-eabi/lib/thumb/v7e-m/fpv4-sp/hard\libnosys.a(sbrk.o)
 .text          0x00000000        0x0 c:/a/gcc_arm/6/bin/../lib/gcc/arm-none-eabi/6.3.1/../../../../arm-none-eabi/lib/thumb/v7e-m/fpv4-sp/hard\libnosys.a(_exit.o)
 .data          0x00000000        0x0 c:/a/gcc_arm/6/bin/../lib/gcc/arm-none-eabi/6.3.1/../../../../arm-none-eabi/lib/thumb/v7e-m/fpv4-sp/hard\libnosys.a(_exit.o)
 .bss           0x00000000        0x0 c:/a/gcc_arm/6/bin/../lib/gcc/arm-none-eabi/6.3.1/../../../../arm-none-eabi/lib/thumb/v7e-m/fpv4-sp/hard\libnosys.a(_exit.o)

Memory Configuration

Name             Origin             Length             Attributes
FLASH            0x0001f000         0x00061000         xr
RAM              0x200019c0         0x0000e640         xrw
*default*        0x00000000         0xffffffff

Linker script and memory map

LOAD c:/a/gcc_arm/6/bin/../lib/gcc/arm-none-eabi/6.3.1/thumb/v7e-m/fpv4-sp/hard/crti.o
LOAD c:/a/gcc_arm/6/bin/../lib/gcc/arm-none-eabi/6.3.1/thumb/v7e-m/fpv4-sp/hard/crtbegin.o
LOAD c:/a/gcc_arm/6/bin/../lib/gcc/arm-none-eabi/6.3.1/../../../../arm-none-eabi/lib/thumb/v7e-m/fpv4-sp/hard/crt0.o
LOAD examples/pb_remote/client/CMakeFiles/pb_remote_client_nrf52832_xxAA_s132_3.1.0.dir/src/main.c.obj
LOAD examples/pb_remote/client/CMakeFiles/pb_remote_client_nrf52832_xxAA_s132_3.1.0.dir/__/__/nrf_mesh_sdk.c.obj
LOAD examples/pb_remote/client/CMakeFiles/pb_remote_client_nrf52832_xxAA_s132_3.1.0.dir/__/__/__/models/pb_remote/src/pb_remote_client.c.obj
LOAD examples/pb_remote/client/CMakeFiles/pb_remote_client_nrf52832_xxAA_s132_3.1.0.dir/__/__/__/mesh/prov/src/prov_provisioner.c.obj
LOAD examples/pb_remote/client/CMakeFiles/pb_remote_client_nrf52832_xxAA_s132_3.1.0.dir/__/__/__/mesh/prov/src/nrf_mesh_prov.c.obj
LOAD examples/pb_remote/client/CMakeFiles/pb_remote_client_nrf52832_xxAA_s132_3.1.0.dir/__/__/__/mesh/prov/src/provisioning.c.obj
LOAD examples/pb_remote/client/CMakeFiles/pb_remote_client_nrf52832_xxAA_s132_3.1.0.dir/__/__/__/mesh/prov/src/prov_beacon.c.obj
LOAD examples/pb_remote/client/CMakeFiles/pb_remote_client_nrf52832_xxAA_s132_3.1.0.dir/__/__/__/mesh/prov/src/prov_utils.c.obj
LOAD examples/pb_remote/client/CMakeFiles/pb_remote_client_nrf52832_xxAA_s132_3.1.0.dir/__/__/__/mesh/prov/src/prov_bearer_adv.c.obj
LOAD examples/pb_remote/client/CMakeFiles/pb_remote_client_nrf52832_xxAA_s132_3.1.0.dir/__/__/__/mesh/access/src/access_publish.c.obj
LOAD examples/pb_remote/client/CMakeFiles/pb_remote_client_nrf52832_xxAA_s132_3.1.0.dir/__/__/__/mesh/access/src/access.c.obj
LOAD examples/pb_remote/client/CMakeFiles/pb_remote_client_nrf52832_xxAA_s132_3.1.0.dir/__/__/__/mesh/access/src/access_reliable.c.obj
LOAD examples/pb_remote/client/CMakeFiles/pb_remote_client_nrf52832_xxAA_s132_3.1.0.dir/__/__/__/mesh/access/src/device_state_manager.c.obj
LOAD examples/pb_remote/client/CMakeFiles/pb_remote_client_nrf52832_xxAA_s132_3.1.0.dir/__/__/nrf_mesh_weak.c.obj
LOAD examples/pb_remote/client/CMakeFiles/pb_remote_client_nrf52832_xxAA_s132_3.1.0.dir/__/__/__/external/nRF5_SDK_14.0.0_3bcc1f7/components/toolchain/system_nrf52.c.obj
LOAD examples/pb_remote/client/CMakeFiles/pb_remote_client_nrf52832_xxAA_s132_3.1.0.dir/__/__/__/external/nRF5_SDK_14.0.0_3bcc1f7/components/toolchain/gcc/gcc_startup_nrf52.S.obj
LOAD mesh/core/libmesh_core_nrf52832_xxAA.a
LOAD external/rtt/librtt_nrf52832_xxAA.a
LOAD external/micro-ecc/libuECC_nrf52832_xxAA.a
START GROUP
LOAD c:/a/gcc_arm/6/bin/../lib/gcc/arm-none-eabi/6.3.1/thumb/v7e-m/fpv4-sp/hard\libgcc.a
LOAD c:/a/gcc_arm/6/bin/../lib/gcc/arm-none-eabi/6.3.1/../../../../arm-none-eabi/lib/thumb/v7e-m/fpv4-sp/hard\libc_nano.a
END GROUP
START GROUP
LOAD c:/a/gcc_arm/6/bin/../lib/gcc/arm-none-eabi/6.3.1/thumb/v7e-m/fpv4-sp/hard\libgcc.a
LOAD c:/a/gcc_arm/6/bin/../lib/gcc/arm-none-eabi/6.3.1/../../../../arm-none-eabi/lib/thumb/v7e-m/fpv4-sp/hard\libc_nano.a
END GROUP
LOAD c:/a/gcc_arm/6/bin/../lib/gcc/arm-none-eabi/6.3.1/thumb/v7e-m/fpv4-sp/hard/crtend.o
LOAD c:/a/gcc_arm/6/bin/../lib/gcc/arm-none-eabi/6.3.1/thumb/v7e-m/fpv4-sp/hard/crtn.o
START GROUP
LOAD c:/a/gcc_arm/6/bin/../lib/gcc/arm-none-eabi/6.3.1/thumb/v7e-m/fpv4-sp/hard\libgcc.a
LOAD c:/a/gcc_arm/6/bin/../lib/gcc/arm-none-eabi/6.3.1/../../../../arm-none-eabi/lib/thumb/v7e-m/fpv4-sp/hard\libc.a
LOAD c:/a/gcc_arm/6/bin/../lib/gcc/arm-none-eabi/6.3.1/../../../../arm-none-eabi/lib/thumb/v7e-m/fpv4-sp/hard\libnosys.a
END GROUP

.text           0x0001f000    0x17c20
 *(.isr_vector)
 .isr_vector    0x0001f000      0x200 examples/pb_remote/client/CMakeFiles/pb_remote_client_nrf52832_xxAA_s132_3.1.0.dir/__/__/__/external/nRF5_SDK_14.0.0_3bcc1f7/components/toolchain/gcc/gcc_startup_nrf52.S.obj
                0x0001f000                __isr_vector
 *(.text*)
 .text          0x0001f200       0x6c c:/a/gcc_arm/6/bin/../lib/gcc/arm-none-eabi/6.3.1/thumb/v7e-m/fpv4-sp/hard/crtbegin.o
 .text          0x0001f26c       0x74 c:/a/gcc_arm/6/bin/../lib/gcc/arm-none-eabi/6.3.1/../../../../arm-none-eabi/lib/thumb/v7e-m/fpv4-sp/hard/crt0.o
                0x0001f26c                _start
                0x0001f26c                _mainCRTStartup
 .text.mesh_evt_handler
                0x0001f2e0      0x448 examples/pb_remote/client/CMakeFiles/pb_remote_client_nrf52832_xxAA_s132_3.1.0.dir/src/main.c.obj
 .text.remote_client_event_cb
                0x0001f728      0x38c examples/pb_remote/client/CMakeFiles/pb_remote_client_nrf52832_xxAA_s132_3.1.0.dir/src/main.c.obj
 .text.startup.main
                0x0001fab4      0x698 examples/pb_remote/client/CMakeFiles/pb_remote_client_nrf52832_xxAA_s132_3.1.0.dir/src/main.c.obj
                0x0001fab4                main
 .text.sd_evt_get
                0x0002014c        0x4 examples/pb_remote/client/CMakeFiles/pb_remote_client_nrf52832_xxAA_s132_3.1.0.dir/__/__/nrf_mesh_sdk.c.obj
 .text.sd_softdevice_enable
                0x00020150        0x4 examples/pb_remote/client/CMakeFiles/pb_remote_client_nrf52832_xxAA_s132_3.1.0.dir/__/__/nrf_mesh_sdk.c.obj
 .text.sd_ble_enable
                0x00020154        0x4 examples/pb_remote/client/CMakeFiles/pb_remote_client_nrf52832_xxAA_s132_3.1.0.dir/__/__/nrf_mesh_sdk.c.obj
 .text.sd_ble_evt_get
                0x00020158        0x4 examples/pb_remote/client/CMakeFiles/pb_remote_client_nrf52832_xxAA_s132_3.1.0.dir/__/__/nrf_mesh_sdk.c.obj
 .text.mesh_assert_handler
                0x0002015c       0x80 examples/pb_remote/client/CMakeFiles/pb_remote_client_nrf52832_xxAA_s132_3.1.0.dir/__/__/nrf_mesh_sdk.c.obj
                0x0002015c                mesh_assert_handler
 .text.softdevice_assert_handler
                0x000201dc       0x94 examples/pb_remote/client/CMakeFiles/pb_remote_client_nrf52832_xxAA_s132_3.1.0.dir/__/__/nrf_mesh_sdk.c.obj
                0x000201dc                softdevice_assert_handler
 .text.app_error_handler
                0x00020270       0x88 examples/pb_remote/client/CMakeFiles/pb_remote_client_nrf52832_xxAA_s132_3.1.0.dir/__/__/nrf_mesh_sdk.c.obj
                0x00020270                app_error_handler
 .text.HardFault_Handler
                0x000202f8       0x78 examples/pb_remote/client/CMakeFiles/pb_remote_client_nrf52832_xxAA_s132_3.1.0.dir/__/__/nrf_mesh_sdk.c.obj
                0x000202f8                HardFault_Handler
 .text.SWI2_EGU2_IRQHandler
                0x00020370       0x40 examples/pb_remote/client/CMakeFiles/pb_remote_client_nrf52832_xxAA_s132_3.1.0.dir/__/__/nrf_mesh_sdk.c.obj
                0x00020370                SWI2_EGU2_IRQHandler
 .text.mesh_softdevice_setup
                0x000203b0      0x1c8 examples/pb_remote/client/CMakeFiles/pb_remote_client_nrf52832_xxAA_s132_3.1.0.dir/__/__/nrf_mesh_sdk.c.obj
                0x000203b0                mesh_softdevice_setup
 .text.mesh_core_setup
                0x00020578      0x160 examples/pb_remote/client/CMakeFiles/pb_remote_client_nrf52832_xxAA_s132_3.1.0.dir/__/__/nrf_mesh_sdk.c.obj
                0x00020578                mesh_core_setup
 .text.pb_if_link_open_cb
                0x000206d8        0x4 examples/pb_remote/client/CMakeFiles/pb_remote_client_nrf52832_xxAA_s132_3.1.0.dir/__/__/__/models/pb_remote/src/pb_remote_client.c.obj
 .text.pb_if_listen_start_cb
                0x000206dc        0x4 examples/pb_remote/client/CMakeFiles/pb_remote_client_nrf52832_xxAA_s132_3.1.0.dir/__/__/__/models/pb_remote/src/pb_remote_client.c.obj
 .text.pb_if_listen_stop_cb
                0x000206e0        0x4 examples/pb_remote/client/CMakeFiles/pb_remote_client_nrf52832_xxAA_s132_3.1.0.dir/__/__/__/models/pb_remote/src/pb_remote_client.c.obj
 .text.pb_remote_client_event_transfer_status_cb
                0x000206e4       0xbc examples/pb_remote/client/CMakeFiles/pb_remote_client_nrf52832_xxAA_s132_3.1.0.dir/__/__/__/models/pb_remote/src/pb_remote_client.c.obj
 .text.pb_remote_client_event_link_status_cb
                0x000207a0      0x288 examples/pb_remote/client/CMakeFiles/pb_remote_client_nrf52832_xxAA_s132_3.1.0.dir/__/__/__/models/pb_remote/src/pb_remote_client.c.obj
 .text.pb_remote_client_event_scan_status_cb
                0x00020a28      0x1a0 examples/pb_remote/client/CMakeFiles/pb_remote_client_nrf52832_xxAA_s132_3.1.0.dir/__/__/__/models/pb_remote/src/pb_remote_client.c.obj
 .text.pb_remote_client_event_unprov_number_cb
                0x00020bc8       0x78 examples/pb_remote/client/CMakeFiles/pb_remote_client_nrf52832_xxAA_s132_3.1.0.dir/__/__/__/models/pb_remote/src/pb_remote_client.c.obj
 .text.pb_remote_client_event_tx_failed_cb
                0x00020c40       0x68 examples/pb_remote/client/CMakeFiles/pb_remote_client_nrf52832_xxAA_s132_3.1.0.dir/__/__/__/models/pb_remote/src/pb_remote_client.c.obj
 .text.pb_remote_client_process.part.8
                0x00020ca8      0x128 examples/pb_remote/client/CMakeFiles/pb_remote_client_nrf52832_xxAA_s132_3.1.0.dir/__/__/__/models/pb_remote/src/pb_remote_client.c.obj
 .text.pb_if_link_close_cb
                0x00020dd0       0x58 examples/pb_remote/client/CMakeFiles/pb_remote_client_nrf52832_xxAA_s132_3.1.0.dir/__/__/__/models/pb_remote/src/pb_remote_client.c.obj
 .text.client_reliable_status_cb
                0x00020e28      0x14c examples/pb_remote/client/CMakeFiles/pb_remote_client_nrf52832_xxAA_s132_3.1.0.dir/__/__/__/models/pb_remote/src/pb_remote_client.c.obj
 .text.pb_if_tx_cb
                0x00020f74       0x4c examples/pb_remote/client/CMakeFiles/pb_remote_client_nrf52832_xxAA_s132_3.1.0.dir/__/__/__/models/pb_remote/src/pb_remote_client.c.obj
 .text.pb_remote_client_event_link_status_report_cb
                0x00020fc0      0x1c8 examples/pb_remote/client/CMakeFiles/pb_remote_client_nrf52832_xxAA_s132_3.1.0.dir/__/__/__/models/pb_remote/src/pb_remote_client.c.obj
 .text.pb_remote_client_event_packet_transfer_cb
                0x00021188      0x100 examples/pb_remote/client/CMakeFiles/pb_remote_client_nrf52832_xxAA_s132_3.1.0.dir/__/__/__/models/pb_remote/src/pb_remote_client.c.obj
 .text.pb_remote_client_event_prov_start_cb
                0x00021288       0x88 examples/pb_remote/client/CMakeFiles/pb_remote_client_nrf52832_xxAA_s132_3.1.0.dir/__/__/__/models/pb_remote/src/pb_remote_client.c.obj
 .text.pb_remote_client_event_unprov_uuid_cb
                0x00021310      0x108 examples/pb_remote/client/CMakeFiles/pb_remote_client_nrf52832_xxAA_s132_3.1.0.dir/__/__/__/models/pb_remote/src/pb_remote_client.c.obj
 .text.pb_remote_client_event_transfer_status_report_cb
                0x00021418      0x188 examples/pb_remote/client/CMakeFiles/pb_remote_client_nrf52832_xxAA_s132_3.1.0.dir/__/__/__/models/pb_remote/src/pb_remote_client.c.obj
 .text.pb_remote_client_event_link_close_cb
                0x000215a0       0xcc examples/pb_remote/client/CMakeFiles/pb_remote_client_nrf52832_xxAA_s132_3.1.0.dir/__/__/__/models/pb_remote/src/pb_remote_client.c.obj
 .text.pb_remote_client_event_local_packet_cb
                0x0002166c       0xe4 examples/pb_remote/client/CMakeFiles/pb_remote_client_nrf52832_xxAA_s132_3.1.0.dir/__/__/__/models/pb_remote/src/pb_remote_client.c.obj
 .text.pb_remote_client_event_scan_start_cb
                0x00021750       0xc4 examples/pb_remote/client/CMakeFiles/pb_remote_client_nrf52832_xxAA_s132_3.1.0.dir/__/__/__/models/pb_remote/src/pb_remote_client.c.obj
 .text.pb_remote_client_event_scan_cancel_cb
                0x00021814       0xc4 examples/pb_remote/client/CMakeFiles/pb_remote_client_nrf52832_xxAA_s132_3.1.0.dir/__/__/__/models/pb_remote/src/pb_remote_client.c.obj
 .text.remote_client_access_rx_cb
                0x000218d8      0x1f4 examples/pb_remote/client/CMakeFiles/pb_remote_client_nrf52832_xxAA_s132_3.1.0.dir/__/__/__/models/pb_remote/src/pb_remote_client.c.obj
 .text.pb_remote_client_init
                0x00021acc       0x94 examples/pb_remote/client/CMakeFiles/pb_remote_client_nrf52832_xxAA_s132_3.1.0.dir/__/__/__/models/pb_remote/src/pb_remote_client.c.obj
                0x00021acc                pb_remote_client_init
 .text.pb_remote_client_remote_scan_start
                0x00021b60       0x58 examples/pb_remote/client/CMakeFiles/pb_remote_client_nrf52832_xxAA_s132_3.1.0.dir/__/__/__/models/pb_remote/src/pb_remote_client.c.obj
                0x00021b60                pb_remote_client_remote_scan_start
 .text.pb_remote_client_remote_scan_cancel
                0x00021bb8       0x58 examples/pb_remote/client/CMakeFiles/pb_remote_client_nrf52832_xxAA_s132_3.1.0.dir/__/__/__/models/pb_remote/src/pb_remote_client.c.obj
                0x00021bb8                pb_remote_client_remote_scan_cancel
 .text.pb_remote_client_remote_provision
                0x00021c10       0x78 examples/pb_remote/client/CMakeFiles/pb_remote_client_nrf52832_xxAA_s132_3.1.0.dir/__/__/__/models/pb_remote/src/pb_remote_client.c.obj
                0x00021c10                pb_remote_client_remote_provision
 .text.prov_provisioner_cb_link_closed
                0x00021c88       0x2c examples/pb_remote/client/CMakeFiles/pb_remote_client_nrf52832_xxAA_s132_3.1.0.dir/__/__/__/mesh/prov/src/prov_provisioner.c.obj
 .text.prov_provisioner_cb_link_established
                0x00021cb4       0x44 examples/pb_remote/client/CMakeFiles/pb_remote_client_nrf52832_xxAA_s132_3.1.0.dir/__/__/__/mesh/prov/src/prov_provisioner.c.obj
 .text.prov_provisioner_cb_ack_received
                0x00021cf8       0x4c examples/pb_remote/client/CMakeFiles/pb_remote_client_nrf52832_xxAA_s132_3.1.0.dir/__/__/__/mesh/prov/src/prov_provisioner.c.obj
 .text.prov_provisioner_pkt_in
                0x00021d44      0x350 examples/pb_remote/client/CMakeFiles/pb_remote_client_nrf52832_xxAA_s132_3.1.0.dir/__/__/__/mesh/prov/src/prov_provisioner.c.obj
 .text.prov_provisioner_provision
                0x00022094       0x4c examples/pb_remote/client/CMakeFiles/pb_remote_client_nrf52832_xxAA_s132_3.1.0.dir/__/__/__/mesh/prov/src/prov_provisioner.c.obj
                0x00022094                prov_provisioner_provision
 .text.prov_provisioner_oob_use
                0x000220e0       0xb0 examples/pb_remote/client/CMakeFiles/pb_remote_client_nrf52832_xxAA_s132_3.1.0.dir/__/__/__/mesh/prov/src/prov_provisioner.c.obj
                0x000220e0                prov_provisioner_oob_use
 .text.prov_provisioner_auth_data
                0x00022190       0x64 examples/pb_remote/client/CMakeFiles/pb_remote_client_nrf52832_xxAA_s132_3.1.0.dir/__/__/__/mesh/prov/src/prov_provisioner.c.obj
                0x00022190                prov_provisioner_auth_data
 .text.nrf_mesh_prov_init
                0x000221f4       0x24 examples/pb_remote/client/CMakeFiles/pb_remote_client_nrf52832_xxAA_s132_3.1.0.dir/__/__/__/mesh/prov/src/nrf_mesh_prov.c.obj
                0x000221f4                nrf_mesh_prov_init
 .text.nrf_mesh_prov_generate_keys
                0x00022218        0x4 examples/pb_remote/client/CMakeFiles/pb_remote_client_nrf52832_xxAA_s132_3.1.0.dir/__/__/__/mesh/prov/src/nrf_mesh_prov.c.obj
                0x00022218                nrf_mesh_prov_generate_keys
 .text.nrf_mesh_prov_provision
                0x0002221c       0x50 examples/pb_remote/client/CMakeFiles/pb_remote_client_nrf52832_xxAA_s132_3.1.0.dir/__/__/__/mesh/prov/src/nrf_mesh_prov.c.obj
                0x0002221c                nrf_mesh_prov_provision
 .text.nrf_mesh_prov_oob_use
                0x0002226c       0x10 examples/pb_remote/client/CMakeFiles/pb_remote_client_nrf52832_xxAA_s132_3.1.0.dir/__/__/__/mesh/prov/src/nrf_mesh_prov.c.obj
                0x0002226c                nrf_mesh_prov_oob_use
 .text.nrf_mesh_prov_auth_data_provide
                0x0002227c       0x10 examples/pb_remote/client/CMakeFiles/pb_remote_client_nrf52832_xxAA_s132_3.1.0.dir/__/__/__/mesh/prov/src/nrf_mesh_prov.c.obj
                0x0002227c                nrf_mesh_prov_auth_data_provide
 .text.prov_packet_length_valid
                0x0002228c       0x20 examples/pb_remote/client/CMakeFiles/pb_remote_client_nrf52832_xxAA_s132_3.1.0.dir/__/__/__/mesh/prov/src/provisioning.c.obj
                0x0002228c                prov_packet_length_valid
 .text.prov_init
                0x000222ac       0x34 examples/pb_remote/client/CMakeFiles/pb_remote_client_nrf52832_xxAA_s132_3.1.0.dir/__/__/__/mesh/prov/src/provisioning.c.obj
                0x000222ac                prov_init
 .text.prov_link_open
                0x000222e0       0x14 examples/pb_remote/client/CMakeFiles/pb_remote_client_nrf52832_xxAA_s132_3.1.0.dir/__/__/__/mesh/prov/src/provisioning.c.obj
                0x000222e0                prov_link_open
 .text.prov_link_close
                0x000222f4        0x8 examples/pb_remote/client/CMakeFiles/pb_remote_client_nrf52832_xxAA_s132_3.1.0.dir/__/__/__/mesh/prov/src/provisioning.c.obj
                0x000222f4                prov_link_close
 .text.prov_tx_invite
                0x000222fc       0x44 examples/pb_remote/client/CMakeFiles/pb_remote_client_nrf52832_xxAA_s132_3.1.0.dir/__/__/__/mesh/prov/src/provisioning.c.obj
                0x000222fc                prov_tx_invite
 .text.prov_tx_start
                0x00022340       0x4c examples/pb_remote/client/CMakeFiles/pb_remote_client_nrf52832_xxAA_s132_3.1.0.dir/__/__/__/mesh/prov/src/provisioning.c.obj
                0x00022340                prov_tx_start
 .text.prov_tx_public_key
                0x0002238c       0x40 examples/pb_remote/client/CMakeFiles/pb_remote_client_nrf52832_xxAA_s132_3.1.0.dir/__/__/__/mesh/prov/src/provisioning.c.obj
                0x0002238c                prov_tx_public_key
 .text.prov_tx_confirmation
                0x000223cc       0x40 examples/pb_remote/client/CMakeFiles/pb_remote_client_nrf52832_xxAA_s132_3.1.0.dir/__/__/__/mesh/prov/src/provisioning.c.obj
                0x000223cc                prov_tx_confirmation
 .text.prov_tx_random
                0x0002240c       0x40 examples/pb_remote/client/CMakeFiles/pb_remote_client_nrf52832_xxAA_s132_3.1.0.dir/__/__/__/mesh/prov/src/provisioning.c.obj
                0x0002240c                prov_tx_random
 .text.prov_tx_data
                0x0002244c       0x48 examples/pb_remote/client/CMakeFiles/pb_remote_client_nrf52832_xxAA_s132_3.1.0.dir/__/__/__/mesh/prov/src/provisioning.c.obj
                0x0002244c                prov_tx_data
 .text.prov_cb_link_opened
                0x00022494        0x8 examples/pb_remote/client/CMakeFiles/pb_remote_client_nrf52832_xxAA_s132_3.1.0.dir/__/__/__/mesh/prov/src/provisioning.c.obj
                0x00022494                prov_cb_link_opened
 .text.prov_cb_link_closed
                0x0002249c        0x8 examples/pb_remote/client/CMakeFiles/pb_remote_client_nrf52832_xxAA_s132_3.1.0.dir/__/__/__/mesh/prov/src/provisioning.c.obj
                0x0002249c                prov_cb_link_closed
 .text.prov_cb_pkt_in
                0x000224a4       0x88 examples/pb_remote/client/CMakeFiles/pb_remote_client_nrf52832_xxAA_s132_3.1.0.dir/__/__/__/mesh/prov/src/provisioning.c.obj
                0x000224a4                prov_cb_pkt_in
 .text.prov_cb_ack_in
                0x0002252c        0x8 examples/pb_remote/client/CMakeFiles/pb_remote_client_nrf52832_xxAA_s132_3.1.0.dir/__/__/__/mesh/prov/src/provisioning.c.obj
                0x0002252c                prov_cb_ack_in
 .text.prov_beacon_unprov_build
                0x00022534       0x54 examples/pb_remote/client/CMakeFiles/pb_remote_client_nrf52832_xxAA_s132_3.1.0.dir/__/__/__/mesh/prov/src/prov_beacon.c.obj
                0x00022534                prov_beacon_unprov_build
 .text.prov_beacon_unprov_packet_in
                0x00022588       0xbc examples/pb_remote/client/CMakeFiles/pb_remote_client_nrf52832_xxAA_s132_3.1.0.dir/__/__/__/mesh/prov/src/prov_beacon.c.obj
                0x00022588                prov_beacon_unprov_packet_in
 .text.prov_utils_use_ecdh_offloading
                0x00022644        0xc examples/pb_remote/client/CMakeFiles/pb_remote_client_nrf52832_xxAA_s132_3.1.0.dir/__/__/__/mesh/prov/src/prov_utils.c.obj
                0x00022644                prov_utils_use_ecdh_offloading
 .text.prov_utils_authentication_values_derive
                0x00022650       0xac examples/pb_remote/client/CMakeFiles/pb_remote_client_nrf52832_xxAA_s132_3.1.0.dir/__/__/__/mesh/prov/src/prov_utils.c.obj
                0x00022650                prov_utils_authentication_values_derive
 .text.prov_utils_keys_generate
                0x000226fc       0x20 examples/pb_remote/client/CMakeFiles/pb_remote_client_nrf52832_xxAA_s132_3.1.0.dir/__/__/__/mesh/prov/src/prov_utils.c.obj
                0x000226fc                prov_utils_keys_generate
 .text.prov_utils_derive_keys
                0x0002271c       0xb4 examples/pb_remote/client/CMakeFiles/pb_remote_client_nrf52832_xxAA_s132_3.1.0.dir/__/__/__/mesh/prov/src/prov_utils.c.obj
                0x0002271c                prov_utils_derive_keys
 .text.prov_utils_calculate_shared_secret
                0x000227d0       0x38 examples/pb_remote/client/CMakeFiles/pb_remote_client_nrf52832_xxAA_s132_3.1.0.dir/__/__/__/mesh/prov/src/prov_utils.c.obj
                0x000227d0                prov_utils_calculate_shared_secret
 .text.prov_utils_generate_oob_data
                0x00022808      0x1c8 examples/pb_remote/client/CMakeFiles/pb_remote_client_nrf52832_xxAA_s132_3.1.0.dir/__/__/__/mesh/prov/src/prov_utils.c.obj
                0x00022808                prov_utils_generate_oob_data
 .text.prov_utils_confirmation_check
                0x000229d0       0x5c examples/pb_remote/client/CMakeFiles/pb_remote_client_nrf52832_xxAA_s132_3.1.0.dir/__/__/__/mesh/prov/src/prov_utils.c.obj
                0x000229d0                prov_utils_confirmation_check
 .text.remove_active_bearer
                0x00022a2c       0x70 examples/pb_remote/client/CMakeFiles/pb_remote_client_nrf52832_xxAA_s132_3.1.0.dir/__/__/__/mesh/prov/src/prov_bearer_adv.c.obj
 .text.prov_bearer_adv_listen_stop
                0x00022a9c       0x3c examples/pb_remote/client/CMakeFiles/pb_remote_client_nrf52832_xxAA_s132_3.1.0.dir/__/__/__/mesh/prov/src/prov_bearer_adv.c.obj
 .text.link_timeout_cb
                0x00022ad8        0x8 examples/pb_remote/client/CMakeFiles/pb_remote_client_nrf52832_xxAA_s132_3.1.0.dir/__/__/__/mesh/prov/src/prov_bearer_adv.c.obj
 .text.tx_complete_cb
                0x00022ae0       0x20 examples/pb_remote/client/CMakeFiles/pb_remote_client_nrf52832_xxAA_s132_3.1.0.dir/__/__/__/mesh/prov/src/prov_bearer_adv.c.obj
 .text.prov_bearer_adv_listen
                0x00022b00      0x160 examples/pb_remote/client/CMakeFiles/pb_remote_client_nrf52832_xxAA_s132_3.1.0.dir/__/__/__/mesh/prov/src/prov_bearer_adv.c.obj
 .text.prov_buffer_tx
                0x00022c60      0x218 examples/pb_remote/client/CMakeFiles/pb_remote_client_nrf52832_xxAA_s132_3.1.0.dir/__/__/__/mesh/prov/src/prov_bearer_adv.c.obj
 .text.prov_bearer_adv_tx
                0x00022e78       0xd4 examples/pb_remote/client/CMakeFiles/pb_remote_client_nrf52832_xxAA_s132_3.1.0.dir/__/__/__/mesh/prov/src/prov_bearer_adv.c.obj
 .text.send_link_ack
                0x00022f4c       0x90 examples/pb_remote/client/CMakeFiles/pb_remote_client_nrf52832_xxAA_s132_3.1.0.dir/__/__/__/mesh/prov/src/prov_bearer_adv.c.obj
 .text.tx_retry_cb
                0x00022fdc      0x148 examples/pb_remote/client/CMakeFiles/pb_remote_client_nrf52832_xxAA_s132_3.1.0.dir/__/__/__/mesh/prov/src/prov_bearer_adv.c.obj
 .text.send_transaction_ack
                0x00023124       0x78 examples/pb_remote/client/CMakeFiles/pb_remote_client_nrf52832_xxAA_s132_3.1.0.dir/__/__/__/mesh/prov/src/prov_bearer_adv.c.obj
 .text.prov_buffer_rx
                0x0002319c       0xa4 examples/pb_remote/client/CMakeFiles/pb_remote_client_nrf52832_xxAA_s132_3.1.0.dir/__/__/__/mesh/prov/src/prov_bearer_adv.c.obj
 .text.async_process
                0x00023240       0xb4 examples/pb_remote/client/CMakeFiles/pb_remote_client_nrf52832_xxAA_s132_3.1.0.dir/__/__/__/mesh/prov/src/prov_bearer_adv.c.obj
 .text.prov_bearer_adv_link_open
                0x000232f4      0x1c4 examples/pb_remote/client/CMakeFiles/pb_remote_client_nrf52832_xxAA_s132_3.1.0.dir/__/__/__/mesh/prov/src/prov_bearer_adv.c.obj
 .text.prov_bearer_adv_link_close
                0x000234b8      0x154 examples/pb_remote/client/CMakeFiles/pb_remote_client_nrf52832_xxAA_s132_3.1.0.dir/__/__/__/mesh/prov/src/prov_bearer_adv.c.obj
 .text.prov_bearer_adv_interface_get
                0x0002360c       0x28 examples/pb_remote/client/CMakeFiles/pb_remote_client_nrf52832_xxAA_s132_3.1.0.dir/__/__/__/mesh/prov/src/prov_bearer_adv.c.obj
                0x0002360c                prov_bearer_adv_interface_get
 .text.prov_bearer_adv_packet_in
                0x00023634      0x9d0 examples/pb_remote/client/CMakeFiles/pb_remote_client_nrf52832_xxAA_s132_3.1.0.dir/__/__/__/mesh/prov/src/prov_bearer_adv.c.obj
                0x00023634                prov_bearer_adv_packet_in
 .text.add_to_publication_list
                0x00024004       0x8c examples/pb_remote/client/CMakeFiles/pb_remote_client_nrf52832_xxAA_s132_3.1.0.dir/__/__/__/mesh/access/src/access_publish.c.obj
 .text.schedule_publication_timer
                0x00024090      0x2f4 examples/pb_remote/client/CMakeFiles/pb_remote_client_nrf52832_xxAA_s132_3.1.0.dir/__/__/__/mesh/access/src/access_publish.c.obj
 .text.publish_timer_tick
                0x00024384       0xd0 examples/pb_remote/client/CMakeFiles/pb_remote_client_nrf52832_xxAA_s132_3.1.0.dir/__/__/__/mesh/access/src/access_publish.c.obj
 .text.access_publish_init
                0x00024454       0x38 examples/pb_remote/client/CMakeFiles/pb_remote_client_nrf52832_xxAA_s132_3.1.0.dir/__/__/__/mesh/access/src/access_publish.c.obj
                0x00024454                access_publish_init
 .text.flash_invalidate_complete
                0x0002448c       0x14 examples/pb_remote/client/CMakeFiles/pb_remote_client_nrf52832_xxAA_s132_3.1.0.dir/__/__/__/mesh/access/src/access.c.obj
 .text.flash_manager_mem_available
                0x000244a0        0x4 examples/pb_remote/client/CMakeFiles/pb_remote_client_nrf52832_xxAA_s132_3.1.0.dir/__/__/__/mesh/access/src/access.c.obj
 .text.handle_incoming
                0x000244a4      0x1b8 examples/pb_remote/client/CMakeFiles/pb_remote_client_nrf52832_xxAA_s132_3.1.0.dir/__/__/__/mesh/access/src/access.c.obj
 .text.mesh_evt_cb
                0x0002465c      0x15c examples/pb_remote/client/CMakeFiles/pb_remote_client_nrf52832_xxAA_s132_3.1.0.dir/__/__/__/mesh/access/src/access.c.obj
 .text.add_flash_manager
                0x000247b8       0x58 examples/pb_remote/client/CMakeFiles/pb_remote_client_nrf52832_xxAA_s132_3.1.0.dir/__/__/__/mesh/access/src/access.c.obj
 .text.flash_write_complete
                0x00024810       0x58 examples/pb_remote/client/CMakeFiles/pb_remote_client_nrf52832_xxAA_s132_3.1.0.dir/__/__/__/mesh/access/src/access.c.obj
 .text.flash_remove_complete
                0x00024868       0xb0 examples/pb_remote/client/CMakeFiles/pb_remote_client_nrf52832_xxAA_s132_3.1.0.dir/__/__/__/mesh/access/src/access.c.obj
 .text.access_init
                0x00024918       0xb4 examples/pb_remote/client/CMakeFiles/pb_remote_client_nrf52832_xxAA_s132_3.1.0.dir/__/__/__/mesh/access/src/access.c.obj
                0x00024918                access_init
 .text.access_model_add
                0x000249cc      0x1f4 examples/pb_remote/client/CMakeFiles/pb_remote_client_nrf52832_xxAA_s132_3.1.0.dir/__/__/__/mesh/access/src/access.c.obj
                0x000249cc                access_model_add
 .text.access_model_publish
                0x00024bc0      0x2d4 examples/pb_remote/client/CMakeFiles/pb_remote_client_nrf52832_xxAA_s132_3.1.0.dir/__/__/__/mesh/access/src/access.c.obj
                0x00024bc0                access_model_publish
 .text.access_model_reply
                0x00024e94      0x2d0 examples/pb_remote/client/CMakeFiles/pb_remote_client_nrf52832_xxAA_s132_3.1.0.dir/__/__/__/mesh/access/src/access.c.obj
                0x00024e94                access_model_reply
 .text.access_model_publish_address_set
                0x00025164       0x3c examples/pb_remote/client/CMakeFiles/pb_remote_client_nrf52832_xxAA_s132_3.1.0.dir/__/__/__/mesh/access/src/access.c.obj
                0x00025164                access_model_publish_address_set
 .text.access_model_publish_address_get
                0x000251a0       0x2c examples/pb_remote/client/CMakeFiles/pb_remote_client_nrf52832_xxAA_s132_3.1.0.dir/__/__/__/mesh/access/src/access.c.obj
                0x000251a0                access_model_publish_address_get
 .text.access_model_application_bind
                0x000251cc       0x58 examples/pb_remote/client/CMakeFiles/pb_remote_client_nrf52832_xxAA_s132_3.1.0.dir/__/__/__/mesh/access/src/access.c.obj
                0x000251cc                access_model_application_bind
 .text.access_model_publish_application_set
                0x00025224       0x3c examples/pb_remote/client/CMakeFiles/pb_remote_client_nrf52832_xxAA_s132_3.1.0.dir/__/__/__/mesh/access/src/access.c.obj
                0x00025224                access_model_publish_application_set
 .text.access_model_publish_ttl_set
                0x00025260       0x40 examples/pb_remote/client/CMakeFiles/pb_remote_client_nrf52832_xxAA_s132_3.1.0.dir/__/__/__/mesh/access/src/access.c.obj
                0x00025260                access_model_publish_ttl_set
 .text.access_model_publish_ttl_get
                0x000252a0       0x2c examples/pb_remote/client/CMakeFiles/pb_remote_client_nrf52832_xxAA_s132_3.1.0.dir/__/__/__/mesh/access/src/access.c.obj
                0x000252a0                access_model_publish_ttl_get
 .text.access_model_p_args_get
                0x000252cc       0x2c examples/pb_remote/client/CMakeFiles/pb_remote_client_nrf52832_xxAA_s132_3.1.0.dir/__/__/__/mesh/access/src/access.c.obj
                0x000252cc                access_model_p_args_get
 .text.remove_and_reschedule
                0x000252f8      0x108 examples/pb_remote/client/CMakeFiles/pb_remote_client_nrf52832_xxAA_s132_3.1.0.dir/__/__/__/mesh/access/src/access_reliable.c.obj
 .text.reliable_timer_cb
                0x00025400      0x1dc examples/pb_remote/client/CMakeFiles/pb_remote_client_nrf52832_xxAA_s132_3.1.0.dir/__/__/__/mesh/access/src/access_reliable.c.obj
 .text.access_reliable_message_rx_cb
                0x000255dc       0x8c examples/pb_remote/client/CMakeFiles/pb_remote_client_nrf52832_xxAA_s132_3.1.0.dir/__/__/__/mesh/access/src/access_reliable.c.obj
                0x000255dc                access_reliable_message_rx_cb
 .text.access_reliable_init
                0x00025668       0x1c examples/pb_remote/client/CMakeFiles/pb_remote_client_nrf52832_xxAA_s132_3.1.0.dir/__/__/__/mesh/access/src/access_reliable.c.obj
                0x00025668                access_reliable_init
 .text.access_model_reliable_cancel
                0x00025684       0x50 examples/pb_remote/client/CMakeFiles/pb_remote_client_nrf52832_xxAA_s132_3.1.0.dir/__/__/__/mesh/access/src/access_reliable.c.obj
                0x00025684                access_model_reliable_cancel
 .text.access_model_reliable_publish
                0x000256d4      0x1d0 examples/pb_remote/client/CMakeFiles/pb_remote_client_nrf52832_xxAA_s132_3.1.0.dir/__/__/__/mesh/access/src/access_reliable.c.obj
                0x000256d4                access_model_reliable_publish
 .text.addr_nonvirtual_to_dsm_entry
                0x000258a4       0x48 examples/pb_remote/client/CMakeFiles/pb_remote_client_nrf52832_xxAA_s132_3.1.0.dir/__/__/__/mesh/access/src/device_state_manager.c.obj
 .text.addr_nonvirtual_to_flash_entry
                0x000258ec       0x10 examples/pb_remote/client/CMakeFiles/pb_remote_client_nrf52832_xxAA_s132_3.1.0.dir/__/__/__/mesh/access/src/device_state_manager.c.obj
 .text.flash_mem_listener_callback
                0x000258fc       0x28 examples/pb_remote/client/CMakeFiles/pb_remote_client_nrf52832_xxAA_s132_3.1.0.dir/__/__/__/mesh/access/src/device_state_manager.c.obj
 .text.devkey_to_flash_entry
                0x00025924       0x28 examples/pb_remote/client/CMakeFiles/pb_remote_client_nrf52832_xxAA_s132_3.1.0.dir/__/__/__/mesh/access/src/device_state_manager.c.obj
 .text.appkey_to_flash_entry
                0x0002594c       0x28 examples/pb_remote/client/CMakeFiles/pb_remote_client_nrf52832_xxAA_s132_3.1.0.dir/__/__/__/mesh/access/src/device_state_manager.c.obj
 .text.subnet_to_flash_entry
                0x00025974       0x24 examples/pb_remote/client/CMakeFiles/pb_remote_client_nrf52832_xxAA_s132_3.1.0.dir/__/__/__/mesh/access/src/device_state_manager.c.obj
 .text.addr_virtual_to_flash_entry
                0x00025998       0x18 examples/pb_remote/client/CMakeFiles/pb_remote_client_nrf52832_xxAA_s132_3.1.0.dir/__/__/__/mesh/access/src/device_state_manager.c.obj
 .text.addr_unicast_to_dsm_entry
                0x000259b0        0xc examples/pb_remote/client/CMakeFiles/pb_remote_client_nrf52832_xxAA_s132_3.1.0.dir/__/__/__/mesh/access/src/device_state_manager.c.obj
 .text.addr_unicast_to_flash_entry
                0x000259bc       0x10 examples/pb_remote/client/CMakeFiles/pb_remote_client_nrf52832_xxAA_s132_3.1.0.dir/__/__/__/mesh/access/src/device_state_manager.c.obj
 .text.subnet_set
                0x000259cc       0xac examples/pb_remote/client/CMakeFiles/pb_remote_client_nrf52832_xxAA_s132_3.1.0.dir/__/__/__/mesh/access/src/device_state_manager.c.obj
 .text.flash_save
                0x00025a78       0xa8 examples/pb_remote/client/CMakeFiles/pb_remote_client_nrf52832_xxAA_s132_3.1.0.dir/__/__/__/mesh/access/src/device_state_manager.c.obj
 .text.build_flash_area
                0x00025b20       0x90 examples/pb_remote/client/CMakeFiles/pb_remote_client_nrf52832_xxAA_s132_3.1.0.dir/__/__/__/mesh/access/src/device_state_manager.c.obj
 .text.flash_write_complete
                0x00025bb0       0x5c examples/pb_remote/client/CMakeFiles/pb_remote_client_nrf52832_xxAA_s132_3.1.0.dir/__/__/__/mesh/access/src/device_state_manager.c.obj
 .text.devkey_to_dsm_entry
                0x00025c0c       0x70 examples/pb_remote/client/CMakeFiles/pb_remote_client_nrf52832_xxAA_s132_3.1.0.dir/__/__/__/mesh/access/src/device_state_manager.c.obj
 .text.addr_virtual_to_dsm_entry
                0x00025c7c       0x6c examples/pb_remote/client/CMakeFiles/pb_remote_client_nrf52832_xxAA_s132_3.1.0.dir/__/__/__/mesh/access/src/device_state_manager.c.obj
 .text.flash_invalidate_complete
                0x00025ce8       0x5c examples/pb_remote/client/CMakeFiles/pb_remote_client_nrf52832_xxAA_s132_3.1.0.dir/__/__/__/mesh/access/src/device_state_manager.c.obj
 .text.appkey_to_dsm_entry
                0x00025d44       0x94 examples/pb_remote/client/CMakeFiles/pb_remote_client_nrf52832_xxAA_s132_3.1.0.dir/__/__/__/mesh/access/src/device_state_manager.c.obj
 .text.flash_update_all
                0x00025dd8      0x144 examples/pb_remote/client/CMakeFiles/pb_remote_client_nrf52832_xxAA_s132_3.1.0.dir/__/__/__/mesh/access/src/device_state_manager.c.obj
 .text.flash_remove_complete
                0x00025f1c       0x90 examples/pb_remote/client/CMakeFiles/pb_remote_client_nrf52832_xxAA_s132_3.1.0.dir/__/__/__/mesh/access/src/device_state_manager.c.obj
 .text.subnet_to_dsm_entry
                0x00025fac       0xbc examples/pb_remote/client/CMakeFiles/pb_remote_client_nrf52832_xxAA_s132_3.1.0.dir/__/__/__/mesh/access/src/device_state_manager.c.obj
 .text.dsm_init
                0x00026068       0xa8 examples/pb_remote/client/CMakeFiles/pb_remote_client_nrf52832_xxAA_s132_3.1.0.dir/__/__/__/mesh/access/src/device_state_manager.c.obj
                0x00026068                dsm_init
 .text.dsm_flash_area_get
                0x00026110        0xc examples/pb_remote/client/CMakeFiles/pb_remote_client_nrf52832_xxAA_s132_3.1.0.dir/__/__/__/mesh/access/src/device_state_manager.c.obj
                0x00026110                dsm_flash_area_get
 .text.dsm_local_unicast_addresses_set
                0x0002611c       0x78 examples/pb_remote/client/CMakeFiles/pb_remote_client_nrf52832_xxAA_s132_3.1.0.dir/__/__/__/mesh/access/src/device_state_manager.c.obj
                0x0002611c                dsm_local_unicast_addresses_set
 .text.dsm_local_unicast_addresses_get
                0x00026194       0x2c examples/pb_remote/client/CMakeFiles/pb_remote_client_nrf52832_xxAA_s132_3.1.0.dir/__/__/__/mesh/access/src/device_state_manager.c.obj
                0x00026194                dsm_local_unicast_addresses_get
 .text.dsm_address_publish_add
                0x000261c0      0x16c examples/pb_remote/client/CMakeFiles/pb_remote_client_nrf52832_xxAA_s132_3.1.0.dir/__/__/__/mesh/access/src/device_state_manager.c.obj
                0x000261c0                dsm_address_publish_add
 .text.dsm_address_subscription_get
                0x0002632c       0x50 examples/pb_remote/client/CMakeFiles/pb_remote_client_nrf52832_xxAA_s132_3.1.0.dir/__/__/__/mesh/access/src/device_state_manager.c.obj
                0x0002632c                dsm_address_subscription_get
 .text.dsm_address_get
                0x0002637c       0x68 examples/pb_remote/client/CMakeFiles/pb_remote_client_nrf52832_xxAA_s132_3.1.0.dir/__/__/__/mesh/access/src/device_state_manager.c.obj
                0x0002637c                dsm_address_get
 .text.dsm_address_handle_get
                0x000263e4       0xe4 examples/pb_remote/client/CMakeFiles/pb_remote_client_nrf52832_xxAA_s132_3.1.0.dir/__/__/__/mesh/access/src/device_state_manager.c.obj
                0x000263e4                dsm_address_handle_get
 .text.dsm_appkey_handle_get
                0x000264c8       0x3c examples/pb_remote/client/CMakeFiles/pb_remote_client_nrf52832_xxAA_s132_3.1.0.dir/__/__/__/mesh/access/src/device_state_manager.c.obj
                0x000264c8                dsm_appkey_handle_get
 .text.dsm_subnet_add
                0x00026504       0x94 examples/pb_remote/client/CMakeFiles/pb_remote_client_nrf52832_xxAA_s132_3.1.0.dir/__/__/__/mesh/access/src/device_state_manager.c.obj
                0x00026504                dsm_subnet_add
 .text.dsm_devkey_add
                0x00026598      0x140 examples/pb_remote/client/CMakeFiles/pb_remote_client_nrf52832_xxAA_s132_3.1.0.dir/__/__/__/mesh/access/src/device_state_manager.c.obj
                0x00026598                dsm_devkey_add
 .text.dsm_appkey_add
                0x000266d8       0xa8 examples/pb_remote/client/CMakeFiles/pb_remote_client_nrf52832_xxAA_s132_3.1.0.dir/__/__/__/mesh/access/src/device_state_manager.c.obj
                0x000266d8                dsm_appkey_add
 .text.dsm_tx_secmat_get
                0x00026780      0x104 examples/pb_remote/client/CMakeFiles/pb_remote_client_nrf52832_xxAA_s132_3.1.0.dir/__/__/__/mesh/access/src/device_state_manager.c.obj
                0x00026780                dsm_tx_secmat_get
 .text.nrf_mesh_net_secmat_next_get
                0x00026884       0x54 examples/pb_remote/client/CMakeFiles/pb_remote_client_nrf52832_xxAA_s132_3.1.0.dir/__/__/__/mesh/access/src/device_state_manager.c.obj
                0x00026884                nrf_mesh_net_secmat_next_get
 .text.nrf_mesh_app_secmat_next_get
                0x000268d8       0x80 examples/pb_remote/client/CMakeFiles/pb_remote_client_nrf52832_xxAA_s132_3.1.0.dir/__/__/__/mesh/access/src/device_state_manager.c.obj
                0x000268d8                nrf_mesh_app_secmat_next_get
 .text.nrf_mesh_devkey_secmat_get
                0x00026958       0x74 examples/pb_remote/client/CMakeFiles/pb_remote_client_nrf52832_xxAA_s132_3.1.0.dir/__/__/__/mesh/access/src/device_state_manager.c.obj
                0x00026958                nrf_mesh_devkey_secmat_get
 .text.nrf_mesh_beacon_info_next_get
                0x000269cc       0x7c examples/pb_remote/client/CMakeFiles/pb_remote_client_nrf52832_xxAA_s132_3.1.0.dir/__/__/__/mesh/access/src/device_state_manager.c.obj
                0x000269cc                nrf_mesh_beacon_info_next_get
 .text.nrf_mesh_rx_address_get
                0x00026a48      0x11c examples/pb_remote/client/CMakeFiles/pb_remote_client_nrf52832_xxAA_s132_3.1.0.dir/__/__/__/mesh/access/src/device_state_manager.c.obj
                0x00026a48                nrf_mesh_rx_address_get
 .text._weak_handler
                0x00026b64        0x4 examples/pb_remote/client/CMakeFiles/pb_remote_client_nrf52832_xxAA_s132_3.1.0.dir/__/__/nrf_mesh_weak.c.obj
                0x00026b64                nrf_mesh_dfu_init
                0x00026b64                nrf_mesh_dfu_jump_to_bootloader
                0x00026b64                nrf_mesh_dfu_rx
                0x00026b64                nrf_mesh_dfu_bank_info_get
                0x00026b64                nrf_mesh_dfu_request
                0x00026b64                nrf_mesh_dfu_bank_flash
                0x00026b64                _weak_handler
                0x00026b64                prov_provisionee_auth_data
                0x00026b64                nrf_mesh_dfu_relay
                0x00026b64                prov_provisionee_shared_secret
                0x00026b64                nrf_mesh_dfu_abort
                0x00026b64                mesh_flash_op_execute
                0x00026b64                prov_provisionee_init
                0x00026b64                nrf_mesh_dfu_state_get
 .text.SystemInit
                0x00026b68      0x390 examples/pb_remote/client/CMakeFiles/pb_remote_client_nrf52832_xxAA_s132_3.1.0.dir/__/__/__/external/nRF5_SDK_14.0.0_3bcc1f7/components/toolchain/system_nrf52.c.obj
                0x00026b68                SystemInit
 .text          0x00026ef8       0x3c examples/pb_remote/client/CMakeFiles/pb_remote_client_nrf52832_xxAA_s132_3.1.0.dir/__/__/__/external/nRF5_SDK_14.0.0_3bcc1f7/components/toolchain/gcc/gcc_startup_nrf52.S.obj
                0x00026ef8                Reset_Handler
                0x00026f20                NMI_Handler
                0x00026f24                MemoryManagement_Handler
                0x00026f26                BusFault_Handler
                0x00026f28                UsageFault_Handler
                0x00026f2a                SVC_Handler
                0x00026f2c                DebugMon_Handler
                0x00026f2e                PendSV_Handler
                0x00026f30                SysTick_Handler
                0x00026f32                POWER_CLOCK_IRQHandler
                0x00026f32                RADIO_IRQHandler
                0x00026f32                PDM_IRQHandler
                0x00026f32                TEMP_IRQHandler
                0x00026f32                TIMER3_IRQHandler
                0x00026f32                FPU_IRQHandler
                0x00026f32                SPIM0_SPIS0_TWIM0_TWIS0_SPI0_TWI0_IRQHandler
                0x00026f32                PWM1_IRQHandler
                0x00026f32                UARTE0_UART0_IRQHandler
                0x00026f32                TIMER4_IRQHandler
                0x00026f32                RTC0_IRQHandler
                0x00026f32                SWI4_EGU4_IRQHandler
                0x00026f32                TIMER0_IRQHandler
                0x00026f32                GPIOTE_IRQHandler
                0x00026f32                TIMER1_IRQHandler
                0x00026f32                PWM2_IRQHandler
                0x00026f32                ECB_IRQHandler
                0x00026f32                SPIM1_SPIS1_TWIM1_TWIS1_SPI1_TWI1_IRQHandler
                0x00026f32                Default_Handler
                0x00026f32                SAADC_IRQHandler
                0x00026f32                CCM_AAR_IRQHandler
                0x00026f32                WDT_IRQHandler
                0x00026f32                I2S_IRQHandler
                0x00026f32                SWI5_EGU5_IRQHandler
                0x00026f32                RNG_IRQHandler
                0x00026f32                RTC2_IRQHandler
                0x00026f32                PWM0_IRQHandler
                0x00026f32                SWI3_EGU3_IRQHandler
                0x00026f32                RTC1_IRQHandler
                0x00026f32                SWI1_EGU1_IRQHandler
                0x00026f32                SPIM2_SPIS2_SPI2_IRQHandler
                0x00026f32                NFCT_IRQHandler
                0x00026f32                SWI0_EGU0_IRQHandler
                0x00026f32                MWU_IRQHandler
                0x00026f32                TIMER2_IRQHandler
                0x00026f32                COMP_LPCOMP_IRQHandler
 .text.nrf_mesh_configure_device_uuid_reset
                0x00026f34       0x2c mesh/core/libmesh_core_nrf52832_xxAA.a(nrf_mesh_configure.c.obj)
                0x00026f34                nrf_mesh_configure_device_uuid_reset
 .text.nrf_mesh_configure_device_uuid_get
                0x00026f60        0x8 mesh/core/libmesh_core_nrf52832_xxAA.a(nrf_mesh_configure.c.obj)
                0x00026f60                nrf_mesh_configure_device_uuid_get
 .text.event_handle
                0x00026f68       0x34 mesh/core/libmesh_core_nrf52832_xxAA.a(event.c.obj)
                0x00026f68                event_handle
 .text.event_handler_add
                0x00026f9c       0x90 mesh/core/libmesh_core_nrf52832_xxAA.a(event.c.obj)
                0x00026f9c                event_handler_add
 .text.fifo_init
                0x0002702c       0x5c mesh/core/libmesh_core_nrf52832_xxAA.a(fifo.c.obj)
                0x0002702c                fifo_init
 .text.fifo_push
                0x00027088       0x54 mesh/core/libmesh_core_nrf52832_xxAA.a(fifo.c.obj)
                0x00027088                fifo_push
 .text.fifo_pop
                0x000270dc       0x58 mesh/core/libmesh_core_nrf52832_xxAA.a(fifo.c.obj)
                0x000270dc                fifo_pop
 .text.flash_mem_available
                0x00027134       0x28 mesh/core/libmesh_core_nrf52832_xxAA.a(net_state.c.obj)
 .text.flash_store_iv_index
                0x0002715c       0x38 mesh/core/libmesh_core_nrf52832_xxAA.a(net_state.c.obj)
 .text.init_flash_storage
                0x00027194       0x44 mesh/core/libmesh_core_nrf52832_xxAA.a(net_state.c.obj)
 .text.flash_write_complete
                0x000271d8       0x7c mesh/core/libmesh_core_nrf52832_xxAA.a(net_state.c.obj)
 .text.seqnum_block_allocate
                0x00027254       0x4c mesh/core/libmesh_core_nrf52832_xxAA.a(net_state.c.obj)
 .text.iv_update_trigger_if_pending
                0x000272a0      0x17c mesh/core/libmesh_core_nrf52832_xxAA.a(net_state.c.obj)
 .text.iv_update_timer_handler
                0x0002741c       0x80 mesh/core/libmesh_core_nrf52832_xxAA.a(net_state.c.obj)
 .text.net_state_recover_from_flash
                0x0002749c      0x10c mesh/core/libmesh_core_nrf52832_xxAA.a(net_state.c.obj)
                0x0002749c                net_state_recover_from_flash
 .text.net_state_flash_area_get
                0x000275a8        0xc mesh/core/libmesh_core_nrf52832_xxAA.a(net_state.c.obj)
                0x000275a8                net_state_flash_area_get
 .text.net_state_init
                0x000275b4       0x80 mesh/core/libmesh_core_nrf52832_xxAA.a(net_state.c.obj)
                0x000275b4                net_state_init
 .text.net_state_seqnum_alloc
                0x00027634       0xd4 mesh/core/libmesh_core_nrf52832_xxAA.a(net_state.c.obj)
                0x00027634                net_state_seqnum_alloc
 .text.net_state_iv_index_lock
                0x00027708       0x50 mesh/core/libmesh_core_nrf52832_xxAA.a(net_state.c.obj)
                0x00027708                net_state_iv_index_lock
 .text.net_state_beacon_received
                0x00027758       0xec mesh/core/libmesh_core_nrf52832_xxAA.a(net_state.c.obj)
                0x00027758                net_state_beacon_received
 .text.net_state_beacon_iv_index_get
                0x00027844        0xc mesh/core/libmesh_core_nrf52832_xxAA.a(net_state.c.obj)
                0x00027844                net_state_beacon_iv_index_get
 .text.net_state_tx_iv_index_get
                0x00027850       0x14 mesh/core/libmesh_core_nrf52832_xxAA.a(net_state.c.obj)
                0x00027850                net_state_tx_iv_index_get
 .text.net_state_rx_iv_index_get
                0x00027864       0x18 mesh/core/libmesh_core_nrf52832_xxAA.a(net_state.c.obj)
                0x00027864                net_state_rx_iv_index_get
 .text.net_state_iv_update_get
                0x0002787c        0xc mesh/core/libmesh_core_nrf52832_xxAA.a(net_state.c.obj)
                0x0002787c                net_state_iv_update_get
 .text.nrf_mesh_address_type_get
                0x00027888       0x10 mesh/core/libmesh_core_nrf52832_xxAA.a(nrf_mesh_utils.c.obj)
                0x00027888                nrf_mesh_address_type_get
 .text.sd_softdevice_is_enabled
                0x00027898        0x4 mesh/core/libmesh_core_nrf52832_xxAA.a(nrf_mesh.c.obj)
 .text.nrf_mesh_init
                0x0002789c       0xc0 mesh/core/libmesh_core_nrf52832_xxAA.a(nrf_mesh.c.obj)
                0x0002789c                nrf_mesh_init
 .text.nrf_mesh_enable
                0x0002795c       0x50 mesh/core/libmesh_core_nrf52832_xxAA.a(nrf_mesh.c.obj)
                0x0002795c                nrf_mesh_enable
 .text.nrf_mesh_packet_send
                0x000279ac        0x4 mesh/core/libmesh_core_nrf52832_xxAA.a(nrf_mesh.c.obj)
                0x000279ac                nrf_mesh_packet_send
 .text.nrf_mesh_process
                0x000279b0      0x21c mesh/core/libmesh_core_nrf52832_xxAA.a(nrf_mesh.c.obj)
                0x000279b0                nrf_mesh_process
 .text.nrf_mesh_on_ble_evt
                0x00027bcc        0x4 mesh/core/libmesh_core_nrf52832_xxAA.a(nrf_mesh.c.obj)
                0x00027bcc                nrf_mesh_on_ble_evt
 .text.nrf_mesh_on_sd_evt
                0x00027bd0        0xc mesh/core/libmesh_core_nrf52832_xxAA.a(nrf_mesh.c.obj)
                0x00027bd0                nrf_mesh_on_sd_evt
 .text.nrf_mesh_evt_handler_add
                0x00027bdc        0x4 mesh/core/libmesh_core_nrf52832_xxAA.a(nrf_mesh.c.obj)
                0x00027bdc                nrf_mesh_evt_handler_add
 .text.hal_lfclk_ppm_get
                0x00027be0       0x14 mesh/core/libmesh_core_nrf52832_xxAA.a(hal.c.obj)
                0x00027be0                hal_lfclk_ppm_get
 .text.timer_cb
                0x00027bf4        0xc mesh/core/libmesh_core_nrf52832_xxAA.a(timer_scheduler.c.obj)
 .text.add_evt.constprop.0
                0x00027c00       0x78 mesh/core/libmesh_core_nrf52832_xxAA.a(timer_scheduler.c.obj)
 .text.flag_event_cb
                0x00027c78      0x2e4 mesh/core/libmesh_core_nrf52832_xxAA.a(timer_scheduler.c.obj)
 .text.timer_sch_init
                0x00027f5c       0x24 mesh/core/libmesh_core_nrf52832_xxAA.a(timer_scheduler.c.obj)
                0x00027f5c                timer_sch_init
 .text.timer_sch_schedule
                0x00027f80       0x84 mesh/core/libmesh_core_nrf52832_xxAA.a(timer_scheduler.c.obj)
                0x00027f80                timer_sch_schedule
 .text.timer_sch_abort
                0x00028004       0x68 mesh/core/libmesh_core_nrf52832_xxAA.a(timer_scheduler.c.obj)
                0x00028004                timer_sch_abort
 .text.timer_sch_reschedule
                0x0002806c       0xa4 mesh/core/libmesh_core_nrf52832_xxAA.a(timer_scheduler.c.obj)
                0x0002806c                timer_sch_reschedule
 .text.timer_event_handler
                0x00028110       0xd8 mesh/core/libmesh_core_nrf52832_xxAA.a(timer.c.obj)
                0x00028110                timer_event_handler
 .text.timer_order_cb
                0x000281e8       0x98 mesh/core/libmesh_core_nrf52832_xxAA.a(timer.c.obj)
                0x000281e8                timer_order_cb
 .text.timer_now
                0x00028280       0x58 mesh/core/libmesh_core_nrf52832_xxAA.a(timer.c.obj)
                0x00028280                timer_now
 .text.timer_on_ts_begin
                0x000282d8      0x110 mesh/core/libmesh_core_nrf52832_xxAA.a(timer.c.obj)
                0x000282d8                timer_on_ts_begin
 .text.timer_on_ts_end
                0x000283e8       0x78 mesh/core/libmesh_core_nrf52832_xxAA.a(timer.c.obj)
                0x000283e8                timer_on_ts_end
 .text.timer_cb
                0x00028460       0x10 mesh/core/libmesh_core_nrf52832_xxAA.a(ticker.c.obj)
 .text.ticker_init
                0x00028470       0x3c mesh/core/libmesh_core_nrf52832_xxAA.a(ticker.c.obj)
                0x00028470                ticker_init
 .text.sd_rand_application_bytes_available_get
                0x000284ac        0x4 mesh/core/libmesh_core_nrf52832_xxAA.a(rand.c.obj)
 .text.sd_rand_application_vector_get
                0x000284b0        0x4 mesh/core/libmesh_core_nrf52832_xxAA.a(rand.c.obj)
 .text.rand_prng_seed
                0x000284b4       0x6c mesh/core/libmesh_core_nrf52832_xxAA.a(rand.c.obj)
                0x000284b4                rand_prng_seed
 .text.rand_prng_get
                0x00028520       0x28 mesh/core/libmesh_core_nrf52832_xxAA.a(rand.c.obj)
                0x00028520                rand_prng_get
 .text.rand_hw_rng_get
                0x00028548       0x58 mesh/core/libmesh_core_nrf52832_xxAA.a(rand.c.obj)
                0x00028548                rand_hw_rng_get
 .text.sd_radio_session_open
                0x000285a0        0x4 mesh/core/libmesh_core_nrf52832_xxAA.a(timeslot.c.obj)
 .text.sd_radio_session_close
                0x000285a4        0x4 mesh/core/libmesh_core_nrf52832_xxAA.a(timeslot.c.obj)
 .text.sd_radio_request
                0x000285a8        0x4 mesh/core/libmesh_core_nrf52832_xxAA.a(timeslot.c.obj)
 .text.end_timer_handler
                0x000285ac       0x2c mesh/core/libmesh_core_nrf52832_xxAA.a(timeslot.c.obj)
 .text.radio_signal_callback
                0x000285d8      0x324 mesh/core/libmesh_core_nrf52832_xxAA.a(timeslot.c.obj)
 .text.timeslot_sd_event_handler
                0x000288fc       0x50 mesh/core/libmesh_core_nrf52832_xxAA.a(timeslot.c.obj)
                0x000288fc                timeslot_sd_event_handler
 .text.timeslot_init
                0x0002894c       0x4c mesh/core/libmesh_core_nrf52832_xxAA.a(timeslot.c.obj)
                0x0002894c                timeslot_init
 .text.timeslot_start
                0x00028998       0x20 mesh/core/libmesh_core_nrf52832_xxAA.a(timeslot.c.obj)
                0x00028998                timeslot_start
 .text.timeslot_stop
                0x000289b8       0x30 mesh/core/libmesh_core_nrf52832_xxAA.a(timeslot.c.obj)
                0x000289b8                timeslot_stop
 .text.timeslot_state_lock
                0x000289e8       0x44 mesh/core/libmesh_core_nrf52832_xxAA.a(timeslot.c.obj)
                0x000289e8                timeslot_state_lock
 .text.timeslot_end_is_pending
                0x00028a2c       0x24 mesh/core/libmesh_core_nrf52832_xxAA.a(timeslot.c.obj)
                0x00028a2c                timeslot_end_is_pending
 .text.timeslot_start_time_get
                0x00028a50        0xc mesh/core/libmesh_core_nrf52832_xxAA.a(timeslot.c.obj)
                0x00028a50                timeslot_start_time_get
 .text.timeslot_remaining_time_get
                0x00028a5c       0x40 mesh/core/libmesh_core_nrf52832_xxAA.a(timeslot.c.obj)
                0x00028a5c                timeslot_remaining_time_get
 .text.timeslot_is_in_cb
                0x00028a9c        0xc mesh/core/libmesh_core_nrf52832_xxAA.a(timeslot.c.obj)
                0x00028a9c                timeslot_is_in_cb
 .text.timeslot_trigger
                0x00028aa8       0x24 mesh/core/libmesh_core_nrf52832_xxAA.a(timeslot.c.obj)
                0x00028aa8                timeslot_trigger
 .text.QDEC_IRQHandler
                0x00028acc       0xe0 mesh/core/libmesh_core_nrf52832_xxAA.a(bearer_event.c.obj)
                0x00028acc                QDEC_IRQHandler
 .text.bearer_event_init
                0x00028bac       0x3c mesh/core/libmesh_core_nrf52832_xxAA.a(bearer_event.c.obj)
                0x00028bac                bearer_event_init
 .text.bearer_event_timer_post
                0x00028be8       0x50 mesh/core/libmesh_core_nrf52832_xxAA.a(bearer_event.c.obj)
                0x00028be8                bearer_event_timer_post
 .text.bearer_event_critical_section_begin
                0x00028c38       0x44 mesh/core/libmesh_core_nrf52832_xxAA.a(bearer_event.c.obj)
                0x00028c38                bearer_event_critical_section_begin
 .text.bearer_event_critical_section_end
                0x00028c7c       0x44 mesh/core/libmesh_core_nrf52832_xxAA.a(bearer_event.c.obj)
                0x00028c7c                bearer_event_critical_section_end
 .text.bearer_event_flag_add
                0x00028cc0       0x50 mesh/core/libmesh_core_nrf52832_xxAA.a(bearer_event.c.obj)
                0x00028cc0                bearer_event_flag_add
 .text.bearer_event_flag_set
                0x00028d10       0x58 mesh/core/libmesh_core_nrf52832_xxAA.a(bearer_event.c.obj)
                0x00028d10                bearer_event_flag_set
 .text.bearer_event_sequential_add
                0x00028d68       0x48 mesh/core/libmesh_core_nrf52832_xxAA.a(bearer_event.c.obj)
                0x00028d68                bearer_event_sequential_add
 .text.bearer_event_sequential_post
                0x00028db0       0x6c mesh/core/libmesh_core_nrf52832_xxAA.a(bearer_event.c.obj)
                0x00028db0                bearer_event_sequential_post
 .text.bearer_event_sequential_pending
                0x00028e1c       0x20 mesh/core/libmesh_core_nrf52832_xxAA.a(bearer_event.c.obj)
                0x00028e1c                bearer_event_sequential_pending
 .text.enc_aes_encrypt
                0x00028e3c        0x4 mesh/core/libmesh_core_nrf52832_xxAA.a(enc.c.obj)
                0x00028e3c                enc_aes_encrypt
 .text.enc_aes_cmac
                0x00028e40        0x4 mesh/core/libmesh_core_nrf52832_xxAA.a(enc.c.obj)
                0x00028e40                enc_aes_cmac
 .text.enc_aes_ccm_encrypt
                0x00028e44        0x4 mesh/core/libmesh_core_nrf52832_xxAA.a(enc.c.obj)
                0x00028e44                enc_aes_ccm_encrypt
 .text.enc_aes_ccm_decrypt
                0x00028e48        0x4 mesh/core/libmesh_core_nrf52832_xxAA.a(enc.c.obj)
                0x00028e48                enc_aes_ccm_decrypt
 .text.enc_nonce_generate
                0x00028e4c       0xc4 mesh/core/libmesh_core_nrf52832_xxAA.a(enc.c.obj)
                0x00028e4c                enc_nonce_generate
 .text.enc_s1   0x00028f10       0x40 mesh/core/libmesh_core_nrf52832_xxAA.a(enc.c.obj)
                0x00028f10                enc_s1
 .text.enc_k1   0x00028f50       0x50 mesh/core/libmesh_core_nrf52832_xxAA.a(enc.c.obj)
                0x00028f50                enc_k1
 .text.enc_k2   0x00028fa0       0xec mesh/core/libmesh_core_nrf52832_xxAA.a(enc.c.obj)
                0x00028fa0                enc_k2
 .text.enc_k3   0x0002908c       0x74 mesh/core/libmesh_core_nrf52832_xxAA.a(enc.c.obj)
                0x0002908c                enc_k3
 .text.enc_k4   0x00029100       0x6c mesh/core/libmesh_core_nrf52832_xxAA.a(enc.c.obj)
                0x00029100                enc_k4
 .text.network_init
                0x0002916c       0x28 mesh/core/libmesh_core_nrf52832_xxAA.a(network.c.obj)
                0x0002916c                network_init
 .text.network_packet_alloc
                0x00029194      0x1a4 mesh/core/libmesh_core_nrf52832_xxAA.a(network.c.obj)
                0x00029194                network_packet_alloc
 .text.network_packet_send
                0x00029338      0x1ec mesh/core/libmesh_core_nrf52832_xxAA.a(network.c.obj)
                0x00029338                network_packet_send
 .text.network_packet_in
                0x00029524      0x6c8 mesh/core/libmesh_core_nrf52832_xxAA.a(network.c.obj)
                0x00029524                network_packet_in
 .text.nrf_mesh_keygen_aid
                0x00029bec       0x18 mesh/core/libmesh_core_nrf52832_xxAA.a(nrf_mesh_keygen.c.obj)
                0x00029bec                nrf_mesh_keygen_aid
 .text.nrf_mesh_keygen_network_secmat
                0x00029c04       0x24 mesh/core/libmesh_core_nrf52832_xxAA.a(nrf_mesh_keygen.c.obj)
                0x00029c04                nrf_mesh_keygen_network_secmat
 .text.nrf_mesh_keygen_beacon_secmat
                0x00029c28       0x50 mesh/core/libmesh_core_nrf52832_xxAA.a(nrf_mesh_keygen.c.obj)
                0x00029c28                nrf_mesh_keygen_beacon_secmat
 .text.nrf_mesh_keygen_virtual_address
                0x00029c78       0x50 mesh/core/libmesh_core_nrf52832_xxAA.a(nrf_mesh_keygen.c.obj)
                0x00029c78                nrf_mesh_keygen_virtual_address
 .text.log_callback_rtt
                0x00029cc8       0x2c mesh/core/libmesh_core_nrf52832_xxAA.a(log.c.obj)
                0x00029cc8                log_callback_rtt
 .text.log_init
                0x00029cf4       0x20 mesh/core/libmesh_core_nrf52832_xxAA.a(log.c.obj)
                0x00029cf4                log_init
 .text.log_printf
                0x00029d14       0x20 mesh/core/libmesh_core_nrf52832_xxAA.a(log.c.obj)
                0x00029d14                log_printf
 .text.process_action_queue
                0x00029d34      0x834 mesh/core/libmesh_core_nrf52832_xxAA.a(flash_manager.c.obj)
 .text.flash_op_ended_callback
                0x0002a568       0x24 mesh/core/libmesh_core_nrf52832_xxAA.a(flash_manager.c.obj)
 .text.flash_manager_init
                0x0002a58c       0x68 mesh/core/libmesh_core_nrf52832_xxAA.a(flash_manager.c.obj)
                0x0002a58c                flash_manager_init
 .text.flash_manager_entry_next_get
                0x0002a5f4      0x15c mesh/core/libmesh_core_nrf52832_xxAA.a(flash_manager.c.obj)
                0x0002a5f4                flash_manager_entry_next_get
 .text.flash_manager_entry_alloc
                0x0002a750       0x9c mesh/core/libmesh_core_nrf52832_xxAA.a(flash_manager.c.obj)
                0x0002a750                flash_manager_entry_alloc
 .text.flash_manager_entry_commit
                0x0002a7ec       0x6c mesh/core/libmesh_core_nrf52832_xxAA.a(flash_manager.c.obj)
                0x0002a7ec                flash_manager_entry_commit
 .text.flash_manager_entry_invalidate
                0x0002a858       0xb8 mesh/core/libmesh_core_nrf52832_xxAA.a(flash_manager.c.obj)
                0x0002a858                flash_manager_entry_invalidate
 .text.flash_manager_add
                0x0002a910      0x474 mesh/core/libmesh_core_nrf52832_xxAA.a(flash_manager.c.obj)
                0x0002a910                flash_manager_add
 .text.flash_manager_mem_listener_register
                0x0002ad84       0x50 mesh/core/libmesh_core_nrf52832_xxAA.a(flash_manager.c.obj)
                0x0002ad84                flash_manager_mem_listener_register
 .text.flash_manager_is_stable
                0x0002add4       0x20 mesh/core/libmesh_core_nrf52832_xxAA.a(flash_manager.c.obj)
                0x0002add4                flash_manager_is_stable
 .text.flash_manager_on_defrag_end
                0x0002adf4       0x64 mesh/core/libmesh_core_nrf52832_xxAA.a(flash_manager.c.obj)
                0x0002adf4                flash_manager_on_defrag_end
 .text.flash_manager_recovery_page_get
                0x0002ae58        0x4 mesh/core/libmesh_core_nrf52832_xxAA.a(flash_manager.c.obj)
                0x0002ae58                flash_manager_recovery_page_get
 .text.ccm_soft_crypt.constprop.0
                0x0002ae5c      0x298 mesh/core/libmesh_core_nrf52832_xxAA.a(ccm_soft.c.obj)
 .text.ccm_soft_authenticate
                0x0002b0f4      0x324 mesh/core/libmesh_core_nrf52832_xxAA.a(ccm_soft.c.obj)
 .text.ccm_soft_encrypt
                0x0002b418       0x78 mesh/core/libmesh_core_nrf52832_xxAA.a(ccm_soft.c.obj)
                0x0002b418                ccm_soft_encrypt
 .text.ccm_soft_decrypt
                0x0002b490      0x10c mesh/core/libmesh_core_nrf52832_xxAA.a(ccm_soft.c.obj)
                0x0002b490                ccm_soft_decrypt
 .text.beacon_init
                0x0002b59c       0x48 mesh/core/libmesh_core_nrf52832_xxAA.a(beacon.c.obj)
                0x0002b59c                beacon_init
 .text.beacon_tx
                0x0002b5e4       0x6c mesh/core/libmesh_core_nrf52832_xxAA.a(beacon.c.obj)
                0x0002b5e4                beacon_tx
 .text.beacon_create
                0x0002b650       0x50 mesh/core/libmesh_core_nrf52832_xxAA.a(beacon.c.obj)
                0x0002b650                beacon_create
 .text.beacon_packet_in
                0x0002b6a0      0x180 mesh/core/libmesh_core_nrf52832_xxAA.a(beacon.c.obj)
                0x0002b6a0                beacon_packet_in
 .text.entry_get
                0x0002b820       0x8c mesh/core/libmesh_core_nrf52832_xxAA.a(flash_manager_internal.c.obj)
                0x0002b820                entry_get
 .text.adv_tx_complete_callback
                0x0002b8ac       0x58 mesh/core/libmesh_core_nrf52832_xxAA.a(core_tx.c.obj)
 .text.core_tx_init
                0x0002b904       0x4c mesh/core/libmesh_core_nrf52832_xxAA.a(core_tx.c.obj)
                0x0002b904                core_tx_init
 .text.core_tx_complete_cb_set
                0x0002b950        0xc mesh/core/libmesh_core_nrf52832_xxAA.a(core_tx.c.obj)
                0x0002b950                core_tx_complete_cb_set
 .text.core_tx_packet_alloc
                0x0002b95c       0xa4 mesh/core/libmesh_core_nrf52832_xxAA.a(core_tx.c.obj)
                0x0002b95c                core_tx_packet_alloc
 .text.core_tx_packet_send
                0x0002ba00       0x74 mesh/core/libmesh_core_nrf52832_xxAA.a(core_tx.c.obj)
                0x0002ba00                core_tx_packet_send
 .text.core_tx_packet_discard
                0x0002ba74       0x74 mesh/core/libmesh_core_nrf52832_xxAA.a(core_tx.c.obj)
                0x0002ba74                core_tx_packet_discard
 .text.network_beacon_tx_cb
                0x0002bae8      0x10c mesh/core/libmesh_core_nrf52832_xxAA.a(net_beacon.c.obj)
 .text.net_beacon_init
                0x0002bbf4       0x64 mesh/core/libmesh_core_nrf52832_xxAA.a(net_beacon.c.obj)
                0x0002bbf4                net_beacon_init
 .text.net_beacon_packet_in
                0x0002bc58       0xe0 mesh/core/libmesh_core_nrf52832_xxAA.a(net_beacon.c.obj)
                0x0002bc58                net_beacon_packet_in
 .text.tx_complete_event_callback
                0x0002bd38       0x40 mesh/core/libmesh_core_nrf52832_xxAA.a(advertiser.c.obj)
 .text.broadcast_complete_cb
                0x0002bd78       0x70 mesh/core/libmesh_core_nrf52832_xxAA.a(advertiser.c.obj)
 .text.timeout_event
                0x0002bde8      0x13c mesh/core/libmesh_core_nrf52832_xxAA.a(advertiser.c.obj)
 .text.advertiser_init
                0x0002bf24        0xc mesh/core/libmesh_core_nrf52832_xxAA.a(advertiser.c.obj)
                0x0002bf24                advertiser_init
 .text.advertiser_instance_init
                0x0002bf30      0x11c mesh/core/libmesh_core_nrf52832_xxAA.a(advertiser.c.obj)
                0x0002bf30                advertiser_instance_init
 .text.advertiser_enable
                0x0002c04c       0x44 mesh/core/libmesh_core_nrf52832_xxAA.a(advertiser.c.obj)
                0x0002c04c                advertiser_enable
 .text.advertiser_packet_alloc
                0x0002c090       0x9c mesh/core/libmesh_core_nrf52832_xxAA.a(advertiser.c.obj)
                0x0002c090                advertiser_packet_alloc
 .text.advertiser_packet_send
                0x0002c12c       0x98 mesh/core/libmesh_core_nrf52832_xxAA.a(advertiser.c.obj)
                0x0002c12c                advertiser_packet_send
 .text.advertiser_packet_discard
                0x0002c1c4       0x34 mesh/core/libmesh_core_nrf52832_xxAA.a(advertiser.c.obj)
                0x0002c1c4                advertiser_packet_discard
 .text.advertiser_interval_set
                0x0002c1f8       0x80 mesh/core/libmesh_core_nrf52832_xxAA.a(advertiser.c.obj)
                0x0002c1f8                advertiser_interval_set
 .text.advertiser_flush
                0x0002c278       0x20 mesh/core/libmesh_core_nrf52832_xxAA.a(advertiser.c.obj)
                0x0002c278                advertiser_flush
 .text.action_switch.part.2
                0x0002c298       0xc0 mesh/core/libmesh_core_nrf52832_xxAA.a(bearer_handler.c.obj)
 .text.bearer_handler_init
                0x0002c358       0x2c mesh/core/libmesh_core_nrf52832_xxAA.a(bearer_handler.c.obj)
                0x0002c358                bearer_handler_init
 .text.bearer_handler_start
                0x0002c384       0x1c mesh/core/libmesh_core_nrf52832_xxAA.a(bearer_handler.c.obj)
                0x0002c384                bearer_handler_start
 .text.bearer_handler_action_enqueue
                0x0002c3a0       0xa0 mesh/core/libmesh_core_nrf52832_xxAA.a(bearer_handler.c.obj)
                0x0002c3a0                bearer_handler_action_enqueue
 .text.bearer_handler_action_end
                0x0002c440       0x84 mesh/core/libmesh_core_nrf52832_xxAA.a(bearer_handler.c.obj)
                0x0002c440                bearer_handler_action_end
 .text.bearer_handler_radio_irq_handler
                0x0002c4c4       0x70 mesh/core/libmesh_core_nrf52832_xxAA.a(bearer_handler.c.obj)
                0x0002c4c4                bearer_handler_radio_irq_handler
 .text.bearer_handler_timer_irq_handler
                0x0002c534       0x3c mesh/core/libmesh_core_nrf52832_xxAA.a(bearer_handler.c.obj)
                0x0002c534                bearer_handler_timer_irq_handler
 .text.bearer_handler_on_ts_begin
                0x0002c570       0x4c mesh/core/libmesh_core_nrf52832_xxAA.a(bearer_handler.c.obj)
                0x0002c570                bearer_handler_on_ts_begin
 .text.bearer_handler_on_ts_end
                0x0002c5bc       0x48 mesh/core/libmesh_core_nrf52832_xxAA.a(bearer_handler.c.obj)
                0x0002c5bc                bearer_handler_on_ts_end
 .text.radio_irq_handler
                0x0002c604       0xb4 mesh/core/libmesh_core_nrf52832_xxAA.a(broadcast.c.obj)
 .text.broadcast_start
                0x0002c6b8       0x8c mesh/core/libmesh_core_nrf52832_xxAA.a(broadcast.c.obj)
 .text.broadcast_send
                0x0002c744       0x8c mesh/core/libmesh_core_nrf52832_xxAA.a(broadcast.c.obj)
                0x0002c744                broadcast_send
 .text.radio_config_reset
                0x0002c7d0       0x38 mesh/core/libmesh_core_nrf52832_xxAA.a(radio_config.c.obj)
                0x0002c7d0                radio_config_reset
 .text.radio_config_channel_set
                0x0002c808       0x34 mesh/core/libmesh_core_nrf52832_xxAA.a(radio_config.c.obj)
                0x0002c808                radio_config_channel_set
 .text.radio_config_config
                0x0002c83c       0x78 mesh/core/libmesh_core_nrf52832_xxAA.a(radio_config.c.obj)
                0x0002c83c                radio_config_config
 .text.radio_config_access_addr_set
                0x0002c8b4       0x68 mesh/core/libmesh_core_nrf52832_xxAA.a(radio_config.c.obj)
                0x0002c8b4                radio_config_access_addr_set
 .text.scan_window_end
                0x0002c91c       0x28 mesh/core/libmesh_core_nrf52832_xxAA.a(scanner.c.obj)
 .text.scan_window_start
                0x0002c944       0x38 mesh/core/libmesh_core_nrf52832_xxAA.a(scanner.c.obj)
 .text.radio_start
                0x0002c97c      0x19c mesh/core/libmesh_core_nrf52832_xxAA.a(scanner.c.obj)
 .text.scanner_radio_start
                0x0002cb18      0x14c mesh/core/libmesh_core_nrf52832_xxAA.a(scanner.c.obj)
                0x0002cb18                scanner_radio_start
 .text.scanner_radio_stop
                0x0002cc64       0x34 mesh/core/libmesh_core_nrf52832_xxAA.a(scanner.c.obj)
                0x0002cc64                scanner_radio_stop
 .text.scanner_radio_irq_handler
                0x0002cc98      0x200 mesh/core/libmesh_core_nrf52832_xxAA.a(scanner.c.obj)
                0x0002cc98                scanner_radio_irq_handler
 .text.scanner_enable
                0x0002ce98       0x5c mesh/core/libmesh_core_nrf52832_xxAA.a(scanner.c.obj)
                0x0002ce98                scanner_enable
 .text.scanner_rx
                0x0002cef4       0x84 mesh/core/libmesh_core_nrf52832_xxAA.a(scanner.c.obj)
                0x0002cef4                scanner_rx
 .text.scanner_packet_release
                0x0002cf78       0x4c mesh/core/libmesh_core_nrf52832_xxAA.a(scanner.c.obj)
                0x0002cf78                scanner_packet_release
 .text.scanner_config_reset
                0x0002cfc4       0xa8 mesh/core/libmesh_core_nrf52832_xxAA.a(scanner.c.obj)
                0x0002cfc4                scanner_config_reset
 .text.scanner_init
                0x0002d06c       0x48 mesh/core/libmesh_core_nrf52832_xxAA.a(scanner.c.obj)
                0x0002d06c                scanner_init
 .text.internal_event_push
                0x0002d0b4       0x28 mesh/core/libmesh_core_nrf52832_xxAA.a(internal_event.c.obj)
                0x0002d0b4                internal_event_push
 .text.sd_ecb_block_encrypt
                0x0002d0dc        0x4 mesh/core/libmesh_core_nrf52832_xxAA.a(aes.c.obj)
 .text.aes_encrypt
                0x0002d0e0       0x34 mesh/core/libmesh_core_nrf52832_xxAA.a(aes.c.obj)
                0x0002d0e0                aes_encrypt
 .text.msg_cache_init
                0x0002d114       0x24 mesh/core/libmesh_core_nrf52832_xxAA.a(msg_cache.c.obj)
                0x0002d114                msg_cache_init
 .text.msg_cache_entry_exists
                0x0002d138       0x40 mesh/core/libmesh_core_nrf52832_xxAA.a(msg_cache.c.obj)
                0x0002d138                msg_cache_entry_exists
 .text.msg_cache_entry_add
                0x0002d178       0x30 mesh/core/libmesh_core_nrf52832_xxAA.a(msg_cache.c.obj)
                0x0002d178                msg_cache_entry_add
 .text.tx_complete
                0x0002d1a8       0x34 mesh/core/libmesh_core_nrf52832_xxAA.a(transport.c.obj)
 .text.upper_trs_packet_encrypt
                0x0002d1dc       0xe0 mesh/core/libmesh_core_nrf52832_xxAA.a(transport.c.obj)
 .text.sar_ctx_alloc
                0x0002d2bc       0xd0 mesh/core/libmesh_core_nrf52832_xxAA.a(transport.c.obj)
 .text.trs_packet_header_build
                0x0002d38c       0xac mesh/core/libmesh_core_nrf52832_xxAA.a(transport.c.obj)
 .text.sar_ack_send
                0x0002d438      0x144 mesh/core/libmesh_core_nrf52832_xxAA.a(transport.c.obj)
 .text.test_transport_decrypt
                0x0002d57c       0x98 mesh/core/libmesh_core_nrf52832_xxAA.a(transport.c.obj)
 .text.upper_transport_access_packet_in
                0x0002d614      0x34c mesh/core/libmesh_core_nrf52832_xxAA.a(transport.c.obj)
 .text.trs_sar_packet_out
                0x0002d960      0x19c mesh/core/libmesh_core_nrf52832_xxAA.a(transport.c.obj)
 .text.sar_ctx_cancel
                0x0002dafc      0x1d0 mesh/core/libmesh_core_nrf52832_xxAA.a(transport.c.obj)
 .text.abort_timeout
                0x0002dccc        0x8 mesh/core/libmesh_core_nrf52832_xxAA.a(transport.c.obj)
 .text.retry_timeout
                0x0002dcd4       0xb0 mesh/core/libmesh_core_nrf52832_xxAA.a(transport.c.obj)
 .text.transport_sar_process
                0x0002dd84      0x2a8 mesh/core/libmesh_core_nrf52832_xxAA.a(transport.c.obj)
 .text.upper_transport_packet_in
                0x0002e02c      0x2e0 mesh/core/libmesh_core_nrf52832_xxAA.a(transport.c.obj)
 .text.ack_timeout
                0x0002e30c      0x15c mesh/core/libmesh_core_nrf52832_xxAA.a(transport.c.obj)
 .text.transport_init
                0x0002e468       0x98 mesh/core/libmesh_core_nrf52832_xxAA.a(transport.c.obj)
                0x0002e468                transport_init
 .text.transport_packet_in
                0x0002e500      0x824 mesh/core/libmesh_core_nrf52832_xxAA.a(transport.c.obj)
                0x0002e500                transport_packet_in
 .text.transport_tx
                0x0002ed24      0x32c mesh/core/libmesh_core_nrf52832_xxAA.a(transport.c.obj)
                0x0002ed24                transport_tx
 .text.packet_buffer_init
                0x0002f050       0xec mesh/core/libmesh_core_nrf52832_xxAA.a(packet_buffer.c.obj)
                0x0002f050                packet_buffer_init
 .text.packet_buffer_flush
                0x0002f13c       0xd4 mesh/core/libmesh_core_nrf52832_xxAA.a(packet_buffer.c.obj)
                0x0002f13c                packet_buffer_flush
 .text.packet_buffer_reserve
                0x0002f210      0x150 mesh/core/libmesh_core_nrf52832_xxAA.a(packet_buffer.c.obj)
                0x0002f210                packet_buffer_reserve
 .text.packet_buffer_commit
                0x0002f360      0x144 mesh/core/libmesh_core_nrf52832_xxAA.a(packet_buffer.c.obj)
                0x0002f360                packet_buffer_commit
 .text.packet_buffer_pop
                0x0002f4a4       0xc8 mesh/core/libmesh_core_nrf52832_xxAA.a(packet_buffer.c.obj)
                0x0002f4a4                packet_buffer_pop
 .text.packet_buffer_can_pop
                0x0002f56c       0x84 mesh/core/libmesh_core_nrf52832_xxAA.a(packet_buffer.c.obj)
                0x0002f56c                packet_buffer_can_pop
 .text.packet_buffer_packets_ready_to_pop
                0x0002f5f0       0xb4 mesh/core/libmesh_core_nrf52832_xxAA.a(packet_buffer.c.obj)
                0x0002f5f0                packet_buffer_packets_ready_to_pop
 .text.packet_buffer_free
                0x0002f6a4       0xf0 mesh/core/libmesh_core_nrf52832_xxAA.a(packet_buffer.c.obj)
                0x0002f6a4                packet_buffer_free
 .text.erase_source
                0x0002f794       0x34 mesh/core/libmesh_core_nrf52832_xxAA.a(flash_manager_defrag.c.obj)
 .text.erase_recovery_area
                0x0002f7c8       0x34 mesh/core/libmesh_core_nrf52832_xxAA.a(flash_manager_defrag.c.obj)
 .text.write_back
                0x0002f7fc       0x44 mesh/core/libmesh_core_nrf52832_xxAA.a(flash_manager_defrag.c.obj)
 .text.write_defrag_start_pointer
                0x0002f840       0x38 mesh/core/libmesh_core_nrf52832_xxAA.a(flash_manager_defrag.c.obj)
 .text.copy_metadata
                0x0002f878       0x58 mesh/core/libmesh_core_nrf52832_xxAA.a(flash_manager_defrag.c.obj)
 .text.seal_storage_page
                0x0002f8d0       0x70 mesh/core/libmesh_core_nrf52832_xxAA.a(flash_manager_defrag.c.obj)
 .text.post_process
                0x0002f940       0x64 mesh/core/libmesh_core_nrf52832_xxAA.a(flash_manager_defrag.c.obj)
 .text.check_for_invalid_entries
                0x0002f9a4       0x40 mesh/core/libmesh_core_nrf52832_xxAA.a(flash_manager_defrag.c.obj)
 .text.execute_procedure_step
                0x0002f9e4       0xc0 mesh/core/libmesh_core_nrf52832_xxAA.a(flash_manager_defrag.c.obj)
 .text.on_flash_op_end
                0x0002faa4       0x4c mesh/core/libmesh_core_nrf52832_xxAA.a(flash_manager_defrag.c.obj)
 .text.invalidate_duplicate_entries
                0x0002faf0      0x148 mesh/core/libmesh_core_nrf52832_xxAA.a(flash_manager_defrag.c.obj)
 .text.backup_entries
                0x0002fc38      0x1fc mesh/core/libmesh_core_nrf52832_xxAA.a(flash_manager_defrag.c.obj)
 .text.flash_manager_defrag_init
                0x0002fe34       0x68 mesh/core/libmesh_core_nrf52832_xxAA.a(flash_manager_defrag.c.obj)
                0x0002fe34                flash_manager_defrag_init
 .text.flash_manager_defrag_is_running
                0x0002fe9c       0x10 mesh/core/libmesh_core_nrf52832_xxAA.a(flash_manager_defrag.c.obj)
                0x0002fe9c                flash_manager_defrag_is_running
 .text.flash_manager_defrag
                0x0002feac       0xe4 mesh/core/libmesh_core_nrf52832_xxAA.a(flash_manager_defrag.c.obj)
                0x0002feac                flash_manager_defrag
 .text.flash_manager_defrag_recovery_page_get
                0x0002ff90        0xc mesh/core/libmesh_core_nrf52832_xxAA.a(flash_manager_defrag.c.obj)
                0x0002ff90                flash_manager_defrag_recovery_page_get
 .text.packet_mgr_init
                0x0002ff9c       0x4c mesh/core/libmesh_core_nrf52832_xxAA.a(packet_mgr.c.obj)
                0x0002ff9c                packet_mgr_init
 .text.send_end_events
                0x0002ffe8       0x8c mesh/core/libmesh_core_nrf52832_xxAA.a(mesh_flash.c.obj)
 .text.flash_op_schedule
                0x00030074       0xac mesh/core/libmesh_core_nrf52832_xxAA.a(mesh_flash.c.obj)
 .text.flash_op_start
                0x00030120      0x1c4 mesh/core/libmesh_core_nrf52832_xxAA.a(mesh_flash.c.obj)
 .text.mesh_flash_init
                0x000302e4       0x88 mesh/core/libmesh_core_nrf52832_xxAA.a(mesh_flash.c.obj)
                0x000302e4                mesh_flash_init
 .text.mesh_flash_user_callback_set
                0x0003036c       0x2c mesh/core/libmesh_core_nrf52832_xxAA.a(mesh_flash.c.obj)
                0x0003036c                mesh_flash_user_callback_set
 .text.mesh_flash_op_push
                0x00030398      0x140 mesh/core/libmesh_core_nrf52832_xxAA.a(mesh_flash.c.obj)
                0x00030398                mesh_flash_op_push
 .text.queue_init
                0x000304d8       0x28 mesh/core/libmesh_core_nrf52832_xxAA.a(queue.c.obj)
                0x000304d8                queue_init
 .text.queue_push
                0x00030500       0x50 mesh/core/libmesh_core_nrf52832_xxAA.a(queue.c.obj)
                0x00030500                queue_push
 .text.queue_pop
                0x00030550       0x40 mesh/core/libmesh_core_nrf52832_xxAA.a(queue.c.obj)
                0x00030550                queue_pop
 .text.queue_peek
                0x00030590       0x20 mesh/core/libmesh_core_nrf52832_xxAA.a(queue.c.obj)
                0x00030590                queue_peek
 .text.aes_cmac_subkey_generate
                0x000305b0      0x2b0 mesh/core/libmesh_core_nrf52832_xxAA.a(aes_cmac.c.obj)
                0x000305b0                aes_cmac_subkey_generate
 .text.aes_cmac
                0x00030860      0x49c mesh/core/libmesh_core_nrf52832_xxAA.a(aes_cmac.c.obj)
                0x00030860                aes_cmac
 .text.msq_init
                0x00030cfc       0x98 mesh/core/libmesh_core_nrf52832_xxAA.a(msqueue.c.obj)
                0x00030cfc                msq_init
 .text.msq_get  0x00030d94       0x68 mesh/core/libmesh_core_nrf52832_xxAA.a(msqueue.c.obj)
                0x00030d94                msq_get
 .text.msq_move
                0x00030dfc       0x60 mesh/core/libmesh_core_nrf52832_xxAA.a(msqueue.c.obj)
                0x00030dfc                msq_move
 .text.msq_available
                0x00030e5c       0x58 mesh/core/libmesh_core_nrf52832_xxAA.a(msqueue.c.obj)
                0x00030e5c                msq_available
 .text.replay_cache_init
                0x00030eb4       0x28 mesh/core/libmesh_core_nrf52832_xxAA.a(replay_cache.c.obj)
                0x00030eb4                replay_cache_init
 .text.replay_cache_add
                0x00030edc       0x68 mesh/core/libmesh_core_nrf52832_xxAA.a(replay_cache.c.obj)
                0x00030edc                replay_cache_add
 .text.replay_cache_has_room
                0x00030f44       0x48 mesh/core/libmesh_core_nrf52832_xxAA.a(replay_cache.c.obj)
                0x00030f44                replay_cache_has_room
 .text.replay_cache_has_elem
                0x00030f8c       0x40 mesh/core/libmesh_core_nrf52832_xxAA.a(replay_cache.c.obj)
                0x00030f8c                replay_cache_has_elem
 .text.fen_filters_apply
                0x00030fcc       0x38 mesh/core/libmesh_core_nrf52832_xxAA.a(filter_engine.c.obj)
                0x00030fcc                fen_filters_apply
 .text.nrf_flash_erase
                0x00031004       0x5c mesh/core/libmesh_core_nrf52832_xxAA.a(nrf_flash.c.obj)
                0x00031004                nrf_flash_erase
 .text.nrf_flash_write
                0x00031060       0x6c mesh/core/libmesh_core_nrf52832_xxAA.a(nrf_flash.c.obj)
                0x00031060                nrf_flash_write
 .text.SEGGER_RTT_Write
                0x000310cc      0x1e4 external/rtt/librtt_nrf52832_xxAA.a(SEGGER_RTT.c.obj)
                0x000310cc                SEGGER_RTT_Write
 .text.SEGGER_RTT_GetKey
                0x000312b0       0xec external/rtt/librtt_nrf52832_xxAA.a(SEGGER_RTT.c.obj)
                0x000312b0                SEGGER_RTT_GetKey
 .text._PrintUnsigned
                0x0003139c      0x194 external/rtt/librtt_nrf52832_xxAA.a(SEGGER_RTT_printf.c.obj)
 .text.SEGGER_RTT_vprintf
                0x00031530      0x464 external/rtt/librtt_nrf52832_xxAA.a(SEGGER_RTT_printf.c.obj)
                0x00031530                SEGGER_RTT_vprintf
 .text.SEGGER_RTT_printf
                0x00031994       0x20 external/rtt/librtt_nrf52832_xxAA.a(SEGGER_RTT_printf.c.obj)
                0x00031994                SEGGER_RTT_printf
 .text.default_RNG
                0x000319b4        0xc external/micro-ecc/libuECC_nrf52832_xxAA.a(uECC.c.obj)
 .text.uECC_generate_random_int
                0x000319c0      0x170 external/micro-ecc/libuECC_nrf52832_xxAA.a(uECC.c.obj)
 .text.apply_z  0x00031b30      0x1a8 external/micro-ecc/libuECC_nrf52832_xxAA.a(uECC.c.obj)
 .text.uECC_vli_modAdd
                0x00031cd8       0xc8 external/micro-ecc/libuECC_nrf52832_xxAA.a(uECC.c.obj)
 .text.x_side_default
                0x00031da0      0x254 external/micro-ecc/libuECC_nrf52832_xxAA.a(uECC.c.obj)
 .text.vli_mmod_fast_secp256r1
                0x00031ff4      0x520 external/micro-ecc/libuECC_nrf52832_xxAA.a(uECC.c.obj)
 .text.XYcZ_add
                0x00032514      0x6dc external/micro-ecc/libuECC_nrf52832_xxAA.a(uECC.c.obj)
 .text.XYcZ_addC
                0x00032bf0      0xa94 external/micro-ecc/libuECC_nrf52832_xxAA.a(uECC.c.obj)
 .text.uECC_vli_modInv.part.4
                0x00033684      0x6e8 external/micro-ecc/libuECC_nrf52832_xxAA.a(uECC.c.obj)
 .text.EccPoint_mult.constprop.5
                0x00033d6c      0x470 external/micro-ecc/libuECC_nrf52832_xxAA.a(uECC.c.obj)
 .text.double_jacobian_default
                0x000341dc      0x7ec external/micro-ecc/libuECC_nrf52832_xxAA.a(uECC.c.obj)
 .text.uECC_secp256r1
                0x000349c8        0x8 external/micro-ecc/libuECC_nrf52832_xxAA.a(uECC.c.obj)
                0x000349c8                uECC_secp256r1
 .text.uECC_make_key
                0x000349d0      0x23c external/micro-ecc/libuECC_nrf52832_xxAA.a(uECC.c.obj)
                0x000349d0                uECC_make_key
 .text.uECC_shared_secret
                0x00034c0c      0x788 external/micro-ecc/libuECC_nrf52832_xxAA.a(uECC.c.obj)
                0x00034c0c                uECC_shared_secret
 .text.uECC_valid_point
                0x00035394      0x134 external/micro-ecc/libuECC_nrf52832_xxAA.a(uECC.c.obj)
                0x00035394                uECC_valid_point
 .text.uECC_valid_public_key
                0x000354c8       0xe8 external/micro-ecc/libuECC_nrf52832_xxAA.a(uECC.c.obj)
                0x000354c8                uECC_valid_public_key
 .text.exit     0x000355b0       0x28 c:/a/gcc_arm/6/bin/../lib/gcc/arm-none-eabi/6.3.1/../../../../arm-none-eabi/lib/thumb/v7e-m/fpv4-sp/hard\libc_nano.a(lib_a-exit.o)
                0x000355b0                exit
 .text.__libc_init_array
                0x000355d8       0x48 c:/a/gcc_arm/6/bin/../lib/gcc/arm-none-eabi/6.3.1/../../../../arm-none-eabi/lib/thumb/v7e-m/fpv4-sp/hard\libc_nano.a(lib_a-init.o)
                0x000355d8                __libc_init_array
 .text.malloc   0x00035620       0x10 c:/a/gcc_arm/6/bin/../lib/gcc/arm-none-eabi/6.3.1/../../../../arm-none-eabi/lib/thumb/v7e-m/fpv4-sp/hard\libc_nano.a(lib_a-malloc.o)
                0x00035620                malloc
 .text.free     0x00035630       0x10 c:/a/gcc_arm/6/bin/../lib/gcc/arm-none-eabi/6.3.1/../../../../arm-none-eabi/lib/thumb/v7e-m/fpv4-sp/hard\libc_nano.a(lib_a-malloc.o)
                0x00035630                free
 .text.memcmp   0x00035640       0x1e c:/a/gcc_arm/6/bin/../lib/gcc/arm-none-eabi/6.3.1/../../../../arm-none-eabi/lib/thumb/v7e-m/fpv4-sp/hard\libc_nano.a(lib_a-memcmp.o)
                0x00035640                memcmp
 .text.memcpy   0x0003565e       0x16 c:/a/gcc_arm/6/bin/../lib/gcc/arm-none-eabi/6.3.1/../../../../arm-none-eabi/lib/thumb/v7e-m/fpv4-sp/hard\libc_nano.a(lib_a-memcpy-stub.o)
                0x0003565e                memcpy
 .text.memset   0x00035674       0x10 c:/a/gcc_arm/6/bin/../lib/gcc/arm-none-eabi/6.3.1/../../../../arm-none-eabi/lib/thumb/v7e-m/fpv4-sp/hard\libc_nano.a(lib_a-memset.o)
                0x00035674                memset
 .text._free_r  0x00035684       0x9c c:/a/gcc_arm/6/bin/../lib/gcc/arm-none-eabi/6.3.1/../../../../arm-none-eabi/lib/thumb/v7e-m/fpv4-sp/hard\libc_nano.a(lib_a-nano-freer.o)
                0x00035684                _free_r
 .text._malloc_r
                0x00035720       0xbc c:/a/gcc_arm/6/bin/../lib/gcc/arm-none-eabi/6.3.1/../../../../arm-none-eabi/lib/thumb/v7e-m/fpv4-sp/hard\libc_nano.a(lib_a-nano-mallocr.o)
                0x00035720                _malloc_r
 .text._sbrk_r  0x000357dc       0x20 c:/a/gcc_arm/6/bin/../lib/gcc/arm-none-eabi/6.3.1/../../../../arm-none-eabi/lib/thumb/v7e-m/fpv4-sp/hard\libc_nano.a(lib_a-sbrkr.o)
                0x000357dc                _sbrk_r
 .text.strcpy   0x000357fc       0x10 c:/a/gcc_arm/6/bin/../lib/gcc/arm-none-eabi/6.3.1/../../../../arm-none-eabi/lib/thumb/v7e-m/fpv4-sp/hard\libc_nano.a(lib_a-strcpy.o)
                0x000357fc                strcpy
 .text          0x0003580c       0x10 c:/a/gcc_arm/6/bin/../lib/gcc/arm-none-eabi/6.3.1/../../../../arm-none-eabi/lib/thumb/v7e-m/fpv4-sp/hard\libc_nano.a(lib_a-strlen.o)
                0x0003580c                strlen
 .text.strrchr  0x0003581c       0x26 c:/a/gcc_arm/6/bin/../lib/gcc/arm-none-eabi/6.3.1/../../../../arm-none-eabi/lib/thumb/v7e-m/fpv4-sp/hard\libc_nano.a(lib_a-strrchr.o)
                0x0003581c                strrchr
 .text.__malloc_lock
                0x00035842        0x2 c:/a/gcc_arm/6/bin/../lib/gcc/arm-none-eabi/6.3.1/../../../../arm-none-eabi/lib/thumb/v7e-m/fpv4-sp/hard\libc_nano.a(lib_a-mlock.o)
                0x00035842                __malloc_lock
 .text.__malloc_unlock
                0x00035844        0x2 c:/a/gcc_arm/6/bin/../lib/gcc/arm-none-eabi/6.3.1/../../../../arm-none-eabi/lib/thumb/v7e-m/fpv4-sp/hard\libc_nano.a(lib_a-mlock.o)
                0x00035844                __malloc_unlock
 .text.strchr   0x00035846       0x1c c:/a/gcc_arm/6/bin/../lib/gcc/arm-none-eabi/6.3.1/../../../../arm-none-eabi/lib/thumb/v7e-m/fpv4-sp/hard\libc_nano.a(lib_a-strchr.o)
                0x00035846                strchr
 *fill*         0x00035862        0x2 
 .text._sbrk    0x00035864       0x1c c:/a/gcc_arm/6/bin/../lib/gcc/arm-none-eabi/6.3.1/../../../../arm-none-eabi/lib/thumb/v7e-m/fpv4-sp/hard\libnosys.a(sbrk.o)
                0x00035864                _sbrk
 .text._exit    0x00035880        0x4 c:/a/gcc_arm/6/bin/../lib/gcc/arm-none-eabi/6.3.1/../../../../arm-none-eabi/lib/thumb/v7e-m/fpv4-sp/hard\libnosys.a(_exit.o)
                0x00035880                _exit
 *(.init)
 .init          0x00035884        0x4 c:/a/gcc_arm/6/bin/../lib/gcc/arm-none-eabi/6.3.1/thumb/v7e-m/fpv4-sp/hard/crti.o
                0x00035884                _init
 .init          0x00035888        0x8 c:/a/gcc_arm/6/bin/../lib/gcc/arm-none-eabi/6.3.1/thumb/v7e-m/fpv4-sp/hard/crtn.o
 *(.fini)
 .fini          0x00035890        0x4 c:/a/gcc_arm/6/bin/../lib/gcc/arm-none-eabi/6.3.1/thumb/v7e-m/fpv4-sp/hard/crti.o
                0x00035890                _fini
 .fini          0x00035894        0x8 c:/a/gcc_arm/6/bin/../lib/gcc/arm-none-eabi/6.3.1/thumb/v7e-m/fpv4-sp/hard/crtn.o
 *crtbegin.o(.ctors)
 *crtbegin?.o(.ctors)
 *(EXCLUDE_FILE(*crtend.o *crtend?.o) .ctors)
 *(SORT(.ctors.*))
 *(.ctors)
 *crtbegin.o(.dtors)
 *crtbegin?.o(.dtors)
 *(EXCLUDE_FILE(*crtend.o *crtend?.o) .dtors)
 *(SORT(.dtors.*))
 *(.dtors)
 *(.rodata*)
 .rodata        0x0003589c       0x14 examples/pb_remote/client/CMakeFiles/pb_remote_client_nrf52832_xxAA_s132_3.1.0.dir/src/main.c.obj
 .rodata.USAGE_STRING
                0x000358b0      0x11b examples/pb_remote/client/CMakeFiles/pb_remote_client_nrf52832_xxAA_s132_3.1.0.dir/src/main.c.obj
                0x000358b0                USAGE_STRING
 *fill*         0x000359cb        0x1 
 .rodata.m_netkey
                0x000359cc       0x10 examples/pb_remote/client/CMakeFiles/pb_remote_client_nrf52832_xxAA_s132_3.1.0.dir/src/main.c.obj
 .rodata.main.str1.4
                0x000359dc      0x157 examples/pb_remote/client/CMakeFiles/pb_remote_client_nrf52832_xxAA_s132_3.1.0.dir/src/main.c.obj
 *fill*         0x00035b33        0x1 
 .rodata.mesh_evt_handler.str1.4
                0x00035b34      0x133 examples/pb_remote/client/CMakeFiles/pb_remote_client_nrf52832_xxAA_s132_3.1.0.dir/src/main.c.obj
 *fill*         0x00035c67        0x1 
 .rodata.remote_client_event_cb.str1.4
                0x00035c68       0x76 examples/pb_remote/client/CMakeFiles/pb_remote_client_nrf52832_xxAA_s132_3.1.0.dir/src/main.c.obj
 *fill*         0x00035cde        0x2 
 .rodata.HardFault_Handler.str1.4
                0x00035ce0        0xe examples/pb_remote/client/CMakeFiles/pb_remote_client_nrf52832_xxAA_s132_3.1.0.dir/__/__/nrf_mesh_sdk.c.obj
 *fill*         0x00035cee        0x2 
 .rodata.app_error_handler.str1.4
                0x00035cf0       0x1d examples/pb_remote/client/CMakeFiles/pb_remote_client_nrf52832_xxAA_s132_3.1.0.dir/__/__/nrf_mesh_sdk.c.obj
 *fill*         0x00035d0d        0x3 
 .rodata.mesh_assert_handler.str1.4
                0x00035d10       0x35 examples/pb_remote/client/CMakeFiles/pb_remote_client_nrf52832_xxAA_s132_3.1.0.dir/__/__/nrf_mesh_sdk.c.obj
 *fill*         0x00035d45        0x3 
 .rodata.mesh_core_setup.str1.4
                0x00035d48       0x4d examples/pb_remote/client/CMakeFiles/pb_remote_client_nrf52832_xxAA_s132_3.1.0.dir/__/__/nrf_mesh_sdk.c.obj
 *fill*         0x00035d95        0x3 
 .rodata.mesh_softdevice_enable.str1.4
                0x00035d98       0x65 examples/pb_remote/client/CMakeFiles/pb_remote_client_nrf52832_xxAA_s132_3.1.0.dir/__/__/nrf_mesh_sdk.c.obj
 *fill*         0x00035dfd        0x3 
 .rodata.softdevice_assert_handler.str1.4
                0x00035e00       0x1d examples/pb_remote/client/CMakeFiles/pb_remote_client_nrf52832_xxAA_s132_3.1.0.dir/__/__/nrf_mesh_sdk.c.obj
 *fill*         0x00035e1d        0x3 
 .rodata        0x00035e20       0x2a examples/pb_remote/client/CMakeFiles/pb_remote_client_nrf52832_xxAA_s132_3.1.0.dir/__/__/__/models/pb_remote/src/pb_remote_client.c.obj
 *fill*         0x00035e4a        0x2 
 .rodata.client_reliable_status_cb.str1.4
                0x00035e4c       0x41 examples/pb_remote/client/CMakeFiles/pb_remote_client_nrf52832_xxAA_s132_3.1.0.dir/__/__/__/models/pb_remote/src/pb_remote_client.c.obj
 *fill*         0x00035e8d        0x3 
 .rodata.m_opcode_handlers
                0x00035e90       0x38 examples/pb_remote/client/CMakeFiles/pb_remote_client_nrf52832_xxAA_s132_3.1.0.dir/__/__/__/models/pb_remote/src/pb_remote_client.c.obj
 .rodata.m_pb_remote_client_event_handler_callbacks
                0x00035ec8       0x38 examples/pb_remote/client/CMakeFiles/pb_remote_client_nrf52832_xxAA_s132_3.1.0.dir/__/__/__/models/pb_remote/src/pb_remote_client.c.obj
                0x00035ec8                m_pb_remote_client_event_handler_callbacks
 .rodata.m_prov_interface
                0x00035f00       0x14 examples/pb_remote/client/CMakeFiles/pb_remote_client_nrf52832_xxAA_s132_3.1.0.dir/__/__/__/models/pb_remote/src/pb_remote_client.c.obj
                0x00035f00                m_prov_interface
 .rodata.pb_remote_client_event_link_close_cb.str1.4
                0x00035f14       0x2a examples/pb_remote/client/CMakeFiles/pb_remote_client_nrf52832_xxAA_s132_3.1.0.dir/__/__/__/models/pb_remote/src/pb_remote_client.c.obj
 *fill*         0x00035f3e        0x2 
 .rodata.pb_remote_client_event_link_status_cb.str1.4
                0x00035f40       0x68 examples/pb_remote/client/CMakeFiles/pb_remote_client_nrf52832_xxAA_s132_3.1.0.dir/__/__/__/models/pb_remote/src/pb_remote_client.c.obj
 .rodata.pb_remote_client_event_link_status_report_cb.str1.4
                0x00035fa8       0x50 examples/pb_remote/client/CMakeFiles/pb_remote_client_nrf52832_xxAA_s132_3.1.0.dir/__/__/__/models/pb_remote/src/pb_remote_client.c.obj
 .rodata.pb_remote_client_event_local_packet_cb.str1.4
                0x00035ff8       0x1c examples/pb_remote/client/CMakeFiles/pb_remote_client_nrf52832_xxAA_s132_3.1.0.dir/__/__/__/models/pb_remote/src/pb_remote_client.c.obj
 .rodata.pb_remote_client_event_packet_transfer_cb.str1.4
                0x00036014       0x2d examples/pb_remote/client/CMakeFiles/pb_remote_client_nrf52832_xxAA_s132_3.1.0.dir/__/__/__/models/pb_remote/src/pb_remote_client.c.obj
 *fill*         0x00036041        0x3 
 .rodata.pb_remote_client_event_scan_cancel_cb.str1.4
                0x00036044       0x1e examples/pb_remote/client/CMakeFiles/pb_remote_client_nrf52832_xxAA_s132_3.1.0.dir/__/__/__/models/pb_remote/src/pb_remote_client.c.obj
 *fill*         0x00036062        0x2 
 .rodata.pb_remote_client_event_scan_start_cb.str1.4
                0x00036064       0x1d examples/pb_remote/client/CMakeFiles/pb_remote_client_nrf52832_xxAA_s132_3.1.0.dir/__/__/__/models/pb_remote/src/pb_remote_client.c.obj
 *fill*         0x00036081        0x3 
 .rodata.pb_remote_client_event_scan_status_cb.str1.4
                0x00036084       0x64 examples/pb_remote/client/CMakeFiles/pb_remote_client_nrf52832_xxAA_s132_3.1.0.dir/__/__/__/models/pb_remote/src/pb_remote_client.c.obj
 .rodata.pb_remote_client_event_transfer_status_cb.str1.4
                0x000360e8       0x51 examples/pb_remote/client/CMakeFiles/pb_remote_client_nrf52832_xxAA_s132_3.1.0.dir/__/__/__/models/pb_remote/src/pb_remote_client.c.obj
 *fill*         0x00036139        0x3 
 .rodata.pb_remote_client_event_transfer_status_report_cb.str1.4
                0x0003613c       0x43 examples/pb_remote/client/CMakeFiles/pb_remote_client_nrf52832_xxAA_s132_3.1.0.dir/__/__/__/models/pb_remote/src/pb_remote_client.c.obj
 *fill*         0x0003617f        0x1 
 .rodata.pb_remote_client_event_unprov_number_cb.str1.4
                0x00036180       0x2b examples/pb_remote/client/CMakeFiles/pb_remote_client_nrf52832_xxAA_s132_3.1.0.dir/__/__/__/models/pb_remote/src/pb_remote_client.c.obj
 *fill*         0x000361ab        0x1 
 .rodata.pb_remote_client_event_unprov_uuid_cb.str1.4
                0x000361ac       0x24 examples/pb_remote/client/CMakeFiles/pb_remote_client_nrf52832_xxAA_s132_3.1.0.dir/__/__/__/models/pb_remote/src/pb_remote_client.c.obj
 .rodata.pb_remote_client_process.part.8.str1.4
                0x000361d0       0x23 examples/pb_remote/client/CMakeFiles/pb_remote_client_nrf52832_xxAA_s132_3.1.0.dir/__/__/__/models/pb_remote/src/pb_remote_client.c.obj
 *fill*         0x000361f3        0x1 
 .rodata.m_prov_callbacks
                0x000361f4       0x10 examples/pb_remote/client/CMakeFiles/pb_remote_client_nrf52832_xxAA_s132_3.1.0.dir/__/__/__/mesh/prov/src/prov_provisioner.c.obj
 .rodata.pdu_sizes.10677
                0x00036204        0xa examples/pb_remote/client/CMakeFiles/pb_remote_client_nrf52832_xxAA_s132_3.1.0.dir/__/__/__/mesh/prov/src/provisioning.c.obj
 *fill*         0x0003620e        0x2 
 .rodata.prov_cb_pkt_in.str1.4
                0x00036210       0x34 examples/pb_remote/client/CMakeFiles/pb_remote_client_nrf52832_xxAA_s132_3.1.0.dir/__/__/__/mesh/prov/src/provisioning.c.obj
 .rodata.alphanumeric.10781
                0x00036244       0x25 examples/pb_remote/client/CMakeFiles/pb_remote_client_nrf52832_xxAA_s132_3.1.0.dir/__/__/__/mesh/prov/src/prov_utils.c.obj
 *fill*         0x00036269        0x3 
 .rodata.numeric_max.10775
                0x0003626c       0x24 examples/pb_remote/client/CMakeFiles/pb_remote_client_nrf52832_xxAA_s132_3.1.0.dir/__/__/__/mesh/prov/src/prov_utils.c.obj
 .rodata.prov_utils_authentication_values_derive.str1.4
                0x00036290        0x5 examples/pb_remote/client/CMakeFiles/pb_remote_client_nrf52832_xxAA_s132_3.1.0.dir/__/__/__/mesh/prov/src/prov_utils.c.obj
 *fill*         0x00036295        0x3 
 .rodata.prov_utils_derive_keys.str1.4
                0x00036298       0x15 examples/pb_remote/client/CMakeFiles/pb_remote_client_nrf52832_xxAA_s132_3.1.0.dir/__/__/__/mesh/prov/src/prov_utils.c.obj
 *fill*         0x000362ad        0x3 
 .rodata.crctable.10539
                0x000362b0      0x100 examples/pb_remote/client/CMakeFiles/pb_remote_client_nrf52832_xxAA_s132_3.1.0.dir/__/__/__/mesh/prov/src/prov_bearer_adv.c.obj
 .rodata.interface.10768
                0x000363b0       0x14 examples/pb_remote/client/CMakeFiles/pb_remote_client_nrf52832_xxAA_s132_3.1.0.dir/__/__/__/mesh/prov/src/prov_bearer_adv.c.obj
 .rodata.prov_bearer_adv_listen.str1.4
                0x000363c4       0x50 examples/pb_remote/client/CMakeFiles/pb_remote_client_nrf52832_xxAA_s132_3.1.0.dir/__/__/__/mesh/prov/src/prov_bearer_adv.c.obj
 .rodata.prov_bearer_adv_packet_in.str1.4
                0x00036414      0x283 examples/pb_remote/client/CMakeFiles/pb_remote_client_nrf52832_xxAA_s132_3.1.0.dir/__/__/__/mesh/prov/src/prov_bearer_adv.c.obj
 *fill*         0x00036697        0x1 
 .rodata.tx_retry_cb.str1.4
                0x00036698       0x14 examples/pb_remote/client/CMakeFiles/pb_remote_client_nrf52832_xxAA_s132_3.1.0.dir/__/__/__/mesh/prov/src/prov_bearer_adv.c.obj
 .rodata.access_model_publish.str1.4
                0x000366ac       0x13 examples/pb_remote/client/CMakeFiles/pb_remote_client_nrf52832_xxAA_s132_3.1.0.dir/__/__/__/mesh/access/src/access.c.obj
 *fill*         0x000366bf        0x1 
 .rodata.mesh_evt_cb.str1.4
                0x000366c0       0x2f examples/pb_remote/client/CMakeFiles/pb_remote_client_nrf52832_xxAA_s132_3.1.0.dir/__/__/__/mesh/access/src/access.c.obj
 *fill*         0x000366ef        0x1 
 .rodata.m_flash_groups
                0x000366f0       0xc0 examples/pb_remote/client/CMakeFiles/pb_remote_client_nrf52832_xxAA_s132_3.1.0.dir/__/__/__/mesh/access/src/device_state_manager.c.obj
 .rodata.types_lookup.8805
                0x000367b0        0x4 mesh/core/libmesh_core_nrf52832_xxAA.a(nrf_mesh_utils.c.obj)
 .rodata.nrf_mesh_process.str1.4
                0x000367b4       0x73 mesh/core/libmesh_core_nrf52832_xxAA.a(nrf_mesh.c.obj)
 *fill*         0x00036827        0x1 
 .rodata.CSWTCH.9
                0x00036828       0x20 mesh/core/libmesh_core_nrf52832_xxAA.a(hal.c.obj)
 .rodata        0x00036848       0x18 mesh/core/libmesh_core_nrf52832_xxAA.a(enc.c.obj)
 .rodata.network_packet_in.str1.4
                0x00036860       0x41 mesh/core/libmesh_core_nrf52832_xxAA.a(network.c.obj)
                                 0x49 (size before relaxing)
 *fill*         0x000368a1        0x3 
 .rodata.network_packet_send.str1.4
                0x000368a4       0x4a mesh/core/libmesh_core_nrf52832_xxAA.a(network.c.obj)
 *fill*         0x000368ee        0x2 
 .rodata        0x000368f0        0x7 mesh/core/libmesh_core_nrf52832_xxAA.a(nrf_mesh_keygen.c.obj)
 *fill*         0x000368f7        0x1 
 .rodata.log_callback_rtt.str1.4
                0x000368f8       0x15 mesh/core/libmesh_core_nrf52832_xxAA.a(log.c.obj)
 *fill*         0x0003690d        0x3 
 .rodata.str1.4
                0x00036910       0x11 mesh/core/libmesh_core_nrf52832_xxAA.a(log.c.obj)
 *fill*         0x00036921        0x3 
 .rodata.INVALID_HEADER
                0x00036924        0x4 mesh/core/libmesh_core_nrf52832_xxAA.a(flash_manager.c.obj)
                0x00036924                INVALID_HEADER
 .rodata.PADDING_HEADER
                0x00036928        0x4 mesh/core/libmesh_core_nrf52832_xxAA.a(flash_manager.c.obj)
                0x00036928                PADDING_HEADER
 .rodata.SEAL_HEADER
                0x0003692c        0x4 mesh/core/libmesh_core_nrf52832_xxAA.a(flash_manager.c.obj)
                0x0003692c                SEAL_HEADER
 .rodata.process_action_queue.str1.4
                0x00036930       0x21 mesh/core/libmesh_core_nrf52832_xxAA.a(flash_manager.c.obj)
                                 0x52 (size before relaxing)
 *fill*         0x00036951        0x3 
 .rodata.beacon_packet_in.str1.4
                0x00036954       0x55 mesh/core/libmesh_core_nrf52832_xxAA.a(beacon.c.obj)
                                 0x60 (size before relaxing)
 *fill*         0x000369a9        0x3 
 .rodata.net_beacon_init.str1.4
                0x000369ac        0x5 mesh/core/libmesh_core_nrf52832_xxAA.a(net_beacon.c.obj)
 *fill*         0x000369b1        0x3 
 .rodata.radio_mode_to_us_per_byte.9181
                0x000369b4        0x6 mesh/core/libmesh_core_nrf52832_xxAA.a(broadcast.c.obj)
 *fill*         0x000369ba        0x2 
 .rodata.channel_rf_offsets.8443
                0x000369bc       0x28 mesh/core/libmesh_core_nrf52832_xxAA.a(radio_config.c.obj)
 .rodata.sar_ack_send.str1.4
                0x000369e4       0x1d mesh/core/libmesh_core_nrf52832_xxAA.a(transport.c.obj)
                                 0x4e (size before relaxing)
 *fill*         0x00036a01        0x3 
 .rodata.sar_ctx_cancel.str1.4
                0x00036a04       0x18 mesh/core/libmesh_core_nrf52832_xxAA.a(transport.c.obj)
 .rodata.test_transport_decrypt.str1.4
                0x00036a1c       0x13 mesh/core/libmesh_core_nrf52832_xxAA.a(transport.c.obj)
 *fill*         0x00036a2f        0x1 
 .rodata.transport_packet_in.str1.4
                0x00036a30       0x24 mesh/core/libmesh_core_nrf52832_xxAA.a(transport.c.obj)
 .rodata.transport_tx.str1.4
                0x00036a54       0x2f mesh/core/libmesh_core_nrf52832_xxAA.a(transport.c.obj)
                                 0x38 (size before relaxing)
 *fill*         0x00036a83        0x1 
 .rodata.upper_transport_access_packet_in.str1.4
                0x00036a84       0x29 mesh/core/libmesh_core_nrf52832_xxAA.a(transport.c.obj)
 *fill*         0x00036aad        0x3 
 .rodata.upper_transport_packet_in.str1.4
                0x00036ab0       0x2e mesh/core/libmesh_core_nrf52832_xxAA.a(transport.c.obj)
 *fill*         0x00036ade        0x2 
 .rodata.flash_manager_defrag.str1.4
                0x00036ae0       0x28 mesh/core/libmesh_core_nrf52832_xxAA.a(flash_manager_defrag.c.obj)
                                 0x56 (size before relaxing)
 .rodata.m_procedure_steps
                0x00036b08       0x28 mesh/core/libmesh_core_nrf52832_xxAA.a(flash_manager_defrag.c.obj)
 .rodata.m_all_operations
                0x00036b30       0x10 mesh/core/libmesh_core_nrf52832_xxAA.a(mesh_flash.c.obj)
 .rodata.SEGGER_RTT_ReadNoLock.str1.4
                0x00036b40       0x18 external/rtt/librtt_nrf52832_xxAA.a(SEGGER_RTT.c.obj)
                                 0x17 (size before relaxing)
 .rodata._aV2C.5497
                0x00036b58       0x10 external/rtt/librtt_nrf52832_xxAA.a(SEGGER_RTT_printf.c.obj)
 .rodata.curve_secp256r1
                0x00036b68       0xb0 external/micro-ecc/libuECC_nrf52832_xxAA.a(uECC.c.obj)
 .rodata._global_impure_ptr
                0x00036c18        0x4 c:/a/gcc_arm/6/bin/../lib/gcc/arm-none-eabi/6.3.1/../../../../arm-none-eabi/lib/thumb/v7e-m/fpv4-sp/hard\libc_nano.a(lib_a-impure.o)
                0x00036c18                _global_impure_ptr
 *(.eh_frame*)
 .eh_frame      0x00036c1c        0x0 c:/a/gcc_arm/6/bin/../lib/gcc/arm-none-eabi/6.3.1/thumb/v7e-m/fpv4-sp/hard/crtbegin.o
 .eh_frame      0x00036c1c        0x4 c:/a/gcc_arm/6/bin/../lib/gcc/arm-none-eabi/6.3.1/thumb/v7e-m/fpv4-sp/hard/crtend.o

.glue_7         0x00036c20        0x0
 .glue_7        0x00036c20        0x0 linker stubs

.glue_7t        0x00036c20        0x0
 .glue_7t       0x00036c20        0x0 linker stubs

.vfp11_veneer   0x00036c20        0x0
 .vfp11_veneer  0x00036c20        0x0 linker stubs

.v4_bx          0x00036c20        0x0
 .v4_bx         0x00036c20        0x0 linker stubs

.iplt           0x00036c20        0x0
 .iplt          0x00036c20        0x0 c:/a/gcc_arm/6/bin/../lib/gcc/arm-none-eabi/6.3.1/thumb/v7e-m/fpv4-sp/hard/crtbegin.o

.ARM.extab
 *(.ARM.extab* .gnu.linkonce.armextab.*)
                0x00036c20                __exidx_start = .

.ARM.exidx      0x00036c20        0x8
 *(.ARM.exidx* .gnu.linkonce.armexidx.*)
 .ARM.exidx     0x00036c20        0x8 c:/a/gcc_arm/6/bin/../lib/gcc/arm-none-eabi/6.3.1/../../../../arm-none-eabi/lib/thumb/v7e-m/fpv4-sp/hard/crt0.o
                0x00036c28                __exidx_end = .
                0x00036c28                __etext = .

.rel.dyn        0x00036c28        0x0
 .rel.iplt      0x00036c28        0x0 c:/a/gcc_arm/6/bin/../lib/gcc/arm-none-eabi/6.3.1/thumb/v7e-m/fpv4-sp/hard/crtbegin.o

.data           0x200019c0       0xe4 load address 0x00036c28
                0x200019c0                __data_start__ = .
 *(vtable)
 *(.data*)
 .data.m_next_unprov_address
                0x200019c0        0x2 examples/pb_remote/client/CMakeFiles/pb_remote_client_nrf52832_xxAA_s132_3.1.0.dir/src/main.c.obj
 .data.m_unprov_report
                0x200019c2        0x1 examples/pb_remote/client/CMakeFiles/pb_remote_client_nrf52832_xxAA_s132_3.1.0.dir/__/__/__/mesh/prov/src/prov_beacon.c.obj
 *fill*         0x200019c3        0x1 
 .data.m_async_process_flag
                0x200019c4        0x4 examples/pb_remote/client/CMakeFiles/pb_remote_client_nrf52832_xxAA_s132_3.1.0.dir/__/__/__/mesh/prov/src/prov_bearer_adv.c.obj
 .data.flash_add_mem_available_struct.10233
                0x200019c8       0x10 examples/pb_remote/client/CMakeFiles/pb_remote_client_nrf52832_xxAA_s132_3.1.0.dir/__/__/__/mesh/access/src/access.c.obj
 .data.m_default_ttl
                0x200019d8        0x1 examples/pb_remote/client/CMakeFiles/pb_remote_client_nrf52832_xxAA_s132_3.1.0.dir/__/__/__/mesh/access/src/access.c.obj
 *fill*         0x200019d9        0x3 
 .data.mem_listener.10511
                0x200019dc       0x10 examples/pb_remote/client/CMakeFiles/pb_remote_client_nrf52832_xxAA_s132_3.1.0.dir/__/__/__/mesh/access/src/device_state_manager.c.obj
 .data.SystemCoreClock
                0x200019ec        0x4 examples/pb_remote/client/CMakeFiles/pb_remote_client_nrf52832_xxAA_s132_3.1.0.dir/__/__/__/external/nRF5_SDK_14.0.0_3bcc1f7/components/toolchain/system_nrf52.c.obj
                0x200019ec                SystemCoreClock
 .data.mem_listener.9705
                0x200019f0       0x10 mesh/core/libmesh_core_nrf52832_xxAA.a(net_state.c.obj)
 .data.mem_listener.9710
                0x20001a00       0x10 mesh/core/libmesh_core_nrf52832_xxAA.a(net_state.c.obj)
 .data.mem_listener.9724
                0x20001a10       0x10 mesh/core/libmesh_core_nrf52832_xxAA.a(net_state.c.obj)
 .data.g_log_debug_level
                0x20001a20        0x4 mesh/core/libmesh_core_nrf52832_xxAA.a(log.c.obj)
                0x20001a20                g_log_debug_level
 .data.g_log_debug_msk
                0x20001a24        0x4 mesh/core/libmesh_core_nrf52832_xxAA.a(log.c.obj)
                0x20001a24                g_log_debug_msk
 .data.g_log_hex_digits
                0x20001a28        0x4 mesh/core/libmesh_core_nrf52832_xxAA.a(log.c.obj)
                0x20001a28                g_log_hex_digits
 .data.m_log_callback
                0x20001a2c        0x4 mesh/core/libmesh_core_nrf52832_xxAA.a(log.c.obj)
                0x20001a2c                m_log_callback
 .data.g_rng_function
                0x20001a30        0x4 external/micro-ecc/libuECC_nrf52832_xxAA.a(uECC.c.obj)
 .data._impure_ptr
                0x20001a34        0x4 c:/a/gcc_arm/6/bin/../lib/gcc/arm-none-eabi/6.3.1/../../../../arm-none-eabi/lib/thumb/v7e-m/fpv4-sp/hard\libc_nano.a(lib_a-impure.o)
                0x20001a34                _impure_ptr
 .data.impure_data
                0x20001a38       0x60 c:/a/gcc_arm/6/bin/../lib/gcc/arm-none-eabi/6.3.1/../../../../arm-none-eabi/lib/thumb/v7e-m/fpv4-sp/hard\libc_nano.a(lib_a-impure.o)
                0x20001a98                . = ALIGN (0x4)
                0x20001a98                PROVIDE (__preinit_array_start, .)
 *(.preinit_array)
                0x20001a98                PROVIDE (__preinit_array_end, .)
                0x20001a98                . = ALIGN (0x4)
                0x20001a98                PROVIDE (__init_array_start, .)
 *(SORT(.init_array.*))
 *(.init_array)
 .init_array    0x20001a98        0x4 c:/a/gcc_arm/6/bin/../lib/gcc/arm-none-eabi/6.3.1/thumb/v7e-m/fpv4-sp/hard/crtbegin.o
                0x20001a9c                PROVIDE (__init_array_end, .)
                0x20001a9c                . = ALIGN (0x4)
                [!provide]                PROVIDE (__fini_array_start, .)
 *(SORT(.fini_array.*))
 *(.fini_array)
 .fini_array    0x20001a9c        0x4 c:/a/gcc_arm/6/bin/../lib/gcc/arm-none-eabi/6.3.1/thumb/v7e-m/fpv4-sp/hard/crtbegin.o
                [!provide]                PROVIDE (__fini_array_end, .)
 *(.jcr*)
 .jcr           0x20001aa0        0x0 c:/a/gcc_arm/6/bin/../lib/gcc/arm-none-eabi/6.3.1/thumb/v7e-m/fpv4-sp/hard/crtbegin.o
 .jcr           0x20001aa0        0x4 c:/a/gcc_arm/6/bin/../lib/gcc/arm-none-eabi/6.3.1/thumb/v7e-m/fpv4-sp/hard/crtend.o
                0x20001aa4                . = ALIGN (0x4)
                0x20001aa4                __data_end__ = .

.igot.plt       0x20001aa4        0x0 load address 0x00036d0c
 .igot.plt      0x20001aa4        0x0 c:/a/gcc_arm/6/bin/../lib/gcc/arm-none-eabi/6.3.1/thumb/v7e-m/fpv4-sp/hard/crtbegin.o

.bss            0x20001aa8     0x2ec4 load address 0x00036d10
                0x20001aa8                . = ALIGN (0x4)
                0x20001aa8                __bss_start__ = .
 *(.bss*)
 .bss           0x20001aa8       0x1c c:/a/gcc_arm/6/bin/../lib/gcc/arm-none-eabi/6.3.1/thumb/v7e-m/fpv4-sp/hard/crtbegin.o
 .bss.m_appkey_handles
                0x20001ac4        0x2 examples/pb_remote/client/CMakeFiles/pb_remote_client_nrf52832_xxAA_s132_3.1.0.dir/src/main.c.obj
 *fill*         0x20001ac6        0x2 
 .bss.m_device_address_handles
                0x20001ac8        0x8 examples/pb_remote/client/CMakeFiles/pb_remote_client_nrf52832_xxAA_s132_3.1.0.dir/src/main.c.obj
 .bss.m_device_state
                0x20001ad0        0x1 examples/pb_remote/client/CMakeFiles/pb_remote_client_nrf52832_xxAA_s132_3.1.0.dir/src/main.c.obj
 *fill*         0x20001ad1        0x3 
 .bss.m_devkey_handles
                0x20001ad4        0xa examples/pb_remote/client/CMakeFiles/pb_remote_client_nrf52832_xxAA_s132_3.1.0.dir/src/main.c.obj
 *fill*         0x20001ade        0x2 
 .bss.m_evt_handler
                0x20001ae0        0x8 examples/pb_remote/client/CMakeFiles/pb_remote_client_nrf52832_xxAA_s132_3.1.0.dir/src/main.c.obj
 .bss.m_netkey_handles
                0x20001ae8        0x2 examples/pb_remote/client/CMakeFiles/pb_remote_client_nrf52832_xxAA_s132_3.1.0.dir/src/main.c.obj
 .bss.m_next_unprov_index
                0x20001aea        0x1 examples/pb_remote/client/CMakeFiles/pb_remote_client_nrf52832_xxAA_s132_3.1.0.dir/src/main.c.obj
 *fill*         0x20001aeb        0x1 
 .bss.m_num_elements_of_last_guy
                0x20001aec        0x2 examples/pb_remote/client/CMakeFiles/pb_remote_client_nrf52832_xxAA_s132_3.1.0.dir/src/main.c.obj
 *fill*         0x20001aee        0x2 
 .bss.m_private_key
                0x20001af0       0x20 examples/pb_remote/client/CMakeFiles/pb_remote_client_nrf52832_xxAA_s132_3.1.0.dir/src/main.c.obj
 .bss.m_prov_ctx
                0x20001b10      0x2fc examples/pb_remote/client/CMakeFiles/pb_remote_client_nrf52832_xxAA_s132_3.1.0.dir/src/main.c.obj
 .bss.m_public_key
                0x20001e0c       0x40 examples/pb_remote/client/CMakeFiles/pb_remote_client_nrf52832_xxAA_s132_3.1.0.dir/src/main.c.obj
 .bss.m_remote_client
                0x20001e4c       0x2c examples/pb_remote/client/CMakeFiles/pb_remote_client_nrf52832_xxAA_s132_3.1.0.dir/src/main.c.obj
 .bss.m_ble_evt_buffer
                0x20001e78       0x4f examples/pb_remote/client/CMakeFiles/pb_remote_client_nrf52832_xxAA_s132_3.1.0.dir/__/__/nrf_mesh_sdk.c.obj
 .bss.m_is_interrupting
                0x20001ec7        0x1 examples/pb_remote/client/CMakeFiles/pb_remote_client_nrf52832_xxAA_s132_3.1.0.dir/__/__/__/models/pb_remote/src/pb_remote_client.c.obj
 .bss.m_packet  0x20001ec8       0x41 examples/pb_remote/client/CMakeFiles/pb_remote_client_nrf52832_xxAA_s132_3.1.0.dir/__/__/__/models/pb_remote/src/pb_remote_client.c.obj
 *fill*         0x20001f09        0x3 
 .bss.m_pbr_client_event_queue
                0x20001f0c       0x14 examples/pb_remote/client/CMakeFiles/pb_remote_client_nrf52832_xxAA_s132_3.1.0.dir/__/__/__/models/pb_remote/src/pb_remote_client.c.obj
 .bss.m_pbr_client_event_queue_buffer
                0x20001f20       0x90 examples/pb_remote/client/CMakeFiles/pb_remote_client_nrf52832_xxAA_s132_3.1.0.dir/__/__/__/models/pb_remote/src/pb_remote_client.c.obj
 .bss.mp_pb_remote_client_model
                0x20001fb0        0x4 examples/pb_remote/client/CMakeFiles/pb_remote_client_nrf52832_xxAA_s132_3.1.0.dir/__/__/__/models/pb_remote/src/pb_remote_client.c.obj
 .bss.m_offload_ecdh
                0x20001fb4        0x1 examples/pb_remote/client/CMakeFiles/pb_remote_client_nrf52832_xxAA_s132_3.1.0.dir/__/__/__/mesh/prov/src/prov_utils.c.obj
 *fill*         0x20001fb5        0x3 
 .bss.mp_bearer_head
                0x20001fb8        0x4 examples/pb_remote/client/CMakeFiles/pb_remote_client_nrf52832_xxAA_s132_3.1.0.dir/__/__/__/mesh/prov/src/prov_bearer_adv.c.obj
 .bss.m_publish_timer
                0x20001fbc       0x18 examples/pb_remote/client/CMakeFiles/pb_remote_client_nrf52832_xxAA_s132_3.1.0.dir/__/__/__/mesh/access/src/access_publish.c.obj
 .bss.m_publish_timer_counter
                0x20001fd4        0x4 examples/pb_remote/client/CMakeFiles/pb_remote_client_nrf52832_xxAA_s132_3.1.0.dir/__/__/__/mesh/access/src/access_publish.c.obj
 .bss.m_publish_timer_running
                0x20001fd8        0x1 examples/pb_remote/client/CMakeFiles/pb_remote_client_nrf52832_xxAA_s132_3.1.0.dir/__/__/__/mesh/access/src/access_publish.c.obj
 .bss.m_timer_resolution
                0x20001fd9        0x1 examples/pb_remote/client/CMakeFiles/pb_remote_client_nrf52832_xxAA_s132_3.1.0.dir/__/__/__/mesh/access/src/access_publish.c.obj
 *fill*         0x20001fda        0x2 
 .bss.mp_publication_list
                0x20001fdc        0x4 examples/pb_remote/client/CMakeFiles/pb_remote_client_nrf52832_xxAA_s132_3.1.0.dir/__/__/__/mesh/access/src/access_publish.c.obj
 .bss.m_element_pool
                0x20001fe0        0x6 examples/pb_remote/client/CMakeFiles/pb_remote_client_nrf52832_xxAA_s132_3.1.0.dir/__/__/__/mesh/access/src/access.c.obj
 *fill*         0x20001fe6        0x2 
 .bss.m_evt_handler
                0x20001fe8        0x8 examples/pb_remote/client/CMakeFiles/pb_remote_client_nrf52832_xxAA_s132_3.1.0.dir/__/__/__/mesh/access/src/access.c.obj
 .bss.m_flash_manager
                0x20001ff0       0x24 examples/pb_remote/client/CMakeFiles/pb_remote_client_nrf52832_xxAA_s132_3.1.0.dir/__/__/__/mesh/access/src/access.c.obj
 .bss.m_flash_not_ready
                0x20002014        0x1 examples/pb_remote/client/CMakeFiles/pb_remote_client_nrf52832_xxAA_s132_3.1.0.dir/__/__/__/mesh/access/src/access.c.obj
 *fill*         0x20002015        0x3 
 .bss.m_model_pool
                0x20002018       0x68 examples/pb_remote/client/CMakeFiles/pb_remote_client_nrf52832_xxAA_s132_3.1.0.dir/__/__/__/mesh/access/src/access.c.obj
 .bss.m_subscription_list_pool
                0x20002080       0x10 examples/pb_remote/client/CMakeFiles/pb_remote_client_nrf52832_xxAA_s132_3.1.0.dir/__/__/__/mesh/access/src/access.c.obj
 .bss.m_reliable
                0x20002090       0x6c examples/pb_remote/client/CMakeFiles/pb_remote_client_nrf52832_xxAA_s132_3.1.0.dir/__/__/__/mesh/access/src/access_reliable.c.obj
 .bss.m_addr_nonvirtual_allocated
                0x200020fc        0x4 examples/pb_remote/client/CMakeFiles/pb_remote_client_nrf52832_xxAA_s132_3.1.0.dir/__/__/__/mesh/access/src/device_state_manager.c.obj
 .bss.m_addr_nonvirtual_needs_flashing
                0x20002100        0x4 examples/pb_remote/client/CMakeFiles/pb_remote_client_nrf52832_xxAA_s132_3.1.0.dir/__/__/__/mesh/access/src/device_state_manager.c.obj
 .bss.m_addr_unicast_allocated
                0x20002104        0x4 examples/pb_remote/client/CMakeFiles/pb_remote_client_nrf52832_xxAA_s132_3.1.0.dir/__/__/__/mesh/access/src/device_state_manager.c.obj
 .bss.m_addr_unicast_needs_flashing
                0x20002108        0x4 examples/pb_remote/client/CMakeFiles/pb_remote_client_nrf52832_xxAA_s132_3.1.0.dir/__/__/__/mesh/access/src/device_state_manager.c.obj
 .bss.m_addr_virtual_allocated
                0x2000210c        0x4 examples/pb_remote/client/CMakeFiles/pb_remote_client_nrf52832_xxAA_s132_3.1.0.dir/__/__/__/mesh/access/src/device_state_manager.c.obj
 .bss.m_addr_virtual_needs_flashing
                0x20002110        0x4 examples/pb_remote/client/CMakeFiles/pb_remote_client_nrf52832_xxAA_s132_3.1.0.dir/__/__/__/mesh/access/src/device_state_manager.c.obj
 .bss.m_addresses
                0x20002114       0x10 examples/pb_remote/client/CMakeFiles/pb_remote_client_nrf52832_xxAA_s132_3.1.0.dir/__/__/__/mesh/access/src/device_state_manager.c.obj
 .bss.m_appkey_allocated
                0x20002124        0x4 examples/pb_remote/client/CMakeFiles/pb_remote_client_nrf52832_xxAA_s132_3.1.0.dir/__/__/__/mesh/access/src/device_state_manager.c.obj
 .bss.m_appkey_needs_flashing
                0x20002128        0x4 examples/pb_remote/client/CMakeFiles/pb_remote_client_nrf52832_xxAA_s132_3.1.0.dir/__/__/__/mesh/access/src/device_state_manager.c.obj
 .bss.m_appkeys
                0x2000212c       0x16 examples/pb_remote/client/CMakeFiles/pb_remote_client_nrf52832_xxAA_s132_3.1.0.dir/__/__/__/mesh/access/src/device_state_manager.c.obj
 *fill*         0x20002142        0x2 
 .bss.m_devkey_allocated
                0x20002144        0x4 examples/pb_remote/client/CMakeFiles/pb_remote_client_nrf52832_xxAA_s132_3.1.0.dir/__/__/__/mesh/access/src/device_state_manager.c.obj
 .bss.m_devkey_needs_flashing
                0x20002148        0x4 examples/pb_remote/client/CMakeFiles/pb_remote_client_nrf52832_xxAA_s132_3.1.0.dir/__/__/__/mesh/access/src/device_state_manager.c.obj
 .bss.m_devkeys
                0x2000214c       0x6e examples/pb_remote/client/CMakeFiles/pb_remote_client_nrf52832_xxAA_s132_3.1.0.dir/__/__/__/mesh/access/src/device_state_manager.c.obj
 .bss.m_flash_is_available
                0x200021ba        0x1 examples/pb_remote/client/CMakeFiles/pb_remote_client_nrf52832_xxAA_s132_3.1.0.dir/__/__/__/mesh/access/src/device_state_manager.c.obj
 *fill*         0x200021bb        0x1 
 .bss.m_flash_manager
                0x200021bc       0x24 examples/pb_remote/client/CMakeFiles/pb_remote_client_nrf52832_xxAA_s132_3.1.0.dir/__/__/__/mesh/access/src/device_state_manager.c.obj
 .bss.m_flash_mem_listener_update_all
                0x200021e0       0x10 examples/pb_remote/client/CMakeFiles/pb_remote_client_nrf52832_xxAA_s132_3.1.0.dir/__/__/__/mesh/access/src/device_state_manager.c.obj
 .bss.m_has_primary_subnet
                0x200021f0        0x1 examples/pb_remote/client/CMakeFiles/pb_remote_client_nrf52832_xxAA_s132_3.1.0.dir/__/__/__/mesh/access/src/device_state_manager.c.obj
 *fill*         0x200021f1        0x3 
 .bss.m_local_unicast_addr
                0x200021f4        0x4 examples/pb_remote/client/CMakeFiles/pb_remote_client_nrf52832_xxAA_s132_3.1.0.dir/__/__/__/mesh/access/src/device_state_manager.c.obj
 .bss.m_subnet_allocated
                0x200021f8        0x4 examples/pb_remote/client/CMakeFiles/pb_remote_client_nrf52832_xxAA_s132_3.1.0.dir/__/__/__/mesh/access/src/device_state_manager.c.obj
 .bss.m_subnet_needs_flashing
                0x200021fc        0x4 examples/pb_remote/client/CMakeFiles/pb_remote_client_nrf52832_xxAA_s132_3.1.0.dir/__/__/__/mesh/access/src/device_state_manager.c.obj
 .bss.m_subnets
                0x20002200       0x5c examples/pb_remote/client/CMakeFiles/pb_remote_client_nrf52832_xxAA_s132_3.1.0.dir/__/__/__/mesh/access/src/device_state_manager.c.obj
 .bss.m_virtual_addresses
                0x2000225c       0x14 examples/pb_remote/client/CMakeFiles/pb_remote_client_nrf52832_xxAA_s132_3.1.0.dir/__/__/__/mesh/access/src/device_state_manager.c.obj
 .bss.m_uuid    0x20002270       0x10 mesh/core/libmesh_core_nrf52832_xxAA.a(nrf_mesh_configure.c.obj)
 .bss.mp_evt_handlers_head
                0x20002280        0x4 mesh/core/libmesh_core_nrf52832_xxAA.a(event.c.obj)
 .bss.lock_count.9764
                0x20002284        0x4 mesh/core/libmesh_core_nrf52832_xxAA.a(net_state.c.obj)
 .bss.m_flash_manager
                0x20002288       0x24 mesh/core/libmesh_core_nrf52832_xxAA.a(net_state.c.obj)
 .bss.m_iv_update_timer
                0x200022ac       0x18 mesh/core/libmesh_core_nrf52832_xxAA.a(net_state.c.obj)
 .bss.m_net_state
                0x200022c4       0x14 mesh/core/libmesh_core_nrf52832_xxAA.a(net_state.c.obj)
 .bss.m_seqnum_allocation_in_progress
                0x200022d8        0x1 mesh/core/libmesh_core_nrf52832_xxAA.a(net_state.c.obj)
 .bss.m_test_mode
                0x200022d9        0x1 mesh/core/libmesh_core_nrf52832_xxAA.a(net_state.c.obj)
 .bss.m_is_enabled
                0x200022da        0x1 mesh/core/libmesh_core_nrf52832_xxAA.a(nrf_mesh.c.obj)
 .bss.m_is_initialized
                0x200022db        0x1 mesh/core/libmesh_core_nrf52832_xxAA.a(nrf_mesh.c.obj)
 .bss.m_rx_cb   0x200022dc        0x4 mesh/core/libmesh_core_nrf52832_xxAA.a(nrf_mesh.c.obj)
 .bss.m_event_flag
                0x200022e0        0x4 mesh/core/libmesh_core_nrf52832_xxAA.a(timer_scheduler.c.obj)
 .bss.m_scheduler
                0x200022e4       0x10 mesh/core/libmesh_core_nrf52832_xxAA.a(timer_scheduler.c.obj)
 .bss.m_attributes
                0x200022f4        0x3 mesh/core/libmesh_core_nrf52832_xxAA.a(timer.c.obj)
 *fill*         0x200022f7        0x1 
 .bss.m_callbacks
                0x200022f8        0xc mesh/core/libmesh_core_nrf52832_xxAA.a(timer.c.obj)
 .bss.m_is_in_ts
                0x20002304        0x1 mesh/core/libmesh_core_nrf52832_xxAA.a(timer.c.obj)
 *fill*         0x20002305        0x3 
 .bss.m_reference_time
                0x20002308        0x4 mesh/core/libmesh_core_nrf52832_xxAA.a(timer.c.obj)
 .bss.m_timeouts
                0x2000230c        0xc mesh/core/libmesh_core_nrf52832_xxAA.a(timer.c.obj)
 .bss.m_timer_mut
                0x20002318        0x4 mesh/core/libmesh_core_nrf52832_xxAA.a(timer.c.obj)
 .bss.m_ts_end_time
                0x2000231c        0x4 mesh/core/libmesh_core_nrf52832_xxAA.a(timer.c.obj)
 .bss.mp_ppi_tasks
                0x20002320        0xc mesh/core/libmesh_core_nrf52832_xxAA.a(timer.c.obj)
 .bss.m_current_time
                0x2000232c        0x4 mesh/core/libmesh_core_nrf52832_xxAA.a(ticker.c.obj)
 .bss.m_timer   0x20002330       0x18 mesh/core/libmesh_core_nrf52832_xxAA.a(ticker.c.obj)
 .bss.m_current_timeslot
                0x20002348       0x1c mesh/core/libmesh_core_nrf52832_xxAA.a(timeslot.c.obj)
 .bss.m_lfclk_ppm
                0x20002364        0x4 mesh/core/libmesh_core_nrf52832_xxAA.a(timeslot.c.obj)
 .bss.m_radio_request_earliest
                0x20002368       0x10 mesh/core/libmesh_core_nrf52832_xxAA.a(timeslot.c.obj)
 .bss.m_state_lock
                0x20002378        0x1 mesh/core/libmesh_core_nrf52832_xxAA.a(timeslot.c.obj)
 .bss.m_timeslot_forced_command
                0x20002379        0x1 mesh/core/libmesh_core_nrf52832_xxAA.a(timeslot.c.obj)
 *fill*         0x2000237a        0x6 
 .bss.s_last_rtc_value.9029
                0x20002380        0x8 mesh/core/libmesh_core_nrf52832_xxAA.a(timeslot.c.obj)
 .bss.m_bearer_event_fifo
                0x20002388       0x14 mesh/core/libmesh_core_nrf52832_xxAA.a(bearer_event.c.obj)
 .bss.m_bearer_event_fifo_buffer
                0x2000239c      0x100 mesh/core/libmesh_core_nrf52832_xxAA.a(bearer_event.c.obj)
 .bss.m_critical
                0x2000249c        0x4 mesh/core/libmesh_core_nrf52832_xxAA.a(bearer_event.c.obj)
 .bss.m_flag_count
                0x200024a0        0x4 mesh/core/libmesh_core_nrf52832_xxAA.a(bearer_event.c.obj)
 .bss.m_flag_event_callbacks
                0x200024a4       0x18 mesh/core/libmesh_core_nrf52832_xxAA.a(bearer_event.c.obj)
 .bss.m_flags   0x200024bc        0x4 mesh/core/libmesh_core_nrf52832_xxAA.a(bearer_event.c.obj)
 .bss.m_sequential_event_queue
                0x200024c0        0x8 mesh/core/libmesh_core_nrf52832_xxAA.a(bearer_event.c.obj)
 .bss.m_relay_check_cb
                0x200024c8        0x4 mesh/core/libmesh_core_nrf52832_xxAA.a(network.c.obj)
 .bss.m_relay_enable
                0x200024cc        0x1 mesh/core/libmesh_core_nrf52832_xxAA.a(network.c.obj)
 *fill*         0x200024cd        0x3 
 .bss.m_action_queue
                0x200024d0        0xc mesh/core/libmesh_core_nrf52832_xxAA.a(flash_manager.c.obj)
 .bss.m_action_queue_buffer
                0x200024dc      0x104 mesh/core/libmesh_core_nrf52832_xxAA.a(flash_manager.c.obj)
 .bss.m_action_state
                0x200025e0        0x1 mesh/core/libmesh_core_nrf52832_xxAA.a(flash_manager.c.obj)
 *fill*         0x200025e1        0x3 
 .bss.m_memory_listener_queue
                0x200025e4        0x8 mesh/core/libmesh_core_nrf52832_xxAA.a(flash_manager.c.obj)
 .bss.m_processing_flag
                0x200025ec        0x4 mesh/core/libmesh_core_nrf52832_xxAA.a(flash_manager.c.obj)
 .bss.m_state   0x200025f0        0x1 mesh/core/libmesh_core_nrf52832_xxAA.a(flash_manager.c.obj)
 *fill*         0x200025f1        0x1 
 .bss.m_token   0x200025f2        0x2 mesh/core/libmesh_core_nrf52832_xxAA.a(flash_manager.c.obj)
 .bss.p_current.10881
                0x200025f4        0x4 mesh/core/libmesh_core_nrf52832_xxAA.a(flash_manager.c.obj)
 .bss.result.10882
                0x200025f8        0x1 mesh/core/libmesh_core_nrf52832_xxAA.a(flash_manager.c.obj)
 *fill*         0x200025f9        0x3 
 .bss.m_adv_buffer
                0x200025fc       0x68 mesh/core/libmesh_core_nrf52832_xxAA.a(beacon.c.obj)
 .bss.m_advertiser
                0x20002664       0x94 mesh/core/libmesh_core_nrf52832_xxAA.a(beacon.c.obj)
 .bss.m_adv_tx_count
                0x200026f8        0x8 mesh/core/libmesh_core_nrf52832_xxAA.a(core_tx.c.obj)
 .bss.m_advertisers
                0x20002700      0x128 mesh/core/libmesh_core_nrf52832_xxAA.a(core_tx.c.obj)
 .bss.m_originator_adv_packet_buffer
                0x20002828      0x100 mesh/core/libmesh_core_nrf52832_xxAA.a(core_tx.c.obj)
 .bss.m_relay_adv_packet_buffer
                0x20002928       0x80 mesh/core/libmesh_core_nrf52832_xxAA.a(core_tx.c.obj)
 .bss.m_tx_complete_callback
                0x200029a8        0x4 mesh/core/libmesh_core_nrf52832_xxAA.a(core_tx.c.obj)
 .bss.m_beacon_salt
                0x200029ac       0x10 mesh/core/libmesh_core_nrf52832_xxAA.a(net_beacon.c.obj)
 .bss.m_enabled
                0x200029bc        0x1 mesh/core/libmesh_core_nrf52832_xxAA.a(net_beacon.c.obj)
 *fill*         0x200029bd        0x3 
 .bss.m_tx_event
                0x200029c0       0x18 mesh/core/libmesh_core_nrf52832_xxAA.a(net_beacon.c.obj)
 .bss.m_adv_prng
                0x200029d8       0x10 mesh/core/libmesh_core_nrf52832_xxAA.a(advertiser.c.obj)
 .bss.m_action_queue
                0x200029e8        0x8 mesh/core/libmesh_core_nrf52832_xxAA.a(bearer_handler.c.obj)
 .bss.m_end_time
                0x200029f0        0x4 mesh/core/libmesh_core_nrf52832_xxAA.a(bearer_handler.c.obj)
 .bss.m_scanner_is_active
                0x200029f4        0x1 mesh/core/libmesh_core_nrf52832_xxAA.a(bearer_handler.c.obj)
 .bss.m_stopped
                0x200029f5        0x1 mesh/core/libmesh_core_nrf52832_xxAA.a(bearer_handler.c.obj)
 *fill*         0x200029f6        0x2 
 .bss.mp_action
                0x200029f8        0x4 mesh/core/libmesh_core_nrf52832_xxAA.a(bearer_handler.c.obj)
 .bss.m_next_channel_index
                0x200029fc        0x1 mesh/core/libmesh_core_nrf52832_xxAA.a(broadcast.c.obj)
 *fill*         0x200029fd        0x3 
 .bss.m_scanner
                0x20002a00      0x284 mesh/core/libmesh_core_nrf52832_xxAA.a(scanner.c.obj)
 .bss.m_internal_event_fifo
                0x20002c84       0x14 mesh/core/libmesh_core_nrf52832_xxAA.a(internal_event.c.obj)
 .bss.m_internal_event_initialized
                0x20002c98        0x1 mesh/core/libmesh_core_nrf52832_xxAA.a(internal_event.c.obj)
 *fill*         0x20002c99        0x3 
 .bss.m_report_cb
                0x20002c9c        0x4 mesh/core/libmesh_core_nrf52832_xxAA.a(internal_event.c.obj)
 .bss.m_msg_cache
                0x20002ca0      0x100 mesh/core/libmesh_core_nrf52832_xxAA.a(msg_cache.c.obj)
 .bss.m_msg_cache_head
                0x20002da0        0x4 mesh/core/libmesh_core_nrf52832_xxAA.a(msg_cache.c.obj)
 .bss.m_sar_alloc
                0x20002da4        0x4 mesh/core/libmesh_core_nrf52832_xxAA.a(transport.c.obj)
 .bss.m_sar_process_flag
                0x20002da8        0x4 mesh/core/libmesh_core_nrf52832_xxAA.a(transport.c.obj)
 .bss.m_sar_release
                0x20002dac        0x4 mesh/core/libmesh_core_nrf52832_xxAA.a(transport.c.obj)
 .bss.m_sar_session_cache
                0x20002db0       0x40 mesh/core/libmesh_core_nrf52832_xxAA.a(transport.c.obj)
 .bss.m_sar_session_cache_head
                0x20002df0        0x4 mesh/core/libmesh_core_nrf52832_xxAA.a(transport.c.obj)
 .bss.m_trs_config
                0x20002df4       0x18 mesh/core/libmesh_core_nrf52832_xxAA.a(transport.c.obj)
 .bss.m_trs_sar_sessions
                0x20002e0c      0x1b0 mesh/core/libmesh_core_nrf52832_xxAA.a(transport.c.obj)
 .bss.m_defrag  0x20002fbc       0x1c mesh/core/libmesh_core_nrf52832_xxAA.a(flash_manager_defrag.c.obj)
 .bss.m_token   0x20002fd8        0x2 mesh/core/libmesh_core_nrf52832_xxAA.a(flash_manager_defrag.c.obj)
 *fill*         0x20002fda        0x2 
 .bss.mp_recovery_area
                0x20002fdc        0x4 mesh/core/libmesh_core_nrf52832_xxAA.a(flash_manager_defrag.c.obj)
 .bss.p_null_ptr.9934
                0x20002fe0        0x4 mesh/core/libmesh_core_nrf52832_xxAA.a(flash_manager_defrag.c.obj)
 .bss.m_pool    0x20002fe4     0x1000 mesh/core/libmesh_core_nrf52832_xxAA.a(packet_mgr.c.obj)
 .bss.mp_free_head
                0x20003fe4        0x4 mesh/core/libmesh_core_nrf52832_xxAA.a(packet_mgr.c.obj)
 .bss.m_event_flag
                0x20003fe8        0x4 mesh/core/libmesh_core_nrf52832_xxAA.a(mesh_flash.c.obj)
 .bss.m_suspended
                0x20003fec        0x1 mesh/core/libmesh_core_nrf52832_xxAA.a(mesh_flash.c.obj)
 *fill*         0x20003fed        0x3 
 .bss.m_users   0x20003ff0      0x228 mesh/core/libmesh_core_nrf52832_xxAA.a(mesh_flash.c.obj)
 .bss.m_128buf  0x20004218       0x10 mesh/core/libmesh_core_nrf52832_xxAA.a(aes_cmac.c.obj)
 .bss.m_subkey1
                0x20004228       0x10 mesh/core/libmesh_core_nrf52832_xxAA.a(aes_cmac.c.obj)
 .bss.m_subkey2
                0x20004238       0x10 mesh/core/libmesh_core_nrf52832_xxAA.a(aes_cmac.c.obj)
 .bss.m_cache_full
                0x20004248        0x1 mesh/core/libmesh_core_nrf52832_xxAA.a(replay_cache.c.obj)
 .bss.m_cache_index
                0x20004249        0x1 mesh/core/libmesh_core_nrf52832_xxAA.a(replay_cache.c.obj)
 *fill*         0x2000424a        0x2 
 .bss.m_replay_cache
                0x2000424c      0x200 mesh/core/libmesh_core_nrf52832_xxAA.a(replay_cache.c.obj)
 .bss.m_accepted_amount
                0x2000444c        0x4 mesh/core/libmesh_core_nrf52832_xxAA.a(filter_engine.c.obj)
 .bss.m_filter_list_head
                0x20004450        0x4 mesh/core/libmesh_core_nrf52832_xxAA.a(filter_engine.c.obj)
 .bss._acDownBuffer
                0x20004454       0x80 external/rtt/librtt_nrf52832_xxAA.a(SEGGER_RTT.c.obj)
 .bss._acUpBuffer
                0x200044d4      0x400 external/rtt/librtt_nrf52832_xxAA.a(SEGGER_RTT.c.obj)
 .bss.__malloc_free_list
                0x200048d4        0x4 c:/a/gcc_arm/6/bin/../lib/gcc/arm-none-eabi/6.3.1/../../../../arm-none-eabi/lib/thumb/v7e-m/fpv4-sp/hard\libc_nano.a(lib_a-nano-mallocr.o)
                0x200048d4                __malloc_free_list
 .bss.__malloc_sbrk_start
                0x200048d8        0x4 c:/a/gcc_arm/6/bin/../lib/gcc/arm-none-eabi/6.3.1/../../../../arm-none-eabi/lib/thumb/v7e-m/fpv4-sp/hard\libc_nano.a(lib_a-nano-mallocr.o)
                0x200048d8                __malloc_sbrk_start
 .bss.heap_end.5239
                0x200048dc        0x4 c:/a/gcc_arm/6/bin/../lib/gcc/arm-none-eabi/6.3.1/../../../../arm-none-eabi/lib/thumb/v7e-m/fpv4-sp/hard\libnosys.a(sbrk.o)
 *(COMMON)
 COMMON         0x200048e0        0xc examples/pb_remote/client/CMakeFiles/pb_remote_client_nrf52832_xxAA_s132_3.1.0.dir/__/__/nrf_mesh_sdk.c.obj
                0x200048e0                nrf_nvic_state
 COMMON         0x200048ec        0x4 mesh/core/libmesh_core_nrf52832_xxAA.a(nrf_mesh.c.obj)
                0x200048ec                m_assertion_handler
 COMMON         0x200048f0       0x78 external/rtt/librtt_nrf52832_xxAA.a(SEGGER_RTT.c.obj)
                0x200048f0                _SEGGER_RTT
 COMMON         0x20004968        0x4 c:/a/gcc_arm/6/bin/../lib/gcc/arm-none-eabi/6.3.1/../../../../arm-none-eabi/lib/thumb/v7e-m/fpv4-sp/hard\libc_nano.a(lib_a-reent.o)
                0x20004968                errno
                0x2000496c                . = ALIGN (0x4)
                0x2000496c                __bss_end__ = .

.heap           0x20004970     0x2000
                0x20004970                __HeapBase = .
                0x20004970                __end__ = .
                0x20004970                PROVIDE (end, .)
 *(.heap*)
 .heap          0x20004970     0x2000 examples/pb_remote/client/CMakeFiles/pb_remote_client_nrf52832_xxAA_s132_3.1.0.dir/__/__/__/external/nRF5_SDK_14.0.0_3bcc1f7/components/toolchain/gcc/gcc_startup_nrf52.S.obj
                0x20006970                __HeapLimit = .

.stack_dummy    0x20004970     0x2000
 *(.stack*)
 .stack         0x20004970     0x2000 examples/pb_remote/client/CMakeFiles/pb_remote_client_nrf52832_xxAA_s132_3.1.0.dir/__/__/__/external/nRF5_SDK_14.0.0_3bcc1f7/components/toolchain/gcc/gcc_startup_nrf52.S.obj
                0x20010000                __StackTop = (ORIGIN (RAM) + LENGTH (RAM))
                0x2000e000                __StackLimit = (__StackTop - SIZEOF (.stack_dummy))
                0x20010000                PROVIDE (__stack, __StackTop)
                0x00000001                ASSERT ((__StackLimit >= __HeapLimit), region RAM overflowed with stack)
OUTPUT(examples\pb_remote\client\pb_remote_client_nrf52832_xxAA_s132_3.1.0.elf elf32-littlearm)

.ARM.attributes
                0x00000000       0x30
 .ARM.attributes
                0x00000000       0x22 c:/a/gcc_arm/6/bin/../lib/gcc/arm-none-eabi/6.3.1/thumb/v7e-m/fpv4-sp/hard/crti.o
 .ARM.attributes
                0x00000022       0x34 c:/a/gcc_arm/6/bin/../lib/gcc/arm-none-eabi/6.3.1/thumb/v7e-m/fpv4-sp/hard/crtbegin.o
 .ARM.attributes
                0x00000056       0x20 c:/a/gcc_arm/6/bin/../lib/gcc/arm-none-eabi/6.3.1/../../../../arm-none-eabi/lib/thumb/v7e-m/fpv4-sp/hard/crt0.o
 .ARM.attributes
                0x00000076       0x39 examples/pb_remote/client/CMakeFiles/pb_remote_client_nrf52832_xxAA_s132_3.1.0.dir/src/main.c.obj
 .ARM.attributes
                0x000000af       0x39 examples/pb_remote/client/CMakeFiles/pb_remote_client_nrf52832_xxAA_s132_3.1.0.dir/__/__/nrf_mesh_sdk.c.obj
 .ARM.attributes
                0x000000e8       0x39 examples/pb_remote/client/CMakeFiles/pb_remote_client_nrf52832_xxAA_s132_3.1.0.dir/__/__/__/models/pb_remote/src/pb_remote_client.c.obj
 .ARM.attributes
                0x00000121       0x39 examples/pb_remote/client/CMakeFiles/pb_remote_client_nrf52832_xxAA_s132_3.1.0.dir/__/__/__/mesh/prov/src/prov_provisioner.c.obj
 .ARM.attributes
                0x0000015a       0x39 examples/pb_remote/client/CMakeFiles/pb_remote_client_nrf52832_xxAA_s132_3.1.0.dir/__/__/__/mesh/prov/src/nrf_mesh_prov.c.obj
 .ARM.attributes
                0x00000193       0x39 examples/pb_remote/client/CMakeFiles/pb_remote_client_nrf52832_xxAA_s132_3.1.0.dir/__/__/__/mesh/prov/src/provisioning.c.obj
 .ARM.attributes
                0x000001cc       0x39 examples/pb_remote/client/CMakeFiles/pb_remote_client_nrf52832_xxAA_s132_3.1.0.dir/__/__/__/mesh/prov/src/prov_beacon.c.obj
 .ARM.attributes
                0x00000205       0x39 examples/pb_remote/client/CMakeFiles/pb_remote_client_nrf52832_xxAA_s132_3.1.0.dir/__/__/__/mesh/prov/src/prov_utils.c.obj
 .ARM.attributes
                0x0000023e       0x39 examples/pb_remote/client/CMakeFiles/pb_remote_client_nrf52832_xxAA_s132_3.1.0.dir/__/__/__/mesh/prov/src/prov_bearer_adv.c.obj
 .ARM.attributes
                0x00000277       0x39 examples/pb_remote/client/CMakeFiles/pb_remote_client_nrf52832_xxAA_s132_3.1.0.dir/__/__/__/mesh/access/src/access_publish.c.obj
 .ARM.attributes
                0x000002b0       0x39 examples/pb_remote/client/CMakeFiles/pb_remote_client_nrf52832_xxAA_s132_3.1.0.dir/__/__/__/mesh/access/src/access.c.obj
 .ARM.attributes
                0x000002e9       0x39 examples/pb_remote/client/CMakeFiles/pb_remote_client_nrf52832_xxAA_s132_3.1.0.dir/__/__/__/mesh/access/src/access_reliable.c.obj
 .ARM.attributes
                0x00000322       0x39 examples/pb_remote/client/CMakeFiles/pb_remote_client_nrf52832_xxAA_s132_3.1.0.dir/__/__/__/mesh/access/src/device_state_manager.c.obj
 .ARM.attributes
                0x0000035b       0x39 examples/pb_remote/client/CMakeFiles/pb_remote_client_nrf52832_xxAA_s132_3.1.0.dir/__/__/nrf_mesh_weak.c.obj
 .ARM.attributes
                0x00000394       0x39 examples/pb_remote/client/CMakeFiles/pb_remote_client_nrf52832_xxAA_s132_3.1.0.dir/__/__/__/external/nRF5_SDK_14.0.0_3bcc1f7/components/toolchain/system_nrf52.c.obj
 .ARM.attributes
                0x000003cd       0x20 examples/pb_remote/client/CMakeFiles/pb_remote_client_nrf52832_xxAA_s132_3.1.0.dir/__/__/__/external/nRF5_SDK_14.0.0_3bcc1f7/components/toolchain/gcc/gcc_startup_nrf52.S.obj
 .ARM.attributes
                0x000003ed       0x39 mesh/core/libmesh_core_nrf52832_xxAA.a(nrf_mesh_configure.c.obj)
 .ARM.attributes
                0x00000426       0x39 mesh/core/libmesh_core_nrf52832_xxAA.a(event.c.obj)
 .ARM.attributes
                0x0000045f       0x39 mesh/core/libmesh_core_nrf52832_xxAA.a(fifo.c.obj)
 .ARM.attributes
                0x00000498       0x39 mesh/core/libmesh_core_nrf52832_xxAA.a(net_state.c.obj)
 .ARM.attributes
                0x000004d1       0x39 mesh/core/libmesh_core_nrf52832_xxAA.a(nrf_mesh_utils.c.obj)
 .ARM.attributes
                0x0000050a       0x39 mesh/core/libmesh_core_nrf52832_xxAA.a(nrf_mesh.c.obj)
 .ARM.attributes
                0x00000543       0x39 mesh/core/libmesh_core_nrf52832_xxAA.a(hal.c.obj)
 .ARM.attributes
                0x0000057c       0x39 mesh/core/libmesh_core_nrf52832_xxAA.a(timer_scheduler.c.obj)
 .ARM.attributes
                0x000005b5       0x39 mesh/core/libmesh_core_nrf52832_xxAA.a(timer.c.obj)
 .ARM.attributes
                0x000005ee       0x39 mesh/core/libmesh_core_nrf52832_xxAA.a(ticker.c.obj)
 .ARM.attributes
                0x00000627       0x39 mesh/core/libmesh_core_nrf52832_xxAA.a(rand.c.obj)
 .ARM.attributes
                0x00000660       0x39 mesh/core/libmesh_core_nrf52832_xxAA.a(timeslot.c.obj)
 .ARM.attributes
                0x00000699       0x39 mesh/core/libmesh_core_nrf52832_xxAA.a(bearer_event.c.obj)
 .ARM.attributes
                0x000006d2       0x39 mesh/core/libmesh_core_nrf52832_xxAA.a(enc.c.obj)
 .ARM.attributes
                0x0000070b       0x39 mesh/core/libmesh_core_nrf52832_xxAA.a(network.c.obj)
 .ARM.attributes
                0x00000744       0x39 mesh/core/libmesh_core_nrf52832_xxAA.a(nrf_mesh_keygen.c.obj)
 .ARM.attributes
                0x0000077d       0x39 mesh/core/libmesh_core_nrf52832_xxAA.a(log.c.obj)
 .ARM.attributes
                0x000007b6       0x39 mesh/core/libmesh_core_nrf52832_xxAA.a(flash_manager.c.obj)
 .ARM.attributes
                0x000007ef       0x39 mesh/core/libmesh_core_nrf52832_xxAA.a(ccm_soft.c.obj)
 .ARM.attributes
                0x00000828       0x39 mesh/core/libmesh_core_nrf52832_xxAA.a(beacon.c.obj)
 .ARM.attributes
                0x00000861       0x39 mesh/core/libmesh_core_nrf52832_xxAA.a(flash_manager_internal.c.obj)
 .ARM.attributes
                0x0000089a       0x39 mesh/core/libmesh_core_nrf52832_xxAA.a(core_tx.c.obj)
 .ARM.attributes
                0x000008d3       0x39 mesh/core/libmesh_core_nrf52832_xxAA.a(net_beacon.c.obj)
 .ARM.attributes
                0x0000090c       0x39 mesh/core/libmesh_core_nrf52832_xxAA.a(advertiser.c.obj)
 .ARM.attributes
                0x00000945       0x39 mesh/core/libmesh_core_nrf52832_xxAA.a(bearer_handler.c.obj)
 .ARM.attributes
                0x0000097e       0x39 mesh/core/libmesh_core_nrf52832_xxAA.a(broadcast.c.obj)
 .ARM.attributes
                0x000009b7       0x39 mesh/core/libmesh_core_nrf52832_xxAA.a(radio_config.c.obj)
 .ARM.attributes
                0x000009f0       0x39 mesh/core/libmesh_core_nrf52832_xxAA.a(scanner.c.obj)
 .ARM.attributes
                0x00000a29       0x39 mesh/core/libmesh_core_nrf52832_xxAA.a(internal_event.c.obj)
 .ARM.attributes
                0x00000a62       0x39 mesh/core/libmesh_core_nrf52832_xxAA.a(aes.c.obj)
 .ARM.attributes
                0x00000a9b       0x39 mesh/core/libmesh_core_nrf52832_xxAA.a(msg_cache.c.obj)
 .ARM.attributes
                0x00000ad4       0x39 mesh/core/libmesh_core_nrf52832_xxAA.a(transport.c.obj)
 .ARM.attributes
                0x00000b0d       0x39 mesh/core/libmesh_core_nrf52832_xxAA.a(packet_buffer.c.obj)
 .ARM.attributes
                0x00000b46       0x39 mesh/core/libmesh_core_nrf52832_xxAA.a(flash_manager_defrag.c.obj)
 .ARM.attributes
                0x00000b7f       0x39 mesh/core/libmesh_core_nrf52832_xxAA.a(packet_mgr.c.obj)
 .ARM.attributes
                0x00000bb8       0x39 mesh/core/libmesh_core_nrf52832_xxAA.a(mesh_flash.c.obj)
 .ARM.attributes
                0x00000bf1       0x39 mesh/core/libmesh_core_nrf52832_xxAA.a(queue.c.obj)
 .ARM.attributes
                0x00000c2a       0x39 mesh/core/libmesh_core_nrf52832_xxAA.a(aes_cmac.c.obj)
 .ARM.attributes
                0x00000c63       0x39 mesh/core/libmesh_core_nrf52832_xxAA.a(msqueue.c.obj)
 .ARM.attributes
                0x00000c9c       0x39 mesh/core/libmesh_core_nrf52832_xxAA.a(replay_cache.c.obj)
 .ARM.attributes
                0x00000cd5       0x39 mesh/core/libmesh_core_nrf52832_xxAA.a(filter_engine.c.obj)
 .ARM.attributes
                0x00000d0e       0x39 mesh/core/libmesh_core_nrf52832_xxAA.a(nrf_flash.c.obj)
 .ARM.attributes
                0x00000d47       0x39 external/rtt/librtt_nrf52832_xxAA.a(SEGGER_RTT.c.obj)
 .ARM.attributes
                0x00000d80       0x39 external/rtt/librtt_nrf52832_xxAA.a(SEGGER_RTT_printf.c.obj)
 .ARM.attributes
                0x00000db9       0x39 external/micro-ecc/libuECC_nrf52832_xxAA.a(uECC.c.obj)
 .ARM.attributes
                0x00000df2       0x34 c:/a/gcc_arm/6/bin/../lib/gcc/arm-none-eabi/6.3.1/../../../../arm-none-eabi/lib/thumb/v7e-m/fpv4-sp/hard\libc_nano.a(lib_a-exit.o)
 .ARM.attributes
                0x00000e26       0x34 c:/a/gcc_arm/6/bin/../lib/gcc/arm-none-eabi/6.3.1/../../../../arm-none-eabi/lib/thumb/v7e-m/fpv4-sp/hard\libc_nano.a(lib_a-impure.o)
 .ARM.attributes
                0x00000e5a       0x34 c:/a/gcc_arm/6/bin/../lib/gcc/arm-none-eabi/6.3.1/../../../../arm-none-eabi/lib/thumb/v7e-m/fpv4-sp/hard\libc_nano.a(lib_a-init.o)
 .ARM.attributes
                0x00000e8e       0x34 c:/a/gcc_arm/6/bin/../lib/gcc/arm-none-eabi/6.3.1/../../../../arm-none-eabi/lib/thumb/v7e-m/fpv4-sp/hard\libc_nano.a(lib_a-malloc.o)
 .ARM.attributes
                0x00000ec2       0x34 c:/a/gcc_arm/6/bin/../lib/gcc/arm-none-eabi/6.3.1/../../../../arm-none-eabi/lib/thumb/v7e-m/fpv4-sp/hard\libc_nano.a(lib_a-memcmp.o)
 .ARM.attributes
                0x00000ef6       0x34 c:/a/gcc_arm/6/bin/../lib/gcc/arm-none-eabi/6.3.1/../../../../arm-none-eabi/lib/thumb/v7e-m/fpv4-sp/hard\libc_nano.a(lib_a-memcpy-stub.o)
 .ARM.attributes
                0x00000f2a       0x34 c:/a/gcc_arm/6/bin/../lib/gcc/arm-none-eabi/6.3.1/../../../../arm-none-eabi/lib/thumb/v7e-m/fpv4-sp/hard\libc_nano.a(lib_a-memset.o)
 .ARM.attributes
                0x00000f5e       0x34 c:/a/gcc_arm/6/bin/../lib/gcc/arm-none-eabi/6.3.1/../../../../arm-none-eabi/lib/thumb/v7e-m/fpv4-sp/hard\libc_nano.a(lib_a-nano-freer.o)
 .ARM.attributes
                0x00000f92       0x34 c:/a/gcc_arm/6/bin/../lib/gcc/arm-none-eabi/6.3.1/../../../../arm-none-eabi/lib/thumb/v7e-m/fpv4-sp/hard\libc_nano.a(lib_a-nano-mallocr.o)
 .ARM.attributes
                0x00000fc6       0x34 c:/a/gcc_arm/6/bin/../lib/gcc/arm-none-eabi/6.3.1/../../../../arm-none-eabi/lib/thumb/v7e-m/fpv4-sp/hard\libc_nano.a(lib_a-sbrkr.o)
 .ARM.attributes
                0x00000ffa       0x34 c:/a/gcc_arm/6/bin/../lib/gcc/arm-none-eabi/6.3.1/../../../../arm-none-eabi/lib/thumb/v7e-m/fpv4-sp/hard\libc_nano.a(lib_a-strcpy.o)
 .ARM.attributes
                0x0000102e       0x1b c:/a/gcc_arm/6/bin/../lib/gcc/arm-none-eabi/6.3.1/../../../../arm-none-eabi/lib/thumb/v7e-m/fpv4-sp/hard\libc_nano.a(lib_a-strlen.o)
 .ARM.attributes
                0x00001049       0x34 c:/a/gcc_arm/6/bin/../lib/gcc/arm-none-eabi/6.3.1/../../../../arm-none-eabi/lib/thumb/v7e-m/fpv4-sp/hard\libc_nano.a(lib_a-strrchr.o)
 .ARM.attributes
                0x0000107d       0x34 c:/a/gcc_arm/6/bin/../lib/gcc/arm-none-eabi/6.3.1/../../../../arm-none-eabi/lib/thumb/v7e-m/fpv4-sp/hard\libc_nano.a(lib_a-mlock.o)
 .ARM.attributes
                0x000010b1       0x34 c:/a/gcc_arm/6/bin/../lib/gcc/arm-none-eabi/6.3.1/../../../../arm-none-eabi/lib/thumb/v7e-m/fpv4-sp/hard\libc_nano.a(lib_a-reent.o)
 .ARM.attributes
                0x000010e5       0x34 c:/a/gcc_arm/6/bin/../lib/gcc/arm-none-eabi/6.3.1/../../../../arm-none-eabi/lib/thumb/v7e-m/fpv4-sp/hard\libc_nano.a(lib_a-strchr.o)
 .ARM.attributes
                0x00001119       0x34 c:/a/gcc_arm/6/bin/../lib/gcc/arm-none-eabi/6.3.1/thumb/v7e-m/fpv4-sp/hard/crtend.o
 .ARM.attributes
                0x0000114d       0x22 c:/a/gcc_arm/6/bin/../lib/gcc/arm-none-eabi/6.3.1/thumb/v7e-m/fpv4-sp/hard/crtn.o
 .ARM.attributes
                0x0000116f       0x34 c:/a/gcc_arm/6/bin/../lib/gcc/arm-none-eabi/6.3.1/../../../../arm-none-eabi/lib/thumb/v7e-m/fpv4-sp/hard\libnosys.a(sbrk.o)
 .ARM.attributes
                0x000011a3       0x34 c:/a/gcc_arm/6/bin/../lib/gcc/arm-none-eabi/6.3.1/../../../../arm-none-eabi/lib/thumb/v7e-m/fpv4-sp/hard\libnosys.a(_exit.o)

.comment        0x00000000       0x7f
 .comment       0x00000000       0x7f examples/pb_remote/client/CMakeFiles/pb_remote_client_nrf52832_xxAA_s132_3.1.0.dir/src/main.c.obj
                                 0x80 (size before relaxing)
 .comment       0x0000007f       0x80 examples/pb_remote/client/CMakeFiles/pb_remote_client_nrf52832_xxAA_s132_3.1.0.dir/__/__/nrf_mesh_sdk.c.obj
 .comment       0x0000007f       0x80 examples/pb_remote/client/CMakeFiles/pb_remote_client_nrf52832_xxAA_s132_3.1.0.dir/__/__/__/models/pb_remote/src/pb_remote_client.c.obj
 .comment       0x0000007f       0x80 examples/pb_remote/client/CMakeFiles/pb_remote_client_nrf52832_xxAA_s132_3.1.0.dir/__/__/__/mesh/prov/src/prov_provisioner.c.obj
 .comment       0x0000007f       0x80 examples/pb_remote/client/CMakeFiles/pb_remote_client_nrf52832_xxAA_s132_3.1.0.dir/__/__/__/mesh/prov/src/nrf_mesh_prov.c.obj
 .comment       0x0000007f       0x80 examples/pb_remote/client/CMakeFiles/pb_remote_client_nrf52832_xxAA_s132_3.1.0.dir/__/__/__/mesh/prov/src/provisioning.c.obj
 .comment       0x0000007f       0x80 examples/pb_remote/client/CMakeFiles/pb_remote_client_nrf52832_xxAA_s132_3.1.0.dir/__/__/__/mesh/prov/src/prov_beacon.c.obj
 .comment       0x0000007f       0x80 examples/pb_remote/client/CMakeFiles/pb_remote_client_nrf52832_xxAA_s132_3.1.0.dir/__/__/__/mesh/prov/src/prov_utils.c.obj
 .comment       0x0000007f       0x80 examples/pb_remote/client/CMakeFiles/pb_remote_client_nrf52832_xxAA_s132_3.1.0.dir/__/__/__/mesh/prov/src/prov_bearer_adv.c.obj
 .comment       0x0000007f       0x80 examples/pb_remote/client/CMakeFiles/pb_remote_client_nrf52832_xxAA_s132_3.1.0.dir/__/__/__/mesh/access/src/access_publish.c.obj
 .comment       0x0000007f       0x80 examples/pb_remote/client/CMakeFiles/pb_remote_client_nrf52832_xxAA_s132_3.1.0.dir/__/__/__/mesh/access/src/access.c.obj
 .comment       0x0000007f       0x80 examples/pb_remote/client/CMakeFiles/pb_remote_client_nrf52832_xxAA_s132_3.1.0.dir/__/__/__/mesh/access/src/access_reliable.c.obj
 .comment       0x0000007f       0x80 examples/pb_remote/client/CMakeFiles/pb_remote_client_nrf52832_xxAA_s132_3.1.0.dir/__/__/__/mesh/access/src/device_state_manager.c.obj
 .comment       0x0000007f       0x80 examples/pb_remote/client/CMakeFiles/pb_remote_client_nrf52832_xxAA_s132_3.1.0.dir/__/__/nrf_mesh_weak.c.obj
 .comment       0x0000007f       0x80 examples/pb_remote/client/CMakeFiles/pb_remote_client_nrf52832_xxAA_s132_3.1.0.dir/__/__/__/external/nRF5_SDK_14.0.0_3bcc1f7/components/toolchain/system_nrf52.c.obj
 .comment       0x0000007f       0x80 mesh/core/libmesh_core_nrf52832_xxAA.a(nrf_mesh_configure.c.obj)
 .comment       0x0000007f       0x80 mesh/core/libmesh_core_nrf52832_xxAA.a(event.c.obj)
 .comment       0x0000007f       0x80 mesh/core/libmesh_core_nrf52832_xxAA.a(fifo.c.obj)
 .comment       0x0000007f       0x80 mesh/core/libmesh_core_nrf52832_xxAA.a(net_state.c.obj)
 .comment       0x0000007f       0x80 mesh/core/libmesh_core_nrf52832_xxAA.a(nrf_mesh_utils.c.obj)
 .comment       0x0000007f       0x80 mesh/core/libmesh_core_nrf52832_xxAA.a(nrf_mesh.c.obj)
 .comment       0x0000007f       0x80 mesh/core/libmesh_core_nrf52832_xxAA.a(hal.c.obj)
 .comment       0x0000007f       0x80 mesh/core/libmesh_core_nrf52832_xxAA.a(timer_scheduler.c.obj)
 .comment       0x0000007f       0x80 mesh/core/libmesh_core_nrf52832_xxAA.a(timer.c.obj)
 .comment       0x0000007f       0x80 mesh/core/libmesh_core_nrf52832_xxAA.a(ticker.c.obj)
 .comment       0x0000007f       0x80 mesh/core/libmesh_core_nrf52832_xxAA.a(rand.c.obj)
 .comment       0x0000007f       0x80 mesh/core/libmesh_core_nrf52832_xxAA.a(timeslot.c.obj)
 .comment       0x0000007f       0x80 mesh/core/libmesh_core_nrf52832_xxAA.a(bearer_event.c.obj)
 .comment       0x0000007f       0x80 mesh/core/libmesh_core_nrf52832_xxAA.a(enc.c.obj)
 .comment       0x0000007f       0x80 mesh/core/libmesh_core_nrf52832_xxAA.a(network.c.obj)
 .comment       0x0000007f       0x80 mesh/core/libmesh_core_nrf52832_xxAA.a(nrf_mesh_keygen.c.obj)
 .comment       0x0000007f       0x80 mesh/core/libmesh_core_nrf52832_xxAA.a(log.c.obj)
 .comment       0x0000007f       0x80 mesh/core/libmesh_core_nrf52832_xxAA.a(flash_manager.c.obj)
 .comment       0x0000007f       0x80 mesh/core/libmesh_core_nrf52832_xxAA.a(ccm_soft.c.obj)
 .comment       0x0000007f       0x80 mesh/core/libmesh_core_nrf52832_xxAA.a(beacon.c.obj)
 .comment       0x0000007f       0x80 mesh/core/libmesh_core_nrf52832_xxAA.a(flash_manager_internal.c.obj)
 .comment       0x0000007f       0x80 mesh/core/libmesh_core_nrf52832_xxAA.a(core_tx.c.obj)
 .comment       0x0000007f       0x80 mesh/core/libmesh_core_nrf52832_xxAA.a(net_beacon.c.obj)
 .comment       0x0000007f       0x80 mesh/core/libmesh_core_nrf52832_xxAA.a(advertiser.c.obj)
 .comment       0x0000007f       0x80 mesh/core/libmesh_core_nrf52832_xxAA.a(bearer_handler.c.obj)
 .comment       0x0000007f       0x80 mesh/core/libmesh_core_nrf52832_xxAA.a(broadcast.c.obj)
 .comment       0x0000007f       0x80 mesh/core/libmesh_core_nrf52832_xxAA.a(radio_config.c.obj)
 .comment       0x0000007f       0x80 mesh/core/libmesh_core_nrf52832_xxAA.a(scanner.c.obj)
 .comment       0x0000007f       0x80 mesh/core/libmesh_core_nrf52832_xxAA.a(internal_event.c.obj)
 .comment       0x0000007f       0x80 mesh/core/libmesh_core_nrf52832_xxAA.a(aes.c.obj)
 .comment       0x0000007f       0x80 mesh/core/libmesh_core_nrf52832_xxAA.a(msg_cache.c.obj)
 .comment       0x0000007f       0x80 mesh/core/libmesh_core_nrf52832_xxAA.a(transport.c.obj)
 .comment       0x0000007f       0x80 mesh/core/libmesh_core_nrf52832_xxAA.a(packet_buffer.c.obj)
 .comment       0x0000007f       0x80 mesh/core/libmesh_core_nrf52832_xxAA.a(flash_manager_defrag.c.obj)
 .comment       0x0000007f       0x80 mesh/core/libmesh_core_nrf52832_xxAA.a(packet_mgr.c.obj)
 .comment       0x0000007f       0x80 mesh/core/libmesh_core_nrf52832_xxAA.a(mesh_flash.c.obj)
 .comment       0x0000007f       0x80 mesh/core/libmesh_core_nrf52832_xxAA.a(queue.c.obj)
 .comment       0x0000007f       0x80 mesh/core/libmesh_core_nrf52832_xxAA.a(aes_cmac.c.obj)
 .comment       0x0000007f       0x80 mesh/core/libmesh_core_nrf52832_xxAA.a(msqueue.c.obj)
 .comment       0x0000007f       0x80 mesh/core/libmesh_core_nrf52832_xxAA.a(replay_cache.c.obj)
 .comment       0x0000007f       0x80 mesh/core/libmesh_core_nrf52832_xxAA.a(filter_engine.c.obj)
 .comment       0x0000007f       0x80 mesh/core/libmesh_core_nrf52832_xxAA.a(nrf_flash.c.obj)
 .comment       0x0000007f       0x80 external/rtt/librtt_nrf52832_xxAA.a(SEGGER_RTT.c.obj)
 .comment       0x0000007f       0x80 external/rtt/librtt_nrf52832_xxAA.a(SEGGER_RTT_printf.c.obj)
 .comment       0x0000007f       0x80 external/micro-ecc/libuECC_nrf52832_xxAA.a(uECC.c.obj)

.debug_frame    0x00000000      0x2c4
 .debug_frame   0x00000000       0x28 c:/a/gcc_arm/6/bin/../lib/gcc/arm-none-eabi/6.3.1/../../../../arm-none-eabi/lib/thumb/v7e-m/fpv4-sp/hard\libc_nano.a(lib_a-exit.o)
 .debug_frame   0x00000028       0x2c c:/a/gcc_arm/6/bin/../lib/gcc/arm-none-eabi/6.3.1/../../../../arm-none-eabi/lib/thumb/v7e-m/fpv4-sp/hard\libc_nano.a(lib_a-init.o)
 .debug_frame   0x00000054       0x30 c:/a/gcc_arm/6/bin/../lib/gcc/arm-none-eabi/6.3.1/../../../../arm-none-eabi/lib/thumb/v7e-m/fpv4-sp/hard\libc_nano.a(lib_a-malloc.o)
 .debug_frame   0x00000084       0x28 c:/a/gcc_arm/6/bin/../lib/gcc/arm-none-eabi/6.3.1/../../../../arm-none-eabi/lib/thumb/v7e-m/fpv4-sp/hard\libc_nano.a(lib_a-memcmp.o)
 .debug_frame   0x000000ac       0x28 c:/a/gcc_arm/6/bin/../lib/gcc/arm-none-eabi/6.3.1/../../../../arm-none-eabi/lib/thumb/v7e-m/fpv4-sp/hard\libc_nano.a(lib_a-memcpy-stub.o)
 .debug_frame   0x000000d4       0x20 c:/a/gcc_arm/6/bin/../lib/gcc/arm-none-eabi/6.3.1/../../../../arm-none-eabi/lib/thumb/v7e-m/fpv4-sp/hard\libc_nano.a(lib_a-memset.o)
 .debug_frame   0x000000f4       0x38 c:/a/gcc_arm/6/bin/../lib/gcc/arm-none-eabi/6.3.1/../../../../arm-none-eabi/lib/thumb/v7e-m/fpv4-sp/hard\libc_nano.a(lib_a-nano-freer.o)
 .debug_frame   0x0000012c       0x2c c:/a/gcc_arm/6/bin/../lib/gcc/arm-none-eabi/6.3.1/../../../../arm-none-eabi/lib/thumb/v7e-m/fpv4-sp/hard\libc_nano.a(lib_a-nano-mallocr.o)
 .debug_frame   0x00000158       0x2c c:/a/gcc_arm/6/bin/../lib/gcc/arm-none-eabi/6.3.1/../../../../arm-none-eabi/lib/thumb/v7e-m/fpv4-sp/hard\libc_nano.a(lib_a-sbrkr.o)
 .debug_frame   0x00000184       0x20 c:/a/gcc_arm/6/bin/../lib/gcc/arm-none-eabi/6.3.1/../../../../arm-none-eabi/lib/thumb/v7e-m/fpv4-sp/hard\libc_nano.a(lib_a-strcpy.o)
 .debug_frame   0x000001a4       0x34 c:/a/gcc_arm/6/bin/../lib/gcc/arm-none-eabi/6.3.1/../../../../arm-none-eabi/lib/thumb/v7e-m/fpv4-sp/hard\libc_nano.a(lib_a-strrchr.o)
 .debug_frame   0x000001d8       0x30 c:/a/gcc_arm/6/bin/../lib/gcc/arm-none-eabi/6.3.1/../../../../arm-none-eabi/lib/thumb/v7e-m/fpv4-sp/hard\libc_nano.a(lib_a-mlock.o)
 .debug_frame   0x00000208       0x5c c:/a/gcc_arm/6/bin/../lib/gcc/arm-none-eabi/6.3.1/../../../../arm-none-eabi/lib/thumb/v7e-m/fpv4-sp/hard\libc_nano.a(lib_a-reent.o)
 .debug_frame   0x00000264       0x20 c:/a/gcc_arm/6/bin/../lib/gcc/arm-none-eabi/6.3.1/../../../../arm-none-eabi/lib/thumb/v7e-m/fpv4-sp/hard\libc_nano.a(lib_a-strchr.o)
 .debug_frame   0x00000284       0x20 c:/a/gcc_arm/6/bin/../lib/gcc/arm-none-eabi/6.3.1/../../../../arm-none-eabi/lib/thumb/v7e-m/fpv4-sp/hard\libnosys.a(sbrk.o)
 .debug_frame   0x000002a4       0x20 c:/a/gcc_arm/6/bin/../lib/gcc/arm-none-eabi/6.3.1/../../../../arm-none-eabi/lib/thumb/v7e-m/fpv4-sp/hard\libnosys.a(_exit.o)
