Archive member included to satisfy reference by file (symbol)

mesh/core/libmesh_core_nrf52840_xxAA.a(internal_event.c.obj)
                              examples/serial/CMakeFiles/serial_nrf52840_xxAA_s140_5.0.0-3.alpha.dir/__/__/mesh/serial/src/serial_handler_device.c.obj (internal_event_init)
mesh/core/libmesh_core_nrf52840_xxAA.a(nrf_mesh_configure.c.obj)
                              examples/serial/CMakeFiles/serial_nrf52840_xxAA_s140_5.0.0-3.alpha.dir/__/__/mesh/serial/src/serial_handler_config.c.obj (nrf_mesh_configure_device_uuid_set)
mesh/core/libmesh_core_nrf52840_xxAA.a(event.c.obj)
                              examples/serial/CMakeFiles/serial_nrf52840_xxAA_s140_5.0.0-3.alpha.dir/__/__/mesh/prov/src/prov_provisioner.c.obj (event_handle)
mesh/core/libmesh_core_nrf52840_xxAA.a(packet_buffer.c.obj)
                              examples/serial/CMakeFiles/serial_nrf52840_xxAA_s140_5.0.0-3.alpha.dir/__/__/mesh/serial/src/serial_bearer.c.obj (packet_buffer_max_packet_len_get)
mesh/core/libmesh_core_nrf52840_xxAA.a(fifo.c.obj)
                              mesh/core/libmesh_core_nrf52840_xxAA.a(internal_event.c.obj) (fifo_init)
mesh/core/libmesh_core_nrf52840_xxAA.a(net_state.c.obj)
                              examples/serial/CMakeFiles/serial_nrf52840_xxAA_s140_5.0.0-3.alpha.dir/__/__/mesh/serial/src/serial_handler_mesh.c.obj (net_state_reset)
mesh/core/libmesh_core_nrf52840_xxAA.a(nrf_mesh_utils.c.obj)
                              examples/serial/CMakeFiles/serial_nrf52840_xxAA_s140_5.0.0-3.alpha.dir/__/__/mesh/prov/src/prov_provisionee.c.obj (nrf_mesh_address_type_get)
mesh/core/libmesh_core_nrf52840_xxAA.a(nrf_mesh.c.obj)
                              examples/serial/CMakeFiles/serial_nrf52840_xxAA_s140_5.0.0-3.alpha.dir/__/nrf_mesh_sdk.c.obj (nrf_mesh_init)
mesh/core/libmesh_core_nrf52840_xxAA.a(hal.c.obj)
                              examples/serial/CMakeFiles/serial_nrf52840_xxAA_s140_5.0.0-3.alpha.dir/__/__/mesh/serial/src/serial_handler_device.c.obj (hal_device_reset)
mesh/core/libmesh_core_nrf52840_xxAA.a(timer_scheduler.c.obj)
                              mesh/core/libmesh_core_nrf52840_xxAA.a(nrf_mesh.c.obj) (timer_sch_init)
mesh/core/libmesh_core_nrf52840_xxAA.a(timer.c.obj)
                              mesh/core/libmesh_core_nrf52840_xxAA.a(timer_scheduler.c.obj) (timer_order_cb)
mesh/core/libmesh_core_nrf52840_xxAA.a(ticker.c.obj)
                              mesh/core/libmesh_core_nrf52840_xxAA.a(nrf_mesh.c.obj) (ticker_init)
mesh/core/libmesh_core_nrf52840_xxAA.a(rand.c.obj)
                              examples/serial/CMakeFiles/serial_nrf52840_xxAA_s140_5.0.0-3.alpha.dir/__/__/mesh/prov/src/prov_utils.c.obj (rand_hw_rng_get)
mesh/core/libmesh_core_nrf52840_xxAA.a(nrf_mesh_opt.c.obj)
                              examples/serial/CMakeFiles/serial_nrf52840_xxAA_s140_5.0.0-3.alpha.dir/src/main.c.obj (nrf_mesh_opt_set)
mesh/core/libmesh_core_nrf52840_xxAA.a(timeslot.c.obj)
                              mesh/core/libmesh_core_nrf52840_xxAA.a(nrf_mesh.c.obj) (timeslot_sd_event_handler)
mesh/core/libmesh_core_nrf52840_xxAA.a(bearer_event.c.obj)
                              mesh/core/libmesh_core_nrf52840_xxAA.a(nrf_mesh.c.obj) (bearer_event_init)
mesh/core/libmesh_core_nrf52840_xxAA.a(enc.c.obj)
                              examples/serial/CMakeFiles/serial_nrf52840_xxAA_s140_5.0.0-3.alpha.dir/__/__/mesh/prov/src/prov_utils.c.obj (enc_aes_cmac)
mesh/core/libmesh_core_nrf52840_xxAA.a(network.c.obj)
                              mesh/core/libmesh_core_nrf52840_xxAA.a(nrf_mesh.c.obj) (network_init)
mesh/core/libmesh_core_nrf52840_xxAA.a(nrf_mesh_keygen.c.obj)
                              examples/serial/CMakeFiles/serial_nrf52840_xxAA_s140_5.0.0-3.alpha.dir/__/__/mesh/access/src/device_state_manager.c.obj (nrf_mesh_keygen_aid)
mesh/core/libmesh_core_nrf52840_xxAA.a(log.c.obj)
                              examples/serial/CMakeFiles/serial_nrf52840_xxAA_s140_5.0.0-3.alpha.dir/src/main.c.obj (log_callback_rtt)
mesh/core/libmesh_core_nrf52840_xxAA.a(flash_manager.c.obj)
                              mesh/core/libmesh_core_nrf52840_xxAA.a(nrf_mesh.c.obj) (flash_manager_init)
mesh/core/libmesh_core_nrf52840_xxAA.a(ccm_soft.c.obj)
                              mesh/core/libmesh_core_nrf52840_xxAA.a(enc.c.obj) (ccm_soft_encrypt)
mesh/core/libmesh_core_nrf52840_xxAA.a(beacon.c.obj)
                              mesh/core/libmesh_core_nrf52840_xxAA.a(nrf_mesh.c.obj) (beacon_init)
mesh/core/libmesh_core_nrf52840_xxAA.a(flash_manager_internal.c.obj)
                              mesh/core/libmesh_core_nrf52840_xxAA.a(flash_manager.c.obj) (entry_get)
mesh/core/libmesh_core_nrf52840_xxAA.a(core_tx.c.obj)
                              mesh/core/libmesh_core_nrf52840_xxAA.a(nrf_mesh.c.obj) (core_tx_init)
mesh/core/libmesh_core_nrf52840_xxAA.a(net_beacon.c.obj)
                              mesh/core/libmesh_core_nrf52840_xxAA.a(network.c.obj) (net_beacon_init)
mesh/core/libmesh_core_nrf52840_xxAA.a(advertiser.c.obj)
                              mesh/core/libmesh_core_nrf52840_xxAA.a(nrf_mesh.c.obj) (advertiser_init)
mesh/core/libmesh_core_nrf52840_xxAA.a(bearer_handler.c.obj)
                              mesh/core/libmesh_core_nrf52840_xxAA.a(nrf_mesh.c.obj) (bearer_handler_init)
mesh/core/libmesh_core_nrf52840_xxAA.a(broadcast.c.obj)
                              mesh/core/libmesh_core_nrf52840_xxAA.a(advertiser.c.obj) (broadcast_send)
mesh/core/libmesh_core_nrf52840_xxAA.a(radio_config.c.obj)
                              mesh/core/libmesh_core_nrf52840_xxAA.a(broadcast.c.obj) (radio_config_reset)
mesh/core/libmesh_core_nrf52840_xxAA.a(scanner.c.obj)
                              mesh/core/libmesh_core_nrf52840_xxAA.a(bearer_handler.c.obj) (scanner_radio_start)
mesh/core/libmesh_core_nrf52840_xxAA.a(aes.c.obj)
                              mesh/core/libmesh_core_nrf52840_xxAA.a(enc.c.obj) (aes_encrypt)
mesh/core/libmesh_core_nrf52840_xxAA.a(msg_cache.c.obj)
                              mesh/core/libmesh_core_nrf52840_xxAA.a(nrf_mesh.c.obj) (msg_cache_init)
mesh/core/libmesh_core_nrf52840_xxAA.a(transport.c.obj)
                              mesh/core/libmesh_core_nrf52840_xxAA.a(nrf_mesh.c.obj) (transport_init)
mesh/core/libmesh_core_nrf52840_xxAA.a(flash_manager_defrag.c.obj)
                              mesh/core/libmesh_core_nrf52840_xxAA.a(flash_manager.c.obj) (flash_manager_defrag_init)
mesh/core/libmesh_core_nrf52840_xxAA.a(packet_mgr.c.obj)
                              mesh/core/libmesh_core_nrf52840_xxAA.a(nrf_mesh.c.obj) (packet_mgr_init)
mesh/core/libmesh_core_nrf52840_xxAA.a(mesh_flash.c.obj)
                              mesh/core/libmesh_core_nrf52840_xxAA.a(flash_manager.c.obj) (mesh_flash_user_callback_set)
mesh/core/libmesh_core_nrf52840_xxAA.a(queue.c.obj)
                              mesh/core/libmesh_core_nrf52840_xxAA.a(bearer_event.c.obj) (queue_init)
mesh/core/libmesh_core_nrf52840_xxAA.a(aes_cmac.c.obj)
                              mesh/core/libmesh_core_nrf52840_xxAA.a(enc.c.obj) (aes_cmac)
mesh/core/libmesh_core_nrf52840_xxAA.a(msqueue.c.obj)
                              mesh/core/libmesh_core_nrf52840_xxAA.a(mesh_flash.c.obj) (msq_init)
mesh/core/libmesh_core_nrf52840_xxAA.a(replay_cache.c.obj)
                              mesh/core/libmesh_core_nrf52840_xxAA.a(transport.c.obj) (replay_cache_init)
mesh/core/libmesh_core_nrf52840_xxAA.a(filter_engine.c.obj)
                              mesh/core/libmesh_core_nrf52840_xxAA.a(scanner.c.obj) (fen_filters_apply)
mesh/core/libmesh_core_nrf52840_xxAA.a(nrf_flash.c.obj)
                              mesh/core/libmesh_core_nrf52840_xxAA.a(mesh_flash.c.obj) (nrf_flash_erase)
external/micro-ecc/libuECC_nrf52840_xxAA.a(uECC.c.obj)
                              examples/serial/CMakeFiles/serial_nrf52840_xxAA_s140_5.0.0-3.alpha.dir/__/__/mesh/prov/src/prov_utils.c.obj (uECC_secp256r1)
external/rtt/librtt_nrf52840_xxAA.a(SEGGER_RTT.c.obj)
                              mesh/core/libmesh_core_nrf52840_xxAA.a(log.c.obj) (SEGGER_RTT_Write)
external/rtt/librtt_nrf52840_xxAA.a(SEGGER_RTT_printf.c.obj)
                              mesh/core/libmesh_core_nrf52840_xxAA.a(log.c.obj) (SEGGER_RTT_vprintf)
c:/a/gcc_arm/6/bin/../lib/gcc/arm-none-eabi/6.3.1/../../../../arm-none-eabi/lib/thumb/v7e-m/fpv4-sp/hard\libc_nano.a(lib_a-exit.o)
                              c:/a/gcc_arm/6/bin/../lib/gcc/arm-none-eabi/6.3.1/../../../../arm-none-eabi/lib/thumb/v7e-m/fpv4-sp/hard/crt0.o (exit)
c:/a/gcc_arm/6/bin/../lib/gcc/arm-none-eabi/6.3.1/../../../../arm-none-eabi/lib/thumb/v7e-m/fpv4-sp/hard\libc_nano.a(lib_a-impure.o)
                              c:/a/gcc_arm/6/bin/../lib/gcc/arm-none-eabi/6.3.1/../../../../arm-none-eabi/lib/thumb/v7e-m/fpv4-sp/hard\libc_nano.a(lib_a-exit.o) (_global_impure_ptr)
c:/a/gcc_arm/6/bin/../lib/gcc/arm-none-eabi/6.3.1/../../../../arm-none-eabi/lib/thumb/v7e-m/fpv4-sp/hard\libc_nano.a(lib_a-init.o)
                              c:/a/gcc_arm/6/bin/../lib/gcc/arm-none-eabi/6.3.1/../../../../arm-none-eabi/lib/thumb/v7e-m/fpv4-sp/hard/crt0.o (__libc_init_array)
c:/a/gcc_arm/6/bin/../lib/gcc/arm-none-eabi/6.3.1/../../../../arm-none-eabi/lib/thumb/v7e-m/fpv4-sp/hard\libc_nano.a(lib_a-malloc.o)
                              mesh/core/libmesh_core_nrf52840_xxAA.a(transport.c.obj) (malloc)
c:/a/gcc_arm/6/bin/../lib/gcc/arm-none-eabi/6.3.1/../../../../arm-none-eabi/lib/thumb/v7e-m/fpv4-sp/hard\libc_nano.a(lib_a-memcmp.o)
                              examples/serial/CMakeFiles/serial_nrf52840_xxAA_s140_5.0.0-3.alpha.dir/__/__/mesh/prov/src/prov_utils.c.obj (memcmp)
c:/a/gcc_arm/6/bin/../lib/gcc/arm-none-eabi/6.3.1/../../../../arm-none-eabi/lib/thumb/v7e-m/fpv4-sp/hard\libc_nano.a(lib_a-memcpy-stub.o)
                              examples/serial/CMakeFiles/serial_nrf52840_xxAA_s140_5.0.0-3.alpha.dir/__/__/mesh/prov/src/prov_provisioner.c.obj (memcpy)
c:/a/gcc_arm/6/bin/../lib/gcc/arm-none-eabi/6.3.1/../../../../arm-none-eabi/lib/thumb/v7e-m/fpv4-sp/hard\libc_nano.a(lib_a-memset.o)
                              c:/a/gcc_arm/6/bin/../lib/gcc/arm-none-eabi/6.3.1/../../../../arm-none-eabi/lib/thumb/v7e-m/fpv4-sp/hard/crt0.o (memset)
c:/a/gcc_arm/6/bin/../lib/gcc/arm-none-eabi/6.3.1/../../../../arm-none-eabi/lib/thumb/v7e-m/fpv4-sp/hard\libc_nano.a(lib_a-nano-freer.o)
                              c:/a/gcc_arm/6/bin/../lib/gcc/arm-none-eabi/6.3.1/../../../../arm-none-eabi/lib/thumb/v7e-m/fpv4-sp/hard\libc_nano.a(lib_a-malloc.o) (_free_r)
c:/a/gcc_arm/6/bin/../lib/gcc/arm-none-eabi/6.3.1/../../../../arm-none-eabi/lib/thumb/v7e-m/fpv4-sp/hard\libc_nano.a(lib_a-nano-mallocr.o)
                              c:/a/gcc_arm/6/bin/../lib/gcc/arm-none-eabi/6.3.1/../../../../arm-none-eabi/lib/thumb/v7e-m/fpv4-sp/hard\libc_nano.a(lib_a-malloc.o) (_malloc_r)
c:/a/gcc_arm/6/bin/../lib/gcc/arm-none-eabi/6.3.1/../../../../arm-none-eabi/lib/thumb/v7e-m/fpv4-sp/hard\libc_nano.a(lib_a-sbrkr.o)
                              c:/a/gcc_arm/6/bin/../lib/gcc/arm-none-eabi/6.3.1/../../../../arm-none-eabi/lib/thumb/v7e-m/fpv4-sp/hard\libc_nano.a(lib_a-nano-mallocr.o) (_sbrk_r)
c:/a/gcc_arm/6/bin/../lib/gcc/arm-none-eabi/6.3.1/../../../../arm-none-eabi/lib/thumb/v7e-m/fpv4-sp/hard\libc_nano.a(lib_a-strcpy.o)
                              external/rtt/librtt_nrf52840_xxAA.a(SEGGER_RTT.c.obj) (strcpy)
c:/a/gcc_arm/6/bin/../lib/gcc/arm-none-eabi/6.3.1/../../../../arm-none-eabi/lib/thumb/v7e-m/fpv4-sp/hard\libc_nano.a(lib_a-strlen.o)
                              examples/serial/CMakeFiles/serial_nrf52840_xxAA_s140_5.0.0-3.alpha.dir/__/__/mesh/prov/src/prov_beacon.c.obj (strlen)
c:/a/gcc_arm/6/bin/../lib/gcc/arm-none-eabi/6.3.1/../../../../arm-none-eabi/lib/thumb/v7e-m/fpv4-sp/hard\libc_nano.a(lib_a-strrchr.o)
                              examples/serial/CMakeFiles/serial_nrf52840_xxAA_s140_5.0.0-3.alpha.dir/src/main.c.obj (strrchr)
c:/a/gcc_arm/6/bin/../lib/gcc/arm-none-eabi/6.3.1/../../../../arm-none-eabi/lib/thumb/v7e-m/fpv4-sp/hard\libc_nano.a(lib_a-mlock.o)
                              c:/a/gcc_arm/6/bin/../lib/gcc/arm-none-eabi/6.3.1/../../../../arm-none-eabi/lib/thumb/v7e-m/fpv4-sp/hard\libc_nano.a(lib_a-nano-freer.o) (__malloc_lock)
c:/a/gcc_arm/6/bin/../lib/gcc/arm-none-eabi/6.3.1/../../../../arm-none-eabi/lib/thumb/v7e-m/fpv4-sp/hard\libc_nano.a(lib_a-reent.o)
                              c:/a/gcc_arm/6/bin/../lib/gcc/arm-none-eabi/6.3.1/../../../../arm-none-eabi/lib/thumb/v7e-m/fpv4-sp/hard\libc_nano.a(lib_a-sbrkr.o) (errno)
c:/a/gcc_arm/6/bin/../lib/gcc/arm-none-eabi/6.3.1/../../../../arm-none-eabi/lib/thumb/v7e-m/fpv4-sp/hard\libc_nano.a(lib_a-strchr.o)
                              c:/a/gcc_arm/6/bin/../lib/gcc/arm-none-eabi/6.3.1/../../../../arm-none-eabi/lib/thumb/v7e-m/fpv4-sp/hard\libc_nano.a(lib_a-strrchr.o) (strchr)
c:/a/gcc_arm/6/bin/../lib/gcc/arm-none-eabi/6.3.1/../../../../arm-none-eabi/lib/thumb/v7e-m/fpv4-sp/hard\libnosys.a(sbrk.o)
                              c:/a/gcc_arm/6/bin/../lib/gcc/arm-none-eabi/6.3.1/../../../../arm-none-eabi/lib/thumb/v7e-m/fpv4-sp/hard\libc_nano.a(lib_a-sbrkr.o) (_sbrk)
c:/a/gcc_arm/6/bin/../lib/gcc/arm-none-eabi/6.3.1/../../../../arm-none-eabi/lib/thumb/v7e-m/fpv4-sp/hard\libnosys.a(_exit.o)
                              c:/a/gcc_arm/6/bin/../lib/gcc/arm-none-eabi/6.3.1/../../../../arm-none-eabi/lib/thumb/v7e-m/fpv4-sp/hard\libc_nano.a(lib_a-exit.o) (_exit)

Allocating common symbols
Common symbol       size              file

nrf_nvic_state      0xc               examples/serial/CMakeFiles/serial_nrf52840_xxAA_s140_5.0.0-3.alpha.dir/__/nrf_mesh_sdk.c.obj
errno               0x4               c:/a/gcc_arm/6/bin/../lib/gcc/arm-none-eabi/6.3.1/../../../../arm-none-eabi/lib/thumb/v7e-m/fpv4-sp/hard\libc_nano.a(lib_a-reent.o)
m_assertion_handler
                    0x4               mesh/core/libmesh_core_nrf52840_xxAA.a(nrf_mesh.c.obj)
_SEGGER_RTT         0x78              external/rtt/librtt_nrf52840_xxAA.a(SEGGER_RTT.c.obj)

Discarded input sections

 .text          0x00000000        0x0 c:/a/gcc_arm/6/bin/../lib/gcc/arm-none-eabi/6.3.1/thumb/v7e-m/fpv4-sp/hard/crti.o
 .data          0x00000000        0x0 c:/a/gcc_arm/6/bin/../lib/gcc/arm-none-eabi/6.3.1/thumb/v7e-m/fpv4-sp/hard/crti.o
 .bss           0x00000000        0x0 c:/a/gcc_arm/6/bin/../lib/gcc/arm-none-eabi/6.3.1/thumb/v7e-m/fpv4-sp/hard/crti.o
 .data          0x00000000        0x4 c:/a/gcc_arm/6/bin/../lib/gcc/arm-none-eabi/6.3.1/thumb/v7e-m/fpv4-sp/hard/crtbegin.o
 .data          0x00000000        0x0 c:/a/gcc_arm/6/bin/../lib/gcc/arm-none-eabi/6.3.1/../../../../arm-none-eabi/lib/thumb/v7e-m/fpv4-sp/hard/crt0.o
 .bss           0x00000000        0x0 c:/a/gcc_arm/6/bin/../lib/gcc/arm-none-eabi/6.3.1/../../../../arm-none-eabi/lib/thumb/v7e-m/fpv4-sp/hard/crt0.o
 .ARM.extab     0x00000000        0x0 c:/a/gcc_arm/6/bin/../lib/gcc/arm-none-eabi/6.3.1/../../../../arm-none-eabi/lib/thumb/v7e-m/fpv4-sp/hard/crt0.o
 .text          0x00000000        0x0 examples/serial/CMakeFiles/serial_nrf52840_xxAA_s140_5.0.0-3.alpha.dir/src/main.c.obj
 .data          0x00000000        0x0 examples/serial/CMakeFiles/serial_nrf52840_xxAA_s140_5.0.0-3.alpha.dir/src/main.c.obj
 .bss           0x00000000        0x0 examples/serial/CMakeFiles/serial_nrf52840_xxAA_s140_5.0.0-3.alpha.dir/src/main.c.obj
 .text          0x00000000        0x0 examples/serial/CMakeFiles/serial_nrf52840_xxAA_s140_5.0.0-3.alpha.dir/__/nrf_mesh_sdk.c.obj
 .data          0x00000000        0x0 examples/serial/CMakeFiles/serial_nrf52840_xxAA_s140_5.0.0-3.alpha.dir/__/nrf_mesh_sdk.c.obj
 .bss           0x00000000        0x0 examples/serial/CMakeFiles/serial_nrf52840_xxAA_s140_5.0.0-3.alpha.dir/__/nrf_mesh_sdk.c.obj
 .text.mesh_softdevice_setup
                0x00000000      0x1b4 examples/serial/CMakeFiles/serial_nrf52840_xxAA_s140_5.0.0-3.alpha.dir/__/nrf_mesh_sdk.c.obj
 .text          0x00000000        0x0 examples/serial/CMakeFiles/serial_nrf52840_xxAA_s140_5.0.0-3.alpha.dir/__/__/mesh/prov/src/prov_provisioner.c.obj
 .data          0x00000000        0x0 examples/serial/CMakeFiles/serial_nrf52840_xxAA_s140_5.0.0-3.alpha.dir/__/__/mesh/prov/src/prov_provisioner.c.obj
 .bss           0x00000000        0x0 examples/serial/CMakeFiles/serial_nrf52840_xxAA_s140_5.0.0-3.alpha.dir/__/__/mesh/prov/src/prov_provisioner.c.obj
 .text.prov_provisioner_oob_pubkey
                0x00000000       0x38 examples/serial/CMakeFiles/serial_nrf52840_xxAA_s140_5.0.0-3.alpha.dir/__/__/mesh/prov/src/prov_provisioner.c.obj
 .text          0x00000000        0x0 examples/serial/CMakeFiles/serial_nrf52840_xxAA_s140_5.0.0-3.alpha.dir/__/__/mesh/prov/src/prov_provisionee.c.obj
 .data          0x00000000        0x0 examples/serial/CMakeFiles/serial_nrf52840_xxAA_s140_5.0.0-3.alpha.dir/__/__/mesh/prov/src/prov_provisionee.c.obj
 .bss           0x00000000        0x0 examples/serial/CMakeFiles/serial_nrf52840_xxAA_s140_5.0.0-3.alpha.dir/__/__/mesh/prov/src/prov_provisionee.c.obj
 .text          0x00000000        0x0 examples/serial/CMakeFiles/serial_nrf52840_xxAA_s140_5.0.0-3.alpha.dir/__/__/mesh/prov/src/nrf_mesh_prov.c.obj
 .data          0x00000000        0x0 examples/serial/CMakeFiles/serial_nrf52840_xxAA_s140_5.0.0-3.alpha.dir/__/__/mesh/prov/src/nrf_mesh_prov.c.obj
 .bss           0x00000000        0x0 examples/serial/CMakeFiles/serial_nrf52840_xxAA_s140_5.0.0-3.alpha.dir/__/__/mesh/prov/src/nrf_mesh_prov.c.obj
 .text.nrf_mesh_prov_pubkey_provide
                0x00000000       0x10 examples/serial/CMakeFiles/serial_nrf52840_xxAA_s140_5.0.0-3.alpha.dir/__/__/mesh/prov/src/nrf_mesh_prov.c.obj
 .text          0x00000000        0x0 examples/serial/CMakeFiles/serial_nrf52840_xxAA_s140_5.0.0-3.alpha.dir/__/__/mesh/prov/src/provisioning.c.obj
 .data          0x00000000        0x0 examples/serial/CMakeFiles/serial_nrf52840_xxAA_s140_5.0.0-3.alpha.dir/__/__/mesh/prov/src/provisioning.c.obj
 .bss           0x00000000        0x0 examples/serial/CMakeFiles/serial_nrf52840_xxAA_s140_5.0.0-3.alpha.dir/__/__/mesh/prov/src/provisioning.c.obj
 .text.prov_listen_stop
                0x00000000        0x8 examples/serial/CMakeFiles/serial_nrf52840_xxAA_s140_5.0.0-3.alpha.dir/__/__/mesh/prov/src/provisioning.c.obj
 .text.prov_tx  0x00000000       0x50 examples/serial/CMakeFiles/serial_nrf52840_xxAA_s140_5.0.0-3.alpha.dir/__/__/mesh/prov/src/provisioning.c.obj
 .text          0x00000000        0x0 examples/serial/CMakeFiles/serial_nrf52840_xxAA_s140_5.0.0-3.alpha.dir/__/__/mesh/prov/src/prov_beacon.c.obj
 .data          0x00000000        0x0 examples/serial/CMakeFiles/serial_nrf52840_xxAA_s140_5.0.0-3.alpha.dir/__/__/mesh/prov/src/prov_beacon.c.obj
 .bss           0x00000000        0x0 examples/serial/CMakeFiles/serial_nrf52840_xxAA_s140_5.0.0-3.alpha.dir/__/__/mesh/prov/src/prov_beacon.c.obj
 .text.prov_beacon_unprov_report
                0x00000000        0xc examples/serial/CMakeFiles/serial_nrf52840_xxAA_s140_5.0.0-3.alpha.dir/__/__/mesh/prov/src/prov_beacon.c.obj
 .text          0x00000000        0x0 examples/serial/CMakeFiles/serial_nrf52840_xxAA_s140_5.0.0-3.alpha.dir/__/__/mesh/prov/src/prov_utils.c.obj
 .data          0x00000000        0x0 examples/serial/CMakeFiles/serial_nrf52840_xxAA_s140_5.0.0-3.alpha.dir/__/__/mesh/prov/src/prov_utils.c.obj
 .bss           0x00000000        0x0 examples/serial/CMakeFiles/serial_nrf52840_xxAA_s140_5.0.0-3.alpha.dir/__/__/mesh/prov/src/prov_utils.c.obj
 .text.prov_utils_opt_get
                0x00000000       0x1c examples/serial/CMakeFiles/serial_nrf52840_xxAA_s140_5.0.0-3.alpha.dir/__/__/mesh/prov/src/prov_utils.c.obj
 .text          0x00000000        0x0 examples/serial/CMakeFiles/serial_nrf52840_xxAA_s140_5.0.0-3.alpha.dir/__/__/mesh/prov/src/prov_bearer_adv.c.obj
 .data          0x00000000        0x0 examples/serial/CMakeFiles/serial_nrf52840_xxAA_s140_5.0.0-3.alpha.dir/__/__/mesh/prov/src/prov_bearer_adv.c.obj
 .bss           0x00000000        0x0 examples/serial/CMakeFiles/serial_nrf52840_xxAA_s140_5.0.0-3.alpha.dir/__/__/mesh/prov/src/prov_bearer_adv.c.obj
 .text.calculate_3GPP_CRC
                0x00000000       0x28 examples/serial/CMakeFiles/serial_nrf52840_xxAA_s140_5.0.0-3.alpha.dir/__/__/mesh/prov/src/prov_bearer_adv.c.obj
 .text          0x00000000        0x0 examples/serial/CMakeFiles/serial_nrf52840_xxAA_s140_5.0.0-3.alpha.dir/__/__/mesh/access/src/access_publish.c.obj
 .data          0x00000000        0x0 examples/serial/CMakeFiles/serial_nrf52840_xxAA_s140_5.0.0-3.alpha.dir/__/__/mesh/access/src/access_publish.c.obj
 .bss           0x00000000        0x0 examples/serial/CMakeFiles/serial_nrf52840_xxAA_s140_5.0.0-3.alpha.dir/__/__/mesh/access/src/access_publish.c.obj
 .text          0x00000000        0x0 examples/serial/CMakeFiles/serial_nrf52840_xxAA_s140_5.0.0-3.alpha.dir/__/__/mesh/access/src/access.c.obj
 .data          0x00000000        0x0 examples/serial/CMakeFiles/serial_nrf52840_xxAA_s140_5.0.0-3.alpha.dir/__/__/mesh/access/src/access.c.obj
 .bss           0x00000000        0x0 examples/serial/CMakeFiles/serial_nrf52840_xxAA_s140_5.0.0-3.alpha.dir/__/__/mesh/access/src/access.c.obj
 .text.access_flash_config_load
                0x00000000      0x2ec examples/serial/CMakeFiles/serial_nrf52840_xxAA_s140_5.0.0-3.alpha.dir/__/__/mesh/access/src/access.c.obj
 .text.access_model_add
                0x00000000      0x1c8 examples/serial/CMakeFiles/serial_nrf52840_xxAA_s140_5.0.0-3.alpha.dir/__/__/mesh/access/src/access.c.obj
 .text.access_model_reply
                0x00000000      0x2b4 examples/serial/CMakeFiles/serial_nrf52840_xxAA_s140_5.0.0-3.alpha.dir/__/__/mesh/access/src/access.c.obj
 .text.access_model_subscription_list_alloc
                0x00000000       0x38 examples/serial/CMakeFiles/serial_nrf52840_xxAA_s140_5.0.0-3.alpha.dir/__/__/mesh/access/src/access.c.obj
 .text.access_model_subscription_lists_share
                0x00000000       0x24 examples/serial/CMakeFiles/serial_nrf52840_xxAA_s140_5.0.0-3.alpha.dir/__/__/mesh/access/src/access.c.obj
 .text.access_default_ttl_set
                0x00000000       0x10 examples/serial/CMakeFiles/serial_nrf52840_xxAA_s140_5.0.0-3.alpha.dir/__/__/mesh/access/src/access.c.obj
 .text.access_default_ttl_get
                0x00000000        0xc examples/serial/CMakeFiles/serial_nrf52840_xxAA_s140_5.0.0-3.alpha.dir/__/__/mesh/access/src/access.c.obj
 .rodata.multiply_de_bruijn_bit_position.9295
                0x00000000       0x20 examples/serial/CMakeFiles/serial_nrf52840_xxAA_s140_5.0.0-3.alpha.dir/__/__/mesh/access/src/access.c.obj
 .text          0x00000000        0x0 examples/serial/CMakeFiles/serial_nrf52840_xxAA_s140_5.0.0-3.alpha.dir/__/__/mesh/access/src/access_reliable.c.obj
 .data          0x00000000        0x0 examples/serial/CMakeFiles/serial_nrf52840_xxAA_s140_5.0.0-3.alpha.dir/__/__/mesh/access/src/access_reliable.c.obj
 .bss           0x00000000        0x0 examples/serial/CMakeFiles/serial_nrf52840_xxAA_s140_5.0.0-3.alpha.dir/__/__/mesh/access/src/access_reliable.c.obj
 .text.access_model_reliable_cancel
                0x00000000       0x38 examples/serial/CMakeFiles/serial_nrf52840_xxAA_s140_5.0.0-3.alpha.dir/__/__/mesh/access/src/access_reliable.c.obj
 .text.access_model_reliable_publish
                0x00000000      0x168 examples/serial/CMakeFiles/serial_nrf52840_xxAA_s140_5.0.0-3.alpha.dir/__/__/mesh/access/src/access_reliable.c.obj
 .text          0x00000000        0x0 examples/serial/CMakeFiles/serial_nrf52840_xxAA_s140_5.0.0-3.alpha.dir/__/__/mesh/access/src/device_state_manager.c.obj
 .data          0x00000000        0x0 examples/serial/CMakeFiles/serial_nrf52840_xxAA_s140_5.0.0-3.alpha.dir/__/__/mesh/access/src/device_state_manager.c.obj
 .bss           0x00000000        0x0 examples/serial/CMakeFiles/serial_nrf52840_xxAA_s140_5.0.0-3.alpha.dir/__/__/mesh/access/src/device_state_manager.c.obj
 .text.dsm_flash_config_load
                0x00000000      0x190 examples/serial/CMakeFiles/serial_nrf52840_xxAA_s140_5.0.0-3.alpha.dir/__/__/mesh/access/src/device_state_manager.c.obj
 .text.dsm_has_unflashed_data
                0x00000000       0x58 examples/serial/CMakeFiles/serial_nrf52840_xxAA_s140_5.0.0-3.alpha.dir/__/__/mesh/access/src/device_state_manager.c.obj
 .text.dsm_address_publish_add_handle
                0x00000000       0x54 examples/serial/CMakeFiles/serial_nrf52840_xxAA_s140_5.0.0-3.alpha.dir/__/__/mesh/access/src/device_state_manager.c.obj
 .text.dsm_address_subscription_add_handle
                0x00000000       0x54 examples/serial/CMakeFiles/serial_nrf52840_xxAA_s140_5.0.0-3.alpha.dir/__/__/mesh/access/src/device_state_manager.c.obj
 .text.dsm_address_subscription_count_get
                0x00000000       0x80 examples/serial/CMakeFiles/serial_nrf52840_xxAA_s140_5.0.0-3.alpha.dir/__/__/mesh/access/src/device_state_manager.c.obj
 .text.dsm_net_key_index_to_subnet_handle
                0x00000000       0x6c examples/serial/CMakeFiles/serial_nrf52840_xxAA_s140_5.0.0-3.alpha.dir/__/__/mesh/access/src/device_state_manager.c.obj
 .text.dsm_subnet_handle_to_netkey_index
                0x00000000       0x34 examples/serial/CMakeFiles/serial_nrf52840_xxAA_s140_5.0.0-3.alpha.dir/__/__/mesh/access/src/device_state_manager.c.obj
 .text.dsm_app_key_index_to_appkey_handle
                0x00000000       0xc8 examples/serial/CMakeFiles/serial_nrf52840_xxAA_s140_5.0.0-3.alpha.dir/__/__/mesh/access/src/device_state_manager.c.obj
 .text.dsm_appkey_handle_to_appkey_index
                0x00000000       0x34 examples/serial/CMakeFiles/serial_nrf52840_xxAA_s140_5.0.0-3.alpha.dir/__/__/mesh/access/src/device_state_manager.c.obj
 .text.dsm_devkey_handle_get
                0x00000000       0x6c examples/serial/CMakeFiles/serial_nrf52840_xxAA_s140_5.0.0-3.alpha.dir/__/__/mesh/access/src/device_state_manager.c.obj
 .text.dsm_beacon_secmat_get
                0x00000000       0x34 examples/serial/CMakeFiles/serial_nrf52840_xxAA_s140_5.0.0-3.alpha.dir/__/__/mesh/access/src/device_state_manager.c.obj
 .text.dsm_proxy_identity_get
                0x00000000        0x4 examples/serial/CMakeFiles/serial_nrf52840_xxAA_s140_5.0.0-3.alpha.dir/__/__/mesh/access/src/device_state_manager.c.obj
 .text          0x00000000        0x0 examples/serial/CMakeFiles/serial_nrf52840_xxAA_s140_5.0.0-3.alpha.dir/__/__/mesh/serial/src/serial_uart.c.obj
 .data          0x00000000        0x0 examples/serial/CMakeFiles/serial_nrf52840_xxAA_s140_5.0.0-3.alpha.dir/__/__/mesh/serial/src/serial_uart.c.obj
 .bss           0x00000000        0x0 examples/serial/CMakeFiles/serial_nrf52840_xxAA_s140_5.0.0-3.alpha.dir/__/__/mesh/serial/src/serial_uart.c.obj
 .text          0x00000000        0x0 examples/serial/CMakeFiles/serial_nrf52840_xxAA_s140_5.0.0-3.alpha.dir/__/__/mesh/serial/src/serial_bearer.c.obj
 .data          0x00000000        0x0 examples/serial/CMakeFiles/serial_nrf52840_xxAA_s140_5.0.0-3.alpha.dir/__/__/mesh/serial/src/serial_bearer.c.obj
 .bss           0x00000000        0x0 examples/serial/CMakeFiles/serial_nrf52840_xxAA_s140_5.0.0-3.alpha.dir/__/__/mesh/serial/src/serial_bearer.c.obj
 .text.serial_bearer_packet_buffer_get
                0x00000000       0x28 examples/serial/CMakeFiles/serial_nrf52840_xxAA_s140_5.0.0-3.alpha.dir/__/__/mesh/serial/src/serial_bearer.c.obj
 .text.serial_bearer_rx_pending
                0x00000000        0xc examples/serial/CMakeFiles/serial_nrf52840_xxAA_s140_5.0.0-3.alpha.dir/__/__/mesh/serial/src/serial_bearer.c.obj
 .text          0x00000000        0x0 examples/serial/CMakeFiles/serial_nrf52840_xxAA_s140_5.0.0-3.alpha.dir/__/__/mesh/serial/src/serial_handler_common.c.obj
 .data          0x00000000        0x0 examples/serial/CMakeFiles/serial_nrf52840_xxAA_s140_5.0.0-3.alpha.dir/__/__/mesh/serial/src/serial_handler_common.c.obj
 .bss           0x00000000        0x0 examples/serial/CMakeFiles/serial_nrf52840_xxAA_s140_5.0.0-3.alpha.dir/__/__/mesh/serial/src/serial_handler_common.c.obj
 .text          0x00000000        0x0 examples/serial/CMakeFiles/serial_nrf52840_xxAA_s140_5.0.0-3.alpha.dir/__/__/mesh/serial/src/serial_handler_access.c.obj
 .data          0x00000000        0x0 examples/serial/CMakeFiles/serial_nrf52840_xxAA_s140_5.0.0-3.alpha.dir/__/__/mesh/serial/src/serial_handler_access.c.obj
 .bss           0x00000000        0x0 examples/serial/CMakeFiles/serial_nrf52840_xxAA_s140_5.0.0-3.alpha.dir/__/__/mesh/serial/src/serial_handler_access.c.obj
 .text          0x00000000        0x0 examples/serial/CMakeFiles/serial_nrf52840_xxAA_s140_5.0.0-3.alpha.dir/__/__/mesh/serial/src/serial_handler_config.c.obj
 .data          0x00000000        0x0 examples/serial/CMakeFiles/serial_nrf52840_xxAA_s140_5.0.0-3.alpha.dir/__/__/mesh/serial/src/serial_handler_config.c.obj
 .bss           0x00000000        0x0 examples/serial/CMakeFiles/serial_nrf52840_xxAA_s140_5.0.0-3.alpha.dir/__/__/mesh/serial/src/serial_handler_config.c.obj
 .text          0x00000000        0x0 examples/serial/CMakeFiles/serial_nrf52840_xxAA_s140_5.0.0-3.alpha.dir/__/__/mesh/serial/src/serial_handler_openmesh.c.obj
 .data          0x00000000        0x0 examples/serial/CMakeFiles/serial_nrf52840_xxAA_s140_5.0.0-3.alpha.dir/__/__/mesh/serial/src/serial_handler_openmesh.c.obj
 .bss           0x00000000        0x0 examples/serial/CMakeFiles/serial_nrf52840_xxAA_s140_5.0.0-3.alpha.dir/__/__/mesh/serial/src/serial_handler_openmesh.c.obj
 .text          0x00000000        0x0 examples/serial/CMakeFiles/serial_nrf52840_xxAA_s140_5.0.0-3.alpha.dir/__/__/mesh/serial/src/serial.c.obj
 .data          0x00000000        0x0 examples/serial/CMakeFiles/serial_nrf52840_xxAA_s140_5.0.0-3.alpha.dir/__/__/mesh/serial/src/serial.c.obj
 .bss           0x00000000        0x0 examples/serial/CMakeFiles/serial_nrf52840_xxAA_s140_5.0.0-3.alpha.dir/__/__/mesh/serial/src/serial.c.obj
 .text          0x00000000        0x0 examples/serial/CMakeFiles/serial_nrf52840_xxAA_s140_5.0.0-3.alpha.dir/__/__/mesh/serial/src/serial_handler_prov.c.obj
 .data          0x00000000        0x0 examples/serial/CMakeFiles/serial_nrf52840_xxAA_s140_5.0.0-3.alpha.dir/__/__/mesh/serial/src/serial_handler_prov.c.obj
 .bss           0x00000000        0x0 examples/serial/CMakeFiles/serial_nrf52840_xxAA_s140_5.0.0-3.alpha.dir/__/__/mesh/serial/src/serial_handler_prov.c.obj
 .text.serial_handler_prov_context_get
                0x00000000       0x1c examples/serial/CMakeFiles/serial_nrf52840_xxAA_s140_5.0.0-3.alpha.dir/__/__/mesh/serial/src/serial_handler_prov.c.obj
 .text.serial_handler_prov_keys_get
                0x00000000       0x14 examples/serial/CMakeFiles/serial_nrf52840_xxAA_s140_5.0.0-3.alpha.dir/__/__/mesh/serial/src/serial_handler_prov.c.obj
 .text.serial_handler_prov_oob_caps_get
                0x00000000        0xc examples/serial/CMakeFiles/serial_nrf52840_xxAA_s140_5.0.0-3.alpha.dir/__/__/mesh/serial/src/serial_handler_prov.c.obj
 .text          0x00000000        0x0 examples/serial/CMakeFiles/serial_nrf52840_xxAA_s140_5.0.0-3.alpha.dir/__/__/mesh/serial/src/serial_handler_dfu.c.obj
 .data          0x00000000        0x0 examples/serial/CMakeFiles/serial_nrf52840_xxAA_s140_5.0.0-3.alpha.dir/__/__/mesh/serial/src/serial_handler_dfu.c.obj
 .bss           0x00000000        0x0 examples/serial/CMakeFiles/serial_nrf52840_xxAA_s140_5.0.0-3.alpha.dir/__/__/mesh/serial/src/serial_handler_dfu.c.obj
 .text          0x00000000        0x0 examples/serial/CMakeFiles/serial_nrf52840_xxAA_s140_5.0.0-3.alpha.dir/__/__/mesh/serial/src/serial_handler_mesh.c.obj
 .data          0x00000000        0x0 examples/serial/CMakeFiles/serial_nrf52840_xxAA_s140_5.0.0-3.alpha.dir/__/__/mesh/serial/src/serial_handler_mesh.c.obj
 .bss           0x00000000        0x0 examples/serial/CMakeFiles/serial_nrf52840_xxAA_s140_5.0.0-3.alpha.dir/__/__/mesh/serial/src/serial_handler_mesh.c.obj
 .text          0x00000000        0x0 examples/serial/CMakeFiles/serial_nrf52840_xxAA_s140_5.0.0-3.alpha.dir/__/__/mesh/serial/src/serial_handler_models.c.obj
 .data          0x00000000        0x0 examples/serial/CMakeFiles/serial_nrf52840_xxAA_s140_5.0.0-3.alpha.dir/__/__/mesh/serial/src/serial_handler_models.c.obj
 .bss           0x00000000        0x0 examples/serial/CMakeFiles/serial_nrf52840_xxAA_s140_5.0.0-3.alpha.dir/__/__/mesh/serial/src/serial_handler_models.c.obj
 .text.serial_handler_models_register
                0x00000000       0x2c examples/serial/CMakeFiles/serial_nrf52840_xxAA_s140_5.0.0-3.alpha.dir/__/__/mesh/serial/src/serial_handler_models.c.obj
 .text          0x00000000        0x0 examples/serial/CMakeFiles/serial_nrf52840_xxAA_s140_5.0.0-3.alpha.dir/__/__/mesh/serial/src/serial_handler_device.c.obj
 .data          0x00000000        0x0 examples/serial/CMakeFiles/serial_nrf52840_xxAA_s140_5.0.0-3.alpha.dir/__/__/mesh/serial/src/serial_handler_device.c.obj
 .bss           0x00000000        0x0 examples/serial/CMakeFiles/serial_nrf52840_xxAA_s140_5.0.0-3.alpha.dir/__/__/mesh/serial/src/serial_handler_device.c.obj
 .text          0x00000000        0x0 examples/serial/CMakeFiles/serial_nrf52840_xxAA_s140_5.0.0-3.alpha.dir/__/__/mesh/serial/src/nrf_mesh_serial.c.obj
 .data          0x00000000        0x0 examples/serial/CMakeFiles/serial_nrf52840_xxAA_s140_5.0.0-3.alpha.dir/__/__/mesh/serial/src/nrf_mesh_serial.c.obj
 .bss           0x00000000        0x0 examples/serial/CMakeFiles/serial_nrf52840_xxAA_s140_5.0.0-3.alpha.dir/__/__/mesh/serial/src/nrf_mesh_serial.c.obj
 .text.nrf_mesh_serial_state_get
                0x00000000        0x4 examples/serial/CMakeFiles/serial_nrf52840_xxAA_s140_5.0.0-3.alpha.dir/__/__/mesh/serial/src/nrf_mesh_serial.c.obj
 .text.nrf_mesh_serial_tx
                0x00000000       0x60 examples/serial/CMakeFiles/serial_nrf52840_xxAA_s140_5.0.0-3.alpha.dir/__/__/mesh/serial/src/nrf_mesh_serial.c.obj
 .text          0x00000000        0x0 examples/serial/CMakeFiles/serial_nrf52840_xxAA_s140_5.0.0-3.alpha.dir/__/__/mesh/serial/src/serial_handler_app.c.obj
 .data          0x00000000        0x0 examples/serial/CMakeFiles/serial_nrf52840_xxAA_s140_5.0.0-3.alpha.dir/__/__/mesh/serial/src/serial_handler_app.c.obj
 .bss           0x00000000        0x0 examples/serial/CMakeFiles/serial_nrf52840_xxAA_s140_5.0.0-3.alpha.dir/__/__/mesh/serial/src/serial_handler_app.c.obj
 .text          0x00000000        0x0 examples/serial/CMakeFiles/serial_nrf52840_xxAA_s140_5.0.0-3.alpha.dir/__/nrf_mesh_weak.c.obj
 .data          0x00000000        0x0 examples/serial/CMakeFiles/serial_nrf52840_xxAA_s140_5.0.0-3.alpha.dir/__/nrf_mesh_weak.c.obj
 .bss           0x00000000        0x0 examples/serial/CMakeFiles/serial_nrf52840_xxAA_s140_5.0.0-3.alpha.dir/__/nrf_mesh_weak.c.obj
 .text._weak_handler_ptr
                0x00000000        0x4 examples/serial/CMakeFiles/serial_nrf52840_xxAA_s140_5.0.0-3.alpha.dir/__/nrf_mesh_weak.c.obj
 .text          0x00000000        0x0 examples/serial/CMakeFiles/serial_nrf52840_xxAA_s140_5.0.0-3.alpha.dir/__/__/external/nRF5_SDK_14.0.0_3bcc1f7/components/toolchain/system_nrf52840.c.obj
 .data          0x00000000        0x0 examples/serial/CMakeFiles/serial_nrf52840_xxAA_s140_5.0.0-3.alpha.dir/__/__/external/nRF5_SDK_14.0.0_3bcc1f7/components/toolchain/system_nrf52840.c.obj
 .bss           0x00000000        0x0 examples/serial/CMakeFiles/serial_nrf52840_xxAA_s140_5.0.0-3.alpha.dir/__/__/external/nRF5_SDK_14.0.0_3bcc1f7/components/toolchain/system_nrf52840.c.obj
 .text.SystemCoreClockUpdate
                0x00000000       0x10 examples/serial/CMakeFiles/serial_nrf52840_xxAA_s140_5.0.0-3.alpha.dir/__/__/external/nRF5_SDK_14.0.0_3bcc1f7/components/toolchain/system_nrf52840.c.obj
 .data          0x00000000        0x0 examples/serial/CMakeFiles/serial_nrf52840_xxAA_s140_5.0.0-3.alpha.dir/__/__/external/nRF5_SDK_14.0.0_3bcc1f7/components/toolchain/gcc/gcc_startup_nrf52840.S.obj
 .bss           0x00000000        0x0 examples/serial/CMakeFiles/serial_nrf52840_xxAA_s140_5.0.0-3.alpha.dir/__/__/external/nRF5_SDK_14.0.0_3bcc1f7/components/toolchain/gcc/gcc_startup_nrf52840.S.obj
 .text          0x00000000        0x0 mesh/core/libmesh_core_nrf52840_xxAA.a(internal_event.c.obj)
 .data          0x00000000        0x0 mesh/core/libmesh_core_nrf52840_xxAA.a(internal_event.c.obj)
 .bss           0x00000000        0x0 mesh/core/libmesh_core_nrf52840_xxAA.a(internal_event.c.obj)
 .text.internal_event_pop
                0x00000000       0x1c mesh/core/libmesh_core_nrf52840_xxAA.a(internal_event.c.obj)
 .text          0x00000000        0x0 mesh/core/libmesh_core_nrf52840_xxAA.a(nrf_mesh_configure.c.obj)
 .data          0x00000000        0x0 mesh/core/libmesh_core_nrf52840_xxAA.a(nrf_mesh_configure.c.obj)
 .bss           0x00000000        0x0 mesh/core/libmesh_core_nrf52840_xxAA.a(nrf_mesh_configure.c.obj)
 .text          0x00000000        0x0 mesh/core/libmesh_core_nrf52840_xxAA.a(event.c.obj)
 .data          0x00000000        0x0 mesh/core/libmesh_core_nrf52840_xxAA.a(event.c.obj)
 .bss           0x00000000        0x0 mesh/core/libmesh_core_nrf52840_xxAA.a(event.c.obj)
 .text.event_handler_remove
                0x00000000       0x6c mesh/core/libmesh_core_nrf52840_xxAA.a(event.c.obj)
 .text          0x00000000        0x0 mesh/core/libmesh_core_nrf52840_xxAA.a(packet_buffer.c.obj)
 .data          0x00000000        0x0 mesh/core/libmesh_core_nrf52840_xxAA.a(packet_buffer.c.obj)
 .bss           0x00000000        0x0 mesh/core/libmesh_core_nrf52840_xxAA.a(packet_buffer.c.obj)
 .text          0x00000000        0x0 mesh/core/libmesh_core_nrf52840_xxAA.a(fifo.c.obj)
 .data          0x00000000        0x0 mesh/core/libmesh_core_nrf52840_xxAA.a(fifo.c.obj)
 .bss           0x00000000        0x0 mesh/core/libmesh_core_nrf52840_xxAA.a(fifo.c.obj)
 .text.fifo_peek_at
                0x00000000       0x54 mesh/core/libmesh_core_nrf52840_xxAA.a(fifo.c.obj)
 .text.fifo_peek
                0x00000000       0x50 mesh/core/libmesh_core_nrf52840_xxAA.a(fifo.c.obj)
 .text.fifo_flush
                0x00000000        0x8 mesh/core/libmesh_core_nrf52840_xxAA.a(fifo.c.obj)
 .text.fifo_get_len
                0x00000000        0x8 mesh/core/libmesh_core_nrf52840_xxAA.a(fifo.c.obj)
 .text.fifo_is_full
                0x00000000       0x14 mesh/core/libmesh_core_nrf52840_xxAA.a(fifo.c.obj)
 .text.fifo_is_empty
                0x00000000       0x10 mesh/core/libmesh_core_nrf52840_xxAA.a(fifo.c.obj)
 .text          0x00000000        0x0 mesh/core/libmesh_core_nrf52840_xxAA.a(net_state.c.obj)
 .data          0x00000000        0x0 mesh/core/libmesh_core_nrf52840_xxAA.a(net_state.c.obj)
 .bss           0x00000000        0x0 mesh/core/libmesh_core_nrf52840_xxAA.a(net_state.c.obj)
 .text.net_state_iv_update_start
                0x00000000       0x90 mesh/core/libmesh_core_nrf52840_xxAA.a(net_state.c.obj)
 .text.net_state_iv_update_test_mode_set
                0x00000000        0xc mesh/core/libmesh_core_nrf52840_xxAA.a(net_state.c.obj)
 .text          0x00000000        0x0 mesh/core/libmesh_core_nrf52840_xxAA.a(nrf_mesh_utils.c.obj)
 .data          0x00000000        0x0 mesh/core/libmesh_core_nrf52840_xxAA.a(nrf_mesh_utils.c.obj)
 .bss           0x00000000        0x0 mesh/core/libmesh_core_nrf52840_xxAA.a(nrf_mesh_utils.c.obj)
 .text.nrf_mesh_rand_get
                0x00000000       0x10 mesh/core/libmesh_core_nrf52840_xxAA.a(nrf_mesh_utils.c.obj)
 .text.nrf_mesh_gap_address_type_get
                0x00000000       0x40 mesh/core/libmesh_core_nrf52840_xxAA.a(nrf_mesh_utils.c.obj)
 .text          0x00000000        0x0 mesh/core/libmesh_core_nrf52840_xxAA.a(nrf_mesh.c.obj)
 .data          0x00000000        0x0 mesh/core/libmesh_core_nrf52840_xxAA.a(nrf_mesh.c.obj)
 .bss           0x00000000        0x0 mesh/core/libmesh_core_nrf52840_xxAA.a(nrf_mesh.c.obj)
 .text.nrf_mesh_evt_handler_remove
                0x00000000        0x4 mesh/core/libmesh_core_nrf52840_xxAA.a(nrf_mesh.c.obj)
 .text.nrf_mesh_rx_cb_set
                0x00000000        0xc mesh/core/libmesh_core_nrf52840_xxAA.a(nrf_mesh.c.obj)
 .text.nrf_mesh_rx_cb_clear
                0x00000000        0xc mesh/core/libmesh_core_nrf52840_xxAA.a(nrf_mesh.c.obj)
 .text          0x00000000        0x0 mesh/core/libmesh_core_nrf52840_xxAA.a(hal.c.obj)
 .data          0x00000000        0x0 mesh/core/libmesh_core_nrf52840_xxAA.a(hal.c.obj)
 .bss           0x00000000        0x0 mesh/core/libmesh_core_nrf52840_xxAA.a(hal.c.obj)
 .text          0x00000000        0x0 mesh/core/libmesh_core_nrf52840_xxAA.a(timer_scheduler.c.obj)
 .data          0x00000000        0x0 mesh/core/libmesh_core_nrf52840_xxAA.a(timer_scheduler.c.obj)
 .bss           0x00000000        0x0 mesh/core/libmesh_core_nrf52840_xxAA.a(timer_scheduler.c.obj)
 .text          0x00000000        0x0 mesh/core/libmesh_core_nrf52840_xxAA.a(timer.c.obj)
 .data          0x00000000        0x0 mesh/core/libmesh_core_nrf52840_xxAA.a(timer.c.obj)
 .bss           0x00000000        0x0 mesh/core/libmesh_core_nrf52840_xxAA.a(timer.c.obj)
 .text.timer_order_cb_ppi
                0x00000000       0xd8 mesh/core/libmesh_core_nrf52840_xxAA.a(timer.c.obj)
 .text.timer_order_ppi
                0x00000000       0x88 mesh/core/libmesh_core_nrf52840_xxAA.a(timer.c.obj)
 .text.timer_abort
                0x00000000       0x84 mesh/core/libmesh_core_nrf52840_xxAA.a(timer.c.obj)
 .text          0x00000000        0x0 mesh/core/libmesh_core_nrf52840_xxAA.a(ticker.c.obj)
 .data          0x00000000        0x0 mesh/core/libmesh_core_nrf52840_xxAA.a(ticker.c.obj)
 .bss           0x00000000        0x0 mesh/core/libmesh_core_nrf52840_xxAA.a(ticker.c.obj)
 .text.ticker_get
                0x00000000        0xc mesh/core/libmesh_core_nrf52840_xxAA.a(ticker.c.obj)
 .text          0x00000000        0x0 mesh/core/libmesh_core_nrf52840_xxAA.a(rand.c.obj)
 .data          0x00000000        0x0 mesh/core/libmesh_core_nrf52840_xxAA.a(rand.c.obj)
 .bss           0x00000000        0x0 mesh/core/libmesh_core_nrf52840_xxAA.a(rand.c.obj)
 .text          0x00000000        0x0 mesh/core/libmesh_core_nrf52840_xxAA.a(nrf_mesh_opt.c.obj)
 .data          0x00000000        0x0 mesh/core/libmesh_core_nrf52840_xxAA.a(nrf_mesh_opt.c.obj)
 .bss           0x00000000        0x0 mesh/core/libmesh_core_nrf52840_xxAA.a(nrf_mesh_opt.c.obj)
 .text.nrf_mesh_opt_get
                0x00000000       0x28 mesh/core/libmesh_core_nrf52840_xxAA.a(nrf_mesh_opt.c.obj)
 .text          0x00000000        0x0 mesh/core/libmesh_core_nrf52840_xxAA.a(timeslot.c.obj)
 .data          0x00000000        0x0 mesh/core/libmesh_core_nrf52840_xxAA.a(timeslot.c.obj)
 .bss           0x00000000        0x0 mesh/core/libmesh_core_nrf52840_xxAA.a(timeslot.c.obj)
 .text.timeslot_restart
                0x00000000       0x30 mesh/core/libmesh_core_nrf52840_xxAA.a(timeslot.c.obj)
 .text.timeslot_end_time_get
                0x00000000       0x30 mesh/core/libmesh_core_nrf52840_xxAA.a(timeslot.c.obj)
 .text.timeslot_is_in_ts
                0x00000000        0xc mesh/core/libmesh_core_nrf52840_xxAA.a(timeslot.c.obj)
 .text          0x00000000        0x0 mesh/core/libmesh_core_nrf52840_xxAA.a(bearer_event.c.obj)
 .data          0x00000000        0x0 mesh/core/libmesh_core_nrf52840_xxAA.a(bearer_event.c.obj)
 .bss           0x00000000        0x0 mesh/core/libmesh_core_nrf52840_xxAA.a(bearer_event.c.obj)
 .text.bearer_event_timer_sch_post
                0x00000000       0x54 mesh/core/libmesh_core_nrf52840_xxAA.a(bearer_event.c.obj)
 .text          0x00000000        0x0 mesh/core/libmesh_core_nrf52840_xxAA.a(enc.c.obj)
 .data          0x00000000        0x0 mesh/core/libmesh_core_nrf52840_xxAA.a(enc.c.obj)
 .bss           0x00000000        0x0 mesh/core/libmesh_core_nrf52840_xxAA.a(enc.c.obj)
 .text.enc_key_generate
                0x00000000        0x8 mesh/core/libmesh_core_nrf52840_xxAA.a(enc.c.obj)
 .text          0x00000000        0x0 mesh/core/libmesh_core_nrf52840_xxAA.a(network.c.obj)
 .data          0x00000000        0x0 mesh/core/libmesh_core_nrf52840_xxAA.a(network.c.obj)
 .bss           0x00000000        0x0 mesh/core/libmesh_core_nrf52840_xxAA.a(network.c.obj)
 .text.network_opt_get
                0x00000000       0x4c mesh/core/libmesh_core_nrf52840_xxAA.a(network.c.obj)
 .text.network_packet_discard
                0x00000000       0x4c mesh/core/libmesh_core_nrf52840_xxAA.a(network.c.obj)
 .text          0x00000000        0x0 mesh/core/libmesh_core_nrf52840_xxAA.a(nrf_mesh_keygen.c.obj)
 .data          0x00000000        0x0 mesh/core/libmesh_core_nrf52840_xxAA.a(nrf_mesh_keygen.c.obj)
 .bss           0x00000000        0x0 mesh/core/libmesh_core_nrf52840_xxAA.a(nrf_mesh_keygen.c.obj)
 .text.nrf_mesh_keygen_identitykey
                0x00000000       0x4c mesh/core/libmesh_core_nrf52840_xxAA.a(nrf_mesh_keygen.c.obj)
 .text          0x00000000        0x0 mesh/core/libmesh_core_nrf52840_xxAA.a(log.c.obj)
 .data          0x00000000        0x0 mesh/core/libmesh_core_nrf52840_xxAA.a(log.c.obj)
 .bss           0x00000000        0x0 mesh/core/libmesh_core_nrf52840_xxAA.a(log.c.obj)
 .text.log_callback_logview
                0x00000000       0x38 mesh/core/libmesh_core_nrf52840_xxAA.a(log.c.obj)
 .text.log_set_callback
                0x00000000        0xc mesh/core/libmesh_core_nrf52840_xxAA.a(log.c.obj)
 .text.log_vprintf
                0x00000000       0x18 mesh/core/libmesh_core_nrf52840_xxAA.a(log.c.obj)
 .rodata.log_callback_logview.str1.4
                0x00000000       0x12 mesh/core/libmesh_core_nrf52840_xxAA.a(log.c.obj)
 .text          0x00000000        0x0 mesh/core/libmesh_core_nrf52840_xxAA.a(flash_manager.c.obj)
 .data          0x00000000        0x0 mesh/core/libmesh_core_nrf52840_xxAA.a(flash_manager.c.obj)
 .bss           0x00000000        0x0 mesh/core/libmesh_core_nrf52840_xxAA.a(flash_manager.c.obj)
 .text.flash_manager_entry_get
                0x00000000       0x54 mesh/core/libmesh_core_nrf52840_xxAA.a(flash_manager.c.obj)
 .text.flash_manager_entry_count_get
                0x00000000      0x110 mesh/core/libmesh_core_nrf52840_xxAA.a(flash_manager.c.obj)
 .text.flash_manager_entry_release
                0x00000000       0xb4 mesh/core/libmesh_core_nrf52840_xxAA.a(flash_manager.c.obj)
 .text          0x00000000        0x0 mesh/core/libmesh_core_nrf52840_xxAA.a(ccm_soft.c.obj)
 .data          0x00000000        0x0 mesh/core/libmesh_core_nrf52840_xxAA.a(ccm_soft.c.obj)
 .bss           0x00000000        0x0 mesh/core/libmesh_core_nrf52840_xxAA.a(ccm_soft.c.obj)
 .text          0x00000000        0x0 mesh/core/libmesh_core_nrf52840_xxAA.a(beacon.c.obj)
 .data          0x00000000        0x0 mesh/core/libmesh_core_nrf52840_xxAA.a(beacon.c.obj)
 .bss           0x00000000        0x0 mesh/core/libmesh_core_nrf52840_xxAA.a(beacon.c.obj)
 .text          0x00000000        0x0 mesh/core/libmesh_core_nrf52840_xxAA.a(flash_manager_internal.c.obj)
 .data          0x00000000        0x0 mesh/core/libmesh_core_nrf52840_xxAA.a(flash_manager_internal.c.obj)
 .bss           0x00000000        0x0 mesh/core/libmesh_core_nrf52840_xxAA.a(flash_manager_internal.c.obj)
 .text          0x00000000        0x0 mesh/core/libmesh_core_nrf52840_xxAA.a(core_tx.c.obj)
 .data          0x00000000        0x0 mesh/core/libmesh_core_nrf52840_xxAA.a(core_tx.c.obj)
 .bss           0x00000000        0x0 mesh/core/libmesh_core_nrf52840_xxAA.a(core_tx.c.obj)
 .text.core_tx_adv_count_get
                0x00000000       0x2c mesh/core/libmesh_core_nrf52840_xxAA.a(core_tx.c.obj)
 .text.core_tx_adv_interval_get
                0x00000000       0x38 mesh/core/libmesh_core_nrf52840_xxAA.a(core_tx.c.obj)
 .text.core_tx_adv_address_set
                0x00000000       0x34 mesh/core/libmesh_core_nrf52840_xxAA.a(core_tx.c.obj)
 .text          0x00000000        0x0 mesh/core/libmesh_core_nrf52840_xxAA.a(net_beacon.c.obj)
 .data          0x00000000        0x0 mesh/core/libmesh_core_nrf52840_xxAA.a(net_beacon.c.obj)
 .bss           0x00000000        0x0 mesh/core/libmesh_core_nrf52840_xxAA.a(net_beacon.c.obj)
 .text.net_beacon_state_set
                0x00000000       0x3c mesh/core/libmesh_core_nrf52840_xxAA.a(net_beacon.c.obj)
 .text.net_beacon_state_get
                0x00000000        0xc mesh/core/libmesh_core_nrf52840_xxAA.a(net_beacon.c.obj)
 .text          0x00000000        0x0 mesh/core/libmesh_core_nrf52840_xxAA.a(advertiser.c.obj)
 .data          0x00000000        0x0 mesh/core/libmesh_core_nrf52840_xxAA.a(advertiser.c.obj)
 .bss           0x00000000        0x0 mesh/core/libmesh_core_nrf52840_xxAA.a(advertiser.c.obj)
 .text.advertiser_config_set
                0x00000000      0x12c mesh/core/libmesh_core_nrf52840_xxAA.a(advertiser.c.obj)
 .text.advertiser_address_set
                0x00000000       0x80 mesh/core/libmesh_core_nrf52840_xxAA.a(advertiser.c.obj)
 .text.advertiser_config_get
                0x00000000       0x30 mesh/core/libmesh_core_nrf52840_xxAA.a(advertiser.c.obj)
 .text          0x00000000        0x0 mesh/core/libmesh_core_nrf52840_xxAA.a(bearer_handler.c.obj)
 .data          0x00000000        0x0 mesh/core/libmesh_core_nrf52840_xxAA.a(bearer_handler.c.obj)
 .bss           0x00000000        0x0 mesh/core/libmesh_core_nrf52840_xxAA.a(bearer_handler.c.obj)
 .text.bearer_handler_action_fire
                0x00000000       0xb0 mesh/core/libmesh_core_nrf52840_xxAA.a(bearer_handler.c.obj)
 .text          0x00000000        0x0 mesh/core/libmesh_core_nrf52840_xxAA.a(broadcast.c.obj)
 .data          0x00000000        0x0 mesh/core/libmesh_core_nrf52840_xxAA.a(broadcast.c.obj)
 .bss           0x00000000        0x0 mesh/core/libmesh_core_nrf52840_xxAA.a(broadcast.c.obj)
 .text          0x00000000        0x0 mesh/core/libmesh_core_nrf52840_xxAA.a(radio_config.c.obj)
 .data          0x00000000        0x0 mesh/core/libmesh_core_nrf52840_xxAA.a(radio_config.c.obj)
 .bss           0x00000000        0x0 mesh/core/libmesh_core_nrf52840_xxAA.a(radio_config.c.obj)
 .text.radio_config_access_addr_get
                0x00000000       0x6c mesh/core/libmesh_core_nrf52840_xxAA.a(radio_config.c.obj)
 .text          0x00000000        0x0 mesh/core/libmesh_core_nrf52840_xxAA.a(scanner.c.obj)
 .data          0x00000000        0x0 mesh/core/libmesh_core_nrf52840_xxAA.a(scanner.c.obj)
 .bss           0x00000000        0x0 mesh/core/libmesh_core_nrf52840_xxAA.a(scanner.c.obj)
 .text.scanner_is_enabled
                0x00000000       0x14 mesh/core/libmesh_core_nrf52840_xxAA.a(scanner.c.obj)
 .text.scanner_stats_get
                0x00000000        0x8 mesh/core/libmesh_core_nrf52840_xxAA.a(scanner.c.obj)
 .text.scanner_config_radio_mode_set
                0x00000000       0x10 mesh/core/libmesh_core_nrf52840_xxAA.a(scanner.c.obj)
 .text.scanner_config_scan_time_set
                0x00000000       0x94 mesh/core/libmesh_core_nrf52840_xxAA.a(scanner.c.obj)
 .text.scanner_config_channels_set
                0x00000000       0x64 mesh/core/libmesh_core_nrf52840_xxAA.a(scanner.c.obj)
 .text.scanner_config_access_addresses_set
                0x00000000       0x44 mesh/core/libmesh_core_nrf52840_xxAA.a(scanner.c.obj)
 .text          0x00000000        0x0 mesh/core/libmesh_core_nrf52840_xxAA.a(aes.c.obj)
 .data          0x00000000        0x0 mesh/core/libmesh_core_nrf52840_xxAA.a(aes.c.obj)
 .bss           0x00000000        0x0 mesh/core/libmesh_core_nrf52840_xxAA.a(aes.c.obj)
 .text          0x00000000        0x0 mesh/core/libmesh_core_nrf52840_xxAA.a(msg_cache.c.obj)
 .data          0x00000000        0x0 mesh/core/libmesh_core_nrf52840_xxAA.a(msg_cache.c.obj)
 .bss           0x00000000        0x0 mesh/core/libmesh_core_nrf52840_xxAA.a(msg_cache.c.obj)
 .text.msg_cache_clear
                0x00000000       0x18 mesh/core/libmesh_core_nrf52840_xxAA.a(msg_cache.c.obj)
 .text          0x00000000        0x0 mesh/core/libmesh_core_nrf52840_xxAA.a(transport.c.obj)
 .data          0x00000000        0x0 mesh/core/libmesh_core_nrf52840_xxAA.a(transport.c.obj)
 .bss           0x00000000        0x0 mesh/core/libmesh_core_nrf52840_xxAA.a(transport.c.obj)
 .text.transport_sar_mem_funcs_reset
                0x00000000       0x30 mesh/core/libmesh_core_nrf52840_xxAA.a(transport.c.obj)
 .text.transport_sar_mem_funcs_set
                0x00000000       0x48 mesh/core/libmesh_core_nrf52840_xxAA.a(transport.c.obj)
 .text.transport_opt_get
                0x00000000       0x84 mesh/core/libmesh_core_nrf52840_xxAA.a(transport.c.obj)
 .text          0x00000000        0x0 mesh/core/libmesh_core_nrf52840_xxAA.a(flash_manager_defrag.c.obj)
 .data          0x00000000        0x0 mesh/core/libmesh_core_nrf52840_xxAA.a(flash_manager_defrag.c.obj)
 .bss           0x00000000        0x0 mesh/core/libmesh_core_nrf52840_xxAA.a(flash_manager_defrag.c.obj)
 .text.flash_manager_defragging
                0x00000000       0x50 mesh/core/libmesh_core_nrf52840_xxAA.a(flash_manager_defrag.c.obj)
 .text          0x00000000        0x0 mesh/core/libmesh_core_nrf52840_xxAA.a(packet_mgr.c.obj)
 .data          0x00000000        0x0 mesh/core/libmesh_core_nrf52840_xxAA.a(packet_mgr.c.obj)
 .bss           0x00000000        0x0 mesh/core/libmesh_core_nrf52840_xxAA.a(packet_mgr.c.obj)
 .text.packet_mgr_alloc
                0x00000000      0x1dc mesh/core/libmesh_core_nrf52840_xxAA.a(packet_mgr.c.obj)
 .text.packet_mgr_free
                0x00000000       0x70 mesh/core/libmesh_core_nrf52840_xxAA.a(packet_mgr.c.obj)
 .text.packet_mgr_get_free_space
                0x00000000       0x1c mesh/core/libmesh_core_nrf52840_xxAA.a(packet_mgr.c.obj)
 .text.packet_mgr_refcount_get
                0x00000000        0x8 mesh/core/libmesh_core_nrf52840_xxAA.a(packet_mgr.c.obj)
 .text.packet_mgr_size_get
                0x00000000        0x8 mesh/core/libmesh_core_nrf52840_xxAA.a(packet_mgr.c.obj)
 .text          0x00000000        0x0 mesh/core/libmesh_core_nrf52840_xxAA.a(mesh_flash.c.obj)
 .data          0x00000000        0x0 mesh/core/libmesh_core_nrf52840_xxAA.a(mesh_flash.c.obj)
 .bss           0x00000000        0x0 mesh/core/libmesh_core_nrf52840_xxAA.a(mesh_flash.c.obj)
 .text.mesh_flash_op_available_slots
                0x00000000       0x2c mesh/core/libmesh_core_nrf52840_xxAA.a(mesh_flash.c.obj)
 .text.mesh_flash_in_progress
                0x00000000       0x34 mesh/core/libmesh_core_nrf52840_xxAA.a(mesh_flash.c.obj)
 .text.mesh_flash_set_suspended
                0x00000000       0x90 mesh/core/libmesh_core_nrf52840_xxAA.a(mesh_flash.c.obj)
 .bss.suspend_count.10174
                0x00000000        0x4 mesh/core/libmesh_core_nrf52840_xxAA.a(mesh_flash.c.obj)
 .text          0x00000000        0x0 mesh/core/libmesh_core_nrf52840_xxAA.a(queue.c.obj)
 .data          0x00000000        0x0 mesh/core/libmesh_core_nrf52840_xxAA.a(queue.c.obj)
 .bss           0x00000000        0x0 mesh/core/libmesh_core_nrf52840_xxAA.a(queue.c.obj)
 .text          0x00000000        0x0 mesh/core/libmesh_core_nrf52840_xxAA.a(aes_cmac.c.obj)
 .data          0x00000000        0x0 mesh/core/libmesh_core_nrf52840_xxAA.a(aes_cmac.c.obj)
 .bss           0x00000000        0x0 mesh/core/libmesh_core_nrf52840_xxAA.a(aes_cmac.c.obj)
 .text          0x00000000        0x0 mesh/core/libmesh_core_nrf52840_xxAA.a(msqueue.c.obj)
 .data          0x00000000        0x0 mesh/core/libmesh_core_nrf52840_xxAA.a(msqueue.c.obj)
 .bss           0x00000000        0x0 mesh/core/libmesh_core_nrf52840_xxAA.a(msqueue.c.obj)
 .text.msq_reset
                0x00000000       0x34 mesh/core/libmesh_core_nrf52840_xxAA.a(msqueue.c.obj)
 .text          0x00000000        0x0 mesh/core/libmesh_core_nrf52840_xxAA.a(replay_cache.c.obj)
 .data          0x00000000        0x0 mesh/core/libmesh_core_nrf52840_xxAA.a(replay_cache.c.obj)
 .bss           0x00000000        0x0 mesh/core/libmesh_core_nrf52840_xxAA.a(replay_cache.c.obj)
 .text.replay_cache_on_iv_update
                0x00000000       0x2c mesh/core/libmesh_core_nrf52840_xxAA.a(replay_cache.c.obj)
 .text.replay_cache_clear
                0x00000000       0x28 mesh/core/libmesh_core_nrf52840_xxAA.a(replay_cache.c.obj)
 .text          0x00000000        0x0 mesh/core/libmesh_core_nrf52840_xxAA.a(filter_engine.c.obj)
 .data          0x00000000        0x0 mesh/core/libmesh_core_nrf52840_xxAA.a(filter_engine.c.obj)
 .bss           0x00000000        0x0 mesh/core/libmesh_core_nrf52840_xxAA.a(filter_engine.c.obj)
 .text.fen_filter_start
                0x00000000       0x84 mesh/core/libmesh_core_nrf52840_xxAA.a(filter_engine.c.obj)
 .text.fen_filter_stop
                0x00000000       0x70 mesh/core/libmesh_core_nrf52840_xxAA.a(filter_engine.c.obj)
 .text.fen_accepted_amount_get
                0x00000000        0xc mesh/core/libmesh_core_nrf52840_xxAA.a(filter_engine.c.obj)
 .text          0x00000000        0x0 mesh/core/libmesh_core_nrf52840_xxAA.a(nrf_flash.c.obj)
 .data          0x00000000        0x0 mesh/core/libmesh_core_nrf52840_xxAA.a(nrf_flash.c.obj)
 .bss           0x00000000        0x0 mesh/core/libmesh_core_nrf52840_xxAA.a(nrf_flash.c.obj)
 .text          0x00000000        0x0 external/micro-ecc/libuECC_nrf52840_xxAA.a(uECC.c.obj)
 .data          0x00000000        0x0 external/micro-ecc/libuECC_nrf52840_xxAA.a(uECC.c.obj)
 .bss           0x00000000        0x0 external/micro-ecc/libuECC_nrf52840_xxAA.a(uECC.c.obj)
 .text.HMAC_finish
                0x00000000       0x70 external/micro-ecc/libuECC_nrf52840_xxAA.a(uECC.c.obj)
 .text.uECC_vli_mmod
                0x00000000      0x3c8 external/micro-ecc/libuECC_nrf52840_xxAA.a(uECC.c.obj)
 .text.uECC_vli_modSub.isra.2
                0x00000000       0x98 external/micro-ecc/libuECC_nrf52840_xxAA.a(uECC.c.obj)
 .text.bits2int
                0x00000000      0x14c external/micro-ecc/libuECC_nrf52840_xxAA.a(uECC.c.obj)
 .text.uECC_sign_with_k
                0x00000000      0x60c external/micro-ecc/libuECC_nrf52840_xxAA.a(uECC.c.obj)
 .text.uECC_set_rng
                0x00000000        0xc external/micro-ecc/libuECC_nrf52840_xxAA.a(uECC.c.obj)
 .text.uECC_get_rng
                0x00000000        0xc external/micro-ecc/libuECC_nrf52840_xxAA.a(uECC.c.obj)
 .text.uECC_curve_private_key_size
                0x00000000       0x10 external/micro-ecc/libuECC_nrf52840_xxAA.a(uECC.c.obj)
 .text.uECC_curve_public_key_size
                0x00000000        0x8 external/micro-ecc/libuECC_nrf52840_xxAA.a(uECC.c.obj)
 .text.uECC_compute_public_key
                0x00000000      0x2e4 external/micro-ecc/libuECC_nrf52840_xxAA.a(uECC.c.obj)
 .text.uECC_sign
                0x00000000       0x60 external/micro-ecc/libuECC_nrf52840_xxAA.a(uECC.c.obj)
 .text.uECC_sign_deterministic
                0x00000000      0x400 external/micro-ecc/libuECC_nrf52840_xxAA.a(uECC.c.obj)
 .text.uECC_verify
                0x00000000      0x95c external/micro-ecc/libuECC_nrf52840_xxAA.a(uECC.c.obj)
 .text          0x00000000        0x0 external/rtt/librtt_nrf52840_xxAA.a(SEGGER_RTT.c.obj)
 .data          0x00000000        0x0 external/rtt/librtt_nrf52840_xxAA.a(SEGGER_RTT.c.obj)
 .bss           0x00000000        0x0 external/rtt/librtt_nrf52840_xxAA.a(SEGGER_RTT.c.obj)
 .text.SEGGER_RTT_ReadNoLock
                0x00000000      0x100 external/rtt/librtt_nrf52840_xxAA.a(SEGGER_RTT.c.obj)
 .text.SEGGER_RTT_Read
                0x00000000      0x114 external/rtt/librtt_nrf52840_xxAA.a(SEGGER_RTT.c.obj)
 .text.SEGGER_RTT_WriteSkipNoLock
                0x00000000      0x184 external/rtt/librtt_nrf52840_xxAA.a(SEGGER_RTT.c.obj)
 .text.SEGGER_RTT_WriteNoLock
                0x00000000      0x188 external/rtt/librtt_nrf52840_xxAA.a(SEGGER_RTT.c.obj)
 .text.SEGGER_RTT_WriteString
                0x00000000      0x20c external/rtt/librtt_nrf52840_xxAA.a(SEGGER_RTT.c.obj)
 .text.SEGGER_RTT_GetKey
                0x00000000       0xec external/rtt/librtt_nrf52840_xxAA.a(SEGGER_RTT.c.obj)
 .text.SEGGER_RTT_WaitKey
                0x00000000      0x114 external/rtt/librtt_nrf52840_xxAA.a(SEGGER_RTT.c.obj)
 .text.SEGGER_RTT_HasKey
                0x00000000       0x6c external/rtt/librtt_nrf52840_xxAA.a(SEGGER_RTT.c.obj)
 .text.SEGGER_RTT_HasData
                0x00000000       0x18 external/rtt/librtt_nrf52840_xxAA.a(SEGGER_RTT.c.obj)
 .text.SEGGER_RTT_AllocDownBuffer
                0x00000000       0xbc external/rtt/librtt_nrf52840_xxAA.a(SEGGER_RTT.c.obj)
 .text.SEGGER_RTT_AllocUpBuffer
                0x00000000       0xd8 external/rtt/librtt_nrf52840_xxAA.a(SEGGER_RTT.c.obj)
 .text.SEGGER_RTT_ConfigUpBuffer
                0x00000000       0xd0 external/rtt/librtt_nrf52840_xxAA.a(SEGGER_RTT.c.obj)
 .text.SEGGER_RTT_ConfigDownBuffer
                0x00000000       0xb8 external/rtt/librtt_nrf52840_xxAA.a(SEGGER_RTT.c.obj)
 .text.SEGGER_RTT_SetNameUpBuffer
                0x00000000       0x90 external/rtt/librtt_nrf52840_xxAA.a(SEGGER_RTT.c.obj)
 .text.SEGGER_RTT_SetNameDownBuffer
                0x00000000       0x90 external/rtt/librtt_nrf52840_xxAA.a(SEGGER_RTT.c.obj)
 .text.SEGGER_RTT_Init
                0x00000000       0x60 external/rtt/librtt_nrf52840_xxAA.a(SEGGER_RTT.c.obj)
 .text.SEGGER_RTT_SetTerminal
                0x00000000      0x15c external/rtt/librtt_nrf52840_xxAA.a(SEGGER_RTT.c.obj)
 .text.SEGGER_RTT_TerminalOut
                0x00000000      0x40c external/rtt/librtt_nrf52840_xxAA.a(SEGGER_RTT.c.obj)
 .bss._ActiveTerminal
                0x00000000        0x1 external/rtt/librtt_nrf52840_xxAA.a(SEGGER_RTT.c.obj)
 .rodata._aTerminalId
                0x00000000       0x10 external/rtt/librtt_nrf52840_xxAA.a(SEGGER_RTT.c.obj)
 .text          0x00000000        0x0 external/rtt/librtt_nrf52840_xxAA.a(SEGGER_RTT_printf.c.obj)
 .data          0x00000000        0x0 external/rtt/librtt_nrf52840_xxAA.a(SEGGER_RTT_printf.c.obj)
 .bss           0x00000000        0x0 external/rtt/librtt_nrf52840_xxAA.a(SEGGER_RTT_printf.c.obj)
 .text          0x00000000        0x0 c:/a/gcc_arm/6/bin/../lib/gcc/arm-none-eabi/6.3.1/../../../../arm-none-eabi/lib/thumb/v7e-m/fpv4-sp/hard\libc_nano.a(lib_a-exit.o)
 .data          0x00000000        0x0 c:/a/gcc_arm/6/bin/../lib/gcc/arm-none-eabi/6.3.1/../../../../arm-none-eabi/lib/thumb/v7e-m/fpv4-sp/hard\libc_nano.a(lib_a-exit.o)
 .bss           0x00000000        0x0 c:/a/gcc_arm/6/bin/../lib/gcc/arm-none-eabi/6.3.1/../../../../arm-none-eabi/lib/thumb/v7e-m/fpv4-sp/hard\libc_nano.a(lib_a-exit.o)
 .text          0x00000000        0x0 c:/a/gcc_arm/6/bin/../lib/gcc/arm-none-eabi/6.3.1/../../../../arm-none-eabi/lib/thumb/v7e-m/fpv4-sp/hard\libc_nano.a(lib_a-impure.o)
 .data          0x00000000        0x0 c:/a/gcc_arm/6/bin/../lib/gcc/arm-none-eabi/6.3.1/../../../../arm-none-eabi/lib/thumb/v7e-m/fpv4-sp/hard\libc_nano.a(lib_a-impure.o)
 .bss           0x00000000        0x0 c:/a/gcc_arm/6/bin/../lib/gcc/arm-none-eabi/6.3.1/../../../../arm-none-eabi/lib/thumb/v7e-m/fpv4-sp/hard\libc_nano.a(lib_a-impure.o)
 .text          0x00000000        0x0 c:/a/gcc_arm/6/bin/../lib/gcc/arm-none-eabi/6.3.1/../../../../arm-none-eabi/lib/thumb/v7e-m/fpv4-sp/hard\libc_nano.a(lib_a-init.o)
 .data          0x00000000        0x0 c:/a/gcc_arm/6/bin/../lib/gcc/arm-none-eabi/6.3.1/../../../../arm-none-eabi/lib/thumb/v7e-m/fpv4-sp/hard\libc_nano.a(lib_a-init.o)
 .bss           0x00000000        0x0 c:/a/gcc_arm/6/bin/../lib/gcc/arm-none-eabi/6.3.1/../../../../arm-none-eabi/lib/thumb/v7e-m/fpv4-sp/hard\libc_nano.a(lib_a-init.o)
 .text          0x00000000        0x0 c:/a/gcc_arm/6/bin/../lib/gcc/arm-none-eabi/6.3.1/../../../../arm-none-eabi/lib/thumb/v7e-m/fpv4-sp/hard\libc_nano.a(lib_a-malloc.o)
 .data          0x00000000        0x0 c:/a/gcc_arm/6/bin/../lib/gcc/arm-none-eabi/6.3.1/../../../../arm-none-eabi/lib/thumb/v7e-m/fpv4-sp/hard\libc_nano.a(lib_a-malloc.o)
 .bss           0x00000000        0x0 c:/a/gcc_arm/6/bin/../lib/gcc/arm-none-eabi/6.3.1/../../../../arm-none-eabi/lib/thumb/v7e-m/fpv4-sp/hard\libc_nano.a(lib_a-malloc.o)
 .text          0x00000000        0x0 c:/a/gcc_arm/6/bin/../lib/gcc/arm-none-eabi/6.3.1/../../../../arm-none-eabi/lib/thumb/v7e-m/fpv4-sp/hard\libc_nano.a(lib_a-memcmp.o)
 .data          0x00000000        0x0 c:/a/gcc_arm/6/bin/../lib/gcc/arm-none-eabi/6.3.1/../../../../arm-none-eabi/lib/thumb/v7e-m/fpv4-sp/hard\libc_nano.a(lib_a-memcmp.o)
 .bss           0x00000000        0x0 c:/a/gcc_arm/6/bin/../lib/gcc/arm-none-eabi/6.3.1/../../../../arm-none-eabi/lib/thumb/v7e-m/fpv4-sp/hard\libc_nano.a(lib_a-memcmp.o)
 .text          0x00000000        0x0 c:/a/gcc_arm/6/bin/../lib/gcc/arm-none-eabi/6.3.1/../../../../arm-none-eabi/lib/thumb/v7e-m/fpv4-sp/hard\libc_nano.a(lib_a-memcpy-stub.o)
 .data          0x00000000        0x0 c:/a/gcc_arm/6/bin/../lib/gcc/arm-none-eabi/6.3.1/../../../../arm-none-eabi/lib/thumb/v7e-m/fpv4-sp/hard\libc_nano.a(lib_a-memcpy-stub.o)
 .bss           0x00000000        0x0 c:/a/gcc_arm/6/bin/../lib/gcc/arm-none-eabi/6.3.1/../../../../arm-none-eabi/lib/thumb/v7e-m/fpv4-sp/hard\libc_nano.a(lib_a-memcpy-stub.o)
 .text          0x00000000        0x0 c:/a/gcc_arm/6/bin/../lib/gcc/arm-none-eabi/6.3.1/../../../../arm-none-eabi/lib/thumb/v7e-m/fpv4-sp/hard\libc_nano.a(lib_a-memset.o)
 .data          0x00000000        0x0 c:/a/gcc_arm/6/bin/../lib/gcc/arm-none-eabi/6.3.1/../../../../arm-none-eabi/lib/thumb/v7e-m/fpv4-sp/hard\libc_nano.a(lib_a-memset.o)
 .bss           0x00000000        0x0 c:/a/gcc_arm/6/bin/../lib/gcc/arm-none-eabi/6.3.1/../../../../arm-none-eabi/lib/thumb/v7e-m/fpv4-sp/hard\libc_nano.a(lib_a-memset.o)
 .text          0x00000000        0x0 c:/a/gcc_arm/6/bin/../lib/gcc/arm-none-eabi/6.3.1/../../../../arm-none-eabi/lib/thumb/v7e-m/fpv4-sp/hard\libc_nano.a(lib_a-nano-freer.o)
 .data          0x00000000        0x0 c:/a/gcc_arm/6/bin/../lib/gcc/arm-none-eabi/6.3.1/../../../../arm-none-eabi/lib/thumb/v7e-m/fpv4-sp/hard\libc_nano.a(lib_a-nano-freer.o)
 .bss           0x00000000        0x0 c:/a/gcc_arm/6/bin/../lib/gcc/arm-none-eabi/6.3.1/../../../../arm-none-eabi/lib/thumb/v7e-m/fpv4-sp/hard\libc_nano.a(lib_a-nano-freer.o)
 .text          0x00000000        0x0 c:/a/gcc_arm/6/bin/../lib/gcc/arm-none-eabi/6.3.1/../../../../arm-none-eabi/lib/thumb/v7e-m/fpv4-sp/hard\libc_nano.a(lib_a-nano-mallocr.o)
 .data          0x00000000        0x0 c:/a/gcc_arm/6/bin/../lib/gcc/arm-none-eabi/6.3.1/../../../../arm-none-eabi/lib/thumb/v7e-m/fpv4-sp/hard\libc_nano.a(lib_a-nano-mallocr.o)
 .bss           0x00000000        0x0 c:/a/gcc_arm/6/bin/../lib/gcc/arm-none-eabi/6.3.1/../../../../arm-none-eabi/lib/thumb/v7e-m/fpv4-sp/hard\libc_nano.a(lib_a-nano-mallocr.o)
 .text          0x00000000        0x0 c:/a/gcc_arm/6/bin/../lib/gcc/arm-none-eabi/6.3.1/../../../../arm-none-eabi/lib/thumb/v7e-m/fpv4-sp/hard\libc_nano.a(lib_a-sbrkr.o)
 .data          0x00000000        0x0 c:/a/gcc_arm/6/bin/../lib/gcc/arm-none-eabi/6.3.1/../../../../arm-none-eabi/lib/thumb/v7e-m/fpv4-sp/hard\libc_nano.a(lib_a-sbrkr.o)
 .bss           0x00000000        0x0 c:/a/gcc_arm/6/bin/../lib/gcc/arm-none-eabi/6.3.1/../../../../arm-none-eabi/lib/thumb/v7e-m/fpv4-sp/hard\libc_nano.a(lib_a-sbrkr.o)
 .text          0x00000000        0x0 c:/a/gcc_arm/6/bin/../lib/gcc/arm-none-eabi/6.3.1/../../../../arm-none-eabi/lib/thumb/v7e-m/fpv4-sp/hard\libc_nano.a(lib_a-strcpy.o)
 .data          0x00000000        0x0 c:/a/gcc_arm/6/bin/../lib/gcc/arm-none-eabi/6.3.1/../../../../arm-none-eabi/lib/thumb/v7e-m/fpv4-sp/hard\libc_nano.a(lib_a-strcpy.o)
 .bss           0x00000000        0x0 c:/a/gcc_arm/6/bin/../lib/gcc/arm-none-eabi/6.3.1/../../../../arm-none-eabi/lib/thumb/v7e-m/fpv4-sp/hard\libc_nano.a(lib_a-strcpy.o)
 .data          0x00000000        0x0 c:/a/gcc_arm/6/bin/../lib/gcc/arm-none-eabi/6.3.1/../../../../arm-none-eabi/lib/thumb/v7e-m/fpv4-sp/hard\libc_nano.a(lib_a-strlen.o)
 .bss           0x00000000        0x0 c:/a/gcc_arm/6/bin/../lib/gcc/arm-none-eabi/6.3.1/../../../../arm-none-eabi/lib/thumb/v7e-m/fpv4-sp/hard\libc_nano.a(lib_a-strlen.o)
 .text          0x00000000        0x0 c:/a/gcc_arm/6/bin/../lib/gcc/arm-none-eabi/6.3.1/../../../../arm-none-eabi/lib/thumb/v7e-m/fpv4-sp/hard\libc_nano.a(lib_a-strrchr.o)
 .data          0x00000000        0x0 c:/a/gcc_arm/6/bin/../lib/gcc/arm-none-eabi/6.3.1/../../../../arm-none-eabi/lib/thumb/v7e-m/fpv4-sp/hard\libc_nano.a(lib_a-strrchr.o)
 .bss           0x00000000        0x0 c:/a/gcc_arm/6/bin/../lib/gcc/arm-none-eabi/6.3.1/../../../../arm-none-eabi/lib/thumb/v7e-m/fpv4-sp/hard\libc_nano.a(lib_a-strrchr.o)
 .text          0x00000000        0x0 c:/a/gcc_arm/6/bin/../lib/gcc/arm-none-eabi/6.3.1/../../../../arm-none-eabi/lib/thumb/v7e-m/fpv4-sp/hard\libc_nano.a(lib_a-mlock.o)
 .data          0x00000000        0x0 c:/a/gcc_arm/6/bin/../lib/gcc/arm-none-eabi/6.3.1/../../../../arm-none-eabi/lib/thumb/v7e-m/fpv4-sp/hard\libc_nano.a(lib_a-mlock.o)
 .bss           0x00000000        0x0 c:/a/gcc_arm/6/bin/../lib/gcc/arm-none-eabi/6.3.1/../../../../arm-none-eabi/lib/thumb/v7e-m/fpv4-sp/hard\libc_nano.a(lib_a-mlock.o)
 .text          0x00000000        0x0 c:/a/gcc_arm/6/bin/../lib/gcc/arm-none-eabi/6.3.1/../../../../arm-none-eabi/lib/thumb/v7e-m/fpv4-sp/hard\libc_nano.a(lib_a-reent.o)
 .data          0x00000000        0x0 c:/a/gcc_arm/6/bin/../lib/gcc/arm-none-eabi/6.3.1/../../../../arm-none-eabi/lib/thumb/v7e-m/fpv4-sp/hard\libc_nano.a(lib_a-reent.o)
 .bss           0x00000000        0x0 c:/a/gcc_arm/6/bin/../lib/gcc/arm-none-eabi/6.3.1/../../../../arm-none-eabi/lib/thumb/v7e-m/fpv4-sp/hard\libc_nano.a(lib_a-reent.o)
 .text.cleanup_glue
                0x00000000       0x1a c:/a/gcc_arm/6/bin/../lib/gcc/arm-none-eabi/6.3.1/../../../../arm-none-eabi/lib/thumb/v7e-m/fpv4-sp/hard\libc_nano.a(lib_a-reent.o)
 .text._reclaim_reent
                0x00000000       0xb8 c:/a/gcc_arm/6/bin/../lib/gcc/arm-none-eabi/6.3.1/../../../../arm-none-eabi/lib/thumb/v7e-m/fpv4-sp/hard\libc_nano.a(lib_a-reent.o)
 .text          0x00000000        0x0 c:/a/gcc_arm/6/bin/../lib/gcc/arm-none-eabi/6.3.1/../../../../arm-none-eabi/lib/thumb/v7e-m/fpv4-sp/hard\libc_nano.a(lib_a-strchr.o)
 .data          0x00000000        0x0 c:/a/gcc_arm/6/bin/../lib/gcc/arm-none-eabi/6.3.1/../../../../arm-none-eabi/lib/thumb/v7e-m/fpv4-sp/hard\libc_nano.a(lib_a-strchr.o)
 .bss           0x00000000        0x0 c:/a/gcc_arm/6/bin/../lib/gcc/arm-none-eabi/6.3.1/../../../../arm-none-eabi/lib/thumb/v7e-m/fpv4-sp/hard\libc_nano.a(lib_a-strchr.o)
 .text          0x00000000        0x0 c:/a/gcc_arm/6/bin/../lib/gcc/arm-none-eabi/6.3.1/thumb/v7e-m/fpv4-sp/hard/crtend.o
 .data          0x00000000        0x0 c:/a/gcc_arm/6/bin/../lib/gcc/arm-none-eabi/6.3.1/thumb/v7e-m/fpv4-sp/hard/crtend.o
 .bss           0x00000000        0x0 c:/a/gcc_arm/6/bin/../lib/gcc/arm-none-eabi/6.3.1/thumb/v7e-m/fpv4-sp/hard/crtend.o
 .text          0x00000000        0x0 c:/a/gcc_arm/6/bin/../lib/gcc/arm-none-eabi/6.3.1/thumb/v7e-m/fpv4-sp/hard/crtn.o
 .data          0x00000000        0x0 c:/a/gcc_arm/6/bin/../lib/gcc/arm-none-eabi/6.3.1/thumb/v7e-m/fpv4-sp/hard/crtn.o
 .bss           0x00000000        0x0 c:/a/gcc_arm/6/bin/../lib/gcc/arm-none-eabi/6.3.1/thumb/v7e-m/fpv4-sp/hard/crtn.o
 .text          0x00000000        0x0 c:/a/gcc_arm/6/bin/../lib/gcc/arm-none-eabi/6.3.1/../../../../arm-none-eabi/lib/thumb/v7e-m/fpv4-sp/hard\libnosys.a(sbrk.o)
 .data          0x00000000        0x0 c:/a/gcc_arm/6/bin/../lib/gcc/arm-none-eabi/6.3.1/../../../../arm-none-eabi/lib/thumb/v7e-m/fpv4-sp/hard\libnosys.a(sbrk.o)
 .bss           0x00000000        0x0 c:/a/gcc_arm/6/bin/../lib/gcc/arm-none-eabi/6.3.1/../../../../arm-none-eabi/lib/thumb/v7e-m/fpv4-sp/hard\libnosys.a(sbrk.o)
 .text          0x00000000        0x0 c:/a/gcc_arm/6/bin/../lib/gcc/arm-none-eabi/6.3.1/../../../../arm-none-eabi/lib/thumb/v7e-m/fpv4-sp/hard\libnosys.a(_exit.o)
 .data          0x00000000        0x0 c:/a/gcc_arm/6/bin/../lib/gcc/arm-none-eabi/6.3.1/../../../../arm-none-eabi/lib/thumb/v7e-m/fpv4-sp/hard\libnosys.a(_exit.o)
 .bss           0x00000000        0x0 c:/a/gcc_arm/6/bin/../lib/gcc/arm-none-eabi/6.3.1/../../../../arm-none-eabi/lib/thumb/v7e-m/fpv4-sp/hard\libnosys.a(_exit.o)

Memory Configuration

Name             Origin             Length             Attributes
FLASH            0x00024000         0x000dc000         xr
RAM              0x200031b8         0x0003be4a         xrw
*default*        0x00000000         0xffffffff

Linker script and memory map

LOAD c:/a/gcc_arm/6/bin/../lib/gcc/arm-none-eabi/6.3.1/thumb/v7e-m/fpv4-sp/hard/crti.o
LOAD c:/a/gcc_arm/6/bin/../lib/gcc/arm-none-eabi/6.3.1/thumb/v7e-m/fpv4-sp/hard/crtbegin.o
LOAD c:/a/gcc_arm/6/bin/../lib/gcc/arm-none-eabi/6.3.1/../../../../arm-none-eabi/lib/thumb/v7e-m/fpv4-sp/hard/crt0.o
LOAD examples/serial/CMakeFiles/serial_nrf52840_xxAA_s140_5.0.0-3.alpha.dir/src/main.c.obj
LOAD examples/serial/CMakeFiles/serial_nrf52840_xxAA_s140_5.0.0-3.alpha.dir/__/nrf_mesh_sdk.c.obj
LOAD examples/serial/CMakeFiles/serial_nrf52840_xxAA_s140_5.0.0-3.alpha.dir/__/__/mesh/prov/src/prov_provisioner.c.obj
LOAD examples/serial/CMakeFiles/serial_nrf52840_xxAA_s140_5.0.0-3.alpha.dir/__/__/mesh/prov/src/prov_provisionee.c.obj
LOAD examples/serial/CMakeFiles/serial_nrf52840_xxAA_s140_5.0.0-3.alpha.dir/__/__/mesh/prov/src/nrf_mesh_prov.c.obj
LOAD examples/serial/CMakeFiles/serial_nrf52840_xxAA_s140_5.0.0-3.alpha.dir/__/__/mesh/prov/src/provisioning.c.obj
LOAD examples/serial/CMakeFiles/serial_nrf52840_xxAA_s140_5.0.0-3.alpha.dir/__/__/mesh/prov/src/prov_beacon.c.obj
LOAD examples/serial/CMakeFiles/serial_nrf52840_xxAA_s140_5.0.0-3.alpha.dir/__/__/mesh/prov/src/prov_utils.c.obj
LOAD examples/serial/CMakeFiles/serial_nrf52840_xxAA_s140_5.0.0-3.alpha.dir/__/__/mesh/prov/src/prov_bearer_adv.c.obj
LOAD examples/serial/CMakeFiles/serial_nrf52840_xxAA_s140_5.0.0-3.alpha.dir/__/__/mesh/access/src/access_publish.c.obj
LOAD examples/serial/CMakeFiles/serial_nrf52840_xxAA_s140_5.0.0-3.alpha.dir/__/__/mesh/access/src/access.c.obj
LOAD examples/serial/CMakeFiles/serial_nrf52840_xxAA_s140_5.0.0-3.alpha.dir/__/__/mesh/access/src/access_reliable.c.obj
LOAD examples/serial/CMakeFiles/serial_nrf52840_xxAA_s140_5.0.0-3.alpha.dir/__/__/mesh/access/src/device_state_manager.c.obj
LOAD examples/serial/CMakeFiles/serial_nrf52840_xxAA_s140_5.0.0-3.alpha.dir/__/__/mesh/serial/src/serial_uart.c.obj
LOAD examples/serial/CMakeFiles/serial_nrf52840_xxAA_s140_5.0.0-3.alpha.dir/__/__/mesh/serial/src/serial_bearer.c.obj
LOAD examples/serial/CMakeFiles/serial_nrf52840_xxAA_s140_5.0.0-3.alpha.dir/__/__/mesh/serial/src/serial_handler_common.c.obj
LOAD examples/serial/CMakeFiles/serial_nrf52840_xxAA_s140_5.0.0-3.alpha.dir/__/__/mesh/serial/src/serial_handler_access.c.obj
LOAD examples/serial/CMakeFiles/serial_nrf52840_xxAA_s140_5.0.0-3.alpha.dir/__/__/mesh/serial/src/serial_handler_config.c.obj
LOAD examples/serial/CMakeFiles/serial_nrf52840_xxAA_s140_5.0.0-3.alpha.dir/__/__/mesh/serial/src/serial_handler_openmesh.c.obj
LOAD examples/serial/CMakeFiles/serial_nrf52840_xxAA_s140_5.0.0-3.alpha.dir/__/__/mesh/serial/src/serial.c.obj
LOAD examples/serial/CMakeFiles/serial_nrf52840_xxAA_s140_5.0.0-3.alpha.dir/__/__/mesh/serial/src/serial_handler_prov.c.obj
LOAD examples/serial/CMakeFiles/serial_nrf52840_xxAA_s140_5.0.0-3.alpha.dir/__/__/mesh/serial/src/serial_handler_dfu.c.obj
LOAD examples/serial/CMakeFiles/serial_nrf52840_xxAA_s140_5.0.0-3.alpha.dir/__/__/mesh/serial/src/serial_handler_mesh.c.obj
LOAD examples/serial/CMakeFiles/serial_nrf52840_xxAA_s140_5.0.0-3.alpha.dir/__/__/mesh/serial/src/serial_handler_models.c.obj
LOAD examples/serial/CMakeFiles/serial_nrf52840_xxAA_s140_5.0.0-3.alpha.dir/__/__/mesh/serial/src/serial_handler_device.c.obj
LOAD examples/serial/CMakeFiles/serial_nrf52840_xxAA_s140_5.0.0-3.alpha.dir/__/__/mesh/serial/src/nrf_mesh_serial.c.obj
LOAD examples/serial/CMakeFiles/serial_nrf52840_xxAA_s140_5.0.0-3.alpha.dir/__/__/mesh/serial/src/serial_handler_app.c.obj
LOAD examples/serial/CMakeFiles/serial_nrf52840_xxAA_s140_5.0.0-3.alpha.dir/__/nrf_mesh_weak.c.obj
LOAD examples/serial/CMakeFiles/serial_nrf52840_xxAA_s140_5.0.0-3.alpha.dir/__/__/external/nRF5_SDK_14.0.0_3bcc1f7/components/toolchain/system_nrf52840.c.obj
LOAD examples/serial/CMakeFiles/serial_nrf52840_xxAA_s140_5.0.0-3.alpha.dir/__/__/external/nRF5_SDK_14.0.0_3bcc1f7/components/toolchain/gcc/gcc_startup_nrf52840.S.obj
LOAD mesh/core/libmesh_core_nrf52840_xxAA.a
LOAD external/micro-ecc/libuECC_nrf52840_xxAA.a
LOAD external/rtt/librtt_nrf52840_xxAA.a
START GROUP
LOAD c:/a/gcc_arm/6/bin/../lib/gcc/arm-none-eabi/6.3.1/thumb/v7e-m/fpv4-sp/hard\libgcc.a
LOAD c:/a/gcc_arm/6/bin/../lib/gcc/arm-none-eabi/6.3.1/../../../../arm-none-eabi/lib/thumb/v7e-m/fpv4-sp/hard\libc_nano.a
END GROUP
START GROUP
LOAD c:/a/gcc_arm/6/bin/../lib/gcc/arm-none-eabi/6.3.1/thumb/v7e-m/fpv4-sp/hard\libgcc.a
LOAD c:/a/gcc_arm/6/bin/../lib/gcc/arm-none-eabi/6.3.1/../../../../arm-none-eabi/lib/thumb/v7e-m/fpv4-sp/hard\libc_nano.a
END GROUP
LOAD c:/a/gcc_arm/6/bin/../lib/gcc/arm-none-eabi/6.3.1/thumb/v7e-m/fpv4-sp/hard/crtend.o
LOAD c:/a/gcc_arm/6/bin/../lib/gcc/arm-none-eabi/6.3.1/thumb/v7e-m/fpv4-sp/hard/crtn.o
START GROUP
LOAD c:/a/gcc_arm/6/bin/../lib/gcc/arm-none-eabi/6.3.1/thumb/v7e-m/fpv4-sp/hard\libgcc.a
LOAD c:/a/gcc_arm/6/bin/../lib/gcc/arm-none-eabi/6.3.1/../../../../arm-none-eabi/lib/thumb/v7e-m/fpv4-sp/hard\libc.a
LOAD c:/a/gcc_arm/6/bin/../lib/gcc/arm-none-eabi/6.3.1/../../../../arm-none-eabi/lib/thumb/v7e-m/fpv4-sp/hard\libnosys.a
END GROUP

.text           0x00024000    0x1a8a0
 *(.isr_vector)
 .isr_vector    0x00024000      0x200 examples/serial/CMakeFiles/serial_nrf52840_xxAA_s140_5.0.0-3.alpha.dir/__/__/external/nRF5_SDK_14.0.0_3bcc1f7/components/toolchain/gcc/gcc_startup_nrf52840.S.obj
                0x00024000                __isr_vector
 *(.text*)
 .text          0x00024200       0x6c c:/a/gcc_arm/6/bin/../lib/gcc/arm-none-eabi/6.3.1/thumb/v7e-m/fpv4-sp/hard/crtbegin.o
 .text          0x0002426c       0x74 c:/a/gcc_arm/6/bin/../lib/gcc/arm-none-eabi/6.3.1/../../../../arm-none-eabi/lib/thumb/v7e-m/fpv4-sp/hard/crt0.o
                0x0002426c                _start
                0x0002426c                _mainCRTStartup
 .text.startup.main
                0x000242e0      0x290 examples/serial/CMakeFiles/serial_nrf52840_xxAA_s140_5.0.0-3.alpha.dir/src/main.c.obj
                0x000242e0                main
 .text.sd_evt_get
                0x00024570        0x4 examples/serial/CMakeFiles/serial_nrf52840_xxAA_s140_5.0.0-3.alpha.dir/__/nrf_mesh_sdk.c.obj
 .text.sd_softdevice_enable
                0x00024574        0x4 examples/serial/CMakeFiles/serial_nrf52840_xxAA_s140_5.0.0-3.alpha.dir/__/nrf_mesh_sdk.c.obj
 .text.sd_ble_enable
                0x00024578        0x4 examples/serial/CMakeFiles/serial_nrf52840_xxAA_s140_5.0.0-3.alpha.dir/__/nrf_mesh_sdk.c.obj
 .text.sd_ble_evt_get
                0x0002457c        0x4 examples/serial/CMakeFiles/serial_nrf52840_xxAA_s140_5.0.0-3.alpha.dir/__/nrf_mesh_sdk.c.obj
 .text.mesh_assert_handler
                0x00024580       0x80 examples/serial/CMakeFiles/serial_nrf52840_xxAA_s140_5.0.0-3.alpha.dir/__/nrf_mesh_sdk.c.obj
                0x00024580                mesh_assert_handler
 .text.softdevice_assert_handler
                0x00024600       0x94 examples/serial/CMakeFiles/serial_nrf52840_xxAA_s140_5.0.0-3.alpha.dir/__/nrf_mesh_sdk.c.obj
                0x00024600                softdevice_assert_handler
 .text.app_error_handler
                0x00024694       0x88 examples/serial/CMakeFiles/serial_nrf52840_xxAA_s140_5.0.0-3.alpha.dir/__/nrf_mesh_sdk.c.obj
                0x00024694                app_error_handler
 .text.HardFault_Handler
                0x0002471c       0x78 examples/serial/CMakeFiles/serial_nrf52840_xxAA_s140_5.0.0-3.alpha.dir/__/nrf_mesh_sdk.c.obj
                0x0002471c                HardFault_Handler
 .text.SWI2_EGU2_IRQHandler
                0x00024794       0x40 examples/serial/CMakeFiles/serial_nrf52840_xxAA_s140_5.0.0-3.alpha.dir/__/nrf_mesh_sdk.c.obj
                0x00024794                SWI2_EGU2_IRQHandler
 .text.mesh_softdevice_enable
                0x000247d4      0x14c examples/serial/CMakeFiles/serial_nrf52840_xxAA_s140_5.0.0-3.alpha.dir/__/nrf_mesh_sdk.c.obj
                0x000247d4                mesh_softdevice_enable
 .text.mesh_core_setup
                0x00024920      0x1c4 examples/serial/CMakeFiles/serial_nrf52840_xxAA_s140_5.0.0-3.alpha.dir/__/nrf_mesh_sdk.c.obj
                0x00024920                mesh_core_setup
 .text.prov_provisioner_cb_link_closed
                0x00024ae4       0x2c examples/serial/CMakeFiles/serial_nrf52840_xxAA_s140_5.0.0-3.alpha.dir/__/__/mesh/prov/src/prov_provisioner.c.obj
 .text.prov_provisioner_cb_link_established
                0x00024b10       0x44 examples/serial/CMakeFiles/serial_nrf52840_xxAA_s140_5.0.0-3.alpha.dir/__/__/mesh/prov/src/prov_provisioner.c.obj
 .text.prov_provisioner_cb_ack_received
                0x00024b54       0x4c examples/serial/CMakeFiles/serial_nrf52840_xxAA_s140_5.0.0-3.alpha.dir/__/__/mesh/prov/src/prov_provisioner.c.obj
 .text.prov_provisioner_pkt_in
                0x00024ba0      0x350 examples/serial/CMakeFiles/serial_nrf52840_xxAA_s140_5.0.0-3.alpha.dir/__/__/mesh/prov/src/prov_provisioner.c.obj
 .text.prov_provisioner_provision
                0x00024ef0       0x4c examples/serial/CMakeFiles/serial_nrf52840_xxAA_s140_5.0.0-3.alpha.dir/__/__/mesh/prov/src/prov_provisioner.c.obj
                0x00024ef0                prov_provisioner_provision
 .text.prov_provisioner_oob_use
                0x00024f3c       0xb0 examples/serial/CMakeFiles/serial_nrf52840_xxAA_s140_5.0.0-3.alpha.dir/__/__/mesh/prov/src/prov_provisioner.c.obj
                0x00024f3c                prov_provisioner_oob_use
 .text.prov_provisioner_auth_data
                0x00024fec       0x64 examples/serial/CMakeFiles/serial_nrf52840_xxAA_s140_5.0.0-3.alpha.dir/__/__/mesh/prov/src/prov_provisioner.c.obj
                0x00024fec                prov_provisioner_auth_data
 .text.prov_provisioner_shared_secret
                0x00025050       0xcc examples/serial/CMakeFiles/serial_nrf52840_xxAA_s140_5.0.0-3.alpha.dir/__/__/mesh/prov/src/prov_provisioner.c.obj
                0x00025050                prov_provisioner_shared_secret
 .text.prov_provisionee_cb_link_established
                0x0002511c       0x24 examples/serial/CMakeFiles/serial_nrf52840_xxAA_s140_5.0.0-3.alpha.dir/__/__/mesh/prov/src/prov_provisionee.c.obj
 .text.prov_provisionee_cb_link_closed
                0x00025140       0x80 examples/serial/CMakeFiles/serial_nrf52840_xxAA_s140_5.0.0-3.alpha.dir/__/__/mesh/prov/src/prov_provisionee.c.obj
 .text.start_authentication
                0x000251c0      0x128 examples/serial/CMakeFiles/serial_nrf52840_xxAA_s140_5.0.0-3.alpha.dir/__/__/mesh/prov/src/prov_provisionee.c.obj
 .text.prov_provisionee_cb_ack_received
                0x000252e8      0x11c examples/serial/CMakeFiles/serial_nrf52840_xxAA_s140_5.0.0-3.alpha.dir/__/__/mesh/prov/src/prov_provisionee.c.obj
 .text.prov_provisionee_pkt_in
                0x00025404      0x30c examples/serial/CMakeFiles/serial_nrf52840_xxAA_s140_5.0.0-3.alpha.dir/__/__/mesh/prov/src/prov_provisionee.c.obj
 .text.prov_provisionee_init
                0x00025710       0x40 examples/serial/CMakeFiles/serial_nrf52840_xxAA_s140_5.0.0-3.alpha.dir/__/__/mesh/prov/src/prov_provisionee.c.obj
                0x00025710                prov_provisionee_init
 .text.prov_provisionee_auth_data
                0x00025750       0x84 examples/serial/CMakeFiles/serial_nrf52840_xxAA_s140_5.0.0-3.alpha.dir/__/__/mesh/prov/src/prov_provisionee.c.obj
                0x00025750                prov_provisionee_auth_data
 .text.prov_provisionee_shared_secret
                0x000257d4       0xb4 examples/serial/CMakeFiles/serial_nrf52840_xxAA_s140_5.0.0-3.alpha.dir/__/__/mesh/prov/src/prov_provisionee.c.obj
                0x000257d4                prov_provisionee_shared_secret
 .text.nrf_mesh_prov_init
                0x00025888       0x24 examples/serial/CMakeFiles/serial_nrf52840_xxAA_s140_5.0.0-3.alpha.dir/__/__/mesh/prov/src/nrf_mesh_prov.c.obj
                0x00025888                nrf_mesh_prov_init
 .text.nrf_mesh_prov_generate_keys
                0x000258ac        0x4 examples/serial/CMakeFiles/serial_nrf52840_xxAA_s140_5.0.0-3.alpha.dir/__/__/mesh/prov/src/nrf_mesh_prov.c.obj
                0x000258ac                nrf_mesh_prov_generate_keys
 .text.nrf_mesh_prov_listen
                0x000258b0       0x28 examples/serial/CMakeFiles/serial_nrf52840_xxAA_s140_5.0.0-3.alpha.dir/__/__/mesh/prov/src/nrf_mesh_prov.c.obj
                0x000258b0                nrf_mesh_prov_listen
 .text.nrf_mesh_prov_provision
                0x000258d8       0x50 examples/serial/CMakeFiles/serial_nrf52840_xxAA_s140_5.0.0-3.alpha.dir/__/__/mesh/prov/src/nrf_mesh_prov.c.obj
                0x000258d8                nrf_mesh_prov_provision
 .text.nrf_mesh_prov_oob_use
                0x00025928       0x10 examples/serial/CMakeFiles/serial_nrf52840_xxAA_s140_5.0.0-3.alpha.dir/__/__/mesh/prov/src/nrf_mesh_prov.c.obj
                0x00025928                nrf_mesh_prov_oob_use
 .text.nrf_mesh_prov_auth_data_provide
                0x00025938       0x10 examples/serial/CMakeFiles/serial_nrf52840_xxAA_s140_5.0.0-3.alpha.dir/__/__/mesh/prov/src/nrf_mesh_prov.c.obj
                0x00025938                nrf_mesh_prov_auth_data_provide
 .text.nrf_mesh_prov_shared_secret_provide
                0x00025948       0x10 examples/serial/CMakeFiles/serial_nrf52840_xxAA_s140_5.0.0-3.alpha.dir/__/__/mesh/prov/src/nrf_mesh_prov.c.obj
                0x00025948                nrf_mesh_prov_shared_secret_provide
 .text.prov_packet_length_valid
                0x00025958       0x20 examples/serial/CMakeFiles/serial_nrf52840_xxAA_s140_5.0.0-3.alpha.dir/__/__/mesh/prov/src/provisioning.c.obj
                0x00025958                prov_packet_length_valid
 .text.prov_init
                0x00025978       0x34 examples/serial/CMakeFiles/serial_nrf52840_xxAA_s140_5.0.0-3.alpha.dir/__/__/mesh/prov/src/provisioning.c.obj
                0x00025978                prov_init
 .text.prov_listen_start
                0x000259ac       0x14 examples/serial/CMakeFiles/serial_nrf52840_xxAA_s140_5.0.0-3.alpha.dir/__/__/mesh/prov/src/provisioning.c.obj
                0x000259ac                prov_listen_start
 .text.prov_link_open
                0x000259c0       0x14 examples/serial/CMakeFiles/serial_nrf52840_xxAA_s140_5.0.0-3.alpha.dir/__/__/mesh/prov/src/provisioning.c.obj
                0x000259c0                prov_link_open
 .text.prov_link_close
                0x000259d4        0x8 examples/serial/CMakeFiles/serial_nrf52840_xxAA_s140_5.0.0-3.alpha.dir/__/__/mesh/prov/src/provisioning.c.obj
                0x000259d4                prov_link_close
 .text.prov_tx_invite
                0x000259dc       0x44 examples/serial/CMakeFiles/serial_nrf52840_xxAA_s140_5.0.0-3.alpha.dir/__/__/mesh/prov/src/provisioning.c.obj
                0x000259dc                prov_tx_invite
 .text.prov_tx_capabilities
                0x00025a20       0x4c examples/serial/CMakeFiles/serial_nrf52840_xxAA_s140_5.0.0-3.alpha.dir/__/__/mesh/prov/src/provisioning.c.obj
                0x00025a20                prov_tx_capabilities
 .text.prov_tx_start
                0x00025a6c       0x4c examples/serial/CMakeFiles/serial_nrf52840_xxAA_s140_5.0.0-3.alpha.dir/__/__/mesh/prov/src/provisioning.c.obj
                0x00025a6c                prov_tx_start
 .text.prov_tx_public_key
                0x00025ab8       0x40 examples/serial/CMakeFiles/serial_nrf52840_xxAA_s140_5.0.0-3.alpha.dir/__/__/mesh/prov/src/provisioning.c.obj
                0x00025ab8                prov_tx_public_key
 .text.prov_tx_input_complete
                0x00025af8       0x34 examples/serial/CMakeFiles/serial_nrf52840_xxAA_s140_5.0.0-3.alpha.dir/__/__/mesh/prov/src/provisioning.c.obj
                0x00025af8                prov_tx_input_complete
 .text.prov_tx_confirmation
                0x00025b2c       0x40 examples/serial/CMakeFiles/serial_nrf52840_xxAA_s140_5.0.0-3.alpha.dir/__/__/mesh/prov/src/provisioning.c.obj
                0x00025b2c                prov_tx_confirmation
 .text.prov_tx_random
                0x00025b6c       0x40 examples/serial/CMakeFiles/serial_nrf52840_xxAA_s140_5.0.0-3.alpha.dir/__/__/mesh/prov/src/provisioning.c.obj
                0x00025b6c                prov_tx_random
 .text.prov_tx_complete
                0x00025bac       0x34 examples/serial/CMakeFiles/serial_nrf52840_xxAA_s140_5.0.0-3.alpha.dir/__/__/mesh/prov/src/provisioning.c.obj
                0x00025bac                prov_tx_complete
 .text.prov_tx_failed
                0x00025be0       0x38 examples/serial/CMakeFiles/serial_nrf52840_xxAA_s140_5.0.0-3.alpha.dir/__/__/mesh/prov/src/provisioning.c.obj
                0x00025be0                prov_tx_failed
 .text.prov_tx_data
                0x00025c18       0x48 examples/serial/CMakeFiles/serial_nrf52840_xxAA_s140_5.0.0-3.alpha.dir/__/__/mesh/prov/src/provisioning.c.obj
                0x00025c18                prov_tx_data
 .text.prov_cb_link_opened
                0x00025c60        0x8 examples/serial/CMakeFiles/serial_nrf52840_xxAA_s140_5.0.0-3.alpha.dir/__/__/mesh/prov/src/provisioning.c.obj
                0x00025c60                prov_cb_link_opened
 .text.prov_cb_link_closed
                0x00025c68        0x8 examples/serial/CMakeFiles/serial_nrf52840_xxAA_s140_5.0.0-3.alpha.dir/__/__/mesh/prov/src/provisioning.c.obj
                0x00025c68                prov_cb_link_closed
 .text.prov_cb_pkt_in
                0x00025c70       0x88 examples/serial/CMakeFiles/serial_nrf52840_xxAA_s140_5.0.0-3.alpha.dir/__/__/mesh/prov/src/provisioning.c.obj
                0x00025c70                prov_cb_pkt_in
 .text.prov_cb_ack_in
                0x00025cf8        0x8 examples/serial/CMakeFiles/serial_nrf52840_xxAA_s140_5.0.0-3.alpha.dir/__/__/mesh/prov/src/provisioning.c.obj
                0x00025cf8                prov_cb_ack_in
 .text.prov_beacon_unprov_build
                0x00025d00       0x54 examples/serial/CMakeFiles/serial_nrf52840_xxAA_s140_5.0.0-3.alpha.dir/__/__/mesh/prov/src/prov_beacon.c.obj
                0x00025d00                prov_beacon_unprov_build
 .text.prov_beacon_unprov_packet_in
                0x00025d54       0xbc examples/serial/CMakeFiles/serial_nrf52840_xxAA_s140_5.0.0-3.alpha.dir/__/__/mesh/prov/src/prov_beacon.c.obj
                0x00025d54                prov_beacon_unprov_packet_in
 .text.prov_utils_opt_set
                0x00025e10       0x24 examples/serial/CMakeFiles/serial_nrf52840_xxAA_s140_5.0.0-3.alpha.dir/__/__/mesh/prov/src/prov_utils.c.obj
                0x00025e10                prov_utils_opt_set
 .text.prov_utils_use_ecdh_offloading
                0x00025e34        0xc examples/serial/CMakeFiles/serial_nrf52840_xxAA_s140_5.0.0-3.alpha.dir/__/__/mesh/prov/src/prov_utils.c.obj
                0x00025e34                prov_utils_use_ecdh_offloading
 .text.prov_utils_authentication_values_derive
                0x00025e40       0xac examples/serial/CMakeFiles/serial_nrf52840_xxAA_s140_5.0.0-3.alpha.dir/__/__/mesh/prov/src/prov_utils.c.obj
                0x00025e40                prov_utils_authentication_values_derive
 .text.prov_utils_keys_generate
                0x00025eec       0x20 examples/serial/CMakeFiles/serial_nrf52840_xxAA_s140_5.0.0-3.alpha.dir/__/__/mesh/prov/src/prov_utils.c.obj
                0x00025eec                prov_utils_keys_generate
 .text.prov_utils_derive_keys
                0x00025f0c       0xb4 examples/serial/CMakeFiles/serial_nrf52840_xxAA_s140_5.0.0-3.alpha.dir/__/__/mesh/prov/src/prov_utils.c.obj
                0x00025f0c                prov_utils_derive_keys
 .text.prov_utils_calculate_shared_secret
                0x00025fc0       0x38 examples/serial/CMakeFiles/serial_nrf52840_xxAA_s140_5.0.0-3.alpha.dir/__/__/mesh/prov/src/prov_utils.c.obj
                0x00025fc0                prov_utils_calculate_shared_secret
 .text.prov_utils_generate_oob_data
                0x00025ff8      0x1c8 examples/serial/CMakeFiles/serial_nrf52840_xxAA_s140_5.0.0-3.alpha.dir/__/__/mesh/prov/src/prov_utils.c.obj
                0x00025ff8                prov_utils_generate_oob_data
 .text.prov_utils_confirmation_check
                0x000261c0       0x5c examples/serial/CMakeFiles/serial_nrf52840_xxAA_s140_5.0.0-3.alpha.dir/__/__/mesh/prov/src/prov_utils.c.obj
                0x000261c0                prov_utils_confirmation_check
 .text.remove_active_bearer
                0x0002621c       0x70 examples/serial/CMakeFiles/serial_nrf52840_xxAA_s140_5.0.0-3.alpha.dir/__/__/mesh/prov/src/prov_bearer_adv.c.obj
 .text.prov_bearer_adv_listen_stop
                0x0002628c       0x3c examples/serial/CMakeFiles/serial_nrf52840_xxAA_s140_5.0.0-3.alpha.dir/__/__/mesh/prov/src/prov_bearer_adv.c.obj
 .text.link_timeout_cb
                0x000262c8        0x8 examples/serial/CMakeFiles/serial_nrf52840_xxAA_s140_5.0.0-3.alpha.dir/__/__/mesh/prov/src/prov_bearer_adv.c.obj
 .text.tx_complete_cb
                0x000262d0       0x20 examples/serial/CMakeFiles/serial_nrf52840_xxAA_s140_5.0.0-3.alpha.dir/__/__/mesh/prov/src/prov_bearer_adv.c.obj
 .text.prov_bearer_adv_listen
                0x000262f0      0x160 examples/serial/CMakeFiles/serial_nrf52840_xxAA_s140_5.0.0-3.alpha.dir/__/__/mesh/prov/src/prov_bearer_adv.c.obj
 .text.prov_buffer_tx
                0x00026450      0x218 examples/serial/CMakeFiles/serial_nrf52840_xxAA_s140_5.0.0-3.alpha.dir/__/__/mesh/prov/src/prov_bearer_adv.c.obj
 .text.prov_bearer_adv_tx
                0x00026668       0xd4 examples/serial/CMakeFiles/serial_nrf52840_xxAA_s140_5.0.0-3.alpha.dir/__/__/mesh/prov/src/prov_bearer_adv.c.obj
 .text.send_link_ack
                0x0002673c       0x90 examples/serial/CMakeFiles/serial_nrf52840_xxAA_s140_5.0.0-3.alpha.dir/__/__/mesh/prov/src/prov_bearer_adv.c.obj
 .text.tx_retry_cb
                0x000267cc      0x148 examples/serial/CMakeFiles/serial_nrf52840_xxAA_s140_5.0.0-3.alpha.dir/__/__/mesh/prov/src/prov_bearer_adv.c.obj
 .text.send_transaction_ack
                0x00026914       0x78 examples/serial/CMakeFiles/serial_nrf52840_xxAA_s140_5.0.0-3.alpha.dir/__/__/mesh/prov/src/prov_bearer_adv.c.obj
 .text.prov_buffer_rx
                0x0002698c       0xa4 examples/serial/CMakeFiles/serial_nrf52840_xxAA_s140_5.0.0-3.alpha.dir/__/__/mesh/prov/src/prov_bearer_adv.c.obj
 .text.async_process
                0x00026a30       0xb4 examples/serial/CMakeFiles/serial_nrf52840_xxAA_s140_5.0.0-3.alpha.dir/__/__/mesh/prov/src/prov_bearer_adv.c.obj
 .text.prov_bearer_adv_link_open
                0x00026ae4      0x1c4 examples/serial/CMakeFiles/serial_nrf52840_xxAA_s140_5.0.0-3.alpha.dir/__/__/mesh/prov/src/prov_bearer_adv.c.obj
 .text.prov_bearer_adv_link_close
                0x00026ca8      0x154 examples/serial/CMakeFiles/serial_nrf52840_xxAA_s140_5.0.0-3.alpha.dir/__/__/mesh/prov/src/prov_bearer_adv.c.obj
 .text.prov_bearer_adv_interface_get
                0x00026dfc       0x28 examples/serial/CMakeFiles/serial_nrf52840_xxAA_s140_5.0.0-3.alpha.dir/__/__/mesh/prov/src/prov_bearer_adv.c.obj
                0x00026dfc                prov_bearer_adv_interface_get
 .text.prov_bearer_adv_packet_in
                0x00026e24      0x9d0 examples/serial/CMakeFiles/serial_nrf52840_xxAA_s140_5.0.0-3.alpha.dir/__/__/mesh/prov/src/prov_bearer_adv.c.obj
                0x00026e24                prov_bearer_adv_packet_in
 .text.add_to_publication_list
                0x000277f4       0x8c examples/serial/CMakeFiles/serial_nrf52840_xxAA_s140_5.0.0-3.alpha.dir/__/__/mesh/access/src/access_publish.c.obj
 .text.schedule_publication_timer
                0x00027880      0x2f4 examples/serial/CMakeFiles/serial_nrf52840_xxAA_s140_5.0.0-3.alpha.dir/__/__/mesh/access/src/access_publish.c.obj
 .text.publish_timer_tick
                0x00027b74       0xd0 examples/serial/CMakeFiles/serial_nrf52840_xxAA_s140_5.0.0-3.alpha.dir/__/__/mesh/access/src/access_publish.c.obj
 .text.access_publish_init
                0x00027c44       0x38 examples/serial/CMakeFiles/serial_nrf52840_xxAA_s140_5.0.0-3.alpha.dir/__/__/mesh/access/src/access_publish.c.obj
                0x00027c44                access_publish_init
 .text.access_publish_period_set
                0x00027c7c       0xa4 examples/serial/CMakeFiles/serial_nrf52840_xxAA_s140_5.0.0-3.alpha.dir/__/__/mesh/access/src/access_publish.c.obj
                0x00027c7c                access_publish_period_set
 .text.access_publish_period_get
                0x00027d20       0x38 examples/serial/CMakeFiles/serial_nrf52840_xxAA_s140_5.0.0-3.alpha.dir/__/__/mesh/access/src/access_publish.c.obj
                0x00027d20                access_publish_period_get
 .text.flash_invalidate_complete
                0x00027d58       0x14 examples/serial/CMakeFiles/serial_nrf52840_xxAA_s140_5.0.0-3.alpha.dir/__/__/mesh/access/src/access.c.obj
 .text.flash_manager_mem_available
                0x00027d6c        0x4 examples/serial/CMakeFiles/serial_nrf52840_xxAA_s140_5.0.0-3.alpha.dir/__/__/mesh/access/src/access.c.obj
 .text.access_flash_config_clear
                0x00027d70       0x28 examples/serial/CMakeFiles/serial_nrf52840_xxAA_s140_5.0.0-3.alpha.dir/__/__/mesh/access/src/access.c.obj
 .text.access_flash_config_store
                0x00027d98      0x120 examples/serial/CMakeFiles/serial_nrf52840_xxAA_s140_5.0.0-3.alpha.dir/__/__/mesh/access/src/access.c.obj
                0x00027d98                access_flash_config_store
 .text.handle_incoming
                0x00027eb8      0x178 examples/serial/CMakeFiles/serial_nrf52840_xxAA_s140_5.0.0-3.alpha.dir/__/__/mesh/access/src/access.c.obj
 .text.mesh_evt_cb
                0x00028030      0x15c examples/serial/CMakeFiles/serial_nrf52840_xxAA_s140_5.0.0-3.alpha.dir/__/__/mesh/access/src/access.c.obj
 .text.add_flash_manager
                0x0002818c       0x58 examples/serial/CMakeFiles/serial_nrf52840_xxAA_s140_5.0.0-3.alpha.dir/__/__/mesh/access/src/access.c.obj
 .text.flash_write_complete
                0x000281e4       0x58 examples/serial/CMakeFiles/serial_nrf52840_xxAA_s140_5.0.0-3.alpha.dir/__/__/mesh/access/src/access.c.obj
 .text.flash_remove_complete
                0x0002823c       0xa0 examples/serial/CMakeFiles/serial_nrf52840_xxAA_s140_5.0.0-3.alpha.dir/__/__/mesh/access/src/access.c.obj
 .text.access_clear
                0x000282dc       0x68 examples/serial/CMakeFiles/serial_nrf52840_xxAA_s140_5.0.0-3.alpha.dir/__/__/mesh/access/src/access.c.obj
                0x000282dc                access_clear
 .text.access_init
                0x00028344       0xb0 examples/serial/CMakeFiles/serial_nrf52840_xxAA_s140_5.0.0-3.alpha.dir/__/__/mesh/access/src/access.c.obj
                0x00028344                access_init
 .text.access_model_publish
                0x000283f4      0x2bc examples/serial/CMakeFiles/serial_nrf52840_xxAA_s140_5.0.0-3.alpha.dir/__/__/mesh/access/src/access.c.obj
                0x000283f4                access_model_publish
 .text.access_model_publish_address_set
                0x000286b0       0x38 examples/serial/CMakeFiles/serial_nrf52840_xxAA_s140_5.0.0-3.alpha.dir/__/__/mesh/access/src/access.c.obj
                0x000286b0                access_model_publish_address_set
 .text.access_model_publish_address_get
                0x000286e8       0x20 examples/serial/CMakeFiles/serial_nrf52840_xxAA_s140_5.0.0-3.alpha.dir/__/__/mesh/access/src/access.c.obj
                0x000286e8                access_model_publish_address_get
 .text.access_model_publish_period_set
                0x00028708       0x64 examples/serial/CMakeFiles/serial_nrf52840_xxAA_s140_5.0.0-3.alpha.dir/__/__/mesh/access/src/access.c.obj
                0x00028708                access_model_publish_period_set
 .text.access_model_publish_period_get
                0x0002876c       0x38 examples/serial/CMakeFiles/serial_nrf52840_xxAA_s140_5.0.0-3.alpha.dir/__/__/mesh/access/src/access.c.obj
                0x0002876c                access_model_publish_period_get
 .text.access_model_subscription_add
                0x000287a4       0x58 examples/serial/CMakeFiles/serial_nrf52840_xxAA_s140_5.0.0-3.alpha.dir/__/__/mesh/access/src/access.c.obj
                0x000287a4                access_model_subscription_add
 .text.access_model_subscription_remove
                0x000287fc       0x5c examples/serial/CMakeFiles/serial_nrf52840_xxAA_s140_5.0.0-3.alpha.dir/__/__/mesh/access/src/access.c.obj
                0x000287fc                access_model_subscription_remove
 .text.access_model_subscriptions_get
                0x00028858       0x68 examples/serial/CMakeFiles/serial_nrf52840_xxAA_s140_5.0.0-3.alpha.dir/__/__/mesh/access/src/access.c.obj
                0x00028858                access_model_subscriptions_get
 .text.access_model_application_bind
                0x000288c0       0x44 examples/serial/CMakeFiles/serial_nrf52840_xxAA_s140_5.0.0-3.alpha.dir/__/__/mesh/access/src/access.c.obj
                0x000288c0                access_model_application_bind
 .text.access_model_application_unbind
                0x00028904       0x44 examples/serial/CMakeFiles/serial_nrf52840_xxAA_s140_5.0.0-3.alpha.dir/__/__/mesh/access/src/access.c.obj
                0x00028904                access_model_application_unbind
 .text.access_model_applications_get
                0x00028948       0xf4 examples/serial/CMakeFiles/serial_nrf52840_xxAA_s140_5.0.0-3.alpha.dir/__/__/mesh/access/src/access.c.obj
                0x00028948                access_model_applications_get
 .text.access_model_publish_application_set
                0x00028a3c       0x38 examples/serial/CMakeFiles/serial_nrf52840_xxAA_s140_5.0.0-3.alpha.dir/__/__/mesh/access/src/access.c.obj
                0x00028a3c                access_model_publish_application_set
 .text.access_model_publish_application_get
                0x00028a74       0x20 examples/serial/CMakeFiles/serial_nrf52840_xxAA_s140_5.0.0-3.alpha.dir/__/__/mesh/access/src/access.c.obj
                0x00028a74                access_model_publish_application_get
 .text.access_model_publish_ttl_set
                0x00028a94       0x3c examples/serial/CMakeFiles/serial_nrf52840_xxAA_s140_5.0.0-3.alpha.dir/__/__/mesh/access/src/access.c.obj
                0x00028a94                access_model_publish_ttl_set
 .text.access_model_publish_ttl_get
                0x00028ad0       0x20 examples/serial/CMakeFiles/serial_nrf52840_xxAA_s140_5.0.0-3.alpha.dir/__/__/mesh/access/src/access.c.obj
                0x00028ad0                access_model_publish_ttl_get
 .text.access_element_location_set
                0x00028af0       0x38 examples/serial/CMakeFiles/serial_nrf52840_xxAA_s140_5.0.0-3.alpha.dir/__/__/mesh/access/src/access.c.obj
                0x00028af0                access_element_location_set
 .text.access_element_location_get
                0x00028b28       0x24 examples/serial/CMakeFiles/serial_nrf52840_xxAA_s140_5.0.0-3.alpha.dir/__/__/mesh/access/src/access.c.obj
                0x00028b28                access_element_location_get
 .text.access_element_sig_model_count_get
                0x00028b4c       0x24 examples/serial/CMakeFiles/serial_nrf52840_xxAA_s140_5.0.0-3.alpha.dir/__/__/mesh/access/src/access.c.obj
                0x00028b4c                access_element_sig_model_count_get
 .text.access_element_vendor_model_count_get
                0x00028b70       0x24 examples/serial/CMakeFiles/serial_nrf52840_xxAA_s140_5.0.0-3.alpha.dir/__/__/mesh/access/src/access.c.obj
                0x00028b70                access_element_vendor_model_count_get
 .text.access_model_id_get
                0x00028b94       0x24 examples/serial/CMakeFiles/serial_nrf52840_xxAA_s140_5.0.0-3.alpha.dir/__/__/mesh/access/src/access.c.obj
                0x00028b94                access_model_id_get
 .text.access_handle_get
                0x00028bb8       0x44 examples/serial/CMakeFiles/serial_nrf52840_xxAA_s140_5.0.0-3.alpha.dir/__/__/mesh/access/src/access.c.obj
                0x00028bb8                access_handle_get
 .text.access_element_models_get
                0x00028bfc       0x4c examples/serial/CMakeFiles/serial_nrf52840_xxAA_s140_5.0.0-3.alpha.dir/__/__/mesh/access/src/access.c.obj
                0x00028bfc                access_element_models_get
 .text.access_model_p_args_get
                0x00028c48       0x20 examples/serial/CMakeFiles/serial_nrf52840_xxAA_s140_5.0.0-3.alpha.dir/__/__/mesh/access/src/access.c.obj
                0x00028c48                access_model_p_args_get
 .text.remove_and_reschedule
                0x00028c68       0xe8 examples/serial/CMakeFiles/serial_nrf52840_xxAA_s140_5.0.0-3.alpha.dir/__/__/mesh/access/src/access_reliable.c.obj
 .text.reliable_timer_cb
                0x00028d50      0x138 examples/serial/CMakeFiles/serial_nrf52840_xxAA_s140_5.0.0-3.alpha.dir/__/__/mesh/access/src/access_reliable.c.obj
 .text.access_reliable_message_rx_cb
                0x00028e88       0x5c examples/serial/CMakeFiles/serial_nrf52840_xxAA_s140_5.0.0-3.alpha.dir/__/__/mesh/access/src/access_reliable.c.obj
                0x00028e88                access_reliable_message_rx_cb
 .text.access_reliable_init
                0x00028ee4       0x1c examples/serial/CMakeFiles/serial_nrf52840_xxAA_s140_5.0.0-3.alpha.dir/__/__/mesh/access/src/access_reliable.c.obj
                0x00028ee4                access_reliable_init
 .text.access_reliable_cancel_all
                0x00028f00       0x34 examples/serial/CMakeFiles/serial_nrf52840_xxAA_s140_5.0.0-3.alpha.dir/__/__/mesh/access/src/access_reliable.c.obj
                0x00028f00                access_reliable_cancel_all
 .text.addr_nonvirtual_to_dsm_entry
                0x00028f34       0x48 examples/serial/CMakeFiles/serial_nrf52840_xxAA_s140_5.0.0-3.alpha.dir/__/__/mesh/access/src/device_state_manager.c.obj
 .text.addr_nonvirtual_to_flash_entry
                0x00028f7c       0x10 examples/serial/CMakeFiles/serial_nrf52840_xxAA_s140_5.0.0-3.alpha.dir/__/__/mesh/access/src/device_state_manager.c.obj
 .text.flash_mem_listener_callback
                0x00028f8c       0x28 examples/serial/CMakeFiles/serial_nrf52840_xxAA_s140_5.0.0-3.alpha.dir/__/__/mesh/access/src/device_state_manager.c.obj
 .text.devkey_to_flash_entry
                0x00028fb4       0x28 examples/serial/CMakeFiles/serial_nrf52840_xxAA_s140_5.0.0-3.alpha.dir/__/__/mesh/access/src/device_state_manager.c.obj
 .text.appkey_to_flash_entry
                0x00028fdc       0x28 examples/serial/CMakeFiles/serial_nrf52840_xxAA_s140_5.0.0-3.alpha.dir/__/__/mesh/access/src/device_state_manager.c.obj
 .text.subnet_to_flash_entry
                0x00029004       0x24 examples/serial/CMakeFiles/serial_nrf52840_xxAA_s140_5.0.0-3.alpha.dir/__/__/mesh/access/src/device_state_manager.c.obj
 .text.addr_virtual_to_flash_entry
                0x00029028       0x18 examples/serial/CMakeFiles/serial_nrf52840_xxAA_s140_5.0.0-3.alpha.dir/__/__/mesh/access/src/device_state_manager.c.obj
 .text.addr_unicast_to_dsm_entry
                0x00029040        0xc examples/serial/CMakeFiles/serial_nrf52840_xxAA_s140_5.0.0-3.alpha.dir/__/__/mesh/access/src/device_state_manager.c.obj
 .text.addr_unicast_to_flash_entry
                0x0002904c       0x10 examples/serial/CMakeFiles/serial_nrf52840_xxAA_s140_5.0.0-3.alpha.dir/__/__/mesh/access/src/device_state_manager.c.obj
 .text.subnet_set
                0x0002905c       0xac examples/serial/CMakeFiles/serial_nrf52840_xxAA_s140_5.0.0-3.alpha.dir/__/__/mesh/access/src/device_state_manager.c.obj
 .text.flash_save
                0x00029108       0xa8 examples/serial/CMakeFiles/serial_nrf52840_xxAA_s140_5.0.0-3.alpha.dir/__/__/mesh/access/src/device_state_manager.c.obj
 .text.reset_flash_area
                0x000291b0       0x28 examples/serial/CMakeFiles/serial_nrf52840_xxAA_s140_5.0.0-3.alpha.dir/__/__/mesh/access/src/device_state_manager.c.obj
 .text.build_flash_area
                0x000291d8       0x90 examples/serial/CMakeFiles/serial_nrf52840_xxAA_s140_5.0.0-3.alpha.dir/__/__/mesh/access/src/device_state_manager.c.obj
 .text.flash_invalidate_complete
                0x00029268       0x5c examples/serial/CMakeFiles/serial_nrf52840_xxAA_s140_5.0.0-3.alpha.dir/__/__/mesh/access/src/device_state_manager.c.obj
 .text.devkey_to_dsm_entry
                0x000292c4       0x70 examples/serial/CMakeFiles/serial_nrf52840_xxAA_s140_5.0.0-3.alpha.dir/__/__/mesh/access/src/device_state_manager.c.obj
 .text.addr_virtual_to_dsm_entry
                0x00029334       0x6c examples/serial/CMakeFiles/serial_nrf52840_xxAA_s140_5.0.0-3.alpha.dir/__/__/mesh/access/src/device_state_manager.c.obj
 .text.flash_write_complete
                0x000293a0       0x5c examples/serial/CMakeFiles/serial_nrf52840_xxAA_s140_5.0.0-3.alpha.dir/__/__/mesh/access/src/device_state_manager.c.obj
 .text.appkey_to_dsm_entry
                0x000293fc       0x94 examples/serial/CMakeFiles/serial_nrf52840_xxAA_s140_5.0.0-3.alpha.dir/__/__/mesh/access/src/device_state_manager.c.obj
 .text.flash_update_all
                0x00029490      0x144 examples/serial/CMakeFiles/serial_nrf52840_xxAA_s140_5.0.0-3.alpha.dir/__/__/mesh/access/src/device_state_manager.c.obj
 .text.flash_remove_complete
                0x000295d4       0x90 examples/serial/CMakeFiles/serial_nrf52840_xxAA_s140_5.0.0-3.alpha.dir/__/__/mesh/access/src/device_state_manager.c.obj
 .text.subnet_to_dsm_entry
                0x00029664       0xbc examples/serial/CMakeFiles/serial_nrf52840_xxAA_s140_5.0.0-3.alpha.dir/__/__/mesh/access/src/device_state_manager.c.obj
 .text.address_delete_if_unused
                0x00029720      0x100 examples/serial/CMakeFiles/serial_nrf52840_xxAA_s140_5.0.0-3.alpha.dir/__/__/mesh/access/src/device_state_manager.c.obj
 .text.dsm_init
                0x00029820       0xa8 examples/serial/CMakeFiles/serial_nrf52840_xxAA_s140_5.0.0-3.alpha.dir/__/__/mesh/access/src/device_state_manager.c.obj
                0x00029820                dsm_init
 .text.dsm_flash_area_get
                0x000298c8        0xc examples/serial/CMakeFiles/serial_nrf52840_xxAA_s140_5.0.0-3.alpha.dir/__/__/mesh/access/src/device_state_manager.c.obj
                0x000298c8                dsm_flash_area_get
 .text.dsm_clear
                0x000298d4      0x10c examples/serial/CMakeFiles/serial_nrf52840_xxAA_s140_5.0.0-3.alpha.dir/__/__/mesh/access/src/device_state_manager.c.obj
                0x000298d4                dsm_clear
 .text.dsm_local_unicast_addresses_set
                0x000299e0       0x78 examples/serial/CMakeFiles/serial_nrf52840_xxAA_s140_5.0.0-3.alpha.dir/__/__/mesh/access/src/device_state_manager.c.obj
                0x000299e0                dsm_local_unicast_addresses_set
 .text.dsm_local_unicast_addresses_get
                0x00029a58       0x2c examples/serial/CMakeFiles/serial_nrf52840_xxAA_s140_5.0.0-3.alpha.dir/__/__/mesh/access/src/device_state_manager.c.obj
                0x00029a58                dsm_local_unicast_addresses_get
 .text.dsm_address_publish_add
                0x00029a84      0x330 examples/serial/CMakeFiles/serial_nrf52840_xxAA_s140_5.0.0-3.alpha.dir/__/__/mesh/access/src/device_state_manager.c.obj
                0x00029a84                dsm_address_publish_add
 .text.dsm_address_publish_virtual_add
                0x00029db4      0x268 examples/serial/CMakeFiles/serial_nrf52840_xxAA_s140_5.0.0-3.alpha.dir/__/__/mesh/access/src/device_state_manager.c.obj
                0x00029db4                dsm_address_publish_virtual_add
 .text.dsm_address_publish_remove
                0x0002a01c       0xbc examples/serial/CMakeFiles/serial_nrf52840_xxAA_s140_5.0.0-3.alpha.dir/__/__/mesh/access/src/device_state_manager.c.obj
                0x0002a01c                dsm_address_publish_remove
 .text.dsm_address_subscription_add
                0x0002a0d8      0x31c examples/serial/CMakeFiles/serial_nrf52840_xxAA_s140_5.0.0-3.alpha.dir/__/__/mesh/access/src/device_state_manager.c.obj
                0x0002a0d8                dsm_address_subscription_add
 .text.dsm_address_subscription_virtual_add
                0x0002a3f4      0x268 examples/serial/CMakeFiles/serial_nrf52840_xxAA_s140_5.0.0-3.alpha.dir/__/__/mesh/access/src/device_state_manager.c.obj
                0x0002a3f4                dsm_address_subscription_virtual_add
 .text.dsm_address_subscription_get
                0x0002a65c       0x5c examples/serial/CMakeFiles/serial_nrf52840_xxAA_s140_5.0.0-3.alpha.dir/__/__/mesh/access/src/device_state_manager.c.obj
                0x0002a65c                dsm_address_subscription_get
 .text.dsm_address_subscription_remove
                0x0002a6b8       0x94 examples/serial/CMakeFiles/serial_nrf52840_xxAA_s140_5.0.0-3.alpha.dir/__/__/mesh/access/src/device_state_manager.c.obj
                0x0002a6b8                dsm_address_subscription_remove
 .text.dsm_address_get
                0x0002a74c       0x7c examples/serial/CMakeFiles/serial_nrf52840_xxAA_s140_5.0.0-3.alpha.dir/__/__/mesh/access/src/device_state_manager.c.obj
                0x0002a74c                dsm_address_get
 .text.dsm_address_get_all
                0x0002a7c8      0x258 examples/serial/CMakeFiles/serial_nrf52840_xxAA_s140_5.0.0-3.alpha.dir/__/__/mesh/access/src/device_state_manager.c.obj
                0x0002a7c8                dsm_address_get_all
 .text.dsm_address_handle_get
                0x0002aa20      0x3cc examples/serial/CMakeFiles/serial_nrf52840_xxAA_s140_5.0.0-3.alpha.dir/__/__/mesh/access/src/device_state_manager.c.obj
                0x0002aa20                dsm_address_handle_get
 .text.dsm_subnet_handle_get
                0x0002adec       0x2c examples/serial/CMakeFiles/serial_nrf52840_xxAA_s140_5.0.0-3.alpha.dir/__/__/mesh/access/src/device_state_manager.c.obj
                0x0002adec                dsm_subnet_handle_get
 .text.dsm_appkey_handle_get
                0x0002ae18       0x50 examples/serial/CMakeFiles/serial_nrf52840_xxAA_s140_5.0.0-3.alpha.dir/__/__/mesh/access/src/device_state_manager.c.obj
                0x0002ae18                dsm_appkey_handle_get
 .text.dsm_subnet_add
                0x0002ae68       0xfc examples/serial/CMakeFiles/serial_nrf52840_xxAA_s140_5.0.0-3.alpha.dir/__/__/mesh/access/src/device_state_manager.c.obj
                0x0002ae68                dsm_subnet_add
 .text.dsm_subnet_update
                0x0002af64       0x90 examples/serial/CMakeFiles/serial_nrf52840_xxAA_s140_5.0.0-3.alpha.dir/__/__/mesh/access/src/device_state_manager.c.obj
                0x0002af64                dsm_subnet_update
 .text.dsm_subnet_delete
                0x0002aff4      0x220 examples/serial/CMakeFiles/serial_nrf52840_xxAA_s140_5.0.0-3.alpha.dir/__/__/mesh/access/src/device_state_manager.c.obj
                0x0002aff4                dsm_subnet_delete
 .text.dsm_subnet_get_all
                0x0002b214       0x90 examples/serial/CMakeFiles/serial_nrf52840_xxAA_s140_5.0.0-3.alpha.dir/__/__/mesh/access/src/device_state_manager.c.obj
                0x0002b214                dsm_subnet_get_all
 .text.dsm_devkey_add
                0x0002b2a4      0x11c examples/serial/CMakeFiles/serial_nrf52840_xxAA_s140_5.0.0-3.alpha.dir/__/__/mesh/access/src/device_state_manager.c.obj
                0x0002b2a4                dsm_devkey_add
 .text.dsm_devkey_delete
                0x0002b3c0       0x80 examples/serial/CMakeFiles/serial_nrf52840_xxAA_s140_5.0.0-3.alpha.dir/__/__/mesh/access/src/device_state_manager.c.obj
                0x0002b3c0                dsm_devkey_delete
 .text.dsm_appkey_add
                0x0002b440      0x1cc examples/serial/CMakeFiles/serial_nrf52840_xxAA_s140_5.0.0-3.alpha.dir/__/__/mesh/access/src/device_state_manager.c.obj
                0x0002b440                dsm_appkey_add
 .text.dsm_appkey_update
                0x0002b60c       0xf0 examples/serial/CMakeFiles/serial_nrf52840_xxAA_s140_5.0.0-3.alpha.dir/__/__/mesh/access/src/device_state_manager.c.obj
                0x0002b60c                dsm_appkey_update
 .text.dsm_appkey_delete
                0x0002b6fc       0x68 examples/serial/CMakeFiles/serial_nrf52840_xxAA_s140_5.0.0-3.alpha.dir/__/__/mesh/access/src/device_state_manager.c.obj
                0x0002b6fc                dsm_appkey_delete
 .text.dsm_appkey_get_all
                0x0002b764      0x154 examples/serial/CMakeFiles/serial_nrf52840_xxAA_s140_5.0.0-3.alpha.dir/__/__/mesh/access/src/device_state_manager.c.obj
                0x0002b764                dsm_appkey_get_all
 .text.dsm_tx_secmat_get
                0x0002b8b8      0x120 examples/serial/CMakeFiles/serial_nrf52840_xxAA_s140_5.0.0-3.alpha.dir/__/__/mesh/access/src/device_state_manager.c.obj
                0x0002b8b8                dsm_tx_secmat_get
 .text.nrf_mesh_net_secmat_next_get
                0x0002b9d8       0xfc examples/serial/CMakeFiles/serial_nrf52840_xxAA_s140_5.0.0-3.alpha.dir/__/__/mesh/access/src/device_state_manager.c.obj
                0x0002b9d8                nrf_mesh_net_secmat_next_get
 .text.nrf_mesh_app_secmat_next_get
                0x0002bad4      0x24c examples/serial/CMakeFiles/serial_nrf52840_xxAA_s140_5.0.0-3.alpha.dir/__/__/mesh/access/src/device_state_manager.c.obj
                0x0002bad4                nrf_mesh_app_secmat_next_get
 .text.nrf_mesh_devkey_secmat_get
                0x0002bd20       0x58 examples/serial/CMakeFiles/serial_nrf52840_xxAA_s140_5.0.0-3.alpha.dir/__/__/mesh/access/src/device_state_manager.c.obj
                0x0002bd20                nrf_mesh_devkey_secmat_get
 .text.nrf_mesh_beacon_info_next_get
                0x0002bd78      0x11c examples/serial/CMakeFiles/serial_nrf52840_xxAA_s140_5.0.0-3.alpha.dir/__/__/mesh/access/src/device_state_manager.c.obj
                0x0002bd78                nrf_mesh_beacon_info_next_get
 .text.nrf_mesh_rx_address_get
                0x0002be94      0x558 examples/serial/CMakeFiles/serial_nrf52840_xxAA_s140_5.0.0-3.alpha.dir/__/__/mesh/access/src/device_state_manager.c.obj
                0x0002be94                nrf_mesh_rx_address_get
 .text.UARTE0_UART0_IRQHandler
                0x0002c3ec       0x74 examples/serial/CMakeFiles/serial_nrf52840_xxAA_s140_5.0.0-3.alpha.dir/__/__/mesh/serial/src/serial_uart.c.obj
                0x0002c3ec                UARTE0_UART0_IRQHandler
 .text.serial_uart_init
                0x0002c460       0xac examples/serial/CMakeFiles/serial_nrf52840_xxAA_s140_5.0.0-3.alpha.dir/__/__/mesh/serial/src/serial_uart.c.obj
                0x0002c460                serial_uart_init
 .text.serial_uart_process
                0x0002c50c       0x74 examples/serial/CMakeFiles/serial_nrf52840_xxAA_s140_5.0.0-3.alpha.dir/__/__/mesh/serial/src/serial_uart.c.obj
                0x0002c50c                serial_uart_process
 .text.serial_uart_receive_set
                0x0002c580        0xc examples/serial/CMakeFiles/serial_nrf52840_xxAA_s140_5.0.0-3.alpha.dir/__/__/mesh/serial/src/serial_uart.c.obj
                0x0002c580                serial_uart_receive_set
 .text.do_transmit
                0x0002c58c       0x48 examples/serial/CMakeFiles/serial_nrf52840_xxAA_s140_5.0.0-3.alpha.dir/__/__/mesh/serial/src/serial_bearer.c.obj
 .text.char_tx  0x0002c5d4       0x94 examples/serial/CMakeFiles/serial_nrf52840_xxAA_s140_5.0.0-3.alpha.dir/__/__/mesh/serial/src/serial_bearer.c.obj
 .text.serial_bearer_init
                0x0002c668       0x80 examples/serial/CMakeFiles/serial_nrf52840_xxAA_s140_5.0.0-3.alpha.dir/__/__/mesh/serial/src/serial_bearer.c.obj
                0x0002c668                serial_bearer_init
 .text.serial_bearer_blocking_buffer_get
                0x0002c6e8       0x90 examples/serial/CMakeFiles/serial_nrf52840_xxAA_s140_5.0.0-3.alpha.dir/__/__/mesh/serial/src/serial_bearer.c.obj
                0x0002c6e8                serial_bearer_blocking_buffer_get
 .text.serial_bearer_tx
                0x0002c778       0x70 examples/serial/CMakeFiles/serial_nrf52840_xxAA_s140_5.0.0-3.alpha.dir/__/__/mesh/serial/src/serial_bearer.c.obj
                0x0002c778                serial_bearer_tx
 .text.char_rx  0x0002c7e8       0xd0 examples/serial/CMakeFiles/serial_nrf52840_xxAA_s140_5.0.0-3.alpha.dir/__/__/mesh/serial/src/serial_bearer.c.obj
 .text.serial_bearer_rx_get
                0x0002c8b8       0x3c examples/serial/CMakeFiles/serial_nrf52840_xxAA_s140_5.0.0-3.alpha.dir/__/__/mesh/serial/src/serial_bearer.c.obj
                0x0002c8b8                serial_bearer_rx_get
 .text.serial_handler_common_cmd_rsp_nodata_on_error
                0x0002c8f4       0x38 examples/serial/CMakeFiles/serial_nrf52840_xxAA_s140_5.0.0-3.alpha.dir/__/__/mesh/serial/src/serial_handler_common.c.obj
                0x0002c8f4                serial_handler_common_cmd_rsp_nodata_on_error
 .text.serial_handler_common_rx
                0x0002c92c       0x60 examples/serial/CMakeFiles/serial_nrf52840_xxAA_s140_5.0.0-3.alpha.dir/__/__/mesh/serial/src/serial_handler_common.c.obj
                0x0002c92c                serial_handler_common_rx
 .text.access_flash_store
                0x0002c98c       0x18 examples/serial/CMakeFiles/serial_nrf52840_xxAA_s140_5.0.0-3.alpha.dir/__/__/mesh/serial/src/serial_handler_access.c.obj
 .text.elem_models_get
                0x0002c9a4       0x50 examples/serial/CMakeFiles/serial_nrf52840_xxAA_s140_5.0.0-3.alpha.dir/__/__/mesh/serial/src/serial_handler_access.c.obj
 .text.handle_get
                0x0002c9f4       0x20 examples/serial/CMakeFiles/serial_nrf52840_xxAA_s140_5.0.0-3.alpha.dir/__/__/mesh/serial/src/serial_handler_access.c.obj
 .text.model_id_get
                0x0002ca14       0x20 examples/serial/CMakeFiles/serial_nrf52840_xxAA_s140_5.0.0-3.alpha.dir/__/__/mesh/serial/src/serial_handler_access.c.obj
 .text.elem_vendor_model_cnt_get
                0x0002ca34       0x20 examples/serial/CMakeFiles/serial_nrf52840_xxAA_s140_5.0.0-3.alpha.dir/__/__/mesh/serial/src/serial_handler_access.c.obj
 .text.elem_sig_model_cnt_get
                0x0002ca54       0x20 examples/serial/CMakeFiles/serial_nrf52840_xxAA_s140_5.0.0-3.alpha.dir/__/__/mesh/serial/src/serial_handler_access.c.obj
 .text.elem_loc_get
                0x0002ca74       0x20 examples/serial/CMakeFiles/serial_nrf52840_xxAA_s140_5.0.0-3.alpha.dir/__/__/mesh/serial/src/serial_handler_access.c.obj
 .text.elem_loc_set
                0x0002ca94       0x24 examples/serial/CMakeFiles/serial_nrf52840_xxAA_s140_5.0.0-3.alpha.dir/__/__/mesh/serial/src/serial_handler_access.c.obj
 .text.model_pub_ttl_get
                0x0002cab8       0x20 examples/serial/CMakeFiles/serial_nrf52840_xxAA_s140_5.0.0-3.alpha.dir/__/__/mesh/serial/src/serial_handler_access.c.obj
 .text.model_pub_ttl_set
                0x0002cad8       0x24 examples/serial/CMakeFiles/serial_nrf52840_xxAA_s140_5.0.0-3.alpha.dir/__/__/mesh/serial/src/serial_handler_access.c.obj
 .text.model_pub_app_get
                0x0002cafc       0x20 examples/serial/CMakeFiles/serial_nrf52840_xxAA_s140_5.0.0-3.alpha.dir/__/__/mesh/serial/src/serial_handler_access.c.obj
 .text.model_pub_app_set
                0x0002cb1c       0x24 examples/serial/CMakeFiles/serial_nrf52840_xxAA_s140_5.0.0-3.alpha.dir/__/__/mesh/serial/src/serial_handler_access.c.obj
 .text.model_app_get
                0x0002cb40       0x50 examples/serial/CMakeFiles/serial_nrf52840_xxAA_s140_5.0.0-3.alpha.dir/__/__/mesh/serial/src/serial_handler_access.c.obj
 .text.model_app_unbind
                0x0002cb90       0x24 examples/serial/CMakeFiles/serial_nrf52840_xxAA_s140_5.0.0-3.alpha.dir/__/__/mesh/serial/src/serial_handler_access.c.obj
 .text.model_app_bind
                0x0002cbb4       0x24 examples/serial/CMakeFiles/serial_nrf52840_xxAA_s140_5.0.0-3.alpha.dir/__/__/mesh/serial/src/serial_handler_access.c.obj
 .text.model_subs_get
                0x0002cbd8       0x50 examples/serial/CMakeFiles/serial_nrf52840_xxAA_s140_5.0.0-3.alpha.dir/__/__/mesh/serial/src/serial_handler_access.c.obj
 .text.model_subs_remove
                0x0002cc28       0x24 examples/serial/CMakeFiles/serial_nrf52840_xxAA_s140_5.0.0-3.alpha.dir/__/__/mesh/serial/src/serial_handler_access.c.obj
 .text.model_subs_add
                0x0002cc4c       0x24 examples/serial/CMakeFiles/serial_nrf52840_xxAA_s140_5.0.0-3.alpha.dir/__/__/mesh/serial/src/serial_handler_access.c.obj
 .text.model_pub_period_get
                0x0002cc70       0x24 examples/serial/CMakeFiles/serial_nrf52840_xxAA_s140_5.0.0-3.alpha.dir/__/__/mesh/serial/src/serial_handler_access.c.obj
 .text.model_pub_period_set
                0x0002cc94       0x24 examples/serial/CMakeFiles/serial_nrf52840_xxAA_s140_5.0.0-3.alpha.dir/__/__/mesh/serial/src/serial_handler_access.c.obj
 .text.model_pub_addr_get
                0x0002ccb8       0x20 examples/serial/CMakeFiles/serial_nrf52840_xxAA_s140_5.0.0-3.alpha.dir/__/__/mesh/serial/src/serial_handler_access.c.obj
 .text.model_pub_addr_set
                0x0002ccd8       0x24 examples/serial/CMakeFiles/serial_nrf52840_xxAA_s140_5.0.0-3.alpha.dir/__/__/mesh/serial/src/serial_handler_access.c.obj
 .text.serial_handler_access_rx
                0x0002ccfc       0x30 examples/serial/CMakeFiles/serial_nrf52840_xxAA_s140_5.0.0-3.alpha.dir/__/__/mesh/serial/src/serial_handler_access.c.obj
                0x0002ccfc                serial_handler_access_rx
 .text.serial_handler_config_rx
                0x0002cd2c       0xf8 examples/serial/CMakeFiles/serial_nrf52840_xxAA_s140_5.0.0-3.alpha.dir/__/__/mesh/serial/src/serial_handler_config.c.obj
                0x0002cd2c                serial_handler_config_rx
 .text.serial_handler_openmesh_rx
                0x0002ce24       0x38 examples/serial/CMakeFiles/serial_nrf52840_xxAA_s140_5.0.0-3.alpha.dir/__/__/mesh/serial/src/serial_handler_openmesh.c.obj
                0x0002ce24                serial_handler_openmesh_rx
 .text.serial_process_cmd
                0x0002ce5c      0x218 examples/serial/CMakeFiles/serial_nrf52840_xxAA_s140_5.0.0-3.alpha.dir/__/__/mesh/serial/src/serial.c.obj
 .text.serial_init
                0x0002d074       0x1c examples/serial/CMakeFiles/serial_nrf52840_xxAA_s140_5.0.0-3.alpha.dir/__/__/mesh/serial/src/serial.c.obj
                0x0002d074                serial_init
 .text.serial_start
                0x0002d090      0x134 examples/serial/CMakeFiles/serial_nrf52840_xxAA_s140_5.0.0-3.alpha.dir/__/__/mesh/serial/src/serial.c.obj
                0x0002d090                serial_start
 .text.serial_packet_buffer_get
                0x0002d1c4       0x14 examples/serial/CMakeFiles/serial_nrf52840_xxAA_s140_5.0.0-3.alpha.dir/__/__/mesh/serial/src/serial.c.obj
                0x0002d1c4                serial_packet_buffer_get
 .text.serial_tx
                0x0002d1d8       0x34 examples/serial/CMakeFiles/serial_nrf52840_xxAA_s140_5.0.0-3.alpha.dir/__/__/mesh/serial/src/serial.c.obj
                0x0002d1d8                serial_tx
 .text.serial_process
                0x0002d20c       0x34 examples/serial/CMakeFiles/serial_nrf52840_xxAA_s140_5.0.0-3.alpha.dir/__/__/mesh/serial/src/serial.c.obj
                0x0002d20c                serial_process
 .text.serial_translate_error
                0x0002d240       0x70 examples/serial/CMakeFiles/serial_nrf52840_xxAA_s140_5.0.0-3.alpha.dir/__/__/mesh/serial/src/serial.c.obj
                0x0002d240                serial_translate_error
 .text.serial_state_get
                0x0002d2b0        0xc examples/serial/CMakeFiles/serial_nrf52840_xxAA_s140_5.0.0-3.alpha.dir/__/__/mesh/serial/src/serial.c.obj
                0x0002d2b0                serial_state_get
 .text.serial_cmd_rsp_send
                0x0002d2bc       0x8c examples/serial/CMakeFiles/serial_nrf52840_xxAA_s140_5.0.0-3.alpha.dir/__/__/mesh/serial/src/serial.c.obj
                0x0002d2bc                serial_cmd_rsp_send
 .text.serial_handler_prov_evt_in
                0x0002d348      0x3a8 examples/serial/CMakeFiles/serial_nrf52840_xxAA_s140_5.0.0-3.alpha.dir/__/__/mesh/serial/src/serial_handler_prov.c.obj
 .text.serial_handler_prov_init
                0x0002d6f0       0x98 examples/serial/CMakeFiles/serial_nrf52840_xxAA_s140_5.0.0-3.alpha.dir/__/__/mesh/serial/src/serial_handler_prov.c.obj
                0x0002d6f0                serial_handler_prov_init
 .text.serial_handler_prov_pkt_in
                0x0002d788      0x264 examples/serial/CMakeFiles/serial_nrf52840_xxAA_s140_5.0.0-3.alpha.dir/__/__/mesh/serial/src/serial_handler_prov.c.obj
                0x0002d788                serial_handler_prov_pkt_in
 .text.serial_handler_mesh_evt_handle
                0x0002d9ec      0x204 examples/serial/CMakeFiles/serial_nrf52840_xxAA_s140_5.0.0-3.alpha.dir/__/__/mesh/serial/src/serial_handler_dfu.c.obj
 .text.serial_handler_dfu_init
                0x0002dbf0       0x14 examples/serial/CMakeFiles/serial_nrf52840_xxAA_s140_5.0.0-3.alpha.dir/__/__/mesh/serial/src/serial_handler_dfu.c.obj
                0x0002dbf0                serial_handler_dfu_init
 .text.serial_handler_dfu_rx
                0x0002dc04      0x178 examples/serial/CMakeFiles/serial_nrf52840_xxAA_s140_5.0.0-3.alpha.dir/__/__/mesh/serial/src/serial_handler_dfu.c.obj
                0x0002dc04                serial_handler_dfu_rx
 .text.serial_handler_mesh_evt_handle
                0x0002dd7c      0x168 examples/serial/CMakeFiles/serial_nrf52840_xxAA_s140_5.0.0-3.alpha.dir/__/__/mesh/serial/src/serial_handler_mesh.c.obj
 .text.handle_cmd_clear
                0x0002dee4       0x20 examples/serial/CMakeFiles/serial_nrf52840_xxAA_s140_5.0.0-3.alpha.dir/__/__/mesh/serial/src/serial_handler_mesh.c.obj
 .text.handle_cmd_packet_send
                0x0002df04       0x90 examples/serial/CMakeFiles/serial_nrf52840_xxAA_s140_5.0.0-3.alpha.dir/__/__/mesh/serial/src/serial_handler_mesh.c.obj
 .text.handle_cmd_addr_virtual_count_max_get
                0x0002df94       0x1c examples/serial/CMakeFiles/serial_nrf52840_xxAA_s140_5.0.0-3.alpha.dir/__/__/mesh/serial/src/serial_handler_mesh.c.obj
 .text.handle_cmd_addr_nonvirtual_count_max_get
                0x0002dfb0       0x1c examples/serial/CMakeFiles/serial_nrf52840_xxAA_s140_5.0.0-3.alpha.dir/__/__/mesh/serial/src/serial_handler_mesh.c.obj
 .text.handle_cmd_addr_local_unicast_get
                0x0002dfcc       0x24 examples/serial/CMakeFiles/serial_nrf52840_xxAA_s140_5.0.0-3.alpha.dir/__/__/mesh/serial/src/serial_handler_mesh.c.obj
 .text.handle_cmd_devkey_count_max_get
                0x0002dff0       0x1c examples/serial/CMakeFiles/serial_nrf52840_xxAA_s140_5.0.0-3.alpha.dir/__/__/mesh/serial/src/serial_handler_mesh.c.obj
 .text.handle_cmd_subnet_count_max_get
                0x0002e00c       0x1c examples/serial/CMakeFiles/serial_nrf52840_xxAA_s140_5.0.0-3.alpha.dir/__/__/mesh/serial/src/serial_handler_mesh.c.obj
 .text.handle_cmd_addr_get_all
                0x0002e028       0x28 examples/serial/CMakeFiles/serial_nrf52840_xxAA_s140_5.0.0-3.alpha.dir/__/__/mesh/serial/src/serial_handler_mesh.c.obj
 .text.handle_cmd_addr_get
                0x0002e050       0x64 examples/serial/CMakeFiles/serial_nrf52840_xxAA_s140_5.0.0-3.alpha.dir/__/__/mesh/serial/src/serial_handler_mesh.c.obj
 .text.handle_cmd_addr_publication_remove
                0x0002e0b4       0x28 examples/serial/CMakeFiles/serial_nrf52840_xxAA_s140_5.0.0-3.alpha.dir/__/__/mesh/serial/src/serial_handler_mesh.c.obj
 .text.handle_cmd_addr_publication_add_virtual
                0x0002e0dc       0x28 examples/serial/CMakeFiles/serial_nrf52840_xxAA_s140_5.0.0-3.alpha.dir/__/__/mesh/serial/src/serial_handler_mesh.c.obj
 .text.handle_cmd_addr_publication_add
                0x0002e104       0x28 examples/serial/CMakeFiles/serial_nrf52840_xxAA_s140_5.0.0-3.alpha.dir/__/__/mesh/serial/src/serial_handler_mesh.c.obj
 .text.handle_cmd_addr_subscription_remove
                0x0002e12c       0x28 examples/serial/CMakeFiles/serial_nrf52840_xxAA_s140_5.0.0-3.alpha.dir/__/__/mesh/serial/src/serial_handler_mesh.c.obj
 .text.handle_cmd_addr_subscription_add_virtual
                0x0002e154       0x28 examples/serial/CMakeFiles/serial_nrf52840_xxAA_s140_5.0.0-3.alpha.dir/__/__/mesh/serial/src/serial_handler_mesh.c.obj
 .text.handle_cmd_addr_subscription_add
                0x0002e17c       0x28 examples/serial/CMakeFiles/serial_nrf52840_xxAA_s140_5.0.0-3.alpha.dir/__/__/mesh/serial/src/serial_handler_mesh.c.obj
 .text.handle_cmd_addr_local_unicast_set
                0x0002e1a4       0x24 examples/serial/CMakeFiles/serial_nrf52840_xxAA_s140_5.0.0-3.alpha.dir/__/__/mesh/serial/src/serial_handler_mesh.c.obj
 .text.handle_cmd_devkey_delete
                0x0002e1c8       0x28 examples/serial/CMakeFiles/serial_nrf52840_xxAA_s140_5.0.0-3.alpha.dir/__/__/mesh/serial/src/serial_handler_mesh.c.obj
 .text.handle_cmd_devkey_add
                0x0002e1f0       0x24 examples/serial/CMakeFiles/serial_nrf52840_xxAA_s140_5.0.0-3.alpha.dir/__/__/mesh/serial/src/serial_handler_mesh.c.obj
 .text.handle_cmd_appkey_get_all
                0x0002e214       0x40 examples/serial/CMakeFiles/serial_nrf52840_xxAA_s140_5.0.0-3.alpha.dir/__/__/mesh/serial/src/serial_handler_mesh.c.obj
 .text.handle_cmd_appkey_delete
                0x0002e254       0x28 examples/serial/CMakeFiles/serial_nrf52840_xxAA_s140_5.0.0-3.alpha.dir/__/__/mesh/serial/src/serial_handler_mesh.c.obj
 .text.handle_cmd_appkey_update
                0x0002e27c       0x2c examples/serial/CMakeFiles/serial_nrf52840_xxAA_s140_5.0.0-3.alpha.dir/__/__/mesh/serial/src/serial_handler_mesh.c.obj
 .text.handle_cmd_appkey_add
                0x0002e2a8       0x2c examples/serial/CMakeFiles/serial_nrf52840_xxAA_s140_5.0.0-3.alpha.dir/__/__/mesh/serial/src/serial_handler_mesh.c.obj
 .text.handle_cmd_subnet_get_all
                0x0002e2d4       0x38 examples/serial/CMakeFiles/serial_nrf52840_xxAA_s140_5.0.0-3.alpha.dir/__/__/mesh/serial/src/serial_handler_mesh.c.obj
 .text.handle_cmd_subnet_delete
                0x0002e30c       0x28 examples/serial/CMakeFiles/serial_nrf52840_xxAA_s140_5.0.0-3.alpha.dir/__/__/mesh/serial/src/serial_handler_mesh.c.obj
 .text.handle_cmd_subnet_update
                0x0002e334       0x2c examples/serial/CMakeFiles/serial_nrf52840_xxAA_s140_5.0.0-3.alpha.dir/__/__/mesh/serial/src/serial_handler_mesh.c.obj
 .text.handle_cmd_subnet_add
                0x0002e360       0x2c examples/serial/CMakeFiles/serial_nrf52840_xxAA_s140_5.0.0-3.alpha.dir/__/__/mesh/serial/src/serial_handler_mesh.c.obj
 .text.handle_cmd_disable
                0x0002e38c       0x18 examples/serial/CMakeFiles/serial_nrf52840_xxAA_s140_5.0.0-3.alpha.dir/__/__/mesh/serial/src/serial_handler_mesh.c.obj
 .text.handle_cmd_enable
                0x0002e3a4       0x18 examples/serial/CMakeFiles/serial_nrf52840_xxAA_s140_5.0.0-3.alpha.dir/__/__/mesh/serial/src/serial_handler_mesh.c.obj
 .text.handle_cmd_appkey_count_max_get
                0x0002e3bc       0x1c examples/serial/CMakeFiles/serial_nrf52840_xxAA_s140_5.0.0-3.alpha.dir/__/__/mesh/serial/src/serial_handler_mesh.c.obj
 .text.serial_handler_mesh_init
                0x0002e3d8       0x14 examples/serial/CMakeFiles/serial_nrf52840_xxAA_s140_5.0.0-3.alpha.dir/__/__/mesh/serial/src/serial_handler_mesh.c.obj
                0x0002e3d8                serial_handler_mesh_init
 .text.serial_handler_mesh_rx
                0x0002e3ec       0x8c examples/serial/CMakeFiles/serial_nrf52840_xxAA_s140_5.0.0-3.alpha.dir/__/__/mesh/serial/src/serial_handler_mesh.c.obj
                0x0002e3ec                serial_handler_mesh_rx
 .text.model_command
                0x0002e478       0x74 examples/serial/CMakeFiles/serial_nrf52840_xxAA_s140_5.0.0-3.alpha.dir/__/__/mesh/serial/src/serial_handler_models.c.obj
 .text.models_get
                0x0002e4ec       0x48 examples/serial/CMakeFiles/serial_nrf52840_xxAA_s140_5.0.0-3.alpha.dir/__/__/mesh/serial/src/serial_handler_models.c.obj
 .text.model_init
                0x0002e534       0x50 examples/serial/CMakeFiles/serial_nrf52840_xxAA_s140_5.0.0-3.alpha.dir/__/__/mesh/serial/src/serial_handler_models.c.obj
 .text.serial_handler_models_rx
                0x0002e584       0x30 examples/serial/CMakeFiles/serial_nrf52840_xxAA_s140_5.0.0-3.alpha.dir/__/__/mesh/serial/src/serial_handler_models.c.obj
                0x0002e584                serial_handler_models_rx
 .text.handle_cmd_device_beacon_params_get
                0x0002e5b4       0xb0 examples/serial/CMakeFiles/serial_nrf52840_xxAA_s140_5.0.0-3.alpha.dir/__/__/mesh/serial/src/serial_handler_device.c.obj
 .text.handle_cmd_device_fw_info_get
                0x0002e664        0xc examples/serial/CMakeFiles/serial_nrf52840_xxAA_s140_5.0.0-3.alpha.dir/__/__/mesh/serial/src/serial_handler_device.c.obj
 .text.handle_cmd_device_serial_version_get
                0x0002e670       0x1c examples/serial/CMakeFiles/serial_nrf52840_xxAA_s140_5.0.0-3.alpha.dir/__/__/mesh/serial/src/serial_handler_device.c.obj
 .text.handle_cmd_device_beacon_params_set
                0x0002e68c       0x8c examples/serial/CMakeFiles/serial_nrf52840_xxAA_s140_5.0.0-3.alpha.dir/__/__/mesh/serial/src/serial_handler_device.c.obj
 .text.handle_cmd_device_beacon_stop
                0x0002e718       0x48 examples/serial/CMakeFiles/serial_nrf52840_xxAA_s140_5.0.0-3.alpha.dir/__/__/mesh/serial/src/serial_handler_device.c.obj
 .text.handle_cmd_device_beacon_start
                0x0002e760       0x70 examples/serial/CMakeFiles/serial_nrf52840_xxAA_s140_5.0.0-3.alpha.dir/__/__/mesh/serial/src/serial_handler_device.c.obj
 .text.handle_cmd_device_radio_reset
                0x0002e7d0       0x1c examples/serial/CMakeFiles/serial_nrf52840_xxAA_s140_5.0.0-3.alpha.dir/__/__/mesh/serial/src/serial_handler_device.c.obj
 .text.handle_cmd_device_internal_events_report
                0x0002e7ec       0x20 examples/serial/CMakeFiles/serial_nrf52840_xxAA_s140_5.0.0-3.alpha.dir/__/__/mesh/serial/src/serial_handler_device.c.obj
 .text.event_report_cb
                0x0002e80c       0x5c examples/serial/CMakeFiles/serial_nrf52840_xxAA_s140_5.0.0-3.alpha.dir/__/__/mesh/serial/src/serial_handler_device.c.obj
 .text.handle_cmd_device_echo
                0x0002e868       0x40 examples/serial/CMakeFiles/serial_nrf52840_xxAA_s140_5.0.0-3.alpha.dir/__/__/mesh/serial/src/serial_handler_device.c.obj
 .text.serial_handler_device_init
                0x0002e8a8       0x14 examples/serial/CMakeFiles/serial_nrf52840_xxAA_s140_5.0.0-3.alpha.dir/__/__/mesh/serial/src/serial_handler_device.c.obj
                0x0002e8a8                serial_handler_device_init
 .text.serial_handler_device_rx
                0x0002e8bc       0x30 examples/serial/CMakeFiles/serial_nrf52840_xxAA_s140_5.0.0-3.alpha.dir/__/__/mesh/serial/src/serial_handler_device.c.obj
                0x0002e8bc                serial_handler_device_rx
 .text.nrf_mesh_serial_init
                0x0002e8ec       0x3c examples/serial/CMakeFiles/serial_nrf52840_xxAA_s140_5.0.0-3.alpha.dir/__/__/mesh/serial/src/nrf_mesh_serial.c.obj
                0x0002e8ec                nrf_mesh_serial_init
 .text.nrf_mesh_serial_enable
                0x0002e928        0x4 examples/serial/CMakeFiles/serial_nrf52840_xxAA_s140_5.0.0-3.alpha.dir/__/__/mesh/serial/src/nrf_mesh_serial.c.obj
                0x0002e928                nrf_mesh_serial_enable
 .text.serial_handler_app_cb_set
                0x0002e92c        0xc examples/serial/CMakeFiles/serial_nrf52840_xxAA_s140_5.0.0-3.alpha.dir/__/__/mesh/serial/src/serial_handler_app.c.obj
                0x0002e92c                serial_handler_app_cb_set
 .text.serial_handler_app_rx
                0x0002e938       0x30 examples/serial/CMakeFiles/serial_nrf52840_xxAA_s140_5.0.0-3.alpha.dir/__/__/mesh/serial/src/serial_handler_app.c.obj
                0x0002e938                serial_handler_app_rx
 .text._weak_handler
                0x0002e968        0x4 examples/serial/CMakeFiles/serial_nrf52840_xxAA_s140_5.0.0-3.alpha.dir/__/nrf_mesh_weak.c.obj
                0x0002e968                nrf_mesh_dfu_init
                0x0002e968                nrf_mesh_dfu_jump_to_bootloader
                0x0002e968                nrf_mesh_dfu_rx
                0x0002e968                nrf_mesh_dfu_bank_info_get
                0x0002e968                nrf_mesh_dfu_request
                0x0002e968                nrf_mesh_dfu_bank_flash
                0x0002e968                _weak_handler
                0x0002e968                nrf_mesh_dfu_relay
                0x0002e968                nrf_mesh_dfu_abort
                0x0002e968                mesh_flash_op_execute
                0x0002e968                nrf_mesh_dfu_state_get
 .text.SystemInit
                0x0002e96c      0x1bc examples/serial/CMakeFiles/serial_nrf52840_xxAA_s140_5.0.0-3.alpha.dir/__/__/external/nRF5_SDK_14.0.0_3bcc1f7/components/toolchain/system_nrf52840.c.obj
                0x0002e96c                SystemInit
 .text          0x0002eb28       0x3c examples/serial/CMakeFiles/serial_nrf52840_xxAA_s140_5.0.0-3.alpha.dir/__/__/external/nRF5_SDK_14.0.0_3bcc1f7/components/toolchain/gcc/gcc_startup_nrf52840.S.obj
                0x0002eb28                Reset_Handler
                0x0002eb50                NMI_Handler
                0x0002eb54                MemoryManagement_Handler
                0x0002eb56                BusFault_Handler
                0x0002eb58                UsageFault_Handler
                0x0002eb5a                SVC_Handler
                0x0002eb5c                DebugMon_Handler
                0x0002eb5e                PendSV_Handler
                0x0002eb60                SysTick_Handler
                0x0002eb62                POWER_CLOCK_IRQHandler
                0x0002eb62                RADIO_IRQHandler
                0x0002eb62                PDM_IRQHandler
                0x0002eb62                TEMP_IRQHandler
                0x0002eb62                TIMER3_IRQHandler
                0x0002eb62                PWM3_IRQHandler
                0x0002eb62                FPU_IRQHandler
                0x0002eb62                USBD_IRQHandler
                0x0002eb62                SPIM0_SPIS0_TWIM0_TWIS0_SPI0_TWI0_IRQHandler
                0x0002eb62                PWM1_IRQHandler
                0x0002eb62                TIMER4_IRQHandler
                0x0002eb62                CRYPTOCELL_IRQHandler
                0x0002eb62                RTC0_IRQHandler
                0x0002eb62                SWI4_EGU4_IRQHandler
                0x0002eb62                TIMER0_IRQHandler
                0x0002eb62                GPIOTE_IRQHandler
                0x0002eb62                UARTE1_IRQHandler
                0x0002eb62                TIMER1_IRQHandler
                0x0002eb62                SPIM3_IRQHandler
                0x0002eb62                PWM2_IRQHandler
                0x0002eb62                ECB_IRQHandler
                0x0002eb62                SPIM1_SPIS1_TWIM1_TWIS1_SPI1_TWI1_IRQHandler
                0x0002eb62                Default_Handler
                0x0002eb62                SAADC_IRQHandler
                0x0002eb62                CCM_AAR_IRQHandler
                0x0002eb62                WDT_IRQHandler
                0x0002eb62                I2S_IRQHandler
                0x0002eb62                SWI5_EGU5_IRQHandler
                0x0002eb62                RNG_IRQHandler
                0x0002eb62                RTC2_IRQHandler
                0x0002eb62                PWM0_IRQHandler
                0x0002eb62                SWI3_EGU3_IRQHandler
                0x0002eb62                RTC1_IRQHandler
                0x0002eb62                SWI1_EGU1_IRQHandler
                0x0002eb62                SPIM2_SPIS2_SPI2_IRQHandler
                0x0002eb62                NFCT_IRQHandler
                0x0002eb62                SWI0_EGU0_IRQHandler
                0x0002eb62                MWU_IRQHandler
                0x0002eb62                TIMER2_IRQHandler
                0x0002eb62                QSPI_IRQHandler
                0x0002eb62                COMP_LPCOMP_IRQHandler
 .text.internal_event_init
                0x0002eb64       0x48 mesh/core/libmesh_core_nrf52840_xxAA.a(internal_event.c.obj)
                0x0002eb64                internal_event_init
 .text.internal_event_push
                0x0002ebac       0x28 mesh/core/libmesh_core_nrf52840_xxAA.a(internal_event.c.obj)
                0x0002ebac                internal_event_push
 .text.nrf_mesh_configure_device_uuid_set
                0x0002ebd4       0x10 mesh/core/libmesh_core_nrf52840_xxAA.a(nrf_mesh_configure.c.obj)
                0x0002ebd4                nrf_mesh_configure_device_uuid_set
 .text.nrf_mesh_configure_device_uuid_reset
                0x0002ebe4       0x2c mesh/core/libmesh_core_nrf52840_xxAA.a(nrf_mesh_configure.c.obj)
                0x0002ebe4                nrf_mesh_configure_device_uuid_reset
 .text.nrf_mesh_configure_device_uuid_get
                0x0002ec10        0x8 mesh/core/libmesh_core_nrf52840_xxAA.a(nrf_mesh_configure.c.obj)
                0x0002ec10                nrf_mesh_configure_device_uuid_get
 .text.event_handle
                0x0002ec18       0x34 mesh/core/libmesh_core_nrf52840_xxAA.a(event.c.obj)
                0x0002ec18                event_handle
 .text.event_handler_add
                0x0002ec4c       0x90 mesh/core/libmesh_core_nrf52840_xxAA.a(event.c.obj)
                0x0002ec4c                event_handler_add
 .text.packet_buffer_max_packet_len_get
                0x0002ecdc       0x3c mesh/core/libmesh_core_nrf52840_xxAA.a(packet_buffer.c.obj)
                0x0002ecdc                packet_buffer_max_packet_len_get
 .text.packet_buffer_init
                0x0002ed18       0xec mesh/core/libmesh_core_nrf52840_xxAA.a(packet_buffer.c.obj)
                0x0002ed18                packet_buffer_init
 .text.packet_buffer_flush
                0x0002ee04       0xd4 mesh/core/libmesh_core_nrf52840_xxAA.a(packet_buffer.c.obj)
                0x0002ee04                packet_buffer_flush
 .text.packet_buffer_reserve
                0x0002eed8      0x150 mesh/core/libmesh_core_nrf52840_xxAA.a(packet_buffer.c.obj)
                0x0002eed8                packet_buffer_reserve
 .text.packet_buffer_commit
                0x0002f028      0x144 mesh/core/libmesh_core_nrf52840_xxAA.a(packet_buffer.c.obj)
                0x0002f028                packet_buffer_commit
 .text.packet_buffer_pop
                0x0002f16c       0xc8 mesh/core/libmesh_core_nrf52840_xxAA.a(packet_buffer.c.obj)
                0x0002f16c                packet_buffer_pop
 .text.packet_buffer_can_pop
                0x0002f234       0x84 mesh/core/libmesh_core_nrf52840_xxAA.a(packet_buffer.c.obj)
                0x0002f234                packet_buffer_can_pop
 .text.packet_buffer_packets_ready_to_pop
                0x0002f2b8       0xb4 mesh/core/libmesh_core_nrf52840_xxAA.a(packet_buffer.c.obj)
                0x0002f2b8                packet_buffer_packets_ready_to_pop
 .text.packet_buffer_free
                0x0002f36c       0xf0 mesh/core/libmesh_core_nrf52840_xxAA.a(packet_buffer.c.obj)
                0x0002f36c                packet_buffer_free
 .text.fifo_init
                0x0002f45c       0x5c mesh/core/libmesh_core_nrf52840_xxAA.a(fifo.c.obj)
                0x0002f45c                fifo_init
 .text.fifo_push
                0x0002f4b8       0x54 mesh/core/libmesh_core_nrf52840_xxAA.a(fifo.c.obj)
                0x0002f4b8                fifo_push
 .text.fifo_pop
                0x0002f50c       0x58 mesh/core/libmesh_core_nrf52840_xxAA.a(fifo.c.obj)
                0x0002f50c                fifo_pop
 .text.flash_mem_available
                0x0002f564       0x28 mesh/core/libmesh_core_nrf52840_xxAA.a(net_state.c.obj)
 .text.flash_store_iv_index
                0x0002f58c       0x38 mesh/core/libmesh_core_nrf52840_xxAA.a(net_state.c.obj)
 .text.init_flash_storage
                0x0002f5c4       0x44 mesh/core/libmesh_core_nrf52840_xxAA.a(net_state.c.obj)
 .text.net_state_reset
                0x0002f608       0x3c mesh/core/libmesh_core_nrf52840_xxAA.a(net_state.c.obj)
                0x0002f608                net_state_reset
 .text.flash_write_complete
                0x0002f644       0x7c mesh/core/libmesh_core_nrf52840_xxAA.a(net_state.c.obj)
 .text.seqnum_block_allocate
                0x0002f6c0       0x4c mesh/core/libmesh_core_nrf52840_xxAA.a(net_state.c.obj)
 .text.iv_update_trigger_if_pending
                0x0002f70c      0x17c mesh/core/libmesh_core_nrf52840_xxAA.a(net_state.c.obj)
 .text.iv_update_timer_handler
                0x0002f888       0x80 mesh/core/libmesh_core_nrf52840_xxAA.a(net_state.c.obj)
 .text.net_state_recover_from_flash
                0x0002f908      0x10c mesh/core/libmesh_core_nrf52840_xxAA.a(net_state.c.obj)
                0x0002f908                net_state_recover_from_flash
 .text.net_state_flash_area_get
                0x0002fa14        0xc mesh/core/libmesh_core_nrf52840_xxAA.a(net_state.c.obj)
                0x0002fa14                net_state_flash_area_get
 .text.net_state_init
                0x0002fa20       0x80 mesh/core/libmesh_core_nrf52840_xxAA.a(net_state.c.obj)
                0x0002fa20                net_state_init
 .text.net_state_seqnum_alloc
                0x0002faa0       0xd4 mesh/core/libmesh_core_nrf52840_xxAA.a(net_state.c.obj)
                0x0002faa0                net_state_seqnum_alloc
 .text.net_state_iv_index_lock
                0x0002fb74       0x50 mesh/core/libmesh_core_nrf52840_xxAA.a(net_state.c.obj)
                0x0002fb74                net_state_iv_index_lock
 .text.net_state_beacon_received
                0x0002fbc4       0xec mesh/core/libmesh_core_nrf52840_xxAA.a(net_state.c.obj)
                0x0002fbc4                net_state_beacon_received
 .text.net_state_beacon_iv_index_get
                0x0002fcb0        0xc mesh/core/libmesh_core_nrf52840_xxAA.a(net_state.c.obj)
                0x0002fcb0                net_state_beacon_iv_index_get
 .text.net_state_tx_iv_index_get
                0x0002fcbc       0x14 mesh/core/libmesh_core_nrf52840_xxAA.a(net_state.c.obj)
                0x0002fcbc                net_state_tx_iv_index_get
 .text.net_state_rx_iv_index_get
                0x0002fcd0       0x18 mesh/core/libmesh_core_nrf52840_xxAA.a(net_state.c.obj)
                0x0002fcd0                net_state_rx_iv_index_get
 .text.net_state_iv_update_get
                0x0002fce8        0xc mesh/core/libmesh_core_nrf52840_xxAA.a(net_state.c.obj)
                0x0002fce8                net_state_iv_update_get
 .text.nrf_mesh_address_type_get
                0x0002fcf4       0x10 mesh/core/libmesh_core_nrf52840_xxAA.a(nrf_mesh_utils.c.obj)
                0x0002fcf4                nrf_mesh_address_type_get
 .text.sd_softdevice_is_enabled
                0x0002fd04        0x4 mesh/core/libmesh_core_nrf52840_xxAA.a(nrf_mesh.c.obj)
 .text.nrf_mesh_init
                0x0002fd08       0xb8 mesh/core/libmesh_core_nrf52840_xxAA.a(nrf_mesh.c.obj)
                0x0002fd08                nrf_mesh_init
 .text.nrf_mesh_enable
                0x0002fdc0       0x50 mesh/core/libmesh_core_nrf52840_xxAA.a(nrf_mesh.c.obj)
                0x0002fdc0                nrf_mesh_enable
 .text.nrf_mesh_disable
                0x0002fe10       0x2c mesh/core/libmesh_core_nrf52840_xxAA.a(nrf_mesh.c.obj)
                0x0002fe10                nrf_mesh_disable
 .text.nrf_mesh_packet_send
                0x0002fe3c        0x4 mesh/core/libmesh_core_nrf52840_xxAA.a(nrf_mesh.c.obj)
                0x0002fe3c                nrf_mesh_packet_send
 .text.nrf_mesh_process
                0x0002fe40      0x21c mesh/core/libmesh_core_nrf52840_xxAA.a(nrf_mesh.c.obj)
                0x0002fe40                nrf_mesh_process
 .text.nrf_mesh_on_ble_evt
                0x0003005c        0x4 mesh/core/libmesh_core_nrf52840_xxAA.a(nrf_mesh.c.obj)
                0x0003005c                nrf_mesh_on_ble_evt
 .text.nrf_mesh_on_sd_evt
                0x00030060        0xc mesh/core/libmesh_core_nrf52840_xxAA.a(nrf_mesh.c.obj)
                0x00030060                nrf_mesh_on_sd_evt
 .text.nrf_mesh_evt_handler_add
                0x0003006c        0x4 mesh/core/libmesh_core_nrf52840_xxAA.a(nrf_mesh.c.obj)
                0x0003006c                nrf_mesh_evt_handler_add
 .text.sd_power_reset_reason_clr
                0x00030070        0x4 mesh/core/libmesh_core_nrf52840_xxAA.a(hal.c.obj)
 .text.hal_device_reset
                0x00030074       0x2c mesh/core/libmesh_core_nrf52840_xxAA.a(hal.c.obj)
                0x00030074                hal_device_reset
 .text.hal_lfclk_ppm_get
                0x000300a0       0x14 mesh/core/libmesh_core_nrf52840_xxAA.a(hal.c.obj)
                0x000300a0                hal_lfclk_ppm_get
 .text.timer_cb
                0x000300b4        0xc mesh/core/libmesh_core_nrf52840_xxAA.a(timer_scheduler.c.obj)
 .text.add_evt.constprop.0
                0x000300c0       0x78 mesh/core/libmesh_core_nrf52840_xxAA.a(timer_scheduler.c.obj)
 .text.flag_event_cb
                0x00030138      0x2e4 mesh/core/libmesh_core_nrf52840_xxAA.a(timer_scheduler.c.obj)
 .text.timer_sch_init
                0x0003041c       0x24 mesh/core/libmesh_core_nrf52840_xxAA.a(timer_scheduler.c.obj)
                0x0003041c                timer_sch_init
 .text.timer_sch_schedule
                0x00030440       0x84 mesh/core/libmesh_core_nrf52840_xxAA.a(timer_scheduler.c.obj)
                0x00030440                timer_sch_schedule
 .text.timer_sch_abort
                0x000304c4       0x68 mesh/core/libmesh_core_nrf52840_xxAA.a(timer_scheduler.c.obj)
                0x000304c4                timer_sch_abort
 .text.timer_sch_reschedule
                0x0003052c       0xa4 mesh/core/libmesh_core_nrf52840_xxAA.a(timer_scheduler.c.obj)
                0x0003052c                timer_sch_reschedule
 .text.timer_event_handler
                0x000305d0       0xd8 mesh/core/libmesh_core_nrf52840_xxAA.a(timer.c.obj)
                0x000305d0                timer_event_handler
 .text.timer_order_cb
                0x000306a8       0x98 mesh/core/libmesh_core_nrf52840_xxAA.a(timer.c.obj)
                0x000306a8                timer_order_cb
 .text.timer_now
                0x00030740       0x58 mesh/core/libmesh_core_nrf52840_xxAA.a(timer.c.obj)
                0x00030740                timer_now
 .text.timer_on_ts_begin
                0x00030798      0x110 mesh/core/libmesh_core_nrf52840_xxAA.a(timer.c.obj)
                0x00030798                timer_on_ts_begin
 .text.timer_on_ts_end
                0x000308a8       0x78 mesh/core/libmesh_core_nrf52840_xxAA.a(timer.c.obj)
                0x000308a8                timer_on_ts_end
 .text.timer_cb
                0x00030920       0x10 mesh/core/libmesh_core_nrf52840_xxAA.a(ticker.c.obj)
 .text.ticker_init
                0x00030930       0x3c mesh/core/libmesh_core_nrf52840_xxAA.a(ticker.c.obj)
                0x00030930                ticker_init
 .text.sd_rand_application_bytes_available_get
                0x0003096c        0x4 mesh/core/libmesh_core_nrf52840_xxAA.a(rand.c.obj)
 .text.sd_rand_application_vector_get
                0x00030970        0x4 mesh/core/libmesh_core_nrf52840_xxAA.a(rand.c.obj)
 .text.rand_prng_seed
                0x00030974       0x6c mesh/core/libmesh_core_nrf52840_xxAA.a(rand.c.obj)
                0x00030974                rand_prng_seed
 .text.rand_prng_get
                0x000309e0       0x28 mesh/core/libmesh_core_nrf52840_xxAA.a(rand.c.obj)
                0x000309e0                rand_prng_get
 .text.rand_hw_rng_get
                0x00030a08       0x58 mesh/core/libmesh_core_nrf52840_xxAA.a(rand.c.obj)
                0x00030a08                rand_hw_rng_get
 .text.nrf_mesh_opt_set
                0x00030a60       0x28 mesh/core/libmesh_core_nrf52840_xxAA.a(nrf_mesh_opt.c.obj)
                0x00030a60                nrf_mesh_opt_set
 .text.sd_radio_session_open
                0x00030a88        0x4 mesh/core/libmesh_core_nrf52840_xxAA.a(timeslot.c.obj)
 .text.sd_radio_session_close
                0x00030a8c        0x4 mesh/core/libmesh_core_nrf52840_xxAA.a(timeslot.c.obj)
 .text.sd_radio_request
                0x00030a90        0x4 mesh/core/libmesh_core_nrf52840_xxAA.a(timeslot.c.obj)
 .text.end_timer_handler
                0x00030a94       0x2c mesh/core/libmesh_core_nrf52840_xxAA.a(timeslot.c.obj)
 .text.radio_signal_callback
                0x00030ac0      0x324 mesh/core/libmesh_core_nrf52840_xxAA.a(timeslot.c.obj)
 .text.timeslot_sd_event_handler
                0x00030de4       0x50 mesh/core/libmesh_core_nrf52840_xxAA.a(timeslot.c.obj)
                0x00030de4                timeslot_sd_event_handler
 .text.timeslot_init
                0x00030e34       0x4c mesh/core/libmesh_core_nrf52840_xxAA.a(timeslot.c.obj)
                0x00030e34                timeslot_init
 .text.timeslot_start
                0x00030e80       0x20 mesh/core/libmesh_core_nrf52840_xxAA.a(timeslot.c.obj)
                0x00030e80                timeslot_start
 .text.timeslot_stop
                0x00030ea0       0x30 mesh/core/libmesh_core_nrf52840_xxAA.a(timeslot.c.obj)
                0x00030ea0                timeslot_stop
 .text.timeslot_state_lock
                0x00030ed0       0x44 mesh/core/libmesh_core_nrf52840_xxAA.a(timeslot.c.obj)
                0x00030ed0                timeslot_state_lock
 .text.timeslot_end_is_pending
                0x00030f14       0x24 mesh/core/libmesh_core_nrf52840_xxAA.a(timeslot.c.obj)
                0x00030f14                timeslot_end_is_pending
 .text.timeslot_start_time_get
                0x00030f38        0xc mesh/core/libmesh_core_nrf52840_xxAA.a(timeslot.c.obj)
                0x00030f38                timeslot_start_time_get
 .text.timeslot_remaining_time_get
                0x00030f44       0x40 mesh/core/libmesh_core_nrf52840_xxAA.a(timeslot.c.obj)
                0x00030f44                timeslot_remaining_time_get
 .text.timeslot_is_in_cb
                0x00030f84        0xc mesh/core/libmesh_core_nrf52840_xxAA.a(timeslot.c.obj)
                0x00030f84                timeslot_is_in_cb
 .text.timeslot_trigger
                0x00030f90       0x24 mesh/core/libmesh_core_nrf52840_xxAA.a(timeslot.c.obj)
                0x00030f90                timeslot_trigger
 .text.QDEC_IRQHandler
                0x00030fb4       0xe0 mesh/core/libmesh_core_nrf52840_xxAA.a(bearer_event.c.obj)
                0x00030fb4                QDEC_IRQHandler
 .text.bearer_event_init
                0x00031094       0x3c mesh/core/libmesh_core_nrf52840_xxAA.a(bearer_event.c.obj)
                0x00031094                bearer_event_init
 .text.bearer_event_generic_post
                0x000310d0       0x50 mesh/core/libmesh_core_nrf52840_xxAA.a(bearer_event.c.obj)
                0x000310d0                bearer_event_generic_post
 .text.bearer_event_timer_post
                0x00031120       0x50 mesh/core/libmesh_core_nrf52840_xxAA.a(bearer_event.c.obj)
                0x00031120                bearer_event_timer_post
 .text.bearer_event_critical_section_begin
                0x00031170       0x44 mesh/core/libmesh_core_nrf52840_xxAA.a(bearer_event.c.obj)
                0x00031170                bearer_event_critical_section_begin
 .text.bearer_event_critical_section_end
                0x000311b4       0x44 mesh/core/libmesh_core_nrf52840_xxAA.a(bearer_event.c.obj)
                0x000311b4                bearer_event_critical_section_end
 .text.bearer_event_flag_add
                0x000311f8       0x50 mesh/core/libmesh_core_nrf52840_xxAA.a(bearer_event.c.obj)
                0x000311f8                bearer_event_flag_add
 .text.bearer_event_flag_set
                0x00031248       0x58 mesh/core/libmesh_core_nrf52840_xxAA.a(bearer_event.c.obj)
                0x00031248                bearer_event_flag_set
 .text.bearer_event_sequential_add
                0x000312a0       0x48 mesh/core/libmesh_core_nrf52840_xxAA.a(bearer_event.c.obj)
                0x000312a0                bearer_event_sequential_add
 .text.bearer_event_sequential_post
                0x000312e8       0x6c mesh/core/libmesh_core_nrf52840_xxAA.a(bearer_event.c.obj)
                0x000312e8                bearer_event_sequential_post
 .text.bearer_event_sequential_pending
                0x00031354       0x20 mesh/core/libmesh_core_nrf52840_xxAA.a(bearer_event.c.obj)
                0x00031354                bearer_event_sequential_pending
 .text.enc_aes_encrypt
                0x00031374        0x4 mesh/core/libmesh_core_nrf52840_xxAA.a(enc.c.obj)
                0x00031374                enc_aes_encrypt
 .text.enc_aes_cmac
                0x00031378        0x4 mesh/core/libmesh_core_nrf52840_xxAA.a(enc.c.obj)
                0x00031378                enc_aes_cmac
 .text.enc_aes_ccm_encrypt
                0x0003137c        0x4 mesh/core/libmesh_core_nrf52840_xxAA.a(enc.c.obj)
                0x0003137c                enc_aes_ccm_encrypt
 .text.enc_aes_ccm_decrypt
                0x00031380        0x4 mesh/core/libmesh_core_nrf52840_xxAA.a(enc.c.obj)
                0x00031380                enc_aes_ccm_decrypt
 .text.enc_nonce_generate
                0x00031384       0xc4 mesh/core/libmesh_core_nrf52840_xxAA.a(enc.c.obj)
                0x00031384                enc_nonce_generate
 .text.enc_s1   0x00031448       0x40 mesh/core/libmesh_core_nrf52840_xxAA.a(enc.c.obj)
                0x00031448                enc_s1
 .text.enc_k1   0x00031488       0x50 mesh/core/libmesh_core_nrf52840_xxAA.a(enc.c.obj)
                0x00031488                enc_k1
 .text.enc_k2   0x000314d8       0xec mesh/core/libmesh_core_nrf52840_xxAA.a(enc.c.obj)
                0x000314d8                enc_k2
 .text.enc_k3   0x000315c4       0x74 mesh/core/libmesh_core_nrf52840_xxAA.a(enc.c.obj)
                0x000315c4                enc_k3
 .text.enc_k4   0x00031638       0x6c mesh/core/libmesh_core_nrf52840_xxAA.a(enc.c.obj)
                0x00031638                enc_k4
 .text.network_init
                0x000316a4       0x28 mesh/core/libmesh_core_nrf52840_xxAA.a(network.c.obj)
                0x000316a4                network_init
 .text.network_opt_set
                0x000316cc       0x58 mesh/core/libmesh_core_nrf52840_xxAA.a(network.c.obj)
                0x000316cc                network_opt_set
 .text.network_packet_alloc
                0x00031724      0x1a4 mesh/core/libmesh_core_nrf52840_xxAA.a(network.c.obj)
                0x00031724                network_packet_alloc
 .text.network_packet_send
                0x000318c8      0x1ec mesh/core/libmesh_core_nrf52840_xxAA.a(network.c.obj)
                0x000318c8                network_packet_send
 .text.network_packet_in
                0x00031ab4      0x6c8 mesh/core/libmesh_core_nrf52840_xxAA.a(network.c.obj)
                0x00031ab4                network_packet_in
 .text.nrf_mesh_keygen_aid
                0x0003217c       0x18 mesh/core/libmesh_core_nrf52840_xxAA.a(nrf_mesh_keygen.c.obj)
                0x0003217c                nrf_mesh_keygen_aid
 .text.nrf_mesh_keygen_network_secmat
                0x00032194       0x24 mesh/core/libmesh_core_nrf52840_xxAA.a(nrf_mesh_keygen.c.obj)
                0x00032194                nrf_mesh_keygen_network_secmat
 .text.nrf_mesh_keygen_beacon_secmat
                0x000321b8       0x50 mesh/core/libmesh_core_nrf52840_xxAA.a(nrf_mesh_keygen.c.obj)
                0x000321b8                nrf_mesh_keygen_beacon_secmat
 .text.nrf_mesh_keygen_virtual_address
                0x00032208       0x50 mesh/core/libmesh_core_nrf52840_xxAA.a(nrf_mesh_keygen.c.obj)
                0x00032208                nrf_mesh_keygen_virtual_address
 .text.log_callback_rtt
                0x00032258       0x2c mesh/core/libmesh_core_nrf52840_xxAA.a(log.c.obj)
                0x00032258                log_callback_rtt
 .text.log_init
                0x00032284       0x20 mesh/core/libmesh_core_nrf52840_xxAA.a(log.c.obj)
                0x00032284                log_init
 .text.log_printf
                0x000322a4       0x20 mesh/core/libmesh_core_nrf52840_xxAA.a(log.c.obj)
                0x000322a4                log_printf
 .text.process_action_queue
                0x000322c4      0x834 mesh/core/libmesh_core_nrf52840_xxAA.a(flash_manager.c.obj)
 .text.flash_op_ended_callback
                0x00032af8       0x24 mesh/core/libmesh_core_nrf52840_xxAA.a(flash_manager.c.obj)
 .text.flash_manager_init
                0x00032b1c       0x68 mesh/core/libmesh_core_nrf52840_xxAA.a(flash_manager.c.obj)
                0x00032b1c                flash_manager_init
 .text.flash_manager_remove
                0x00032b84       0x78 mesh/core/libmesh_core_nrf52840_xxAA.a(flash_manager.c.obj)
                0x00032b84                flash_manager_remove
 .text.flash_manager_entry_next_get
                0x00032bfc      0x15c mesh/core/libmesh_core_nrf52840_xxAA.a(flash_manager.c.obj)
                0x00032bfc                flash_manager_entry_next_get
 .text.flash_manager_entry_alloc
                0x00032d58       0x9c mesh/core/libmesh_core_nrf52840_xxAA.a(flash_manager.c.obj)
                0x00032d58                flash_manager_entry_alloc
 .text.flash_manager_entry_commit
                0x00032df4       0x6c mesh/core/libmesh_core_nrf52840_xxAA.a(flash_manager.c.obj)
                0x00032df4                flash_manager_entry_commit
 .text.flash_manager_entry_invalidate
                0x00032e60       0xb8 mesh/core/libmesh_core_nrf52840_xxAA.a(flash_manager.c.obj)
                0x00032e60                flash_manager_entry_invalidate
 .text.flash_manager_add
                0x00032f18      0x474 mesh/core/libmesh_core_nrf52840_xxAA.a(flash_manager.c.obj)
                0x00032f18                flash_manager_add
 .text.flash_manager_mem_listener_register
                0x0003338c       0x50 mesh/core/libmesh_core_nrf52840_xxAA.a(flash_manager.c.obj)
                0x0003338c                flash_manager_mem_listener_register
 .text.flash_manager_is_stable
                0x000333dc       0x20 mesh/core/libmesh_core_nrf52840_xxAA.a(flash_manager.c.obj)
                0x000333dc                flash_manager_is_stable
 .text.flash_manager_on_defrag_end
                0x000333fc       0x64 mesh/core/libmesh_core_nrf52840_xxAA.a(flash_manager.c.obj)
                0x000333fc                flash_manager_on_defrag_end
 .text.flash_manager_recovery_page_get
                0x00033460        0x4 mesh/core/libmesh_core_nrf52840_xxAA.a(flash_manager.c.obj)
                0x00033460                flash_manager_recovery_page_get
 .text.ccm_soft_crypt.constprop.0
                0x00033464      0x298 mesh/core/libmesh_core_nrf52840_xxAA.a(ccm_soft.c.obj)
 .text.ccm_soft_authenticate
                0x000336fc      0x324 mesh/core/libmesh_core_nrf52840_xxAA.a(ccm_soft.c.obj)
 .text.ccm_soft_encrypt
                0x00033a20       0x78 mesh/core/libmesh_core_nrf52840_xxAA.a(ccm_soft.c.obj)
                0x00033a20                ccm_soft_encrypt
 .text.ccm_soft_decrypt
                0x00033a98      0x10c mesh/core/libmesh_core_nrf52840_xxAA.a(ccm_soft.c.obj)
                0x00033a98                ccm_soft_decrypt
 .text.beacon_init
                0x00033ba4       0x48 mesh/core/libmesh_core_nrf52840_xxAA.a(beacon.c.obj)
                0x00033ba4                beacon_init
 .text.beacon_tx
                0x00033bec       0x6c mesh/core/libmesh_core_nrf52840_xxAA.a(beacon.c.obj)
                0x00033bec                beacon_tx
 .text.beacon_create
                0x00033c58       0x50 mesh/core/libmesh_core_nrf52840_xxAA.a(beacon.c.obj)
                0x00033c58                beacon_create
 .text.beacon_packet_in
                0x00033ca8      0x180 mesh/core/libmesh_core_nrf52840_xxAA.a(beacon.c.obj)
                0x00033ca8                beacon_packet_in
 .text.entry_get
                0x00033e28       0x8c mesh/core/libmesh_core_nrf52840_xxAA.a(flash_manager_internal.c.obj)
                0x00033e28                entry_get
 .text.adv_tx_complete_callback
                0x00033eb4       0x58 mesh/core/libmesh_core_nrf52840_xxAA.a(core_tx.c.obj)
 .text.core_tx_init
                0x00033f0c       0x4c mesh/core/libmesh_core_nrf52840_xxAA.a(core_tx.c.obj)
                0x00033f0c                core_tx_init
 .text.core_tx_complete_cb_set
                0x00033f58        0xc mesh/core/libmesh_core_nrf52840_xxAA.a(core_tx.c.obj)
                0x00033f58                core_tx_complete_cb_set
 .text.core_tx_packet_alloc
                0x00033f64       0xa4 mesh/core/libmesh_core_nrf52840_xxAA.a(core_tx.c.obj)
                0x00033f64                core_tx_packet_alloc
 .text.core_tx_packet_send
                0x00034008       0x74 mesh/core/libmesh_core_nrf52840_xxAA.a(core_tx.c.obj)
                0x00034008                core_tx_packet_send
 .text.core_tx_packet_discard
                0x0003407c       0x74 mesh/core/libmesh_core_nrf52840_xxAA.a(core_tx.c.obj)
                0x0003407c                core_tx_packet_discard
 .text.core_tx_adv_count_set
                0x000340f0       0x40 mesh/core/libmesh_core_nrf52840_xxAA.a(core_tx.c.obj)
                0x000340f0                core_tx_adv_count_set
 .text.core_tx_adv_interval_set
                0x00034130       0x34 mesh/core/libmesh_core_nrf52840_xxAA.a(core_tx.c.obj)
                0x00034130                core_tx_adv_interval_set
 .text.network_beacon_tx_cb
                0x00034164      0x10c mesh/core/libmesh_core_nrf52840_xxAA.a(net_beacon.c.obj)
 .text.net_beacon_init
                0x00034270       0x64 mesh/core/libmesh_core_nrf52840_xxAA.a(net_beacon.c.obj)
                0x00034270                net_beacon_init
 .text.net_beacon_packet_in
                0x000342d4       0xe0 mesh/core/libmesh_core_nrf52840_xxAA.a(net_beacon.c.obj)
                0x000342d4                net_beacon_packet_in
 .text.tx_complete_event_callback
                0x000343b4       0x40 mesh/core/libmesh_core_nrf52840_xxAA.a(advertiser.c.obj)
 .text.broadcast_complete_cb
                0x000343f4       0x70 mesh/core/libmesh_core_nrf52840_xxAA.a(advertiser.c.obj)
 .text.timeout_event
                0x00034464      0x13c mesh/core/libmesh_core_nrf52840_xxAA.a(advertiser.c.obj)
 .text.advertiser_init
                0x000345a0        0xc mesh/core/libmesh_core_nrf52840_xxAA.a(advertiser.c.obj)
                0x000345a0                advertiser_init
 .text.advertiser_instance_init
                0x000345ac      0x11c mesh/core/libmesh_core_nrf52840_xxAA.a(advertiser.c.obj)
                0x000345ac                advertiser_instance_init
 .text.advertiser_enable
                0x000346c8       0x44 mesh/core/libmesh_core_nrf52840_xxAA.a(advertiser.c.obj)
                0x000346c8                advertiser_enable
 .text.advertiser_disable
                0x0003470c        0xc mesh/core/libmesh_core_nrf52840_xxAA.a(advertiser.c.obj)
                0x0003470c                advertiser_disable
 .text.advertiser_packet_alloc
                0x00034718       0x9c mesh/core/libmesh_core_nrf52840_xxAA.a(advertiser.c.obj)
                0x00034718                advertiser_packet_alloc
 .text.advertiser_packet_send
                0x000347b4       0x98 mesh/core/libmesh_core_nrf52840_xxAA.a(advertiser.c.obj)
                0x000347b4                advertiser_packet_send
 .text.advertiser_packet_discard
                0x0003484c       0x34 mesh/core/libmesh_core_nrf52840_xxAA.a(advertiser.c.obj)
                0x0003484c                advertiser_packet_discard
 .text.advertiser_channels_set
                0x00034880       0xac mesh/core/libmesh_core_nrf52840_xxAA.a(advertiser.c.obj)
                0x00034880                advertiser_channels_set
 .text.advertiser_interval_set
                0x0003492c       0x80 mesh/core/libmesh_core_nrf52840_xxAA.a(advertiser.c.obj)
                0x0003492c                advertiser_interval_set
 .text.advertiser_flush
                0x000349ac       0x20 mesh/core/libmesh_core_nrf52840_xxAA.a(advertiser.c.obj)
                0x000349ac                advertiser_flush
 .text.advertiser_address_default_get
                0x000349cc       0x68 mesh/core/libmesh_core_nrf52840_xxAA.a(advertiser.c.obj)
                0x000349cc                advertiser_address_default_get
 .text.action_switch.part.2
                0x00034a34       0xc0 mesh/core/libmesh_core_nrf52840_xxAA.a(bearer_handler.c.obj)
 .text.bearer_handler_init
                0x00034af4       0x2c mesh/core/libmesh_core_nrf52840_xxAA.a(bearer_handler.c.obj)
                0x00034af4                bearer_handler_init
 .text.bearer_handler_start
                0x00034b20       0x1c mesh/core/libmesh_core_nrf52840_xxAA.a(bearer_handler.c.obj)
                0x00034b20                bearer_handler_start
 .text.bearer_handler_stop
                0x00034b3c       0x20 mesh/core/libmesh_core_nrf52840_xxAA.a(bearer_handler.c.obj)
                0x00034b3c                bearer_handler_stop
 .text.bearer_handler_action_enqueue
                0x00034b5c       0xa0 mesh/core/libmesh_core_nrf52840_xxAA.a(bearer_handler.c.obj)
                0x00034b5c                bearer_handler_action_enqueue
 .text.bearer_handler_action_end
                0x00034bfc       0x84 mesh/core/libmesh_core_nrf52840_xxAA.a(bearer_handler.c.obj)
                0x00034bfc                bearer_handler_action_end
 .text.bearer_handler_radio_irq_handler
                0x00034c80       0x70 mesh/core/libmesh_core_nrf52840_xxAA.a(bearer_handler.c.obj)
                0x00034c80                bearer_handler_radio_irq_handler
 .text.bearer_handler_timer_irq_handler
                0x00034cf0       0x3c mesh/core/libmesh_core_nrf52840_xxAA.a(bearer_handler.c.obj)
                0x00034cf0                bearer_handler_timer_irq_handler
 .text.bearer_handler_on_ts_begin
                0x00034d2c       0x4c mesh/core/libmesh_core_nrf52840_xxAA.a(bearer_handler.c.obj)
                0x00034d2c                bearer_handler_on_ts_begin
 .text.bearer_handler_on_ts_end
                0x00034d78       0x48 mesh/core/libmesh_core_nrf52840_xxAA.a(bearer_handler.c.obj)
                0x00034d78                bearer_handler_on_ts_end
 .text.radio_irq_handler
                0x00034dc0       0xb4 mesh/core/libmesh_core_nrf52840_xxAA.a(broadcast.c.obj)
 .text.broadcast_start
                0x00034e74       0x8c mesh/core/libmesh_core_nrf52840_xxAA.a(broadcast.c.obj)
 .text.broadcast_send
                0x00034f00       0x8c mesh/core/libmesh_core_nrf52840_xxAA.a(broadcast.c.obj)
                0x00034f00                broadcast_send
 .text.radio_config_reset
                0x00034f8c       0x38 mesh/core/libmesh_core_nrf52840_xxAA.a(radio_config.c.obj)
                0x00034f8c                radio_config_reset
 .text.radio_config_channel_set
                0x00034fc4       0x34 mesh/core/libmesh_core_nrf52840_xxAA.a(radio_config.c.obj)
                0x00034fc4                radio_config_channel_set
 .text.radio_config_config
                0x00034ff8       0x78 mesh/core/libmesh_core_nrf52840_xxAA.a(radio_config.c.obj)
                0x00034ff8                radio_config_config
 .text.radio_config_access_addr_set
                0x00035070       0x68 mesh/core/libmesh_core_nrf52840_xxAA.a(radio_config.c.obj)
                0x00035070                radio_config_access_addr_set
 .text.scan_window_end
                0x000350d8       0x28 mesh/core/libmesh_core_nrf52840_xxAA.a(scanner.c.obj)
 .text.scan_window_start
                0x00035100       0x38 mesh/core/libmesh_core_nrf52840_xxAA.a(scanner.c.obj)
 .text.radio_start
                0x00035138      0x19c mesh/core/libmesh_core_nrf52840_xxAA.a(scanner.c.obj)
 .text.scanner_radio_start
                0x000352d4      0x14c mesh/core/libmesh_core_nrf52840_xxAA.a(scanner.c.obj)
                0x000352d4                scanner_radio_start
 .text.scanner_radio_stop
                0x00035420       0x34 mesh/core/libmesh_core_nrf52840_xxAA.a(scanner.c.obj)
                0x00035420                scanner_radio_stop
 .text.scanner_radio_irq_handler
                0x00035454      0x200 mesh/core/libmesh_core_nrf52840_xxAA.a(scanner.c.obj)
                0x00035454                scanner_radio_irq_handler
 .text.scanner_enable
                0x00035654       0x5c mesh/core/libmesh_core_nrf52840_xxAA.a(scanner.c.obj)
                0x00035654                scanner_enable
 .text.scanner_disable
                0x000356b0       0x5c mesh/core/libmesh_core_nrf52840_xxAA.a(scanner.c.obj)
                0x000356b0                scanner_disable
 .text.scanner_rx
                0x0003570c       0x84 mesh/core/libmesh_core_nrf52840_xxAA.a(scanner.c.obj)
                0x0003570c                scanner_rx
 .text.scanner_packet_release
                0x00035790       0x4c mesh/core/libmesh_core_nrf52840_xxAA.a(scanner.c.obj)
                0x00035790                scanner_packet_release
 .text.scanner_config_reset
                0x000357dc       0xa8 mesh/core/libmesh_core_nrf52840_xxAA.a(scanner.c.obj)
                0x000357dc                scanner_config_reset
 .text.scanner_init
                0x00035884       0x48 mesh/core/libmesh_core_nrf52840_xxAA.a(scanner.c.obj)
                0x00035884                scanner_init
 .text.sd_ecb_block_encrypt
                0x000358cc        0x4 mesh/core/libmesh_core_nrf52840_xxAA.a(aes.c.obj)
 .text.aes_encrypt
                0x000358d0       0x34 mesh/core/libmesh_core_nrf52840_xxAA.a(aes.c.obj)
                0x000358d0                aes_encrypt
 .text.msg_cache_init
                0x00035904       0x24 mesh/core/libmesh_core_nrf52840_xxAA.a(msg_cache.c.obj)
                0x00035904                msg_cache_init
 .text.msg_cache_entry_exists
                0x00035928       0x40 mesh/core/libmesh_core_nrf52840_xxAA.a(msg_cache.c.obj)
                0x00035928                msg_cache_entry_exists
 .text.msg_cache_entry_add
                0x00035968       0x30 mesh/core/libmesh_core_nrf52840_xxAA.a(msg_cache.c.obj)
                0x00035968                msg_cache_entry_add
 .text.tx_complete
                0x00035998       0x34 mesh/core/libmesh_core_nrf52840_xxAA.a(transport.c.obj)
 .text.upper_trs_packet_encrypt
                0x000359cc       0xe0 mesh/core/libmesh_core_nrf52840_xxAA.a(transport.c.obj)
 .text.sar_ctx_alloc
                0x00035aac       0xd0 mesh/core/libmesh_core_nrf52840_xxAA.a(transport.c.obj)
 .text.trs_packet_header_build
                0x00035b7c       0xac mesh/core/libmesh_core_nrf52840_xxAA.a(transport.c.obj)
 .text.sar_ack_send
                0x00035c28      0x144 mesh/core/libmesh_core_nrf52840_xxAA.a(transport.c.obj)
 .text.test_transport_decrypt
                0x00035d6c       0x98 mesh/core/libmesh_core_nrf52840_xxAA.a(transport.c.obj)
 .text.upper_transport_access_packet_in
                0x00035e04      0x34c mesh/core/libmesh_core_nrf52840_xxAA.a(transport.c.obj)
 .text.trs_sar_packet_out
                0x00036150      0x19c mesh/core/libmesh_core_nrf52840_xxAA.a(transport.c.obj)
 .text.sar_ctx_cancel
                0x000362ec      0x1d0 mesh/core/libmesh_core_nrf52840_xxAA.a(transport.c.obj)
 .text.abort_timeout
                0x000364bc        0x8 mesh/core/libmesh_core_nrf52840_xxAA.a(transport.c.obj)
 .text.retry_timeout
                0x000364c4       0xb0 mesh/core/libmesh_core_nrf52840_xxAA.a(transport.c.obj)
 .text.transport_sar_process
                0x00036574      0x2a8 mesh/core/libmesh_core_nrf52840_xxAA.a(transport.c.obj)
 .text.upper_transport_packet_in
                0x0003681c      0x2e0 mesh/core/libmesh_core_nrf52840_xxAA.a(transport.c.obj)
 .text.ack_timeout
                0x00036afc      0x15c mesh/core/libmesh_core_nrf52840_xxAA.a(transport.c.obj)
 .text.transport_init
                0x00036c58       0x98 mesh/core/libmesh_core_nrf52840_xxAA.a(transport.c.obj)
                0x00036c58                transport_init
 .text.transport_packet_in
                0x00036cf0      0x824 mesh/core/libmesh_core_nrf52840_xxAA.a(transport.c.obj)
                0x00036cf0                transport_packet_in
 .text.transport_tx
                0x00037514      0x32c mesh/core/libmesh_core_nrf52840_xxAA.a(transport.c.obj)
                0x00037514                transport_tx
 .text.transport_opt_set
                0x00037840       0xdc mesh/core/libmesh_core_nrf52840_xxAA.a(transport.c.obj)
                0x00037840                transport_opt_set
 .text.erase_source
                0x0003791c       0x34 mesh/core/libmesh_core_nrf52840_xxAA.a(flash_manager_defrag.c.obj)
 .text.erase_recovery_area
                0x00037950       0x34 mesh/core/libmesh_core_nrf52840_xxAA.a(flash_manager_defrag.c.obj)
 .text.write_back
                0x00037984       0x44 mesh/core/libmesh_core_nrf52840_xxAA.a(flash_manager_defrag.c.obj)
 .text.write_defrag_start_pointer
                0x000379c8       0x38 mesh/core/libmesh_core_nrf52840_xxAA.a(flash_manager_defrag.c.obj)
 .text.copy_metadata
                0x00037a00       0x58 mesh/core/libmesh_core_nrf52840_xxAA.a(flash_manager_defrag.c.obj)
 .text.seal_storage_page
                0x00037a58       0x70 mesh/core/libmesh_core_nrf52840_xxAA.a(flash_manager_defrag.c.obj)
 .text.post_process
                0x00037ac8       0x64 mesh/core/libmesh_core_nrf52840_xxAA.a(flash_manager_defrag.c.obj)
 .text.check_for_invalid_entries
                0x00037b2c       0x40 mesh/core/libmesh_core_nrf52840_xxAA.a(flash_manager_defrag.c.obj)
 .text.execute_procedure_step
                0x00037b6c       0xc0 mesh/core/libmesh_core_nrf52840_xxAA.a(flash_manager_defrag.c.obj)
 .text.on_flash_op_end
                0x00037c2c       0x4c mesh/core/libmesh_core_nrf52840_xxAA.a(flash_manager_defrag.c.obj)
 .text.invalidate_duplicate_entries
                0x00037c78      0x148 mesh/core/libmesh_core_nrf52840_xxAA.a(flash_manager_defrag.c.obj)
 .text.backup_entries
                0x00037dc0      0x1fc mesh/core/libmesh_core_nrf52840_xxAA.a(flash_manager_defrag.c.obj)
 .text.flash_manager_defrag_init
                0x00037fbc       0x68 mesh/core/libmesh_core_nrf52840_xxAA.a(flash_manager_defrag.c.obj)
                0x00037fbc                flash_manager_defrag_init
 .text.flash_manager_defrag_is_running
                0x00038024       0x10 mesh/core/libmesh_core_nrf52840_xxAA.a(flash_manager_defrag.c.obj)
                0x00038024                flash_manager_defrag_is_running
 .text.flash_manager_defrag
                0x00038034       0xe4 mesh/core/libmesh_core_nrf52840_xxAA.a(flash_manager_defrag.c.obj)
                0x00038034                flash_manager_defrag
 .text.flash_manager_defrag_recovery_page_get
                0x00038118        0xc mesh/core/libmesh_core_nrf52840_xxAA.a(flash_manager_defrag.c.obj)
                0x00038118                flash_manager_defrag_recovery_page_get
 .text.packet_mgr_init
                0x00038124       0x4c mesh/core/libmesh_core_nrf52840_xxAA.a(packet_mgr.c.obj)
                0x00038124                packet_mgr_init
 .text.send_end_events
                0x00038170       0x8c mesh/core/libmesh_core_nrf52840_xxAA.a(mesh_flash.c.obj)
 .text.flash_op_schedule
                0x000381fc       0xac mesh/core/libmesh_core_nrf52840_xxAA.a(mesh_flash.c.obj)
 .text.flash_op_start
                0x000382a8      0x1c4 mesh/core/libmesh_core_nrf52840_xxAA.a(mesh_flash.c.obj)
 .text.mesh_flash_init
                0x0003846c       0x88 mesh/core/libmesh_core_nrf52840_xxAA.a(mesh_flash.c.obj)
                0x0003846c                mesh_flash_init
 .text.mesh_flash_user_callback_set
                0x000384f4       0x2c mesh/core/libmesh_core_nrf52840_xxAA.a(mesh_flash.c.obj)
                0x000384f4                mesh_flash_user_callback_set
 .text.mesh_flash_op_push
                0x00038520      0x140 mesh/core/libmesh_core_nrf52840_xxAA.a(mesh_flash.c.obj)
                0x00038520                mesh_flash_op_push
 .text.queue_init
                0x00038660       0x28 mesh/core/libmesh_core_nrf52840_xxAA.a(queue.c.obj)
                0x00038660                queue_init
 .text.queue_push
                0x00038688       0x50 mesh/core/libmesh_core_nrf52840_xxAA.a(queue.c.obj)
                0x00038688                queue_push
 .text.queue_pop
                0x000386d8       0x40 mesh/core/libmesh_core_nrf52840_xxAA.a(queue.c.obj)
                0x000386d8                queue_pop
 .text.queue_peek
                0x00038718       0x20 mesh/core/libmesh_core_nrf52840_xxAA.a(queue.c.obj)
                0x00038718                queue_peek
 .text.aes_cmac_subkey_generate
                0x00038738      0x2b0 mesh/core/libmesh_core_nrf52840_xxAA.a(aes_cmac.c.obj)
                0x00038738                aes_cmac_subkey_generate
 .text.aes_cmac
                0x000389e8      0x49c mesh/core/libmesh_core_nrf52840_xxAA.a(aes_cmac.c.obj)
                0x000389e8                aes_cmac
 .text.msq_init
                0x00038e84       0x98 mesh/core/libmesh_core_nrf52840_xxAA.a(msqueue.c.obj)
                0x00038e84                msq_init
 .text.msq_get  0x00038f1c       0x68 mesh/core/libmesh_core_nrf52840_xxAA.a(msqueue.c.obj)
                0x00038f1c                msq_get
 .text.msq_move
                0x00038f84       0x60 mesh/core/libmesh_core_nrf52840_xxAA.a(msqueue.c.obj)
                0x00038f84                msq_move
 .text.msq_available
                0x00038fe4       0x58 mesh/core/libmesh_core_nrf52840_xxAA.a(msqueue.c.obj)
                0x00038fe4                msq_available
 .text.replay_cache_init
                0x0003903c       0x28 mesh/core/libmesh_core_nrf52840_xxAA.a(replay_cache.c.obj)
                0x0003903c                replay_cache_init
 .text.replay_cache_add
                0x00039064       0x68 mesh/core/libmesh_core_nrf52840_xxAA.a(replay_cache.c.obj)
                0x00039064                replay_cache_add
 .text.replay_cache_has_room
                0x000390cc       0x48 mesh/core/libmesh_core_nrf52840_xxAA.a(replay_cache.c.obj)
                0x000390cc                replay_cache_has_room
 .text.replay_cache_has_elem
                0x00039114       0x40 mesh/core/libmesh_core_nrf52840_xxAA.a(replay_cache.c.obj)
                0x00039114                replay_cache_has_elem
 .text.fen_filters_apply
                0x00039154       0x38 mesh/core/libmesh_core_nrf52840_xxAA.a(filter_engine.c.obj)
                0x00039154                fen_filters_apply
 .text.nrf_flash_erase
                0x0003918c       0x5c mesh/core/libmesh_core_nrf52840_xxAA.a(nrf_flash.c.obj)
                0x0003918c                nrf_flash_erase
 .text.nrf_flash_write
                0x000391e8       0x6c mesh/core/libmesh_core_nrf52840_xxAA.a(nrf_flash.c.obj)
                0x000391e8                nrf_flash_write
 .text.default_RNG
                0x00039254        0xc external/micro-ecc/libuECC_nrf52840_xxAA.a(uECC.c.obj)
 .text.uECC_generate_random_int
                0x00039260      0x170 external/micro-ecc/libuECC_nrf52840_xxAA.a(uECC.c.obj)
 .text.apply_z  0x000393d0      0x1a8 external/micro-ecc/libuECC_nrf52840_xxAA.a(uECC.c.obj)
 .text.uECC_vli_modAdd
                0x00039578       0xc8 external/micro-ecc/libuECC_nrf52840_xxAA.a(uECC.c.obj)
 .text.x_side_default
                0x00039640      0x254 external/micro-ecc/libuECC_nrf52840_xxAA.a(uECC.c.obj)
 .text.vli_mmod_fast_secp256r1
                0x00039894      0x520 external/micro-ecc/libuECC_nrf52840_xxAA.a(uECC.c.obj)
 .text.XYcZ_add
                0x00039db4      0x6dc external/micro-ecc/libuECC_nrf52840_xxAA.a(uECC.c.obj)
 .text.XYcZ_addC
                0x0003a490      0xa94 external/micro-ecc/libuECC_nrf52840_xxAA.a(uECC.c.obj)
 .text.uECC_vli_modInv.part.4
                0x0003af24      0x6e8 external/micro-ecc/libuECC_nrf52840_xxAA.a(uECC.c.obj)
 .text.EccPoint_mult.constprop.5
                0x0003b60c      0x470 external/micro-ecc/libuECC_nrf52840_xxAA.a(uECC.c.obj)
 .text.double_jacobian_default
                0x0003ba7c      0x7ec external/micro-ecc/libuECC_nrf52840_xxAA.a(uECC.c.obj)
 .text.uECC_secp256r1
                0x0003c268        0x8 external/micro-ecc/libuECC_nrf52840_xxAA.a(uECC.c.obj)
                0x0003c268                uECC_secp256r1
 .text.uECC_make_key
                0x0003c270      0x23c external/micro-ecc/libuECC_nrf52840_xxAA.a(uECC.c.obj)
                0x0003c270                uECC_make_key
 .text.uECC_shared_secret
                0x0003c4ac      0x788 external/micro-ecc/libuECC_nrf52840_xxAA.a(uECC.c.obj)
                0x0003c4ac                uECC_shared_secret
 .text.uECC_valid_point
                0x0003cc34      0x134 external/micro-ecc/libuECC_nrf52840_xxAA.a(uECC.c.obj)
                0x0003cc34                uECC_valid_point
 .text.uECC_valid_public_key
                0x0003cd68       0xe8 external/micro-ecc/libuECC_nrf52840_xxAA.a(uECC.c.obj)
                0x0003cd68                uECC_valid_public_key
 .text.SEGGER_RTT_Write
                0x0003ce50      0x1e4 external/rtt/librtt_nrf52840_xxAA.a(SEGGER_RTT.c.obj)
                0x0003ce50                SEGGER_RTT_Write
 .text._PrintUnsigned
                0x0003d034      0x194 external/rtt/librtt_nrf52840_xxAA.a(SEGGER_RTT_printf.c.obj)
 .text.SEGGER_RTT_vprintf
                0x0003d1c8      0x464 external/rtt/librtt_nrf52840_xxAA.a(SEGGER_RTT_printf.c.obj)
                0x0003d1c8                SEGGER_RTT_vprintf
 .text.SEGGER_RTT_printf
                0x0003d62c       0x20 external/rtt/librtt_nrf52840_xxAA.a(SEGGER_RTT_printf.c.obj)
                0x0003d62c                SEGGER_RTT_printf
 .text.exit     0x0003d64c       0x28 c:/a/gcc_arm/6/bin/../lib/gcc/arm-none-eabi/6.3.1/../../../../arm-none-eabi/lib/thumb/v7e-m/fpv4-sp/hard\libc_nano.a(lib_a-exit.o)
                0x0003d64c                exit
 .text.__libc_init_array
                0x0003d674       0x48 c:/a/gcc_arm/6/bin/../lib/gcc/arm-none-eabi/6.3.1/../../../../arm-none-eabi/lib/thumb/v7e-m/fpv4-sp/hard\libc_nano.a(lib_a-init.o)
                0x0003d674                __libc_init_array
 .text.malloc   0x0003d6bc       0x10 c:/a/gcc_arm/6/bin/../lib/gcc/arm-none-eabi/6.3.1/../../../../arm-none-eabi/lib/thumb/v7e-m/fpv4-sp/hard\libc_nano.a(lib_a-malloc.o)
                0x0003d6bc                malloc
 .text.free     0x0003d6cc       0x10 c:/a/gcc_arm/6/bin/../lib/gcc/arm-none-eabi/6.3.1/../../../../arm-none-eabi/lib/thumb/v7e-m/fpv4-sp/hard\libc_nano.a(lib_a-malloc.o)
                0x0003d6cc                free
 .text.memcmp   0x0003d6dc       0x1e c:/a/gcc_arm/6/bin/../lib/gcc/arm-none-eabi/6.3.1/../../../../arm-none-eabi/lib/thumb/v7e-m/fpv4-sp/hard\libc_nano.a(lib_a-memcmp.o)
                0x0003d6dc                memcmp
 .text.memcpy   0x0003d6fa       0x16 c:/a/gcc_arm/6/bin/../lib/gcc/arm-none-eabi/6.3.1/../../../../arm-none-eabi/lib/thumb/v7e-m/fpv4-sp/hard\libc_nano.a(lib_a-memcpy-stub.o)
                0x0003d6fa                memcpy
 .text.memset   0x0003d710       0x10 c:/a/gcc_arm/6/bin/../lib/gcc/arm-none-eabi/6.3.1/../../../../arm-none-eabi/lib/thumb/v7e-m/fpv4-sp/hard\libc_nano.a(lib_a-memset.o)
                0x0003d710                memset
 .text._free_r  0x0003d720       0x9c c:/a/gcc_arm/6/bin/../lib/gcc/arm-none-eabi/6.3.1/../../../../arm-none-eabi/lib/thumb/v7e-m/fpv4-sp/hard\libc_nano.a(lib_a-nano-freer.o)
                0x0003d720                _free_r
 .text._malloc_r
                0x0003d7bc       0xbc c:/a/gcc_arm/6/bin/../lib/gcc/arm-none-eabi/6.3.1/../../../../arm-none-eabi/lib/thumb/v7e-m/fpv4-sp/hard\libc_nano.a(lib_a-nano-mallocr.o)
                0x0003d7bc                _malloc_r
 .text._sbrk_r  0x0003d878       0x20 c:/a/gcc_arm/6/bin/../lib/gcc/arm-none-eabi/6.3.1/../../../../arm-none-eabi/lib/thumb/v7e-m/fpv4-sp/hard\libc_nano.a(lib_a-sbrkr.o)
                0x0003d878                _sbrk_r
 .text.strcpy   0x0003d898       0x10 c:/a/gcc_arm/6/bin/../lib/gcc/arm-none-eabi/6.3.1/../../../../arm-none-eabi/lib/thumb/v7e-m/fpv4-sp/hard\libc_nano.a(lib_a-strcpy.o)
                0x0003d898                strcpy
 .text          0x0003d8a8       0x10 c:/a/gcc_arm/6/bin/../lib/gcc/arm-none-eabi/6.3.1/../../../../arm-none-eabi/lib/thumb/v7e-m/fpv4-sp/hard\libc_nano.a(lib_a-strlen.o)
                0x0003d8a8                strlen
 .text.strrchr  0x0003d8b8       0x26 c:/a/gcc_arm/6/bin/../lib/gcc/arm-none-eabi/6.3.1/../../../../arm-none-eabi/lib/thumb/v7e-m/fpv4-sp/hard\libc_nano.a(lib_a-strrchr.o)
                0x0003d8b8                strrchr
 .text.__malloc_lock
                0x0003d8de        0x2 c:/a/gcc_arm/6/bin/../lib/gcc/arm-none-eabi/6.3.1/../../../../arm-none-eabi/lib/thumb/v7e-m/fpv4-sp/hard\libc_nano.a(lib_a-mlock.o)
                0x0003d8de                __malloc_lock
 .text.__malloc_unlock
                0x0003d8e0        0x2 c:/a/gcc_arm/6/bin/../lib/gcc/arm-none-eabi/6.3.1/../../../../arm-none-eabi/lib/thumb/v7e-m/fpv4-sp/hard\libc_nano.a(lib_a-mlock.o)
                0x0003d8e0                __malloc_unlock
 .text.strchr   0x0003d8e2       0x1c c:/a/gcc_arm/6/bin/../lib/gcc/arm-none-eabi/6.3.1/../../../../arm-none-eabi/lib/thumb/v7e-m/fpv4-sp/hard\libc_nano.a(lib_a-strchr.o)
                0x0003d8e2                strchr
 *fill*         0x0003d8fe        0x2 
 .text._sbrk    0x0003d900       0x1c c:/a/gcc_arm/6/bin/../lib/gcc/arm-none-eabi/6.3.1/../../../../arm-none-eabi/lib/thumb/v7e-m/fpv4-sp/hard\libnosys.a(sbrk.o)
                0x0003d900                _sbrk
 .text._exit    0x0003d91c        0x4 c:/a/gcc_arm/6/bin/../lib/gcc/arm-none-eabi/6.3.1/../../../../arm-none-eabi/lib/thumb/v7e-m/fpv4-sp/hard\libnosys.a(_exit.o)
                0x0003d91c                _exit
 *(.init)
 .init          0x0003d920        0x4 c:/a/gcc_arm/6/bin/../lib/gcc/arm-none-eabi/6.3.1/thumb/v7e-m/fpv4-sp/hard/crti.o
                0x0003d920                _init
 .init          0x0003d924        0x8 c:/a/gcc_arm/6/bin/../lib/gcc/arm-none-eabi/6.3.1/thumb/v7e-m/fpv4-sp/hard/crtn.o
 *(.fini)
 .fini          0x0003d92c        0x4 c:/a/gcc_arm/6/bin/../lib/gcc/arm-none-eabi/6.3.1/thumb/v7e-m/fpv4-sp/hard/crti.o
                0x0003d92c                _fini
 .fini          0x0003d930        0x8 c:/a/gcc_arm/6/bin/../lib/gcc/arm-none-eabi/6.3.1/thumb/v7e-m/fpv4-sp/hard/crtn.o
 *crtbegin.o(.ctors)
 *crtbegin?.o(.ctors)
 *(EXCLUDE_FILE(*crtend.o *crtend?.o) .ctors)
 *(SORT(.ctors.*))
 *(.ctors)
 *crtbegin.o(.dtors)
 *crtbegin?.o(.dtors)
 *(EXCLUDE_FILE(*crtend.o *crtend?.o) .dtors)
 *(SORT(.dtors.*))
 *(.dtors)
 *(.rodata*)
 .rodata        0x0003d938        0x8 examples/serial/CMakeFiles/serial_nrf52840_xxAA_s140_5.0.0-3.alpha.dir/src/main.c.obj
 .rodata.main.str1.4
                0x0003d940       0xb6 examples/serial/CMakeFiles/serial_nrf52840_xxAA_s140_5.0.0-3.alpha.dir/src/main.c.obj
 *fill*         0x0003d9f6        0x2 
 .rodata.HardFault_Handler.str1.4
                0x0003d9f8        0xe examples/serial/CMakeFiles/serial_nrf52840_xxAA_s140_5.0.0-3.alpha.dir/__/nrf_mesh_sdk.c.obj
 *fill*         0x0003da06        0x2 
 .rodata.app_error_handler.str1.4
                0x0003da08       0x1d examples/serial/CMakeFiles/serial_nrf52840_xxAA_s140_5.0.0-3.alpha.dir/__/nrf_mesh_sdk.c.obj
 *fill*         0x0003da25        0x3 
 .rodata.mesh_assert_handler.str1.4
                0x0003da28       0x35 examples/serial/CMakeFiles/serial_nrf52840_xxAA_s140_5.0.0-3.alpha.dir/__/nrf_mesh_sdk.c.obj
 *fill*         0x0003da5d        0x3 
 .rodata.mesh_core_setup.str1.4
                0x0003da60       0x4d examples/serial/CMakeFiles/serial_nrf52840_xxAA_s140_5.0.0-3.alpha.dir/__/nrf_mesh_sdk.c.obj
 *fill*         0x0003daad        0x3 
 .rodata.mesh_softdevice_enable.str1.4
                0x0003dab0       0x65 examples/serial/CMakeFiles/serial_nrf52840_xxAA_s140_5.0.0-3.alpha.dir/__/nrf_mesh_sdk.c.obj
 *fill*         0x0003db15        0x3 
 .rodata.softdevice_assert_handler.str1.4
                0x0003db18       0x1d examples/serial/CMakeFiles/serial_nrf52840_xxAA_s140_5.0.0-3.alpha.dir/__/nrf_mesh_sdk.c.obj
 *fill*         0x0003db35        0x3 
 .rodata.m_prov_callbacks
                0x0003db38       0x10 examples/serial/CMakeFiles/serial_nrf52840_xxAA_s140_5.0.0-3.alpha.dir/__/__/mesh/prov/src/prov_provisioner.c.obj
 .rodata.m_prov_callbacks
                0x0003db48       0x10 examples/serial/CMakeFiles/serial_nrf52840_xxAA_s140_5.0.0-3.alpha.dir/__/__/mesh/prov/src/prov_provisionee.c.obj
 .rodata.prov_provisionee_cb_ack_received.str1.4
                0x0003db58       0x53 examples/serial/CMakeFiles/serial_nrf52840_xxAA_s140_5.0.0-3.alpha.dir/__/__/mesh/prov/src/prov_provisionee.c.obj
 *fill*         0x0003dbab        0x1 
 .rodata.pdu_sizes.10990
                0x0003dbac        0xa examples/serial/CMakeFiles/serial_nrf52840_xxAA_s140_5.0.0-3.alpha.dir/__/__/mesh/prov/src/provisioning.c.obj
 *fill*         0x0003dbb6        0x2 
 .rodata.prov_cb_pkt_in.str1.4
                0x0003dbb8       0x34 examples/serial/CMakeFiles/serial_nrf52840_xxAA_s140_5.0.0-3.alpha.dir/__/__/mesh/prov/src/provisioning.c.obj
 .rodata.alphanumeric.11094
                0x0003dbec       0x25 examples/serial/CMakeFiles/serial_nrf52840_xxAA_s140_5.0.0-3.alpha.dir/__/__/mesh/prov/src/prov_utils.c.obj
 *fill*         0x0003dc11        0x3 
 .rodata.numeric_max.11088
                0x0003dc14       0x24 examples/serial/CMakeFiles/serial_nrf52840_xxAA_s140_5.0.0-3.alpha.dir/__/__/mesh/prov/src/prov_utils.c.obj
 .rodata.prov_utils_authentication_values_derive.str1.4
                0x0003dc38        0x5 examples/serial/CMakeFiles/serial_nrf52840_xxAA_s140_5.0.0-3.alpha.dir/__/__/mesh/prov/src/prov_utils.c.obj
 *fill*         0x0003dc3d        0x3 
 .rodata.prov_utils_derive_keys.str1.4
                0x0003dc40       0x15 examples/serial/CMakeFiles/serial_nrf52840_xxAA_s140_5.0.0-3.alpha.dir/__/__/mesh/prov/src/prov_utils.c.obj
 *fill*         0x0003dc55        0x3 
 .rodata.crctable.10852
                0x0003dc58      0x100 examples/serial/CMakeFiles/serial_nrf52840_xxAA_s140_5.0.0-3.alpha.dir/__/__/mesh/prov/src/prov_bearer_adv.c.obj
 .rodata.interface.11081
                0x0003dd58       0x14 examples/serial/CMakeFiles/serial_nrf52840_xxAA_s140_5.0.0-3.alpha.dir/__/__/mesh/prov/src/prov_bearer_adv.c.obj
 .rodata.prov_bearer_adv_listen.str1.4
                0x0003dd6c       0x50 examples/serial/CMakeFiles/serial_nrf52840_xxAA_s140_5.0.0-3.alpha.dir/__/__/mesh/prov/src/prov_bearer_adv.c.obj
 .rodata.prov_bearer_adv_packet_in.str1.4
                0x0003ddbc      0x283 examples/serial/CMakeFiles/serial_nrf52840_xxAA_s140_5.0.0-3.alpha.dir/__/__/mesh/prov/src/prov_bearer_adv.c.obj
 *fill*         0x0003e03f        0x1 
 .rodata.tx_retry_cb.str1.4
                0x0003e040       0x14 examples/serial/CMakeFiles/serial_nrf52840_xxAA_s140_5.0.0-3.alpha.dir/__/__/mesh/prov/src/prov_bearer_adv.c.obj
 .rodata.access_model_publish.str1.4
                0x0003e054       0x13 examples/serial/CMakeFiles/serial_nrf52840_xxAA_s140_5.0.0-3.alpha.dir/__/__/mesh/access/src/access.c.obj
 *fill*         0x0003e067        0x1 
 .rodata.mesh_evt_cb.str1.4
                0x0003e068       0x2f examples/serial/CMakeFiles/serial_nrf52840_xxAA_s140_5.0.0-3.alpha.dir/__/__/mesh/access/src/access.c.obj
 *fill*         0x0003e097        0x1 
 .rodata.m_flash_groups
                0x0003e098       0xc0 examples/serial/CMakeFiles/serial_nrf52840_xxAA_s140_5.0.0-3.alpha.dir/__/__/mesh/access/src/device_state_manager.c.obj
 .rodata.m_cmd_handlers
                0x0003e158       0xb0 examples/serial/CMakeFiles/serial_nrf52840_xxAA_s140_5.0.0-3.alpha.dir/__/__/mesh/serial/src/serial_handler_access.c.obj
 .rodata.serial_process_cmd.str1.4
                0x0003e208       0x6a examples/serial/CMakeFiles/serial_nrf52840_xxAA_s140_5.0.0-3.alpha.dir/__/__/mesh/serial/src/serial.c.obj
 *fill*         0x0003e272        0x2 
 .rodata.serial_start.str1.4
                0x0003e274       0x11 examples/serial/CMakeFiles/serial_nrf52840_xxAA_s140_5.0.0-3.alpha.dir/__/__/mesh/serial/src/serial.c.obj
 *fill*         0x0003e285        0x3 
 .rodata.serial_handler_prov_init.str1.4
                0x0003e288       0x4e examples/serial/CMakeFiles/serial_nrf52840_xxAA_s140_5.0.0-3.alpha.dir/__/__/mesh/serial/src/serial_handler_prov.c.obj
 *fill*         0x0003e2d6        0x2 
 .rodata.lengths.11111
                0x0003e2d8        0x7 examples/serial/CMakeFiles/serial_nrf52840_xxAA_s140_5.0.0-3.alpha.dir/__/__/mesh/serial/src/serial_handler_dfu.c.obj
 *fill*         0x0003e2df        0x1 
 .rodata.m_handlers
                0x0003e2e0       0xe8 examples/serial/CMakeFiles/serial_nrf52840_xxAA_s140_5.0.0-3.alpha.dir/__/__/mesh/serial/src/serial_handler_mesh.c.obj
 .rodata.m_cmd_handlers
                0x0003e3c8       0x18 examples/serial/CMakeFiles/serial_nrf52840_xxAA_s140_5.0.0-3.alpha.dir/__/__/mesh/serial/src/serial_handler_models.c.obj
 .rodata.m_cmd_handlers
                0x0003e3e0       0x48 examples/serial/CMakeFiles/serial_nrf52840_xxAA_s140_5.0.0-3.alpha.dir/__/__/mesh/serial/src/serial_handler_device.c.obj
 .rodata.types_lookup.9118
                0x0003e428        0x4 mesh/core/libmesh_core_nrf52840_xxAA.a(nrf_mesh_utils.c.obj)
 .rodata.nrf_mesh_process.str1.4
                0x0003e42c       0x73 mesh/core/libmesh_core_nrf52840_xxAA.a(nrf_mesh.c.obj)
 *fill*         0x0003e49f        0x1 
 .rodata.CSWTCH.8
                0x0003e4a0       0x20 mesh/core/libmesh_core_nrf52840_xxAA.a(hal.c.obj)
 .rodata        0x0003e4c0       0x18 mesh/core/libmesh_core_nrf52840_xxAA.a(enc.c.obj)
 .rodata.network_packet_in.str1.4
                0x0003e4d8       0x49 mesh/core/libmesh_core_nrf52840_xxAA.a(network.c.obj)
 *fill*         0x0003e521        0x3 
 .rodata.network_packet_send.str1.4
                0x0003e524       0x4a mesh/core/libmesh_core_nrf52840_xxAA.a(network.c.obj)
 *fill*         0x0003e56e        0x2 
 .rodata        0x0003e570        0x7 mesh/core/libmesh_core_nrf52840_xxAA.a(nrf_mesh_keygen.c.obj)
 *fill*         0x0003e577        0x1 
 .rodata.log_callback_rtt.str1.4
                0x0003e578       0x15 mesh/core/libmesh_core_nrf52840_xxAA.a(log.c.obj)
 *fill*         0x0003e58d        0x3 
 .rodata.str1.4
                0x0003e590       0x11 mesh/core/libmesh_core_nrf52840_xxAA.a(log.c.obj)
 *fill*         0x0003e5a1        0x3 
 .rodata.INVALID_HEADER
                0x0003e5a4        0x4 mesh/core/libmesh_core_nrf52840_xxAA.a(flash_manager.c.obj)
                0x0003e5a4                INVALID_HEADER
 .rodata.PADDING_HEADER
                0x0003e5a8        0x4 mesh/core/libmesh_core_nrf52840_xxAA.a(flash_manager.c.obj)
                0x0003e5a8                PADDING_HEADER
 .rodata.SEAL_HEADER
                0x0003e5ac        0x4 mesh/core/libmesh_core_nrf52840_xxAA.a(flash_manager.c.obj)
                0x0003e5ac                SEAL_HEADER
 .rodata.process_action_queue.str1.4
                0x0003e5b0       0x21 mesh/core/libmesh_core_nrf52840_xxAA.a(flash_manager.c.obj)
                                 0x52 (size before relaxing)
 *fill*         0x0003e5d1        0x3 
 .rodata.beacon_packet_in.str1.4
                0x0003e5d4       0x55 mesh/core/libmesh_core_nrf52840_xxAA.a(beacon.c.obj)
                                 0x60 (size before relaxing)
 *fill*         0x0003e629        0x3 
 .rodata.net_beacon_init.str1.4
                0x0003e62c        0x5 mesh/core/libmesh_core_nrf52840_xxAA.a(net_beacon.c.obj)
 *fill*         0x0003e631        0x3 
 .rodata.radio_mode_to_us_per_byte.9494
                0x0003e634        0x6 mesh/core/libmesh_core_nrf52840_xxAA.a(broadcast.c.obj)
 *fill*         0x0003e63a        0x2 
 .rodata.channel_rf_offsets.8756
                0x0003e63c       0x28 mesh/core/libmesh_core_nrf52840_xxAA.a(radio_config.c.obj)
 .rodata.sar_ack_send.str1.4
                0x0003e664       0x1d mesh/core/libmesh_core_nrf52840_xxAA.a(transport.c.obj)
                                 0x4e (size before relaxing)
 *fill*         0x0003e681        0x3 
 .rodata.sar_ctx_cancel.str1.4
                0x0003e684       0x18 mesh/core/libmesh_core_nrf52840_xxAA.a(transport.c.obj)
 .rodata.test_transport_decrypt.str1.4
                0x0003e69c       0x13 mesh/core/libmesh_core_nrf52840_xxAA.a(transport.c.obj)
 *fill*         0x0003e6af        0x1 
 .rodata.transport_packet_in.str1.4
                0x0003e6b0       0x24 mesh/core/libmesh_core_nrf52840_xxAA.a(transport.c.obj)
 .rodata.transport_tx.str1.4
                0x0003e6d4       0x2f mesh/core/libmesh_core_nrf52840_xxAA.a(transport.c.obj)
                                 0x38 (size before relaxing)
 *fill*         0x0003e703        0x1 
 .rodata.upper_transport_access_packet_in.str1.4
                0x0003e704       0x29 mesh/core/libmesh_core_nrf52840_xxAA.a(transport.c.obj)
 *fill*         0x0003e72d        0x3 
 .rodata.upper_transport_packet_in.str1.4
                0x0003e730       0x2e mesh/core/libmesh_core_nrf52840_xxAA.a(transport.c.obj)
 *fill*         0x0003e75e        0x2 
 .rodata.flash_manager_defrag.str1.4
                0x0003e760       0x28 mesh/core/libmesh_core_nrf52840_xxAA.a(flash_manager_defrag.c.obj)
                                 0x56 (size before relaxing)
 .rodata.m_procedure_steps
                0x0003e788       0x28 mesh/core/libmesh_core_nrf52840_xxAA.a(flash_manager_defrag.c.obj)
 .rodata.m_all_operations
                0x0003e7b0       0x10 mesh/core/libmesh_core_nrf52840_xxAA.a(mesh_flash.c.obj)
 .rodata.curve_secp256r1
                0x0003e7c0       0xb0 external/micro-ecc/libuECC_nrf52840_xxAA.a(uECC.c.obj)
 .rodata.SEGGER_RTT_ReadNoLock.str1.4
                0x0003e870       0x18 external/rtt/librtt_nrf52840_xxAA.a(SEGGER_RTT.c.obj)
                                 0x17 (size before relaxing)
 .rodata._aV2C.5497
                0x0003e888       0x10 external/rtt/librtt_nrf52840_xxAA.a(SEGGER_RTT_printf.c.obj)
 .rodata._global_impure_ptr
                0x0003e898        0x4 c:/a/gcc_arm/6/bin/../lib/gcc/arm-none-eabi/6.3.1/../../../../arm-none-eabi/lib/thumb/v7e-m/fpv4-sp/hard\libc_nano.a(lib_a-impure.o)
                0x0003e898                _global_impure_ptr
 *(.eh_frame*)
 .eh_frame      0x0003e89c        0x0 c:/a/gcc_arm/6/bin/../lib/gcc/arm-none-eabi/6.3.1/thumb/v7e-m/fpv4-sp/hard/crtbegin.o
 .eh_frame      0x0003e89c        0x4 c:/a/gcc_arm/6/bin/../lib/gcc/arm-none-eabi/6.3.1/thumb/v7e-m/fpv4-sp/hard/crtend.o

.glue_7         0x0003e8a0        0x0
 .glue_7        0x0003e8a0        0x0 linker stubs

.glue_7t        0x0003e8a0        0x0
 .glue_7t       0x0003e8a0        0x0 linker stubs

.vfp11_veneer   0x0003e8a0        0x0
 .vfp11_veneer  0x0003e8a0        0x0 linker stubs

.v4_bx          0x0003e8a0        0x0
 .v4_bx         0x0003e8a0        0x0 linker stubs

.iplt           0x0003e8a0        0x0
 .iplt          0x0003e8a0        0x0 c:/a/gcc_arm/6/bin/../lib/gcc/arm-none-eabi/6.3.1/thumb/v7e-m/fpv4-sp/hard/crtbegin.o

.ARM.extab
 *(.ARM.extab* .gnu.linkonce.armextab.*)
                0x0003e8a0                __exidx_start = .

.ARM.exidx      0x0003e8a0        0x8
 *(.ARM.exidx* .gnu.linkonce.armexidx.*)
 .ARM.exidx     0x0003e8a0        0x8 c:/a/gcc_arm/6/bin/../lib/gcc/arm-none-eabi/6.3.1/../../../../arm-none-eabi/lib/thumb/v7e-m/fpv4-sp/hard/crt0.o
                0x0003e8a8                __exidx_end = .
                0x0003e8a8                __etext = .

.rel.dyn        0x0003e8a8        0x0
 .rel.iplt      0x0003e8a8        0x0 c:/a/gcc_arm/6/bin/../lib/gcc/arm-none-eabi/6.3.1/thumb/v7e-m/fpv4-sp/hard/crtbegin.o

.data           0x200031b8      0x124 load address 0x0003e8a8
                0x200031b8                __data_start__ = .
 *(vtable)
 *(.data*)
 .data.m_unprov_report
                0x200031b8        0x1 examples/serial/CMakeFiles/serial_nrf52840_xxAA_s140_5.0.0-3.alpha.dir/__/__/mesh/prov/src/prov_beacon.c.obj
 *fill*         0x200031b9        0x3 
 .data.m_async_process_flag
                0x200031bc        0x4 examples/serial/CMakeFiles/serial_nrf52840_xxAA_s140_5.0.0-3.alpha.dir/__/__/mesh/prov/src/prov_bearer_adv.c.obj
 .data.flash_add_mem_available_struct.10546
                0x200031c0       0x10 examples/serial/CMakeFiles/serial_nrf52840_xxAA_s140_5.0.0-3.alpha.dir/__/__/mesh/access/src/access.c.obj
 .data.flash_clear_mem_available_struct.10635
                0x200031d0       0x10 examples/serial/CMakeFiles/serial_nrf52840_xxAA_s140_5.0.0-3.alpha.dir/__/__/mesh/access/src/access.c.obj
 .data.flash_store_mem_available_struct.10659
                0x200031e0       0x10 examples/serial/CMakeFiles/serial_nrf52840_xxAA_s140_5.0.0-3.alpha.dir/__/__/mesh/access/src/access.c.obj
 .data.m_default_ttl
                0x200031f0        0x1 examples/serial/CMakeFiles/serial_nrf52840_xxAA_s140_5.0.0-3.alpha.dir/__/__/mesh/access/src/access.c.obj
 *fill*         0x200031f1        0x3 
 .data.mem_listener.10798
                0x200031f4       0x10 examples/serial/CMakeFiles/serial_nrf52840_xxAA_s140_5.0.0-3.alpha.dir/__/__/mesh/access/src/device_state_manager.c.obj
 .data.mem_listener.10824
                0x20003204       0x10 examples/serial/CMakeFiles/serial_nrf52840_xxAA_s140_5.0.0-3.alpha.dir/__/__/mesh/access/src/device_state_manager.c.obj
 .data.SystemCoreClock
                0x20003214        0x4 examples/serial/CMakeFiles/serial_nrf52840_xxAA_s140_5.0.0-3.alpha.dir/__/__/external/nRF5_SDK_14.0.0_3bcc1f7/components/toolchain/system_nrf52840.c.obj
                0x20003214                SystemCoreClock
 .data.mem_listener.10018
                0x20003218       0x10 mesh/core/libmesh_core_nrf52840_xxAA.a(net_state.c.obj)
 .data.mem_listener.10023
                0x20003228       0x10 mesh/core/libmesh_core_nrf52840_xxAA.a(net_state.c.obj)
 .data.mem_listener.10037
                0x20003238       0x10 mesh/core/libmesh_core_nrf52840_xxAA.a(net_state.c.obj)
 .data.mem_listener.10054
                0x20003248       0x10 mesh/core/libmesh_core_nrf52840_xxAA.a(net_state.c.obj)
 .data.g_log_debug_level
                0x20003258        0x4 mesh/core/libmesh_core_nrf52840_xxAA.a(log.c.obj)
                0x20003258                g_log_debug_level
 .data.g_log_debug_msk
                0x2000325c        0x4 mesh/core/libmesh_core_nrf52840_xxAA.a(log.c.obj)
                0x2000325c                g_log_debug_msk
 .data.g_log_hex_digits
                0x20003260        0x4 mesh/core/libmesh_core_nrf52840_xxAA.a(log.c.obj)
                0x20003260                g_log_hex_digits
 .data.m_log_callback
                0x20003264        0x4 mesh/core/libmesh_core_nrf52840_xxAA.a(log.c.obj)
                0x20003264                m_log_callback
 .data.g_rng_function
                0x20003268        0x4 external/micro-ecc/libuECC_nrf52840_xxAA.a(uECC.c.obj)
 .data._impure_ptr
                0x2000326c        0x4 c:/a/gcc_arm/6/bin/../lib/gcc/arm-none-eabi/6.3.1/../../../../arm-none-eabi/lib/thumb/v7e-m/fpv4-sp/hard\libc_nano.a(lib_a-impure.o)
                0x2000326c                _impure_ptr
 .data.impure_data
                0x20003270       0x60 c:/a/gcc_arm/6/bin/../lib/gcc/arm-none-eabi/6.3.1/../../../../arm-none-eabi/lib/thumb/v7e-m/fpv4-sp/hard\libc_nano.a(lib_a-impure.o)
                0x200032d0                . = ALIGN (0x4)
                0x200032d0                PROVIDE (__preinit_array_start, .)
 *(.preinit_array)
                0x200032d0                PROVIDE (__preinit_array_end, .)
                0x200032d0                . = ALIGN (0x4)
                0x200032d0                PROVIDE (__init_array_start, .)
 *(SORT(.init_array.*))
 *(.init_array)
 .init_array    0x200032d0        0x4 c:/a/gcc_arm/6/bin/../lib/gcc/arm-none-eabi/6.3.1/thumb/v7e-m/fpv4-sp/hard/crtbegin.o
                0x200032d4                PROVIDE (__init_array_end, .)
                0x200032d4                . = ALIGN (0x4)
                [!provide]                PROVIDE (__fini_array_start, .)
 *(SORT(.fini_array.*))
 *(.fini_array)
 .fini_array    0x200032d4        0x4 c:/a/gcc_arm/6/bin/../lib/gcc/arm-none-eabi/6.3.1/thumb/v7e-m/fpv4-sp/hard/crtbegin.o
                [!provide]                PROVIDE (__fini_array_end, .)
 *(.jcr*)
 .jcr           0x200032d8        0x0 c:/a/gcc_arm/6/bin/../lib/gcc/arm-none-eabi/6.3.1/thumb/v7e-m/fpv4-sp/hard/crtbegin.o
 .jcr           0x200032d8        0x4 c:/a/gcc_arm/6/bin/../lib/gcc/arm-none-eabi/6.3.1/thumb/v7e-m/fpv4-sp/hard/crtend.o
                0x200032dc                . = ALIGN (0x4)
                0x200032dc                __data_end__ = .

.igot.plt       0x200032dc        0x0 load address 0x0003e9cc
 .igot.plt      0x200032dc        0x0 c:/a/gcc_arm/6/bin/../lib/gcc/arm-none-eabi/6.3.1/thumb/v7e-m/fpv4-sp/hard/crtbegin.o

.bss            0x200032e0     0x36a8 load address 0x0003e9d0
                0x200032e0                . = ALIGN (0x4)
                0x200032e0                __bss_start__ = .
 *(.bss*)
 .bss           0x200032e0       0x1c c:/a/gcc_arm/6/bin/../lib/gcc/arm-none-eabi/6.3.1/thumb/v7e-m/fpv4-sp/hard/crtbegin.o
 .bss.m_ble_evt_buffer
                0x200032fc       0x57 examples/serial/CMakeFiles/serial_nrf52840_xxAA_s140_5.0.0-3.alpha.dir/__/nrf_mesh_sdk.c.obj
 .bss.m_offload_ecdh
                0x20003353        0x1 examples/serial/CMakeFiles/serial_nrf52840_xxAA_s140_5.0.0-3.alpha.dir/__/__/mesh/prov/src/prov_utils.c.obj
 .bss.mp_bearer_head
                0x20003354        0x4 examples/serial/CMakeFiles/serial_nrf52840_xxAA_s140_5.0.0-3.alpha.dir/__/__/mesh/prov/src/prov_bearer_adv.c.obj
 .bss.m_publish_timer
                0x20003358       0x18 examples/serial/CMakeFiles/serial_nrf52840_xxAA_s140_5.0.0-3.alpha.dir/__/__/mesh/access/src/access_publish.c.obj
 .bss.m_publish_timer_counter
                0x20003370        0x4 examples/serial/CMakeFiles/serial_nrf52840_xxAA_s140_5.0.0-3.alpha.dir/__/__/mesh/access/src/access_publish.c.obj
 .bss.m_publish_timer_running
                0x20003374        0x1 examples/serial/CMakeFiles/serial_nrf52840_xxAA_s140_5.0.0-3.alpha.dir/__/__/mesh/access/src/access_publish.c.obj
 .bss.m_timer_resolution
                0x20003375        0x1 examples/serial/CMakeFiles/serial_nrf52840_xxAA_s140_5.0.0-3.alpha.dir/__/__/mesh/access/src/access_publish.c.obj
 *fill*         0x20003376        0x2 
 .bss.mp_publication_list
                0x20003378        0x4 examples/serial/CMakeFiles/serial_nrf52840_xxAA_s140_5.0.0-3.alpha.dir/__/__/mesh/access/src/access_publish.c.obj
 .bss.m_element_pool
                0x2000337c        0xc examples/serial/CMakeFiles/serial_nrf52840_xxAA_s140_5.0.0-3.alpha.dir/__/__/mesh/access/src/access.c.obj
 .bss.m_evt_handler
                0x20003388        0x8 examples/serial/CMakeFiles/serial_nrf52840_xxAA_s140_5.0.0-3.alpha.dir/__/__/mesh/access/src/access.c.obj
 .bss.m_flash_manager
                0x20003390       0x24 examples/serial/CMakeFiles/serial_nrf52840_xxAA_s140_5.0.0-3.alpha.dir/__/__/mesh/access/src/access.c.obj
 .bss.m_flash_not_ready
                0x200033b4        0x1 examples/serial/CMakeFiles/serial_nrf52840_xxAA_s140_5.0.0-3.alpha.dir/__/__/mesh/access/src/access.c.obj
 .bss.m_metadata_stored
                0x200033b5        0x1 examples/serial/CMakeFiles/serial_nrf52840_xxAA_s140_5.0.0-3.alpha.dir/__/__/mesh/access/src/access.c.obj
 *fill*         0x200033b6        0x2 
 .bss.m_model_pool
                0x200033b8       0x34 examples/serial/CMakeFiles/serial_nrf52840_xxAA_s140_5.0.0-3.alpha.dir/__/__/mesh/access/src/access.c.obj
 .bss.m_subscription_list_pool
                0x200033ec        0x8 examples/serial/CMakeFiles/serial_nrf52840_xxAA_s140_5.0.0-3.alpha.dir/__/__/mesh/access/src/access.c.obj
 .bss.m_reliable
                0x200033f4       0x44 examples/serial/CMakeFiles/serial_nrf52840_xxAA_s140_5.0.0-3.alpha.dir/__/__/mesh/access/src/access_reliable.c.obj
 .bss.m_addr_nonvirtual_allocated
                0x20003438        0x4 examples/serial/CMakeFiles/serial_nrf52840_xxAA_s140_5.0.0-3.alpha.dir/__/__/mesh/access/src/device_state_manager.c.obj
 .bss.m_addr_nonvirtual_needs_flashing
                0x2000343c        0x4 examples/serial/CMakeFiles/serial_nrf52840_xxAA_s140_5.0.0-3.alpha.dir/__/__/mesh/access/src/device_state_manager.c.obj
 .bss.m_addr_unicast_allocated
                0x20003440        0x4 examples/serial/CMakeFiles/serial_nrf52840_xxAA_s140_5.0.0-3.alpha.dir/__/__/mesh/access/src/device_state_manager.c.obj
 .bss.m_addr_unicast_needs_flashing
                0x20003444        0x4 examples/serial/CMakeFiles/serial_nrf52840_xxAA_s140_5.0.0-3.alpha.dir/__/__/mesh/access/src/device_state_manager.c.obj
 .bss.m_addr_virtual_allocated
                0x20003448        0x4 examples/serial/CMakeFiles/serial_nrf52840_xxAA_s140_5.0.0-3.alpha.dir/__/__/mesh/access/src/device_state_manager.c.obj
 .bss.m_addr_virtual_needs_flashing
                0x2000344c        0x4 examples/serial/CMakeFiles/serial_nrf52840_xxAA_s140_5.0.0-3.alpha.dir/__/__/mesh/access/src/device_state_manager.c.obj
 .bss.m_addresses
                0x20003450       0x40 examples/serial/CMakeFiles/serial_nrf52840_xxAA_s140_5.0.0-3.alpha.dir/__/__/mesh/access/src/device_state_manager.c.obj
 .bss.m_appkey_allocated
                0x20003490        0x4 examples/serial/CMakeFiles/serial_nrf52840_xxAA_s140_5.0.0-3.alpha.dir/__/__/mesh/access/src/device_state_manager.c.obj
 .bss.m_appkey_needs_flashing
                0x20003494        0x4 examples/serial/CMakeFiles/serial_nrf52840_xxAA_s140_5.0.0-3.alpha.dir/__/__/mesh/access/src/device_state_manager.c.obj
 .bss.m_appkeys
                0x20003498       0xb0 examples/serial/CMakeFiles/serial_nrf52840_xxAA_s140_5.0.0-3.alpha.dir/__/__/mesh/access/src/device_state_manager.c.obj
 .bss.m_devkey_allocated
                0x20003548        0x4 examples/serial/CMakeFiles/serial_nrf52840_xxAA_s140_5.0.0-3.alpha.dir/__/__/mesh/access/src/device_state_manager.c.obj
 .bss.m_devkey_needs_flashing
                0x2000354c        0x4 examples/serial/CMakeFiles/serial_nrf52840_xxAA_s140_5.0.0-3.alpha.dir/__/__/mesh/access/src/device_state_manager.c.obj
 .bss.m_devkeys
                0x20003550       0x42 examples/serial/CMakeFiles/serial_nrf52840_xxAA_s140_5.0.0-3.alpha.dir/__/__/mesh/access/src/device_state_manager.c.obj
 .bss.m_flash_is_available
                0x20003592        0x1 examples/serial/CMakeFiles/serial_nrf52840_xxAA_s140_5.0.0-3.alpha.dir/__/__/mesh/access/src/device_state_manager.c.obj
 *fill*         0x20003593        0x1 
 .bss.m_flash_manager
                0x20003594       0x24 examples/serial/CMakeFiles/serial_nrf52840_xxAA_s140_5.0.0-3.alpha.dir/__/__/mesh/access/src/device_state_manager.c.obj
 .bss.m_flash_mem_listener_update_all
                0x200035b8       0x10 examples/serial/CMakeFiles/serial_nrf52840_xxAA_s140_5.0.0-3.alpha.dir/__/__/mesh/access/src/device_state_manager.c.obj
 .bss.m_has_primary_subnet
                0x200035c8        0x1 examples/serial/CMakeFiles/serial_nrf52840_xxAA_s140_5.0.0-3.alpha.dir/__/__/mesh/access/src/device_state_manager.c.obj
 *fill*         0x200035c9        0x3 
 .bss.m_local_unicast_addr
                0x200035cc        0x4 examples/serial/CMakeFiles/serial_nrf52840_xxAA_s140_5.0.0-3.alpha.dir/__/__/mesh/access/src/device_state_manager.c.obj
 .bss.m_subnet_allocated
                0x200035d0        0x4 examples/serial/CMakeFiles/serial_nrf52840_xxAA_s140_5.0.0-3.alpha.dir/__/__/mesh/access/src/device_state_manager.c.obj
 .bss.m_subnet_needs_flashing
                0x200035d4        0x4 examples/serial/CMakeFiles/serial_nrf52840_xxAA_s140_5.0.0-3.alpha.dir/__/__/mesh/access/src/device_state_manager.c.obj
 .bss.m_subnets
                0x200035d8      0x170 examples/serial/CMakeFiles/serial_nrf52840_xxAA_s140_5.0.0-3.alpha.dir/__/__/mesh/access/src/device_state_manager.c.obj
 .bss.m_virtual_addresses
                0x20003748       0xa0 examples/serial/CMakeFiles/serial_nrf52840_xxAA_s140_5.0.0-3.alpha.dir/__/__/mesh/access/src/device_state_manager.c.obj
 .bss.m_can_receive
                0x200037e8        0x1 examples/serial/CMakeFiles/serial_nrf52840_xxAA_s140_5.0.0-3.alpha.dir/__/__/mesh/serial/src/serial_uart.c.obj
 *fill*         0x200037e9        0x3 
 .bss.m_char_rx_cb
                0x200037ec        0x4 examples/serial/CMakeFiles/serial_nrf52840_xxAA_s140_5.0.0-3.alpha.dir/__/__/mesh/serial/src/serial_uart.c.obj
 .bss.m_char_tx_cb
                0x200037f0        0x4 examples/serial/CMakeFiles/serial_nrf52840_xxAA_s140_5.0.0-3.alpha.dir/__/__/mesh/serial/src/serial_uart.c.obj
 .bss.m_cur_tx_packet_index
                0x200037f4        0x2 examples/serial/CMakeFiles/serial_nrf52840_xxAA_s140_5.0.0-3.alpha.dir/__/__/mesh/serial/src/serial_bearer.c.obj
 *fill*         0x200037f6        0x2 
 .bss.m_event_flag
                0x200037f8        0x4 examples/serial/CMakeFiles/serial_nrf52840_xxAA_s140_5.0.0-3.alpha.dir/__/__/mesh/serial/src/serial_bearer.c.obj
 .bss.m_rx_buffer
                0x200037fc       0xd0 examples/serial/CMakeFiles/serial_nrf52840_xxAA_s140_5.0.0-3.alpha.dir/__/__/mesh/serial/src/serial_bearer.c.obj
 .bss.m_rx_packet_buf
                0x200038cc        0xc examples/serial/CMakeFiles/serial_nrf52840_xxAA_s140_5.0.0-3.alpha.dir/__/__/mesh/serial/src/serial_bearer.c.obj
 .bss.m_serial_state
                0x200038d8        0x1 examples/serial/CMakeFiles/serial_nrf52840_xxAA_s140_5.0.0-3.alpha.dir/__/__/mesh/serial/src/serial_bearer.c.obj
 *fill*         0x200038d9        0x1 
 .bss.m_stored_pac_len
                0x200038da        0x2 examples/serial/CMakeFiles/serial_nrf52840_xxAA_s140_5.0.0-3.alpha.dir/__/__/mesh/serial/src/serial_bearer.c.obj
 .bss.m_tx_buffer
                0x200038dc       0xd0 examples/serial/CMakeFiles/serial_nrf52840_xxAA_s140_5.0.0-3.alpha.dir/__/__/mesh/serial/src/serial_bearer.c.obj
 .bss.m_tx_packet_buf
                0x200039ac        0xc examples/serial/CMakeFiles/serial_nrf52840_xxAA_s140_5.0.0-3.alpha.dir/__/__/mesh/serial/src/serial_bearer.c.obj
 .bss.mp_current_rx_packet
                0x200039b8        0x4 examples/serial/CMakeFiles/serial_nrf52840_xxAA_s140_5.0.0-3.alpha.dir/__/__/mesh/serial/src/serial_bearer.c.obj
 .bss.mp_current_tx_packet
                0x200039bc        0x4 examples/serial/CMakeFiles/serial_nrf52840_xxAA_s140_5.0.0-3.alpha.dir/__/__/mesh/serial/src/serial_bearer.c.obj
 .bss.rx_index.11065
                0x200039c0        0x2 examples/serial/CMakeFiles/serial_nrf52840_xxAA_s140_5.0.0-3.alpha.dir/__/__/mesh/serial/src/serial_bearer.c.obj
 .bss.m_cmd_handler_scheduled
                0x200039c2        0x1 examples/serial/CMakeFiles/serial_nrf52840_xxAA_s140_5.0.0-3.alpha.dir/__/__/mesh/serial/src/serial.c.obj
 .bss.m_state   0x200039c3        0x1 examples/serial/CMakeFiles/serial_nrf52840_xxAA_s140_5.0.0-3.alpha.dir/__/__/mesh/serial/src/serial.c.obj
 .bss.m_mesh_evt_handler
                0x200039c4        0x8 examples/serial/CMakeFiles/serial_nrf52840_xxAA_s140_5.0.0-3.alpha.dir/__/__/mesh/serial/src/serial_handler_prov.c.obj
 .bss.m_private_key
                0x200039cc       0x20 examples/serial/CMakeFiles/serial_nrf52840_xxAA_s140_5.0.0-3.alpha.dir/__/__/mesh/serial/src/serial_handler_prov.c.obj
 .bss.m_prov_contexts
                0x200039ec      0x5f8 examples/serial/CMakeFiles/serial_nrf52840_xxAA_s140_5.0.0-3.alpha.dir/__/__/mesh/serial/src/serial_handler_prov.c.obj
 .bss.m_provisioning_caps
                0x20003fe4        0xb examples/serial/CMakeFiles/serial_nrf52840_xxAA_s140_5.0.0-3.alpha.dir/__/__/mesh/serial/src/serial_handler_prov.c.obj
 *fill*         0x20003fef        0x1 
 .bss.m_public_key
                0x20003ff0       0x40 examples/serial/CMakeFiles/serial_nrf52840_xxAA_s140_5.0.0-3.alpha.dir/__/__/mesh/serial/src/serial_handler_prov.c.obj
 .bss.m_scanning_running
                0x20004030        0x1 examples/serial/CMakeFiles/serial_nrf52840_xxAA_s140_5.0.0-3.alpha.dir/__/__/mesh/serial/src/serial_handler_prov.c.obj
 *fill*         0x20004031        0x3 
 .bss.m_evt_handler
                0x20004034        0x8 examples/serial/CMakeFiles/serial_nrf52840_xxAA_s140_5.0.0-3.alpha.dir/__/__/mesh/serial/src/serial_handler_dfu.c.obj
 .bss.m_evt_handler
                0x2000403c        0x8 examples/serial/CMakeFiles/serial_nrf52840_xxAA_s140_5.0.0-3.alpha.dir/__/__/mesh/serial/src/serial_handler_mesh.c.obj
 .bss.p_serial_evt.11297
                0x20004044        0x4 examples/serial/CMakeFiles/serial_nrf52840_xxAA_s140_5.0.0-3.alpha.dir/__/__/mesh/serial/src/serial_handler_mesh.c.obj
 .bss.m_models_list
                0x20004048        0xc examples/serial/CMakeFiles/serial_nrf52840_xxAA_s140_5.0.0-3.alpha.dir/__/__/mesh/serial/src/serial_handler_models.c.obj
 .bss.m_beacons
                0x20004054      0x134 examples/serial/CMakeFiles/serial_nrf52840_xxAA_s140_5.0.0-3.alpha.dir/__/__/mesh/serial/src/serial_handler_device.c.obj
 .bss.m_app_rx_cb
                0x20004188        0x4 examples/serial/CMakeFiles/serial_nrf52840_xxAA_s140_5.0.0-3.alpha.dir/__/__/mesh/serial/src/serial_handler_app.c.obj
 .bss.m_internal_event_fifo
                0x2000418c       0x14 mesh/core/libmesh_core_nrf52840_xxAA.a(internal_event.c.obj)
 .bss.m_internal_event_fifo_buffer
                0x200041a0      0x100 mesh/core/libmesh_core_nrf52840_xxAA.a(internal_event.c.obj)
 .bss.m_internal_event_initialized
                0x200042a0        0x1 mesh/core/libmesh_core_nrf52840_xxAA.a(internal_event.c.obj)
 *fill*         0x200042a1        0x3 
 .bss.m_report_cb
                0x200042a4        0x4 mesh/core/libmesh_core_nrf52840_xxAA.a(internal_event.c.obj)
 .bss.m_uuid    0x200042a8       0x10 mesh/core/libmesh_core_nrf52840_xxAA.a(nrf_mesh_configure.c.obj)
 .bss.mp_evt_handlers_head
                0x200042b8        0x4 mesh/core/libmesh_core_nrf52840_xxAA.a(event.c.obj)
 .bss.lock_count.10077
                0x200042bc        0x4 mesh/core/libmesh_core_nrf52840_xxAA.a(net_state.c.obj)
 .bss.m_flash_manager
                0x200042c0       0x24 mesh/core/libmesh_core_nrf52840_xxAA.a(net_state.c.obj)
 .bss.m_iv_update_timer
                0x200042e4       0x18 mesh/core/libmesh_core_nrf52840_xxAA.a(net_state.c.obj)
 .bss.m_net_state
                0x200042fc       0x14 mesh/core/libmesh_core_nrf52840_xxAA.a(net_state.c.obj)
 .bss.m_seqnum_allocation_in_progress
                0x20004310        0x1 mesh/core/libmesh_core_nrf52840_xxAA.a(net_state.c.obj)
 .bss.m_test_mode
                0x20004311        0x1 mesh/core/libmesh_core_nrf52840_xxAA.a(net_state.c.obj)
 .bss.m_is_enabled
                0x20004312        0x1 mesh/core/libmesh_core_nrf52840_xxAA.a(nrf_mesh.c.obj)
 .bss.m_is_initialized
                0x20004313        0x1 mesh/core/libmesh_core_nrf52840_xxAA.a(nrf_mesh.c.obj)
 .bss.m_rx_cb   0x20004314        0x4 mesh/core/libmesh_core_nrf52840_xxAA.a(nrf_mesh.c.obj)
 .bss.m_event_flag
                0x20004318        0x4 mesh/core/libmesh_core_nrf52840_xxAA.a(timer_scheduler.c.obj)
 .bss.m_scheduler
                0x2000431c       0x10 mesh/core/libmesh_core_nrf52840_xxAA.a(timer_scheduler.c.obj)
 .bss.m_attributes
                0x2000432c        0x3 mesh/core/libmesh_core_nrf52840_xxAA.a(timer.c.obj)
 *fill*         0x2000432f        0x1 
 .bss.m_callbacks
                0x20004330        0xc mesh/core/libmesh_core_nrf52840_xxAA.a(timer.c.obj)
 .bss.m_is_in_ts
                0x2000433c        0x1 mesh/core/libmesh_core_nrf52840_xxAA.a(timer.c.obj)
 *fill*         0x2000433d        0x3 
 .bss.m_reference_time
                0x20004340        0x4 mesh/core/libmesh_core_nrf52840_xxAA.a(timer.c.obj)
 .bss.m_timeouts
                0x20004344        0xc mesh/core/libmesh_core_nrf52840_xxAA.a(timer.c.obj)
 .bss.m_timer_mut
                0x20004350        0x4 mesh/core/libmesh_core_nrf52840_xxAA.a(timer.c.obj)
 .bss.m_ts_end_time
                0x20004354        0x4 mesh/core/libmesh_core_nrf52840_xxAA.a(timer.c.obj)
 .bss.mp_ppi_tasks
                0x20004358        0xc mesh/core/libmesh_core_nrf52840_xxAA.a(timer.c.obj)
 .bss.m_current_time
                0x20004364        0x4 mesh/core/libmesh_core_nrf52840_xxAA.a(ticker.c.obj)
 .bss.m_timer   0x20004368       0x18 mesh/core/libmesh_core_nrf52840_xxAA.a(ticker.c.obj)
 .bss.m_current_timeslot
                0x20004380       0x1c mesh/core/libmesh_core_nrf52840_xxAA.a(timeslot.c.obj)
 .bss.m_lfclk_ppm
                0x2000439c        0x4 mesh/core/libmesh_core_nrf52840_xxAA.a(timeslot.c.obj)
 .bss.m_radio_request_earliest
                0x200043a0       0x10 mesh/core/libmesh_core_nrf52840_xxAA.a(timeslot.c.obj)
 .bss.m_state_lock
                0x200043b0        0x1 mesh/core/libmesh_core_nrf52840_xxAA.a(timeslot.c.obj)
 .bss.m_timeslot_forced_command
                0x200043b1        0x1 mesh/core/libmesh_core_nrf52840_xxAA.a(timeslot.c.obj)
 *fill*         0x200043b2        0x6 
 .bss.s_last_rtc_value.9342
                0x200043b8        0x8 mesh/core/libmesh_core_nrf52840_xxAA.a(timeslot.c.obj)
 .bss.m_bearer_event_fifo
                0x200043c0       0x14 mesh/core/libmesh_core_nrf52840_xxAA.a(bearer_event.c.obj)
 .bss.m_bearer_event_fifo_buffer
                0x200043d4      0x100 mesh/core/libmesh_core_nrf52840_xxAA.a(bearer_event.c.obj)
 .bss.m_critical
                0x200044d4        0x4 mesh/core/libmesh_core_nrf52840_xxAA.a(bearer_event.c.obj)
 .bss.m_flag_count
                0x200044d8        0x4 mesh/core/libmesh_core_nrf52840_xxAA.a(bearer_event.c.obj)
 .bss.m_flag_event_callbacks
                0x200044dc       0x18 mesh/core/libmesh_core_nrf52840_xxAA.a(bearer_event.c.obj)
 .bss.m_flags   0x200044f4        0x4 mesh/core/libmesh_core_nrf52840_xxAA.a(bearer_event.c.obj)
 .bss.m_sequential_event_queue
                0x200044f8        0x8 mesh/core/libmesh_core_nrf52840_xxAA.a(bearer_event.c.obj)
 .bss.m_relay_check_cb
                0x20004500        0x4 mesh/core/libmesh_core_nrf52840_xxAA.a(network.c.obj)
 .bss.m_relay_enable
                0x20004504        0x1 mesh/core/libmesh_core_nrf52840_xxAA.a(network.c.obj)
 *fill*         0x20004505        0x3 
 .bss.m_action_queue
                0x20004508        0xc mesh/core/libmesh_core_nrf52840_xxAA.a(flash_manager.c.obj)
 .bss.m_action_queue_buffer
                0x20004514      0x104 mesh/core/libmesh_core_nrf52840_xxAA.a(flash_manager.c.obj)
 .bss.m_action_state
                0x20004618        0x1 mesh/core/libmesh_core_nrf52840_xxAA.a(flash_manager.c.obj)
 *fill*         0x20004619        0x3 
 .bss.m_memory_listener_queue
                0x2000461c        0x8 mesh/core/libmesh_core_nrf52840_xxAA.a(flash_manager.c.obj)
 .bss.m_processing_flag
                0x20004624        0x4 mesh/core/libmesh_core_nrf52840_xxAA.a(flash_manager.c.obj)
 .bss.m_state   0x20004628        0x1 mesh/core/libmesh_core_nrf52840_xxAA.a(flash_manager.c.obj)
 *fill*         0x20004629        0x1 
 .bss.m_token   0x2000462a        0x2 mesh/core/libmesh_core_nrf52840_xxAA.a(flash_manager.c.obj)
 .bss.p_current.11194
                0x2000462c        0x4 mesh/core/libmesh_core_nrf52840_xxAA.a(flash_manager.c.obj)
 .bss.result.11195
                0x20004630        0x1 mesh/core/libmesh_core_nrf52840_xxAA.a(flash_manager.c.obj)
 *fill*         0x20004631        0x3 
 .bss.m_adv_buffer
                0x20004634       0x68 mesh/core/libmesh_core_nrf52840_xxAA.a(beacon.c.obj)
 .bss.m_advertiser
                0x2000469c       0x94 mesh/core/libmesh_core_nrf52840_xxAA.a(beacon.c.obj)
 .bss.m_adv_tx_count
                0x20004730        0x8 mesh/core/libmesh_core_nrf52840_xxAA.a(core_tx.c.obj)
 .bss.m_advertisers
                0x20004738      0x128 mesh/core/libmesh_core_nrf52840_xxAA.a(core_tx.c.obj)
 .bss.m_originator_adv_packet_buffer
                0x20004860      0x100 mesh/core/libmesh_core_nrf52840_xxAA.a(core_tx.c.obj)
 .bss.m_relay_adv_packet_buffer
                0x20004960       0x80 mesh/core/libmesh_core_nrf52840_xxAA.a(core_tx.c.obj)
 .bss.m_tx_complete_callback
                0x200049e0        0x4 mesh/core/libmesh_core_nrf52840_xxAA.a(core_tx.c.obj)
 .bss.m_beacon_salt
                0x200049e4       0x10 mesh/core/libmesh_core_nrf52840_xxAA.a(net_beacon.c.obj)
 .bss.m_enabled
                0x200049f4        0x1 mesh/core/libmesh_core_nrf52840_xxAA.a(net_beacon.c.obj)
 *fill*         0x200049f5        0x3 
 .bss.m_tx_event
                0x200049f8       0x18 mesh/core/libmesh_core_nrf52840_xxAA.a(net_beacon.c.obj)
 .bss.m_adv_prng
                0x20004a10       0x10 mesh/core/libmesh_core_nrf52840_xxAA.a(advertiser.c.obj)
 .bss.m_action_queue
                0x20004a20        0x8 mesh/core/libmesh_core_nrf52840_xxAA.a(bearer_handler.c.obj)
 .bss.m_end_time
                0x20004a28        0x4 mesh/core/libmesh_core_nrf52840_xxAA.a(bearer_handler.c.obj)
 .bss.m_scanner_is_active
                0x20004a2c        0x1 mesh/core/libmesh_core_nrf52840_xxAA.a(bearer_handler.c.obj)
 .bss.m_stopped
                0x20004a2d        0x1 mesh/core/libmesh_core_nrf52840_xxAA.a(bearer_handler.c.obj)
 *fill*         0x20004a2e        0x2 
 .bss.mp_action
                0x20004a30        0x4 mesh/core/libmesh_core_nrf52840_xxAA.a(bearer_handler.c.obj)
 .bss.m_next_channel_index
                0x20004a34        0x1 mesh/core/libmesh_core_nrf52840_xxAA.a(broadcast.c.obj)
 *fill*         0x20004a35        0x3 
 .bss.m_scanner
                0x20004a38      0x284 mesh/core/libmesh_core_nrf52840_xxAA.a(scanner.c.obj)
 .bss.m_msg_cache
                0x20004cbc      0x100 mesh/core/libmesh_core_nrf52840_xxAA.a(msg_cache.c.obj)
 .bss.m_msg_cache_head
                0x20004dbc        0x4 mesh/core/libmesh_core_nrf52840_xxAA.a(msg_cache.c.obj)
 .bss.m_sar_alloc
                0x20004dc0        0x4 mesh/core/libmesh_core_nrf52840_xxAA.a(transport.c.obj)
 .bss.m_sar_process_flag
                0x20004dc4        0x4 mesh/core/libmesh_core_nrf52840_xxAA.a(transport.c.obj)
 .bss.m_sar_release
                0x20004dc8        0x4 mesh/core/libmesh_core_nrf52840_xxAA.a(transport.c.obj)
 .bss.m_sar_session_cache
                0x20004dcc       0x40 mesh/core/libmesh_core_nrf52840_xxAA.a(transport.c.obj)
 .bss.m_sar_session_cache_head
                0x20004e0c        0x4 mesh/core/libmesh_core_nrf52840_xxAA.a(transport.c.obj)
 .bss.m_trs_config
                0x20004e10       0x18 mesh/core/libmesh_core_nrf52840_xxAA.a(transport.c.obj)
 .bss.m_trs_sar_sessions
                0x20004e28      0x1b0 mesh/core/libmesh_core_nrf52840_xxAA.a(transport.c.obj)
 .bss.m_defrag  0x20004fd8       0x1c mesh/core/libmesh_core_nrf52840_xxAA.a(flash_manager_defrag.c.obj)
 .bss.m_token   0x20004ff4        0x2 mesh/core/libmesh_core_nrf52840_xxAA.a(flash_manager_defrag.c.obj)
 *fill*         0x20004ff6        0x2 
 .bss.mp_recovery_area
                0x20004ff8        0x4 mesh/core/libmesh_core_nrf52840_xxAA.a(flash_manager_defrag.c.obj)
 .bss.p_null_ptr.10247
                0x20004ffc        0x4 mesh/core/libmesh_core_nrf52840_xxAA.a(flash_manager_defrag.c.obj)
 .bss.m_pool    0x20005000     0x1000 mesh/core/libmesh_core_nrf52840_xxAA.a(packet_mgr.c.obj)
 .bss.mp_free_head
                0x20006000        0x4 mesh/core/libmesh_core_nrf52840_xxAA.a(packet_mgr.c.obj)
 .bss.m_event_flag
                0x20006004        0x4 mesh/core/libmesh_core_nrf52840_xxAA.a(mesh_flash.c.obj)
 .bss.m_suspended
                0x20006008        0x1 mesh/core/libmesh_core_nrf52840_xxAA.a(mesh_flash.c.obj)
 *fill*         0x20006009        0x3 
 .bss.m_users   0x2000600c      0x228 mesh/core/libmesh_core_nrf52840_xxAA.a(mesh_flash.c.obj)
 .bss.m_128buf  0x20006234       0x10 mesh/core/libmesh_core_nrf52840_xxAA.a(aes_cmac.c.obj)
 .bss.m_subkey1
                0x20006244       0x10 mesh/core/libmesh_core_nrf52840_xxAA.a(aes_cmac.c.obj)
 .bss.m_subkey2
                0x20006254       0x10 mesh/core/libmesh_core_nrf52840_xxAA.a(aes_cmac.c.obj)
 .bss.m_cache_full
                0x20006264        0x1 mesh/core/libmesh_core_nrf52840_xxAA.a(replay_cache.c.obj)
 .bss.m_cache_index
                0x20006265        0x1 mesh/core/libmesh_core_nrf52840_xxAA.a(replay_cache.c.obj)
 *fill*         0x20006266        0x2 
 .bss.m_replay_cache
                0x20006268      0x200 mesh/core/libmesh_core_nrf52840_xxAA.a(replay_cache.c.obj)
 .bss.m_accepted_amount
                0x20006468        0x4 mesh/core/libmesh_core_nrf52840_xxAA.a(filter_engine.c.obj)
 .bss.m_filter_list_head
                0x2000646c        0x4 mesh/core/libmesh_core_nrf52840_xxAA.a(filter_engine.c.obj)
 .bss._acDownBuffer
                0x20006470       0x80 external/rtt/librtt_nrf52840_xxAA.a(SEGGER_RTT.c.obj)
 .bss._acUpBuffer
                0x200064f0      0x400 external/rtt/librtt_nrf52840_xxAA.a(SEGGER_RTT.c.obj)
 .bss.__malloc_free_list
                0x200068f0        0x4 c:/a/gcc_arm/6/bin/../lib/gcc/arm-none-eabi/6.3.1/../../../../arm-none-eabi/lib/thumb/v7e-m/fpv4-sp/hard\libc_nano.a(lib_a-nano-mallocr.o)
                0x200068f0                __malloc_free_list
 .bss.__malloc_sbrk_start
                0x200068f4        0x4 c:/a/gcc_arm/6/bin/../lib/gcc/arm-none-eabi/6.3.1/../../../../arm-none-eabi/lib/thumb/v7e-m/fpv4-sp/hard\libc_nano.a(lib_a-nano-mallocr.o)
                0x200068f4                __malloc_sbrk_start
 .bss.heap_end.5239
                0x200068f8        0x4 c:/a/gcc_arm/6/bin/../lib/gcc/arm-none-eabi/6.3.1/../../../../arm-none-eabi/lib/thumb/v7e-m/fpv4-sp/hard\libnosys.a(sbrk.o)
 *(COMMON)
 COMMON         0x200068fc        0xc examples/serial/CMakeFiles/serial_nrf52840_xxAA_s140_5.0.0-3.alpha.dir/__/nrf_mesh_sdk.c.obj
                0x200068fc                nrf_nvic_state
 COMMON         0x20006908        0x4 mesh/core/libmesh_core_nrf52840_xxAA.a(nrf_mesh.c.obj)
                0x20006908                m_assertion_handler
 COMMON         0x2000690c       0x78 external/rtt/librtt_nrf52840_xxAA.a(SEGGER_RTT.c.obj)
                0x2000690c                _SEGGER_RTT
 COMMON         0x20006984        0x4 c:/a/gcc_arm/6/bin/../lib/gcc/arm-none-eabi/6.3.1/../../../../arm-none-eabi/lib/thumb/v7e-m/fpv4-sp/hard\libc_nano.a(lib_a-reent.o)
                0x20006984                errno
                0x20006988                . = ALIGN (0x4)
                0x20006988                __bss_end__ = .

.heap           0x20006988     0x2000
                0x20006988                __HeapBase = .
                0x20006988                __end__ = .
                0x20006988                PROVIDE (end, .)
 *(.heap*)
 .heap          0x20006988     0x2000 examples/serial/CMakeFiles/serial_nrf52840_xxAA_s140_5.0.0-3.alpha.dir/__/__/external/nRF5_SDK_14.0.0_3bcc1f7/components/toolchain/gcc/gcc_startup_nrf52840.S.obj
                0x20008988                __HeapLimit = .

.stack_dummy    0x20006988     0x2000
 *(.stack*)
 .stack         0x20006988     0x2000 examples/serial/CMakeFiles/serial_nrf52840_xxAA_s140_5.0.0-3.alpha.dir/__/__/external/nRF5_SDK_14.0.0_3bcc1f7/components/toolchain/gcc/gcc_startup_nrf52840.S.obj
                0x2003f002                __StackTop = (ORIGIN (RAM) + LENGTH (RAM))
                0x2003d002                __StackLimit = (__StackTop - SIZEOF (.stack_dummy))
                0x2003f002                PROVIDE (__stack, __StackTop)
                0x00000001                ASSERT ((__StackLimit >= __HeapLimit), region RAM overflowed with stack)
OUTPUT(examples\serial\serial_nrf52840_xxAA_s140_5.0.0-3.alpha.elf elf32-littlearm)

.ARM.attributes
                0x00000000       0x30
 .ARM.attributes
                0x00000000       0x22 c:/a/gcc_arm/6/bin/../lib/gcc/arm-none-eabi/6.3.1/thumb/v7e-m/fpv4-sp/hard/crti.o
 .ARM.attributes
                0x00000022       0x34 c:/a/gcc_arm/6/bin/../lib/gcc/arm-none-eabi/6.3.1/thumb/v7e-m/fpv4-sp/hard/crtbegin.o
 .ARM.attributes
                0x00000056       0x20 c:/a/gcc_arm/6/bin/../lib/gcc/arm-none-eabi/6.3.1/../../../../arm-none-eabi/lib/thumb/v7e-m/fpv4-sp/hard/crt0.o
 .ARM.attributes
                0x00000076       0x39 examples/serial/CMakeFiles/serial_nrf52840_xxAA_s140_5.0.0-3.alpha.dir/src/main.c.obj
 .ARM.attributes
                0x000000af       0x39 examples/serial/CMakeFiles/serial_nrf52840_xxAA_s140_5.0.0-3.alpha.dir/__/nrf_mesh_sdk.c.obj
 .ARM.attributes
                0x000000e8       0x39 examples/serial/CMakeFiles/serial_nrf52840_xxAA_s140_5.0.0-3.alpha.dir/__/__/mesh/prov/src/prov_provisioner.c.obj
 .ARM.attributes
                0x00000121       0x39 examples/serial/CMakeFiles/serial_nrf52840_xxAA_s140_5.0.0-3.alpha.dir/__/__/mesh/prov/src/prov_provisionee.c.obj
 .ARM.attributes
                0x0000015a       0x39 examples/serial/CMakeFiles/serial_nrf52840_xxAA_s140_5.0.0-3.alpha.dir/__/__/mesh/prov/src/nrf_mesh_prov.c.obj
 .ARM.attributes
                0x00000193       0x39 examples/serial/CMakeFiles/serial_nrf52840_xxAA_s140_5.0.0-3.alpha.dir/__/__/mesh/prov/src/provisioning.c.obj
 .ARM.attributes
                0x000001cc       0x39 examples/serial/CMakeFiles/serial_nrf52840_xxAA_s140_5.0.0-3.alpha.dir/__/__/mesh/prov/src/prov_beacon.c.obj
 .ARM.attributes
                0x00000205       0x39 examples/serial/CMakeFiles/serial_nrf52840_xxAA_s140_5.0.0-3.alpha.dir/__/__/mesh/prov/src/prov_utils.c.obj
 .ARM.attributes
                0x0000023e       0x39 examples/serial/CMakeFiles/serial_nrf52840_xxAA_s140_5.0.0-3.alpha.dir/__/__/mesh/prov/src/prov_bearer_adv.c.obj
 .ARM.attributes
                0x00000277       0x39 examples/serial/CMakeFiles/serial_nrf52840_xxAA_s140_5.0.0-3.alpha.dir/__/__/mesh/access/src/access_publish.c.obj
 .ARM.attributes
                0x000002b0       0x39 examples/serial/CMakeFiles/serial_nrf52840_xxAA_s140_5.0.0-3.alpha.dir/__/__/mesh/access/src/access.c.obj
 .ARM.attributes
                0x000002e9       0x39 examples/serial/CMakeFiles/serial_nrf52840_xxAA_s140_5.0.0-3.alpha.dir/__/__/mesh/access/src/access_reliable.c.obj
 .ARM.attributes
                0x00000322       0x39 examples/serial/CMakeFiles/serial_nrf52840_xxAA_s140_5.0.0-3.alpha.dir/__/__/mesh/access/src/device_state_manager.c.obj
 .ARM.attributes
                0x0000035b       0x39 examples/serial/CMakeFiles/serial_nrf52840_xxAA_s140_5.0.0-3.alpha.dir/__/__/mesh/serial/src/serial_uart.c.obj
 .ARM.attributes
                0x00000394       0x39 examples/serial/CMakeFiles/serial_nrf52840_xxAA_s140_5.0.0-3.alpha.dir/__/__/mesh/serial/src/serial_bearer.c.obj
 .ARM.attributes
                0x000003cd       0x39 examples/serial/CMakeFiles/serial_nrf52840_xxAA_s140_5.0.0-3.alpha.dir/__/__/mesh/serial/src/serial_handler_common.c.obj
 .ARM.attributes
                0x00000406       0x39 examples/serial/CMakeFiles/serial_nrf52840_xxAA_s140_5.0.0-3.alpha.dir/__/__/mesh/serial/src/serial_handler_access.c.obj
 .ARM.attributes
                0x0000043f       0x39 examples/serial/CMakeFiles/serial_nrf52840_xxAA_s140_5.0.0-3.alpha.dir/__/__/mesh/serial/src/serial_handler_config.c.obj
 .ARM.attributes
                0x00000478       0x39 examples/serial/CMakeFiles/serial_nrf52840_xxAA_s140_5.0.0-3.alpha.dir/__/__/mesh/serial/src/serial_handler_openmesh.c.obj
 .ARM.attributes
                0x000004b1       0x39 examples/serial/CMakeFiles/serial_nrf52840_xxAA_s140_5.0.0-3.alpha.dir/__/__/mesh/serial/src/serial.c.obj
 .ARM.attributes
                0x000004ea       0x39 examples/serial/CMakeFiles/serial_nrf52840_xxAA_s140_5.0.0-3.alpha.dir/__/__/mesh/serial/src/serial_handler_prov.c.obj
 .ARM.attributes
                0x00000523       0x39 examples/serial/CMakeFiles/serial_nrf52840_xxAA_s140_5.0.0-3.alpha.dir/__/__/mesh/serial/src/serial_handler_dfu.c.obj
 .ARM.attributes
                0x0000055c       0x39 examples/serial/CMakeFiles/serial_nrf52840_xxAA_s140_5.0.0-3.alpha.dir/__/__/mesh/serial/src/serial_handler_mesh.c.obj
 .ARM.attributes
                0x00000595       0x39 examples/serial/CMakeFiles/serial_nrf52840_xxAA_s140_5.0.0-3.alpha.dir/__/__/mesh/serial/src/serial_handler_models.c.obj
 .ARM.attributes
                0x000005ce       0x39 examples/serial/CMakeFiles/serial_nrf52840_xxAA_s140_5.0.0-3.alpha.dir/__/__/mesh/serial/src/serial_handler_device.c.obj
 .ARM.attributes
                0x00000607       0x39 examples/serial/CMakeFiles/serial_nrf52840_xxAA_s140_5.0.0-3.alpha.dir/__/__/mesh/serial/src/nrf_mesh_serial.c.obj
 .ARM.attributes
                0x00000640       0x39 examples/serial/CMakeFiles/serial_nrf52840_xxAA_s140_5.0.0-3.alpha.dir/__/__/mesh/serial/src/serial_handler_app.c.obj
 .ARM.attributes
                0x00000679       0x39 examples/serial/CMakeFiles/serial_nrf52840_xxAA_s140_5.0.0-3.alpha.dir/__/nrf_mesh_weak.c.obj
 .ARM.attributes
                0x000006b2       0x39 examples/serial/CMakeFiles/serial_nrf52840_xxAA_s140_5.0.0-3.alpha.dir/__/__/external/nRF5_SDK_14.0.0_3bcc1f7/components/toolchain/system_nrf52840.c.obj
 .ARM.attributes
                0x000006eb       0x20 examples/serial/CMakeFiles/serial_nrf52840_xxAA_s140_5.0.0-3.alpha.dir/__/__/external/nRF5_SDK_14.0.0_3bcc1f7/components/toolchain/gcc/gcc_startup_nrf52840.S.obj
 .ARM.attributes
                0x0000070b       0x39 mesh/core/libmesh_core_nrf52840_xxAA.a(internal_event.c.obj)
 .ARM.attributes
                0x00000744       0x39 mesh/core/libmesh_core_nrf52840_xxAA.a(nrf_mesh_configure.c.obj)
 .ARM.attributes
                0x0000077d       0x39 mesh/core/libmesh_core_nrf52840_xxAA.a(event.c.obj)
 .ARM.attributes
                0x000007b6       0x39 mesh/core/libmesh_core_nrf52840_xxAA.a(packet_buffer.c.obj)
 .ARM.attributes
                0x000007ef       0x39 mesh/core/libmesh_core_nrf52840_xxAA.a(fifo.c.obj)
 .ARM.attributes
                0x00000828       0x39 mesh/core/libmesh_core_nrf52840_xxAA.a(net_state.c.obj)
 .ARM.attributes
                0x00000861       0x39 mesh/core/libmesh_core_nrf52840_xxAA.a(nrf_mesh_utils.c.obj)
 .ARM.attributes
                0x0000089a       0x39 mesh/core/libmesh_core_nrf52840_xxAA.a(nrf_mesh.c.obj)
 .ARM.attributes
                0x000008d3       0x39 mesh/core/libmesh_core_nrf52840_xxAA.a(hal.c.obj)
 .ARM.attributes
                0x0000090c       0x39 mesh/core/libmesh_core_nrf52840_xxAA.a(timer_scheduler.c.obj)
 .ARM.attributes
                0x00000945       0x39 mesh/core/libmesh_core_nrf52840_xxAA.a(timer.c.obj)
 .ARM.attributes
                0x0000097e       0x39 mesh/core/libmesh_core_nrf52840_xxAA.a(ticker.c.obj)
 .ARM.attributes
                0x000009b7       0x39 mesh/core/libmesh_core_nrf52840_xxAA.a(rand.c.obj)
 .ARM.attributes
                0x000009f0       0x39 mesh/core/libmesh_core_nrf52840_xxAA.a(nrf_mesh_opt.c.obj)
 .ARM.attributes
                0x00000a29       0x39 mesh/core/libmesh_core_nrf52840_xxAA.a(timeslot.c.obj)
 .ARM.attributes
                0x00000a62       0x39 mesh/core/libmesh_core_nrf52840_xxAA.a(bearer_event.c.obj)
 .ARM.attributes
                0x00000a9b       0x39 mesh/core/libmesh_core_nrf52840_xxAA.a(enc.c.obj)
 .ARM.attributes
                0x00000ad4       0x39 mesh/core/libmesh_core_nrf52840_xxAA.a(network.c.obj)
 .ARM.attributes
                0x00000b0d       0x39 mesh/core/libmesh_core_nrf52840_xxAA.a(nrf_mesh_keygen.c.obj)
 .ARM.attributes
                0x00000b46       0x39 mesh/core/libmesh_core_nrf52840_xxAA.a(log.c.obj)
 .ARM.attributes
                0x00000b7f       0x39 mesh/core/libmesh_core_nrf52840_xxAA.a(flash_manager.c.obj)
 .ARM.attributes
                0x00000bb8       0x39 mesh/core/libmesh_core_nrf52840_xxAA.a(ccm_soft.c.obj)
 .ARM.attributes
                0x00000bf1       0x39 mesh/core/libmesh_core_nrf52840_xxAA.a(beacon.c.obj)
 .ARM.attributes
                0x00000c2a       0x39 mesh/core/libmesh_core_nrf52840_xxAA.a(flash_manager_internal.c.obj)
 .ARM.attributes
                0x00000c63       0x39 mesh/core/libmesh_core_nrf52840_xxAA.a(core_tx.c.obj)
 .ARM.attributes
                0x00000c9c       0x39 mesh/core/libmesh_core_nrf52840_xxAA.a(net_beacon.c.obj)
 .ARM.attributes
                0x00000cd5       0x39 mesh/core/libmesh_core_nrf52840_xxAA.a(advertiser.c.obj)
 .ARM.attributes
                0x00000d0e       0x39 mesh/core/libmesh_core_nrf52840_xxAA.a(bearer_handler.c.obj)
 .ARM.attributes
                0x00000d47       0x39 mesh/core/libmesh_core_nrf52840_xxAA.a(broadcast.c.obj)
 .ARM.attributes
                0x00000d80       0x39 mesh/core/libmesh_core_nrf52840_xxAA.a(radio_config.c.obj)
 .ARM.attributes
                0x00000db9       0x39 mesh/core/libmesh_core_nrf52840_xxAA.a(scanner.c.obj)
 .ARM.attributes
                0x00000df2       0x39 mesh/core/libmesh_core_nrf52840_xxAA.a(aes.c.obj)
 .ARM.attributes
                0x00000e2b       0x39 mesh/core/libmesh_core_nrf52840_xxAA.a(msg_cache.c.obj)
 .ARM.attributes
                0x00000e64       0x39 mesh/core/libmesh_core_nrf52840_xxAA.a(transport.c.obj)
 .ARM.attributes
                0x00000e9d       0x39 mesh/core/libmesh_core_nrf52840_xxAA.a(flash_manager_defrag.c.obj)
 .ARM.attributes
                0x00000ed6       0x39 mesh/core/libmesh_core_nrf52840_xxAA.a(packet_mgr.c.obj)
 .ARM.attributes
                0x00000f0f       0x39 mesh/core/libmesh_core_nrf52840_xxAA.a(mesh_flash.c.obj)
 .ARM.attributes
                0x00000f48       0x39 mesh/core/libmesh_core_nrf52840_xxAA.a(queue.c.obj)
 .ARM.attributes
                0x00000f81       0x39 mesh/core/libmesh_core_nrf52840_xxAA.a(aes_cmac.c.obj)
 .ARM.attributes
                0x00000fba       0x39 mesh/core/libmesh_core_nrf52840_xxAA.a(msqueue.c.obj)
 .ARM.attributes
                0x00000ff3       0x39 mesh/core/libmesh_core_nrf52840_xxAA.a(replay_cache.c.obj)
 .ARM.attributes
                0x0000102c       0x39 mesh/core/libmesh_core_nrf52840_xxAA.a(filter_engine.c.obj)
 .ARM.attributes
                0x00001065       0x39 mesh/core/libmesh_core_nrf52840_xxAA.a(nrf_flash.c.obj)
 .ARM.attributes
                0x0000109e       0x39 external/micro-ecc/libuECC_nrf52840_xxAA.a(uECC.c.obj)
 .ARM.attributes
                0x000010d7       0x39 external/rtt/librtt_nrf52840_xxAA.a(SEGGER_RTT.c.obj)
 .ARM.attributes
                0x00001110       0x39 external/rtt/librtt_nrf52840_xxAA.a(SEGGER_RTT_printf.c.obj)
 .ARM.attributes
                0x00001149       0x34 c:/a/gcc_arm/6/bin/../lib/gcc/arm-none-eabi/6.3.1/../../../../arm-none-eabi/lib/thumb/v7e-m/fpv4-sp/hard\libc_nano.a(lib_a-exit.o)
 .ARM.attributes
                0x0000117d       0x34 c:/a/gcc_arm/6/bin/../lib/gcc/arm-none-eabi/6.3.1/../../../../arm-none-eabi/lib/thumb/v7e-m/fpv4-sp/hard\libc_nano.a(lib_a-impure.o)
 .ARM.attributes
                0x000011b1       0x34 c:/a/gcc_arm/6/bin/../lib/gcc/arm-none-eabi/6.3.1/../../../../arm-none-eabi/lib/thumb/v7e-m/fpv4-sp/hard\libc_nano.a(lib_a-init.o)
 .ARM.attributes
                0x000011e5       0x34 c:/a/gcc_arm/6/bin/../lib/gcc/arm-none-eabi/6.3.1/../../../../arm-none-eabi/lib/thumb/v7e-m/fpv4-sp/hard\libc_nano.a(lib_a-malloc.o)
 .ARM.attributes
                0x00001219       0x34 c:/a/gcc_arm/6/bin/../lib/gcc/arm-none-eabi/6.3.1/../../../../arm-none-eabi/lib/thumb/v7e-m/fpv4-sp/hard\libc_nano.a(lib_a-memcmp.o)
 .ARM.attributes
                0x0000124d       0x34 c:/a/gcc_arm/6/bin/../lib/gcc/arm-none-eabi/6.3.1/../../../../arm-none-eabi/lib/thumb/v7e-m/fpv4-sp/hard\libc_nano.a(lib_a-memcpy-stub.o)
 .ARM.attributes
                0x00001281       0x34 c:/a/gcc_arm/6/bin/../lib/gcc/arm-none-eabi/6.3.1/../../../../arm-none-eabi/lib/thumb/v7e-m/fpv4-sp/hard\libc_nano.a(lib_a-memset.o)
 .ARM.attributes
                0x000012b5       0x34 c:/a/gcc_arm/6/bin/../lib/gcc/arm-none-eabi/6.3.1/../../../../arm-none-eabi/lib/thumb/v7e-m/fpv4-sp/hard\libc_nano.a(lib_a-nano-freer.o)
 .ARM.attributes
                0x000012e9       0x34 c:/a/gcc_arm/6/bin/../lib/gcc/arm-none-eabi/6.3.1/../../../../arm-none-eabi/lib/thumb/v7e-m/fpv4-sp/hard\libc_nano.a(lib_a-nano-mallocr.o)
 .ARM.attributes
                0x0000131d       0x34 c:/a/gcc_arm/6/bin/../lib/gcc/arm-none-eabi/6.3.1/../../../../arm-none-eabi/lib/thumb/v7e-m/fpv4-sp/hard\libc_nano.a(lib_a-sbrkr.o)
 .ARM.attributes
                0x00001351       0x34 c:/a/gcc_arm/6/bin/../lib/gcc/arm-none-eabi/6.3.1/../../../../arm-none-eabi/lib/thumb/v7e-m/fpv4-sp/hard\libc_nano.a(lib_a-strcpy.o)
 .ARM.attributes
                0x00001385       0x1b c:/a/gcc_arm/6/bin/../lib/gcc/arm-none-eabi/6.3.1/../../../../arm-none-eabi/lib/thumb/v7e-m/fpv4-sp/hard\libc_nano.a(lib_a-strlen.o)
 .ARM.attributes
                0x000013a0       0x34 c:/a/gcc_arm/6/bin/../lib/gcc/arm-none-eabi/6.3.1/../../../../arm-none-eabi/lib/thumb/v7e-m/fpv4-sp/hard\libc_nano.a(lib_a-strrchr.o)
 .ARM.attributes
                0x000013d4       0x34 c:/a/gcc_arm/6/bin/../lib/gcc/arm-none-eabi/6.3.1/../../../../arm-none-eabi/lib/thumb/v7e-m/fpv4-sp/hard\libc_nano.a(lib_a-mlock.o)
 .ARM.attributes
                0x00001408       0x34 c:/a/gcc_arm/6/bin/../lib/gcc/arm-none-eabi/6.3.1/../../../../arm-none-eabi/lib/thumb/v7e-m/fpv4-sp/hard\libc_nano.a(lib_a-reent.o)
 .ARM.attributes
                0x0000143c       0x34 c:/a/gcc_arm/6/bin/../lib/gcc/arm-none-eabi/6.3.1/../../../../arm-none-eabi/lib/thumb/v7e-m/fpv4-sp/hard\libc_nano.a(lib_a-strchr.o)
 .ARM.attributes
                0x00001470       0x34 c:/a/gcc_arm/6/bin/../lib/gcc/arm-none-eabi/6.3.1/thumb/v7e-m/fpv4-sp/hard/crtend.o
 .ARM.attributes
                0x000014a4       0x22 c:/a/gcc_arm/6/bin/../lib/gcc/arm-none-eabi/6.3.1/thumb/v7e-m/fpv4-sp/hard/crtn.o
 .ARM.attributes
                0x000014c6       0x34 c:/a/gcc_arm/6/bin/../lib/gcc/arm-none-eabi/6.3.1/../../../../arm-none-eabi/lib/thumb/v7e-m/fpv4-sp/hard\libnosys.a(sbrk.o)
 .ARM.attributes
                0x000014fa       0x34 c:/a/gcc_arm/6/bin/../lib/gcc/arm-none-eabi/6.3.1/../../../../arm-none-eabi/lib/thumb/v7e-m/fpv4-sp/hard\libnosys.a(_exit.o)

.comment        0x00000000       0x7f
 .comment       0x00000000       0x7f examples/serial/CMakeFiles/serial_nrf52840_xxAA_s140_5.0.0-3.alpha.dir/src/main.c.obj
                                 0x80 (size before relaxing)
 .comment       0x0000007f       0x80 examples/serial/CMakeFiles/serial_nrf52840_xxAA_s140_5.0.0-3.alpha.dir/__/nrf_mesh_sdk.c.obj
 .comment       0x0000007f       0x80 examples/serial/CMakeFiles/serial_nrf52840_xxAA_s140_5.0.0-3.alpha.dir/__/__/mesh/prov/src/prov_provisioner.c.obj
 .comment       0x0000007f       0x80 examples/serial/CMakeFiles/serial_nrf52840_xxAA_s140_5.0.0-3.alpha.dir/__/__/mesh/prov/src/prov_provisionee.c.obj
 .comment       0x0000007f       0x80 examples/serial/CMakeFiles/serial_nrf52840_xxAA_s140_5.0.0-3.alpha.dir/__/__/mesh/prov/src/nrf_mesh_prov.c.obj
 .comment       0x0000007f       0x80 examples/serial/CMakeFiles/serial_nrf52840_xxAA_s140_5.0.0-3.alpha.dir/__/__/mesh/prov/src/provisioning.c.obj
 .comment       0x0000007f       0x80 examples/serial/CMakeFiles/serial_nrf52840_xxAA_s140_5.0.0-3.alpha.dir/__/__/mesh/prov/src/prov_beacon.c.obj
 .comment       0x0000007f       0x80 examples/serial/CMakeFiles/serial_nrf52840_xxAA_s140_5.0.0-3.alpha.dir/__/__/mesh/prov/src/prov_utils.c.obj
 .comment       0x0000007f       0x80 examples/serial/CMakeFiles/serial_nrf52840_xxAA_s140_5.0.0-3.alpha.dir/__/__/mesh/prov/src/prov_bearer_adv.c.obj
 .comment       0x0000007f       0x80 examples/serial/CMakeFiles/serial_nrf52840_xxAA_s140_5.0.0-3.alpha.dir/__/__/mesh/access/src/access_publish.c.obj
 .comment       0x0000007f       0x80 examples/serial/CMakeFiles/serial_nrf52840_xxAA_s140_5.0.0-3.alpha.dir/__/__/mesh/access/src/access.c.obj
 .comment       0x0000007f       0x80 examples/serial/CMakeFiles/serial_nrf52840_xxAA_s140_5.0.0-3.alpha.dir/__/__/mesh/access/src/access_reliable.c.obj
 .comment       0x0000007f       0x80 examples/serial/CMakeFiles/serial_nrf52840_xxAA_s140_5.0.0-3.alpha.dir/__/__/mesh/access/src/device_state_manager.c.obj
 .comment       0x0000007f       0x80 examples/serial/CMakeFiles/serial_nrf52840_xxAA_s140_5.0.0-3.alpha.dir/__/__/mesh/serial/src/serial_uart.c.obj
 .comment       0x0000007f       0x80 examples/serial/CMakeFiles/serial_nrf52840_xxAA_s140_5.0.0-3.alpha.dir/__/__/mesh/serial/src/serial_bearer.c.obj
 .comment       0x0000007f       0x80 examples/serial/CMakeFiles/serial_nrf52840_xxAA_s140_5.0.0-3.alpha.dir/__/__/mesh/serial/src/serial_handler_common.c.obj
 .comment       0x0000007f       0x80 examples/serial/CMakeFiles/serial_nrf52840_xxAA_s140_5.0.0-3.alpha.dir/__/__/mesh/serial/src/serial_handler_access.c.obj
 .comment       0x0000007f       0x80 examples/serial/CMakeFiles/serial_nrf52840_xxAA_s140_5.0.0-3.alpha.dir/__/__/mesh/serial/src/serial_handler_config.c.obj
 .comment       0x0000007f       0x80 examples/serial/CMakeFiles/serial_nrf52840_xxAA_s140_5.0.0-3.alpha.dir/__/__/mesh/serial/src/serial_handler_openmesh.c.obj
 .comment       0x0000007f       0x80 examples/serial/CMakeFiles/serial_nrf52840_xxAA_s140_5.0.0-3.alpha.dir/__/__/mesh/serial/src/serial.c.obj
 .comment       0x0000007f       0x80 examples/serial/CMakeFiles/serial_nrf52840_xxAA_s140_5.0.0-3.alpha.dir/__/__/mesh/serial/src/serial_handler_prov.c.obj
 .comment       0x0000007f       0x80 examples/serial/CMakeFiles/serial_nrf52840_xxAA_s140_5.0.0-3.alpha.dir/__/__/mesh/serial/src/serial_handler_dfu.c.obj
 .comment       0x0000007f       0x80 examples/serial/CMakeFiles/serial_nrf52840_xxAA_s140_5.0.0-3.alpha.dir/__/__/mesh/serial/src/serial_handler_mesh.c.obj
 .comment       0x0000007f       0x80 examples/serial/CMakeFiles/serial_nrf52840_xxAA_s140_5.0.0-3.alpha.dir/__/__/mesh/serial/src/serial_handler_models.c.obj
 .comment       0x0000007f       0x80 examples/serial/CMakeFiles/serial_nrf52840_xxAA_s140_5.0.0-3.alpha.dir/__/__/mesh/serial/src/serial_handler_device.c.obj
 .comment       0x0000007f       0x80 examples/serial/CMakeFiles/serial_nrf52840_xxAA_s140_5.0.0-3.alpha.dir/__/__/mesh/serial/src/nrf_mesh_serial.c.obj
 .comment       0x0000007f       0x80 examples/serial/CMakeFiles/serial_nrf52840_xxAA_s140_5.0.0-3.alpha.dir/__/__/mesh/serial/src/serial_handler_app.c.obj
 .comment       0x0000007f       0x80 examples/serial/CMakeFiles/serial_nrf52840_xxAA_s140_5.0.0-3.alpha.dir/__/nrf_mesh_weak.c.obj
 .comment       0x0000007f       0x80 examples/serial/CMakeFiles/serial_nrf52840_xxAA_s140_5.0.0-3.alpha.dir/__/__/external/nRF5_SDK_14.0.0_3bcc1f7/components/toolchain/system_nrf52840.c.obj
 .comment       0x0000007f       0x80 mesh/core/libmesh_core_nrf52840_xxAA.a(internal_event.c.obj)
 .comment       0x0000007f       0x80 mesh/core/libmesh_core_nrf52840_xxAA.a(nrf_mesh_configure.c.obj)
 .comment       0x0000007f       0x80 mesh/core/libmesh_core_nrf52840_xxAA.a(event.c.obj)
 .comment       0x0000007f       0x80 mesh/core/libmesh_core_nrf52840_xxAA.a(packet_buffer.c.obj)
 .comment       0x0000007f       0x80 mesh/core/libmesh_core_nrf52840_xxAA.a(fifo.c.obj)
 .comment       0x0000007f       0x80 mesh/core/libmesh_core_nrf52840_xxAA.a(net_state.c.obj)
 .comment       0x0000007f       0x80 mesh/core/libmesh_core_nrf52840_xxAA.a(nrf_mesh_utils.c.obj)
 .comment       0x0000007f       0x80 mesh/core/libmesh_core_nrf52840_xxAA.a(nrf_mesh.c.obj)
 .comment       0x0000007f       0x80 mesh/core/libmesh_core_nrf52840_xxAA.a(hal.c.obj)
 .comment       0x0000007f       0x80 mesh/core/libmesh_core_nrf52840_xxAA.a(timer_scheduler.c.obj)
 .comment       0x0000007f       0x80 mesh/core/libmesh_core_nrf52840_xxAA.a(timer.c.obj)
 .comment       0x0000007f       0x80 mesh/core/libmesh_core_nrf52840_xxAA.a(ticker.c.obj)
 .comment       0x0000007f       0x80 mesh/core/libmesh_core_nrf52840_xxAA.a(rand.c.obj)
 .comment       0x0000007f       0x80 mesh/core/libmesh_core_nrf52840_xxAA.a(nrf_mesh_opt.c.obj)
 .comment       0x0000007f       0x80 mesh/core/libmesh_core_nrf52840_xxAA.a(timeslot.c.obj)
 .comment       0x0000007f       0x80 mesh/core/libmesh_core_nrf52840_xxAA.a(bearer_event.c.obj)
 .comment       0x0000007f       0x80 mesh/core/libmesh_core_nrf52840_xxAA.a(enc.c.obj)
 .comment       0x0000007f       0x80 mesh/core/libmesh_core_nrf52840_xxAA.a(network.c.obj)
 .comment       0x0000007f       0x80 mesh/core/libmesh_core_nrf52840_xxAA.a(nrf_mesh_keygen.c.obj)
 .comment       0x0000007f       0x80 mesh/core/libmesh_core_nrf52840_xxAA.a(log.c.obj)
 .comment       0x0000007f       0x80 mesh/core/libmesh_core_nrf52840_xxAA.a(flash_manager.c.obj)
 .comment       0x0000007f       0x80 mesh/core/libmesh_core_nrf52840_xxAA.a(ccm_soft.c.obj)
 .comment       0x0000007f       0x80 mesh/core/libmesh_core_nrf52840_xxAA.a(beacon.c.obj)
 .comment       0x0000007f       0x80 mesh/core/libmesh_core_nrf52840_xxAA.a(flash_manager_internal.c.obj)
 .comment       0x0000007f       0x80 mesh/core/libmesh_core_nrf52840_xxAA.a(core_tx.c.obj)
 .comment       0x0000007f       0x80 mesh/core/libmesh_core_nrf52840_xxAA.a(net_beacon.c.obj)
 .comment       0x0000007f       0x80 mesh/core/libmesh_core_nrf52840_xxAA.a(advertiser.c.obj)
 .comment       0x0000007f       0x80 mesh/core/libmesh_core_nrf52840_xxAA.a(bearer_handler.c.obj)
 .comment       0x0000007f       0x80 mesh/core/libmesh_core_nrf52840_xxAA.a(broadcast.c.obj)
 .comment       0x0000007f       0x80 mesh/core/libmesh_core_nrf52840_xxAA.a(radio_config.c.obj)
 .comment       0x0000007f       0x80 mesh/core/libmesh_core_nrf52840_xxAA.a(scanner.c.obj)
 .comment       0x0000007f       0x80 mesh/core/libmesh_core_nrf52840_xxAA.a(aes.c.obj)
 .comment       0x0000007f       0x80 mesh/core/libmesh_core_nrf52840_xxAA.a(msg_cache.c.obj)
 .comment       0x0000007f       0x80 mesh/core/libmesh_core_nrf52840_xxAA.a(transport.c.obj)
 .comment       0x0000007f       0x80 mesh/core/libmesh_core_nrf52840_xxAA.a(flash_manager_defrag.c.obj)
 .comment       0x0000007f       0x80 mesh/core/libmesh_core_nrf52840_xxAA.a(packet_mgr.c.obj)
 .comment       0x0000007f       0x80 mesh/core/libmesh_core_nrf52840_xxAA.a(mesh_flash.c.obj)
 .comment       0x0000007f       0x80 mesh/core/libmesh_core_nrf52840_xxAA.a(queue.c.obj)
 .comment       0x0000007f       0x80 mesh/core/libmesh_core_nrf52840_xxAA.a(aes_cmac.c.obj)
 .comment       0x0000007f       0x80 mesh/core/libmesh_core_nrf52840_xxAA.a(msqueue.c.obj)
 .comment       0x0000007f       0x80 mesh/core/libmesh_core_nrf52840_xxAA.a(replay_cache.c.obj)
 .comment       0x0000007f       0x80 mesh/core/libmesh_core_nrf52840_xxAA.a(filter_engine.c.obj)
 .comment       0x0000007f       0x80 mesh/core/libmesh_core_nrf52840_xxAA.a(nrf_flash.c.obj)
 .comment       0x0000007f       0x80 external/micro-ecc/libuECC_nrf52840_xxAA.a(uECC.c.obj)
 .comment       0x0000007f       0x80 external/rtt/librtt_nrf52840_xxAA.a(SEGGER_RTT.c.obj)
 .comment       0x0000007f       0x80 external/rtt/librtt_nrf52840_xxAA.a(SEGGER_RTT_printf.c.obj)

.debug_frame    0x00000000      0x2c4
 .debug_frame   0x00000000       0x28 c:/a/gcc_arm/6/bin/../lib/gcc/arm-none-eabi/6.3.1/../../../../arm-none-eabi/lib/thumb/v7e-m/fpv4-sp/hard\libc_nano.a(lib_a-exit.o)
 .debug_frame   0x00000028       0x2c c:/a/gcc_arm/6/bin/../lib/gcc/arm-none-eabi/6.3.1/../../../../arm-none-eabi/lib/thumb/v7e-m/fpv4-sp/hard\libc_nano.a(lib_a-init.o)
 .debug_frame   0x00000054       0x30 c:/a/gcc_arm/6/bin/../lib/gcc/arm-none-eabi/6.3.1/../../../../arm-none-eabi/lib/thumb/v7e-m/fpv4-sp/hard\libc_nano.a(lib_a-malloc.o)
 .debug_frame   0x00000084       0x28 c:/a/gcc_arm/6/bin/../lib/gcc/arm-none-eabi/6.3.1/../../../../arm-none-eabi/lib/thumb/v7e-m/fpv4-sp/hard\libc_nano.a(lib_a-memcmp.o)
 .debug_frame   0x000000ac       0x28 c:/a/gcc_arm/6/bin/../lib/gcc/arm-none-eabi/6.3.1/../../../../arm-none-eabi/lib/thumb/v7e-m/fpv4-sp/hard\libc_nano.a(lib_a-memcpy-stub.o)
 .debug_frame   0x000000d4       0x20 c:/a/gcc_arm/6/bin/../lib/gcc/arm-none-eabi/6.3.1/../../../../arm-none-eabi/lib/thumb/v7e-m/fpv4-sp/hard\libc_nano.a(lib_a-memset.o)
 .debug_frame   0x000000f4       0x38 c:/a/gcc_arm/6/bin/../lib/gcc/arm-none-eabi/6.3.1/../../../../arm-none-eabi/lib/thumb/v7e-m/fpv4-sp/hard\libc_nano.a(lib_a-nano-freer.o)
 .debug_frame   0x0000012c       0x2c c:/a/gcc_arm/6/bin/../lib/gcc/arm-none-eabi/6.3.1/../../../../arm-none-eabi/lib/thumb/v7e-m/fpv4-sp/hard\libc_nano.a(lib_a-nano-mallocr.o)
 .debug_frame   0x00000158       0x2c c:/a/gcc_arm/6/bin/../lib/gcc/arm-none-eabi/6.3.1/../../../../arm-none-eabi/lib/thumb/v7e-m/fpv4-sp/hard\libc_nano.a(lib_a-sbrkr.o)
 .debug_frame   0x00000184       0x20 c:/a/gcc_arm/6/bin/../lib/gcc/arm-none-eabi/6.3.1/../../../../arm-none-eabi/lib/thumb/v7e-m/fpv4-sp/hard\libc_nano.a(lib_a-strcpy.o)
 .debug_frame   0x000001a4       0x34 c:/a/gcc_arm/6/bin/../lib/gcc/arm-none-eabi/6.3.1/../../../../arm-none-eabi/lib/thumb/v7e-m/fpv4-sp/hard\libc_nano.a(lib_a-strrchr.o)
 .debug_frame   0x000001d8       0x30 c:/a/gcc_arm/6/bin/../lib/gcc/arm-none-eabi/6.3.1/../../../../arm-none-eabi/lib/thumb/v7e-m/fpv4-sp/hard\libc_nano.a(lib_a-mlock.o)
 .debug_frame   0x00000208       0x5c c:/a/gcc_arm/6/bin/../lib/gcc/arm-none-eabi/6.3.1/../../../../arm-none-eabi/lib/thumb/v7e-m/fpv4-sp/hard\libc_nano.a(lib_a-reent.o)
 .debug_frame   0x00000264       0x20 c:/a/gcc_arm/6/bin/../lib/gcc/arm-none-eabi/6.3.1/../../../../arm-none-eabi/lib/thumb/v7e-m/fpv4-sp/hard\libc_nano.a(lib_a-strchr.o)
 .debug_frame   0x00000284       0x20 c:/a/gcc_arm/6/bin/../lib/gcc/arm-none-eabi/6.3.1/../../../../arm-none-eabi/lib/thumb/v7e-m/fpv4-sp/hard\libnosys.a(sbrk.o)
 .debug_frame   0x000002a4       0x20 c:/a/gcc_arm/6/bin/../lib/gcc/arm-none-eabi/6.3.1/../../../../arm-none-eabi/lib/thumb/v7e-m/fpv4-sp/hard\libnosys.a(_exit.o)
